(dp1
S'domain'
p2
ccopy_reg
_reconstructor
p3
(clib.sqUtils
Storage
p4
c__builtin__
dict
p5
(dp6
S'keying'
p7
S'name'
p8
sS'peek_lockseq'
p9
S'12'
p10
sS'fields'
p11
g3
(clib.sqUtils
Lst
p12
c__builtin__
list
p13
(lp14
g3
(g4
g5
(dp15
S'comment'
p16
S''
sS'fieldname'
p17
S'id'
p18
sS'name'
p19
g18
sS'default'
p20
S''
sS'label'
p21
S''
sS'type'
p22
S'integer'
p23
sS'desc'
p24
S'Record number as read in'
p25
stRp26
ag3
(g4
g5
(dp27
g16
S''
sg19
S'db_action'
p28
sg20
S''
sg22
S'string'
p29
sg21
S''
sg17
g28
sS'requires'
p30
Nsg24
S'Operation on table'
p31
stRp32
ag3
(g4
g5
(dp33
g16
S''
sg19
S'table_revision'
p34
sg20
S''
sg22
g23
sg21
S''
sg17
g34
sg30
Nsg24
S'Revision of the p4 schema table'
p35
stRp36
ag3
(g4
g5
(dp37
g16
S''
sg19
S'table_name'
p38
sg20
S''
sg22
g29
sg21
S''
sg17
g38
sg30
Nsg24
S'Redundant... but this is the table name'
p39
stRp40
ag3
(g4
g5
(dp41
g16
S''
sS'name'
p42
S'name'
p43
sg20
S''
sS'type'
p44
S'Domain'
p45
sg21
S''
sg17
g43
sg30
NsS'desc'
p46
S'Domain name'
p47
stRp48
ag3
(g4
g5
(dp49
g16
S''
sg42
S'type'
p50
sg20
S''
sg44
S'DomainType'
p51
sg21
S''
sg17
g50
sg30
Nsg46
S'Type of domain'
p52
stRp53
ag3
(g4
g5
(dp54
g16
S''
sg42
S'extra'
p55
sg20
S''
sg44
S'Text'
p56
sg21
S''
sg17
g55
sg30
Nsg46
S'Formerly "host". Associated host or, for labels, revision \n\t\t    number.'
p57
stRp58
ag3
(g4
g5
(dp59
g16
S''
sg42
S'mount'
p60
sg20
S''
sg44
S'Text'
p61
sg21
S''
sg17
g60
sg30
Nsg46
S'The client root'
p62
stRp63
ag3
(g4
g5
(dp64
g16
S''
sg42
S'mount2'
p65
sg20
S''
sg44
S'Text'
p66
sg21
S''
sg17
g65
sg30
Nsg46
S'Alternate client root'
p67
stRp68
ag3
(g4
g5
(dp69
g16
S''
sg42
S'mount3'
p70
sg20
S''
sg44
S'Text'
p71
sg21
S''
sg17
g70
sg30
Nsg46
S'Alternate client root'
p72
stRp73
ag3
(g4
g5
(dp74
g16
S''
sg42
S'owner'
p75
sg20
S''
sg44
S'User'
p76
sg21
S''
sg17
g75
sg30
Nsg46
S'Name of user who owns the domain.'
p77
stRp78
ag3
(g4
g5
(dp79
g16
S''
sg42
S'updateDate'
p80
sg20
S''
sg44
S'Date'
p81
sg21
S''
sg17
g80
sg30
Nsg46
S'Date of last update to domain specification.'
p82
stRp83
ag3
(g4
g5
(dp84
g16
S''
sg42
S'accessDate'
p85
sg20
S''
sg44
S'Date'
p86
sg21
S''
sg17
g85
sg30
Nsg46
S'Date of last access to domain specification.'
p87
stRp88
ag3
(g4
g5
(dp89
g16
S''
sg42
S'options'
p90
sg20
S''
sg44
S'DomainOpts'
p91
sg21
S''
sg17
g90
sg30
Nsg46
S'Options for client, label, and branch domains.'
p92
stRp93
ag3
(g4
g5
(dp94
g16
S''
sg42
S'description'
p95
sg20
S''
sg44
S'Text'
p96
sg21
S''
sg17
g95
sg30
Nsg46
S'Description of domain.'
p97
stRp98
ag3
(g4
g5
(dp99
g16
S''
sg42
S'stream'
p100
sg20
S''
sg44
S'Text'
p101
sg21
S''
sg17
g100
sg30
Nsg46
S'Associated stream for client records'
p102
stRp103
ag3
(g4
g5
(dp104
g16
S''
sg42
S'serverid'
p105
sg20
S''
sg44
S'Text'
p106
sg21
S''
sg17
g105
sg30
Nsg46
S'Associated server ID for client records'
p107
stRp108
ag3
(g4
g5
(dp109
g16
S''
sg42
S'partition'
p110
sg20
S''
sg44
S'Int'
p111
sg21
S''
sg17
g110
sg30
Nsg46
S'Currently unused. Reserved for future use'
p112
stRp113
atRp114
sS'tablename'
p115
g2
sg42
S'db.domain'
p116
sS'version'
p117
S'6'
sS'classic_lockseq'
p118
S'12'
p119
sS'schemaversion'
p120
S'2014.1'
p121
sg44
S'Domain'
p122
sg46
S'Domains: depots, clients, labels, branches, streams, and typemap'
p123
stRp124
sS'revtx'
p125
g3
(g4
g5
(dp126
g7
S'depotFile, depotRev'
p127
sg9
S'34'
p128
sg11
g3
(g12
g13
(lp129
g3
(g4
g5
(dp130
g16
S''
sg17
g18
sg19
g18
sg20
S''
sg21
S''
sg22
g23
sg24
g25
stRp131
ag3
(g4
g5
(dp132
g16
S''
sg19
g28
sg20
S''
sg22
g29
sg21
S''
sg17
g28
sg30
Nsg24
g31
stRp133
ag3
(g4
g5
(dp134
g16
S''
sg19
g34
sg20
S''
sg22
g23
sg21
S''
sg17
g34
sg30
Nsg24
g35
stRp135
ag3
(g4
g5
(dp136
g16
S''
sg19
g38
sg20
S''
sg22
g29
sg21
S''
sg17
g38
sg30
Nsg24
g39
stRp137
ag3
(g4
g5
(dp138
g16
S''
sg42
S'depotFile'
p139
sg20
S''
sg44
S'File'
p140
sg21
S''
sg17
g139
sg30
Nsg46
S'The file name'
p141
stRp142
ag3
(g4
g5
(dp143
g16
S''
sg42
S'depotRev'
p144
sg20
S''
sg44
S'Rev'
p145
sg21
S''
sg17
g144
sg30
Nsg46
S'The revision number'
p146
stRp147
ag3
(g4
g5
(dp148
g16
S''
sg42
S'type'
p149
sg20
S''
sg44
S'FileType'
p150
sg21
S''
sg17
g149
sg30
Nsg46
S'The file type of the revision'
p151
stRp152
ag3
(g4
g5
(dp153
g16
S''
sg42
S'action'
p154
sg20
S''
sg44
S'Action'
p155
sg21
S''
sg17
g154
sg30
Nsg46
S'The action that created the revision'
p156
stRp157
ag3
(g4
g5
(dp158
g16
S''
sg42
S'change'
p159
sg20
S''
sg44
S'Change'
p160
sg21
S''
sg17
g159
sg30
Nsg46
S'The changelist that created the revision'
p161
stRp162
ag3
(g4
g5
(dp163
g16
S''
sg42
S'date'
p164
sg20
S''
sg44
S'Date'
p165
sg21
S''
sg17
g164
sg30
Nsg46
S'The date/time the changelist that created the revision\n\t\t    was submitted'
p166
stRp167
ag3
(g4
g5
(dp168
g16
S''
sg42
S'modTime'
p169
sg20
S''
sg44
S'Date'
p170
sg21
S''
sg17
g169
sg30
Nsg46
S"The timestamp on the file in the user's workspace when\n\t\t    the revision was submitted."
p171
stRp172
ag3
(g4
g5
(dp173
g16
S''
sg42
S'digest'
p174
sg20
S''
sg44
S'Digest'
p175
sg21
S''
sg17
g174
sg30
Nsg46
S'The MD5 digest of the revision.'
p176
stRp177
ag3
(g4
g5
(dp178
g16
S''
sg42
S'size'
p179
sg20
S''
sg44
S'FileSize'
p180
sg21
S''
sg17
g179
sg30
Nsg46
S'The size of the file in bytes'
p181
stRp182
ag3
(g4
g5
(dp183
g16
S''
sg42
S'traitLot'
p184
sg20
S''
sg44
S'TraitLot'
p185
sg21
S''
sg17
g184
sg30
Nsg46
S'Group of traits (attributes) associated with the revision.'
p186
stRp187
ag3
(g4
g5
(dp188
g16
S''
sg42
S'lbrIsLazy'
p189
sg20
S''
sg44
S'RevStatus'
p190
sg21
S''
sg17
g189
sg30
Nsg46
S'Specifies whether or not the revision gets its content from \n\t  \t    another file (lazy copy), data about promotion of revision\n\t \t    content from task streams, and data about revision charset \n            information.'
p191
stRp192
ag3
(g4
g5
(dp193
g16
S''
sg42
S'lbrFile'
p194
sg20
S''
sg44
S'File'
p195
sg21
S''
sg17
g194
sg30
Nsg46
S"Filename for librarian's purposes.  Specifies location in \n\t\t    the archives where the file containing the revision may\n\t\t    be found. Usually the same as depotFile, but differs in\n\t\t    the case of branched/copied revisions."
p196
stRp197
ag3
(g4
g5
(dp198
g16
S''
sg42
S'lbrRev'
p199
sg20
S''
sg44
S'String'
p200
sg21
S''
sg17
g199
sg30
Nsg46
S'The revision of lbrFile that contains the revision content.'
p201
stRp202
ag3
(g4
g5
(dp203
g16
S''
sg42
S'lbrType'
p204
sg20
S''
sg44
S'FileType'
p205
sg21
S''
sg17
g204
sg30
Nsg46
S'The file type of the librarian revision. Usually the same\n\t\t    as type, but differs in the case of branched/copied \n\t\t    revisions.'
p206
stRp207
atRp208
sg115
g125
sg42
S'db.revtx'
p209
sg117
S'9'
sg118
S'28'
p210
sg120
g121
sg44
S'Rev'
p211
sg46
S'Temporary revision records'
p212
stRp213
sS'stream'
p214
g3
(g4
g5
(dp215
g7
S'stream'
p216
sg9
S'11'
p217
sg11
g3
(g12
g13
(lp218
g3
(g4
g5
(dp219
g16
S''
sg17
g18
sg19
g18
sg20
S''
sg21
S''
sg22
g23
sg24
g25
stRp220
ag3
(g4
g5
(dp221
g16
S''
sg19
g28
sg20
S''
sg22
g29
sg21
S''
sg17
g28
sg30
Nsg24
g31
stRp222
ag3
(g4
g5
(dp223
g16
S''
sg19
g34
sg20
S''
sg22
g23
sg21
S''
sg17
g34
sg30
Nsg24
g35
stRp224
ag3
(g4
g5
(dp225
g16
S''
sg19
g38
sg20
S''
sg22
g29
sg21
S''
sg17
g38
sg30
Nsg24
g39
stRp226
ag3
(g4
g5
(dp227
g16
S''
sg42
S'stream'
p228
sg20
S''
sg44
S'Domain'
p229
sg21
S''
sg17
g228
sg30
Nsg46
S'Stream name'
p230
stRp231
ag3
(g4
g5
(dp232
g16
S''
sg42
S'parent'
p233
sg20
S''
sg44
S'Domain'
p234
sg21
S''
sg17
g233
sg30
Nsg46
S'Parent stream name'
p235
stRp236
ag3
(g4
g5
(dp237
g16
S''
sg42
S'title'
p238
sg20
S''
sg44
S'Text'
p239
sg21
S''
sg17
g238
sg30
Nsg46
S'Stream title (alias for the stream name)'
p240
stRp241
ag3
(g4
g5
(dp242
g16
S''
sg42
S'type'
p243
sg20
S''
sg44
S'StreamType'
p244
sg21
S''
sg17
g243
sg30
Nsg46
S'The type of stream'
p245
stRp246
ag3
(g4
g5
(dp247
g16
S''
sg42
S'preview'
p248
sg20
S''
sg44
S'Date'
p249
sg21
S''
sg17
g248
sg30
Nsg46
S'Stream template modification time'
p250
stRp251
ag3
(g4
g5
(dp252
g16
S''
sg42
S'change'
p253
sg20
S''
sg44
S'Change'
p254
sg21
S''
sg17
g253
sg30
Nsg46
S'Last submit to stream'
p255
stRp256
ag3
(g4
g5
(dp257
g16
S''
sg42
S'copychg'
p258
sg20
S''
sg44
S'Change'
p259
sg21
S''
sg17
g258
sg30
Nsg46
S'Parent change at last copy'
p260
stRp261
ag3
(g4
g5
(dp262
g16
S''
sg42
S'mergechg'
p263
sg20
S''
sg44
S'Change'
p264
sg21
S''
sg17
g263
sg30
Nsg46
S'Parent change at last merge'
p265
stRp266
ag3
(g4
g5
(dp267
g16
S''
sg42
S'highchg'
p268
sg20
S''
sg44
S'Change'
p269
sg21
S''
sg17
g268
sg30
Nsg46
S'Highest change at last merge'
p270
stRp271
ag3
(g4
g5
(dp272
g16
S''
sg42
S'hash'
p273
sg20
S''
sg44
S'Int'
p274
sg21
S''
sg17
g273
sg30
Nsg46
S'Hash value of dynamic branch'
p275
stRp276
ag3
(g4
g5
(dp277
g16
S''
sg42
S'status'
p278
sg20
S''
sg44
S'StreamStatus'
p279
sg21
S''
sg17
g278
sg30
Nsg46
S'Flow status'
p280
stRp281
atRp282
sg115
g214
sg42
S'db.stream'
p283
sg117
S'1'
sg118
S'11'
p284
sg120
g121
sg44
S'Stream'
p285
sg46
S'Perforce streams'
p286
stRp287
sS'svrview'
p288
g3
(g4
g5
(dp289
g7
S'id, type, seq'
p290
sg9
S'6'
sg11
g3
(g12
g13
(lp291
g3
(g4
g5
(dp292
g16
S''
sg17
g18
sg19
g18
sg20
S''
sg21
S''
sg22
g23
sg24
g25
stRp293
ag3
(g4
g5
(dp294
g16
S''
sg19
g28
sg20
S''
sg22
g29
sg21
S''
sg17
g28
sg30
Nsg24
g31
stRp295
ag3
(g4
g5
(dp296
g16
S''
sg19
g34
sg20
S''
sg22
g23
sg21
S''
sg17
g34
sg30
Nsg24
g35
stRp297
ag3
(g4
g5
(dp298
g16
S''
sg19
g38
sg20
S''
sg22
g29
sg21
S''
sg17
g38
sg30
Nsg24
g39
stRp299
ag3
(g4
g5
(dp300
g16
S''
sg42
S'id'
p301
sg20
S''
sg44
S'Text'
p302
sg21
S''
sg17
g301
sg30
Nsg46
S'Server name'
p303
stRp304
ag3
(g4
g5
(dp305
g16
S''
sg42
S'type'
p306
sg20
S''
sg44
S'SvrViewType'
p307
sg21
S''
sg17
g306
sg30
Nsg46
S'View type'
p308
stRp309
ag3
(g4
g5
(dp310
g16
S''
sg42
S'seq'
p311
sg20
S''
sg44
S'Int'
p312
sg21
S''
sg17
g311
sg30
Nsg46
S'Sequence (line) number'
p313
stRp314
ag3
(g4
g5
(dp315
g16
S''
sg42
S'mapFlag'
p316
sg20
S''
sg44
S'MapFlag'
p317
sg21
S''
sg17
g316
sg30
Nsg46
S'Type of mapping'
p318
stRp319
ag3
(g4
g5
(dp320
g16
S''
sg42
S'viewFile'
p321
sg20
S''
sg44
S'Mapping'
p322
sg21
S''
sg17
g321
sg30
Nsg46
S'View file'
p323
stRp324
atRp325
sg115
g288
sg42
S'db.svrview'
p326
sg117
S'0'
sg118
S'6'
sg120
g121
sg44
S'SvrView'
p327
sg46
S'View data for servers specifications'
p328
stRp329
sS'revpx'
p330
g3
(g4
g5
(dp331
g7
S'depotFile, depotRev'
p332
sg9
S'27'
p333
sg11
g3
(g12
g13
(lp334
g3
(g4
g5
(dp335
g16
S''
sg17
g18
sg19
g18
sg20
S''
sg21
S''
sg22
g23
sg24
g25
stRp336
ag3
(g4
g5
(dp337
g16
S''
sg19
g28
sg20
S''
sg22
g29
sg21
S''
sg17
g28
sg30
Nsg24
g31
stRp338
ag3
(g4
g5
(dp339
g16
S''
sg19
g34
sg20
S''
sg22
g23
sg21
S''
sg17
g34
sg30
Nsg24
g35
stRp340
ag3
(g4
g5
(dp341
g16
S''
sg19
g38
sg20
S''
sg22
g29
sg21
S''
sg17
g38
sg30
Nsg24
g39
stRp342
ag3
(g4
g5
(dp343
g16
S''
sg42
g139
sg20
S''
sg44
g140
sg21
S''
sg17
g139
sg30
Nsg46
g141
stRp344
ag3
(g4
g5
(dp345
g16
S''
sg42
g144
sg20
S''
sg44
g145
sg21
S''
sg17
g144
sg30
Nsg46
g146
stRp346
ag3
(g4
g5
(dp347
g16
S''
sg42
g149
sg20
S''
sg44
g150
sg21
S''
sg17
g149
sg30
Nsg46
g151
stRp348
ag3
(g4
g5
(dp349
g16
S''
sg42
g154
sg20
S''
sg44
g155
sg21
S''
sg17
g154
sg30
Nsg46
g156
stRp350
ag3
(g4
g5
(dp351
g16
S''
sg42
g159
sg20
S''
sg44
g160
sg21
S''
sg17
g159
sg30
Nsg46
g161
stRp352
ag3
(g4
g5
(dp353
g16
S''
sg42
g164
sg20
S''
sg44
g165
sg21
S''
sg17
g164
sg30
Nsg46
g166
stRp354
ag3
(g4
g5
(dp355
g16
S''
sg42
g169
sg20
S''
sg44
g170
sg21
S''
sg17
g169
sg30
Nsg46
g171
stRp356
ag3
(g4
g5
(dp357
g16
S''
sg42
g174
sg20
S''
sg44
g175
sg21
S''
sg17
g174
sg30
Nsg46
g176
stRp358
ag3
(g4
g5
(dp359
g16
S''
sg42
g179
sg20
S''
sg44
g180
sg21
S''
sg17
g179
sg30
Nsg46
g181
stRp360
ag3
(g4
g5
(dp361
g16
S''
sg42
g184
sg20
S''
sg44
g185
sg21
S''
sg17
g184
sg30
Nsg46
g186
stRp362
ag3
(g4
g5
(dp363
g16
S''
sg42
g189
sg20
S''
sg44
g190
sg21
S''
sg17
g189
sg30
Nsg46
g191
stRp364
ag3
(g4
g5
(dp365
g16
S''
sg42
g194
sg20
S''
sg44
g195
sg21
S''
sg17
g194
sg30
Nsg46
g196
stRp366
ag3
(g4
g5
(dp367
g16
S''
sg42
g199
sg20
S''
sg44
g200
sg21
S''
sg17
g199
sg30
Nsg46
g201
stRp368
ag3
(g4
g5
(dp369
g16
S''
sg42
g204
sg20
S''
sg44
g205
sg21
S''
sg17
g204
sg30
Nsg46
g206
stRp370
atRp371
sg115
g330
sg42
S'db.revpx'
p372
sS'note'
p373
S'Only populated during content trigger execution to allow \n\t\ttriggers access to the revisions being submitted.'
p374
sg117
S'9'
sg118
S'32'
p375
sg120
g121
sg44
S'Rev'
p376
sg46
S'Pending revision records'
p377
stRp378
sS'traits'
p379
g3
(g4
g5
(dp380
g7
S'traitLot, name'
p381
sg9
S'39'
p382
sg11
g3
(g12
g13
(lp383
g3
(g4
g5
(dp384
g16
S''
sg17
g18
sg19
g18
sg20
S''
sg21
S''
sg22
g23
sg24
g25
stRp385
ag3
(g4
g5
(dp386
g16
S''
sg19
g28
sg20
S''
sg22
g29
sg21
S''
sg17
g28
sg30
Nsg24
g31
stRp387
ag3
(g4
g5
(dp388
g16
S''
sg19
g34
sg20
S''
sg22
g23
sg21
S''
sg17
g34
sg30
Nsg24
g35
stRp389
ag3
(g4
g5
(dp390
g16
S''
sg19
g38
sg20
S''
sg22
g29
sg21
S''
sg17
g38
sg30
Nsg24
g39
stRp391
ag3
(g4
g5
(dp392
g16
S''
sg42
S'traitLot'
p393
sg20
S''
sg44
S'Int'
p394
sg21
S''
sg17
g393
sg30
Nsg46
S'Indicates a specific collection of traits (referred to \n\t\t    externally as "attributes".)'
p395
stRp396
ag3
(g4
g5
(dp397
g16
S''
sg42
S'name'
p398
sg20
S''
sg44
S'String'
p399
sg21
S''
sg17
g398
sg30
Nsg46
S'Trait (attribute) name'
p400
stRp401
ag3
(g4
g5
(dp402
g16
S''
sg42
S'type'
p403
sg20
S''
sg44
S'TraitType'
p404
sg21
S''
sg17
g403
sg30
Nsg46
S'Type of trait'
p405
stRp406
ag3
(g4
g5
(dp407
g16
S''
sg42
S'value'
p408
sg20
S''
sg44
S'Octet String'
p409
sg21
S''
sg17
g408
sg30
Nsg46
S'The value'
p410
stRp411
atRp412
sg115
g379
sg42
S'db.traits'
p413
sg117
S'0'
sg118
S'39'
p414
sg120
g121
sg44
S'Trait'
p415
sg46
S'Attributes associated with file revisions'
p416
stRp417
sS'have'
p418
g3
(g4
g5
(dp419
g7
S'clientFile'
p420
sg9
S'19'
p421
sg11
g3
(g12
g13
(lp422
g3
(g4
g5
(dp423
g16
S''
sg17
g18
sg19
g18
sg20
S''
sg21
S''
sg22
g23
sg24
g25
stRp424
ag3
(g4
g5
(dp425
g16
S''
sg19
g28
sg20
S''
sg22
g29
sg21
S''
sg17
g28
sg30
Nsg24
g31
stRp426
ag3
(g4
g5
(dp427
g16
S''
sg19
g34
sg20
S''
sg22
g23
sg21
S''
sg17
g34
sg30
Nsg24
g35
stRp428
ag3
(g4
g5
(dp429
g16
S''
sg19
g38
sg20
S''
sg22
g29
sg21
S''
sg17
g38
sg30
Nsg24
g39
stRp430
ag3
(g4
g5
(dp431
g16
S''
sg42
S'clientFile'
p432
sg20
S''
sg44
S'File'
p433
sg21
S''
sg17
g432
sg30
Nsg46
S'The file in its location on the client'
p434
stRp435
ag3
(g4
g5
(dp436
g16
S''
sg42
S'depotFile'
p437
sg20
S''
sg44
S'File'
p438
sg21
S''
sg17
g437
sg30
Nsg46
S'The file in the depot'
p439
stRp440
ag3
(g4
g5
(dp441
g16
S''
sg42
S'haveRev'
p442
sg20
S''
sg44
S'Rev'
p443
sg21
S''
sg17
g442
sg30
Nsg46
S'The revision synced to the client'
p444
stRp445
ag3
(g4
g5
(dp446
g16
S''
sg42
S'type'
p447
sg20
S''
sg44
S'FileType'
p448
sg21
S''
sg17
g447
sg30
Nsg46
S'The filetype of the synced revision'
p449
stRp450
atRp451
sg115
g418
sg42
S'db.have'
p452
sg117
S'2'
sg118
S'22'
p453
sg120
g121
sg44
S'Have'
p454
sg46
S"Contains the 'have-list' for all clients"
p455
stRp456
sS'viewrp'
p457
g3
(g4
g5
(dp458
g7
S'name seq'
p459
sg9
S'14'
p460
sg11
g3
(g12
g13
(lp461
g3
(g4
g5
(dp462
g16
S''
sg17
g18
sg19
g18
sg20
S''
sg21
S''
sg22
g23
sg24
g25
stRp463
ag3
(g4
g5
(dp464
g16
S''
sg19
g28
sg20
S''
sg22
g29
sg21
S''
sg17
g28
sg30
Nsg24
g31
stRp465
ag3
(g4
g5
(dp466
g16
S''
sg19
g34
sg20
S''
sg22
g23
sg21
S''
sg17
g34
sg30
Nsg24
g35
stRp467
ag3
(g4
g5
(dp468
g16
S''
sg19
g38
sg20
S''
sg22
g29
sg21
S''
sg17
g38
sg30
Nsg24
g39
stRp469
ag3
(g4
g5
(dp470
g16
S''
sg42
S'name'
p471
sg20
S''
sg44
S'Domain'
p472
sg21
S''
sg17
g471
sg30
Nsg46
S'Domain name to which this view applies'
p473
stRp474
ag3
(g4
g5
(dp475
g16
S''
sg42
S'seq'
p476
sg20
S''
sg44
S'Int'
p477
sg21
S''
sg17
g476
sg30
Nsg46
S'Sequence number: for ordering multi-line views'
p478
stRp479
ag3
(g4
g5
(dp480
g16
S''
sg42
S'mapFlag'
p481
sg20
S''
sg44
S'MapFlag'
p482
sg21
S''
sg17
g481
sg30
Nsg46
S'Type of mapping'
p483
stRp484
ag3
(g4
g5
(dp485
g16
S''
sg42
S'viewFile'
p486
sg20
S''
sg44
S'Mapping'
p487
sg21
S''
sg17
g486
sg30
Nsg46
S"The right-hand-side of the view. For clients, this is\n\t\t    the client-side, for labels it's the generated label \n\t\t    view. For branches, it's the target side of the branch\n\t\t    view."
p488
stRp489
ag3
(g4
g5
(dp490
g16
S''
sg42
S'depotFile'
p491
sg20
S''
sg44
S'Mapping'
p492
sg21
S''
sg17
g491
sg30
Nsg46
S'The left-hand-side of the view - a mapping to file(s)\n\t\t    in the depot.'
p493
stRp494
atRp495
sg115
g457
sg42
S'db.view.rp'
p496
sg117
S'1'
sg118
S'14'
p497
sg120
g121
sg44
S'View'
p498
sg46
S'Contains views for clients of build-server replicas'
p499
stRp500
sS'ixtext'
p501
g3
(g4
g5
(dp502
g7
S'word, attr, value'
p503
sg9
S'48'
p504
sg11
g3
(g12
g13
(lp505
g3
(g4
g5
(dp506
g16
S''
sg17
g18
sg19
g18
sg20
S''
sg21
S''
sg22
g23
sg24
g25
stRp507
ag3
(g4
g5
(dp508
g16
S''
sg19
g28
sg20
S''
sg22
g29
sg21
S''
sg17
g28
sg30
Nsg24
g31
stRp509
ag3
(g4
g5
(dp510
g16
S''
sg19
g34
sg20
S''
sg22
g23
sg21
S''
sg17
g34
sg30
Nsg24
g35
stRp511
ag3
(g4
g5
(dp512
g16
S''
sg19
g38
sg20
S''
sg22
g29
sg21
S''
sg17
g38
sg30
Nsg24
g39
stRp513
ag3
(g4
g5
(dp514
g16
S''
sg42
S'word'
p515
sg20
S''
sg44
S'String'
p516
sg21
S''
sg17
g515
sg30
Nsg46
S'The word being indexed'
p517
stRp518
ag3
(g4
g5
(dp519
g16
S''
sg42
S'attr'
p520
sg20
S''
sg44
S'Int'
p521
sg21
S''
sg17
g520
sg30
Nsg46
S'The attribute number to which this word belongs. For\n\t\t    job data, the attribute number from the jobspec.'
p522
stRp523
ag3
(g4
g5
(dp524
g16
S''
sg42
S'value'
p525
sg20
S''
sg44
S'String'
p526
sg21
S''
sg17
g525
sg30
Nsg46
S'For job data, a job name. For generic data, the value\n\t\t    of the index keyed by the word.'
p527
stRp528
atRp529
sg115
g501
sg42
S'db.ixtext'
p530
sg117
S'0'
sg118
S'48'
p531
sg120
g121
sg44
S'IndexText'
p532
sg46
S'Indexing data for generic and job attributes'
p533
stRp534
sS'message'
p535
g3
(g4
g5
(dp536
g7
S'language, id'
p537
sg9
S'52'
p538
sg11
g3
(g12
g13
(lp539
g3
(g4
g5
(dp540
g16
S''
sg17
g18
sg19
g18
sg20
S''
sg21
S''
sg22
g23
sg24
g25
stRp541
ag3
(g4
g5
(dp542
g16
S''
sg19
g28
sg20
S''
sg22
g29
sg21
S''
sg17
g28
sg30
Nsg24
g31
stRp543
ag3
(g4
g5
(dp544
g16
S''
sg19
g34
sg20
S''
sg22
g23
sg21
S''
sg17
g34
sg30
Nsg24
g35
stRp545
ag3
(g4
g5
(dp546
g16
S''
sg19
g38
sg20
S''
sg22
g29
sg21
S''
sg17
g38
sg30
Nsg24
g39
stRp547
ag3
(g4
g5
(dp548
g16
S''
sg42
S'language'
p549
sg20
S''
sg44
S'String'
p550
sg21
S''
sg17
g549
sg30
Nsg46
S'The language for which this message applies'
p551
stRp552
ag3
(g4
g5
(dp553
g16
S''
sg42
S'id'
p554
sg20
S''
sg44
S'Int'
p555
sg21
S''
sg17
g554
sg30
Nsg46
S'The message number'
p556
stRp557
ag3
(g4
g5
(dp558
g16
S''
sg42
S'message'
p559
sg20
S''
sg44
S'String'
p560
sg21
S''
sg17
g559
sg30
Nsg46
S'The message text'
p561
stRp562
atRp563
sg115
g535
sg42
S'db.message'
p564
sg117
S'0'
sg118
S'52'
p565
sg120
g121
sg44
S'Message'
p566
sg46
S'System messages'
p567
stRp568
sS'rdblbr'
p569
g3
(g4
g5
(dp570
g42
S'rdb.lbr'
p571
sg115
g569
sg11
g3
(g12
g13
(lp572
g3
(g4
g5
(dp573
g16
S''
sg17
g18
sg19
g18
sg20
S''
sg21
S''
sg22
g23
sg24
g25
stRp574
ag3
(g4
g5
(dp575
g16
S''
sg19
g28
sg20
S''
sg22
g29
sg21
S''
sg17
g28
sg30
Nsg24
g31
stRp576
ag3
(g4
g5
(dp577
g16
S''
sg19
g34
sg20
S''
sg22
g23
sg21
S''
sg17
g34
sg30
Nsg24
g35
stRp578
ag3
(g4
g5
(dp579
g16
S''
sg19
g38
sg20
S''
sg22
g29
sg21
S''
sg17
g38
sg30
Nsg24
g39
stRp580
ag3
(g4
g5
(dp581
g16
S''
sg42
S'depotFile'
p582
sg20
S''
sg44
S'File'
p583
sg21
S''
sg17
g582
sg30
Nsg46
S'The file name'
p584
stRp585
ag3
(g4
g5
(dp586
g16
S''
sg42
S'lbrRev'
p587
sg20
S''
sg44
S'String'
p588
sg21
S''
sg17
g587
sg30
Nsg46
S'The librarian revision'
p589
stRp590
ag3
(g4
g5
(dp591
g16
S''
sg42
S'type'
p592
sg20
S''
sg44
S'String'
p593
sg21
S''
sg17
g592
sg30
Nsg46
S'The file type of the revision'
p594
stRp595
ag3
(g4
g5
(dp596
g16
S''
sg42
S'status'
p597
sg20
S''
sg44
S'PullStatus'
p598
sg21
S''
sg17
g597
sg30
Nsg46
S'The status of the archive transfer'
p599
stRp600
ag3
(g4
g5
(dp601
g16
S''
sg42
S'action'
p602
sg20
S''
sg44
S'Action'
p603
sg21
S''
sg17
g602
sg30
Nsg46
S'The action that created the revision'
p604
stRp605
ag3
(g4
g5
(dp606
g16
S''
sg42
S'digest'
p607
sg20
S''
sg44
S'Digest'
p608
sg21
S''
sg17
g607
sg30
Nsg46
S'The MD5 digest of the revision'
p609
stRp610
ag3
(g4
g5
(dp611
g16
S''
sg42
S'size'
p612
sg20
S''
sg44
S'FileSize'
p613
sg21
S''
sg17
g612
sg30
Nsg46
S'The size of the file in bytes'
p614
stRp615
ag3
(g4
g5
(dp616
g16
S''
sg42
S'change'
p617
sg20
S''
sg44
S'Change'
p618
sg21
S''
sg17
g617
sg30
Nsg46
S'The changelist that created the revision'
p619
stRp620
ag3
(g4
g5
(dp621
g16
S''
sg42
S'lbrDate'
p622
sg20
S''
sg44
S'Date'
p623
sg21
S''
sg17
g622
sg30
Nsg46
S'Librarian date'
p624
stRp625
ag3
(g4
g5
(dp626
g16
S''
sg42
S'lbrModTime'
p627
sg20
S''
sg44
S'Date'
p628
sg21
S''
sg17
g627
sg30
Nsg46
S'Librarian modtime'
p629
stRp630
ag3
(g4
g5
(dp631
g16
S''
sg42
S'pid'
p632
sg20
S''
sg44
S'Int'
p633
sg21
S''
sg17
g632
sg30
Nsg46
S'The process id (PID) of the pull process'
p634
stRp635
ag3
(g4
g5
(dp636
g16
S''
sg42
S'requestTime'
p637
sg20
S''
sg44
S'Date'
p638
sg21
S''
sg17
g637
sg30
Nsg46
S'Pull request time'
p639
stRp640
ag3
(g4
g5
(dp641
g16
S''
sg42
S'retries'
p642
sg20
S''
sg44
S'Int'
p643
sg21
S''
sg17
g642
sg30
Nsg46
S'The number of retries that have occurred after transfer error'
p644
stRp645
ag3
(g4
g5
(dp646
g16
S''
sg42
S'transferError'
p647
sg20
S''
sg44
S'String'
p648
sg21
S''
sg17
g647
sg30
Nsg46
S'The error message for a failed transfer'
p649
stRp650
atRp651
sg120
g121
sg44
S'ReplicaArchiveTransfer'
p652
sg46
S'Replica server pending archive transfer table'
p653
stRp654
sS'bodtext'
p655
g3
(g4
g5
(dp656
g7
S'key, attr'
p657
sg9
S'47'
p658
sg11
g3
(g12
g13
(lp659
g3
(g4
g5
(dp660
g16
S''
sg17
g18
sg19
g18
sg20
S''
sg21
S''
sg22
g23
sg24
g25
stRp661
ag3
(g4
g5
(dp662
g16
S''
sg19
g28
sg20
S''
sg22
g29
sg21
S''
sg17
g28
sg30
Nsg24
g31
stRp663
ag3
(g4
g5
(dp664
g16
S''
sg19
g34
sg20
S''
sg22
g23
sg21
S''
sg17
g34
sg30
Nsg24
g35
stRp665
ag3
(g4
g5
(dp666
g16
S''
sg19
g38
sg20
S''
sg22
g29
sg21
S''
sg17
g38
sg30
Nsg24
g39
stRp667
ag3
(g4
g5
(dp668
g16
S''
sg42
S'key'
p669
sg20
S''
sg44
S'String'
p670
sg21
S''
sg17
g669
sg30
Nsg46
S'The job to which this attribute belongs'
p671
stRp672
ag3
(g4
g5
(dp673
g16
S''
sg42
S'attr'
p674
sg20
S''
sg44
S'Int'
p675
sg21
S''
sg17
g674
sg30
Nsg46
S'The attribute number (from the jobspec) of this attribute'
p676
stRp677
ag3
(g4
g5
(dp678
g16
S''
sg42
S'isBulk'
p679
sg20
S''
sg44
S'Int'
p680
sg21
S''
sg17
g679
sg30
Nsg46
S'Indicates whether (1), or not (0) the field is a bulk\n\t\t    text field that should not be indexed.'
p681
stRp682
ag3
(g4
g5
(dp683
g16
S''
sg42
S'text'
p684
sg20
S''
sg44
S'Text'
p685
sg21
S''
sg17
g684
sg30
Nsg46
S'The attribute value'
p686
stRp687
atRp688
sg115
g655
sg42
S'db.bodtext'
p689
sg117
S'1'
sg118
S'47'
p690
sg120
g121
sg44
S'BodyText'
p691
sg46
S'Job data for job attributes'
p692
stRp693
sS'group'
p694
g3
(g4
g5
(dp695
g7
S'user, group'
p696
sg9
S'9'
sg11
g3
(g12
g13
(lp697
g3
(g4
g5
(dp698
g16
S''
sg17
g18
sg19
g18
sg20
S''
sg21
S''
sg22
g23
sg24
g25
stRp699
ag3
(g4
g5
(dp700
g16
S''
sg19
g28
sg20
S''
sg22
g29
sg21
S''
sg17
g28
sg30
Nsg24
g31
stRp701
ag3
(g4
g5
(dp702
g16
S''
sg19
g34
sg20
S''
sg22
g23
sg21
S''
sg17
g34
sg30
Nsg24
g35
stRp703
ag3
(g4
g5
(dp704
g16
S''
sg19
g38
sg20
S''
sg22
g29
sg21
S''
sg17
g38
sg30
Nsg24
g39
stRp705
ag3
(g4
g5
(dp706
g16
S''
sg42
S'user'
p707
sg20
S''
sg44
S'User'
p708
sg21
S''
sg17
g707
sg30
Nsg46
S'User name'
p709
stRp710
ag3
(g4
g5
(dp711
g16
S''
sg42
S'group'
p712
sg20
S''
sg44
S'User'
p713
sg21
S''
sg17
g712
sg30
Nsg46
S'Group name'
p714
stRp715
ag3
(g4
g5
(dp716
g16
S''
sg42
S'type'
p717
sg20
S''
sg44
S'UserType'
p718
sg21
S''
sg17
g717
sg30
Nsg46
S'Type of user in this group.'
p719
stRp720
ag3
(g4
g5
(dp721
g16
S''
sg42
S'maxResults'
p722
sg20
S''
sg44
S'MaxResults'
p723
sg21
S''
sg17
g722
sg30
Nsg46
S'MaxResults setting for the group.'
p724
stRp725
ag3
(g4
g5
(dp726
g16
S''
sg42
S'maxScanRows'
p727
sg20
S''
sg44
S'MaxScanRows'
p728
sg21
S''
sg17
g727
sg30
Nsg46
S'MaxScanRows setting for the group.'
p729
stRp730
ag3
(g4
g5
(dp731
g16
S''
sg42
S'maxLockTime'
p732
sg20
S''
sg44
S'MaxLockTime'
p733
sg21
S''
sg17
g732
sg30
Nsg46
S'MaxLockTime setting for the group.'
p734
stRp735
ag3
(g4
g5
(dp736
g16
S''
sg42
S'timeout'
p737
sg20
S''
sg44
S'Int'
p738
sg21
S''
sg17
g737
sg30
Nsg46
S'Length of time (in seconds) a login ticket remains valid.'
p739
stRp740
ag3
(g4
g5
(dp741
g16
S''
sg42
S'passwordTimeout'
p742
sg20
S''
sg44
S'Int'
p743
sg21
S''
sg17
g742
sg30
Nsg46
S'Length of time (in seconds) a password remains valid for users in the group.'
p744
stRp745
atRp746
sg115
g694
sg42
S'db.group'
p747
sg117
S'8'
sg118
S'9'
sg120
g121
sg44
S'Group'
p748
sg46
S'Groups of Perforce users'
p749
stRp750
sS'monitor'
p751
g3
(g4
g5
(dp752
g7
S'id'
p753
sg9
S'54'
p754
sg11
g3
(g12
g13
(lp755
g3
(g4
g5
(dp756
g16
S''
sg17
g18
sg19
g18
sg20
S''
sg21
S''
sg22
g23
sg24
g25
stRp757
ag3
(g4
g5
(dp758
g16
S''
sg19
g28
sg20
S''
sg22
g29
sg21
S''
sg17
g28
sg30
Nsg24
g31
stRp759
ag3
(g4
g5
(dp760
g16
S''
sg19
g34
sg20
S''
sg22
g23
sg21
S''
sg17
g34
sg30
Nsg24
g35
stRp761
ag3
(g4
g5
(dp762
g16
S''
sg19
g38
sg20
S''
sg22
g29
sg21
S''
sg17
g38
sg30
Nsg24
g39
stRp763
ag3
(g4
g5
(dp764
g16
S''
sg42
S'id'
p765
sg20
S''
sg44
S'Int'
p766
sg21
S''
sg17
g765
sg30
Nsg46
S'Thread/process id'
p767
stRp768
ag3
(g4
g5
(dp769
g16
S''
sg42
S'user'
p770
sg20
S''
sg44
S'User'
p771
sg21
S''
sg17
g770
sg30
Nsg46
S'Username of the user running the command'
p772
stRp773
ag3
(g4
g5
(dp774
g16
S''
sg42
S'function'
p775
sg20
S''
sg44
S'String'
p776
sg21
S''
sg17
g775
sg30
Nsg46
S'The command being executed.'
p777
stRp778
ag3
(g4
g5
(dp779
g16
S''
sg42
S'args'
p780
sg20
S''
sg44
S'String'
p781
sg21
S''
sg17
g780
sg30
Nsg46
S'Arguments passed to the command'
p782
stRp783
ag3
(g4
g5
(dp784
g16
S''
sg42
S'startDate'
p785
sg20
S''
sg44
S'Date'
p786
sg21
S''
sg17
g785
sg30
Nsg46
S'The date and time the command started'
p787
stRp788
ag3
(g4
g5
(dp789
g16
S''
sg42
S'runstate'
p790
sg20
S''
sg44
S'Int'
p791
sg21
S''
sg17
g790
sg30
Nsg46
S'Flag: 0 for running, 1 for terminated, 2 for paused'
p792
stRp793
ag3
(g4
g5
(dp794
g16
S''
sg42
S'client'
p795
sg20
S''
sg44
S'Domain'
p796
sg21
S''
sg17
g795
sg30
Nsg46
S'The client workspace'
p797
stRp798
ag3
(g4
g5
(dp799
g16
S''
sg42
S'host'
p800
sg20
S''
sg44
S'Text'
p801
sg21
S''
sg17
g800
sg30
Nsg46
S'The IP address of the client'
p802
stRp803
ag3
(g4
g5
(dp804
g16
S''
sg42
S'prog'
p805
sg20
S''
sg44
S'Text'
p806
sg21
S''
sg17
g805
sg30
Nsg46
S'The name (and version) of the client program'
p807
stRp808
atRp809
sg115
g751
sg42
S'db.monitor'
p810
sg117
S'1'
sg118
S'54'
p811
sg120
g121
sg44
S'Monitor'
p812
sg46
S'Perforce process information'
p813
stRp814
sS'working'
p815
g3
(g4
g5
(dp816
g7
S'clientFile'
p817
sg9
S'36'
p818
sg11
g3
(g12
g13
(lp819
g3
(g4
g5
(dp820
g16
S''
sg17
g18
sg19
g18
sg20
S''
sg21
S''
sg22
g23
sg24
g25
stRp821
ag3
(g4
g5
(dp822
g16
S''
sg19
g28
sg20
S''
sg22
g29
sg21
S''
sg17
g28
sg30
Nsg24
g31
stRp823
ag3
(g4
g5
(dp824
g16
S''
sg19
g34
sg20
S''
sg22
g23
sg21
S''
sg17
g34
sg30
Nsg24
g35
stRp825
ag3
(g4
g5
(dp826
g16
S''
sg19
g38
sg20
S''
sg22
g29
sg21
S''
sg17
g38
sg30
Nsg24
g39
stRp827
ag3
(g4
g5
(dp828
g16
S''
sg42
S'clientFile'
p829
sg20
S''
sg44
S'File'
p830
sg21
S''
sg17
g829
sg30
Nsg46
S'File on the client'
p831
stRp832
ag3
(g4
g5
(dp833
g16
S''
sg42
S'depotFile'
p834
sg20
S''
sg44
S'File'
p835
sg21
S''
sg17
g834
sg30
Nsg46
S'File in the depot'
p836
stRp837
ag3
(g4
g5
(dp838
g16
S''
sg42
S'client'
p839
sg20
S''
sg44
S'Domain'
p840
sg21
S''
sg17
g839
sg30
Nsg46
S'The client the file is opened on'
p841
stRp842
ag3
(g4
g5
(dp843
g16
S''
sg42
S'user'
p844
sg20
S''
sg44
S'User'
p845
sg21
S''
sg17
g844
sg30
Nsg46
S'The user who has the file opened'
p846
stRp847
ag3
(g4
g5
(dp848
g16
S''
sg42
S'haveRev'
p849
sg20
S''
sg44
S'Rev'
p850
sg21
S''
sg17
g849
sg30
Nsg46
S"Revision presently in user's client workspace"
p851
stRp852
ag3
(g4
g5
(dp853
g16
S''
sg42
S'workRev'
p854
sg20
S''
sg44
S'Rev'
p855
sg21
S''
sg17
g854
sg30
Nsg46
S'Working revision; normally identical to the haveRev'
p856
stRp857
ag3
(g4
g5
(dp858
g16
S''
sg42
S'isVirtual'
p859
sg20
S''
sg44
S'Int'
p860
sg21
S''
sg17
g859
sg30
Nsg46
S'Flag: if 1, file was opened with "p4 integ -v".'
p861
stRp862
ag3
(g4
g5
(dp863
g16
S''
sg42
S'type'
p864
sg20
S''
sg44
S'FileType'
p865
sg21
S''
sg17
g864
sg30
Nsg46
S'File type'
p866
stRp867
ag3
(g4
g5
(dp868
g16
S''
sg42
S'action'
p869
sg20
S''
sg44
S'Action'
p870
sg21
S''
sg17
g869
sg30
Nsg46
S"What the user's doing with the file"
p871
stRp872
ag3
(g4
g5
(dp873
g16
S''
sg42
S'change'
p874
sg20
S''
sg44
S'Change'
p875
sg21
S''
sg17
g874
sg30
Nsg46
S'Associated changelist, or zero for the default changelist.'
p876
stRp877
ag3
(g4
g5
(dp878
g16
S''
sg42
S'modTime'
p879
sg20
S''
sg44
S'Date'
p880
sg21
S''
sg17
g879
sg30
Nsg46
S"Modification timestamp on the file in the user's workspace."
p881
stRp882
ag3
(g4
g5
(dp883
g16
S''
sg42
S'isLocked'
p884
sg20
S''
sg44
S'Int'
p885
sg21
S''
sg17
g884
sg30
Nsg46
S'Flag: 0 for unlocked, 1 for locked.'
p886
stRp887
ag3
(g4
g5
(dp888
g16
S''
sg42
S'digest'
p889
sg20
S''
sg44
S'Digest'
p890
sg21
S''
sg17
g889
sg30
Nsg46
S'MD5 digest of working file.'
p891
stRp892
ag3
(g4
g5
(dp893
g16
S''
sg42
S'size'
p894
sg20
S''
sg44
S'Int64'
p895
sg21
S''
sg17
g894
sg30
Nsg46
S'File size'
p896
stRp897
ag3
(g4
g5
(dp898
g16
S''
sg42
S'traitLot'
p899
sg20
S''
sg44
S'Int'
p900
sg21
S''
sg17
g899
sg30
Nsg46
S'Group of traits associated with file revision.'
p901
stRp902
ag3
(g4
g5
(dp903
g16
S''
sg42
S'tampered'
p904
sg20
S''
sg44
S'TamperCheck'
p905
sg21
S''
sg17
g904
sg30
Nsg46
S'Flag indicating the tamper-state of the file in the\n\t\t    workspace.'
p906
stRp907
ag3
(g4
g5
(dp908
g16
S''
sg42
S'clntType'
p909
sg20
S''
sg44
S'FileType'
p910
sg21
S''
sg17
g909
sg30
Nsg46
S'Type of the file in the client workspace.'
p911
stRp912
ag3
(g4
g5
(dp913
g16
S''
sg42
S'mFile'
p914
sg20
S''
sg44
S'File'
p915
sg21
S''
sg17
g914
sg30
Nsg46
S'Moved filename'
p916
stRp917
ag3
(g4
g5
(dp918
g16
S''
sg42
S'status'
p919
sg20
S''
sg44
S'Int'
p920
sg21
S''
sg17
g919
sg30
Nsg46
S'Working status'
p921
stRp922
atRp923
sg115
g815
sg42
S'db.working'
p924
sg117
S'10'
p925
sg118
S'37'
p926
sg120
g121
sg44
S'Working'
p927
sg46
S'Records for work in progress'
p928
stRp929
sS'fix'
p930
g3
(g4
g5
(dp931
g7
S'job, change'
p932
sg9
S'45'
p933
sg11
g3
(g12
g13
(lp934
g3
(g4
g5
(dp935
g16
S''
sg17
g18
sg19
g18
sg20
S''
sg21
S''
sg22
g23
sg24
g25
stRp936
ag3
(g4
g5
(dp937
g16
S''
sg19
g28
sg20
S''
sg22
g29
sg21
S''
sg17
g28
sg30
Nsg24
g31
stRp938
ag3
(g4
g5
(dp939
g16
S''
sg19
g34
sg20
S''
sg22
g23
sg21
S''
sg17
g34
sg30
Nsg24
g35
stRp940
ag3
(g4
g5
(dp941
g16
S''
sg19
g38
sg20
S''
sg22
g29
sg21
S''
sg17
g38
sg30
Nsg24
g39
stRp942
ag3
(g4
g5
(dp943
g16
S''
sg42
S'job'
p944
sg20
S''
sg44
S'String'
p945
sg21
S''
sg17
g944
sg30
Nsg46
S'Job name'
p946
stRp947
ag3
(g4
g5
(dp948
g16
S''
sg42
S'change'
p949
sg20
S''
sg44
S'Change'
p950
sg21
S''
sg17
g949
sg30
Nsg46
S'Changelist number'
p951
stRp952
ag3
(g4
g5
(dp953
g16
S''
sg42
S'date'
p954
sg20
S''
sg44
S'Date'
p955
sg21
S''
sg17
g954
sg30
Nsg46
S'Date fix was recorded (may differ from date change was\n\t\t    submitted).'
p956
stRp957
ag3
(g4
g5
(dp958
g16
S''
sg42
S'status'
p959
sg20
S''
sg44
S'FixStatus'
p960
sg21
S''
sg17
g959
sg30
Nsg46
S'Status of the job'
p961
stRp962
ag3
(g4
g5
(dp963
g16
S''
sg42
S'client'
p964
sg20
S''
sg44
S'Domain'
p965
sg21
S''
sg17
g964
sg30
Nsg46
S'The client where the fix originated'
p966
stRp967
ag3
(g4
g5
(dp968
g16
S''
sg42
S'user'
p969
sg20
S''
sg44
S'User'
p970
sg21
S''
sg17
g969
sg30
Nsg46
S'The user who fixed the job'
p971
stRp972
atRp973
sg115
g930
sg42
S'db.fix'
p974
sg117
S'1'
sg118
S'45'
p975
sg120
g121
sg46
S'Fix records - indexed by job'
p976
sg44
S'Fix'
p977
sS'seeAlso'
p978
S'db.fixrev'
p979
stRp980
sS'archmap'
p981
g3
(g4
g5
(dp982
g7
S'lbrFile, depotFile'
p983
sg9
S'24'
p984
sg11
g3
(g12
g13
(lp985
g3
(g4
g5
(dp986
g16
S''
sg17
g18
sg19
g18
sg20
S''
sg21
S''
sg22
g23
sg24
g25
stRp987
ag3
(g4
g5
(dp988
g16
S''
sg19
g28
sg20
S''
sg22
g29
sg21
S''
sg17
g28
sg30
Nsg24
g31
stRp989
ag3
(g4
g5
(dp990
g16
S''
sg19
g34
sg20
S''
sg22
g23
sg21
S''
sg17
g34
sg30
Nsg24
g35
stRp991
ag3
(g4
g5
(dp992
g16
S''
sg19
g38
sg20
S''
sg22
g29
sg21
S''
sg17
g38
sg30
Nsg24
g39
stRp993
ag3
(g4
g5
(dp994
g16
S''
sg42
S'lbrFile'
p995
sg20
S''
sg44
S'File'
p996
sg21
S''
sg17
g995
sg30
Nsg46
S'Paths in the librarian namespace that recieve lazy\n\t\t    copies.'
p997
stRp998
ag3
(g4
g5
(dp999
g16
S''
sg42
S'depotFile'
p1000
sg20
S''
sg44
S'File'
p1001
sg21
S''
sg17
g1000
sg30
Nsg46
S'Paths in the depot namespace that provide lazy copies.'
p1002
stRp1003
atRp1004
sg115
g981
sg42
S'db.archmap'
p1005
sg373
S'Supercedes db.archive'
p1006
sg117
S'0'
sg118
S'26'
p1007
sg120
g121
sg44
S'ArchMap'
p1008
sg46
S'Mappings entries for lazy-copies'
p1009
stRp1010
sS'rev'
p1011
g3
(g4
g5
(dp1012
g7
S'depotFile, depotRev'
p1013
sg9
S'33'
p1014
sg11
g3
(g12
g13
(lp1015
g3
(g4
g5
(dp1016
g16
S''
sg17
g18
sg19
g18
sg20
S''
sg21
S''
sg22
g23
sg24
g25
stRp1017
ag3
(g4
g5
(dp1018
g16
S''
sg19
g28
sg20
S''
sg22
g29
sg21
S''
sg17
g28
sg30
Nsg24
g31
stRp1019
ag3
(g4
g5
(dp1020
g16
S''
sg19
g34
sg20
S''
sg22
g23
sg21
S''
sg17
g34
sg30
Nsg24
g35
stRp1021
ag3
(g4
g5
(dp1022
g16
S''
sg19
g38
sg20
S''
sg22
g29
sg21
S''
sg17
g38
sg30
Nsg24
g39
stRp1023
ag3
(g4
g5
(dp1024
g16
S''
sg42
g139
sg20
S''
sg44
g140
sg21
S''
sg17
g139
sg30
Nsg46
g141
stRp1025
ag3
(g4
g5
(dp1026
g16
S''
sg42
g144
sg20
S''
sg44
g145
sg21
S''
sg17
g144
sg30
Nsg46
g146
stRp1027
ag3
(g4
g5
(dp1028
g16
S''
sg42
g149
sg20
S''
sg44
g150
sg21
S''
sg17
g149
sg30
Nsg46
g151
stRp1029
ag3
(g4
g5
(dp1030
g16
S''
sg42
g154
sg20
S''
sg44
g155
sg21
S''
sg17
g154
sg30
Nsg46
g156
stRp1031
ag3
(g4
g5
(dp1032
g16
S''
sg42
g159
sg20
S''
sg44
g160
sg21
S''
sg17
g159
sg30
Nsg46
g161
stRp1033
ag3
(g4
g5
(dp1034
g16
S''
sg42
g164
sg20
S''
sg44
g165
sg21
S''
sg17
g164
sg30
Nsg46
g166
stRp1035
ag3
(g4
g5
(dp1036
g16
S''
sg42
g169
sg20
S''
sg44
g170
sg21
S''
sg17
g169
sg30
Nsg46
g171
stRp1037
ag3
(g4
g5
(dp1038
g16
S''
sg42
g174
sg20
S''
sg44
g175
sg21
S''
sg17
g174
sg30
Nsg46
g176
stRp1039
ag3
(g4
g5
(dp1040
g16
S''
sg42
g179
sg20
S''
sg44
g180
sg21
S''
sg17
g179
sg30
Nsg46
g181
stRp1041
ag3
(g4
g5
(dp1042
g16
S''
sg42
g184
sg20
S''
sg44
g185
sg21
S''
sg17
g184
sg30
Nsg46
g186
stRp1043
ag3
(g4
g5
(dp1044
g16
S''
sg42
g189
sg20
S''
sg44
g190
sg21
S''
sg17
g189
sg30
Nsg46
g191
stRp1045
ag3
(g4
g5
(dp1046
g16
S''
sg42
g194
sg20
S''
sg44
g195
sg21
S''
sg17
g194
sg30
Nsg46
g196
stRp1047
ag3
(g4
g5
(dp1048
g16
S''
sg42
g199
sg20
S''
sg44
g200
sg21
S''
sg17
g199
sg30
Nsg46
g201
stRp1049
ag3
(g4
g5
(dp1050
g16
S''
sg42
g204
sg20
S''
sg44
g205
sg21
S''
sg17
g204
sg30
Nsg46
g206
stRp1051
atRp1052
sg115
g1011
sg42
S'db.rev'
p1053
sg117
S'9'
sg118
S'27'
p1054
sg120
g121
sg44
S'Rev'
p1055
sg46
S'Revision records'
p1056
stRp1057
sS'tiny'
p1058
g3
(g4
g5
(dp1059
g7
S'fileAndRev'
p1060
sg115
g1058
sg11
g3
(g12
g13
(lp1061
g3
(g4
g5
(dp1062
g16
S''
sg17
g18
sg19
g18
sg20
S''
sg21
S''
sg22
g23
sg24
g25
stRp1063
ag3
(g4
g5
(dp1064
g16
S''
sg19
g28
sg20
S''
sg22
g29
sg21
S''
sg17
g28
sg30
Nsg24
g31
stRp1065
ag3
(g4
g5
(dp1066
g16
S''
sg19
g34
sg20
S''
sg22
g23
sg21
S''
sg17
g34
sg30
Nsg24
g35
stRp1067
ag3
(g4
g5
(dp1068
g16
S''
sg19
g38
sg20
S''
sg22
g29
sg21
S''
sg17
g38
sg30
Nsg24
g39
stRp1069
ag3
(g4
g5
(dp1070
g16
S''
sg42
S'fileAndRev'
p1071
sg20
S''
sg44
S'String'
p1072
sg21
S''
sg17
g1071
sg30
Nsg46
S'The file name and revision'
p1073
stRp1074
ag3
(g4
g5
(dp1075
g16
S''
sg42
S'fileContent'
p1076
sg20
S''
sg44
S'Octet String'
p1077
sg21
S''
sg17
g1076
sg30
Nsg46
S'The (encoded) file content'
p1078
stRp1079
atRp1080
sg120
g121
sg46
S'Records revision and content data for files using the +T file type modifier'
p1081
sg44
S'TinyDb'
p1082
sg42
S'tiny.db'
p1083
stRp1084
sS'label'
p1085
g3
(g4
g5
(dp1086
g7
S'name, depotFile'
p1087
sg9
S'17'
p1088
sg11
g3
(g12
g13
(lp1089
g3
(g4
g5
(dp1090
g16
S''
sg17
g18
sg19
g18
sg20
S''
sg21
S''
sg22
g23
sg24
g25
stRp1091
ag3
(g4
g5
(dp1092
g16
S''
sg19
g28
sg20
S''
sg22
g29
sg21
S''
sg17
g28
sg30
Nsg24
g31
stRp1093
ag3
(g4
g5
(dp1094
g16
S''
sg19
g34
sg20
S''
sg22
g23
sg21
S''
sg17
g34
sg30
Nsg24
g35
stRp1095
ag3
(g4
g5
(dp1096
g16
S''
sg19
g38
sg20
S''
sg22
g29
sg21
S''
sg17
g38
sg30
Nsg24
g39
stRp1097
ag3
(g4
g5
(dp1098
g16
S''
sg42
S'name'
p1099
sg20
S''
sg44
S'Domain'
p1100
sg21
S''
sg17
g1099
sg30
Nsg46
S'Name of the label'
p1101
stRp1102
ag3
(g4
g5
(dp1103
g16
S''
sg42
S'depotFile'
p1104
sg20
S''
sg44
S'File'
p1105
sg21
S''
sg17
g1104
sg30
Nsg46
S'File name'
p1106
stRp1107
ag3
(g4
g5
(dp1108
g16
S''
sg42
S'haveRev'
p1109
sg20
S''
sg44
S'Rev'
p1110
sg21
S''
sg17
g1109
sg30
Nsg46
S'The revision of the file in the label'
p1111
stRp1112
atRp1113
sg115
g1085
sg42
S'db.label'
p1114
sg117
S'0'
sg118
S'23'
p1115
sg120
g121
sg44
S'Label'
p1116
sg46
S'Lists the revisions of files in labels'
p1117
stRp1118
sS'revbx'
p1119
g3
(g4
g5
(dp1120
g7
S'depotFile, depotRev'
p1121
sg9
S'30'
p1122
sg11
g3
(g12
g13
(lp1123
g3
(g4
g5
(dp1124
g16
S''
sg17
g18
sg19
g18
sg20
S''
sg21
S''
sg22
g23
sg24
g25
stRp1125
ag3
(g4
g5
(dp1126
g16
S''
sg19
g28
sg20
S''
sg22
g29
sg21
S''
sg17
g28
sg30
Nsg24
g31
stRp1127
ag3
(g4
g5
(dp1128
g16
S''
sg19
g34
sg20
S''
sg22
g23
sg21
S''
sg17
g34
sg30
Nsg24
g35
stRp1129
ag3
(g4
g5
(dp1130
g16
S''
sg19
g38
sg20
S''
sg22
g29
sg21
S''
sg17
g38
sg30
Nsg24
g39
stRp1131
ag3
(g4
g5
(dp1132
g16
S''
sg42
g139
sg20
S''
sg44
g140
sg21
S''
sg17
g139
sg30
Nsg46
g141
stRp1133
ag3
(g4
g5
(dp1134
g16
S''
sg42
g144
sg20
S''
sg44
g145
sg21
S''
sg17
g144
sg30
Nsg46
g146
stRp1135
ag3
(g4
g5
(dp1136
g16
S''
sg42
g149
sg20
S''
sg44
g150
sg21
S''
sg17
g149
sg30
Nsg46
g151
stRp1137
ag3
(g4
g5
(dp1138
g16
S''
sg42
g154
sg20
S''
sg44
g155
sg21
S''
sg17
g154
sg30
Nsg46
g156
stRp1139
ag3
(g4
g5
(dp1140
g16
S''
sg42
g159
sg20
S''
sg44
g160
sg21
S''
sg17
g159
sg30
Nsg46
g161
stRp1141
ag3
(g4
g5
(dp1142
g16
S''
sg42
g164
sg20
S''
sg44
g165
sg21
S''
sg17
g164
sg30
Nsg46
g166
stRp1143
ag3
(g4
g5
(dp1144
g16
S''
sg42
g169
sg20
S''
sg44
g170
sg21
S''
sg17
g169
sg30
Nsg46
g171
stRp1145
ag3
(g4
g5
(dp1146
g16
S''
sg42
g174
sg20
S''
sg44
g175
sg21
S''
sg17
g174
sg30
Nsg46
g176
stRp1147
ag3
(g4
g5
(dp1148
g16
S''
sg42
g179
sg20
S''
sg44
g180
sg21
S''
sg17
g179
sg30
Nsg46
g181
stRp1149
ag3
(g4
g5
(dp1150
g16
S''
sg42
g184
sg20
S''
sg44
g185
sg21
S''
sg17
g184
sg30
Nsg46
g186
stRp1151
ag3
(g4
g5
(dp1152
g16
S''
sg42
g189
sg20
S''
sg44
g190
sg21
S''
sg17
g189
sg30
Nsg46
g191
stRp1153
ag3
(g4
g5
(dp1154
g16
S''
sg42
g194
sg20
S''
sg44
g195
sg21
S''
sg17
g194
sg30
Nsg46
g196
stRp1155
ag3
(g4
g5
(dp1156
g16
S''
sg42
g199
sg20
S''
sg44
g200
sg21
S''
sg17
g199
sg30
Nsg46
g201
stRp1157
ag3
(g4
g5
(dp1158
g16
S''
sg42
g204
sg20
S''
sg44
g205
sg21
S''
sg17
g204
sg30
Nsg46
g206
stRp1159
atRp1160
sg115
g1119
sg42
S'db.revbx'
p1161
sg117
S'9'
sg118
S'35'
p1162
sg120
g121
sg44
S'Rev'
p1163
sg46
S'Revision records for archived files'
p1164
stRp1165
sS'nameval'
p1166
g3
(g4
g5
(dp1167
g7
S'name'
p1168
sg9
S'3'
sg11
g3
(g12
g13
(lp1169
g3
(g4
g5
(dp1170
g16
S''
sg17
g18
sg19
g18
sg20
S''
sg21
S''
sg22
g23
sg24
g25
stRp1171
ag3
(g4
g5
(dp1172
g16
S''
sg19
g28
sg20
S''
sg22
g29
sg21
S''
sg17
g28
sg30
Nsg24
g31
stRp1173
ag3
(g4
g5
(dp1174
g16
S''
sg19
g34
sg20
S''
sg22
g23
sg21
S''
sg17
g34
sg30
Nsg24
g35
stRp1175
ag3
(g4
g5
(dp1176
g16
S''
sg19
g38
sg20
S''
sg22
g29
sg21
S''
sg17
g38
sg30
Nsg24
g39
stRp1177
ag3
(g4
g5
(dp1178
g16
S''
sg42
S'name'
p1179
sg20
S''
sg44
S'Key'
p1180
sg21
S''
sg17
g1179
sg30
Nsg46
S'Key name'
p1181
stRp1182
ag3
(g4
g5
(dp1183
g16
S''
sg42
S'value'
p1184
sg20
S''
sg44
S'Value'
p1185
sg21
S''
sg17
g1184
sg30
Nsg46
S'Key value'
p1186
stRp1187
atRp1188
sg115
g1166
sg42
S'db.nameval'
p1189
sg117
S'1'
sg118
S'3'
sg120
g121
sg44
S'Keys'
p1190
sg46
S'A table to store key/value pairs'
p1191
stRp1192
sS'trigger'
p1193
g3
(g4
g5
(dp1194
g7
S'seq'
p1195
sg9
S'40'
p1196
sg11
g3
(g12
g13
(lp1197
g3
(g4
g5
(dp1198
g16
S''
sg17
g18
sg19
g18
sg20
S''
sg21
S''
sg22
g23
sg24
g25
stRp1199
ag3
(g4
g5
(dp1200
g16
S''
sg19
g28
sg20
S''
sg22
g29
sg21
S''
sg17
g28
sg30
Nsg24
g31
stRp1201
ag3
(g4
g5
(dp1202
g16
S''
sg19
g34
sg20
S''
sg22
g23
sg21
S''
sg17
g34
sg30
Nsg24
g35
stRp1203
ag3
(g4
g5
(dp1204
g16
S''
sg19
g38
sg20
S''
sg22
g29
sg21
S''
sg17
g38
sg30
Nsg24
g39
stRp1205
ag3
(g4
g5
(dp1206
g16
S''
sg42
S'seq'
p1207
sg20
S''
sg44
S'Int'
p1208
sg21
S''
sg17
g1207
sg30
Nsg46
S'Sequence number: for ordering the trigger list'
p1209
stRp1210
ag3
(g4
g5
(dp1211
g16
S''
sg42
S'name'
p1212
sg20
S''
sg44
S'String'
p1213
sg21
S''
sg17
g1212
sg30
Nsg46
S'Name of the trigger'
p1214
stRp1215
ag3
(g4
g5
(dp1216
g16
S''
sg42
S'mapFlag'
p1217
sg20
S''
sg44
S'MapFlag'
p1218
sg21
S''
sg17
g1217
sg30
Nsg46
S'Type of mapping: specifies whether the trigger applies \n\t\t    to the files or not.'
p1219
stRp1220
ag3
(g4
g5
(dp1221
g16
S''
sg42
S'depotFile'
p1222
sg20
S''
sg44
S'Mapping'
p1223
sg21
S''
sg17
g1222
sg30
Nsg46
S'The files to apply the trigger to'
p1224
stRp1225
ag3
(g4
g5
(dp1226
g16
S''
sg42
S'triggerDepotFile'
p1227
sg20
S''
sg44
S'File'
p1228
sg21
S''
sg17
g1227
sg30
Nsg46
S'Depot path to the trigger'
p1229
stRp1230
ag3
(g4
g5
(dp1231
g16
S''
sg42
S'trigger'
p1232
sg20
S''
sg44
S'Trigger'
p1233
sg21
S''
sg17
g1232
sg30
Nsg46
S'Type of trigger'
p1234
stRp1235
ag3
(g4
g5
(dp1236
g16
S''
sg42
S'action'
p1237
sg20
S''
sg44
S'Text'
p1238
sg21
S''
sg17
g1237
sg30
Nsg46
S'Command to execute when trigger runs'
p1239
stRp1240
atRp1241
sg115
g1193
sg42
S'db.trigger'
p1242
sg117
S'2'
sg118
S'40'
p1243
sg120
g121
sg44
S'Trigger'
p1244
sg46
S'Trigger specifications'
p1245
stRp1246
sS'template'
p1247
g3
(g4
g5
(dp1248
g7
S'name, change, sequence'
p1249
sg9
S'13'
p1250
sg11
g3
(g12
g13
(lp1251
g3
(g4
g5
(dp1252
g16
S''
sg17
g18
sg19
g18
sg20
S''
sg21
S''
sg22
g23
sg24
g25
stRp1253
ag3
(g4
g5
(dp1254
g16
S''
sg19
g28
sg20
S''
sg22
g29
sg21
S''
sg17
g28
sg30
Nsg24
g31
stRp1255
ag3
(g4
g5
(dp1256
g16
S''
sg19
g34
sg20
S''
sg22
g23
sg21
S''
sg17
g34
sg30
Nsg24
g35
stRp1257
ag3
(g4
g5
(dp1258
g16
S''
sg19
g38
sg20
S''
sg22
g29
sg21
S''
sg17
g38
sg30
Nsg24
g39
stRp1259
ag3
(g4
g5
(dp1260
g16
S''
sg42
S'name'
p1261
sg20
S''
sg44
S'Domain'
p1262
sg21
S''
sg17
g1261
sg30
Nsg46
S'Stream name'
p1263
stRp1264
ag3
(g4
g5
(dp1265
g16
S''
sg42
S'change'
p1266
sg20
S''
sg44
S'Change'
p1267
sg21
S''
sg17
g1266
sg30
Nsg46
S'Versioned at change'
p1268
stRp1269
ag3
(g4
g5
(dp1270
g16
S''
sg42
S'seq'
p1271
sg20
S''
sg44
S'Int'
p1272
sg21
S''
sg17
g1271
sg30
Nsg46
S'Sequence (line) number'
p1273
stRp1274
ag3
(g4
g5
(dp1275
g16
S''
sg42
S'parent'
p1276
sg20
S''
sg44
S'Domain'
p1277
sg21
S''
sg17
g1276
sg30
Nsg46
S'Parent stream name'
p1278
stRp1279
ag3
(g4
g5
(dp1280
g16
S''
sg42
S'type'
p1281
sg20
S''
sg44
S'StreamType'
p1282
sg21
S''
sg17
g1281
sg30
Nsg46
S'Type of stream'
p1283
stRp1284
ag3
(g4
g5
(dp1285
g16
S''
sg42
S'path'
p1286
sg20
S''
sg44
S'StreamPathType'
p1287
sg21
S''
sg17
g1286
sg30
Nsg46
S'Stream path type'
p1288
stRp1289
ag3
(g4
g5
(dp1290
g16
S''
sg42
S'viewFile'
p1291
sg20
S''
sg44
S'Mapping'
p1292
sg21
S''
sg17
g1291
sg30
Nsg46
S'View file (left hand side of path)'
p1293
stRp1294
ag3
(g4
g5
(dp1295
g16
S''
sg42
S'depotFile'
p1296
sg20
S''
sg44
S'Mapping'
p1297
sg21
S''
sg17
g1296
sg30
Nsg46
S'Depot file (right hand side of path)'
p1298
stRp1299
ag3
(g4
g5
(dp1300
g16
S''
sg42
S'changeMap'
p1301
sg20
S''
sg44
S'Change'
p1302
sg21
S''
sg17
g1301
sg30
Nsg46
S'Change Map'
p1303
stRp1304
atRp1305
sg115
g1247
sg42
S'db.template'
p1306
sg117
S'0'
sg118
S'13'
p1307
sg120
g121
sg44
S'Template'
p1308
sg46
S'Streams templates'
p1309
stRp1310
sS'haverp'
p1311
g3
(g4
g5
(dp1312
g7
S'clientFile depotFile haveRev'
p1313
sg9
S'18'
p1314
sg11
g3
(g12
g13
(lp1315
g3
(g4
g5
(dp1316
g16
S''
sg17
g18
sg19
g18
sg20
S''
sg21
S''
sg22
g23
sg24
g25
stRp1317
ag3
(g4
g5
(dp1318
g16
S''
sg19
g28
sg20
S''
sg22
g29
sg21
S''
sg17
g28
sg30
Nsg24
g31
stRp1319
ag3
(g4
g5
(dp1320
g16
S''
sg19
g34
sg20
S''
sg22
g23
sg21
S''
sg17
g34
sg30
Nsg24
g35
stRp1321
ag3
(g4
g5
(dp1322
g16
S''
sg19
g38
sg20
S''
sg22
g29
sg21
S''
sg17
g38
sg30
Nsg24
g39
stRp1323
ag3
(g4
g5
(dp1324
g16
S''
sg42
g432
sg20
S''
sg44
g433
sg21
S''
sg17
g432
sg30
Nsg46
g434
stRp1325
ag3
(g4
g5
(dp1326
g16
S''
sg42
g437
sg20
S''
sg44
g438
sg21
S''
sg17
g437
sg30
Nsg46
g439
stRp1327
ag3
(g4
g5
(dp1328
g16
S''
sg42
g442
sg20
S''
sg44
g443
sg21
S''
sg17
g442
sg30
Nsg46
g444
stRp1329
ag3
(g4
g5
(dp1330
g16
S''
sg42
g447
sg20
S''
sg44
g448
sg21
S''
sg17
g447
sg30
Nsg46
g449
stRp1331
atRp1332
sg115
g1311
sg42
S'db.have.rp'
p1333
sg117
S'2'
sg118
S'21'
p1334
sg120
g121
sg44
S'Have'
p1335
sg46
S"Contains the 'have-list' for clients of build-server replicas"
p1336
stRp1337
sS'depot'
p1338
g3
(g4
g5
(dp1339
g7
S'name'
p1340
sg9
S'10'
p1341
sg11
g3
(g12
g13
(lp1342
g3
(g4
g5
(dp1343
g16
S''
sg17
g18
sg19
g18
sg20
S''
sg21
S''
sg22
g23
sg24
g25
stRp1344
ag3
(g4
g5
(dp1345
g16
S''
sg19
g28
sg20
S''
sg22
g29
sg21
S''
sg17
g28
sg30
Nsg24
g31
stRp1346
ag3
(g4
g5
(dp1347
g16
S''
sg19
g34
sg20
S''
sg22
g23
sg21
S''
sg17
g34
sg30
Nsg24
g35
stRp1348
ag3
(g4
g5
(dp1349
g16
S''
sg19
g38
sg20
S''
sg22
g29
sg21
S''
sg17
g38
sg30
Nsg24
g39
stRp1350
ag3
(g4
g5
(dp1351
g16
S''
sg42
S'name'
p1352
sg20
S''
sg44
S'Domain'
p1353
sg21
S''
sg17
g1352
sg30
Nsg46
S'Depot name'
p1354
stRp1355
ag3
(g4
g5
(dp1356
g16
S''
sg42
S'type'
p1357
sg20
S''
sg44
S'DepotType'
p1358
sg21
S''
sg17
g1357
sg30
Nsg46
S'Type of depot'
p1359
stRp1360
ag3
(g4
g5
(dp1361
g16
S''
sg42
S'extra'
p1362
sg20
S''
sg44
S'Text'
p1363
sg21
S''
sg17
g1362
sg30
Nsg46
S'For remote depots, the P4PORT address of the remote server.\n\t\t    For spec depots, the field contains a suffix to append to \n\t\t    the filename.'
p1364
stRp1365
ag3
(g4
g5
(dp1366
g16
S''
sg42
S'map'
p1367
sg20
S''
sg44
S'Text'
p1368
sg21
S''
sg17
g1367
sg30
Nsg46
S"The depot's map (path translation information).  For local \n\t\t    depots, this will be a path relative to the root directory.\n\t\t    For remote depots, this will be specified in terms of the \n\t\t    remote server's namespace."
p1369
stRp1370
atRp1371
sg115
g1338
sg42
S'db.depot'
p1372
sg117
S'1'
sg118
S'10'
p1373
sg120
g121
sg44
S'Depot'
p1374
sg46
S'Perforce depots'
p1375
stRp1376
sS'config'
p1377
g3
(g4
g5
(dp1378
g7
S'serverName, name'
p1379
sg9
S'1'
sg11
g3
(g12
g13
(lp1380
g3
(g4
g5
(dp1381
g16
S''
sg17
g18
sg19
g18
sg20
S''
sg21
S''
sg22
g23
sg24
g25
stRp1382
ag3
(g4
g5
(dp1383
g16
S''
sg19
g28
sg20
S''
sg22
g29
sg21
S''
sg17
g28
sg30
Nsg24
g31
stRp1384
ag3
(g4
g5
(dp1385
g16
S''
sg19
g34
sg20
S''
sg22
g23
sg21
S''
sg17
g34
sg30
Nsg24
g35
stRp1386
ag3
(g4
g5
(dp1387
g16
S''
sg19
g38
sg20
S''
sg22
g29
sg21
S''
sg17
g38
sg30
Nsg24
g39
stRp1388
ag3
(g4
g5
(dp1389
g16
S''
sg42
S'sname'
p1390
sg20
S''
sg44
S'String'
p1391
sg21
S''
sg17
g1390
sg30
Nsg46
S'Server name'
p1392
stRp1393
ag3
(g4
g5
(dp1394
g16
S''
sg42
S'name'
p1395
sg20
S''
sg44
S'String'
p1396
sg21
S''
sg17
g1395
sg30
Nsg46
S'Configuration variable name'
p1397
stRp1398
ag3
(g4
g5
(dp1399
g16
S''
sg42
S'value'
p1400
sg20
S''
sg44
S'Value'
p1401
sg21
S''
sg17
g1400
sg30
Nsg46
S'Configuration variable value'
p1402
stRp1403
atRp1404
sg115
g1377
sg42
S'db.config'
p1405
sg117
S'1'
sg118
S'1'
sg120
g121
sg44
S'Config'
p1406
sg46
S'Perforce server configurations table'
p1407
stRp1408
sS'sendq'
p1409
g3
(g4
g5
(dp1410
g7
S'taskid, seq'
p1411
sg9
S'53'
p1412
sg11
g3
(g12
g13
(lp1413
g3
(g4
g5
(dp1414
g16
S''
sg17
g18
sg19
g18
sg20
S''
sg21
S''
sg22
g23
sg24
g25
stRp1415
ag3
(g4
g5
(dp1416
g16
S''
sg19
g28
sg20
S''
sg22
g29
sg21
S''
sg17
g28
sg30
Nsg24
g31
stRp1417
ag3
(g4
g5
(dp1418
g16
S''
sg19
g34
sg20
S''
sg22
g23
sg21
S''
sg17
g34
sg30
Nsg24
g35
stRp1419
ag3
(g4
g5
(dp1420
g16
S''
sg19
g38
sg20
S''
sg22
g29
sg21
S''
sg17
g38
sg30
Nsg24
g39
stRp1421
ag3
(g4
g5
(dp1422
g16
S''
sg42
S'taskID'
p1423
sg20
S''
sg44
S'Int'
p1424
sg21
S''
sg17
g1423
sg30
Nsg46
S'The process id (PID) of the sync'
p1425
stRp1426
ag3
(g4
g5
(dp1427
g16
S''
sg42
S'seq'
p1428
sg20
S''
sg44
S'Int'
p1429
sg21
S''
sg17
g1428
sg30
Nsg46
S'Sequence number'
p1430
stRp1431
ag3
(g4
g5
(dp1432
g16
S''
sg42
S'handle'
p1433
sg20
S''
sg44
S'text'
p1434
sg21
S''
sg17
g1433
sg30
Nsg46
S'Handle'
p1435
stRp1436
ag3
(g4
g5
(dp1437
g16
S''
sg42
S'depotFile'
p1438
sg20
S''
sg44
S'File'
p1439
sg21
S''
sg17
g1438
sg30
Nsg46
S'The file in the depot'
p1440
stRp1441
ag3
(g4
g5
(dp1442
g16
S''
sg42
S'clientFile'
p1443
sg20
S''
sg44
S'File'
p1444
sg21
S''
sg17
g1443
sg30
Nsg46
S'The file in its location on the client'
p1445
stRp1446
ag3
(g4
g5
(dp1447
g16
S''
sg42
S'haveRev'
p1448
sg20
S''
sg44
S'Rev'
p1449
sg21
S''
sg17
g1448
sg30
Nsg46
S'Have revision'
p1450
stRp1451
ag3
(g4
g5
(dp1452
g16
S''
sg42
S'type'
p1453
sg20
S''
sg44
S'FileType'
p1454
sg21
S''
sg17
g1453
sg30
Nsg46
S'File type'
p1455
stRp1456
ag3
(g4
g5
(dp1457
g16
S''
sg42
S'modtime'
p1458
sg20
S''
sg44
S'Date'
p1459
sg21
S''
sg17
g1458
sg30
Nsg46
S'Modification time'
p1460
stRp1461
ag3
(g4
g5
(dp1462
g16
S''
sg42
S'digest'
p1463
sg20
S''
sg44
S'Digest'
p1464
sg21
S''
sg17
g1463
sg30
Nsg46
S'The MD5 digest of the revision'
p1465
stRp1466
ag3
(g4
g5
(dp1467
g16
S''
sg42
S'size'
p1468
sg20
S''
sg44
S'FileSize'
p1469
sg21
S''
sg17
g1468
sg30
Nsg46
S'The size of the file in bytes'
p1470
stRp1471
ag3
(g4
g5
(dp1472
g16
S''
sg42
S'lbrFile'
p1473
sg20
S''
sg44
S'File'
p1474
sg21
S''
sg17
g1473
sg30
Nsg46
S'Librarian filename'
p1475
stRp1476
ag3
(g4
g5
(dp1477
g16
S''
sg42
S'lbrRev'
p1478
sg20
S''
sg44
S'LbrRev'
p1479
sg21
S''
sg17
g1478
sg30
Nsg46
S'The revision of lbrFile that contains the revision content'
p1480
stRp1481
ag3
(g4
g5
(dp1482
g16
S''
sg42
S'lbrType'
p1483
sg20
S''
sg44
S'FileType'
p1484
sg21
S''
sg17
g1483
sg30
Nsg46
S'The file type of the librarian revision'
p1485
stRp1486
ag3
(g4
g5
(dp1487
g16
S''
sg42
S'flags'
p1488
sg20
S''
sg44
S'Int'
p1489
sg21
S''
sg17
g1488
sg30
Nsg46
S'Flags'
p1490
stRp1491
atRp1492
sg115
g1409
sg42
S'db.sendq'
p1493
sg117
S'0'
sg118
S'53'
p1494
sg120
g121
sg44
S'SendQ'
p1495
sg46
S'Parallel file transmission work queue'
p1496
stRp1497
sS'counters'
p1498
g3
(g4
g5
(dp1499
g7
S'name'
p1500
sg9
S'2'
sg11
g3
(g12
g13
(lp1501
g3
(g4
g5
(dp1502
g16
S''
sg17
g18
sg19
g18
sg20
S''
sg21
S''
sg22
g23
sg24
g25
stRp1503
ag3
(g4
g5
(dp1504
g16
S''
sg19
g28
sg20
S''
sg22
g29
sg21
S''
sg17
g28
sg30
Nsg24
g31
stRp1505
ag3
(g4
g5
(dp1506
g16
S''
sg19
g34
sg20
S''
sg22
g23
sg21
S''
sg17
g34
sg30
Nsg24
g35
stRp1507
ag3
(g4
g5
(dp1508
g16
S''
sg19
g38
sg20
S''
sg22
g29
sg21
S''
sg17
g38
sg30
Nsg24
g39
stRp1509
ag3
(g4
g5
(dp1510
g16
S''
sg42
S'name'
p1511
sg20
S''
sg44
S'Counter'
p1512
sg21
S''
sg17
g1511
sg30
Nsg46
S'Counter name'
p1513
stRp1514
ag3
(g4
g5
(dp1515
g16
S''
sg42
S'value'
p1516
sg20
S''
sg44
S'Value'
p1517
sg21
S''
sg17
g1516
sg30
Nsg46
S'Counter value'
p1518
stRp1519
atRp1520
sg115
g1498
sg42
S'db.counters'
p1521
sg117
S'1'
sg118
S'2'
sg120
g121
sg44
S'Counters'
p1522
sg46
S'Perforce counters table'
p1523
stRp1524
sS'fixrev'
p1525
g3
(g4
g5
(dp1526
g7
S'change, job'
p1527
sg9
S'46'
p1528
sg11
g3
(g12
g13
(lp1529
g3
(g4
g5
(dp1530
g16
S''
sg17
g18
sg19
g18
sg20
S''
sg21
S''
sg22
g23
sg24
g25
stRp1531
ag3
(g4
g5
(dp1532
g16
S''
sg19
g28
sg20
S''
sg22
g29
sg21
S''
sg17
g28
sg30
Nsg24
g31
stRp1533
ag3
(g4
g5
(dp1534
g16
S''
sg19
g34
sg20
S''
sg22
g23
sg21
S''
sg17
g34
sg30
Nsg24
g35
stRp1535
ag3
(g4
g5
(dp1536
g16
S''
sg19
g38
sg20
S''
sg22
g29
sg21
S''
sg17
g38
sg30
Nsg24
g39
stRp1537
ag3
(g4
g5
(dp1538
g16
S''
sg42
g944
sg20
S''
sg44
g945
sg21
S''
sg17
g944
sg30
Nsg46
g946
stRp1539
ag3
(g4
g5
(dp1540
g16
S''
sg42
g949
sg20
S''
sg44
g950
sg21
S''
sg17
g949
sg30
Nsg46
g951
stRp1541
ag3
(g4
g5
(dp1542
g16
S''
sg42
g954
sg20
S''
sg44
g955
sg21
S''
sg17
g954
sg30
Nsg46
g956
stRp1543
ag3
(g4
g5
(dp1544
g16
S''
sg42
g959
sg20
S''
sg44
g960
sg21
S''
sg17
g959
sg30
Nsg46
g961
stRp1545
ag3
(g4
g5
(dp1546
g16
S''
sg42
g964
sg20
S''
sg44
g965
sg21
S''
sg17
g964
sg30
Nsg46
g966
stRp1547
ag3
(g4
g5
(dp1548
g16
S''
sg42
g969
sg20
S''
sg44
g970
sg21
S''
sg17
g969
sg30
Nsg46
g971
stRp1549
atRp1550
sg115
g1525
sg42
S'db.fixrev'
p1551
sg117
S'1'
sg118
S'46'
p1552
sg120
g121
sg46
S'Fix records - indexed by change'
p1553
sg44
S'Fix'
p1554
sg978
S'db.fix'
p1555
stRp1556
sS'revdx'
p1557
g3
(g4
g5
(dp1558
g7
S'depotFile'
p1559
sg9
S'25'
p1560
sg11
g3
(g12
g13
(lp1561
g3
(g4
g5
(dp1562
g16
S''
sg17
g18
sg19
g18
sg20
S''
sg21
S''
sg22
g23
sg24
g25
stRp1563
ag3
(g4
g5
(dp1564
g16
S''
sg19
g28
sg20
S''
sg22
g29
sg21
S''
sg17
g28
sg30
Nsg24
g31
stRp1565
ag3
(g4
g5
(dp1566
g16
S''
sg19
g34
sg20
S''
sg22
g23
sg21
S''
sg17
g34
sg30
Nsg24
g35
stRp1567
ag3
(g4
g5
(dp1568
g16
S''
sg19
g38
sg20
S''
sg22
g29
sg21
S''
sg17
g38
sg30
Nsg24
g39
stRp1569
ag3
(g4
g5
(dp1570
g16
S''
sg42
g139
sg20
S''
sg44
g140
sg21
S''
sg17
g139
sg30
Nsg46
g141
stRp1571
ag3
(g4
g5
(dp1572
g16
S''
sg42
g144
sg20
S''
sg44
g145
sg21
S''
sg17
g144
sg30
Nsg46
g146
stRp1573
ag3
(g4
g5
(dp1574
g16
S''
sg42
g149
sg20
S''
sg44
g150
sg21
S''
sg17
g149
sg30
Nsg46
g151
stRp1575
ag3
(g4
g5
(dp1576
g16
S''
sg42
g154
sg20
S''
sg44
g155
sg21
S''
sg17
g154
sg30
Nsg46
g156
stRp1577
ag3
(g4
g5
(dp1578
g16
S''
sg42
g159
sg20
S''
sg44
g160
sg21
S''
sg17
g159
sg30
Nsg46
g161
stRp1579
ag3
(g4
g5
(dp1580
g16
S''
sg42
g164
sg20
S''
sg44
g165
sg21
S''
sg17
g164
sg30
Nsg46
g166
stRp1581
ag3
(g4
g5
(dp1582
g16
S''
sg42
g169
sg20
S''
sg44
g170
sg21
S''
sg17
g169
sg30
Nsg46
g171
stRp1583
ag3
(g4
g5
(dp1584
g16
S''
sg42
g174
sg20
S''
sg44
g175
sg21
S''
sg17
g174
sg30
Nsg46
g176
stRp1585
ag3
(g4
g5
(dp1586
g16
S''
sg42
g179
sg20
S''
sg44
g180
sg21
S''
sg17
g179
sg30
Nsg46
g181
stRp1587
ag3
(g4
g5
(dp1588
g16
S''
sg42
g184
sg20
S''
sg44
g185
sg21
S''
sg17
g184
sg30
Nsg46
g186
stRp1589
ag3
(g4
g5
(dp1590
g16
S''
sg42
g189
sg20
S''
sg44
g190
sg21
S''
sg17
g189
sg30
Nsg46
g191
stRp1591
ag3
(g4
g5
(dp1592
g16
S''
sg42
g194
sg20
S''
sg44
g195
sg21
S''
sg17
g194
sg30
Nsg46
g196
stRp1593
ag3
(g4
g5
(dp1594
g16
S''
sg42
g199
sg20
S''
sg44
g200
sg21
S''
sg17
g199
sg30
Nsg46
g201
stRp1595
ag3
(g4
g5
(dp1596
g16
S''
sg42
g204
sg20
S''
sg44
g205
sg21
S''
sg17
g204
sg30
Nsg46
g206
stRp1597
atRp1598
sg115
g1557
sg42
S'db.revdx'
p1599
sg117
S'9'
sg118
S'30'
p1600
sg120
g121
sg44
S'Rev'
p1601
sg46
S'Revision records for revisions deleted at the head revision'
p1602
stRp1603
sS'revsx'
p1604
g3
(g4
g5
(dp1605
g7
S'depotFile, depotRev'
p1606
sg9
S'28'
p1607
sg11
g3
(g12
g13
(lp1608
g3
(g4
g5
(dp1609
g16
S''
sg17
g18
sg19
g18
sg20
S''
sg21
S''
sg22
g23
sg24
g25
stRp1610
ag3
(g4
g5
(dp1611
g16
S''
sg19
g28
sg20
S''
sg22
g29
sg21
S''
sg17
g28
sg30
Nsg24
g31
stRp1612
ag3
(g4
g5
(dp1613
g16
S''
sg19
g34
sg20
S''
sg22
g23
sg21
S''
sg17
g34
sg30
Nsg24
g35
stRp1614
ag3
(g4
g5
(dp1615
g16
S''
sg19
g38
sg20
S''
sg22
g29
sg21
S''
sg17
g38
sg30
Nsg24
g39
stRp1616
ag3
(g4
g5
(dp1617
g16
S''
sg42
g139
sg20
S''
sg44
g140
sg21
S''
sg17
g139
sg30
Nsg46
g141
stRp1618
ag3
(g4
g5
(dp1619
g16
S''
sg42
g144
sg20
S''
sg44
g145
sg21
S''
sg17
g144
sg30
Nsg46
g146
stRp1620
ag3
(g4
g5
(dp1621
g16
S''
sg42
g149
sg20
S''
sg44
g150
sg21
S''
sg17
g149
sg30
Nsg46
g151
stRp1622
ag3
(g4
g5
(dp1623
g16
S''
sg42
g154
sg20
S''
sg44
g155
sg21
S''
sg17
g154
sg30
Nsg46
g156
stRp1624
ag3
(g4
g5
(dp1625
g16
S''
sg42
g159
sg20
S''
sg44
g160
sg21
S''
sg17
g159
sg30
Nsg46
g161
stRp1626
ag3
(g4
g5
(dp1627
g16
S''
sg42
g164
sg20
S''
sg44
g165
sg21
S''
sg17
g164
sg30
Nsg46
g166
stRp1628
ag3
(g4
g5
(dp1629
g16
S''
sg42
g169
sg20
S''
sg44
g170
sg21
S''
sg17
g169
sg30
Nsg46
g171
stRp1630
ag3
(g4
g5
(dp1631
g16
S''
sg42
g174
sg20
S''
sg44
g175
sg21
S''
sg17
g174
sg30
Nsg46
g176
stRp1632
ag3
(g4
g5
(dp1633
g16
S''
sg42
g179
sg20
S''
sg44
g180
sg21
S''
sg17
g179
sg30
Nsg46
g181
stRp1634
ag3
(g4
g5
(dp1635
g16
S''
sg42
g184
sg20
S''
sg44
g185
sg21
S''
sg17
g184
sg30
Nsg46
g186
stRp1636
ag3
(g4
g5
(dp1637
g16
S''
sg42
g189
sg20
S''
sg44
g190
sg21
S''
sg17
g189
sg30
Nsg46
g191
stRp1638
ag3
(g4
g5
(dp1639
g16
S''
sg42
g194
sg20
S''
sg44
g195
sg21
S''
sg17
g194
sg30
Nsg46
g196
stRp1640
ag3
(g4
g5
(dp1641
g16
S''
sg42
g199
sg20
S''
sg44
g200
sg21
S''
sg17
g199
sg30
Nsg46
g201
stRp1642
ag3
(g4
g5
(dp1643
g16
S''
sg42
g204
sg20
S''
sg44
g205
sg21
S''
sg17
g204
sg30
Nsg46
g206
stRp1644
atRp1645
sg115
g1604
sg42
S'db.revsx'
p1646
sg117
S'9'
sg118
S'33'
p1647
sg120
g121
sg44
S'Rev'
p1648
sg46
S'Revision records for spec depot files'
p1649
stRp1650
sS'changex'
p1651
g3
(g4
g5
(dp1652
g7
S'change'
p1653
sg9
S'42'
p1654
sg11
g3
(g12
g13
(lp1655
g3
(g4
g5
(dp1656
g16
S''
sg17
g18
sg19
g18
sg20
S''
sg21
S''
sg22
g23
sg24
g25
stRp1657
ag3
(g4
g5
(dp1658
g16
S''
sg19
g28
sg20
S''
sg22
g29
sg21
S''
sg17
g28
sg30
Nsg24
g31
stRp1659
ag3
(g4
g5
(dp1660
g16
S''
sg19
g34
sg20
S''
sg22
g23
sg21
S''
sg17
g34
sg30
Nsg24
g35
stRp1661
ag3
(g4
g5
(dp1662
g16
S''
sg19
g38
sg20
S''
sg22
g29
sg21
S''
sg17
g38
sg30
Nsg24
g39
stRp1663
ag3
(g4
g5
(dp1664
g16
S''
sg42
S'change'
p1665
sg20
S''
sg44
S'Change'
p1666
sg21
S''
sg17
g1665
sg30
Nsg46
S'The change number'
p1667
stRp1668
ag3
(g4
g5
(dp1669
g16
S''
sg42
S'descKey'
p1670
sg20
S''
sg44
S'Change'
p1671
sg21
S''
sg17
g1670
sg30
Nsg46
S"The description key. Normally the same as 'change', but\n\t\t    may differ if a changelist was renumbered on submission."
p1672
stRp1673
ag3
(g4
g5
(dp1674
g16
S''
sg42
S'client'
p1675
sg20
S''
sg44
S'Domain'
p1676
sg21
S''
sg17
g1675
sg30
Nsg46
S'The client from which the change originates'
p1677
stRp1678
ag3
(g4
g5
(dp1679
g16
S''
sg42
S'user'
p1680
sg20
S''
sg44
S'User'
p1681
sg21
S''
sg17
g1680
sg30
Nsg46
S'The user who owns the change'
p1682
stRp1683
ag3
(g4
g5
(dp1684
g16
S''
sg42
S'date'
p1685
sg20
S''
sg44
S'Date'
p1686
sg21
S''
sg17
g1685
sg30
Nsg46
S'Date and time the changelist was submitted'
p1687
stRp1688
ag3
(g4
g5
(dp1689
g16
S''
sg42
S'status'
p1690
sg20
S''
sg44
S'ChangeStatus'
p1691
sg21
S''
sg17
g1690
sg30
Nsg46
S'Status of the change'
p1692
stRp1693
ag3
(g4
g5
(dp1694
g16
S''
sg42
S'description'
p1695
sg20
S''
sg44
S'DescShort'
p1696
sg21
S''
sg17
g1695
sg30
Nsg46
S'Short description of the change.'
p1697
stRp1698
ag3
(g4
g5
(dp1699
g16
S''
sg42
S'root'
p1700
sg20
S''
sg44
S'Mapping'
p1701
sg21
S''
sg17
g1700
sg30
Nsg46
S'Common path for all files in the changelist'
p1702
stRp1703
atRp1704
sg115
g1651
sg42
S'db.changex'
p1705
sg373
S'contains records for pending changelists only.'
p1706
sg117
S'2'
sg118
S'42'
p1707
sg120
g121
sg44
S'Change'
p1708
sg46
S'Subset of db.change - records for pending changelists only'
p1709
stRp1710
sS'integed'
p1711
g3
(g4
g5
(dp1712
g7
S'toFile, fromFile, startFromRev, endFromRev, \n\t\tstartToRev, endToRev'
p1713
sg9
S'20'
p1714
sg11
g3
(g12
g13
(lp1715
g3
(g4
g5
(dp1716
g16
S''
sg17
g18
sg19
g18
sg20
S''
sg21
S''
sg22
g23
sg24
g25
stRp1717
ag3
(g4
g5
(dp1718
g16
S''
sg19
g28
sg20
S''
sg22
g29
sg21
S''
sg17
g28
sg30
Nsg24
g31
stRp1719
ag3
(g4
g5
(dp1720
g16
S''
sg19
g34
sg20
S''
sg22
g23
sg21
S''
sg17
g34
sg30
Nsg24
g35
stRp1721
ag3
(g4
g5
(dp1722
g16
S''
sg19
g38
sg20
S''
sg22
g29
sg21
S''
sg17
g38
sg30
Nsg24
g39
stRp1723
ag3
(g4
g5
(dp1724
g16
S''
sg42
S'toFile'
p1725
sg20
S''
sg44
S'File'
p1726
sg21
S''
sg17
g1725
sg30
Nsg46
S'File to which integration is being performed (target).'
p1727
stRp1728
ag3
(g4
g5
(dp1729
g16
S''
sg42
S'fromFile'
p1730
sg20
S''
sg44
S'File'
p1731
sg21
S''
sg17
g1730
sg30
Nsg46
S'File from which integration is being performed (source).'
p1732
stRp1733
ag3
(g4
g5
(dp1734
g16
S''
sg42
S'startFromRev'
p1735
sg20
S''
sg44
S'Rev'
p1736
sg21
S''
sg17
g1735
sg30
Nsg46
S'Starting revision of fromFile'
p1737
stRp1738
ag3
(g4
g5
(dp1739
g16
S''
sg42
S'endFromRev'
p1740
sg20
S''
sg44
S'Rev'
p1741
sg21
S''
sg17
g1740
sg30
Nsg46
S'Ending revision of fromFile'
p1742
stRp1743
ag3
(g4
g5
(dp1744
g16
S''
sg42
S'startToRev'
p1745
sg20
S''
sg44
S'Rev'
p1746
sg21
S''
sg17
g1745
sg30
Nsg46
S'Start revision of toFile into which integration was \n\t\t    performed.'
p1747
stRp1748
ag3
(g4
g5
(dp1749
g16
S''
sg42
S'endToRev'
p1750
sg20
S''
sg44
S'Rev'
p1751
sg21
S''
sg17
g1750
sg30
Nsg46
S'End revision of toFile into which integration was \n\t\t    performed. Only varies from startToRev for reverse \n\t\t    integration records.'
p1752
stRp1753
ag3
(g4
g5
(dp1754
g16
S''
sg42
S'how'
p1755
sg20
S''
sg44
S'IntegHow'
p1756
sg21
S''
sg17
g1755
sg30
Nsg46
S'Integration method: variations on \n\t\t    merge/branch/copy/ignore/delete.'
p1757
stRp1758
ag3
(g4
g5
(dp1759
g16
S''
sg42
S'change'
p1760
sg20
S''
sg44
S'Change'
p1761
sg21
S''
sg17
g1760
sg30
Nsg46
S'Changelist associated with the integration.'
p1762
stRp1763
atRp1764
sg115
g1711
sg42
S'db.integed'
p1765
sg117
S'0'
sg118
S'17'
p1766
sg120
g121
sg46
S'Permanent integration records'
p1767
sg44
S'Integed'
p1768
sg978
S'db.resolve'
p1769
stRp1770
sS'job'
p1771
g3
(g4
g5
(dp1772
g7
S'job'
p1773
sg9
S'44'
p1774
sg11
g3
(g12
g13
(lp1775
g3
(g4
g5
(dp1776
g16
S''
sg17
g18
sg19
g18
sg20
S''
sg21
S''
sg22
g23
sg24
g25
stRp1777
ag3
(g4
g5
(dp1778
g16
S''
sg19
g28
sg20
S''
sg22
g29
sg21
S''
sg17
g28
sg30
Nsg24
g31
stRp1779
ag3
(g4
g5
(dp1780
g16
S''
sg19
g34
sg20
S''
sg22
g23
sg21
S''
sg17
g34
sg30
Nsg24
g35
stRp1781
ag3
(g4
g5
(dp1782
g16
S''
sg19
g38
sg20
S''
sg22
g29
sg21
S''
sg17
g38
sg30
Nsg24
g39
stRp1783
ag3
(g4
g5
(dp1784
g16
S''
sg42
S'job'
p1785
sg20
S''
sg44
S'String'
p1786
sg21
S''
sg17
g1785
sg30
Nsg46
S'The job name'
p1787
stRp1788
ag3
(g4
g5
(dp1789
g16
S''
sg42
S'xuser'
p1790
sg20
S''
sg44
S'User'
p1791
sg21
S''
sg17
g1790
sg30
Nsg46
S'User name: defunct'
p1792
stRp1793
ag3
(g4
g5
(dp1794
g16
S''
sg42
S'xdate'
p1795
sg20
S''
sg44
S'Date'
p1796
sg21
S''
sg17
g1795
sg30
Nsg46
S'The date: defunct'
p1797
stRp1798
ag3
(g4
g5
(dp1799
g16
S''
sg42
S'xstatus'
p1800
sg20
S''
sg44
S'JobStat'
p1801
sg21
S''
sg17
g1800
sg30
Nsg46
S'Job status: defunct'
p1802
stRp1803
ag3
(g4
g5
(dp1804
g16
S''
sg42
S'description'
p1805
sg20
S''
sg44
S'DescShort'
p1806
sg21
S''
sg17
g1805
sg30
Nsg46
S'Short description'
p1807
stRp1808
atRp1809
sg115
g1771
sg42
S'db.job'
p1810
sg117
S'0'
sg118
S'44'
p1811
sg120
g121
sg46
S'Job records'
p1812
sg44
S'Job'
p1813
sg978
S'db.bodtext'
p1814
stRp1815
sS'workingx'
p1816
g3
(g4
g5
(dp1817
g7
S'clientFile'
p1818
sg9
S'37'
p1819
sg11
g3
(g12
g13
(lp1820
g3
(g4
g5
(dp1821
g16
S''
sg17
g18
sg19
g18
sg20
S''
sg21
S''
sg22
g23
sg24
g25
stRp1822
ag3
(g4
g5
(dp1823
g16
S''
sg19
g28
sg20
S''
sg22
g29
sg21
S''
sg17
g28
sg30
Nsg24
g31
stRp1824
ag3
(g4
g5
(dp1825
g16
S''
sg19
g34
sg20
S''
sg22
g23
sg21
S''
sg17
g34
sg30
Nsg24
g35
stRp1826
ag3
(g4
g5
(dp1827
g16
S''
sg19
g38
sg20
S''
sg22
g29
sg21
S''
sg17
g38
sg30
Nsg24
g39
stRp1828
ag3
(g4
g5
(dp1829
g16
S''
sg42
g829
sg20
S''
sg44
g830
sg21
S''
sg17
g829
sg30
Nsg46
g831
stRp1830
ag3
(g4
g5
(dp1831
g16
S''
sg42
g834
sg20
S''
sg44
g835
sg21
S''
sg17
g834
sg30
Nsg46
g836
stRp1832
ag3
(g4
g5
(dp1833
g16
S''
sg42
g839
sg20
S''
sg44
g840
sg21
S''
sg17
g839
sg30
Nsg46
g841
stRp1834
ag3
(g4
g5
(dp1835
g16
S''
sg42
g844
sg20
S''
sg44
g845
sg21
S''
sg17
g844
sg30
Nsg46
g846
stRp1836
ag3
(g4
g5
(dp1837
g16
S''
sg42
g849
sg20
S''
sg44
g850
sg21
S''
sg17
g849
sg30
Nsg46
g851
stRp1838
ag3
(g4
g5
(dp1839
g16
S''
sg42
g854
sg20
S''
sg44
g855
sg21
S''
sg17
g854
sg30
Nsg46
g856
stRp1840
ag3
(g4
g5
(dp1841
g16
S''
sg42
g859
sg20
S''
sg44
g860
sg21
S''
sg17
g859
sg30
Nsg46
g861
stRp1842
ag3
(g4
g5
(dp1843
g16
S''
sg42
g864
sg20
S''
sg44
g865
sg21
S''
sg17
g864
sg30
Nsg46
g866
stRp1844
ag3
(g4
g5
(dp1845
g16
S''
sg42
g869
sg20
S''
sg44
g870
sg21
S''
sg17
g869
sg30
Nsg46
g871
stRp1846
ag3
(g4
g5
(dp1847
g16
S''
sg42
g874
sg20
S''
sg44
g875
sg21
S''
sg17
g874
sg30
Nsg46
g876
stRp1848
ag3
(g4
g5
(dp1849
g16
S''
sg42
g879
sg20
S''
sg44
g880
sg21
S''
sg17
g879
sg30
Nsg46
g881
stRp1850
ag3
(g4
g5
(dp1851
g16
S''
sg42
g884
sg20
S''
sg44
g885
sg21
S''
sg17
g884
sg30
Nsg46
g886
stRp1852
ag3
(g4
g5
(dp1853
g16
S''
sg42
g889
sg20
S''
sg44
g890
sg21
S''
sg17
g889
sg30
Nsg46
g891
stRp1854
ag3
(g4
g5
(dp1855
g16
S''
sg42
g894
sg20
S''
sg44
g895
sg21
S''
sg17
g894
sg30
Nsg46
g896
stRp1856
ag3
(g4
g5
(dp1857
g16
S''
sg42
g899
sg20
S''
sg44
g900
sg21
S''
sg17
g899
sg30
Nsg46
g901
stRp1858
ag3
(g4
g5
(dp1859
g16
S''
sg42
g904
sg20
S''
sg44
g905
sg21
S''
sg17
g904
sg30
Nsg46
g906
stRp1860
ag3
(g4
g5
(dp1861
g16
S''
sg42
g909
sg20
S''
sg44
g910
sg21
S''
sg17
g909
sg30
Nsg46
g911
stRp1862
ag3
(g4
g5
(dp1863
g16
S''
sg42
g914
sg20
S''
sg44
g915
sg21
S''
sg17
g914
sg30
Nsg46
g916
stRp1864
ag3
(g4
g5
(dp1865
g16
S''
sg42
g919
sg20
S''
sg44
g920
sg21
S''
sg17
g919
sg30
Nsg46
g921
stRp1866
atRp1867
sg115
g1816
sg42
S'db.workingx'
p1868
sg117
S'10'
p1869
sg118
S'38'
p1870
sg120
g121
sg44
S'Working'
p1871
sg46
S'Records for shelved open files'
p1872
stRp1873
sS'user'
p1874
g3
(g4
g5
(dp1875
g7
S'user'
p1876
sg9
S'8'
sg11
g3
(g12
g13
(lp1877
g3
(g4
g5
(dp1878
g16
S''
sg17
g18
sg19
g18
sg20
S''
sg21
S''
sg22
g23
sg24
g25
stRp1879
ag3
(g4
g5
(dp1880
g16
S''
sg19
g28
sg20
S''
sg22
g29
sg21
S''
sg17
g28
sg30
Nsg24
g31
stRp1881
ag3
(g4
g5
(dp1882
g16
S''
sg19
g34
sg20
S''
sg22
g23
sg21
S''
sg17
g34
sg30
Nsg24
g35
stRp1883
ag3
(g4
g5
(dp1884
g16
S''
sg19
g38
sg20
S''
sg22
g29
sg21
S''
sg17
g38
sg30
Nsg24
g39
stRp1885
ag3
(g4
g5
(dp1886
g16
S''
sg42
S'user'
p1887
sg20
S''
sg44
S'User'
p1888
sg21
S''
sg17
g1887
sg30
Nsg46
S'The username'
p1889
stRp1890
ag3
(g4
g5
(dp1891
g16
S''
sg42
S'email'
p1892
sg20
S''
sg44
S'Text'
p1893
sg21
S''
sg17
g1892
sg30
Nsg46
S"The user's email address"
p1894
stRp1895
ag3
(g4
g5
(dp1896
g16
S''
sg42
S'jobView'
p1897
sg20
S''
sg44
S'Text'
p1898
sg21
S''
sg17
g1897
sg30
Nsg46
S"The user's job view"
p1899
stRp1900
ag3
(g4
g5
(dp1901
g16
S''
sg42
S'updateDate'
p1902
sg20
S''
sg44
S'Date'
p1903
sg21
S''
sg17
g1902
sg30
Nsg46
S'The date/time the user record was last updated'
p1904
stRp1905
ag3
(g4
g5
(dp1906
g16
S''
sg42
S'accessDate'
p1907
sg20
S''
sg44
S'Date'
p1908
sg21
S''
sg17
g1907
sg30
Nsg46
S'The date/time the user record was last used'
p1909
stRp1910
ag3
(g4
g5
(dp1911
g16
S''
sg42
S'fullName'
p1912
sg20
S''
sg44
S'Text'
p1913
sg21
S''
sg17
g1912
sg30
Nsg46
S"The user's full name"
p1914
stRp1915
ag3
(g4
g5
(dp1916
g16
S''
sg42
S'password'
p1917
sg20
S''
sg44
S'Password'
p1918
sg21
S''
sg17
g1917
sg30
Nsg46
S'The MD5 hash of the users (encrypted) password'
p1919
stRp1920
ag3
(g4
g5
(dp1921
g16
S''
sg42
S'strength'
p1922
sg20
S''
sg44
S'Strength'
p1923
sg21
S''
sg17
g1922
sg30
Nsg46
S"Measure of the strength of the user's password"
p1924
stRp1925
ag3
(g4
g5
(dp1926
g16
S''
sg42
S'ticket'
p1927
sg20
S''
sg44
S'Password'
p1928
sg21
S''
sg17
g1927
sg30
Nsg46
S"'p4 login' ticket for this user"
p1929
stRp1930
ag3
(g4
g5
(dp1931
g16
S''
sg42
S'endDate'
p1932
sg20
S''
sg44
S'Date'
p1933
sg21
S''
sg17
g1932
sg30
Nsg46
S"Date/time the user's ticket expires"
p1934
stRp1935
ag3
(g4
g5
(dp1936
g16
S''
sg42
S'type'
p1937
sg20
S''
sg44
S'UserLevel'
p1938
sg21
S''
sg17
g1937
sg30
Nsg46
S'Type of user'
p1939
stRp1940
ag3
(g4
g5
(dp1941
g16
S''
sg42
S'passDate'
p1942
sg20
S''
sg44
S'Date'
p1943
sg21
S''
sg17
g1942
sg30
Nsg46
S'Date password was last changed'
p1944
stRp1945
ag3
(g4
g5
(dp1946
g16
S''
sg42
S'passExpire'
p1947
sg20
S''
sg44
S'Date'
p1948
sg21
S''
sg17
g1947
sg30
Nsg46
S'Date of password expiration'
p1949
stRp1950
ag3
(g4
g5
(dp1951
g16
S''
sg42
S'attempts'
p1952
sg20
S''
sg44
S'Date'
p1953
sg21
S''
sg17
g1952
sg30
Nsg46
S'Failed login attempts'
p1954
stRp1955
atRp1956
sg115
g1874
sg42
S'db.user'
p1957
sg117
S'6'
sg118
S'8'
sg120
g121
sg44
S'User'
p1958
sg46
S'Perforce users'
p1959
stRp1960
sS'revux'
p1961
g3
(g4
g5
(dp1962
g7
S'depotFile'
p1963
sg9
S'31'
p1964
sg11
g3
(g12
g13
(lp1965
g3
(g4
g5
(dp1966
g16
S''
sg17
g18
sg19
g18
sg20
S''
sg21
S''
sg22
g23
sg24
g25
stRp1967
ag3
(g4
g5
(dp1968
g16
S''
sg19
g28
sg20
S''
sg22
g29
sg21
S''
sg17
g28
sg30
Nsg24
g31
stRp1969
ag3
(g4
g5
(dp1970
g16
S''
sg19
g34
sg20
S''
sg22
g23
sg21
S''
sg17
g34
sg30
Nsg24
g35
stRp1971
ag3
(g4
g5
(dp1972
g16
S''
sg19
g38
sg20
S''
sg22
g29
sg21
S''
sg17
g38
sg30
Nsg24
g39
stRp1973
ag3
(g4
g5
(dp1974
g16
S''
sg42
g139
sg20
S''
sg44
g140
sg21
S''
sg17
g139
sg30
Nsg46
g141
stRp1975
ag3
(g4
g5
(dp1976
g16
S''
sg42
g144
sg20
S''
sg44
g145
sg21
S''
sg17
g144
sg30
Nsg46
g146
stRp1977
ag3
(g4
g5
(dp1978
g16
S''
sg42
g149
sg20
S''
sg44
g150
sg21
S''
sg17
g149
sg30
Nsg46
g151
stRp1979
ag3
(g4
g5
(dp1980
g16
S''
sg42
g154
sg20
S''
sg44
g155
sg21
S''
sg17
g154
sg30
Nsg46
g156
stRp1981
ag3
(g4
g5
(dp1982
g16
S''
sg42
g159
sg20
S''
sg44
g160
sg21
S''
sg17
g159
sg30
Nsg46
g161
stRp1983
ag3
(g4
g5
(dp1984
g16
S''
sg42
g164
sg20
S''
sg44
g165
sg21
S''
sg17
g164
sg30
Nsg46
g166
stRp1985
ag3
(g4
g5
(dp1986
g16
S''
sg42
g169
sg20
S''
sg44
g170
sg21
S''
sg17
g169
sg30
Nsg46
g171
stRp1987
ag3
(g4
g5
(dp1988
g16
S''
sg42
g174
sg20
S''
sg44
g175
sg21
S''
sg17
g174
sg30
Nsg46
g176
stRp1989
ag3
(g4
g5
(dp1990
g16
S''
sg42
g179
sg20
S''
sg44
g180
sg21
S''
sg17
g179
sg30
Nsg46
g181
stRp1991
ag3
(g4
g5
(dp1992
g16
S''
sg42
g184
sg20
S''
sg44
g185
sg21
S''
sg17
g184
sg30
Nsg46
g186
stRp1993
ag3
(g4
g5
(dp1994
g16
S''
sg42
g189
sg20
S''
sg44
g190
sg21
S''
sg17
g189
sg30
Nsg46
g191
stRp1995
ag3
(g4
g5
(dp1996
g16
S''
sg42
g194
sg20
S''
sg44
g195
sg21
S''
sg17
g194
sg30
Nsg46
g196
stRp1997
ag3
(g4
g5
(dp1998
g16
S''
sg42
g199
sg20
S''
sg44
g200
sg21
S''
sg17
g199
sg30
Nsg46
g201
stRp1999
ag3
(g4
g5
(dp2000
g16
S''
sg42
g204
sg20
S''
sg44
g205
sg21
S''
sg17
g204
sg30
Nsg46
g206
stRp2001
atRp2002
sg115
g1961
sg42
S'db.revux'
p2003
sg117
S'9'
sg118
S'36'
p2004
sg120
g121
sg44
S'Rev'
p2005
sg46
S'Revision records for unload depot files'
p2006
stRp2007
sS'revsh'
p2008
g3
(g4
g5
(dp2009
g7
S'depotFile, depotRev, type, action, change'
p2010
sg9
S'29'
p2011
sg11
g3
(g12
g13
(lp2012
g3
(g4
g5
(dp2013
g16
S''
sg17
g18
sg19
g18
sg20
S''
sg21
S''
sg22
g23
sg24
g25
stRp2014
ag3
(g4
g5
(dp2015
g16
S''
sg19
g28
sg20
S''
sg22
g29
sg21
S''
sg17
g28
sg30
Nsg24
g31
stRp2016
ag3
(g4
g5
(dp2017
g16
S''
sg19
g34
sg20
S''
sg22
g23
sg21
S''
sg17
g34
sg30
Nsg24
g35
stRp2018
ag3
(g4
g5
(dp2019
g16
S''
sg19
g38
sg20
S''
sg22
g29
sg21
S''
sg17
g38
sg30
Nsg24
g39
stRp2020
ag3
(g4
g5
(dp2021
g16
S''
sg42
g139
sg20
S''
sg44
g140
sg21
S''
sg17
g139
sg30
Nsg46
g141
stRp2022
ag3
(g4
g5
(dp2023
g16
S''
sg42
g144
sg20
S''
sg44
g145
sg21
S''
sg17
g144
sg30
Nsg46
g146
stRp2024
ag3
(g4
g5
(dp2025
g16
S''
sg42
g149
sg20
S''
sg44
g150
sg21
S''
sg17
g149
sg30
Nsg46
g151
stRp2026
ag3
(g4
g5
(dp2027
g16
S''
sg42
g154
sg20
S''
sg44
g155
sg21
S''
sg17
g154
sg30
Nsg46
g156
stRp2028
ag3
(g4
g5
(dp2029
g16
S''
sg42
g159
sg20
S''
sg44
g160
sg21
S''
sg17
g159
sg30
Nsg46
g161
stRp2030
ag3
(g4
g5
(dp2031
g16
S''
sg42
g164
sg20
S''
sg44
g165
sg21
S''
sg17
g164
sg30
Nsg46
g166
stRp2032
ag3
(g4
g5
(dp2033
g16
S''
sg42
g169
sg20
S''
sg44
g170
sg21
S''
sg17
g169
sg30
Nsg46
g171
stRp2034
ag3
(g4
g5
(dp2035
g16
S''
sg42
g174
sg20
S''
sg44
g175
sg21
S''
sg17
g174
sg30
Nsg46
g176
stRp2036
ag3
(g4
g5
(dp2037
g16
S''
sg42
g179
sg20
S''
sg44
g180
sg21
S''
sg17
g179
sg30
Nsg46
g181
stRp2038
ag3
(g4
g5
(dp2039
g16
S''
sg42
g184
sg20
S''
sg44
g185
sg21
S''
sg17
g184
sg30
Nsg46
g186
stRp2040
ag3
(g4
g5
(dp2041
g16
S''
sg42
g189
sg20
S''
sg44
g190
sg21
S''
sg17
g189
sg30
Nsg46
g191
stRp2042
ag3
(g4
g5
(dp2043
g16
S''
sg42
g194
sg20
S''
sg44
g195
sg21
S''
sg17
g194
sg30
Nsg46
g196
stRp2044
ag3
(g4
g5
(dp2045
g16
S''
sg42
g199
sg20
S''
sg44
g200
sg21
S''
sg17
g199
sg30
Nsg46
g201
stRp2046
ag3
(g4
g5
(dp2047
g16
S''
sg42
g204
sg20
S''
sg44
g205
sg21
S''
sg17
g204
sg30
Nsg46
g206
stRp2048
atRp2049
sg115
g2008
sg42
S'db.revsh'
p2050
sg117
S'9'
sg118
S'34'
p2051
sg120
g121
sg44
S'Rev'
p2052
sg46
S'Revision records for shelved files'
p2053
stRp2054
sS'excl'
p2055
g3
(g4
g5
(dp2056
g7
S'depotFile'
p2057
sg9
S'38'
p2058
sg11
g3
(g12
g13
(lp2059
g3
(g4
g5
(dp2060
g16
S''
sg17
g18
sg19
g18
sg20
S''
sg21
S''
sg22
g23
sg24
g25
stRp2061
ag3
(g4
g5
(dp2062
g16
S''
sg19
g28
sg20
S''
sg22
g29
sg21
S''
sg17
g28
sg30
Nsg24
g31
stRp2063
ag3
(g4
g5
(dp2064
g16
S''
sg19
g34
sg20
S''
sg22
g23
sg21
S''
sg17
g34
sg30
Nsg24
g35
stRp2065
ag3
(g4
g5
(dp2066
g16
S''
sg19
g38
sg20
S''
sg22
g29
sg21
S''
sg17
g38
sg30
Nsg24
g39
stRp2067
ag3
(g4
g5
(dp2068
g16
S''
sg42
S'depotFile'
p2069
sg20
S''
sg44
S'File'
p2070
sg21
S''
sg17
g2069
sg30
Nsg46
S'The file locked'
p2071
stRp2072
ag3
(g4
g5
(dp2073
g16
S''
sg42
S'client'
p2074
sg20
S''
sg44
S'Domain'
p2075
sg21
S''
sg17
g2074
sg30
Nsg46
S'The client for which the file is locked'
p2076
stRp2077
ag3
(g4
g5
(dp2078
g16
S''
sg42
S'user'
p2079
sg20
S''
sg44
S'User'
p2080
sg21
S''
sg17
g2079
sg30
Nsg46
S'The user for which the file is locked'
p2081
stRp2082
atRp2083
sg115
g2055
sg42
S'db.excl'
p2084
sg117
S'1'
sg118
S'25'
p2085
sg120
g121
sg44
S'ExclusiveLock'
p2086
sg46
S'Exclusively locked files -  enables coordinated file locking in a Distributed Perforce environment (commit and edge servers)'
p2087
stRp2088
sS'resolvex'
p2089
g3
(g4
g5
(dp2090
g7
S'toFile, fromFile, startFromRev'
p2091
sg9
S'23'
p2092
sg11
g3
(g12
g13
(lp2093
g3
(g4
g5
(dp2094
g16
S''
sg17
g18
sg19
g18
sg20
S''
sg21
S''
sg22
g23
sg24
g25
stRp2095
ag3
(g4
g5
(dp2096
g16
S''
sg19
g28
sg20
S''
sg22
g29
sg21
S''
sg17
g28
sg30
Nsg24
g31
stRp2097
ag3
(g4
g5
(dp2098
g16
S''
sg19
g34
sg20
S''
sg22
g23
sg21
S''
sg17
g34
sg30
Nsg24
g35
stRp2099
ag3
(g4
g5
(dp2100
g16
S''
sg19
g38
sg20
S''
sg22
g29
sg21
S''
sg17
g38
sg30
Nsg24
g39
stRp2101
ag3
(g4
g5
(dp2102
g16
S''
sg42
S'toFile'
p2103
sg20
S''
sg44
S'File'
p2104
sg21
S''
sg17
g2103
sg30
Nsg46
S'File to which integration is being performed (target).'
p2105
stRp2106
ag3
(g4
g5
(dp2107
g16
S''
sg42
S'fromFile'
p2108
sg20
S''
sg44
S'File'
p2109
sg21
S''
sg17
g2108
sg30
Nsg46
S'File from which integration is being performed (source).'
p2110
stRp2111
ag3
(g4
g5
(dp2112
g16
S''
sg42
S'startFromRev'
p2113
sg20
S''
sg44
S'Rev'
p2114
sg21
S''
sg17
g2113
sg30
Nsg46
S'Starting revision of fromFile'
p2115
stRp2116
ag3
(g4
g5
(dp2117
g16
S''
sg42
S'endFromRev'
p2118
sg20
S''
sg44
S'Rev'
p2119
sg21
S''
sg17
g2118
sg30
Nsg46
S'Ending revision of fromFile'
p2120
stRp2121
ag3
(g4
g5
(dp2122
g16
S''
sg42
S'startToRev'
p2123
sg20
S''
sg44
S'Rev'
p2124
sg21
S''
sg17
g2123
sg30
Nsg46
S'Start revision of toFile into which integration was \n\t\t    performed.'
p2125
stRp2126
ag3
(g4
g5
(dp2127
g16
S''
sg42
S'endToRev'
p2128
sg20
S''
sg44
S'Rev'
p2129
sg21
S''
sg17
g2128
sg30
Nsg46
S'End revision of toFile into which integration was \n\t\t    performed. Only varies from startToRev for reverse \n\t\t    integration records.'
p2130
stRp2131
ag3
(g4
g5
(dp2132
g16
S''
sg42
S'how'
p2133
sg20
S''
sg44
S'IntegHow'
p2134
sg21
S''
sg17
g2133
sg30
Nsg46
S'Integration method: variations on \n\t\t    merge/branch/copy/ignore/delete.'
p2135
stRp2136
ag3
(g4
g5
(dp2137
g16
S''
sg42
S'state'
p2138
sg20
S''
sg44
S'ResolveState'
p2139
sg21
S''
sg17
g2138
sg30
Nsg46
S'How the user performed the resolve.'
p2140
stRp2141
ag3
(g4
g5
(dp2142
g16
S''
sg42
S'baseFile'
p2143
sg20
S''
sg44
S'File'
p2144
sg21
S''
sg17
g2143
sg30
Nsg46
S'File used as the base for merging.'
p2145
stRp2146
ag3
(g4
g5
(dp2147
g16
S''
sg42
S'baseRev'
p2148
sg20
S''
sg44
S'Rev'
p2149
sg21
S''
sg17
g2148
sg30
Nsg46
S'Revision of baseFile used as the merge base.'
p2150
stRp2151
atRp2152
sg115
g2089
sg42
S'db.resolvex'
p2153
sg117
S'1'
sg118
S'20'
p2154
sg120
g121
sg46
S'Pending integration records for shelved files'
p2155
sg44
S'Resolve'
p2156
sg978
S'db.integed'
p2157
stRp2158
sS'logger'
p2159
g3
(g4
g5
(dp2160
g7
S'seq'
p2161
sg9
S'4'
sg11
g3
(g12
g13
(lp2162
g3
(g4
g5
(dp2163
g16
S''
sg17
g18
sg19
g18
sg20
S''
sg21
S''
sg22
g23
sg24
g25
stRp2164
ag3
(g4
g5
(dp2165
g16
S''
sg19
g28
sg20
S''
sg22
g29
sg21
S''
sg17
g28
sg30
Nsg24
g31
stRp2166
ag3
(g4
g5
(dp2167
g16
S''
sg19
g34
sg20
S''
sg22
g23
sg21
S''
sg17
g34
sg30
Nsg24
g35
stRp2168
ag3
(g4
g5
(dp2169
g16
S''
sg19
g38
sg20
S''
sg22
g29
sg21
S''
sg17
g38
sg30
Nsg24
g39
stRp2170
ag3
(g4
g5
(dp2171
g16
S''
sg42
S'seq'
p2172
sg20
S''
sg44
S'Int'
p2173
sg21
S''
sg17
g2172
sg30
Nsg46
S'Sequence number of event'
p2174
stRp2175
ag3
(g4
g5
(dp2176
g16
S''
sg42
S'key'
p2177
sg20
S''
sg44
S'String'
p2178
sg21
S''
sg17
g2177
sg30
Nsg46
S"Either the word 'change' or the word 'job'"
p2179
stRp2180
ag3
(g4
g5
(dp2181
g16
S''
sg42
S'attr'
p2182
sg20
S''
sg44
S'String'
p2183
sg21
S''
sg17
g2182
sg30
Nsg46
S'The number of the change, or name of the job that was \n\t\t    altered.'
p2184
stRp2185
atRp2186
sg115
g2159
sg42
S'db.logger'
p2187
sg117
S'0'
sg118
S'4'
sg120
g121
sg44
S'Logger'
p2188
sg46
S"Support for 'p4 logger' command. Logs any changes to \n\t\tchangelists and jobs"
p2189
stRp2190
sS'change'
p2191
g3
(g4
g5
(dp2192
g7
S'change'
p2193
sg9
S'41'
p2194
sg11
g3
(g12
g13
(lp2195
g3
(g4
g5
(dp2196
g16
S''
sg17
g18
sg19
g18
sg20
S''
sg21
S''
sg22
g23
sg24
g25
stRp2197
ag3
(g4
g5
(dp2198
g16
S''
sg19
g28
sg20
S''
sg22
g29
sg21
S''
sg17
g28
sg30
Nsg24
g31
stRp2199
ag3
(g4
g5
(dp2200
g16
S''
sg19
g34
sg20
S''
sg22
g23
sg21
S''
sg17
g34
sg30
Nsg24
g35
stRp2201
ag3
(g4
g5
(dp2202
g16
S''
sg19
g38
sg20
S''
sg22
g29
sg21
S''
sg17
g38
sg30
Nsg24
g39
stRp2203
ag3
(g4
g5
(dp2204
g16
S''
sg42
g1665
sg20
S''
sg44
g1666
sg21
S''
sg17
g1665
sg30
Nsg46
g1667
stRp2205
ag3
(g4
g5
(dp2206
g16
S''
sg42
g1670
sg20
S''
sg44
g1671
sg21
S''
sg17
g1670
sg30
Nsg46
g1672
stRp2207
ag3
(g4
g5
(dp2208
g16
S''
sg42
g1675
sg20
S''
sg44
g1676
sg21
S''
sg17
g1675
sg30
Nsg46
g1677
stRp2209
ag3
(g4
g5
(dp2210
g16
S''
sg42
g1680
sg20
S''
sg44
g1681
sg21
S''
sg17
g1680
sg30
Nsg46
g1682
stRp2211
ag3
(g4
g5
(dp2212
g16
S''
sg42
g1685
sg20
S''
sg44
g1686
sg21
S''
sg17
g1685
sg30
Nsg46
g1687
stRp2213
ag3
(g4
g5
(dp2214
g16
S''
sg42
g1690
sg20
S''
sg44
g1691
sg21
S''
sg17
g1690
sg30
Nsg46
g1692
stRp2215
ag3
(g4
g5
(dp2216
g16
S''
sg42
g1695
sg20
S''
sg44
g1696
sg21
S''
sg17
g1695
sg30
Nsg46
g1697
stRp2217
ag3
(g4
g5
(dp2218
g16
S''
sg42
g1700
sg20
S''
sg44
g1701
sg21
S''
sg17
g1700
sg30
Nsg46
g1702
stRp2219
atRp2220
sg115
g2191
sg42
S'db.change'
p2221
sg117
S'2'
sg118
S'41'
p2222
sg120
g121
sg44
S'Change'
p2223
sg46
S'Changelists'
p2224
stRp2225
sS'desc'
p2226
g3
(g4
g5
(dp2227
g7
S'descKey'
p2228
sg9
S'43'
p2229
sg11
g3
(g12
g13
(lp2230
g3
(g4
g5
(dp2231
g16
S''
sg17
g18
sg19
g18
sg20
S''
sg21
S''
sg22
g23
sg24
g25
stRp2232
ag3
(g4
g5
(dp2233
g16
S''
sg19
g28
sg20
S''
sg22
g29
sg21
S''
sg17
g28
sg30
Nsg24
g31
stRp2234
ag3
(g4
g5
(dp2235
g16
S''
sg19
g34
sg20
S''
sg22
g23
sg21
S''
sg17
g34
sg30
Nsg24
g35
stRp2236
ag3
(g4
g5
(dp2237
g16
S''
sg19
g38
sg20
S''
sg22
g29
sg21
S''
sg17
g38
sg30
Nsg24
g39
stRp2238
ag3
(g4
g5
(dp2239
g16
S''
sg42
S'descKey'
p2240
sg20
S''
sg44
S'Change'
p2241
sg21
S''
sg17
g2240
sg30
Nsg46
S'Original number of the change to which this description\n\t\t    applies. This may differ from the final change number if\n\t\t    the change is renumbered on submission.'
p2242
stRp2243
ag3
(g4
g5
(dp2244
g16
S''
sg42
S'description'
p2245
sg20
S''
sg44
S'Text'
p2246
sg21
S''
sg17
g2245
sg30
Nsg46
S'The change description itself'
p2247
stRp2248
atRp2249
sg115
g2226
sg42
S'db.desc'
p2250
sg117
S'0'
sg118
S'43'
p2251
sg120
g121
sg44
S'Desc'
p2252
sg46
S'Change descriptions'
p2253
stRp2254
sS'integtx'
p2255
g3
(g4
g5
(dp2256
g7
S'toFile, fromFile, startFromRev, endFromRev, \n\t\tstartToRev, endToRev'
p2257
sg9
S'21'
p2258
sg11
g3
(g12
g13
(lp2259
g3
(g4
g5
(dp2260
g16
S''
sg17
g18
sg19
g18
sg20
S''
sg21
S''
sg22
g23
sg24
g25
stRp2261
ag3
(g4
g5
(dp2262
g16
S''
sg19
g28
sg20
S''
sg22
g29
sg21
S''
sg17
g28
sg30
Nsg24
g31
stRp2263
ag3
(g4
g5
(dp2264
g16
S''
sg19
g34
sg20
S''
sg22
g23
sg21
S''
sg17
g34
sg30
Nsg24
g35
stRp2265
ag3
(g4
g5
(dp2266
g16
S''
sg19
g38
sg20
S''
sg22
g29
sg21
S''
sg17
g38
sg30
Nsg24
g39
stRp2267
ag3
(g4
g5
(dp2268
g16
S''
sg42
g1725
sg20
S''
sg44
g1726
sg21
S''
sg17
g1725
sg30
Nsg46
g1727
stRp2269
ag3
(g4
g5
(dp2270
g16
S''
sg42
g1730
sg20
S''
sg44
g1731
sg21
S''
sg17
g1730
sg30
Nsg46
g1732
stRp2271
ag3
(g4
g5
(dp2272
g16
S''
sg42
g1735
sg20
S''
sg44
g1736
sg21
S''
sg17
g1735
sg30
Nsg46
g1737
stRp2273
ag3
(g4
g5
(dp2274
g16
S''
sg42
g1740
sg20
S''
sg44
g1741
sg21
S''
sg17
g1740
sg30
Nsg46
g1742
stRp2275
ag3
(g4
g5
(dp2276
g16
S''
sg42
g1745
sg20
S''
sg44
g1746
sg21
S''
sg17
g1745
sg30
Nsg46
g1747
stRp2277
ag3
(g4
g5
(dp2278
g16
S''
sg42
g1750
sg20
S''
sg44
g1751
sg21
S''
sg17
g1750
sg30
Nsg46
g1752
stRp2279
ag3
(g4
g5
(dp2280
g16
S''
sg42
g1755
sg20
S''
sg44
g1756
sg21
S''
sg17
g1755
sg30
Nsg46
g1757
stRp2281
ag3
(g4
g5
(dp2282
g16
S''
sg42
g1760
sg20
S''
sg44
g1761
sg21
S''
sg17
g1760
sg30
Nsg46
g1762
stRp2283
atRp2284
sg115
g2255
sg42
S'db.integtx'
p2285
sg117
S'0'
sg118
S'18'
p2286
sg120
g121
sg46
S'Temporary integration records'
p2287
sg44
S'Integed'
p2288
sg978
S'db.resolve'
p2289
stRp2290
sS'protect'
p2291
g3
(g4
g5
(dp2292
g7
S'seq'
p2293
sg9
S'50'
p2294
sg11
g3
(g12
g13
(lp2295
g3
(g4
g5
(dp2296
g16
S''
sg17
g18
sg19
g18
sg20
S''
sg21
S''
sg22
g23
sg24
g25
stRp2297
ag3
(g4
g5
(dp2298
g16
S''
sg19
g28
sg20
S''
sg22
g29
sg21
S''
sg17
g28
sg30
Nsg24
g31
stRp2299
ag3
(g4
g5
(dp2300
g16
S''
sg19
g34
sg20
S''
sg22
g23
sg21
S''
sg17
g34
sg30
Nsg24
g35
stRp2301
ag3
(g4
g5
(dp2302
g16
S''
sg19
g38
sg20
S''
sg22
g29
sg21
S''
sg17
g38
sg30
Nsg24
g39
stRp2303
ag3
(g4
g5
(dp2304
g16
S''
sg42
S'seq'
p2305
sg20
S''
sg44
S'Int'
p2306
sg21
S''
sg17
g2305
sg30
Nsg46
S'Sequence number: for ordering the protections table'
p2307
stRp2308
ag3
(g4
g5
(dp2309
g16
S''
sg42
S'isGroup'
p2310
sg20
S''
sg44
S'Int'
p2311
sg21
S''
sg17
g2310
sg30
Nsg46
S'Flag: 0 for a per-user setting, 1 for a per-group setting.'
p2312
stRp2313
ag3
(g4
g5
(dp2314
g16
S''
sg42
S'user'
p2315
sg20
S''
sg44
S'UserWild'
p2316
sg21
S''
sg17
g2315
sg30
Nsg46
S'User(s), or Group(s) for whom this record applies.'
p2317
stRp2318
ag3
(g4
g5
(dp2319
g16
S''
sg42
S'host'
p2320
sg20
S''
sg44
S'DomainWild'
p2321
sg21
S''
sg17
g2320
sg30
Nsg46
S'Domain(s) (IP addresses) for which this record applies.'
p2322
stRp2323
ag3
(g4
g5
(dp2324
g16
S''
sg42
S'perm'
p2325
sg20
S''
sg44
S'Perm'
p2326
sg21
S''
sg17
g2325
sg30
Nsg46
S'Permissions to be granted/revoked'
p2327
stRp2328
ag3
(g4
g5
(dp2329
g16
S''
sg42
S'mapFlag'
p2330
sg20
S''
sg44
S'MapFlag'
p2331
sg21
S''
sg17
g2330
sg30
Nsg46
S'Flag: Map the files in or out?'
p2332
stRp2333
ag3
(g4
g5
(dp2334
g16
S''
sg42
S'depotFile'
p2335
sg20
S''
sg44
S'Mapping'
p2336
sg21
S''
sg17
g2335
sg30
Nsg46
S'Files to be mapped in or out.'
p2337
stRp2338
atRp2339
sg115
g2291
sg42
S'db.protect'
p2340
sg117
S'4'
sg118
S'50'
p2341
sg120
g121
sg44
S'Protect'
p2342
sg46
S'The protections table'
p2343
stRp2344
sS'resolve'
p2345
g3
(g4
g5
(dp2346
g7
S'toFile, fromFile, startFromRev'
p2347
sg9
S'22'
p2348
sg11
g3
(g12
g13
(lp2349
g3
(g4
g5
(dp2350
g16
S''
sg17
g18
sg19
g18
sg20
S''
sg21
S''
sg22
g23
sg24
g25
stRp2351
ag3
(g4
g5
(dp2352
g16
S''
sg19
g28
sg20
S''
sg22
g29
sg21
S''
sg17
g28
sg30
Nsg24
g31
stRp2353
ag3
(g4
g5
(dp2354
g16
S''
sg19
g34
sg20
S''
sg22
g23
sg21
S''
sg17
g34
sg30
Nsg24
g35
stRp2355
ag3
(g4
g5
(dp2356
g16
S''
sg19
g38
sg20
S''
sg22
g29
sg21
S''
sg17
g38
sg30
Nsg24
g39
stRp2357
ag3
(g4
g5
(dp2358
g16
S''
sg42
g2103
sg20
S''
sg44
g2104
sg21
S''
sg17
g2103
sg30
Nsg46
g2105
stRp2359
ag3
(g4
g5
(dp2360
g16
S''
sg42
g2108
sg20
S''
sg44
g2109
sg21
S''
sg17
g2108
sg30
Nsg46
g2110
stRp2361
ag3
(g4
g5
(dp2362
g16
S''
sg42
g2113
sg20
S''
sg44
g2114
sg21
S''
sg17
g2113
sg30
Nsg46
g2115
stRp2363
ag3
(g4
g5
(dp2364
g16
S''
sg42
g2118
sg20
S''
sg44
g2119
sg21
S''
sg17
g2118
sg30
Nsg46
g2120
stRp2365
ag3
(g4
g5
(dp2366
g16
S''
sg42
g2123
sg20
S''
sg44
g2124
sg21
S''
sg17
g2123
sg30
Nsg46
g2125
stRp2367
ag3
(g4
g5
(dp2368
g16
S''
sg42
g2128
sg20
S''
sg44
g2129
sg21
S''
sg17
g2128
sg30
Nsg46
g2130
stRp2369
ag3
(g4
g5
(dp2370
g16
S''
sg42
g2133
sg20
S''
sg44
g2134
sg21
S''
sg17
g2133
sg30
Nsg46
g2135
stRp2371
ag3
(g4
g5
(dp2372
g16
S''
sg42
g2138
sg20
S''
sg44
g2139
sg21
S''
sg17
g2138
sg30
Nsg46
g2140
stRp2373
ag3
(g4
g5
(dp2374
g16
S''
sg42
g2143
sg20
S''
sg44
g2144
sg21
S''
sg17
g2143
sg30
Nsg46
g2145
stRp2375
ag3
(g4
g5
(dp2376
g16
S''
sg42
g2148
sg20
S''
sg44
g2149
sg21
S''
sg17
g2148
sg30
Nsg46
g2150
stRp2377
atRp2378
sg115
g2345
sg42
S'db.resolve'
p2379
sg117
S'1'
sg118
S'19'
p2380
sg120
g121
sg46
S'Pending integration records'
p2381
sg44
S'Resolve'
p2382
sg978
S'db.integed'
p2383
stRp2384
sS'locks'
p2385
g3
(g4
g5
(dp2386
g7
S'depotFile, client'
p2387
sg9
S'35'
p2388
sg11
g3
(g12
g13
(lp2389
g3
(g4
g5
(dp2390
g16
S''
sg17
g18
sg19
g18
sg20
S''
sg21
S''
sg22
g23
sg24
g25
stRp2391
ag3
(g4
g5
(dp2392
g16
S''
sg19
g28
sg20
S''
sg22
g29
sg21
S''
sg17
g28
sg30
Nsg24
g31
stRp2393
ag3
(g4
g5
(dp2394
g16
S''
sg19
g34
sg20
S''
sg22
g23
sg21
S''
sg17
g34
sg30
Nsg24
g35
stRp2395
ag3
(g4
g5
(dp2396
g16
S''
sg19
g38
sg20
S''
sg22
g29
sg21
S''
sg17
g38
sg30
Nsg24
g39
stRp2397
ag3
(g4
g5
(dp2398
g16
S''
sg42
S'depotFile'
p2399
sg20
S''
sg44
S'File'
p2400
sg21
S''
sg17
g2399
sg30
Nsg46
S'File in depot'
p2401
stRp2402
ag3
(g4
g5
(dp2403
g16
S''
sg42
S'client'
p2404
sg20
S''
sg44
S'Domain'
p2405
sg21
S''
sg17
g2404
sg30
Nsg46
S'Domain (client) in which file is open'
p2406
stRp2407
ag3
(g4
g5
(dp2408
g16
S''
sg42
S'user'
p2409
sg20
S''
sg44
S'User'
p2410
sg21
S''
sg17
g2409
sg30
Nsg46
S'User who presently has the file open'
p2411
stRp2412
ag3
(g4
g5
(dp2413
g16
S''
sg42
S'action'
p2414
sg20
S''
sg44
S'Action'
p2415
sg21
S''
sg17
g2414
sg30
Nsg46
S'Action file is open for: add, edit, delete, branch,\n\t\t    integrate, or import'
p2416
stRp2417
ag3
(g4
g5
(dp2418
g16
S''
sg42
S'isLocked'
p2419
sg20
S''
sg44
S'Int'
p2420
sg21
S''
sg17
g2419
sg30
Nsg46
S'Flag: 0 for unlocked, 1 for locked'
p2421
stRp2422
ag3
(g4
g5
(dp2423
g16
S''
sg42
S'change'
p2424
sg20
S''
sg44
S'Int'
p2425
sg21
S''
sg17
g2424
sg30
Nsg46
S'Changelist in which the revision is open: 0 for the\n\t\t    default changelist'
p2426
stRp2427
atRp2428
sg115
g2385
sg42
S'db.locks'
p2429
sg117
S'2'
sg118
S'24'
p2430
sg120
g121
sg44
S'Locks'
p2431
sg46
S'Locked/Unlocked files'
p2432
stRp2433
sS'uxtext'
p2434
g3
(g4
g5
(dp2435
g7
S'word, attr, value'
p2436
sg9
S'49'
p2437
sg11
g3
(g12
g13
(lp2438
g3
(g4
g5
(dp2439
g16
S''
sg17
g18
sg19
g18
sg20
S''
sg21
S''
sg22
g23
sg24
g25
stRp2440
ag3
(g4
g5
(dp2441
g16
S''
sg19
g28
sg20
S''
sg22
g29
sg21
S''
sg17
g28
sg30
Nsg24
g31
stRp2442
ag3
(g4
g5
(dp2443
g16
S''
sg19
g34
sg20
S''
sg22
g23
sg21
S''
sg17
g34
sg30
Nsg24
g35
stRp2444
ag3
(g4
g5
(dp2445
g16
S''
sg19
g38
sg20
S''
sg22
g29
sg21
S''
sg17
g38
sg30
Nsg24
g39
stRp2446
ag3
(g4
g5
(dp2447
g16
S''
sg42
g515
sg20
S''
sg44
g516
sg21
S''
sg17
g515
sg30
Nsg46
g517
stRp2448
ag3
(g4
g5
(dp2449
g16
S''
sg42
g520
sg20
S''
sg44
g521
sg21
S''
sg17
g520
sg30
Nsg46
g522
stRp2450
ag3
(g4
g5
(dp2451
g16
S''
sg42
g525
sg20
S''
sg44
g526
sg21
S''
sg17
g525
sg30
Nsg46
g527
stRp2452
atRp2453
sg115
g2434
sg42
S'db.uxtext'
p2454
sg117
S'0'
sg118
S'49'
p2455
sg120
g121
sg44
S'IndexText'
p2456
sg46
S'Indexing data for Swarm'
p2457
stRp2458
sS'revhx'
p2459
g3
(g4
g5
(dp2460
g7
S'depotFile'
p2461
sg9
S'26'
p2462
sg11
g3
(g12
g13
(lp2463
g3
(g4
g5
(dp2464
g16
S''
sg17
g18
sg19
g18
sg20
S''
sg21
S''
sg22
g23
sg24
g25
stRp2465
ag3
(g4
g5
(dp2466
g16
S''
sg19
g28
sg20
S''
sg22
g29
sg21
S''
sg17
g28
sg30
Nsg24
g31
stRp2467
ag3
(g4
g5
(dp2468
g16
S''
sg19
g34
sg20
S''
sg22
g23
sg21
S''
sg17
g34
sg30
Nsg24
g35
stRp2469
ag3
(g4
g5
(dp2470
g16
S''
sg19
g38
sg20
S''
sg22
g29
sg21
S''
sg17
g38
sg30
Nsg24
g39
stRp2471
ag3
(g4
g5
(dp2472
g16
S''
sg42
g139
sg20
S''
sg44
g140
sg21
S''
sg17
g139
sg30
Nsg46
g141
stRp2473
ag3
(g4
g5
(dp2474
g16
S''
sg42
g144
sg20
S''
sg44
g145
sg21
S''
sg17
g144
sg30
Nsg46
g146
stRp2475
ag3
(g4
g5
(dp2476
g16
S''
sg42
g149
sg20
S''
sg44
g150
sg21
S''
sg17
g149
sg30
Nsg46
g151
stRp2477
ag3
(g4
g5
(dp2478
g16
S''
sg42
g154
sg20
S''
sg44
g155
sg21
S''
sg17
g154
sg30
Nsg46
g156
stRp2479
ag3
(g4
g5
(dp2480
g16
S''
sg42
g159
sg20
S''
sg44
g160
sg21
S''
sg17
g159
sg30
Nsg46
g161
stRp2481
ag3
(g4
g5
(dp2482
g16
S''
sg42
g164
sg20
S''
sg44
g165
sg21
S''
sg17
g164
sg30
Nsg46
g166
stRp2483
ag3
(g4
g5
(dp2484
g16
S''
sg42
g169
sg20
S''
sg44
g170
sg21
S''
sg17
g169
sg30
Nsg46
g171
stRp2485
ag3
(g4
g5
(dp2486
g16
S''
sg42
g174
sg20
S''
sg44
g175
sg21
S''
sg17
g174
sg30
Nsg46
g176
stRp2487
ag3
(g4
g5
(dp2488
g16
S''
sg42
g179
sg20
S''
sg44
g180
sg21
S''
sg17
g179
sg30
Nsg46
g181
stRp2489
ag3
(g4
g5
(dp2490
g16
S''
sg42
g184
sg20
S''
sg44
g185
sg21
S''
sg17
g184
sg30
Nsg46
g186
stRp2491
ag3
(g4
g5
(dp2492
g16
S''
sg42
g189
sg20
S''
sg44
g190
sg21
S''
sg17
g189
sg30
Nsg46
g191
stRp2493
ag3
(g4
g5
(dp2494
g16
S''
sg42
g194
sg20
S''
sg44
g195
sg21
S''
sg17
g194
sg30
Nsg46
g196
stRp2495
ag3
(g4
g5
(dp2496
g16
S''
sg42
g199
sg20
S''
sg44
g200
sg21
S''
sg17
g199
sg30
Nsg46
g201
stRp2497
ag3
(g4
g5
(dp2498
g16
S''
sg42
g204
sg20
S''
sg44
g205
sg21
S''
sg17
g204
sg30
Nsg46
g206
stRp2499
atRp2500
sg115
g2459
sg42
S'db.revhx'
p2501
sg117
S'9'
sg118
S'31'
p2502
sg120
g121
sg44
S'Rev'
p2503
sg46
S'Revision records for revisions NOT deleted at the head revision'
p2504
stRp2505
sS'server'
p2506
g3
(g4
g5
(dp2507
g7
S'id'
p2508
sg9
S'5'
sg11
g3
(g12
g13
(lp2509
g3
(g4
g5
(dp2510
g16
S''
sg17
g18
sg19
g18
sg20
S''
sg21
S''
sg22
g23
sg24
g25
stRp2511
ag3
(g4
g5
(dp2512
g16
S''
sg19
g28
sg20
S''
sg22
g29
sg21
S''
sg17
g28
sg30
Nsg24
g31
stRp2513
ag3
(g4
g5
(dp2514
g16
S''
sg19
g34
sg20
S''
sg22
g23
sg21
S''
sg17
g34
sg30
Nsg24
g35
stRp2515
ag3
(g4
g5
(dp2516
g16
S''
sg19
g38
sg20
S''
sg22
g29
sg21
S''
sg17
g38
sg30
Nsg24
g39
stRp2517
ag3
(g4
g5
(dp2518
g16
S''
sg42
S'id'
p2519
sg20
S''
sg44
S'text'
p2520
sg21
S''
sg17
g2519
sg30
Nsg46
S'The server identifier'
p2521
stRp2522
ag3
(g4
g5
(dp2523
g16
S''
sg42
S'type'
p2524
sg20
S''
sg44
S'ServerType'
p2525
sg21
S''
sg17
g2524
sg30
Nsg46
S'The server type: server/broker/proxy'
p2526
stRp2527
ag3
(g4
g5
(dp2528
g16
S''
sg42
S'name'
p2529
sg20
S''
sg44
S'text'
p2530
sg21
S''
sg17
g2529
sg30
Nsg46
S'The P4NAME used by this server'
p2531
stRp2532
ag3
(g4
g5
(dp2533
g16
S''
sg42
S'address'
p2534
sg20
S''
sg44
S'text'
p2535
sg21
S''
sg17
g2534
sg30
Nsg46
S'The P4PORT used by this server'
p2536
stRp2537
ag3
(g4
g5
(dp2538
g16
S''
sg42
S'services'
p2539
sg20
S''
sg44
S'ServerServiceType'
p2540
sg21
S''
sg17
g2539
sg30
Nsg46
S'Service provided by this server'
p2541
stRp2542
ag3
(g4
g5
(dp2543
g16
S''
sg42
S'desc'
p2544
sg20
S''
sg44
S'text'
p2545
sg21
S''
sg17
g2544
sg30
Nsg46
S'Server description'
p2546
stRp2547
atRp2548
sg115
g2506
sg42
S'db.server'
p2549
sg117
S'0'
sg118
S'5'
sg120
g121
sg44
S'Server'
p2550
sg46
S'Perforce server specifications'
p2551
stRp2552
sS'userrp'
p2553
g3
(g4
g5
(dp2554
g7
S'user'
p2555
sg9
S'7'
sg11
g3
(g12
g13
(lp2556
g3
(g4
g5
(dp2557
g16
S''
sg17
g18
sg19
g18
sg20
S''
sg21
S''
sg22
g23
sg24
g25
stRp2558
ag3
(g4
g5
(dp2559
g16
S''
sg19
g28
sg20
S''
sg22
g29
sg21
S''
sg17
g28
sg30
Nsg24
g31
stRp2560
ag3
(g4
g5
(dp2561
g16
S''
sg19
g34
sg20
S''
sg22
g23
sg21
S''
sg17
g34
sg30
Nsg24
g35
stRp2562
ag3
(g4
g5
(dp2563
g16
S''
sg19
g38
sg20
S''
sg22
g29
sg21
S''
sg17
g38
sg30
Nsg24
g39
stRp2564
ag3
(g4
g5
(dp2565
g16
S''
sg42
g1887
sg20
S''
sg44
g1888
sg21
S''
sg17
g1887
sg30
Nsg46
g1889
stRp2566
ag3
(g4
g5
(dp2567
g16
S''
sg42
g1892
sg20
S''
sg44
g1893
sg21
S''
sg17
g1892
sg30
Nsg46
g1894
stRp2568
ag3
(g4
g5
(dp2569
g16
S''
sg42
g1897
sg20
S''
sg44
g1898
sg21
S''
sg17
g1897
sg30
Nsg46
g1899
stRp2570
ag3
(g4
g5
(dp2571
g16
S''
sg42
g1902
sg20
S''
sg44
g1903
sg21
S''
sg17
g1902
sg30
Nsg46
g1904
stRp2572
ag3
(g4
g5
(dp2573
g16
S''
sg42
g1907
sg20
S''
sg44
g1908
sg21
S''
sg17
g1907
sg30
Nsg46
g1909
stRp2574
ag3
(g4
g5
(dp2575
g16
S''
sg42
g1912
sg20
S''
sg44
g1913
sg21
S''
sg17
g1912
sg30
Nsg46
g1914
stRp2576
ag3
(g4
g5
(dp2577
g16
S''
sg42
g1917
sg20
S''
sg44
g1918
sg21
S''
sg17
g1917
sg30
Nsg46
g1919
stRp2578
ag3
(g4
g5
(dp2579
g16
S''
sg42
g1922
sg20
S''
sg44
g1923
sg21
S''
sg17
g1922
sg30
Nsg46
g1924
stRp2580
ag3
(g4
g5
(dp2581
g16
S''
sg42
g1927
sg20
S''
sg44
g1928
sg21
S''
sg17
g1927
sg30
Nsg46
g1929
stRp2582
ag3
(g4
g5
(dp2583
g16
S''
sg42
g1932
sg20
S''
sg44
g1933
sg21
S''
sg17
g1932
sg30
Nsg46
g1934
stRp2584
ag3
(g4
g5
(dp2585
g16
S''
sg42
g1937
sg20
S''
sg44
g1938
sg21
S''
sg17
g1937
sg30
Nsg46
g1939
stRp2586
ag3
(g4
g5
(dp2587
g16
S''
sg42
g1942
sg20
S''
sg44
g1943
sg21
S''
sg17
g1942
sg30
Nsg46
g1944
stRp2588
ag3
(g4
g5
(dp2589
g16
S''
sg42
g1947
sg20
S''
sg44
g1948
sg21
S''
sg17
g1947
sg30
Nsg46
g1949
stRp2590
ag3
(g4
g5
(dp2591
g16
S''
sg42
g1952
sg20
S''
sg44
g1953
sg21
S''
sg17
g1952
sg30
Nsg46
g1954
stRp2592
atRp2593
sg115
g2553
sg42
S'db.user.rp'
p2594
sg117
S'6'
sg118
S'7'
sg120
g121
sg44
S'User'
p2595
sg46
S"Used by replica server's to store login information"
p2596
stRp2597
sS'revcx'
p2598
g3
(g4
g5
(dp2599
g7
S'change, depotFile'
p2600
sg9
S'32'
p2601
sg11
g3
(g12
g13
(lp2602
g3
(g4
g5
(dp2603
g16
S''
sg17
g18
sg19
g18
sg20
S''
sg21
S''
sg22
g23
sg24
g25
stRp2604
ag3
(g4
g5
(dp2605
g16
S''
sg19
g28
sg20
S''
sg22
g29
sg21
S''
sg17
g28
sg30
Nsg24
g31
stRp2606
ag3
(g4
g5
(dp2607
g16
S''
sg19
g34
sg20
S''
sg22
g23
sg21
S''
sg17
g34
sg30
Nsg24
g35
stRp2608
ag3
(g4
g5
(dp2609
g16
S''
sg19
g38
sg20
S''
sg22
g29
sg21
S''
sg17
g38
sg30
Nsg24
g39
stRp2610
ag3
(g4
g5
(dp2611
g16
S''
sg42
S'change'
p2612
sg20
S''
sg44
S'Change'
p2613
sg21
S''
sg17
g2612
sg30
Nsg46
S'The changelist that created the revision'
p2614
stRp2615
ag3
(g4
g5
(dp2616
g16
S''
sg42
S'depotFile'
p2617
sg20
S''
sg44
S'File'
p2618
sg21
S''
sg17
g2617
sg30
Nsg46
S'The file name'
p2619
stRp2620
ag3
(g4
g5
(dp2621
g16
S''
sg42
S'depotRev'
p2622
sg20
S''
sg44
S'Rev'
p2623
sg21
S''
sg17
g2622
sg30
Nsg46
S'The revision number'
p2624
stRp2625
ag3
(g4
g5
(dp2626
g16
S''
sg42
S'action'
p2627
sg20
S''
sg44
S'Action'
p2628
sg21
S''
sg17
g2627
sg30
Nsg46
S'The action that created the revision'
p2629
stRp2630
atRp2631
sg115
g2598
sg42
S'db.revcx'
p2632
sg117
S'0'
sg118
S'29'
p2633
sg120
g121
sg44
S'RevCx'
p2634
sg46
S'Secondary index of db.rev'
p2635
stRp2636
sS'property'
p2637
g3
(g4
g5
(dp2638
g7
S'name, seq, type, scope'
p2639
sg9
S'51'
p2640
sg11
g3
(g12
g13
(lp2641
g3
(g4
g5
(dp2642
g16
S''
sg17
g18
sg19
g18
sg20
S''
sg21
S''
sg22
g23
sg24
g25
stRp2643
ag3
(g4
g5
(dp2644
g16
S''
sg19
g28
sg20
S''
sg22
g29
sg21
S''
sg17
g28
sg30
Nsg24
g31
stRp2645
ag3
(g4
g5
(dp2646
g16
S''
sg19
g34
sg20
S''
sg22
g23
sg21
S''
sg17
g34
sg30
Nsg24
g35
stRp2647
ag3
(g4
g5
(dp2648
g16
S''
sg19
g38
sg20
S''
sg22
g29
sg21
S''
sg17
g38
sg30
Nsg24
g39
stRp2649
ag3
(g4
g5
(dp2650
g16
S''
sg42
S'name'
p2651
sg20
S''
sg44
S'String'
p2652
sg21
S''
sg17
g2651
sg30
Nsg46
S'Property name'
p2653
stRp2654
ag3
(g4
g5
(dp2655
g16
S''
sg42
S'sequence'
p2656
sg20
S''
sg44
S'String'
p2657
sg21
S''
sg17
g2656
sg30
Nsg46
S'Sequence number'
p2658
stRp2659
ag3
(g4
g5
(dp2660
g16
S''
sg42
S'type'
p2661
sg20
S''
sg44
S'Integer'
p2662
sg21
S''
sg17
g2661
sg30
Nsg46
S'Property type'
p2663
stRp2664
ag3
(g4
g5
(dp2665
g16
S''
sg42
S'scope'
p2666
sg20
S''
sg44
S'String'
p2667
sg21
S''
sg17
g2666
sg30
Nsg46
S'Property scope'
p2668
stRp2669
ag3
(g4
g5
(dp2670
g16
S''
sg42
S'value'
p2671
sg20
S''
sg44
S'String'
p2672
sg21
S''
sg17
g2671
sg30
Nsg46
S'Property value'
p2673
stRp2674
ag3
(g4
g5
(dp2675
g16
S''
sg42
S'date'
p2676
sg20
S''
sg44
S'String'
p2677
sg21
S''
sg17
g2676
sg30
Nsg46
S'Property date'
p2678
stRp2679
ag3
(g4
g5
(dp2680
g16
S''
sg42
S'user'
p2681
sg20
S''
sg44
S'String'
p2682
sg21
S''
sg17
g2681
sg30
Nsg46
S'Property user'
p2683
stRp2684
atRp2685
sg115
g2637
sg42
S'db.property'
p2686
sg117
S'0'
sg118
S'51'
p2687
sg120
g121
sg44
S'Property'
p2688
sg46
S'Properties'
p2689
stRp2690
sS'review'
p2691
g3
(g4
g5
(dp2692
g7
S'user, seq'
p2693
sg9
S'16'
p2694
sg11
g3
(g12
g13
(lp2695
g3
(g4
g5
(dp2696
g16
S''
sg17
g18
sg19
g18
sg20
S''
sg21
S''
sg22
g23
sg24
g25
stRp2697
ag3
(g4
g5
(dp2698
g16
S''
sg19
g28
sg20
S''
sg22
g29
sg21
S''
sg17
g28
sg30
Nsg24
g31
stRp2699
ag3
(g4
g5
(dp2700
g16
S''
sg19
g34
sg20
S''
sg22
g23
sg21
S''
sg17
g34
sg30
Nsg24
g35
stRp2701
ag3
(g4
g5
(dp2702
g16
S''
sg19
g38
sg20
S''
sg22
g29
sg21
S''
sg17
g38
sg30
Nsg24
g39
stRp2703
ag3
(g4
g5
(dp2704
g16
S''
sg42
S'user'
p2705
sg20
S''
sg44
S'User'
p2706
sg21
S''
sg17
g2705
sg30
Nsg46
S'A user name'
p2707
stRp2708
ag3
(g4
g5
(dp2709
g16
S''
sg42
S'seq'
p2710
sg20
S''
sg44
S'Int'
p2711
sg21
S''
sg17
g2710
sg30
Nsg46
S'Sequence number: used for ordering multi-line views'
p2712
stRp2713
ag3
(g4
g5
(dp2714
g16
S''
sg42
S'mapFlag'
p2715
sg20
S''
sg44
S'MapFlag'
p2716
sg21
S''
sg17
g2715
sg30
Nsg46
S'Type of mapping'
p2717
stRp2718
ag3
(g4
g5
(dp2719
g16
S''
sg42
S'depotFile'
p2720
sg20
S''
sg44
S'Mapping'
p2721
sg21
S''
sg17
g2720
sg30
Nsg46
S'The files to be reviewed'
p2722
stRp2723
ag3
(g4
g5
(dp2724
g16
S''
sg42
S'type'
p2725
sg20
S''
sg44
S'Reviewer'
p2726
sg21
S''
sg17
g2725
sg30
Nsg46
S'Type of reviewer'
p2727
stRp2728
atRp2729
sg115
g2691
sg42
S'db.review'
p2730
sg117
S'1'
sg118
S'16'
p2731
sg120
g121
sg44
S'Review'
p2732
sg46
S"Contains user's review mappings"
p2733
stRp2734
sS'view'
p2735
g3
(g4
g5
(dp2736
g7
S'name, seq'
p2737
sg9
S'15'
p2738
sg11
g3
(g12
g13
(lp2739
g3
(g4
g5
(dp2740
g16
S''
sg17
g18
sg19
g18
sg20
S''
sg21
S''
sg22
g23
sg24
g25
stRp2741
ag3
(g4
g5
(dp2742
g16
S''
sg19
g28
sg20
S''
sg22
g29
sg21
S''
sg17
g28
sg30
Nsg24
g31
stRp2743
ag3
(g4
g5
(dp2744
g16
S''
sg19
g34
sg20
S''
sg22
g23
sg21
S''
sg17
g34
sg30
Nsg24
g35
stRp2745
ag3
(g4
g5
(dp2746
g16
S''
sg19
g38
sg20
S''
sg22
g29
sg21
S''
sg17
g38
sg30
Nsg24
g39
stRp2747
ag3
(g4
g5
(dp2748
g16
S''
sg42
g471
sg20
S''
sg44
g472
sg21
S''
sg17
g471
sg30
Nsg46
g473
stRp2749
ag3
(g4
g5
(dp2750
g16
S''
sg42
g476
sg20
S''
sg44
g477
sg21
S''
sg17
g476
sg30
Nsg46
g478
stRp2751
ag3
(g4
g5
(dp2752
g16
S''
sg42
g481
sg20
S''
sg44
g482
sg21
S''
sg17
g481
sg30
Nsg46
g483
stRp2753
ag3
(g4
g5
(dp2754
g16
S''
sg42
g486
sg20
S''
sg44
g487
sg21
S''
sg17
g486
sg30
Nsg46
g488
stRp2755
ag3
(g4
g5
(dp2756
g16
S''
sg42
g491
sg20
S''
sg44
g492
sg21
S''
sg17
g491
sg30
Nsg46
g493
stRp2757
atRp2758
sg115
g2735
sg42
S'db.view'
p2759
sg117
S'1'
sg118
S'15'
p2760
sg120
g121
sg44
S'View'
p2761
sg46
S'Contains views for domains'
p2762
stRp2763
s.