(dp1
S'svrview'
p2
ccopy_reg
_reconstructor
p3
(clib.sqUtils
Storage
p4
c__builtin__
dict
p5
(dp6
S'keying'
p7
S'id, type, seq'
p8
sS'fields'
p9
g3
(clib.sqUtils
Lst
p10
c__builtin__
list
p11
(lp12
g3
(g4
g5
(dp13
S'comment'
p14
S''
sS'fieldname'
p15
S'id'
p16
sS'name'
p17
g16
sS'default'
p18
S''
sS'label'
p19
S''
sS'type'
p20
S'integer'
p21
sS'desc'
p22
S'Record number as read in'
p23
stRp24
ag3
(g4
g5
(dp25
g14
S''
sg17
S'db_action'
p26
sg18
S''
sg20
S'string'
p27
sg19
S''
sg15
g26
sS'requires'
p28
Nsg22
S'Operation on table'
p29
stRp30
ag3
(g4
g5
(dp31
g14
S''
sg17
S'table_revision'
p32
sg18
S''
sg20
g21
sg19
S''
sg15
g32
sg28
Nsg22
S'Revision of the p4 schema table'
p33
stRp34
ag3
(g4
g5
(dp35
g14
S''
sg17
S'table_name'
p36
sg18
S''
sg20
g27
sg19
S''
sg15
g36
sg28
Nsg22
S'Redundant... but this is the table name'
p37
stRp38
ag3
(g4
g5
(dp39
g14
S''
sS'name'
p40
S'id'
p41
sg18
S''
sS'type'
p42
S'Text'
p43
sg19
S''
sg15
g41
sg28
NsS'desc'
p44
S'Server name'
p45
stRp46
ag3
(g4
g5
(dp47
g14
S''
sg40
S'type'
p48
sg18
S''
sg42
S'SvrViewType'
p49
sg19
S''
sg15
g48
sg28
Nsg44
S'View type'
p50
stRp51
ag3
(g4
g5
(dp52
g14
S''
sg40
S'seq'
p53
sg18
S''
sg42
S'Int'
p54
sg19
S''
sg15
g53
sg28
Nsg44
S'Sequence (line) number'
p55
stRp56
ag3
(g4
g5
(dp57
g14
S''
sg40
S'mapFlag'
p58
sg18
S''
sg42
S'MapFlag'
p59
sg19
S''
sg15
g58
sg28
Nsg44
S'Type of mapping'
p60
stRp61
ag3
(g4
g5
(dp62
g14
S''
sg40
S'viewFile'
p63
sg18
S''
sg42
S'Mapping'
p64
sg19
S''
sg15
g63
sg28
Nsg44
S'View file'
p65
stRp66
atRp67
sS'tablename'
p68
g2
sS'version'
p69
S'0'
sS'schemaversion'
p70
S'2018.1'
p71
sg44
S'View data for servers specifications'
p72
sg42
S'SvrView'
p73
sS'lockseq'
p74
S'7'
sg40
S'db.svrview'
p75
stRp76
sS'fixrev'
p77
g3
(g4
g5
(dp78
g7
S'change, job'
p79
sg9
g3
(g10
g11
(lp80
g3
(g4
g5
(dp81
g14
S''
sg15
g16
sg17
g16
sg18
S''
sg19
S''
sg20
g21
sg22
g23
stRp82
ag3
(g4
g5
(dp83
g14
S''
sg17
g26
sg18
S''
sg20
g27
sg19
S''
sg15
g26
sg28
Nsg22
g29
stRp84
ag3
(g4
g5
(dp85
g14
S''
sg17
g32
sg18
S''
sg20
g21
sg19
S''
sg15
g32
sg28
Nsg22
g33
stRp86
ag3
(g4
g5
(dp87
g14
S''
sg17
g36
sg18
S''
sg20
g27
sg19
S''
sg15
g36
sg28
Nsg22
g37
stRp88
ag3
(g4
g5
(dp89
g14
S''
sg40
S'job'
p90
sg18
S''
sg42
S'String'
p91
sg19
S''
sg15
g90
sg28
Nsg44
S'Job name'
p92
stRp93
ag3
(g4
g5
(dp94
g14
S''
sg40
S'change'
p95
sg18
S''
sg42
S'Change'
p96
sg19
S''
sg15
g95
sg28
Nsg44
S'Changelist number'
p97
stRp98
ag3
(g4
g5
(dp99
g14
S''
sg40
S'date'
p100
sg18
S''
sg42
S'Date'
p101
sg19
S''
sg15
g100
sg28
Nsg44
S'Date fix was recorded (may differ from date change was\n\t\t    submitted).'
p102
stRp103
ag3
(g4
g5
(dp104
g14
S''
sg40
S'status'
p105
sg18
S''
sg42
S'FixStatus'
p106
sg19
S''
sg15
g105
sg28
Nsg44
S'Status of the job'
p107
stRp108
ag3
(g4
g5
(dp109
g14
S''
sg40
S'client'
p110
sg18
S''
sg42
S'Domain'
p111
sg19
S''
sg15
g110
sg28
Nsg44
S'The client where the fix originated'
p112
stRp113
ag3
(g4
g5
(dp114
g14
S''
sg40
S'user'
p115
sg18
S''
sg42
S'User'
p116
sg19
S''
sg15
g115
sg28
Nsg44
S'The user who fixed the job'
p117
stRp118
atRp119
sg68
g77
sg40
S'db.fixrev'
p120
sg69
S'1'
sg70
g71
sS'seeAlso'
p121
S'db.fix'
p122
sg42
S'Fix'
p123
sg74
S'70'
p124
sg44
S'Fix records - indexed by change'
p125
stRp126
sS'revtx'
p127
g3
(g4
g5
(dp128
g7
S'depotFile, depotRev'
p129
sg9
g3
(g10
g11
(lp130
g3
(g4
g5
(dp131
g14
S''
sg15
g16
sg17
g16
sg18
S''
sg19
S''
sg20
g21
sg22
g23
stRp132
ag3
(g4
g5
(dp133
g14
S''
sg17
g26
sg18
S''
sg20
g27
sg19
S''
sg15
g26
sg28
Nsg22
g29
stRp134
ag3
(g4
g5
(dp135
g14
S''
sg17
g32
sg18
S''
sg20
g21
sg19
S''
sg15
g32
sg28
Nsg22
g33
stRp136
ag3
(g4
g5
(dp137
g14
S''
sg17
g36
sg18
S''
sg20
g27
sg19
S''
sg15
g36
sg28
Nsg22
g37
stRp138
ag3
(g4
g5
(dp139
g14
S''
sg40
S'depotFile'
p140
sg18
S''
sg42
S'File'
p141
sg19
S''
sg15
g140
sg28
Nsg44
S'The file name'
p142
stRp143
ag3
(g4
g5
(dp144
g14
S''
sg40
S'depotRev'
p145
sg18
S''
sg42
S'Rev'
p146
sg19
S''
sg15
g145
sg28
Nsg44
S'The revision number'
p147
stRp148
ag3
(g4
g5
(dp149
g14
S''
sg40
S'type'
p150
sg18
S''
sg42
S'FileType'
p151
sg19
S''
sg15
g150
sg28
Nsg44
S'The file type of the revision'
p152
stRp153
ag3
(g4
g5
(dp154
g14
S''
sg40
S'action'
p155
sg18
S''
sg42
S'Action'
p156
sg19
S''
sg15
g155
sg28
Nsg44
S'The action that created the revision'
p157
stRp158
ag3
(g4
g5
(dp159
g14
S''
sg40
S'change'
p160
sg18
S''
sg42
S'Change'
p161
sg19
S''
sg15
g160
sg28
Nsg44
S'The changelist that created the revision'
p162
stRp163
ag3
(g4
g5
(dp164
g14
S''
sg40
S'date'
p165
sg18
S''
sg42
S'Date'
p166
sg19
S''
sg15
g165
sg28
Nsg44
S'The date/time the changelist that created the revision\n\t\t    was submitted'
p167
stRp168
ag3
(g4
g5
(dp169
g14
S''
sg40
S'modTime'
p170
sg18
S''
sg42
S'Date'
p171
sg19
S''
sg15
g170
sg28
Nsg44
S"The timestamp on the file in the user's workspace when\n\t\t    the revision was submitted."
p172
stRp173
ag3
(g4
g5
(dp174
g14
S''
sg40
S'digest'
p175
sg18
S''
sg42
S'Digest'
p176
sg19
S''
sg15
g175
sg28
Nsg44
S'The MD5 digest of the revision.'
p177
stRp178
ag3
(g4
g5
(dp179
g14
S''
sg40
S'size'
p180
sg18
S''
sg42
S'FileSize'
p181
sg19
S''
sg15
g180
sg28
Nsg44
S'The size of the file in bytes'
p182
stRp183
ag3
(g4
g5
(dp184
g14
S''
sg40
S'traitLot'
p185
sg18
S''
sg42
S'TraitLot'
p186
sg19
S''
sg15
g185
sg28
Nsg44
S'Group of traits (attributes) associated with the revision.'
p187
stRp188
ag3
(g4
g5
(dp189
g14
S''
sg40
S'lbrIsLazy'
p190
sg18
S''
sg42
S'RevStatus'
p191
sg19
S''
sg15
g190
sg28
Nsg44
S'Specifies whether or not the revision gets its content from \n\t  \t    another file (lazy copy), data about promotion of revision\n\t \t    content from task streams, and data about revision charset \n            information.'
p192
stRp193
ag3
(g4
g5
(dp194
g14
S''
sg40
S'lbrFile'
p195
sg18
S''
sg42
S'File'
p196
sg19
S''
sg15
g195
sg28
Nsg44
S"Filename for librarian's purposes.  Specifies location in \n\t\t    the archives where the file containing the revision may\n\t\t    be found. Usually the same as depotFile, but differs in\n\t\t    the case of branched/copied revisions."
p197
stRp198
ag3
(g4
g5
(dp199
g14
S''
sg40
S'lbrRev'
p200
sg18
S''
sg42
S'String'
p201
sg19
S''
sg15
g200
sg28
Nsg44
S'The revision of lbrFile that contains the revision content.'
p202
stRp203
ag3
(g4
g5
(dp204
g14
S''
sg40
S'lbrType'
p205
sg18
S''
sg42
S'FileType'
p206
sg19
S''
sg15
g205
sg28
Nsg44
S'The file type of the librarian revision. Usually the same\n\t\t    as type, but differs in the case of branched/copied \n\t\t    revisions.'
p207
stRp208
atRp209
sg68
g127
sg69
S'9'
sg70
g71
sg44
S'Task stream revision records'
p210
sg42
S'Rev'
p211
sg74
S'46'
p212
sg40
S'db.revtx'
p213
stRp214
sS'ixtext'
p215
g3
(g4
g5
(dp216
g7
S'word, attr, value'
p217
sg9
g3
(g10
g11
(lp218
g3
(g4
g5
(dp219
g14
S''
sg15
g16
sg17
g16
sg18
S''
sg19
S''
sg20
g21
sg22
g23
stRp220
ag3
(g4
g5
(dp221
g14
S''
sg17
g26
sg18
S''
sg20
g27
sg19
S''
sg15
g26
sg28
Nsg22
g29
stRp222
ag3
(g4
g5
(dp223
g14
S''
sg17
g32
sg18
S''
sg20
g21
sg19
S''
sg15
g32
sg28
Nsg22
g33
stRp224
ag3
(g4
g5
(dp225
g14
S''
sg17
g36
sg18
S''
sg20
g27
sg19
S''
sg15
g36
sg28
Nsg22
g37
stRp226
ag3
(g4
g5
(dp227
g14
S''
sg40
S'word'
p228
sg18
S''
sg42
S'String'
p229
sg19
S''
sg15
g228
sg28
Nsg44
S'The word being indexed'
p230
stRp231
ag3
(g4
g5
(dp232
g14
S''
sg40
S'attr'
p233
sg18
S''
sg42
S'Int'
p234
sg19
S''
sg15
g233
sg28
Nsg44
S'The attribute number to which this word belongs. For\n\t\t    job data, the attribute number from the jobspec.'
p235
stRp236
ag3
(g4
g5
(dp237
g14
S''
sg40
S'value'
p238
sg18
S''
sg42
S'String'
p239
sg19
S''
sg15
g238
sg28
Nsg44
S'For job data, a job name. For generic data, the value\n\t\t    of the index keyed by the word.'
p240
stRp241
atRp242
sg68
g215
sg69
S'0'
sg70
g71
sg44
S'Indexing data for generic and job attributes'
p243
sg42
S'IndexText'
p244
sg74
S'77'
p245
sg40
S'db.ixtext'
p246
stRp247
sS'rmtview'
p248
g3
(g4
g5
(dp249
g7
S'id, seq'
p250
sg9
g3
(g10
g11
(lp251
g3
(g4
g5
(dp252
g14
S''
sg15
g16
sg17
g16
sg18
S''
sg19
S''
sg20
g21
sg22
g23
stRp253
ag3
(g4
g5
(dp254
g14
S''
sg17
g26
sg18
S''
sg20
g27
sg19
S''
sg15
g26
sg28
Nsg22
g29
stRp255
ag3
(g4
g5
(dp256
g14
S''
sg17
g32
sg18
S''
sg20
g21
sg19
S''
sg15
g32
sg28
Nsg22
g33
stRp257
ag3
(g4
g5
(dp258
g14
S''
sg17
g36
sg18
S''
sg20
g27
sg19
S''
sg15
g36
sg28
Nsg22
g37
stRp259
ag3
(g4
g5
(dp260
g14
S''
sg40
S'id'
p261
sg18
S''
sg42
S'RemoteID'
p262
sg19
S''
sg15
g261
sg28
Nsg44
S'Remote name'
p263
stRp264
ag3
(g4
g5
(dp265
g14
S''
sg40
S'seq'
p266
sg18
S''
sg42
S'Int'
p267
sg19
S''
sg15
g266
sg28
Nsg44
S'Sequence number: for ordering multi-line views'
p268
stRp269
ag3
(g4
g5
(dp270
g14
S''
sg40
S'mapFlag'
p271
sg18
S''
sg42
S'MapFlag'
p272
sg19
S''
sg15
g271
sg28
Nsg44
S'Type of mapping'
p273
stRp274
ag3
(g4
g5
(dp275
g14
S''
sg40
S'localFile'
p276
sg18
S''
sg42
S'Mapping'
p277
sg19
S''
sg15
g276
sg28
Nsg44
S'Local file'
p278
stRp279
ag3
(g4
g5
(dp280
g14
S''
sg40
S'remoteFile'
p281
sg18
S''
sg42
S'Mapping'
p282
sg19
S''
sg15
g281
sg28
Nsg44
S'Remote file'
p283
stRp284
ag3
(g4
g5
(dp285
g14
S''
sg40
S'retain'
p286
sg18
S''
sg42
S'Int'
p287
sg19
S''
sg15
g286
sg28
Nsg44
S'ArchiveLimits'
p288
stRp289
atRp290
sg68
g248
sg69
S'1'
sg70
g71
sg44
S'View data for remote specifications'
p291
sg42
S'RmtView'
p292
sg74
S'9'
sg40
S'db.rmtview'
p293
stRp294
sS'graphindex'
p295
g3
(g4
g5
(dp296
g7
S'id, name, date, blobsha, commitsha'
p297
sg9
g3
(g10
g11
(lp298
g3
(g4
g5
(dp299
g14
S''
sg15
g16
sg17
g16
sg18
S''
sg19
S''
sg20
g21
sg22
g23
stRp300
ag3
(g4
g5
(dp301
g14
S''
sg17
g26
sg18
S''
sg20
g27
sg19
S''
sg15
g26
sg28
Nsg22
g29
stRp302
ag3
(g4
g5
(dp303
g14
S''
sg17
g32
sg18
S''
sg20
g21
sg19
S''
sg15
g32
sg28
Nsg22
g33
stRp304
ag3
(g4
g5
(dp305
g14
S''
sg17
g36
sg18
S''
sg20
g27
sg19
S''
sg15
g36
sg28
Nsg22
g37
stRp306
ag3
(g4
g5
(dp307
g14
S''
sg40
S'id'
p308
sg18
S''
sg42
S'Int'
p309
sg19
S''
sg15
g308
sg28
Nsg44
S'ID of repo index belongs to'
p310
stRp311
ag3
(g4
g5
(dp312
g14
S''
sg40
S'fileName'
p313
sg18
S''
sg42
S'File'
p314
sg19
S''
sg15
g313
sg28
Nsg44
S'File name (minus the repo name)'
p315
stRp316
ag3
(g4
g5
(dp317
g14
S''
sg40
S'commitDate'
p318
sg18
S''
sg42
S'Date'
p319
sg19
S''
sg15
g318
sg28
Nsg44
S'Descending historical commit sequence'
p320
stRp321
ag3
(g4
g5
(dp322
g14
S''
sg40
S'blobSHA'
p323
sg18
S''
sg42
S'SHA1'
p324
sg19
S''
sg15
g323
sg28
Nsg44
S'SHA of blob'
p325
stRp326
ag3
(g4
g5
(dp327
g14
S''
sg40
S'commitSHA'
p328
sg18
S''
sg42
S'SHA1'
p329
sg19
S''
sg15
g328
sg28
Nsg44
S'SHA of commit that added/edited this file'
p330
stRp331
ag3
(g4
g5
(dp332
g14
S''
sg40
S'flags'
p333
sg18
S''
sg42
S'Int'
p334
sg19
S''
sg15
g333
sg28
Nsg44
S'Miscellaneous flags'
p335
stRp336
ag3
(g4
g5
(dp337
g14
S''
sg40
S'GIsize'
p338
sg18
S''
sg42
S'FileSize'
p339
sg19
S''
sg15
g338
sg28
Nsg44
S'file size'
p340
stRp341
ag3
(g4
g5
(dp342
g14
S''
sg40
S'GItype'
p343
sg18
S''
sg42
S'FileType'
p344
sg19
S''
sg15
g343
sg28
Nsg44
S'type'
p345
stRp346
ag3
(g4
g5
(dp347
g14
S''
sg40
S'GIlfsoid'
p348
sg18
S''
sg42
S'text'
p349
sg19
S''
sg15
g348
sg28
Nsg44
S'LFS Object ID'
p350
stRp351
atRp352
sg68
g295
sg69
S'1'
sg70
g71
sg44
S'Graph depot repository index data'
p353
sg42
S'GraphIndex'
p354
sg74
S'64'
p355
sg40
S'db.graphindex'
p356
stRp357
sS'ticket'
p358
g3
(g4
g5
(dp359
g7
S'user, host'
p360
sg9
g3
(g10
g11
(lp361
g3
(g4
g5
(dp362
g14
S''
sg15
g16
sg17
g16
sg18
S''
sg19
S''
sg20
g21
sg22
g23
stRp363
ag3
(g4
g5
(dp364
g14
S''
sg17
g26
sg18
S''
sg20
g27
sg19
S''
sg15
g26
sg28
Nsg22
g29
stRp365
ag3
(g4
g5
(dp366
g14
S''
sg17
g32
sg18
S''
sg20
g21
sg19
S''
sg15
g32
sg28
Nsg22
g33
stRp367
ag3
(g4
g5
(dp368
g14
S''
sg17
g36
sg18
S''
sg20
g27
sg19
S''
sg15
g36
sg28
Nsg22
g37
stRp369
ag3
(g4
g5
(dp370
g14
S''
sg40
S'user'
p371
sg18
S''
sg42
S'User'
p372
sg19
S''
sg15
g371
sg28
Nsg44
S'User the ticket was issued for'
p373
stRp374
ag3
(g4
g5
(dp375
g14
S''
sg40
S'host'
p376
sg18
S''
sg42
S'String'
p377
sg19
S''
sg15
g376
sg28
Nsg44
S'Host the ticket was issued for'
p378
stRp379
ag3
(g4
g5
(dp380
g14
S''
sg40
S'ticket'
p381
sg18
S''
sg42
S'Password'
p382
sg19
S''
sg15
g381
sg28
Nsg44
S"The 'p4 login' ticket for this user"
p383
stRp384
ag3
(g4
g5
(dp385
g14
S''
sg40
S'state'
p386
sg18
S''
sg42
S'2FAState'
p387
sg19
S''
sg15
g386
sg28
Nsg44
S'The state of 2 Factor Authentication'
p388
stRp389
ag3
(g4
g5
(dp390
g14
S''
sg40
S'token'
p391
sg18
S''
sg42
S'String'
p392
sg19
S''
sg15
g391
sg28
Nsg44
S'The 2 Factor Authentication token'
p393
stRp394
ag3
(g4
g5
(dp395
g14
S''
sg40
S'updateDate'
p396
sg18
S''
sg42
S'Date'
p397
sg19
S''
sg15
g396
sg28
Nsg44
S'The date of the last ticket update'
p398
stRp399
atRp400
sg68
g358
sg69
S'0'
sg70
g71
sg44
S'Second factor authentication state on a per user/host basis'
p401
sg42
S'Ticket'
p402
sg74
S'14'
p403
sg40
S'db.ticket'
p404
stRp405
sS'bodtext'
p406
g3
(g4
g5
(dp407
g7
S'key, attr'
p408
sg9
g3
(g10
g11
(lp409
g3
(g4
g5
(dp410
g14
S''
sg15
g16
sg17
g16
sg18
S''
sg19
S''
sg20
g21
sg22
g23
stRp411
ag3
(g4
g5
(dp412
g14
S''
sg17
g26
sg18
S''
sg20
g27
sg19
S''
sg15
g26
sg28
Nsg22
g29
stRp413
ag3
(g4
g5
(dp414
g14
S''
sg17
g32
sg18
S''
sg20
g21
sg19
S''
sg15
g32
sg28
Nsg22
g33
stRp415
ag3
(g4
g5
(dp416
g14
S''
sg17
g36
sg18
S''
sg20
g27
sg19
S''
sg15
g36
sg28
Nsg22
g37
stRp417
ag3
(g4
g5
(dp418
g14
S''
sg40
S'key'
p419
sg18
S''
sg42
S'String'
p420
sg19
S''
sg15
g419
sg28
Nsg44
S'The job to which this attribute belongs'
p421
stRp422
ag3
(g4
g5
(dp423
g14
S''
sg40
S'attr'
p424
sg18
S''
sg42
S'Int'
p425
sg19
S''
sg15
g424
sg28
Nsg44
S'The attribute number (from the jobspec) of this attribute'
p426
stRp427
ag3
(g4
g5
(dp428
g14
S''
sg40
S'isBulk'
p429
sg18
S''
sg42
S'Int'
p430
sg19
S''
sg15
g429
sg28
Nsg44
S'Indicates whether (1), or not (0) the field is a bulk\n\t\t    text field that should not be indexed.'
p431
stRp432
ag3
(g4
g5
(dp433
g14
S''
sg40
S'text'
p434
sg18
S''
sg42
S'Text'
p435
sg19
S''
sg15
g434
sg28
Nsg44
S'The attribute value'
p436
stRp437
atRp438
sg68
g406
sg69
S'1'
sg70
g71
sg44
S'Job data for job attributes'
p439
sg42
S'BodyText'
p440
sg74
S'72'
p441
sg40
S'db.bodtext'
p442
stRp443
sS'havept'
p444
g3
(g4
g5
(dp445
g7
S'clientFile depotFile haveRev'
p446
sg9
g3
(g10
g11
(lp447
g3
(g4
g5
(dp448
g14
S''
sg15
g16
sg17
g16
sg18
S''
sg19
S''
sg20
g21
sg22
g23
stRp449
ag3
(g4
g5
(dp450
g14
S''
sg17
g26
sg18
S''
sg20
g27
sg19
S''
sg15
g26
sg28
Nsg22
g29
stRp451
ag3
(g4
g5
(dp452
g14
S''
sg17
g32
sg18
S''
sg20
g21
sg19
S''
sg15
g32
sg28
Nsg22
g33
stRp453
ag3
(g4
g5
(dp454
g14
S''
sg17
g36
sg18
S''
sg20
g27
sg19
S''
sg15
g36
sg28
Nsg22
g37
stRp455
ag3
(g4
g5
(dp456
g14
S''
sg40
S'clientFile'
p457
sg18
S''
sg42
S'File'
p458
sg19
S''
sg15
g457
sg28
Nsg44
S'The file in its location on the client'
p459
stRp460
ag3
(g4
g5
(dp461
g14
S''
sg40
S'depotFile'
p462
sg18
S''
sg42
S'File'
p463
sg19
S''
sg15
g462
sg28
Nsg44
S'The file in the depot'
p464
stRp465
ag3
(g4
g5
(dp466
g14
S''
sg40
S'haveRev'
p467
sg18
S''
sg42
S'Rev'
p468
sg19
S''
sg15
g467
sg28
Nsg44
S'The revision synced to the client'
p469
stRp470
ag3
(g4
g5
(dp471
g14
S''
sg40
S'type'
p472
sg18
S''
sg42
S'FileType'
p473
sg19
S''
sg15
g472
sg28
Nsg44
S'The filetype of the synced revision'
p474
stRp475
ag3
(g4
g5
(dp476
g14
S''
sg40
S'time'
p477
sg18
S''
sg42
S'Date'
p478
sg19
S''
sg15
g477
sg28
Nsg44
S'The sync time of the synced revision'
p479
stRp480
atRp481
sg68
g444
sg69
S'3'
sg70
g71
sg44
S'Placeholder for read-only clients'
p482
sg42
S'Have'
p483
sg74
S'29'
p484
sg40
S'db.have.pt'
p485
stRp486
sS'submodule'
p487
g3
(g4
g5
(dp488
g7
S'repo, path'
p489
sg9
g3
(g10
g11
(lp490
g3
(g4
g5
(dp491
g14
S''
sg15
g16
sg17
g16
sg18
S''
sg19
S''
sg20
g21
sg22
g23
stRp492
ag3
(g4
g5
(dp493
g14
S''
sg17
g26
sg18
S''
sg20
g27
sg19
S''
sg15
g26
sg28
Nsg22
g29
stRp494
ag3
(g4
g5
(dp495
g14
S''
sg17
g32
sg18
S''
sg20
g21
sg19
S''
sg15
g32
sg28
Nsg22
g33
stRp496
ag3
(g4
g5
(dp497
g14
S''
sg17
g36
sg18
S''
sg20
g27
sg19
S''
sg15
g36
sg28
Nsg22
g37
stRp498
ag3
(g4
g5
(dp499
g14
S''
sg40
S'repo'
p500
sg18
S''
sg42
S'String'
p501
sg19
S''
sg15
g500
sg28
Nsg44
S'Repository name'
p502
stRp503
ag3
(g4
g5
(dp504
g14
S''
sg40
S'path'
p505
sg18
S''
sg42
S'String'
p506
sg19
S''
sg15
g505
sg28
Nsg44
S'Path at which the submodule is linked'
p507
stRp508
ag3
(g4
g5
(dp509
g14
S''
sg40
S'subrepo'
p510
sg18
S''
sg42
S'String'
p511
sg19
S''
sg15
g510
sg28
Nsg44
S'Submodule repository name'
p512
stRp513
atRp514
sg68
g487
sg69
S'0'
sg70
g71
sg44
S'Submodule configuration data'
p515
sg42
S'Submodule'
p516
sg74
S'66'
p517
sg40
S'db.submodule'
p518
stRp519
sS'group'
p520
g3
(g4
g5
(dp521
g7
S'user, group'
p522
sg9
g3
(g10
g11
(lp523
g3
(g4
g5
(dp524
g14
S''
sg15
g16
sg17
g16
sg18
S''
sg19
S''
sg20
g21
sg22
g23
stRp525
ag3
(g4
g5
(dp526
g14
S''
sg17
g26
sg18
S''
sg20
g27
sg19
S''
sg15
g26
sg28
Nsg22
g29
stRp527
ag3
(g4
g5
(dp528
g14
S''
sg17
g32
sg18
S''
sg20
g21
sg19
S''
sg15
g32
sg28
Nsg22
g33
stRp529
ag3
(g4
g5
(dp530
g14
S''
sg17
g36
sg18
S''
sg20
g27
sg19
S''
sg15
g36
sg28
Nsg22
g37
stRp531
ag3
(g4
g5
(dp532
g14
S''
sg40
S'user'
p533
sg18
S''
sg42
S'User'
p534
sg19
S''
sg15
g533
sg28
Nsg44
S'User name'
p535
stRp536
ag3
(g4
g5
(dp537
g14
S''
sg40
S'group'
p538
sg18
S''
sg42
S'User'
p539
sg19
S''
sg15
g538
sg28
Nsg44
S'Group name'
p540
stRp541
ag3
(g4
g5
(dp542
g14
S''
sg40
S'type'
p543
sg18
S''
sg42
S'UserType'
p544
sg19
S''
sg15
g543
sg28
Nsg44
S'Type of user in this group.'
p545
stRp546
ag3
(g4
g5
(dp547
g14
S''
sg40
S'maxResults'
p548
sg18
S''
sg42
S'MaxResults'
p549
sg19
S''
sg15
g548
sg28
Nsg44
S'MaxResults setting for the group.'
p550
stRp551
ag3
(g4
g5
(dp552
g14
S''
sg40
S'maxScanRows'
p553
sg18
S''
sg42
S'MaxScanRows'
p554
sg19
S''
sg15
g553
sg28
Nsg44
S'MaxScanRows setting for the group.'
p555
stRp556
ag3
(g4
g5
(dp557
g14
S''
sg40
S'maxLockTime'
p558
sg18
S''
sg42
S'MaxLockTime'
p559
sg19
S''
sg15
g558
sg28
Nsg44
S'MaxLockTime setting for the group.'
p560
stRp561
ag3
(g4
g5
(dp562
g14
S''
sg40
S'maxOpenFiles'
p563
sg18
S''
sg42
S'MaxOpenFiles'
p564
sg19
S''
sg15
g563
sg28
Nsg44
S'MaxOpenFiles setting for the group.'
p565
stRp566
ag3
(g4
g5
(dp567
g14
S''
sg40
S'timeout'
p568
sg18
S''
sg42
S'Int'
p569
sg19
S''
sg15
g568
sg28
Nsg44
S'Length of time (in seconds) a login ticket remains valid.'
p570
stRp571
ag3
(g4
g5
(dp572
g14
S''
sg40
S'passwordTimeout'
p573
sg18
S''
sg42
S'Int'
p574
sg19
S''
sg15
g573
sg28
Nsg44
S'Length of time (in seconds) a password remains valid for users in the group.'
p575
stRp576
atRp577
sg68
g520
sg69
S'9'
sg70
g71
sg44
S'Group specifications'
p578
sg42
S'Group'
p579
sg74
S'15'
p580
sg40
S'db.group'
p581
stRp582
sS'monitor'
p583
g3
(g4
g5
(dp584
g7
S'id'
p585
sg9
g3
(g10
g11
(lp586
g3
(g4
g5
(dp587
g14
S''
sg15
g16
sg17
g16
sg18
S''
sg19
S''
sg20
g21
sg22
g23
stRp588
ag3
(g4
g5
(dp589
g14
S''
sg17
g26
sg18
S''
sg20
g27
sg19
S''
sg15
g26
sg28
Nsg22
g29
stRp590
ag3
(g4
g5
(dp591
g14
S''
sg17
g32
sg18
S''
sg20
g21
sg19
S''
sg15
g32
sg28
Nsg22
g33
stRp592
ag3
(g4
g5
(dp593
g14
S''
sg17
g36
sg18
S''
sg20
g27
sg19
S''
sg15
g36
sg28
Nsg22
g37
stRp594
ag3
(g4
g5
(dp595
g14
S''
sg40
S'id'
p596
sg18
S''
sg42
S'Int'
p597
sg19
S''
sg15
g596
sg28
Nsg44
S'Thread/process id'
p598
stRp599
ag3
(g4
g5
(dp600
g14
S''
sg40
S'user'
p601
sg18
S''
sg42
S'User'
p602
sg19
S''
sg15
g601
sg28
Nsg44
S'Username of the user running the command'
p603
stRp604
ag3
(g4
g5
(dp605
g14
S''
sg40
S'function'
p606
sg18
S''
sg42
S'String'
p607
sg19
S''
sg15
g606
sg28
Nsg44
S'The command being executed.'
p608
stRp609
ag3
(g4
g5
(dp610
g14
S''
sg40
S'args'
p611
sg18
S''
sg42
S'String'
p612
sg19
S''
sg15
g611
sg28
Nsg44
S'Arguments passed to the command'
p613
stRp614
ag3
(g4
g5
(dp615
g14
S''
sg40
S'startDate'
p616
sg18
S''
sg42
S'Date'
p617
sg19
S''
sg15
g616
sg28
Nsg44
S'The date and time the command started'
p618
stRp619
ag3
(g4
g5
(dp620
g14
S''
sg40
S'runstate'
p621
sg18
S''
sg42
S'Int'
p622
sg19
S''
sg15
g621
sg28
Nsg44
S'Flag: 0 for running, 1 for terminated, 2 for paused'
p623
stRp624
ag3
(g4
g5
(dp625
g14
S''
sg40
S'client'
p626
sg18
S''
sg42
S'Domain'
p627
sg19
S''
sg15
g626
sg28
Nsg44
S'The client workspace'
p628
stRp629
ag3
(g4
g5
(dp630
g14
S''
sg40
S'host'
p631
sg18
S''
sg42
S'Text'
p632
sg19
S''
sg15
g631
sg28
Nsg44
S'The IP address of the client'
p633
stRp634
ag3
(g4
g5
(dp635
g14
S''
sg40
S'prog'
p636
sg18
S''
sg42
S'Text'
p637
sg19
S''
sg15
g636
sg28
Nsg44
S'The name (and version) of the client program'
p638
stRp639
ag3
(g4
g5
(dp640
g14
S''
sg40
S'lockInfo'
p641
sg18
S''
sg42
S'Text'
p642
sg19
S''
sg15
g641
sg28
Nsg44
S'Table locking information for command'
p643
stRp644
atRp645
sg68
g583
sg69
S'2'
sg70
g71
sg44
S'Helix Server process information'
p646
sg42
S'Monitor'
p647
sg74
S'85'
p648
sg40
S'db.monitor'
p649
stRp650
sS'working'
p651
g3
(g4
g5
(dp652
g7
S'clientFile'
p653
sg9
g3
(g10
g11
(lp654
g3
(g4
g5
(dp655
g14
S''
sg15
g16
sg17
g16
sg18
S''
sg19
S''
sg20
g21
sg22
g23
stRp656
ag3
(g4
g5
(dp657
g14
S''
sg17
g26
sg18
S''
sg20
g27
sg19
S''
sg15
g26
sg28
Nsg22
g29
stRp658
ag3
(g4
g5
(dp659
g14
S''
sg17
g32
sg18
S''
sg20
g21
sg19
S''
sg15
g32
sg28
Nsg22
g33
stRp660
ag3
(g4
g5
(dp661
g14
S''
sg17
g36
sg18
S''
sg20
g27
sg19
S''
sg15
g36
sg28
Nsg22
g37
stRp662
ag3
(g4
g5
(dp663
g14
S''
sg40
S'clientFile'
p664
sg18
S''
sg42
S'File'
p665
sg19
S''
sg15
g664
sg28
Nsg44
S'File on the client'
p666
stRp667
ag3
(g4
g5
(dp668
g14
S''
sg40
S'depotFile'
p669
sg18
S''
sg42
S'File'
p670
sg19
S''
sg15
g669
sg28
Nsg44
S'File in the depot'
p671
stRp672
ag3
(g4
g5
(dp673
g14
S''
sg40
S'client'
p674
sg18
S''
sg42
S'Domain'
p675
sg19
S''
sg15
g674
sg28
Nsg44
S'The client the file is opened on'
p676
stRp677
ag3
(g4
g5
(dp678
g14
S''
sg40
S'user'
p679
sg18
S''
sg42
S'User'
p680
sg19
S''
sg15
g679
sg28
Nsg44
S'The user who has the file opened'
p681
stRp682
ag3
(g4
g5
(dp683
g14
S''
sg40
S'haveRev'
p684
sg18
S''
sg42
S'Rev'
p685
sg19
S''
sg15
g684
sg28
Nsg44
S"Revision presently in user's client workspace"
p686
stRp687
ag3
(g4
g5
(dp688
g14
S''
sg40
S'workRev'
p689
sg18
S''
sg42
S'Rev'
p690
sg19
S''
sg15
g689
sg28
Nsg44
S'Working revision; normally identical to the haveRev'
p691
stRp692
ag3
(g4
g5
(dp693
g14
S''
sg40
S'isVirtual'
p694
sg18
S''
sg42
S'Int'
p695
sg19
S''
sg15
g694
sg28
Nsg44
S'Flag: if 1, file was opened with "p4 integ -v".'
p696
stRp697
ag3
(g4
g5
(dp698
g14
S''
sg40
S'type'
p699
sg18
S''
sg42
S'FileType'
p700
sg19
S''
sg15
g699
sg28
Nsg44
S'File type'
p701
stRp702
ag3
(g4
g5
(dp703
g14
S''
sg40
S'action'
p704
sg18
S''
sg42
S'Action'
p705
sg19
S''
sg15
g704
sg28
Nsg44
S"What the user's doing with the file"
p706
stRp707
ag3
(g4
g5
(dp708
g14
S''
sg40
S'change'
p709
sg18
S''
sg42
S'Change'
p710
sg19
S''
sg15
g709
sg28
Nsg44
S'Associated changelist, or zero for the default changelist.'
p711
stRp712
ag3
(g4
g5
(dp713
g14
S''
sg40
S'modTime'
p714
sg18
S''
sg42
S'Date'
p715
sg19
S''
sg15
g714
sg28
Nsg44
S"Modification timestamp on the file in the user's workspace."
p716
stRp717
ag3
(g4
g5
(dp718
g14
S''
sg40
S'isLocked'
p719
sg18
S''
sg42
S'Int'
p720
sg19
S''
sg15
g719
sg28
Nsg44
S'Flag: 0 for unlocked, 1 for locked.'
p721
stRp722
ag3
(g4
g5
(dp723
g14
S''
sg40
S'digest'
p724
sg18
S''
sg42
S'Digest'
p725
sg19
S''
sg15
g724
sg28
Nsg44
S'MD5 digest of working file.'
p726
stRp727
ag3
(g4
g5
(dp728
g14
S''
sg40
S'size'
p729
sg18
S''
sg42
S'Int64'
p730
sg19
S''
sg15
g729
sg28
Nsg44
S'File size'
p731
stRp732
ag3
(g4
g5
(dp733
g14
S''
sg40
S'traitLot'
p734
sg18
S''
sg42
S'Int'
p735
sg19
S''
sg15
g734
sg28
Nsg44
S'Group of traits associated with file revision.'
p736
stRp737
ag3
(g4
g5
(dp738
g14
S''
sg40
S'tampered'
p739
sg18
S''
sg42
S'TamperCheck'
p740
sg19
S''
sg15
g739
sg28
Nsg44
S'Flag indicating the tamper-state of the file in the\n\t\t    workspace.'
p741
stRp742
ag3
(g4
g5
(dp743
g14
S''
sg40
S'clntType'
p744
sg18
S''
sg42
S'FileType'
p745
sg19
S''
sg15
g744
sg28
Nsg44
S'Type of the file in the client workspace.'
p746
stRp747
ag3
(g4
g5
(dp748
g14
S''
sg40
S'mFile'
p749
sg18
S''
sg42
S'File'
p750
sg19
S''
sg15
g749
sg28
Nsg44
S'Moved filename'
p751
stRp752
ag3
(g4
g5
(dp753
g14
S''
sg40
S'status'
p754
sg18
S''
sg42
S'Int'
p755
sg19
S''
sg15
g754
sg28
Nsg44
S'Working status'
p756
stRp757
atRp758
sg68
g651
sg69
S'10'
p759
sg70
g71
sg44
S'Records for work in progress'
p760
sg42
S'Working'
p761
sg74
S'49'
p762
sg40
S'db.working'
p763
stRp764
sS'fix'
p765
g3
(g4
g5
(dp766
g7
S'job, change'
p767
sg9
g3
(g10
g11
(lp768
g3
(g4
g5
(dp769
g14
S''
sg15
g16
sg17
g16
sg18
S''
sg19
S''
sg20
g21
sg22
g23
stRp770
ag3
(g4
g5
(dp771
g14
S''
sg17
g26
sg18
S''
sg20
g27
sg19
S''
sg15
g26
sg28
Nsg22
g29
stRp772
ag3
(g4
g5
(dp773
g14
S''
sg17
g32
sg18
S''
sg20
g21
sg19
S''
sg15
g32
sg28
Nsg22
g33
stRp774
ag3
(g4
g5
(dp775
g14
S''
sg17
g36
sg18
S''
sg20
g27
sg19
S''
sg15
g36
sg28
Nsg22
g37
stRp776
ag3
(g4
g5
(dp777
g14
S''
sg40
g90
sg18
S''
sg42
g91
sg19
S''
sg15
g90
sg28
Nsg44
g92
stRp778
ag3
(g4
g5
(dp779
g14
S''
sg40
g95
sg18
S''
sg42
g96
sg19
S''
sg15
g95
sg28
Nsg44
g97
stRp780
ag3
(g4
g5
(dp781
g14
S''
sg40
g100
sg18
S''
sg42
g101
sg19
S''
sg15
g100
sg28
Nsg44
g102
stRp782
ag3
(g4
g5
(dp783
g14
S''
sg40
g105
sg18
S''
sg42
g106
sg19
S''
sg15
g105
sg28
Nsg44
g107
stRp784
ag3
(g4
g5
(dp785
g14
S''
sg40
g110
sg18
S''
sg42
g111
sg19
S''
sg15
g110
sg28
Nsg44
g112
stRp786
ag3
(g4
g5
(dp787
g14
S''
sg40
g115
sg18
S''
sg42
g116
sg19
S''
sg15
g115
sg28
Nsg44
g117
stRp788
atRp789
sg68
g765
sg40
S'db.fix'
p790
sg69
S'1'
sg70
g71
sg121
S'db.fixrev'
p791
sg42
S'Fix'
p792
sg74
S'69'
p793
sg44
S'Fix records - indexed by job'
p794
stRp795
sS'tiny'
p796
g3
(g4
g5
(dp797
g7
S'fileAndRev'
p798
sg68
g796
sg9
g3
(g10
g11
(lp799
g3
(g4
g5
(dp800
g14
S''
sg15
g16
sg17
g16
sg18
S''
sg19
S''
sg20
g21
sg22
g23
stRp801
ag3
(g4
g5
(dp802
g14
S''
sg17
g26
sg18
S''
sg20
g27
sg19
S''
sg15
g26
sg28
Nsg22
g29
stRp803
ag3
(g4
g5
(dp804
g14
S''
sg17
g32
sg18
S''
sg20
g21
sg19
S''
sg15
g32
sg28
Nsg22
g33
stRp805
ag3
(g4
g5
(dp806
g14
S''
sg17
g36
sg18
S''
sg20
g27
sg19
S''
sg15
g36
sg28
Nsg22
g37
stRp807
ag3
(g4
g5
(dp808
g14
S''
sg40
S'fileAndRev'
p809
sg18
S''
sg42
S'String'
p810
sg19
S''
sg15
g809
sg28
Nsg44
S'The file name and revision'
p811
stRp812
ag3
(g4
g5
(dp813
g14
S''
sg40
S'fileContent'
p814
sg18
S''
sg42
S'Octet String'
p815
sg19
S''
sg15
g814
sg28
Nsg44
S'The (encoded) file content'
p816
stRp817
atRp818
sg70
g71
sg44
S'Records revision and content data for files using the +T file type modifier'
p819
sg42
S'TinyDb'
p820
sg40
S'tiny.db'
p821
stRp822
sS'groupx'
p823
g3
(g4
g5
(dp824
g7
S'group'
p825
sg9
g3
(g10
g11
(lp826
g3
(g4
g5
(dp827
g14
S''
sg15
g16
sg17
g16
sg18
S''
sg19
S''
sg20
g21
sg22
g23
stRp828
ag3
(g4
g5
(dp829
g14
S''
sg17
g26
sg18
S''
sg20
g27
sg19
S''
sg15
g26
sg28
Nsg22
g29
stRp830
ag3
(g4
g5
(dp831
g14
S''
sg17
g32
sg18
S''
sg20
g21
sg19
S''
sg15
g32
sg28
Nsg22
g33
stRp832
ag3
(g4
g5
(dp833
g14
S''
sg17
g36
sg18
S''
sg20
g27
sg19
S''
sg15
g36
sg28
Nsg22
g37
stRp834
ag3
(g4
g5
(dp835
g14
S''
sg40
S'group'
p836
sg18
S''
sg42
S'User'
p837
sg19
S''
sg15
g836
sg28
Nsg44
S'Group name'
p838
stRp839
ag3
(g4
g5
(dp840
g14
S''
sg40
S'ldapConf'
p841
sg18
S''
sg42
S'String'
p842
sg19
S''
sg15
g841
sg28
Nsg44
S"The LDAP configuration to use when populating the group's user list from an LDAP query"
p843
stRp844
ag3
(g4
g5
(dp845
g14
S''
sg40
S'ldapSearchQuery'
p846
sg18
S''
sg42
S'String'
p847
sg19
S''
sg15
g846
sg28
Nsg44
S'The LDAP query used to identify the members of the group'
p848
stRp849
ag3
(g4
g5
(dp850
g14
S''
sg40
S'ldapUserAttribute'
p851
sg18
S''
sg42
S'String'
p852
sg19
S''
sg15
g851
sg28
Nsg44
S"The LDAP attribute that represents the user's username"
p853
stRp854
ag3
(g4
g5
(dp855
g14
S''
sg40
S'ldapDNAttribute'
p856
sg18
S''
sg42
S'String'
p857
sg19
S''
sg15
g856
sg28
Nsg44
S"The LDAP attribute that represents the user's DN"
p858
stRp859
atRp860
sg68
g823
sg69
S'1'
sg70
g71
sg44
S'Per-group data to support group membership controlled by AD/LDAP group membership'
p861
sg42
S'GroupX'
p862
sg74
S'16'
p863
sg40
S'db.groupx'
p864
stRp865
sS'trigger'
p866
g3
(g4
g5
(dp867
g7
S'seq'
p868
sg9
g3
(g10
g11
(lp869
g3
(g4
g5
(dp870
g14
S''
sg15
g16
sg17
g16
sg18
S''
sg19
S''
sg20
g21
sg22
g23
stRp871
ag3
(g4
g5
(dp872
g14
S''
sg17
g26
sg18
S''
sg20
g27
sg19
S''
sg15
g26
sg28
Nsg22
g29
stRp873
ag3
(g4
g5
(dp874
g14
S''
sg17
g32
sg18
S''
sg20
g21
sg19
S''
sg15
g32
sg28
Nsg22
g33
stRp875
ag3
(g4
g5
(dp876
g14
S''
sg17
g36
sg18
S''
sg20
g27
sg19
S''
sg15
g36
sg28
Nsg22
g37
stRp877
ag3
(g4
g5
(dp878
g14
S''
sg40
S'seq'
p879
sg18
S''
sg42
S'Int'
p880
sg19
S''
sg15
g879
sg28
Nsg44
S'Sequence number: for ordering the trigger list'
p881
stRp882
ag3
(g4
g5
(dp883
g14
S''
sg40
S'name'
p884
sg18
S''
sg42
S'String'
p885
sg19
S''
sg15
g884
sg28
Nsg44
S'Name of the trigger'
p886
stRp887
ag3
(g4
g5
(dp888
g14
S''
sg40
S'mapFlag'
p889
sg18
S''
sg42
S'MapFlag'
p890
sg19
S''
sg15
g889
sg28
Nsg44
S'Type of mapping: specifies whether the trigger applies \n\t\t    to the files or not.'
p891
stRp892
ag3
(g4
g5
(dp893
g14
S''
sg40
S'depotFile'
p894
sg18
S''
sg42
S'Mapping'
p895
sg19
S''
sg15
g894
sg28
Nsg44
S'The files to apply the trigger to'
p896
stRp897
ag3
(g4
g5
(dp898
g14
S''
sg40
S'triggerDepotFile'
p899
sg18
S''
sg42
S'File'
p900
sg19
S''
sg15
g899
sg28
Nsg44
S'Depot path to the trigger'
p901
stRp902
ag3
(g4
g5
(dp903
g14
S''
sg40
S'trigger'
p904
sg18
S''
sg42
S'Trigger'
p905
sg19
S''
sg15
g904
sg28
Nsg44
S'Type of trigger'
p906
stRp907
ag3
(g4
g5
(dp908
g14
S''
sg40
S'action'
p909
sg18
S''
sg42
S'Text'
p910
sg19
S''
sg15
g909
sg28
Nsg44
S'Command to execute when trigger runs'
p911
stRp912
atRp913
sg68
g866
sg69
S'3'
sg70
g71
sg44
S'Trigger specifications'
p914
sg42
S'Trigger'
p915
sg74
S'55'
p916
sg40
S'db.trigger'
p917
stRp918
sS'bodtextsx'
p919
g3
(g4
g5
(dp920
g7
S'type, shelf, key, attr'
p921
sg9
g3
(g10
g11
(lp922
g3
(g4
g5
(dp923
g14
S''
sg15
g16
sg17
g16
sg18
S''
sg19
S''
sg20
g21
sg22
g23
stRp924
ag3
(g4
g5
(dp925
g14
S''
sg17
g26
sg18
S''
sg20
g27
sg19
S''
sg15
g26
sg28
Nsg22
g29
stRp926
ag3
(g4
g5
(dp927
g14
S''
sg17
g32
sg18
S''
sg20
g21
sg19
S''
sg15
g32
sg28
Nsg22
g33
stRp928
ag3
(g4
g5
(dp929
g14
S''
sg17
g36
sg18
S''
sg20
g27
sg19
S''
sg15
g36
sg28
Nsg22
g37
stRp930
ag3
(g4
g5
(dp931
g14
S''
sg40
S'type'
p932
sg18
S''
sg42
S'Int'
p933
sg19
S''
sg15
g932
sg28
Nsg44
S'The type of spec'
p934
stRp935
ag3
(g4
g5
(dp936
g14
S''
sg40
S'shelf'
p937
sg18
S''
sg42
S'Change'
p938
sg19
S''
sg15
g937
sg28
Nsg44
S'The shelf to which this attribute belongs'
p939
stRp940
ag3
(g4
g5
(dp941
g14
S''
sg40
S'key'
p942
sg18
S''
sg42
S'String'
p943
sg19
S''
sg15
g942
sg28
Nsg44
S'The spec to which this attribute belongs'
p944
stRp945
ag3
(g4
g5
(dp946
g14
S''
sg40
S'attr'
p947
sg18
S''
sg42
S'Int'
p948
sg19
S''
sg15
g947
sg28
Nsg44
S'The attribute number of this attribute'
p949
stRp950
ag3
(g4
g5
(dp951
g14
S''
sg40
S'text'
p952
sg18
S''
sg42
S'Text'
p953
sg19
S''
sg15
g952
sg28
Nsg44
S'The attribute value'
p954
stRp955
ag3
(g4
g5
(dp956
g14
S''
sg40
S'workChange'
p957
sg18
S''
sg42
S'Change'
p958
sg19
S''
sg15
g957
sg28
Nsg44
S'The working change'
p959
stRp960
atRp961
sg68
g919
sg69
S'0'
sg70
g71
sg44
S'Shelved openable spec fields (for future use)'
p962
sg42
S'BodyTextSx'
p963
sg74
S'75'
p964
sg40
S'db.bodtextsx'
p965
stRp966
sS'ldap'
p967
g3
(g4
g5
(dp968
g7
S'name'
p969
sg9
g3
(g10
g11
(lp970
g3
(g4
g5
(dp971
g14
S''
sg15
g16
sg17
g16
sg18
S''
sg19
S''
sg20
g21
sg22
g23
stRp972
ag3
(g4
g5
(dp973
g14
S''
sg17
g26
sg18
S''
sg20
g27
sg19
S''
sg15
g26
sg28
Nsg22
g29
stRp974
ag3
(g4
g5
(dp975
g14
S''
sg17
g32
sg18
S''
sg20
g21
sg19
S''
sg15
g32
sg28
Nsg22
g33
stRp976
ag3
(g4
g5
(dp977
g14
S''
sg17
g36
sg18
S''
sg20
g27
sg19
S''
sg15
g36
sg28
Nsg22
g37
stRp978
ag3
(g4
g5
(dp979
g14
S''
sg40
S'name'
p980
sg18
S''
sg42
S'String'
p981
sg19
S''
sg15
g980
sg28
Nsg44
S'The LDAP configuration name'
p982
stRp983
ag3
(g4
g5
(dp984
g14
S''
sg40
S'host'
p985
sg18
S''
sg42
S'String'
p986
sg19
S''
sg15
g985
sg28
Nsg44
S'The FQDN of the directory server'
p987
stRp988
ag3
(g4
g5
(dp989
g14
S''
sg40
S'port'
p990
sg18
S''
sg42
S'String'
p991
sg19
S''
sg15
g990
sg28
Nsg44
S'The port number on which to connect to the directory server'
p992
stRp993
ag3
(g4
g5
(dp994
g14
S''
sg40
S'ssl'
p995
sg18
S''
sg42
S'String'
p996
sg19
S''
sg15
g995
sg28
Nsg44
S"The encryption method to use when connecting to the The FQDN of the directory server.\n\t\t\tOptions are: 'none', 'ssl' and 'tls'"
p997
stRp998
ag3
(g4
g5
(dp999
g14
S''
sg40
S'type'
p1000
sg18
S''
sg42
S'String'
p1001
sg19
S''
sg15
g1000
sg28
Nsg44
S"The bind method to use with this directory.  Options are: 'simple', 'search' and 'sasl'."
p1002
stRp1003
ag3
(g4
g5
(dp1004
g14
S''
sg40
S'pattern'
p1005
sg18
S''
sg42
S'String'
p1006
sg19
S''
sg15
g1005
sg28
Nsg44
S"The DN used to bind against to validate the user's credentials."
p1007
stRp1008
ag3
(g4
g5
(dp1009
g14
S''
sg40
S'basedn'
p1010
sg18
S''
sg42
S'String'
p1011
sg19
S''
sg15
g1010
sg28
Nsg44
S'The DN from which to start the search for the user object'
p1012
stRp1013
ag3
(g4
g5
(dp1014
g14
S''
sg40
S'filter'
p1015
sg18
S''
sg42
S'String'
p1016
sg19
S''
sg15
g1015
sg28
Nsg44
S'The LDAP query filter to use to identify the user object which will be used to bind against'
p1017
stRp1018
ag3
(g4
g5
(dp1019
g14
S''
sg40
S'scope'
p1020
sg18
S''
sg42
S'String'
p1021
sg19
S''
sg15
g1020
sg28
Nsg44
S'The scope to use when searching for the user records. Options are:\n                 0 = baseonly - Just the BaseDN object\n                 1 = children - The BaseDN and its direct children\n                 2 = subtree - The BaseDN and all objects below it'
p1022
stRp1023
ag3
(g4
g5
(dp1024
g14
S''
sg40
S'binddn'
p1025
sg18
S''
sg42
S'String'
p1026
sg19
S''
sg15
g1025
sg28
Nsg44
S'The DN to bind against in order to search the directory'
p1027
stRp1028
ag3
(g4
g5
(dp1029
g14
S''
sg40
S'bindpass'
p1030
sg18
S''
sg42
S'String'
p1031
sg19
S''
sg15
g1030
sg28
Nsg44
S'The password for the BindDN record'
p1032
stRp1033
ag3
(g4
g5
(dp1034
g14
S''
sg40
S'realm'
p1035
sg18
S''
sg42
S'String'
p1036
sg19
S''
sg15
g1035
sg28
Nsg44
S'The optional realm to use when authenticating the user via SASL'
p1037
stRp1038
ag3
(g4
g5
(dp1039
g14
S''
sg40
S'grpbasedn'
p1040
sg18
S''
sg42
S'String'
p1041
sg19
S''
sg15
g1040
sg28
Nsg44
S'The search base for performing the group search. If unset this will default to the SearchBaseDN'
p1042
stRp1043
ag3
(g4
g5
(dp1044
g14
S''
sg40
S'grpfilter'
p1045
sg18
S''
sg42
S'String'
p1046
sg19
S''
sg15
g1045
sg28
Nsg44
S'The filter to use for the group search'
p1047
stRp1048
ag3
(g4
g5
(dp1049
g14
S''
sg40
S'grpscope'
p1050
sg18
S''
sg42
S'String'
p1051
sg19
S''
sg15
g1050
sg28
Nsg44
S'The scope to use when performing the group search.Options are:\n \t\t\t\t0 = baseonly - Just the BaseDN object\n\t\t\t\t1 = children - The BaseDN and its direct children\n\t\t\t\t2 = subtree - The BaseDN and all objects below it'
p1052
stRp1053
ag3
(g4
g5
(dp1054
g14
S''
sg40
S'options'
p1055
sg18
S''
sg42
S'String'
p1056
sg19
S''
sg15
g1055
sg28
Nsg44
S'LDAP Options: [no]downcase [no]getattrs [no]realminusername'
p1057
stRp1058
ag3
(g4
g5
(dp1059
g14
S''
sg40
S'attruid'
p1060
sg18
S''
sg42
S'String'
p1061
sg19
S''
sg15
g1060
sg28
Nsg44
S"The name of the attribute in the directory's user records that contain the users' UIDs"
p1062
stRp1063
ag3
(g4
g5
(dp1064
g14
S''
sg40
S'attremail'
p1065
sg18
S''
sg42
S'String'
p1066
sg19
S''
sg15
g1065
sg28
Nsg44
S"The name of the attribute in the directory's user records that contain the users' email addresses."
p1067
stRp1068
ag3
(g4
g5
(dp1069
g14
S''
sg40
S'attrename'
p1070
sg18
S''
sg42
S'String'
p1071
sg19
S''
sg15
g1070
sg28
Nsg44
S"The name(s) of the attribute(s) in the directory's user records that contain the users' full names."
p1072
stRp1073
atRp1074
sg68
g967
sg69
S'0'
sg70
g71
sg44
S'LDAP specifications'
p1075
sg42
S'Ldap'
p1076
sg74
S'5'
sg40
S'db.ldap'
p1077
stRp1078
sS'logger'
p1079
g3
(g4
g5
(dp1080
g7
S'seq'
p1081
sg9
g3
(g10
g11
(lp1082
g3
(g4
g5
(dp1083
g14
S''
sg15
g16
sg17
g16
sg18
S''
sg19
S''
sg20
g21
sg22
g23
stRp1084
ag3
(g4
g5
(dp1085
g14
S''
sg17
g26
sg18
S''
sg20
g27
sg19
S''
sg15
g26
sg28
Nsg22
g29
stRp1086
ag3
(g4
g5
(dp1087
g14
S''
sg17
g32
sg18
S''
sg20
g21
sg19
S''
sg15
g32
sg28
Nsg22
g33
stRp1088
ag3
(g4
g5
(dp1089
g14
S''
sg17
g36
sg18
S''
sg20
g27
sg19
S''
sg15
g36
sg28
Nsg22
g37
stRp1090
ag3
(g4
g5
(dp1091
g14
S''
sg40
S'seq'
p1092
sg18
S''
sg42
S'Int'
p1093
sg19
S''
sg15
g1092
sg28
Nsg44
S'Sequence number of event'
p1094
stRp1095
ag3
(g4
g5
(dp1096
g14
S''
sg40
S'key'
p1097
sg18
S''
sg42
S'String'
p1098
sg19
S''
sg15
g1097
sg28
Nsg44
S"Either the word 'change' or the word 'job'"
p1099
stRp1100
ag3
(g4
g5
(dp1101
g14
S''
sg40
S'attr'
p1102
sg18
S''
sg42
S'String'
p1103
sg19
S''
sg15
g1102
sg28
Nsg44
S'The number of the change, or name of the job that was \n\t\t    altered.'
p1104
stRp1105
atRp1106
sg68
g1079
sg69
S'0'
sg70
g71
sg44
S"Support for 'p4 logger' command. Logs any changes to \n\t\tchangelists and jobs"
p1107
sg42
S'Logger'
p1108
sg74
S'4'
sg40
S'db.logger'
p1109
stRp1110
sS'pubkey'
p1111
g3
(g4
g5
(dp1112
g7
S'user,scope'
p1113
sg9
g3
(g10
g11
(lp1114
g3
(g4
g5
(dp1115
g14
S''
sg15
g16
sg17
g16
sg18
S''
sg19
S''
sg20
g21
sg22
g23
stRp1116
ag3
(g4
g5
(dp1117
g14
S''
sg17
g26
sg18
S''
sg20
g27
sg19
S''
sg15
g26
sg28
Nsg22
g29
stRp1118
ag3
(g4
g5
(dp1119
g14
S''
sg17
g32
sg18
S''
sg20
g21
sg19
S''
sg15
g32
sg28
Nsg22
g33
stRp1120
ag3
(g4
g5
(dp1121
g14
S''
sg17
g36
sg18
S''
sg20
g27
sg19
S''
sg15
g36
sg28
Nsg22
g37
stRp1122
ag3
(g4
g5
(dp1123
g14
S''
sg40
S'user'
p1124
sg18
S''
sg42
S'String'
p1125
sg19
S''
sg15
g1124
sg28
Nsg44
S'User'
p1126
stRp1127
ag3
(g4
g5
(dp1128
g14
S''
sg40
S'scope'
p1129
sg18
S''
sg42
S'String'
p1130
sg19
S''
sg15
g1129
sg28
Nsg44
S'Scope'
p1131
stRp1132
ag3
(g4
g5
(dp1133
g14
S''
sg40
S'key'
p1134
sg18
S''
sg42
S'String'
p1135
sg19
S''
sg15
g1134
sg28
Nsg44
S'Key'
p1136
stRp1137
ag3
(g4
g5
(dp1138
g14
S''
sg40
S'digest'
p1139
sg18
S''
sg42
S'Digest'
p1140
sg19
S''
sg15
g1139
sg28
Nsg44
S'Digest'
p1141
stRp1142
ag3
(g4
g5
(dp1143
g14
S''
sg40
S'update'
p1144
sg18
S''
sg42
S'Date'
p1145
sg19
S''
sg15
g1144
sg28
Nsg44
S'Update date'
p1146
stRp1147
atRp1148
sg68
g1111
sg69
S'0'
sg70
g71
sg44
S'SSH Public keys'
p1149
sg42
S'PublicKey'
p1150
sg74
S'67'
p1151
sg40
S'db.pubkey'
p1152
stRp1153
sS'revpx'
p1154
g3
(g4
g5
(dp1155
g7
S'depotFile, depotRev'
p1156
sg9
g3
(g10
g11
(lp1157
g3
(g4
g5
(dp1158
g14
S''
sg15
g16
sg17
g16
sg18
S''
sg19
S''
sg20
g21
sg22
g23
stRp1159
ag3
(g4
g5
(dp1160
g14
S''
sg17
g26
sg18
S''
sg20
g27
sg19
S''
sg15
g26
sg28
Nsg22
g29
stRp1161
ag3
(g4
g5
(dp1162
g14
S''
sg17
g32
sg18
S''
sg20
g21
sg19
S''
sg15
g32
sg28
Nsg22
g33
stRp1163
ag3
(g4
g5
(dp1164
g14
S''
sg17
g36
sg18
S''
sg20
g27
sg19
S''
sg15
g36
sg28
Nsg22
g37
stRp1165
ag3
(g4
g5
(dp1166
g14
S''
sg40
g140
sg18
S''
sg42
g141
sg19
S''
sg15
g140
sg28
Nsg44
g142
stRp1167
ag3
(g4
g5
(dp1168
g14
S''
sg40
g145
sg18
S''
sg42
g146
sg19
S''
sg15
g145
sg28
Nsg44
g147
stRp1169
ag3
(g4
g5
(dp1170
g14
S''
sg40
g150
sg18
S''
sg42
g151
sg19
S''
sg15
g150
sg28
Nsg44
g152
stRp1171
ag3
(g4
g5
(dp1172
g14
S''
sg40
g155
sg18
S''
sg42
g156
sg19
S''
sg15
g155
sg28
Nsg44
g157
stRp1173
ag3
(g4
g5
(dp1174
g14
S''
sg40
g160
sg18
S''
sg42
g161
sg19
S''
sg15
g160
sg28
Nsg44
g162
stRp1175
ag3
(g4
g5
(dp1176
g14
S''
sg40
g165
sg18
S''
sg42
g166
sg19
S''
sg15
g165
sg28
Nsg44
g167
stRp1177
ag3
(g4
g5
(dp1178
g14
S''
sg40
g170
sg18
S''
sg42
g171
sg19
S''
sg15
g170
sg28
Nsg44
g172
stRp1179
ag3
(g4
g5
(dp1180
g14
S''
sg40
g175
sg18
S''
sg42
g176
sg19
S''
sg15
g175
sg28
Nsg44
g177
stRp1181
ag3
(g4
g5
(dp1182
g14
S''
sg40
g180
sg18
S''
sg42
g181
sg19
S''
sg15
g180
sg28
Nsg44
g182
stRp1183
ag3
(g4
g5
(dp1184
g14
S''
sg40
g185
sg18
S''
sg42
g186
sg19
S''
sg15
g185
sg28
Nsg44
g187
stRp1185
ag3
(g4
g5
(dp1186
g14
S''
sg40
g190
sg18
S''
sg42
g191
sg19
S''
sg15
g190
sg28
Nsg44
g192
stRp1187
ag3
(g4
g5
(dp1188
g14
S''
sg40
g195
sg18
S''
sg42
g196
sg19
S''
sg15
g195
sg28
Nsg44
g197
stRp1189
ag3
(g4
g5
(dp1190
g14
S''
sg40
g200
sg18
S''
sg42
g201
sg19
S''
sg15
g200
sg28
Nsg44
g202
stRp1191
ag3
(g4
g5
(dp1192
g14
S''
sg40
g205
sg18
S''
sg42
g206
sg19
S''
sg15
g205
sg28
Nsg44
g207
stRp1193
atRp1194
sg68
g1154
sS'note'
p1195
S'Only populated during content trigger execution to allow \n\t\ttriggers access to the revisions being submitted.'
p1196
sg69
S'9'
sg70
g71
sg44
S'Pending revision records'
p1197
sg42
S'Rev'
p1198
sg74
S'39'
p1199
sg40
S'db.revpx'
p1200
stRp1201
sS'resolveg'
p1202
g3
(g4
g5
(dp1203
g7
S'toFile, fromFile, baseSHA'
p1204
sg9
g3
(g10
g11
(lp1205
g3
(g4
g5
(dp1206
g14
S''
sg15
g16
sg17
g16
sg18
S''
sg19
S''
sg20
g21
sg22
g23
stRp1207
ag3
(g4
g5
(dp1208
g14
S''
sg17
g26
sg18
S''
sg20
g27
sg19
S''
sg15
g26
sg28
Nsg22
g29
stRp1209
ag3
(g4
g5
(dp1210
g14
S''
sg17
g32
sg18
S''
sg20
g21
sg19
S''
sg15
g32
sg28
Nsg22
g33
stRp1211
ag3
(g4
g5
(dp1212
g14
S''
sg17
g36
sg18
S''
sg20
g27
sg19
S''
sg15
g36
sg28
Nsg22
g37
stRp1213
ag3
(g4
g5
(dp1214
g14
S''
sg40
S'toFile'
p1215
sg18
S''
sg42
S'File'
p1216
sg19
S''
sg15
g1215
sg28
Nsg44
S'ToFile'
p1217
stRp1218
ag3
(g4
g5
(dp1219
g14
S''
sg40
S'fromFile'
p1220
sg18
S''
sg42
S'File'
p1221
sg19
S''
sg15
g1220
sg28
Nsg44
S'FromFile'
p1222
stRp1223
ag3
(g4
g5
(dp1224
g14
S''
sg40
S'baseSHA'
p1225
sg18
S''
sg42
S'SHA1'
p1226
sg19
S''
sg15
g1225
sg28
Nsg44
S'Base SHA'
p1227
stRp1228
ag3
(g4
g5
(dp1229
g14
S''
sg40
S'wantsSHA'
p1230
sg18
S''
sg42
S'SHA1'
p1231
sg19
S''
sg15
g1230
sg28
Nsg44
S'Wants SHA'
p1232
stRp1233
ag3
(g4
g5
(dp1234
g14
S''
sg40
S'how'
p1235
sg18
S''
sg42
S'IntegHow'
p1236
sg19
S''
sg15
g1235
sg28
Nsg44
S'How'
p1237
stRp1238
ag3
(g4
g5
(dp1239
g14
S''
sg40
S'state'
p1240
sg18
S''
sg42
S'ResolvedStatus'
p1241
sg19
S''
sg15
g1240
sg28
Nsg44
S'State'
p1242
stRp1243
atRp1244
sg68
g1202
sg40
S'db.resolveg'
p1245
sg69
S'0'
sg70
g71
sg121
S'db.integed'
p1246
sg42
S'ResolveG'
p1247
sg74
S'35'
p1248
sg44
S'Resolve records for clients of type graph'
p1249
stRp1250
sS'revdx'
p1251
g3
(g4
g5
(dp1252
g7
S'depotFile'
p1253
sg9
g3
(g10
g11
(lp1254
g3
(g4
g5
(dp1255
g14
S''
sg15
g16
sg17
g16
sg18
S''
sg19
S''
sg20
g21
sg22
g23
stRp1256
ag3
(g4
g5
(dp1257
g14
S''
sg17
g26
sg18
S''
sg20
g27
sg19
S''
sg15
g26
sg28
Nsg22
g29
stRp1258
ag3
(g4
g5
(dp1259
g14
S''
sg17
g32
sg18
S''
sg20
g21
sg19
S''
sg15
g32
sg28
Nsg22
g33
stRp1260
ag3
(g4
g5
(dp1261
g14
S''
sg17
g36
sg18
S''
sg20
g27
sg19
S''
sg15
g36
sg28
Nsg22
g37
stRp1262
ag3
(g4
g5
(dp1263
g14
S''
sg40
g140
sg18
S''
sg42
g141
sg19
S''
sg15
g140
sg28
Nsg44
g142
stRp1264
ag3
(g4
g5
(dp1265
g14
S''
sg40
g145
sg18
S''
sg42
g146
sg19
S''
sg15
g145
sg28
Nsg44
g147
stRp1266
ag3
(g4
g5
(dp1267
g14
S''
sg40
g150
sg18
S''
sg42
g151
sg19
S''
sg15
g150
sg28
Nsg44
g152
stRp1268
ag3
(g4
g5
(dp1269
g14
S''
sg40
g155
sg18
S''
sg42
g156
sg19
S''
sg15
g155
sg28
Nsg44
g157
stRp1270
ag3
(g4
g5
(dp1271
g14
S''
sg40
g160
sg18
S''
sg42
g161
sg19
S''
sg15
g160
sg28
Nsg44
g162
stRp1272
ag3
(g4
g5
(dp1273
g14
S''
sg40
g165
sg18
S''
sg42
g166
sg19
S''
sg15
g165
sg28
Nsg44
g167
stRp1274
ag3
(g4
g5
(dp1275
g14
S''
sg40
g170
sg18
S''
sg42
g171
sg19
S''
sg15
g170
sg28
Nsg44
g172
stRp1276
ag3
(g4
g5
(dp1277
g14
S''
sg40
g175
sg18
S''
sg42
g176
sg19
S''
sg15
g175
sg28
Nsg44
g177
stRp1278
ag3
(g4
g5
(dp1279
g14
S''
sg40
g180
sg18
S''
sg42
g181
sg19
S''
sg15
g180
sg28
Nsg44
g182
stRp1280
ag3
(g4
g5
(dp1281
g14
S''
sg40
g185
sg18
S''
sg42
g186
sg19
S''
sg15
g185
sg28
Nsg44
g187
stRp1282
ag3
(g4
g5
(dp1283
g14
S''
sg40
g190
sg18
S''
sg42
g191
sg19
S''
sg15
g190
sg28
Nsg44
g192
stRp1284
ag3
(g4
g5
(dp1285
g14
S''
sg40
g195
sg18
S''
sg42
g196
sg19
S''
sg15
g195
sg28
Nsg44
g197
stRp1286
ag3
(g4
g5
(dp1287
g14
S''
sg40
g200
sg18
S''
sg42
g201
sg19
S''
sg15
g200
sg28
Nsg44
g202
stRp1288
ag3
(g4
g5
(dp1289
g14
S''
sg40
g205
sg18
S''
sg42
g206
sg19
S''
sg15
g205
sg28
Nsg44
g207
stRp1290
atRp1291
sg68
g1251
sg69
S'9'
sg70
g71
sg44
S'Revision records for revisions deleted at the head revision'
p1292
sg42
S'Rev'
p1293
sg74
S'37'
p1294
sg40
S'db.revdx'
p1295
stRp1296
sS'bodtexthx'
p1297
g3
(g4
g5
(dp1298
g7
S'type, key, attr'
p1299
sg9
g3
(g10
g11
(lp1300
g3
(g4
g5
(dp1301
g14
S''
sg15
g16
sg17
g16
sg18
S''
sg19
S''
sg20
g21
sg22
g23
stRp1302
ag3
(g4
g5
(dp1303
g14
S''
sg17
g26
sg18
S''
sg20
g27
sg19
S''
sg15
g26
sg28
Nsg22
g29
stRp1304
ag3
(g4
g5
(dp1305
g14
S''
sg17
g32
sg18
S''
sg20
g21
sg19
S''
sg15
g32
sg28
Nsg22
g33
stRp1306
ag3
(g4
g5
(dp1307
g14
S''
sg17
g36
sg18
S''
sg20
g27
sg19
S''
sg15
g36
sg28
Nsg22
g37
stRp1308
ag3
(g4
g5
(dp1309
g14
S''
sg40
S'type'
p1310
sg18
S''
sg42
S'Int'
p1311
sg19
S''
sg15
g1310
sg28
Nsg44
S'The type of spec'
p1312
stRp1313
ag3
(g4
g5
(dp1314
g14
S''
sg40
S'key'
p1315
sg18
S''
sg42
S'String'
p1316
sg19
S''
sg15
g1315
sg28
Nsg44
S'The spec to which this attribute belongs'
p1317
stRp1318
ag3
(g4
g5
(dp1319
g14
S''
sg40
S'attr'
p1320
sg18
S''
sg42
S'Int'
p1321
sg19
S''
sg15
g1320
sg28
Nsg44
S'The attribute number of this attribute'
p1322
stRp1323
ag3
(g4
g5
(dp1324
g14
S''
sg40
S'bulk'
p1325
sg18
S''
sg42
S'Int'
p1326
sg19
S''
sg15
g1325
sg28
Nsg44
S'Indicates whether (1), or not (0) the field is a bulk\n\t\t    text field that should not be indexed.'
p1327
stRp1328
ag3
(g4
g5
(dp1329
g14
S''
sg40
S'text'
p1330
sg18
S''
sg42
S'Text'
p1331
sg19
S''
sg15
g1330
sg28
Nsg44
S'The attribute value'
p1332
stRp1333
atRp1334
sg68
g1297
sg69
S'0'
sg70
g71
sg44
S'Head revision of spec fields (for future use)'
p1335
sg42
S'BodyTextHx'
p1336
sg74
S'74'
p1337
sg40
S'db.bodtexthx'
p1338
stRp1339
sS'integed'
p1340
g3
(g4
g5
(dp1341
g7
S'toFile, fromFile, startFromRev, endFromRev, \n\t\tstartToRev, endToRev'
p1342
sg9
g3
(g10
g11
(lp1343
g3
(g4
g5
(dp1344
g14
S''
sg15
g16
sg17
g16
sg18
S''
sg19
S''
sg20
g21
sg22
g23
stRp1345
ag3
(g4
g5
(dp1346
g14
S''
sg17
g26
sg18
S''
sg20
g27
sg19
S''
sg15
g26
sg28
Nsg22
g29
stRp1347
ag3
(g4
g5
(dp1348
g14
S''
sg17
g32
sg18
S''
sg20
g21
sg19
S''
sg15
g32
sg28
Nsg22
g33
stRp1349
ag3
(g4
g5
(dp1350
g14
S''
sg17
g36
sg18
S''
sg20
g27
sg19
S''
sg15
g36
sg28
Nsg22
g37
stRp1351
ag3
(g4
g5
(dp1352
g14
S''
sg40
S'toFile'
p1353
sg18
S''
sg42
S'File'
p1354
sg19
S''
sg15
g1353
sg28
Nsg44
S'File to which integration is being performed (target).'
p1355
stRp1356
ag3
(g4
g5
(dp1357
g14
S''
sg40
S'fromFile'
p1358
sg18
S''
sg42
S'File'
p1359
sg19
S''
sg15
g1358
sg28
Nsg44
S'File from which integration is being performed (source).'
p1360
stRp1361
ag3
(g4
g5
(dp1362
g14
S''
sg40
S'startFromRev'
p1363
sg18
S''
sg42
S'Rev'
p1364
sg19
S''
sg15
g1363
sg28
Nsg44
S'Starting revision of fromFile'
p1365
stRp1366
ag3
(g4
g5
(dp1367
g14
S''
sg40
S'endFromRev'
p1368
sg18
S''
sg42
S'Rev'
p1369
sg19
S''
sg15
g1368
sg28
Nsg44
S'Ending revision of fromFile'
p1370
stRp1371
ag3
(g4
g5
(dp1372
g14
S''
sg40
S'startToRev'
p1373
sg18
S''
sg42
S'Rev'
p1374
sg19
S''
sg15
g1373
sg28
Nsg44
S'Start revision of toFile into which integration was \n\t\t    performed.'
p1375
stRp1376
ag3
(g4
g5
(dp1377
g14
S''
sg40
S'endToRev'
p1378
sg18
S''
sg42
S'Rev'
p1379
sg19
S''
sg15
g1378
sg28
Nsg44
S'End revision of toFile into which integration was \n\t\t    performed. Only varies from startToRev for reverse \n\t\t    integration records.'
p1380
stRp1381
ag3
(g4
g5
(dp1382
g14
S''
sg40
S'how'
p1383
sg18
S''
sg42
S'IntegHow'
p1384
sg19
S''
sg15
g1383
sg28
Nsg44
S'Integration method: variations on \n\t\t    merge/branch/copy/ignore/delete.'
p1385
stRp1386
ag3
(g4
g5
(dp1387
g14
S''
sg40
S'change'
p1388
sg18
S''
sg42
S'Change'
p1389
sg19
S''
sg15
g1388
sg28
Nsg44
S'Changelist associated with the integration.'
p1390
stRp1391
atRp1392
sg68
g1340
sg40
S'db.integed'
p1393
sg69
S'0'
sg70
g71
sg121
S'db.resolve'
p1394
sg42
S'Integed'
p1395
sg74
S'31'
p1396
sg44
S'Permanent integration records'
p1397
stRp1398
sS'repo'
p1399
g3
(g4
g5
(dp1400
g7
S'repo'
p1401
sg9
g3
(g10
g11
(lp1402
g3
(g4
g5
(dp1403
g14
S''
sg15
g16
sg17
g16
sg18
S''
sg19
S''
sg20
g21
sg22
g23
stRp1404
ag3
(g4
g5
(dp1405
g14
S''
sg17
g26
sg18
S''
sg20
g27
sg19
S''
sg15
g26
sg28
Nsg22
g29
stRp1406
ag3
(g4
g5
(dp1407
g14
S''
sg17
g32
sg18
S''
sg20
g21
sg19
S''
sg15
g32
sg28
Nsg22
g33
stRp1408
ag3
(g4
g5
(dp1409
g14
S''
sg17
g36
sg18
S''
sg20
g27
sg19
S''
sg15
g36
sg28
Nsg22
g37
stRp1410
ag3
(g4
g5
(dp1411
g14
S''
sg40
S'repo'
p1412
sg18
S''
sg42
S'String'
p1413
sg19
S''
sg15
g1412
sg28
Nsg44
S'Name of the repo'
p1414
stRp1415
ag3
(g4
g5
(dp1416
g14
S''
sg40
S'owner'
p1417
sg18
S''
sg42
S'User'
p1418
sg19
S''
sg15
g1417
sg28
Nsg44
S'Owner of the repo'
p1419
stRp1420
ag3
(g4
g5
(dp1421
g14
S''
sg40
S'created'
p1422
sg18
S''
sg42
S'Date'
p1423
sg19
S''
sg15
g1422
sg28
Nsg44
S'Date the repo specification was created'
p1424
stRp1425
ag3
(g4
g5
(dp1426
g14
S''
sg40
S'pushed'
p1427
sg18
S''
sg42
S'Date'
p1428
sg19
S''
sg15
g1427
sg28
Nsg44
S'Date of the last push to the repo'
p1429
stRp1430
ag3
(g4
g5
(dp1431
g14
S''
sg40
S'forked'
p1432
sg18
S''
sg42
S'String'
p1433
sg19
S''
sg15
g1432
sg28
Nsg44
S'Name of the repo from which this repo was forked'
p1434
stRp1435
ag3
(g4
g5
(dp1436
g14
S''
sg40
S'desc'
p1437
sg18
S''
sg42
S'String'
p1438
sg19
S''
sg15
g1437
sg28
Nsg44
S'Repo Description'
p1439
stRp1440
ag3
(g4
g5
(dp1441
g14
S''
sg40
S'branch'
p1442
sg18
S''
sg42
S'String'
p1443
sg19
S''
sg15
g1442
sg28
Nsg44
S'Default branch to clone from the repo'
p1444
stRp1445
ag3
(g4
g5
(dp1446
g14
S''
sg40
S'mirror'
p1447
sg18
S''
sg42
S'String'
p1448
sg19
S''
sg15
g1447
sg28
Nsg44
S'Upstream URL that this repo is mirrored (readonly) from'
p1449
stRp1450
ag3
(g4
g5
(dp1451
g14
S''
sg40
S'options'
p1452
sg18
S''
sg42
S'Int'
p1453
sg19
S''
sg15
g1452
sg28
Nsg44
S'Repo options: 0 = nolfs, 1 = lfs'
p1454
stRp1455
ag3
(g4
g5
(dp1456
g14
S''
sg40
S'id'
p1457
sg18
S''
sg42
S'Int'
p1458
sg19
S''
sg15
g1457
sg28
Nsg44
S'Repo index ID'
p1459
stRp1460
atRp1461
sg68
g1399
sg69
S'2'
sg70
g71
sg44
S'Repository specifications'
p1462
sg42
S'Repo'
p1463
sg74
S'60'
p1464
sg40
S'db.repo'
p1465
stRp1466
sS'revhx'
p1467
g3
(g4
g5
(dp1468
g7
S'depotFile'
p1469
sg9
g3
(g10
g11
(lp1470
g3
(g4
g5
(dp1471
g14
S''
sg15
g16
sg17
g16
sg18
S''
sg19
S''
sg20
g21
sg22
g23
stRp1472
ag3
(g4
g5
(dp1473
g14
S''
sg17
g26
sg18
S''
sg20
g27
sg19
S''
sg15
g26
sg28
Nsg22
g29
stRp1474
ag3
(g4
g5
(dp1475
g14
S''
sg17
g32
sg18
S''
sg20
g21
sg19
S''
sg15
g32
sg28
Nsg22
g33
stRp1476
ag3
(g4
g5
(dp1477
g14
S''
sg17
g36
sg18
S''
sg20
g27
sg19
S''
sg15
g36
sg28
Nsg22
g37
stRp1478
ag3
(g4
g5
(dp1479
g14
S''
sg40
g140
sg18
S''
sg42
g141
sg19
S''
sg15
g140
sg28
Nsg44
g142
stRp1480
ag3
(g4
g5
(dp1481
g14
S''
sg40
g145
sg18
S''
sg42
g146
sg19
S''
sg15
g145
sg28
Nsg44
g147
stRp1482
ag3
(g4
g5
(dp1483
g14
S''
sg40
g150
sg18
S''
sg42
g151
sg19
S''
sg15
g150
sg28
Nsg44
g152
stRp1484
ag3
(g4
g5
(dp1485
g14
S''
sg40
g155
sg18
S''
sg42
g156
sg19
S''
sg15
g155
sg28
Nsg44
g157
stRp1486
ag3
(g4
g5
(dp1487
g14
S''
sg40
g160
sg18
S''
sg42
g161
sg19
S''
sg15
g160
sg28
Nsg44
g162
stRp1488
ag3
(g4
g5
(dp1489
g14
S''
sg40
g165
sg18
S''
sg42
g166
sg19
S''
sg15
g165
sg28
Nsg44
g167
stRp1490
ag3
(g4
g5
(dp1491
g14
S''
sg40
g170
sg18
S''
sg42
g171
sg19
S''
sg15
g170
sg28
Nsg44
g172
stRp1492
ag3
(g4
g5
(dp1493
g14
S''
sg40
g175
sg18
S''
sg42
g176
sg19
S''
sg15
g175
sg28
Nsg44
g177
stRp1494
ag3
(g4
g5
(dp1495
g14
S''
sg40
g180
sg18
S''
sg42
g181
sg19
S''
sg15
g180
sg28
Nsg44
g182
stRp1496
ag3
(g4
g5
(dp1497
g14
S''
sg40
g185
sg18
S''
sg42
g186
sg19
S''
sg15
g185
sg28
Nsg44
g187
stRp1498
ag3
(g4
g5
(dp1499
g14
S''
sg40
g190
sg18
S''
sg42
g191
sg19
S''
sg15
g190
sg28
Nsg44
g192
stRp1500
ag3
(g4
g5
(dp1501
g14
S''
sg40
g195
sg18
S''
sg42
g196
sg19
S''
sg15
g195
sg28
Nsg44
g197
stRp1502
ag3
(g4
g5
(dp1503
g14
S''
sg40
g200
sg18
S''
sg42
g201
sg19
S''
sg15
g200
sg28
Nsg44
g202
stRp1504
ag3
(g4
g5
(dp1505
g14
S''
sg40
g205
sg18
S''
sg42
g206
sg19
S''
sg15
g205
sg28
Nsg44
g207
stRp1506
atRp1507
sg68
g1467
sg69
S'9'
sg70
g71
sg44
S'Revision records for revisions NOT deleted at the head revision'
p1508
sg42
S'Rev'
p1509
sg74
S'38'
p1510
sg40
S'db.revhx'
p1511
stRp1512
sS'haveg'
p1513
g3
(g4
g5
(dp1514
g7
S'GFrepo, GFcfile, GFdfile, GFclient'
p1515
sg9
g3
(g10
g11
(lp1516
g3
(g4
g5
(dp1517
g14
S''
sg15
g16
sg17
g16
sg18
S''
sg19
S''
sg20
g21
sg22
g23
stRp1518
ag3
(g4
g5
(dp1519
g14
S''
sg17
g26
sg18
S''
sg20
g27
sg19
S''
sg15
g26
sg28
Nsg22
g29
stRp1520
ag3
(g4
g5
(dp1521
g14
S''
sg17
g32
sg18
S''
sg20
g21
sg19
S''
sg15
g32
sg28
Nsg22
g33
stRp1522
ag3
(g4
g5
(dp1523
g14
S''
sg17
g36
sg18
S''
sg20
g27
sg19
S''
sg15
g36
sg28
Nsg22
g37
stRp1524
ag3
(g4
g5
(dp1525
g14
S''
sg40
S'GFrepo'
p1526
sg18
S''
sg42
S'String'
p1527
sg19
S''
sg15
g1526
sg28
Nsg44
S'repoName'
p1528
stRp1529
ag3
(g4
g5
(dp1530
g14
S''
sg40
S'GFcfile'
p1531
sg18
S''
sg42
S'File'
p1532
sg19
S''
sg15
g1531
sg28
Nsg44
S'clientFile'
p1533
stRp1534
ag3
(g4
g5
(dp1535
g14
S''
sg40
S'GFdfile'
p1536
sg18
S''
sg42
S'File'
p1537
sg19
S''
sg15
g1536
sg28
Nsg44
S'depotFile'
p1538
stRp1539
ag3
(g4
g5
(dp1540
g14
S''
sg40
S'GFclient'
p1541
sg18
S''
sg42
S'Domain'
p1542
sg19
S''
sg15
g1541
sg28
Nsg44
S'client'
p1543
stRp1544
ag3
(g4
g5
(dp1545
g14
S''
sg40
S'GFtype'
p1546
sg18
S''
sg42
S'FileType'
p1547
sg19
S''
sg15
g1546
sg28
Nsg44
S'type'
p1548
stRp1549
ag3
(g4
g5
(dp1550
g14
S''
sg40
S'GFaction'
p1551
sg18
S''
sg42
S'Action'
p1552
sg19
S''
sg15
g1551
sg28
Nsg44
S'action'
p1553
stRp1554
ag3
(g4
g5
(dp1555
g14
S''
sg40
S'GFbsha'
p1556
sg18
S''
sg42
S'SHA1'
p1557
sg19
S''
sg15
g1556
sg28
Nsg44
S'blob sha'
p1558
stRp1559
ag3
(g4
g5
(dp1560
g14
S''
sg40
S'GFcommitsha'
p1561
sg18
S''
sg42
S'SHA1'
p1562
sg19
S''
sg15
g1561
sg28
Nsg44
S'commit sha'
p1563
stRp1564
ag3
(g4
g5
(dp1565
g14
S''
sg40
S'GFflags'
p1566
sg18
S''
sg42
S'int'
p1567
sg19
S''
sg15
g1566
sg28
Nsg44
S'flags'
p1568
stRp1569
atRp1570
sg68
g1513
sg69
S'0'
sg70
g71
sg44
S"Contains the 'have-list' for graph depot"
p1571
sg42
S'Haveg'
p1572
sg74
S'52'
p1573
sg40
S'db.haveg'
p1574
stRp1575
sS'revux'
p1576
g3
(g4
g5
(dp1577
g7
S'depotFile'
p1578
sg9
g3
(g10
g11
(lp1579
g3
(g4
g5
(dp1580
g14
S''
sg15
g16
sg17
g16
sg18
S''
sg19
S''
sg20
g21
sg22
g23
stRp1581
ag3
(g4
g5
(dp1582
g14
S''
sg17
g26
sg18
S''
sg20
g27
sg19
S''
sg15
g26
sg28
Nsg22
g29
stRp1583
ag3
(g4
g5
(dp1584
g14
S''
sg17
g32
sg18
S''
sg20
g21
sg19
S''
sg15
g32
sg28
Nsg22
g33
stRp1585
ag3
(g4
g5
(dp1586
g14
S''
sg17
g36
sg18
S''
sg20
g27
sg19
S''
sg15
g36
sg28
Nsg22
g37
stRp1587
ag3
(g4
g5
(dp1588
g14
S''
sg40
g140
sg18
S''
sg42
g141
sg19
S''
sg15
g140
sg28
Nsg44
g142
stRp1589
ag3
(g4
g5
(dp1590
g14
S''
sg40
g145
sg18
S''
sg42
g146
sg19
S''
sg15
g145
sg28
Nsg44
g147
stRp1591
ag3
(g4
g5
(dp1592
g14
S''
sg40
g150
sg18
S''
sg42
g151
sg19
S''
sg15
g150
sg28
Nsg44
g152
stRp1593
ag3
(g4
g5
(dp1594
g14
S''
sg40
g155
sg18
S''
sg42
g156
sg19
S''
sg15
g155
sg28
Nsg44
g157
stRp1595
ag3
(g4
g5
(dp1596
g14
S''
sg40
g160
sg18
S''
sg42
g161
sg19
S''
sg15
g160
sg28
Nsg44
g162
stRp1597
ag3
(g4
g5
(dp1598
g14
S''
sg40
g165
sg18
S''
sg42
g166
sg19
S''
sg15
g165
sg28
Nsg44
g167
stRp1599
ag3
(g4
g5
(dp1600
g14
S''
sg40
g170
sg18
S''
sg42
g171
sg19
S''
sg15
g170
sg28
Nsg44
g172
stRp1601
ag3
(g4
g5
(dp1602
g14
S''
sg40
g175
sg18
S''
sg42
g176
sg19
S''
sg15
g175
sg28
Nsg44
g177
stRp1603
ag3
(g4
g5
(dp1604
g14
S''
sg40
g180
sg18
S''
sg42
g181
sg19
S''
sg15
g180
sg28
Nsg44
g182
stRp1605
ag3
(g4
g5
(dp1606
g14
S''
sg40
g185
sg18
S''
sg42
g186
sg19
S''
sg15
g185
sg28
Nsg44
g187
stRp1607
ag3
(g4
g5
(dp1608
g14
S''
sg40
g190
sg18
S''
sg42
g191
sg19
S''
sg15
g190
sg28
Nsg44
g192
stRp1609
ag3
(g4
g5
(dp1610
g14
S''
sg40
g195
sg18
S''
sg42
g196
sg19
S''
sg15
g195
sg28
Nsg44
g197
stRp1611
ag3
(g4
g5
(dp1612
g14
S''
sg40
g200
sg18
S''
sg42
g201
sg19
S''
sg15
g200
sg28
Nsg44
g202
stRp1613
ag3
(g4
g5
(dp1614
g14
S''
sg40
g205
sg18
S''
sg42
g206
sg19
S''
sg15
g205
sg28
Nsg44
g207
stRp1615
atRp1616
sg68
g1576
sg69
S'9'
sg70
g71
sg44
S'Revision records for unload depot files'
p1617
sg42
S'Rev'
p1618
sg74
S'43'
p1619
sg40
S'db.revux'
p1620
stRp1621
sS'jnlack'
p1622
g3
(g4
g5
(dp1623
g7
S'id'
p1624
sg9
g3
(g10
g11
(lp1625
g3
(g4
g5
(dp1626
g14
S''
sg15
g16
sg17
g16
sg18
S''
sg19
S''
sg20
g21
sg22
g23
stRp1627
ag3
(g4
g5
(dp1628
g14
S''
sg17
g26
sg18
S''
sg20
g27
sg19
S''
sg15
g26
sg28
Nsg22
g29
stRp1629
ag3
(g4
g5
(dp1630
g14
S''
sg17
g32
sg18
S''
sg20
g21
sg19
S''
sg15
g32
sg28
Nsg22
g33
stRp1631
ag3
(g4
g5
(dp1632
g14
S''
sg17
g36
sg18
S''
sg20
g27
sg19
S''
sg15
g36
sg28
Nsg22
g37
stRp1633
ag3
(g4
g5
(dp1634
g14
S''
sg40
S'serverId'
p1635
sg18
S''
sg42
S'Domain'
p1636
sg19
S''
sg15
g1635
sg28
Nsg44
S'The serverId of the standby for whom this record applies'
p1637
stRp1638
ag3
(g4
g5
(dp1639
g14
S''
sg40
S'lastUpdate'
p1640
sg18
S''
sg42
S'Date'
p1641
sg19
S''
sg15
g1640
sg28
Nsg44
S'The date and time of last update'
p1642
stRp1643
ag3
(g4
g5
(dp1644
g14
S''
sg40
S'serverType'
p1645
sg18
S''
sg42
S'ServerServiceType'
p1646
sg19
S''
sg15
g1645
sg28
Nsg44
S'The server services offered by this standby'
p1647
stRp1648
ag3
(g4
g5
(dp1649
g14
S''
sg40
S'persistedJnl'
p1650
sg18
S''
sg42
S'Int'
p1651
sg19
S''
sg15
g1650
sg28
Nsg44
S'The last journal number persisted by this standby'
p1652
stRp1653
ag3
(g4
g5
(dp1654
g14
S''
sg40
S'persistedPos'
p1655
sg18
S''
sg42
S'Int64'
p1656
sg19
S''
sg15
g1655
sg28
Nsg44
S'The last journal position persisted by this standby'
p1657
stRp1658
ag3
(g4
g5
(dp1659
g14
S''
sg40
S'isAlive'
p1660
sg18
S''
sg42
S'Int'
p1661
sg19
S''
sg15
g1660
sg28
Nsg44
S'1 = alive'
p1662
stRp1663
ag3
(g4
g5
(dp1664
g14
S''
sg40
S'appliedJnl'
p1665
sg18
S''
sg42
S'Int'
p1666
sg19
S''
sg15
g1665
sg28
Nsg44
S'The last journal number applied to this standby'
p1667
stRp1668
ag3
(g4
g5
(dp1669
g14
S''
sg40
S'appliedPos'
p1670
sg18
S''
sg42
S'Int64'
p1671
sg19
S''
sg15
g1670
sg28
Nsg44
S'The last journal position applied to this standby'
p1672
stRp1673
atRp1674
sg68
g1622
sg69
S'0'
sg70
g71
sg44
S'Tracks journal positions of all standby servers'
p1675
sg42
S'JnlAck'
p1676
sg74
S'84'
p1677
sg40
S'db.jnlack'
p1678
stRp1679
sS'excl'
p1680
g3
(g4
g5
(dp1681
g7
S'depotFile'
p1682
sg9
g3
(g10
g11
(lp1683
g3
(g4
g5
(dp1684
g14
S''
sg15
g16
sg17
g16
sg18
S''
sg19
S''
sg20
g21
sg22
g23
stRp1685
ag3
(g4
g5
(dp1686
g14
S''
sg17
g26
sg18
S''
sg20
g27
sg19
S''
sg15
g26
sg28
Nsg22
g29
stRp1687
ag3
(g4
g5
(dp1688
g14
S''
sg17
g32
sg18
S''
sg20
g21
sg19
S''
sg15
g32
sg28
Nsg22
g33
stRp1689
ag3
(g4
g5
(dp1690
g14
S''
sg17
g36
sg18
S''
sg20
g27
sg19
S''
sg15
g36
sg28
Nsg22
g37
stRp1691
ag3
(g4
g5
(dp1692
g14
S''
sg40
S'depotFile'
p1693
sg18
S''
sg42
S'File'
p1694
sg19
S''
sg15
g1693
sg28
Nsg44
S'The file locked'
p1695
stRp1696
ag3
(g4
g5
(dp1697
g14
S''
sg40
S'client'
p1698
sg18
S''
sg42
S'Domain'
p1699
sg19
S''
sg15
g1698
sg28
Nsg44
S'The client for which the file is locked'
p1700
stRp1701
ag3
(g4
g5
(dp1702
g14
S''
sg40
S'user'
p1703
sg18
S''
sg42
S'User'
p1704
sg19
S''
sg15
g1703
sg28
Nsg44
S'The user for which the file is locked'
p1705
stRp1706
atRp1707
sg68
g1680
sg69
S'1'
sg70
g71
sg44
S'Exclusively locked (+l) files -  enables coordinated file locking in commit/edge server environments'
p1708
sg42
S'ExclusiveLock'
p1709
sg74
S'53'
p1710
sg40
S'db.excl'
p1711
stRp1712
sS'resolvex'
p1713
g3
(g4
g5
(dp1714
g7
S'toFile, fromFile, startFromRev'
p1715
sg9
g3
(g10
g11
(lp1716
g3
(g4
g5
(dp1717
g14
S''
sg15
g16
sg17
g16
sg18
S''
sg19
S''
sg20
g21
sg22
g23
stRp1718
ag3
(g4
g5
(dp1719
g14
S''
sg17
g26
sg18
S''
sg20
g27
sg19
S''
sg15
g26
sg28
Nsg22
g29
stRp1720
ag3
(g4
g5
(dp1721
g14
S''
sg17
g32
sg18
S''
sg20
g21
sg19
S''
sg15
g32
sg28
Nsg22
g33
stRp1722
ag3
(g4
g5
(dp1723
g14
S''
sg17
g36
sg18
S''
sg20
g27
sg19
S''
sg15
g36
sg28
Nsg22
g37
stRp1724
ag3
(g4
g5
(dp1725
g14
S''
sg40
S'toFile'
p1726
sg18
S''
sg42
S'File'
p1727
sg19
S''
sg15
g1726
sg28
Nsg44
S'File to which integration is being performed (target).'
p1728
stRp1729
ag3
(g4
g5
(dp1730
g14
S''
sg40
S'fromFile'
p1731
sg18
S''
sg42
S'File'
p1732
sg19
S''
sg15
g1731
sg28
Nsg44
S'File from which integration is being performed (source).'
p1733
stRp1734
ag3
(g4
g5
(dp1735
g14
S''
sg40
S'startFromRev'
p1736
sg18
S''
sg42
S'Rev'
p1737
sg19
S''
sg15
g1736
sg28
Nsg44
S'Starting revision of fromFile'
p1738
stRp1739
ag3
(g4
g5
(dp1740
g14
S''
sg40
S'endFromRev'
p1741
sg18
S''
sg42
S'Rev'
p1742
sg19
S''
sg15
g1741
sg28
Nsg44
S'Ending revision of fromFile'
p1743
stRp1744
ag3
(g4
g5
(dp1745
g14
S''
sg40
S'startToRev'
p1746
sg18
S''
sg42
S'Rev'
p1747
sg19
S''
sg15
g1746
sg28
Nsg44
S'Start revision of toFile into which integration was \n\t\t    performed.'
p1748
stRp1749
ag3
(g4
g5
(dp1750
g14
S''
sg40
S'endToRev'
p1751
sg18
S''
sg42
S'Rev'
p1752
sg19
S''
sg15
g1751
sg28
Nsg44
S'End revision of toFile into which integration was \n\t\t    performed. Only varies from startToRev for reverse \n\t\t    integration records.'
p1753
stRp1754
ag3
(g4
g5
(dp1755
g14
S''
sg40
S'how'
p1756
sg18
S''
sg42
S'IntegHow'
p1757
sg19
S''
sg15
g1756
sg28
Nsg44
S'Integration method: variations on \n\t\t    merge/branch/copy/ignore/delete.'
p1758
stRp1759
ag3
(g4
g5
(dp1760
g14
S''
sg40
S'state'
p1761
sg18
S''
sg42
S'ResolveState'
p1762
sg19
S''
sg15
g1761
sg28
Nsg44
S'How the user performed the resolve.'
p1763
stRp1764
ag3
(g4
g5
(dp1765
g14
S''
sg40
S'baseFile'
p1766
sg18
S''
sg42
S'File'
p1767
sg19
S''
sg15
g1766
sg28
Nsg44
S'File used as the base for merging.'
p1768
stRp1769
ag3
(g4
g5
(dp1770
g14
S''
sg40
S'baseRev'
p1771
sg18
S''
sg42
S'Rev'
p1772
sg19
S''
sg15
g1771
sg28
Nsg44
S'Revision of baseFile used as the merge base.'
p1773
stRp1774
atRp1775
sg68
g1713
sg40
S'db.resolvex'
p1776
sg69
S'1'
sg70
g71
sg121
S'db.integed'
p1777
sg42
S'Resolve'
p1778
sg74
S'34'
p1779
sg44
S'Pending integration records for shelved files'
p1780
stRp1781
sS'archmap'
p1782
g3
(g4
g5
(dp1783
g7
S'lbrFile, depotFile'
p1784
sg9
g3
(g10
g11
(lp1785
g3
(g4
g5
(dp1786
g14
S''
sg15
g16
sg17
g16
sg18
S''
sg19
S''
sg20
g21
sg22
g23
stRp1787
ag3
(g4
g5
(dp1788
g14
S''
sg17
g26
sg18
S''
sg20
g27
sg19
S''
sg15
g26
sg28
Nsg22
g29
stRp1789
ag3
(g4
g5
(dp1790
g14
S''
sg17
g32
sg18
S''
sg20
g21
sg19
S''
sg15
g32
sg28
Nsg22
g33
stRp1791
ag3
(g4
g5
(dp1792
g14
S''
sg17
g36
sg18
S''
sg20
g27
sg19
S''
sg15
g36
sg28
Nsg22
g37
stRp1793
ag3
(g4
g5
(dp1794
g14
S''
sg40
S'lbrFile'
p1795
sg18
S''
sg42
S'File'
p1796
sg19
S''
sg15
g1795
sg28
Nsg44
S'Paths in the librarian namespace that receive lazy\n\t\t    copies.'
p1797
stRp1798
ag3
(g4
g5
(dp1799
g14
S''
sg40
S'depotFile'
p1800
sg18
S''
sg42
S'File'
p1801
sg19
S''
sg15
g1800
sg28
Nsg44
S'Paths in the depot namespace that provide lazy copies.'
p1802
stRp1803
atRp1804
sg68
g1782
sg1195
S'Supersedes db.archive'
p1805
sg69
S'0'
sg70
g71
sg44
S'Mapping entries for lazy-copies'
p1806
sg42
S'ArchMap'
p1807
sg74
S'36'
p1808
sg40
S'db.archmap'
p1809
stRp1810
sS'desc'
p1811
g3
(g4
g5
(dp1812
g7
S'descKey'
p1813
sg9
g3
(g10
g11
(lp1814
g3
(g4
g5
(dp1815
g14
S''
sg15
g16
sg17
g16
sg18
S''
sg19
S''
sg20
g21
sg22
g23
stRp1816
ag3
(g4
g5
(dp1817
g14
S''
sg17
g26
sg18
S''
sg20
g27
sg19
S''
sg15
g26
sg28
Nsg22
g29
stRp1818
ag3
(g4
g5
(dp1819
g14
S''
sg17
g32
sg18
S''
sg20
g21
sg19
S''
sg15
g32
sg28
Nsg22
g33
stRp1820
ag3
(g4
g5
(dp1821
g14
S''
sg17
g36
sg18
S''
sg20
g27
sg19
S''
sg15
g36
sg28
Nsg22
g37
stRp1822
ag3
(g4
g5
(dp1823
g14
S''
sg40
S'descKey'
p1824
sg18
S''
sg42
S'Change'
p1825
sg19
S''
sg15
g1824
sg28
Nsg44
S'Original number of the change to which this description\n\t\t    applies. This may differ from the final change number if\n\t\t    the change is renumbered on submission.'
p1826
stRp1827
ag3
(g4
g5
(dp1828
g14
S''
sg40
S'description'
p1829
sg18
S''
sg42
S'Text'
p1830
sg19
S''
sg15
g1829
sg28
Nsg44
S'The change description itself'
p1831
stRp1832
atRp1833
sg68
g1811
sg69
S'0'
sg70
g71
sg44
S'Change descriptions'
p1834
sg42
S'Desc'
p1835
sg74
S'59'
p1836
sg40
S'db.desc'
p1837
stRp1838
sS'resolve'
p1839
g3
(g4
g5
(dp1840
g7
S'toFile, fromFile, startFromRev'
p1841
sg9
g3
(g10
g11
(lp1842
g3
(g4
g5
(dp1843
g14
S''
sg15
g16
sg17
g16
sg18
S''
sg19
S''
sg20
g21
sg22
g23
stRp1844
ag3
(g4
g5
(dp1845
g14
S''
sg17
g26
sg18
S''
sg20
g27
sg19
S''
sg15
g26
sg28
Nsg22
g29
stRp1846
ag3
(g4
g5
(dp1847
g14
S''
sg17
g32
sg18
S''
sg20
g21
sg19
S''
sg15
g32
sg28
Nsg22
g33
stRp1848
ag3
(g4
g5
(dp1849
g14
S''
sg17
g36
sg18
S''
sg20
g27
sg19
S''
sg15
g36
sg28
Nsg22
g37
stRp1850
ag3
(g4
g5
(dp1851
g14
S''
sg40
g1726
sg18
S''
sg42
g1727
sg19
S''
sg15
g1726
sg28
Nsg44
g1728
stRp1852
ag3
(g4
g5
(dp1853
g14
S''
sg40
g1731
sg18
S''
sg42
g1732
sg19
S''
sg15
g1731
sg28
Nsg44
g1733
stRp1854
ag3
(g4
g5
(dp1855
g14
S''
sg40
g1736
sg18
S''
sg42
g1737
sg19
S''
sg15
g1736
sg28
Nsg44
g1738
stRp1856
ag3
(g4
g5
(dp1857
g14
S''
sg40
g1741
sg18
S''
sg42
g1742
sg19
S''
sg15
g1741
sg28
Nsg44
g1743
stRp1858
ag3
(g4
g5
(dp1859
g14
S''
sg40
g1746
sg18
S''
sg42
g1747
sg19
S''
sg15
g1746
sg28
Nsg44
g1748
stRp1860
ag3
(g4
g5
(dp1861
g14
S''
sg40
g1751
sg18
S''
sg42
g1752
sg19
S''
sg15
g1751
sg28
Nsg44
g1753
stRp1862
ag3
(g4
g5
(dp1863
g14
S''
sg40
g1756
sg18
S''
sg42
g1757
sg19
S''
sg15
g1756
sg28
Nsg44
g1758
stRp1864
ag3
(g4
g5
(dp1865
g14
S''
sg40
g1761
sg18
S''
sg42
g1762
sg19
S''
sg15
g1761
sg28
Nsg44
g1763
stRp1866
ag3
(g4
g5
(dp1867
g14
S''
sg40
g1766
sg18
S''
sg42
g1767
sg19
S''
sg15
g1766
sg28
Nsg44
g1768
stRp1868
ag3
(g4
g5
(dp1869
g14
S''
sg40
g1771
sg18
S''
sg42
g1772
sg19
S''
sg15
g1771
sg28
Nsg44
g1773
stRp1870
atRp1871
sg68
g1839
sg40
S'db.resolve'
p1872
sg69
S'1'
sg70
g71
sg121
S'db.integed'
p1873
sg42
S'Resolve'
p1874
sg74
S'33'
p1875
sg44
S'Pending integration records'
p1876
stRp1877
sS'traits'
p1878
g3
(g4
g5
(dp1879
g7
S'traitLot, name'
p1880
sg9
g3
(g10
g11
(lp1881
g3
(g4
g5
(dp1882
g14
S''
sg15
g16
sg17
g16
sg18
S''
sg19
S''
sg20
g21
sg22
g23
stRp1883
ag3
(g4
g5
(dp1884
g14
S''
sg17
g26
sg18
S''
sg20
g27
sg19
S''
sg15
g26
sg28
Nsg22
g29
stRp1885
ag3
(g4
g5
(dp1886
g14
S''
sg17
g32
sg18
S''
sg20
g21
sg19
S''
sg15
g32
sg28
Nsg22
g33
stRp1887
ag3
(g4
g5
(dp1888
g14
S''
sg17
g36
sg18
S''
sg20
g27
sg19
S''
sg15
g36
sg28
Nsg22
g37
stRp1889
ag3
(g4
g5
(dp1890
g14
S''
sg40
S'traitLot'
p1891
sg18
S''
sg42
S'Int'
p1892
sg19
S''
sg15
g1891
sg28
Nsg44
S'Indicates a specific collection of traits (referred to \n\t\t    externally as "attributes".)'
p1893
stRp1894
ag3
(g4
g5
(dp1895
g14
S''
sg40
S'name'
p1896
sg18
S''
sg42
S'String'
p1897
sg19
S''
sg15
g1896
sg28
Nsg44
S'Trait (attribute) name'
p1898
stRp1899
ag3
(g4
g5
(dp1900
g14
S''
sg40
S'type'
p1901
sg18
S''
sg42
S'TraitType'
p1902
sg19
S''
sg15
g1901
sg28
Nsg44
S'Type of trait'
p1903
stRp1904
ag3
(g4
g5
(dp1905
g14
S''
sg40
S'value'
p1906
sg18
S''
sg42
S'Octet String'
p1907
sg19
S''
sg15
g1906
sg28
Nsg44
S'The value'
p1908
stRp1909
atRp1910
sg68
g1878
sg69
S'0'
sg70
g71
sg44
S'Attributes associated with file revisions'
p1911
sg42
S'Trait'
p1912
sg74
S'54'
p1913
sg40
S'db.traits'
p1914
stRp1915
sS'ref'
p1916
g3
(g4
g5
(dp1917
g7
S'repo, name, type'
p1918
sg9
g3
(g10
g11
(lp1919
g3
(g4
g5
(dp1920
g14
S''
sg15
g16
sg17
g16
sg18
S''
sg19
S''
sg20
g21
sg22
g23
stRp1921
ag3
(g4
g5
(dp1922
g14
S''
sg17
g26
sg18
S''
sg20
g27
sg19
S''
sg15
g26
sg28
Nsg22
g29
stRp1923
ag3
(g4
g5
(dp1924
g14
S''
sg17
g32
sg18
S''
sg20
g21
sg19
S''
sg15
g32
sg28
Nsg22
g33
stRp1925
ag3
(g4
g5
(dp1926
g14
S''
sg17
g36
sg18
S''
sg20
g27
sg19
S''
sg15
g36
sg28
Nsg22
g37
stRp1927
ag3
(g4
g5
(dp1928
g14
S''
sg40
S'repo'
p1929
sg18
S''
sg42
S'String'
p1930
sg19
S''
sg15
g1929
sg28
Nsg44
S'Repository name'
p1931
stRp1932
ag3
(g4
g5
(dp1933
g14
S''
sg40
S'name'
p1934
sg18
S''
sg42
S'String'
p1935
sg19
S''
sg15
g1934
sg28
Nsg44
S'Reference name'
p1936
stRp1937
ag3
(g4
g5
(dp1938
g14
S''
sg40
S'type'
p1939
sg18
S''
sg42
S'RefType'
p1940
sg19
S''
sg15
g1939
sg28
Nsg44
S'Reference type'
p1941
stRp1942
ag3
(g4
g5
(dp1943
g14
S''
sg40
S'ref'
p1944
sg18
S''
sg42
S'SHA1'
p1945
sg19
S''
sg15
g1944
sg28
Nsg44
S'Target of the reference'
p1946
stRp1947
ag3
(g4
g5
(dp1948
g14
S''
sg40
S'symref'
p1949
sg18
S''
sg42
S'String'
p1950
sg19
S''
sg15
g1949
sg28
Nsg44
S'Target of symbolic reference'
p1951
stRp1952
atRp1953
sg68
g1916
sg69
S'0'
sg70
g71
sg44
S'Reference content for graph depots'
p1954
sg42
S'Ref'
p1955
sg74
S'62'
p1956
sg40
S'db.ref'
p1957
stRp1958
sS'server'
p1959
g3
(g4
g5
(dp1960
g7
S'id'
p1961
sg9
g3
(g10
g11
(lp1962
g3
(g4
g5
(dp1963
g14
S''
sg15
g16
sg17
g16
sg18
S''
sg19
S''
sg20
g21
sg22
g23
stRp1964
ag3
(g4
g5
(dp1965
g14
S''
sg17
g26
sg18
S''
sg20
g27
sg19
S''
sg15
g26
sg28
Nsg22
g29
stRp1966
ag3
(g4
g5
(dp1967
g14
S''
sg17
g32
sg18
S''
sg20
g21
sg19
S''
sg15
g32
sg28
Nsg22
g33
stRp1968
ag3
(g4
g5
(dp1969
g14
S''
sg17
g36
sg18
S''
sg20
g27
sg19
S''
sg15
g36
sg28
Nsg22
g37
stRp1970
ag3
(g4
g5
(dp1971
g14
S''
sg40
S'id'
p1972
sg18
S''
sg42
S'Text'
p1973
sg19
S''
sg15
g1972
sg28
Nsg44
S'The server identifier'
p1974
stRp1975
ag3
(g4
g5
(dp1976
g14
S''
sg40
S'type'
p1977
sg18
S''
sg42
S'ServerType'
p1978
sg19
S''
sg15
g1977
sg28
Nsg44
S'The server type: server/broker/proxy'
p1979
stRp1980
ag3
(g4
g5
(dp1981
g14
S''
sg40
S'name'
p1982
sg18
S''
sg42
S'Text'
p1983
sg19
S''
sg15
g1982
sg28
Nsg44
S'The P4NAME used by this server'
p1984
stRp1985
ag3
(g4
g5
(dp1986
g14
S''
sg40
S'address'
p1987
sg18
S''
sg42
S'Text'
p1988
sg19
S''
sg15
g1987
sg28
Nsg44
S'The P4PORT used by this server'
p1989
stRp1990
ag3
(g4
g5
(dp1991
g14
S''
sg40
S'externalAddress'
p1992
sg18
S''
sg42
S'Text'
p1993
sg19
S''
sg15
g1992
sg28
Nsg44
S'For an edge server, this optional field contains its external address for connections from the commit server. This field is required for federated parallel submit.'
p1994
stRp1995
ag3
(g4
g5
(dp1996
g14
S''
sg40
S'services'
p1997
sg18
S''
sg42
S'ServerServiceType'
p1998
sg19
S''
sg15
g1997
sg28
Nsg44
S'Service provided by this server'
p1999
stRp2000
ag3
(g4
g5
(dp2001
g14
S''
sg40
S'desc'
p2002
sg18
S''
sg42
S'Text'
p2003
sg19
S''
sg15
g2002
sg28
Nsg44
S'Server description'
p2004
stRp2005
ag3
(g4
g5
(dp2006
g14
S''
sg40
S'user'
p2007
sg18
S''
sg42
S'User'
p2008
sg19
S''
sg15
g2007
sg28
Nsg44
S'The service user used by this server'
p2009
stRp2010
atRp2011
sg68
g1959
sg69
S'2'
sg70
g71
sg44
S'Server specifications'
p2012
sg42
S'Server'
p2013
sg74
S'6'
sg40
S'db.server'
p2014
stRp2015
sS'property'
p2016
g3
(g4
g5
(dp2017
g7
S'name, seq, type, scope'
p2018
sg9
g3
(g10
g11
(lp2019
g3
(g4
g5
(dp2020
g14
S''
sg15
g16
sg17
g16
sg18
S''
sg19
S''
sg20
g21
sg22
g23
stRp2021
ag3
(g4
g5
(dp2022
g14
S''
sg17
g26
sg18
S''
sg20
g27
sg19
S''
sg15
g26
sg28
Nsg22
g29
stRp2023
ag3
(g4
g5
(dp2024
g14
S''
sg17
g32
sg18
S''
sg20
g21
sg19
S''
sg15
g32
sg28
Nsg22
g33
stRp2025
ag3
(g4
g5
(dp2026
g14
S''
sg17
g36
sg18
S''
sg20
g27
sg19
S''
sg15
g36
sg28
Nsg22
g37
stRp2027
ag3
(g4
g5
(dp2028
g14
S''
sg40
S'name'
p2029
sg18
S''
sg42
S'String'
p2030
sg19
S''
sg15
g2029
sg28
Nsg44
S'The property name'
p2031
stRp2032
ag3
(g4
g5
(dp2033
g14
S''
sg40
S'sequence'
p2034
sg18
S''
sg42
S'String'
p2035
sg19
S''
sg15
g2034
sg28
Nsg44
S'Sequence number of property'
p2036
stRp2037
ag3
(g4
g5
(dp2038
g14
S''
sg40
S'type'
p2039
sg18
S''
sg42
S'Int'
p2040
sg19
S''
sg15
g2039
sg28
Nsg44
S"1=user, 2=group; set if '-u | -g' option used with 'p4 property'"
p2041
stRp2042
ag3
(g4
g5
(dp2043
g14
S''
sg40
S'scope'
p2044
sg18
S''
sg42
S'String'
p2045
sg19
S''
sg15
g2044
sg28
Nsg44
S'The user or group the property applies to'
p2046
stRp2047
ag3
(g4
g5
(dp2048
g14
S''
sg40
S'value'
p2049
sg18
S''
sg42
S'String'
p2050
sg19
S''
sg15
g2049
sg28
Nsg44
S'The property value'
p2051
stRp2052
ag3
(g4
g5
(dp2053
g14
S''
sg40
S'date'
p2054
sg18
S''
sg42
S'String'
p2055
sg19
S''
sg15
g2054
sg28
Nsg44
S'The date/time the property was last updated'
p2056
stRp2057
ag3
(g4
g5
(dp2058
g14
S''
sg40
S'user'
p2059
sg18
S''
sg42
S'String'
p2060
sg19
S''
sg15
g2059
sg28
Nsg44
S'The user that last modified the property'
p2061
stRp2062
atRp2063
sg68
g2016
sg69
S'0'
sg70
g71
sg44
S'Properties'
p2064
sg42
S'Property'
p2065
sg74
S'81'
p2066
sg40
S'db.property'
p2067
stRp2068
sS'view'
p2069
g3
(g4
g5
(dp2070
g7
S'name, seq'
p2071
sg9
g3
(g10
g11
(lp2072
g3
(g4
g5
(dp2073
g14
S''
sg15
g16
sg17
g16
sg18
S''
sg19
S''
sg20
g21
sg22
g23
stRp2074
ag3
(g4
g5
(dp2075
g14
S''
sg17
g26
sg18
S''
sg20
g27
sg19
S''
sg15
g26
sg28
Nsg22
g29
stRp2076
ag3
(g4
g5
(dp2077
g14
S''
sg17
g32
sg18
S''
sg20
g21
sg19
S''
sg15
g32
sg28
Nsg22
g33
stRp2078
ag3
(g4
g5
(dp2079
g14
S''
sg17
g36
sg18
S''
sg20
g27
sg19
S''
sg15
g36
sg28
Nsg22
g37
stRp2080
ag3
(g4
g5
(dp2081
g14
S''
sg40
S'name'
p2082
sg18
S''
sg42
S'Domain'
p2083
sg19
S''
sg15
g2082
sg28
Nsg44
S'Domain name to which this view applies'
p2084
stRp2085
ag3
(g4
g5
(dp2086
g14
S''
sg40
S'seq'
p2087
sg18
S''
sg42
S'Int'
p2088
sg19
S''
sg15
g2087
sg28
Nsg44
S'Sequence number: for ordering multi-line views'
p2089
stRp2090
ag3
(g4
g5
(dp2091
g14
S''
sg40
S'mapFlag'
p2092
sg18
S''
sg42
S'MapFlag'
p2093
sg19
S''
sg15
g2092
sg28
Nsg44
S'Type of mapping'
p2094
stRp2095
ag3
(g4
g5
(dp2096
g14
S''
sg40
S'viewFile'
p2097
sg18
S''
sg42
S'Mapping'
p2098
sg19
S''
sg15
g2097
sg28
Nsg44
S"The right-hand-side of the view. For clients, this is\n\t\t    the client-side, for labels it's the generated label \n\t\t    view. For branches, it's the target side of the branch\n\t\t    view."
p2099
stRp2100
ag3
(g4
g5
(dp2101
g14
S''
sg40
S'depotFile'
p2102
sg18
S''
sg42
S'Mapping'
p2103
sg19
S''
sg15
g2102
sg28
Nsg44
S'The left-hand-side of the view - a mapping to file(s)\n\t\t    in the depot.'
p2104
stRp2105
atRp2106
sg68
g2069
sg69
S'1'
sg70
g71
sg44
S'View data for domain records'
p2107
sg42
S'View'
p2108
sg74
S'24'
p2109
sg40
S'db.view'
p2110
stRp2111
sS'user'
p2112
g3
(g4
g5
(dp2113
g7
S'user'
p2114
sg9
g3
(g10
g11
(lp2115
g3
(g4
g5
(dp2116
g14
S''
sg15
g16
sg17
g16
sg18
S''
sg19
S''
sg20
g21
sg22
g23
stRp2117
ag3
(g4
g5
(dp2118
g14
S''
sg17
g26
sg18
S''
sg20
g27
sg19
S''
sg15
g26
sg28
Nsg22
g29
stRp2119
ag3
(g4
g5
(dp2120
g14
S''
sg17
g32
sg18
S''
sg20
g21
sg19
S''
sg15
g32
sg28
Nsg22
g33
stRp2121
ag3
(g4
g5
(dp2122
g14
S''
sg17
g36
sg18
S''
sg20
g27
sg19
S''
sg15
g36
sg28
Nsg22
g37
stRp2123
ag3
(g4
g5
(dp2124
g14
S''
sg40
S'user'
p2125
sg18
S''
sg42
S'User'
p2126
sg19
S''
sg15
g2125
sg28
Nsg44
S'The username'
p2127
stRp2128
ag3
(g4
g5
(dp2129
g14
S''
sg40
S'email'
p2130
sg18
S''
sg42
S'Text'
p2131
sg19
S''
sg15
g2130
sg28
Nsg44
S"The user's email address"
p2132
stRp2133
ag3
(g4
g5
(dp2134
g14
S''
sg40
S'jobView'
p2135
sg18
S''
sg42
S'Text'
p2136
sg19
S''
sg15
g2135
sg28
Nsg44
S"The user's job view"
p2137
stRp2138
ag3
(g4
g5
(dp2139
g14
S''
sg40
S'updateDate'
p2140
sg18
S''
sg42
S'Date'
p2141
sg19
S''
sg15
g2140
sg28
Nsg44
S'The date/time the user record was last updated'
p2142
stRp2143
ag3
(g4
g5
(dp2144
g14
S''
sg40
S'accessDate'
p2145
sg18
S''
sg42
S'Date'
p2146
sg19
S''
sg15
g2145
sg28
Nsg44
S'The date/time the user record was last used'
p2147
stRp2148
ag3
(g4
g5
(dp2149
g14
S''
sg40
S'fullName'
p2150
sg18
S''
sg42
S'Text'
p2151
sg19
S''
sg15
g2150
sg28
Nsg44
S"The user's full name"
p2152
stRp2153
ag3
(g4
g5
(dp2154
g14
S''
sg40
S'password'
p2155
sg18
S''
sg42
S'Password'
p2156
sg19
S''
sg15
g2155
sg28
Nsg44
S'The MD5 hash of the users (encrypted) password'
p2157
stRp2158
ag3
(g4
g5
(dp2159
g14
S''
sg40
S'strength'
p2160
sg18
S''
sg42
S'Strength'
p2161
sg19
S''
sg15
g2160
sg28
Nsg44
S"Measure of the strength of the user's password"
p2162
stRp2163
ag3
(g4
g5
(dp2164
g14
S''
sg40
S'ticket'
p2165
sg18
S''
sg42
S'Password'
p2166
sg19
S''
sg15
g2165
sg28
Nsg44
S"'p4 login' ticket for this user"
p2167
stRp2168
ag3
(g4
g5
(dp2169
g14
S''
sg40
S'endDate'
p2170
sg18
S''
sg42
S'Date'
p2171
sg19
S''
sg15
g2170
sg28
Nsg44
S"Date/time the user's ticket expires"
p2172
stRp2173
ag3
(g4
g5
(dp2174
g14
S''
sg40
S'type'
p2175
sg18
S''
sg42
S'UserLevel'
p2176
sg19
S''
sg15
g2175
sg28
Nsg44
S'Type of user'
p2177
stRp2178
ag3
(g4
g5
(dp2179
g14
S''
sg40
S'passDate'
p2180
sg18
S''
sg42
S'Date'
p2181
sg19
S''
sg15
g2180
sg28
Nsg44
S'Date password was last changed'
p2182
stRp2183
ag3
(g4
g5
(dp2184
g14
S''
sg40
S'passExpire'
p2185
sg18
S''
sg42
S'Date'
p2186
sg19
S''
sg15
g2185
sg28
Nsg44
S'Date of password expiration'
p2187
stRp2188
ag3
(g4
g5
(dp2189
g14
S''
sg40
S'attempts'
p2190
sg18
S''
sg42
S'Date'
p2191
sg19
S''
sg15
g2190
sg28
Nsg44
S'Failed login attempts'
p2192
stRp2193
ag3
(g4
g5
(dp2194
g14
S''
sg40
S'auth'
p2195
sg18
S''
sg42
S'UserAuthType'
p2196
sg19
S''
sg15
g2195
sg28
Nsg44
S'Authentication method (AuthMethod) for the user'
p2197
stRp2198
atRp2199
sg68
g2112
sg69
S'7'
sg70
g71
sg44
S'User specifications'
p2200
sg42
S'User'
p2201
sg74
S'12'
p2202
sg40
S'db.user'
p2203
stRp2204
sS'domain'
p2205
g3
(g4
g5
(dp2206
g7
S'name'
p2207
sg9
g3
(g10
g11
(lp2208
g3
(g4
g5
(dp2209
g14
S''
sg15
g16
sg17
g16
sg18
S''
sg19
S''
sg20
g21
sg22
g23
stRp2210
ag3
(g4
g5
(dp2211
g14
S''
sg17
g26
sg18
S''
sg20
g27
sg19
S''
sg15
g26
sg28
Nsg22
g29
stRp2212
ag3
(g4
g5
(dp2213
g14
S''
sg17
g32
sg18
S''
sg20
g21
sg19
S''
sg15
g32
sg28
Nsg22
g33
stRp2214
ag3
(g4
g5
(dp2215
g14
S''
sg17
g36
sg18
S''
sg20
g27
sg19
S''
sg15
g36
sg28
Nsg22
g37
stRp2216
ag3
(g4
g5
(dp2217
g14
S''
sg40
S'name'
p2218
sg18
S''
sg42
S'Domain'
p2219
sg19
S''
sg15
g2218
sg28
Nsg44
S'Domain name'
p2220
stRp2221
ag3
(g4
g5
(dp2222
g14
S''
sg40
S'type'
p2223
sg18
S''
sg42
S'DomainType'
p2224
sg19
S''
sg15
g2223
sg28
Nsg44
S'Type of domain'
p2225
stRp2226
ag3
(g4
g5
(dp2227
g14
S''
sg40
S'extra'
p2228
sg18
S''
sg42
S'Text'
p2229
sg19
S''
sg15
g2228
sg28
Nsg44
S'Formerly "host". Associated host or, for labels, revision \n\t\t    number.'
p2230
stRp2231
ag3
(g4
g5
(dp2232
g14
S''
sg40
S'mount'
p2233
sg18
S''
sg42
S'Text'
p2234
sg19
S''
sg15
g2233
sg28
Nsg44
S'The client root'
p2235
stRp2236
ag3
(g4
g5
(dp2237
g14
S''
sg40
S'mount2'
p2238
sg18
S''
sg42
S'Text'
p2239
sg19
S''
sg15
g2238
sg28
Nsg44
S'Alternate client root'
p2240
stRp2241
ag3
(g4
g5
(dp2242
g14
S''
sg40
S'mount3'
p2243
sg18
S''
sg42
S'Text'
p2244
sg19
S''
sg15
g2243
sg28
Nsg44
S'Alternate client root'
p2245
stRp2246
ag3
(g4
g5
(dp2247
g14
S''
sg40
S'owner'
p2248
sg18
S''
sg42
S'User'
p2249
sg19
S''
sg15
g2248
sg28
Nsg44
S'Name of user who owns the domain.'
p2250
stRp2251
ag3
(g4
g5
(dp2252
g14
S''
sg40
S'updateDate'
p2253
sg18
S''
sg42
S'Date'
p2254
sg19
S''
sg15
g2253
sg28
Nsg44
S'Date of last update to domain specification.'
p2255
stRp2256
ag3
(g4
g5
(dp2257
g14
S''
sg40
S'accessDate'
p2258
sg18
S''
sg42
S'Date'
p2259
sg19
S''
sg15
g2258
sg28
Nsg44
S'Date of last access to domain specification.'
p2260
stRp2261
ag3
(g4
g5
(dp2262
g14
S''
sg40
S'options'
p2263
sg18
S''
sg42
S'DomainOpts'
p2264
sg19
S''
sg15
g2263
sg28
Nsg44
S'Options for client, label, and branch domains.'
p2265
stRp2266
ag3
(g4
g5
(dp2267
g14
S''
sg40
S'description'
p2268
sg18
S''
sg42
S'Text'
p2269
sg19
S''
sg15
g2268
sg28
Nsg44
S'Description of domain.'
p2270
stRp2271
ag3
(g4
g5
(dp2272
g14
S''
sg40
S'stream'
p2273
sg18
S''
sg42
S'Domain'
p2274
sg19
S''
sg15
g2273
sg28
Nsg44
S'Associated stream for client records'
p2275
stRp2276
ag3
(g4
g5
(dp2277
g14
S''
sg40
S'serverid'
p2278
sg18
S''
sg42
S'Text'
p2279
sg19
S''
sg15
g2278
sg28
Nsg44
S'Associated server ID for client records'
p2280
stRp2281
ag3
(g4
g5
(dp2282
g14
S''
sg40
S'contents'
p2283
sg18
S''
sg42
S'Int'
p2284
sg19
S''
sg15
g2283
sg28
Nsg44
S'Client domain contents. 1: Maps only classic depot files, 2: Maps only graph depot files, 3: Maps both classic and graph depot files'
p2285
stRp2286
atRp2287
sg68
g2205
sg69
S'7'
sg70
g71
sg44
S'Domains: depots, clients, labels, branches, streams, and typemap'
p2288
sg42
S'Domain'
p2289
sg74
S'19'
p2290
sg40
S'db.domain'
p2291
stRp2292
sS'stream'
p2293
g3
(g4
g5
(dp2294
g7
S'stream'
p2295
sg9
g3
(g10
g11
(lp2296
g3
(g4
g5
(dp2297
g14
S''
sg15
g16
sg17
g16
sg18
S''
sg19
S''
sg20
g21
sg22
g23
stRp2298
ag3
(g4
g5
(dp2299
g14
S''
sg17
g26
sg18
S''
sg20
g27
sg19
S''
sg15
g26
sg28
Nsg22
g29
stRp2300
ag3
(g4
g5
(dp2301
g14
S''
sg17
g32
sg18
S''
sg20
g21
sg19
S''
sg15
g32
sg28
Nsg22
g33
stRp2302
ag3
(g4
g5
(dp2303
g14
S''
sg17
g36
sg18
S''
sg20
g27
sg19
S''
sg15
g36
sg28
Nsg22
g37
stRp2304
ag3
(g4
g5
(dp2305
g14
S''
sg40
S'stream'
p2306
sg18
S''
sg42
S'Domain'
p2307
sg19
S''
sg15
g2306
sg28
Nsg44
S'Stream name'
p2308
stRp2309
ag3
(g4
g5
(dp2310
g14
S''
sg40
S'parent'
p2311
sg18
S''
sg42
S'Domain'
p2312
sg19
S''
sg15
g2311
sg28
Nsg44
S'Parent stream name'
p2313
stRp2314
ag3
(g4
g5
(dp2315
g14
S''
sg40
S'title'
p2316
sg18
S''
sg42
S'Text'
p2317
sg19
S''
sg15
g2316
sg28
Nsg44
S'Stream title (alias for the stream name)'
p2318
stRp2319
ag3
(g4
g5
(dp2320
g14
S''
sg40
S'type'
p2321
sg18
S''
sg42
S'StreamType'
p2322
sg19
S''
sg15
g2321
sg28
Nsg44
S'The type of stream'
p2323
stRp2324
ag3
(g4
g5
(dp2325
g14
S''
sg40
S'preview'
p2326
sg18
S''
sg42
S'Date'
p2327
sg19
S''
sg15
g2326
sg28
Nsg44
S'Stream template modification time'
p2328
stRp2329
ag3
(g4
g5
(dp2330
g14
S''
sg40
S'change'
p2331
sg18
S''
sg42
S'Change'
p2332
sg19
S''
sg15
g2331
sg28
Nsg44
S'Last submit to stream'
p2333
stRp2334
ag3
(g4
g5
(dp2335
g14
S''
sg40
S'copychg'
p2336
sg18
S''
sg42
S'Change'
p2337
sg19
S''
sg15
g2336
sg28
Nsg44
S'Parent change at last copy'
p2338
stRp2339
ag3
(g4
g5
(dp2340
g14
S''
sg40
S'mergechg'
p2341
sg18
S''
sg42
S'Change'
p2342
sg19
S''
sg15
g2341
sg28
Nsg44
S'Parent change at last merge'
p2343
stRp2344
ag3
(g4
g5
(dp2345
g14
S''
sg40
S'highchg'
p2346
sg18
S''
sg42
S'Change'
p2347
sg19
S''
sg15
g2346
sg28
Nsg44
S'Highest change at last merge'
p2348
stRp2349
ag3
(g4
g5
(dp2350
g14
S''
sg40
S'hash'
p2351
sg18
S''
sg42
S'Int'
p2352
sg19
S''
sg15
g2351
sg28
Nsg44
S'Hash value of dynamic branch'
p2353
stRp2354
ag3
(g4
g5
(dp2355
g14
S''
sg40
S'status'
p2356
sg18
S''
sg42
S'StreamStatus'
p2357
sg19
S''
sg15
g2356
sg28
Nsg44
S'Flow status'
p2358
stRp2359
atRp2360
sg68
g2293
sg69
S'1'
sg70
g71
sg44
S'Stream specifications'
p2361
sg42
S'Stream'
p2362
sg74
S'18'
p2363
sg40
S'db.stream'
p2364
stRp2365
sS'sendq'
p2366
g3
(g4
g5
(dp2367
g7
S'taskid, seq'
p2368
sg9
g3
(g10
g11
(lp2369
g3
(g4
g5
(dp2370
g14
S''
sg15
g16
sg17
g16
sg18
S''
sg19
S''
sg20
g21
sg22
g23
stRp2371
ag3
(g4
g5
(dp2372
g14
S''
sg17
g26
sg18
S''
sg20
g27
sg19
S''
sg15
g26
sg28
Nsg22
g29
stRp2373
ag3
(g4
g5
(dp2374
g14
S''
sg17
g32
sg18
S''
sg20
g21
sg19
S''
sg15
g32
sg28
Nsg22
g33
stRp2375
ag3
(g4
g5
(dp2376
g14
S''
sg17
g36
sg18
S''
sg20
g27
sg19
S''
sg15
g36
sg28
Nsg22
g37
stRp2377
ag3
(g4
g5
(dp2378
g14
S''
sg40
S'taskID'
p2379
sg18
S''
sg42
S'Int'
p2380
sg19
S''
sg15
g2379
sg28
Nsg44
S'The process id (PID) of the sync'
p2381
stRp2382
ag3
(g4
g5
(dp2383
g14
S''
sg40
S'seq'
p2384
sg18
S''
sg42
S'Int'
p2385
sg19
S''
sg15
g2384
sg28
Nsg44
S'Sequence number'
p2386
stRp2387
ag3
(g4
g5
(dp2388
g14
S''
sg40
S'handle'
p2389
sg18
S''
sg42
S'Text'
p2390
sg19
S''
sg15
g2389
sg28
Nsg44
S'Handle'
p2391
stRp2392
ag3
(g4
g5
(dp2393
g14
S''
sg40
S'depotFile'
p2394
sg18
S''
sg42
S'File'
p2395
sg19
S''
sg15
g2394
sg28
Nsg44
S'The file in the depot'
p2396
stRp2397
ag3
(g4
g5
(dp2398
g14
S''
sg40
S'clientFile'
p2399
sg18
S''
sg42
S'File'
p2400
sg19
S''
sg15
g2399
sg28
Nsg44
S'The file in its location on the client'
p2401
stRp2402
ag3
(g4
g5
(dp2403
g14
S''
sg40
S'haveRev'
p2404
sg18
S''
sg42
S'Rev'
p2405
sg19
S''
sg15
g2404
sg28
Nsg44
S'Have revision'
p2406
stRp2407
ag3
(g4
g5
(dp2408
g14
S''
sg40
S'type'
p2409
sg18
S''
sg42
S'FileType'
p2410
sg19
S''
sg15
g2409
sg28
Nsg44
S'File type'
p2411
stRp2412
ag3
(g4
g5
(dp2413
g14
S''
sg40
S'modtime'
p2414
sg18
S''
sg42
S'Date'
p2415
sg19
S''
sg15
g2414
sg28
Nsg44
S'Modification time'
p2416
stRp2417
ag3
(g4
g5
(dp2418
g14
S''
sg40
S'digest'
p2419
sg18
S''
sg42
S'Digest'
p2420
sg19
S''
sg15
g2419
sg28
Nsg44
S'The MD5 digest of the revision'
p2421
stRp2422
ag3
(g4
g5
(dp2423
g14
S''
sg40
S'size'
p2424
sg18
S''
sg42
S'FileSize'
p2425
sg19
S''
sg15
g2424
sg28
Nsg44
S'The size of the file in bytes'
p2426
stRp2427
ag3
(g4
g5
(dp2428
g14
S''
sg40
S'lbrFile'
p2429
sg18
S''
sg42
S'File'
p2430
sg19
S''
sg15
g2429
sg28
Nsg44
S'Librarian filename'
p2431
stRp2432
ag3
(g4
g5
(dp2433
g14
S''
sg40
S'lbrRev'
p2434
sg18
S''
sg42
S'LbrRev'
p2435
sg19
S''
sg15
g2434
sg28
Nsg44
S'The revision of lbrFile that contains the revision content'
p2436
stRp2437
ag3
(g4
g5
(dp2438
g14
S''
sg40
S'lbrType'
p2439
sg18
S''
sg42
S'FileType'
p2440
sg19
S''
sg15
g2439
sg28
Nsg44
S'The file type of the librarian revision'
p2441
stRp2442
ag3
(g4
g5
(dp2443
g14
S''
sg40
S'flags'
p2444
sg18
S''
sg42
S'Int'
p2445
sg19
S''
sg15
g2444
sg28
Nsg44
S'Flags'
p2446
stRp2447
ag3
(g4
g5
(dp2448
g14
S''
sg40
S'clientType'
p2449
sg18
S''
sg42
S'FileType'
p2450
sg19
S''
sg15
g2449
sg28
Nsg44
S'The client file type of the revision'
p2451
stRp2452
ag3
(g4
g5
(dp2453
g14
S''
sg40
S'bsha'
p2454
sg18
S''
sg42
S'SHA1'
p2455
sg19
S''
sg15
g2454
sg28
Nsg44
S'The Blob SHA'
p2456
stRp2457
ag3
(g4
g5
(dp2458
g14
S''
sg40
S'reposlot'
p2459
sg18
S''
sg42
S'Int'
p2460
sg19
S''
sg15
g2459
sg28
Nsg44
S'reposlot'
p2461
stRp2462
ag3
(g4
g5
(dp2463
g14
S''
sg40
S'sdigest'
p2464
sg18
S''
sg42
S'Digest'
p2465
sg19
S''
sg15
g2464
sg28
Nsg44
S'sdigest'
p2466
stRp2467
atRp2468
sg68
g2366
sg69
S'4'
sg70
g71
sg44
S'Parallel file transmission work queue'
p2469
sg42
S'SendQ'
p2470
sg74
S'83'
p2471
sg40
S'db.sendq'
p2472
stRp2473
sS'locks'
p2474
g3
(g4
g5
(dp2475
g7
S'depotFile, client'
p2476
sg9
g3
(g10
g11
(lp2477
g3
(g4
g5
(dp2478
g14
S''
sg15
g16
sg17
g16
sg18
S''
sg19
S''
sg20
g21
sg22
g23
stRp2479
ag3
(g4
g5
(dp2480
g14
S''
sg17
g26
sg18
S''
sg20
g27
sg19
S''
sg15
g26
sg28
Nsg22
g29
stRp2481
ag3
(g4
g5
(dp2482
g14
S''
sg17
g32
sg18
S''
sg20
g21
sg19
S''
sg15
g32
sg28
Nsg22
g33
stRp2483
ag3
(g4
g5
(dp2484
g14
S''
sg17
g36
sg18
S''
sg20
g27
sg19
S''
sg15
g36
sg28
Nsg22
g37
stRp2485
ag3
(g4
g5
(dp2486
g14
S''
sg40
S'depotFile'
p2487
sg18
S''
sg42
S'File'
p2488
sg19
S''
sg15
g2487
sg28
Nsg44
S'File in depot'
p2489
stRp2490
ag3
(g4
g5
(dp2491
g14
S''
sg40
S'client'
p2492
sg18
S''
sg42
S'Domain'
p2493
sg19
S''
sg15
g2492
sg28
Nsg44
S'Domain (client) in which file is open'
p2494
stRp2495
ag3
(g4
g5
(dp2496
g14
S''
sg40
S'user'
p2497
sg18
S''
sg42
S'User'
p2498
sg19
S''
sg15
g2497
sg28
Nsg44
S'User who presently has the file open'
p2499
stRp2500
ag3
(g4
g5
(dp2501
g14
S''
sg40
S'action'
p2502
sg18
S''
sg42
S'Action'
p2503
sg19
S''
sg15
g2502
sg28
Nsg44
S'Action file is open for: add, edit, delete, branch,\n\t\t    integrate, or import'
p2504
stRp2505
ag3
(g4
g5
(dp2506
g14
S''
sg40
S'isLocked'
p2507
sg18
S''
sg42
S'Int'
p2508
sg19
S''
sg15
g2507
sg28
Nsg44
S'Flag: 0 for unlocked, 1 for locked'
p2509
stRp2510
ag3
(g4
g5
(dp2511
g14
S''
sg40
S'change'
p2512
sg18
S''
sg42
S'Int'
p2513
sg19
S''
sg15
g2512
sg28
Nsg44
S'Changelist in which the revision is open: 0 for the\n\t\t    default changelist'
p2514
stRp2515
atRp2516
sg68
g2474
sg69
S'2'
sg70
g71
sg44
S'Locked/Unlocked files'
p2517
sg42
S'Locks'
p2518
sg74
S'47'
p2519
sg40
S'db.locks'
p2520
stRp2521
sS'have'
p2522
g3
(g4
g5
(dp2523
g7
S'clientFile'
p2524
sg9
g3
(g10
g11
(lp2525
g3
(g4
g5
(dp2526
g14
S''
sg15
g16
sg17
g16
sg18
S''
sg19
S''
sg20
g21
sg22
g23
stRp2527
ag3
(g4
g5
(dp2528
g14
S''
sg17
g26
sg18
S''
sg20
g27
sg19
S''
sg15
g26
sg28
Nsg22
g29
stRp2529
ag3
(g4
g5
(dp2530
g14
S''
sg17
g32
sg18
S''
sg20
g21
sg19
S''
sg15
g32
sg28
Nsg22
g33
stRp2531
ag3
(g4
g5
(dp2532
g14
S''
sg17
g36
sg18
S''
sg20
g27
sg19
S''
sg15
g36
sg28
Nsg22
g37
stRp2533
ag3
(g4
g5
(dp2534
g14
S''
sg40
g457
sg18
S''
sg42
g458
sg19
S''
sg15
g457
sg28
Nsg44
g459
stRp2535
ag3
(g4
g5
(dp2536
g14
S''
sg40
g462
sg18
S''
sg42
g463
sg19
S''
sg15
g462
sg28
Nsg44
g464
stRp2537
ag3
(g4
g5
(dp2538
g14
S''
sg40
g467
sg18
S''
sg42
g468
sg19
S''
sg15
g467
sg28
Nsg44
g469
stRp2539
ag3
(g4
g5
(dp2540
g14
S''
sg40
g472
sg18
S''
sg42
g473
sg19
S''
sg15
g472
sg28
Nsg44
g474
stRp2541
ag3
(g4
g5
(dp2542
g14
S''
sg40
g477
sg18
S''
sg42
g478
sg19
S''
sg15
g477
sg28
Nsg44
g479
stRp2543
atRp2544
sg68
g2522
sg69
S'3'
sg70
g71
sg44
S"Contains the 'have-list' for all clients"
p2545
sg42
S'Have'
p2546
sg74
S'30'
p2547
sg40
S'db.have'
p2548
stRp2549
sS'message'
p2550
g3
(g4
g5
(dp2551
g7
S'language, id'
p2552
sg9
g3
(g10
g11
(lp2553
g3
(g4
g5
(dp2554
g14
S''
sg15
g16
sg17
g16
sg18
S''
sg19
S''
sg20
g21
sg22
g23
stRp2555
ag3
(g4
g5
(dp2556
g14
S''
sg17
g26
sg18
S''
sg20
g27
sg19
S''
sg15
g26
sg28
Nsg22
g29
stRp2557
ag3
(g4
g5
(dp2558
g14
S''
sg17
g32
sg18
S''
sg20
g21
sg19
S''
sg15
g32
sg28
Nsg22
g33
stRp2559
ag3
(g4
g5
(dp2560
g14
S''
sg17
g36
sg18
S''
sg20
g27
sg19
S''
sg15
g36
sg28
Nsg22
g37
stRp2561
ag3
(g4
g5
(dp2562
g14
S''
sg40
S'language'
p2563
sg18
S''
sg42
S'String'
p2564
sg19
S''
sg15
g2563
sg28
Nsg44
S'The language for which this message applies'
p2565
stRp2566
ag3
(g4
g5
(dp2567
g14
S''
sg40
S'id'
p2568
sg18
S''
sg42
S'Int'
p2569
sg19
S''
sg15
g2568
sg28
Nsg44
S'The message number'
p2570
stRp2571
ag3
(g4
g5
(dp2572
g14
S''
sg40
S'message'
p2573
sg18
S''
sg42
S'String'
p2574
sg19
S''
sg15
g2573
sg28
Nsg44
S'The message text'
p2575
stRp2576
atRp2577
sg68
g2550
sg69
S'0'
sg70
g71
sg44
S'System messages'
p2578
sg42
S'Message'
p2579
sg74
S'82'
p2580
sg40
S'db.message'
p2581
stRp2582
sS'refhist'
p2583
g3
(g4
g5
(dp2584
g7
S'repo, name, type, action, date, user, ref'
p2585
sg9
g3
(g10
g11
(lp2586
g3
(g4
g5
(dp2587
g14
S''
sg15
g16
sg17
g16
sg18
S''
sg19
S''
sg20
g21
sg22
g23
stRp2588
ag3
(g4
g5
(dp2589
g14
S''
sg17
g26
sg18
S''
sg20
g27
sg19
S''
sg15
g26
sg28
Nsg22
g29
stRp2590
ag3
(g4
g5
(dp2591
g14
S''
sg17
g32
sg18
S''
sg20
g21
sg19
S''
sg15
g32
sg28
Nsg22
g33
stRp2592
ag3
(g4
g5
(dp2593
g14
S''
sg17
g36
sg18
S''
sg20
g27
sg19
S''
sg15
g36
sg28
Nsg22
g37
stRp2594
ag3
(g4
g5
(dp2595
g14
S''
sg40
S'repo'
p2596
sg18
S''
sg42
S'String'
p2597
sg19
S''
sg15
g2596
sg28
Nsg44
S'Repository name'
p2598
stRp2599
ag3
(g4
g5
(dp2600
g14
S''
sg40
S'name'
p2601
sg18
S''
sg42
S'String'
p2602
sg19
S''
sg15
g2601
sg28
Nsg44
S'Reference name'
p2603
stRp2604
ag3
(g4
g5
(dp2605
g14
S''
sg40
S'type'
p2606
sg18
S''
sg42
S'RefType'
p2607
sg19
S''
sg15
g2606
sg28
Nsg44
S'Reference type'
p2608
stRp2609
ag3
(g4
g5
(dp2610
g14
S''
sg40
S'action'
p2611
sg18
S''
sg42
S'RefAction'
p2612
sg19
S''
sg15
g2611
sg28
Nsg44
S'Reference action'
p2613
stRp2614
ag3
(g4
g5
(dp2615
g14
S''
sg40
S'date'
p2616
sg18
S''
sg42
S'Date'
p2617
sg19
S''
sg15
g2616
sg28
Nsg44
S'The date the reference was updated'
p2618
stRp2619
ag3
(g4
g5
(dp2620
g14
S''
sg40
S'user'
p2621
sg18
S''
sg42
S'User'
p2622
sg19
S''
sg15
g2621
sg28
Nsg44
S'The user who made the reference update'
p2623
stRp2624
ag3
(g4
g5
(dp2625
g14
S''
sg40
S'ref'
p2626
sg18
S''
sg42
S'SHA1'
p2627
sg19
S''
sg15
g2626
sg28
Nsg44
S'Encoded reference value'
p2628
stRp2629
ag3
(g4
g5
(dp2630
g14
S''
sg40
S'symref'
p2631
sg18
S''
sg42
S'String'
p2632
sg19
S''
sg15
g2631
sg28
Nsg44
S'Symbolic reference'
p2633
stRp2634
atRp2635
sg68
g2583
sg69
S'0'
sg70
g71
sg44
S'Reference history for graph depots'
p2636
sg42
S'RefHist'
p2637
sg74
S'61'
p2638
sg40
S'db.refhist'
p2639
stRp2640
sS'rdblbr'
p2641
g3
(g4
g5
(dp2642
g40
S'rdb.lbr'
p2643
sg68
g2641
sg9
g3
(g10
g11
(lp2644
g3
(g4
g5
(dp2645
g14
S''
sg15
g16
sg17
g16
sg18
S''
sg19
S''
sg20
g21
sg22
g23
stRp2646
ag3
(g4
g5
(dp2647
g14
S''
sg17
g26
sg18
S''
sg20
g27
sg19
S''
sg15
g26
sg28
Nsg22
g29
stRp2648
ag3
(g4
g5
(dp2649
g14
S''
sg17
g32
sg18
S''
sg20
g21
sg19
S''
sg15
g32
sg28
Nsg22
g33
stRp2650
ag3
(g4
g5
(dp2651
g14
S''
sg17
g36
sg18
S''
sg20
g27
sg19
S''
sg15
g36
sg28
Nsg22
g37
stRp2652
ag3
(g4
g5
(dp2653
g14
S''
sg40
S'depotFile'
p2654
sg18
S''
sg42
S'File'
p2655
sg19
S''
sg15
g2654
sg28
Nsg44
S'The file name'
p2656
stRp2657
ag3
(g4
g5
(dp2658
g14
S''
sg40
S'lbrRev'
p2659
sg18
S''
sg42
S'String'
p2660
sg19
S''
sg15
g2659
sg28
Nsg44
S'The librarian revision'
p2661
stRp2662
ag3
(g4
g5
(dp2663
g14
S''
sg40
S'type'
p2664
sg18
S''
sg42
S'String'
p2665
sg19
S''
sg15
g2664
sg28
Nsg44
S'The file type of the revision'
p2666
stRp2667
ag3
(g4
g5
(dp2668
g14
S''
sg40
S'status'
p2669
sg18
S''
sg42
S'PullStatus'
p2670
sg19
S''
sg15
g2669
sg28
Nsg44
S'The status of the archive transfer'
p2671
stRp2672
ag3
(g4
g5
(dp2673
g14
S''
sg40
S'action'
p2674
sg18
S''
sg42
S'Action'
p2675
sg19
S''
sg15
g2674
sg28
Nsg44
S'The action that created the revision'
p2676
stRp2677
ag3
(g4
g5
(dp2678
g14
S''
sg40
S'digest'
p2679
sg18
S''
sg42
S'Digest'
p2680
sg19
S''
sg15
g2679
sg28
Nsg44
S'The MD5 digest of the revision'
p2681
stRp2682
ag3
(g4
g5
(dp2683
g14
S''
sg40
S'size'
p2684
sg18
S''
sg42
S'FileSize'
p2685
sg19
S''
sg15
g2684
sg28
Nsg44
S'The size of the file in bytes'
p2686
stRp2687
ag3
(g4
g5
(dp2688
g14
S''
sg40
S'change'
p2689
sg18
S''
sg42
S'Change'
p2690
sg19
S''
sg15
g2689
sg28
Nsg44
S'The changelist that created the revision'
p2691
stRp2692
ag3
(g4
g5
(dp2693
g14
S''
sg40
S'lbrDate'
p2694
sg18
S''
sg42
S'Date'
p2695
sg19
S''
sg15
g2694
sg28
Nsg44
S'Librarian date'
p2696
stRp2697
ag3
(g4
g5
(dp2698
g14
S''
sg40
S'lbrModTime'
p2699
sg18
S''
sg42
S'Date'
p2700
sg19
S''
sg15
g2699
sg28
Nsg44
S'Librarian modtime'
p2701
stRp2702
ag3
(g4
g5
(dp2703
g14
S''
sg40
S'pid'
p2704
sg18
S''
sg42
S'Int'
p2705
sg19
S''
sg15
g2704
sg28
Nsg44
S'The process id (PID) of the pull process'
p2706
stRp2707
ag3
(g4
g5
(dp2708
g14
S''
sg40
S'requestTime'
p2709
sg18
S''
sg42
S'Date'
p2710
sg19
S''
sg15
g2709
sg28
Nsg44
S'Pull request time'
p2711
stRp2712
ag3
(g4
g5
(dp2713
g14
S''
sg40
S'retries'
p2714
sg18
S''
sg42
S'Int'
p2715
sg19
S''
sg15
g2714
sg28
Nsg44
S'The number of retries that have occurred after transfer error'
p2716
stRp2717
ag3
(g4
g5
(dp2718
g14
S''
sg40
S'transferError'
p2719
sg18
S''
sg42
S'String'
p2720
sg19
S''
sg15
g2719
sg28
Nsg44
S'The error message for a failed transfer'
p2721
stRp2722
atRp2723
sg70
g71
sg42
S'ReplicaArchiveTransfer'
p2724
sg44
S'Replica server pending archive transfer table'
p2725
stRp2726
sS'bodresolve'
p2727
g3
(g4
g5
(dp2728
g7
S'type, client, toKey, attr, fromKey, fromChange'
p2729
sg9
g3
(g10
g11
(lp2730
g3
(g4
g5
(dp2731
g14
S''
sg15
g16
sg17
g16
sg18
S''
sg19
S''
sg20
g21
sg22
g23
stRp2732
ag3
(g4
g5
(dp2733
g14
S''
sg17
g26
sg18
S''
sg20
g27
sg19
S''
sg15
g26
sg28
Nsg22
g29
stRp2734
ag3
(g4
g5
(dp2735
g14
S''
sg17
g32
sg18
S''
sg20
g21
sg19
S''
sg15
g32
sg28
Nsg22
g33
stRp2736
ag3
(g4
g5
(dp2737
g14
S''
sg17
g36
sg18
S''
sg20
g27
sg19
S''
sg15
g36
sg28
Nsg22
g37
stRp2738
ag3
(g4
g5
(dp2739
g14
S''
sg40
S'type'
p2740
sg18
S''
sg42
S'SpecType'
p2741
sg19
S''
sg15
g2740
sg28
Nsg44
S'The spec type'
p2742
stRp2743
ag3
(g4
g5
(dp2744
g14
S''
sg40
S'client'
p2745
sg18
S''
sg42
S'Domain'
p2746
sg19
S''
sg15
g2745
sg28
Nsg44
S'The client name'
p2747
stRp2748
ag3
(g4
g5
(dp2749
g14
S''
sg40
S'toKey'
p2750
sg18
S''
sg42
S'String'
p2751
sg19
S''
sg15
g2750
sg28
Nsg44
S'To Key'
p2752
stRp2753
ag3
(g4
g5
(dp2754
g14
S''
sg40
S'attr'
p2755
sg18
S''
sg42
S'Int'
p2756
sg19
S''
sg15
g2755
sg28
Nsg44
S'The attribute value'
p2757
stRp2758
ag3
(g4
g5
(dp2759
g14
S''
sg40
S'fromKey'
p2760
sg18
S''
sg42
S'String'
p2761
sg19
S''
sg15
g2760
sg28
Nsg44
S'From key'
p2762
stRp2763
ag3
(g4
g5
(dp2764
g14
S''
sg40
S'fromChange'
p2765
sg18
S''
sg42
S'Change'
p2766
sg19
S''
sg15
g2765
sg28
Nsg44
S'From change'
p2767
stRp2768
ag3
(g4
g5
(dp2769
g14
S''
sg40
S'baseKey'
p2770
sg18
S''
sg42
S'String'
p2771
sg19
S''
sg15
g2770
sg28
Nsg44
S'Base Key'
p2772
stRp2773
ag3
(g4
g5
(dp2774
g14
S''
sg40
S'baseChange'
p2775
sg18
S''
sg42
S'Change'
p2776
sg19
S''
sg15
g2775
sg28
Nsg44
S'Base change'
p2777
stRp2778
atRp2779
sg68
g2727
sg69
S'0'
sg70
g71
sg44
S'Resolve data for stream specifications'
p2780
sg42
S'BodyResolve'
p2781
sg74
S'71'
p2782
sg40
S'db.bodresolve'
p2783
stRp2784
sS'review'
p2785
g3
(g4
g5
(dp2786
g7
S'user, seq'
p2787
sg9
g3
(g10
g11
(lp2788
g3
(g4
g5
(dp2789
g14
S''
sg15
g16
sg17
g16
sg18
S''
sg19
S''
sg20
g21
sg22
g23
stRp2790
ag3
(g4
g5
(dp2791
g14
S''
sg17
g26
sg18
S''
sg20
g27
sg19
S''
sg15
g26
sg28
Nsg22
g29
stRp2792
ag3
(g4
g5
(dp2793
g14
S''
sg17
g32
sg18
S''
sg20
g21
sg19
S''
sg15
g32
sg28
Nsg22
g33
stRp2794
ag3
(g4
g5
(dp2795
g14
S''
sg17
g36
sg18
S''
sg20
g27
sg19
S''
sg15
g36
sg28
Nsg22
g37
stRp2796
ag3
(g4
g5
(dp2797
g14
S''
sg40
S'user'
p2798
sg18
S''
sg42
S'User'
p2799
sg19
S''
sg15
g2798
sg28
Nsg44
S'A user name'
p2800
stRp2801
ag3
(g4
g5
(dp2802
g14
S''
sg40
S'seq'
p2803
sg18
S''
sg42
S'Int'
p2804
sg19
S''
sg15
g2803
sg28
Nsg44
S'Sequence number: used for ordering multi-line views'
p2805
stRp2806
ag3
(g4
g5
(dp2807
g14
S''
sg40
S'mapFlag'
p2808
sg18
S''
sg42
S'MapFlag'
p2809
sg19
S''
sg15
g2808
sg28
Nsg44
S'Type of mapping'
p2810
stRp2811
ag3
(g4
g5
(dp2812
g14
S''
sg40
S'depotFile'
p2813
sg18
S''
sg42
S'Mapping'
p2814
sg19
S''
sg15
g2813
sg28
Nsg44
S'The files to be reviewed'
p2815
stRp2816
ag3
(g4
g5
(dp2817
g14
S''
sg40
S'type'
p2818
sg18
S''
sg42
S'Reviewer'
p2819
sg19
S''
sg15
g2818
sg28
Nsg44
S'Type of reviewer'
p2820
stRp2821
atRp2822
sg68
g2785
sg69
S'1'
sg70
g71
sg44
S"User's review mappings"
p2823
sg42
S'Review'
p2824
sg74
S'26'
p2825
sg40
S'db.review'
p2826
stRp2827
sS'rev'
p2828
g3
(g4
g5
(dp2829
g7
S'depotFile, depotRev'
p2830
sg9
g3
(g10
g11
(lp2831
g3
(g4
g5
(dp2832
g14
S''
sg15
g16
sg17
g16
sg18
S''
sg19
S''
sg20
g21
sg22
g23
stRp2833
ag3
(g4
g5
(dp2834
g14
S''
sg17
g26
sg18
S''
sg20
g27
sg19
S''
sg15
g26
sg28
Nsg22
g29
stRp2835
ag3
(g4
g5
(dp2836
g14
S''
sg17
g32
sg18
S''
sg20
g21
sg19
S''
sg15
g32
sg28
Nsg22
g33
stRp2837
ag3
(g4
g5
(dp2838
g14
S''
sg17
g36
sg18
S''
sg20
g27
sg19
S''
sg15
g36
sg28
Nsg22
g37
stRp2839
ag3
(g4
g5
(dp2840
g14
S''
sg40
g140
sg18
S''
sg42
g141
sg19
S''
sg15
g140
sg28
Nsg44
g142
stRp2841
ag3
(g4
g5
(dp2842
g14
S''
sg40
g145
sg18
S''
sg42
g146
sg19
S''
sg15
g145
sg28
Nsg44
g147
stRp2843
ag3
(g4
g5
(dp2844
g14
S''
sg40
g150
sg18
S''
sg42
g151
sg19
S''
sg15
g150
sg28
Nsg44
g152
stRp2845
ag3
(g4
g5
(dp2846
g14
S''
sg40
g155
sg18
S''
sg42
g156
sg19
S''
sg15
g155
sg28
Nsg44
g157
stRp2847
ag3
(g4
g5
(dp2848
g14
S''
sg40
g160
sg18
S''
sg42
g161
sg19
S''
sg15
g160
sg28
Nsg44
g162
stRp2849
ag3
(g4
g5
(dp2850
g14
S''
sg40
g165
sg18
S''
sg42
g166
sg19
S''
sg15
g165
sg28
Nsg44
g167
stRp2851
ag3
(g4
g5
(dp2852
g14
S''
sg40
g170
sg18
S''
sg42
g171
sg19
S''
sg15
g170
sg28
Nsg44
g172
stRp2853
ag3
(g4
g5
(dp2854
g14
S''
sg40
g175
sg18
S''
sg42
g176
sg19
S''
sg15
g175
sg28
Nsg44
g177
stRp2855
ag3
(g4
g5
(dp2856
g14
S''
sg40
g180
sg18
S''
sg42
g181
sg19
S''
sg15
g180
sg28
Nsg44
g182
stRp2857
ag3
(g4
g5
(dp2858
g14
S''
sg40
g185
sg18
S''
sg42
g186
sg19
S''
sg15
g185
sg28
Nsg44
g187
stRp2859
ag3
(g4
g5
(dp2860
g14
S''
sg40
g190
sg18
S''
sg42
g191
sg19
S''
sg15
g190
sg28
Nsg44
g192
stRp2861
ag3
(g4
g5
(dp2862
g14
S''
sg40
g195
sg18
S''
sg42
g196
sg19
S''
sg15
g195
sg28
Nsg44
g197
stRp2863
ag3
(g4
g5
(dp2864
g14
S''
sg40
g200
sg18
S''
sg42
g201
sg19
S''
sg15
g200
sg28
Nsg44
g202
stRp2865
ag3
(g4
g5
(dp2866
g14
S''
sg40
g205
sg18
S''
sg42
g206
sg19
S''
sg15
g205
sg28
Nsg44
g207
stRp2867
atRp2868
sg68
g2828
sg69
S'9'
sg70
g71
sg44
S'Revision records'
p2869
sg42
S'Rev'
p2870
sg74
S'45'
p2871
sg40
S'db.rev'
p2872
stRp2873
sS'bodtextcx'
p2874
g3
(g4
g5
(dp2875
g7
S'type, key, change, attr'
p2876
sg9
g3
(g10
g11
(lp2877
g3
(g4
g5
(dp2878
g14
S''
sg15
g16
sg17
g16
sg18
S''
sg19
S''
sg20
g21
sg22
g23
stRp2879
ag3
(g4
g5
(dp2880
g14
S''
sg17
g26
sg18
S''
sg20
g27
sg19
S''
sg15
g26
sg28
Nsg22
g29
stRp2881
ag3
(g4
g5
(dp2882
g14
S''
sg17
g32
sg18
S''
sg20
g21
sg19
S''
sg15
g32
sg28
Nsg22
g33
stRp2883
ag3
(g4
g5
(dp2884
g14
S''
sg17
g36
sg18
S''
sg20
g27
sg19
S''
sg15
g36
sg28
Nsg22
g37
stRp2885
ag3
(g4
g5
(dp2886
g14
S''
sg40
S'type'
p2887
sg18
S''
sg42
S'Int'
p2888
sg19
S''
sg15
g2887
sg28
Nsg44
S'The type of spec'
p2889
stRp2890
ag3
(g4
g5
(dp2891
g14
S''
sg40
S'key'
p2892
sg18
S''
sg42
S'String'
p2893
sg19
S''
sg15
g2892
sg28
Nsg44
S'The spec to which this attribute belongs'
p2894
stRp2895
ag3
(g4
g5
(dp2896
g14
S''
sg40
S'change'
p2897
sg18
S''
sg42
S'Change'
p2898
sg19
S''
sg15
g2897
sg28
Nsg44
S'The change to which this attribute belongs'
p2899
stRp2900
ag3
(g4
g5
(dp2901
g14
S''
sg40
S'attr'
p2902
sg18
S''
sg42
S'Int'
p2903
sg19
S''
sg15
g2902
sg28
Nsg44
S'The attribute number of this attribute'
p2904
stRp2905
ag3
(g4
g5
(dp2906
g14
S''
sg40
S'text'
p2907
sg18
S''
sg42
S'Text'
p2908
sg19
S''
sg15
g2907
sg28
Nsg44
S'The attribute value'
p2909
stRp2910
atRp2911
sg68
g2874
sg69
S'0'
sg70
g71
sg44
S'Versioned openable spec fields (for future use)'
p2912
sg42
S'BodyTextCx'
p2913
sg74
S'73'
p2914
sg40
S'db.bodtextcx'
p2915
stRp2916
sS'label'
p2917
g3
(g4
g5
(dp2918
g7
S'name, depotFile'
p2919
sg9
g3
(g10
g11
(lp2920
g3
(g4
g5
(dp2921
g14
S''
sg15
g16
sg17
g16
sg18
S''
sg19
S''
sg20
g21
sg22
g23
stRp2922
ag3
(g4
g5
(dp2923
g14
S''
sg17
g26
sg18
S''
sg20
g27
sg19
S''
sg15
g26
sg28
Nsg22
g29
stRp2924
ag3
(g4
g5
(dp2925
g14
S''
sg17
g32
sg18
S''
sg20
g21
sg19
S''
sg15
g32
sg28
Nsg22
g33
stRp2926
ag3
(g4
g5
(dp2927
g14
S''
sg17
g36
sg18
S''
sg20
g27
sg19
S''
sg15
g36
sg28
Nsg22
g37
stRp2928
ag3
(g4
g5
(dp2929
g14
S''
sg40
S'name'
p2930
sg18
S''
sg42
S'Domain'
p2931
sg19
S''
sg15
g2930
sg28
Nsg44
S'Name of the label'
p2932
stRp2933
ag3
(g4
g5
(dp2934
g14
S''
sg40
S'depotFile'
p2935
sg18
S''
sg42
S'File'
p2936
sg19
S''
sg15
g2935
sg28
Nsg44
S'File name'
p2937
stRp2938
ag3
(g4
g5
(dp2939
g14
S''
sg40
S'haveRev'
p2940
sg18
S''
sg42
S'Rev'
p2941
sg19
S''
sg15
g2940
sg28
Nsg44
S'The revision of the file in the label'
p2942
stRp2943
atRp2944
sg68
g2917
sg69
S'0'
sg70
g71
sg44
S'Revisions of files in labels'
p2945
sg42
S'Label'
p2946
sg74
S'27'
p2947
sg40
S'db.label'
p2948
stRp2949
sS'revbx'
p2950
g3
(g4
g5
(dp2951
g7
S'depotFile, depotRev'
p2952
sg9
g3
(g10
g11
(lp2953
g3
(g4
g5
(dp2954
g14
S''
sg15
g16
sg17
g16
sg18
S''
sg19
S''
sg20
g21
sg22
g23
stRp2955
ag3
(g4
g5
(dp2956
g14
S''
sg17
g26
sg18
S''
sg20
g27
sg19
S''
sg15
g26
sg28
Nsg22
g29
stRp2957
ag3
(g4
g5
(dp2958
g14
S''
sg17
g32
sg18
S''
sg20
g21
sg19
S''
sg15
g32
sg28
Nsg22
g33
stRp2959
ag3
(g4
g5
(dp2960
g14
S''
sg17
g36
sg18
S''
sg20
g27
sg19
S''
sg15
g36
sg28
Nsg22
g37
stRp2961
ag3
(g4
g5
(dp2962
g14
S''
sg40
g140
sg18
S''
sg42
g141
sg19
S''
sg15
g140
sg28
Nsg44
g142
stRp2963
ag3
(g4
g5
(dp2964
g14
S''
sg40
g145
sg18
S''
sg42
g146
sg19
S''
sg15
g145
sg28
Nsg44
g147
stRp2965
ag3
(g4
g5
(dp2966
g14
S''
sg40
g150
sg18
S''
sg42
g151
sg19
S''
sg15
g150
sg28
Nsg44
g152
stRp2967
ag3
(g4
g5
(dp2968
g14
S''
sg40
g155
sg18
S''
sg42
g156
sg19
S''
sg15
g155
sg28
Nsg44
g157
stRp2969
ag3
(g4
g5
(dp2970
g14
S''
sg40
g160
sg18
S''
sg42
g161
sg19
S''
sg15
g160
sg28
Nsg44
g162
stRp2971
ag3
(g4
g5
(dp2972
g14
S''
sg40
g165
sg18
S''
sg42
g166
sg19
S''
sg15
g165
sg28
Nsg44
g167
stRp2973
ag3
(g4
g5
(dp2974
g14
S''
sg40
g170
sg18
S''
sg42
g171
sg19
S''
sg15
g170
sg28
Nsg44
g172
stRp2975
ag3
(g4
g5
(dp2976
g14
S''
sg40
g175
sg18
S''
sg42
g176
sg19
S''
sg15
g175
sg28
Nsg44
g177
stRp2977
ag3
(g4
g5
(dp2978
g14
S''
sg40
g180
sg18
S''
sg42
g181
sg19
S''
sg15
g180
sg28
Nsg44
g182
stRp2979
ag3
(g4
g5
(dp2980
g14
S''
sg40
g185
sg18
S''
sg42
g186
sg19
S''
sg15
g185
sg28
Nsg44
g187
stRp2981
ag3
(g4
g5
(dp2982
g14
S''
sg40
g190
sg18
S''
sg42
g191
sg19
S''
sg15
g190
sg28
Nsg44
g192
stRp2983
ag3
(g4
g5
(dp2984
g14
S''
sg40
g195
sg18
S''
sg42
g196
sg19
S''
sg15
g195
sg28
Nsg44
g197
stRp2985
ag3
(g4
g5
(dp2986
g14
S''
sg40
g200
sg18
S''
sg42
g201
sg19
S''
sg15
g200
sg28
Nsg44
g202
stRp2987
ag3
(g4
g5
(dp2988
g14
S''
sg40
g205
sg18
S''
sg42
g206
sg19
S''
sg15
g205
sg28
Nsg44
g207
stRp2989
atRp2990
sg68
g2950
sg69
S'9'
sg70
g71
sg44
S'Revision records for archived files'
p2991
sg42
S'Rev'
p2992
sg74
S'42'
p2993
sg40
S'db.revbx'
p2994
stRp2995
sS'nameval'
p2996
g3
(g4
g5
(dp2997
g7
S'name'
p2998
sg9
g3
(g10
g11
(lp2999
g3
(g4
g5
(dp3000
g14
S''
sg15
g16
sg17
g16
sg18
S''
sg19
S''
sg20
g21
sg22
g23
stRp3001
ag3
(g4
g5
(dp3002
g14
S''
sg17
g26
sg18
S''
sg20
g27
sg19
S''
sg15
g26
sg28
Nsg22
g29
stRp3003
ag3
(g4
g5
(dp3004
g14
S''
sg17
g32
sg18
S''
sg20
g21
sg19
S''
sg15
g32
sg28
Nsg22
g33
stRp3005
ag3
(g4
g5
(dp3006
g14
S''
sg17
g36
sg18
S''
sg20
g27
sg19
S''
sg15
g36
sg28
Nsg22
g37
stRp3007
ag3
(g4
g5
(dp3008
g14
S''
sg40
S'name'
p3009
sg18
S''
sg42
S'Key'
p3010
sg19
S''
sg15
g3009
sg28
Nsg44
S'Key name'
p3011
stRp3012
ag3
(g4
g5
(dp3013
g14
S''
sg40
S'value'
p3014
sg18
S''
sg42
S'Value'
p3015
sg19
S''
sg15
g3014
sg28
Nsg44
S'Key value'
p3016
stRp3017
atRp3018
sg68
g2996
sg69
S'1'
sg70
g71
sg44
S'A table to store key/value pairs'
p3019
sg42
S'Keys'
p3020
sg74
S'3'
sg40
S'db.nameval'
p3021
stRp3022
sS'template'
p3023
g3
(g4
g5
(dp3024
g7
S'name, change, sequence'
p3025
sg9
g3
(g10
g11
(lp3026
g3
(g4
g5
(dp3027
g14
S''
sg15
g16
sg17
g16
sg18
S''
sg19
S''
sg20
g21
sg22
g23
stRp3028
ag3
(g4
g5
(dp3029
g14
S''
sg17
g26
sg18
S''
sg20
g27
sg19
S''
sg15
g26
sg28
Nsg22
g29
stRp3030
ag3
(g4
g5
(dp3031
g14
S''
sg17
g32
sg18
S''
sg20
g21
sg19
S''
sg15
g32
sg28
Nsg22
g33
stRp3032
ag3
(g4
g5
(dp3033
g14
S''
sg17
g36
sg18
S''
sg20
g27
sg19
S''
sg15
g36
sg28
Nsg22
g37
stRp3034
ag3
(g4
g5
(dp3035
g14
S''
sg40
S'name'
p3036
sg18
S''
sg42
S'Domain'
p3037
sg19
S''
sg15
g3036
sg28
Nsg44
S'Stream name'
p3038
stRp3039
ag3
(g4
g5
(dp3040
g14
S''
sg40
S'change'
p3041
sg18
S''
sg42
S'Change'
p3042
sg19
S''
sg15
g3041
sg28
Nsg44
S'Versioned at change'
p3043
stRp3044
ag3
(g4
g5
(dp3045
g14
S''
sg40
S'seq'
p3046
sg18
S''
sg42
S'Int'
p3047
sg19
S''
sg15
g3046
sg28
Nsg44
S'Sequence (line) number'
p3048
stRp3049
ag3
(g4
g5
(dp3050
g14
S''
sg40
S'parent'
p3051
sg18
S''
sg42
S'Domain'
p3052
sg19
S''
sg15
g3051
sg28
Nsg44
S'Parent stream name'
p3053
stRp3054
ag3
(g4
g5
(dp3055
g14
S''
sg40
S'type'
p3056
sg18
S''
sg42
S'StreamType'
p3057
sg19
S''
sg15
g3056
sg28
Nsg44
S'Type of stream'
p3058
stRp3059
ag3
(g4
g5
(dp3060
g14
S''
sg40
S'path'
p3061
sg18
S''
sg42
S'StreamPathType'
p3062
sg19
S''
sg15
g3061
sg28
Nsg44
S'Stream path type'
p3063
stRp3064
ag3
(g4
g5
(dp3065
g14
S''
sg40
S'viewFile'
p3066
sg18
S''
sg42
S'Mapping'
p3067
sg19
S''
sg15
g3066
sg28
Nsg44
S'View file (left hand side of path)'
p3068
stRp3069
ag3
(g4
g5
(dp3070
g14
S''
sg40
S'depotFile'
p3071
sg18
S''
sg42
S'Mapping'
p3072
sg19
S''
sg15
g3071
sg28
Nsg44
S'Depot file (right hand side of path)'
p3073
stRp3074
ag3
(g4
g5
(dp3075
g14
S''
sg40
S'changeMap'
p3076
sg18
S''
sg42
S'Value'
p3077
sg19
S''
sg15
g3076
sg28
Nsg44
S"Stream 'import' path changelist specifier. The changelist\n\t\t\tlimits in effect for a given client are displayed in a\n\t    \tread-only client spec field called 'ChangeView'"
p3078
stRp3079
atRp3080
sg68
g3023
sg69
S'2'
sg70
g71
sg44
S'Streams templates'
p3081
sg42
S'Template'
p3082
sg74
S'20'
p3083
sg40
S'db.template'
p3084
stRp3085
sS'haverp'
p3086
g3
(g4
g5
(dp3087
g7
S'clientFile depotFile haveRev'
p3088
sg9
g3
(g10
g11
(lp3089
g3
(g4
g5
(dp3090
g14
S''
sg15
g16
sg17
g16
sg18
S''
sg19
S''
sg20
g21
sg22
g23
stRp3091
ag3
(g4
g5
(dp3092
g14
S''
sg17
g26
sg18
S''
sg20
g27
sg19
S''
sg15
g26
sg28
Nsg22
g29
stRp3093
ag3
(g4
g5
(dp3094
g14
S''
sg17
g32
sg18
S''
sg20
g21
sg19
S''
sg15
g32
sg28
Nsg22
g33
stRp3095
ag3
(g4
g5
(dp3096
g14
S''
sg17
g36
sg18
S''
sg20
g27
sg19
S''
sg15
g36
sg28
Nsg22
g37
stRp3097
ag3
(g4
g5
(dp3098
g14
S''
sg40
g457
sg18
S''
sg42
g458
sg19
S''
sg15
g457
sg28
Nsg44
g459
stRp3099
ag3
(g4
g5
(dp3100
g14
S''
sg40
g462
sg18
S''
sg42
g463
sg19
S''
sg15
g462
sg28
Nsg44
g464
stRp3101
ag3
(g4
g5
(dp3102
g14
S''
sg40
g467
sg18
S''
sg42
g468
sg19
S''
sg15
g467
sg28
Nsg44
g469
stRp3103
ag3
(g4
g5
(dp3104
g14
S''
sg40
g472
sg18
S''
sg42
g473
sg19
S''
sg15
g472
sg28
Nsg44
g474
stRp3105
ag3
(g4
g5
(dp3106
g14
S''
sg40
g477
sg18
S''
sg42
g478
sg19
S''
sg15
g477
sg28
Nsg44
g479
stRp3107
atRp3108
sg68
g3086
sg69
S'3'
sg70
g71
sg44
S"Contains the 'have-list' for clients of build-server replicas"
p3109
sg42
S'Have'
p3110
sg74
S'28'
p3111
sg40
S'db.have.rp'
p3112
stRp3113
sS'depot'
p3114
g3
(g4
g5
(dp3115
g7
S'name'
p3116
sg9
g3
(g10
g11
(lp3117
g3
(g4
g5
(dp3118
g14
S''
sg15
g16
sg17
g16
sg18
S''
sg19
S''
sg20
g21
sg22
g23
stRp3119
ag3
(g4
g5
(dp3120
g14
S''
sg17
g26
sg18
S''
sg20
g27
sg19
S''
sg15
g26
sg28
Nsg22
g29
stRp3121
ag3
(g4
g5
(dp3122
g14
S''
sg17
g32
sg18
S''
sg20
g21
sg19
S''
sg15
g32
sg28
Nsg22
g33
stRp3123
ag3
(g4
g5
(dp3124
g14
S''
sg17
g36
sg18
S''
sg20
g27
sg19
S''
sg15
g36
sg28
Nsg22
g37
stRp3125
ag3
(g4
g5
(dp3126
g14
S''
sg40
S'name'
p3127
sg18
S''
sg42
S'Domain'
p3128
sg19
S''
sg15
g3127
sg28
Nsg44
S'Depot name'
p3129
stRp3130
ag3
(g4
g5
(dp3131
g14
S''
sg40
S'type'
p3132
sg18
S''
sg42
S'DepotType'
p3133
sg19
S''
sg15
g3132
sg28
Nsg44
S'Type of depot'
p3134
stRp3135
ag3
(g4
g5
(dp3136
g14
S''
sg40
S'extra'
p3137
sg18
S''
sg42
S'Text'
p3138
sg19
S''
sg15
g3137
sg28
Nsg44
S'For remote depots, the P4PORT address of the remote server.\n\t\t    For spec depots, the field contains a suffix to append to \n\t\t    the filename.'
p3139
stRp3140
ag3
(g4
g5
(dp3141
g14
S''
sg40
S'map'
p3142
sg18
S''
sg42
S'Text'
p3143
sg19
S''
sg15
g3142
sg28
Nsg44
S"The depot's map (path translation information).  For local \n\t\t    depots, this will be a path relative to the root directory.\n\t\t    For remote depots, this will be specified in terms of the \n\t\t    remote server's namespace."
p3144
stRp3145
atRp3146
sg68
g3114
sg69
S'1'
sg70
g71
sg44
S'Depot specifications'
p3147
sg42
S'Depot'
p3148
sg74
S'17'
p3149
sg40
S'db.depot'
p3150
stRp3151
sS'config'
p3152
g3
(g4
g5
(dp3153
g7
S'serverName, name'
p3154
sg9
g3
(g10
g11
(lp3155
g3
(g4
g5
(dp3156
g14
S''
sg15
g16
sg17
g16
sg18
S''
sg19
S''
sg20
g21
sg22
g23
stRp3157
ag3
(g4
g5
(dp3158
g14
S''
sg17
g26
sg18
S''
sg20
g27
sg19
S''
sg15
g26
sg28
Nsg22
g29
stRp3159
ag3
(g4
g5
(dp3160
g14
S''
sg17
g32
sg18
S''
sg20
g21
sg19
S''
sg15
g32
sg28
Nsg22
g33
stRp3161
ag3
(g4
g5
(dp3162
g14
S''
sg17
g36
sg18
S''
sg20
g27
sg19
S''
sg15
g36
sg28
Nsg22
g37
stRp3163
ag3
(g4
g5
(dp3164
g14
S''
sg40
S'sname'
p3165
sg18
S''
sg42
S'String'
p3166
sg19
S''
sg15
g3165
sg28
Nsg44
S'Server name'
p3167
stRp3168
ag3
(g4
g5
(dp3169
g14
S''
sg40
S'name'
p3170
sg18
S''
sg42
S'String'
p3171
sg19
S''
sg15
g3170
sg28
Nsg44
S'Configuration variable name'
p3172
stRp3173
ag3
(g4
g5
(dp3174
g14
S''
sg40
S'value'
p3175
sg18
S''
sg42
S'Value'
p3176
sg19
S''
sg15
g3175
sg28
Nsg44
S'Configuration variable value'
p3177
stRp3178
atRp3179
sg68
g3152
sg69
S'1'
sg70
g71
sg44
S'Server configurations table'
p3180
sg42
S'Config'
p3181
sg74
S'1'
sg40
S'db.config'
p3182
stRp3183
sS'counters'
p3184
g3
(g4
g5
(dp3185
g7
S'name'
p3186
sg9
g3
(g10
g11
(lp3187
g3
(g4
g5
(dp3188
g14
S''
sg15
g16
sg17
g16
sg18
S''
sg19
S''
sg20
g21
sg22
g23
stRp3189
ag3
(g4
g5
(dp3190
g14
S''
sg17
g26
sg18
S''
sg20
g27
sg19
S''
sg15
g26
sg28
Nsg22
g29
stRp3191
ag3
(g4
g5
(dp3192
g14
S''
sg17
g32
sg18
S''
sg20
g21
sg19
S''
sg15
g32
sg28
Nsg22
g33
stRp3193
ag3
(g4
g5
(dp3194
g14
S''
sg17
g36
sg18
S''
sg20
g27
sg19
S''
sg15
g36
sg28
Nsg22
g37
stRp3195
ag3
(g4
g5
(dp3196
g14
S''
sg40
S'name'
p3197
sg18
S''
sg42
S'Counter'
p3198
sg19
S''
sg15
g3197
sg28
Nsg44
S'Counter name'
p3199
stRp3200
ag3
(g4
g5
(dp3201
g14
S''
sg40
S'value'
p3202
sg18
S''
sg42
S'Value'
p3203
sg19
S''
sg15
g3202
sg28
Nsg44
S'Counter value'
p3204
stRp3205
atRp3206
sg68
g3184
sg69
S'1'
sg70
g71
sg44
S'Counters table'
p3207
sg42
S'Counters'
p3208
sg74
S'2'
sg40
S'db.counters'
p3209
stRp3210
sS'revsx'
p3211
g3
(g4
g5
(dp3212
g7
S'depotFile, depotRev'
p3213
sg9
g3
(g10
g11
(lp3214
g3
(g4
g5
(dp3215
g14
S''
sg15
g16
sg17
g16
sg18
S''
sg19
S''
sg20
g21
sg22
g23
stRp3216
ag3
(g4
g5
(dp3217
g14
S''
sg17
g26
sg18
S''
sg20
g27
sg19
S''
sg15
g26
sg28
Nsg22
g29
stRp3218
ag3
(g4
g5
(dp3219
g14
S''
sg17
g32
sg18
S''
sg20
g21
sg19
S''
sg15
g32
sg28
Nsg22
g33
stRp3220
ag3
(g4
g5
(dp3221
g14
S''
sg17
g36
sg18
S''
sg20
g27
sg19
S''
sg15
g36
sg28
Nsg22
g37
stRp3222
ag3
(g4
g5
(dp3223
g14
S''
sg40
g140
sg18
S''
sg42
g141
sg19
S''
sg15
g140
sg28
Nsg44
g142
stRp3224
ag3
(g4
g5
(dp3225
g14
S''
sg40
g145
sg18
S''
sg42
g146
sg19
S''
sg15
g145
sg28
Nsg44
g147
stRp3226
ag3
(g4
g5
(dp3227
g14
S''
sg40
g150
sg18
S''
sg42
g151
sg19
S''
sg15
g150
sg28
Nsg44
g152
stRp3228
ag3
(g4
g5
(dp3229
g14
S''
sg40
g155
sg18
S''
sg42
g156
sg19
S''
sg15
g155
sg28
Nsg44
g157
stRp3230
ag3
(g4
g5
(dp3231
g14
S''
sg40
g160
sg18
S''
sg42
g161
sg19
S''
sg15
g160
sg28
Nsg44
g162
stRp3232
ag3
(g4
g5
(dp3233
g14
S''
sg40
g165
sg18
S''
sg42
g166
sg19
S''
sg15
g165
sg28
Nsg44
g167
stRp3234
ag3
(g4
g5
(dp3235
g14
S''
sg40
g170
sg18
S''
sg42
g171
sg19
S''
sg15
g170
sg28
Nsg44
g172
stRp3236
ag3
(g4
g5
(dp3237
g14
S''
sg40
g175
sg18
S''
sg42
g176
sg19
S''
sg15
g175
sg28
Nsg44
g177
stRp3238
ag3
(g4
g5
(dp3239
g14
S''
sg40
g180
sg18
S''
sg42
g181
sg19
S''
sg15
g180
sg28
Nsg44
g182
stRp3240
ag3
(g4
g5
(dp3241
g14
S''
sg40
g185
sg18
S''
sg42
g186
sg19
S''
sg15
g185
sg28
Nsg44
g187
stRp3242
ag3
(g4
g5
(dp3243
g14
S''
sg40
g190
sg18
S''
sg42
g191
sg19
S''
sg15
g190
sg28
Nsg44
g192
stRp3244
ag3
(g4
g5
(dp3245
g14
S''
sg40
g195
sg18
S''
sg42
g196
sg19
S''
sg15
g195
sg28
Nsg44
g197
stRp3246
ag3
(g4
g5
(dp3247
g14
S''
sg40
g200
sg18
S''
sg42
g201
sg19
S''
sg15
g200
sg28
Nsg44
g202
stRp3248
ag3
(g4
g5
(dp3249
g14
S''
sg40
g205
sg18
S''
sg42
g206
sg19
S''
sg15
g205
sg28
Nsg44
g207
stRp3250
atRp3251
sg68
g3211
sg69
S'9'
sg70
g71
sg44
S'Revision records for spec depot files'
p3252
sg42
S'Rev'
p3253
sg74
S'40'
p3254
sg40
S'db.revsx'
p3255
stRp3256
sS'ticketrp'
p3257
g3
(g4
g5
(dp3258
g7
S'user, host'
p3259
sg9
g3
(g10
g11
(lp3260
g3
(g4
g5
(dp3261
g14
S''
sg15
g16
sg17
g16
sg18
S''
sg19
S''
sg20
g21
sg22
g23
stRp3262
ag3
(g4
g5
(dp3263
g14
S''
sg17
g26
sg18
S''
sg20
g27
sg19
S''
sg15
g26
sg28
Nsg22
g29
stRp3264
ag3
(g4
g5
(dp3265
g14
S''
sg17
g32
sg18
S''
sg20
g21
sg19
S''
sg15
g32
sg28
Nsg22
g33
stRp3266
ag3
(g4
g5
(dp3267
g14
S''
sg17
g36
sg18
S''
sg20
g27
sg19
S''
sg15
g36
sg28
Nsg22
g37
stRp3268
ag3
(g4
g5
(dp3269
g14
S''
sg40
g371
sg18
S''
sg42
g372
sg19
S''
sg15
g371
sg28
Nsg44
g373
stRp3270
ag3
(g4
g5
(dp3271
g14
S''
sg40
g376
sg18
S''
sg42
g377
sg19
S''
sg15
g376
sg28
Nsg44
g378
stRp3272
ag3
(g4
g5
(dp3273
g14
S''
sg40
g381
sg18
S''
sg42
g382
sg19
S''
sg15
g381
sg28
Nsg44
g383
stRp3274
ag3
(g4
g5
(dp3275
g14
S''
sg40
g386
sg18
S''
sg42
g387
sg19
S''
sg15
g386
sg28
Nsg44
g388
stRp3276
ag3
(g4
g5
(dp3277
g14
S''
sg40
g391
sg18
S''
sg42
g392
sg19
S''
sg15
g391
sg28
Nsg44
g393
stRp3278
ag3
(g4
g5
(dp3279
g14
S''
sg40
g396
sg18
S''
sg42
g397
sg19
S''
sg15
g396
sg28
Nsg44
g398
stRp3280
atRp3281
sg68
g3257
sg69
S'0'
sg70
g71
sg44
S'Second factor authentication state on a per user/host basis (replica)'
p3282
sg42
S'Ticket'
p3283
sg74
S'13'
p3284
sg40
S'db.ticket.rp'
p3285
stRp3286
sS'object'
p3287
g3
(g4
g5
(dp3288
g7
S'sha'
p3289
sg9
g3
(g10
g11
(lp3290
g3
(g4
g5
(dp3291
g14
S''
sg15
g16
sg17
g16
sg18
S''
sg19
S''
sg20
g21
sg22
g23
stRp3292
ag3
(g4
g5
(dp3293
g14
S''
sg17
g26
sg18
S''
sg20
g27
sg19
S''
sg15
g26
sg28
Nsg22
g29
stRp3294
ag3
(g4
g5
(dp3295
g14
S''
sg17
g32
sg18
S''
sg20
g21
sg19
S''
sg15
g32
sg28
Nsg22
g33
stRp3296
ag3
(g4
g5
(dp3297
g14
S''
sg17
g36
sg18
S''
sg20
g27
sg19
S''
sg15
g36
sg28
Nsg22
g37
stRp3298
ag3
(g4
g5
(dp3299
g14
S''
sg40
S'sha'
p3300
sg18
S''
sg42
S'SHA1'
p3301
sg19
S''
sg15
g3300
sg28
Nsg44
S'SHA1'
p3302
stRp3303
ag3
(g4
g5
(dp3304
g14
S''
sg40
S'type'
p3305
sg18
S''
sg42
S'ObjectType'
p3306
sg19
S''
sg15
g3305
sg28
Nsg44
S'Type'
p3307
stRp3308
ag3
(g4
g5
(dp3309
g14
S''
sg40
S'data'
p3310
sg18
S''
sg42
S'Octet String'
p3311
sg19
S''
sg15
g3310
sg28
Nsg44
S'VersionData'
p3312
stRp3313
atRp3314
sg68
g3287
sg69
S'0'
sg70
g71
sg44
S'Object storage for graph depots'
p3315
sg42
S'Object'
p3316
sg74
S'63'
p3317
sg40
S'db.object'
p3318
stRp3319
sS'workingg'
p3320
g3
(g4
g5
(dp3321
g7
S'clientFile'
p3322
sg9
g3
(g10
g11
(lp3323
g3
(g4
g5
(dp3324
g14
S''
sg15
g16
sg17
g16
sg18
S''
sg19
S''
sg20
g21
sg22
g23
stRp3325
ag3
(g4
g5
(dp3326
g14
S''
sg17
g26
sg18
S''
sg20
g27
sg19
S''
sg15
g26
sg28
Nsg22
g29
stRp3327
ag3
(g4
g5
(dp3328
g14
S''
sg17
g32
sg18
S''
sg20
g21
sg19
S''
sg15
g32
sg28
Nsg22
g33
stRp3329
ag3
(g4
g5
(dp3330
g14
S''
sg17
g36
sg18
S''
sg20
g27
sg19
S''
sg15
g36
sg28
Nsg22
g37
stRp3331
ag3
(g4
g5
(dp3332
g14
S''
sg40
S'cfile'
p3333
sg18
S''
sg42
S'File'
p3334
sg19
S''
sg15
g3333
sg28
Nsg44
S'Client File'
p3335
stRp3336
ag3
(g4
g5
(dp3337
g14
S''
sg40
S'dfile'
p3338
sg18
S''
sg42
S'File'
p3339
sg19
S''
sg15
g3338
sg28
Nsg44
S'Depot File'
p3340
stRp3341
ag3
(g4
g5
(dp3342
g14
S''
sg40
S'client'
p3343
sg18
S''
sg42
S'Domain'
p3344
sg19
S''
sg15
g3343
sg28
Nsg44
S'Client'
p3345
stRp3346
ag3
(g4
g5
(dp3347
g14
S''
sg40
S'user'
p3348
sg18
S''
sg42
S'User'
p3349
sg19
S''
sg15
g3348
sg28
Nsg44
S'User'
p3350
stRp3351
ag3
(g4
g5
(dp3352
g14
S''
sg40
S'hrev'
p3353
sg18
S''
sg42
S'Rev'
p3354
sg19
S''
sg15
g3353
sg28
Nsg44
S'HaveRev'
p3355
stRp3356
ag3
(g4
g5
(dp3357
g14
S''
sg40
S'wrev'
p3358
sg18
S''
sg42
S'Rev'
p3359
sg19
S''
sg15
g3358
sg28
Nsg44
S'WoringRev'
p3360
stRp3361
ag3
(g4
g5
(dp3362
g14
S''
sg40
S'virtual'
p3363
sg18
S''
sg42
S'Int'
p3364
sg19
S''
sg15
g3363
sg28
Nsg44
S'Virtual'
p3365
stRp3366
ag3
(g4
g5
(dp3367
g14
S''
sg40
S'type'
p3368
sg18
S''
sg42
S'FileType'
p3369
sg19
S''
sg15
g3368
sg28
Nsg44
S'File type'
p3370
stRp3371
ag3
(g4
g5
(dp3372
g14
S''
sg40
S'action'
p3373
sg18
S''
sg42
S'Action'
p3374
sg19
S''
sg15
g3373
sg28
Nsg44
S'Action'
p3375
stRp3376
ag3
(g4
g5
(dp3377
g14
S''
sg40
S'change'
p3378
sg18
S''
sg42
S'Change'
p3379
sg19
S''
sg15
g3378
sg28
Nsg44
S'Change'
p3380
stRp3381
ag3
(g4
g5
(dp3382
g14
S''
sg40
S'modtime'
p3383
sg18
S''
sg42
S'Date'
p3384
sg19
S''
sg15
g3383
sg28
Nsg44
S'ModTime'
p3385
stRp3386
ag3
(g4
g5
(dp3387
g14
S''
sg40
S'islocked'
p3388
sg18
S''
sg42
S'Int'
p3389
sg19
S''
sg15
g3388
sg28
Nsg44
S'IsLocked'
p3390
stRp3391
ag3
(g4
g5
(dp3392
g14
S''
sg40
S'digest'
p3393
sg18
S''
sg42
S'Digest'
p3394
sg19
S''
sg15
g3393
sg28
Nsg44
S'MD5 digest'
p3395
stRp3396
ag3
(g4
g5
(dp3397
g14
S''
sg40
S'size'
p3398
sg18
S''
sg42
S'Int64'
p3399
sg19
S''
sg15
g3398
sg28
Nsg44
S'File size'
p3400
stRp3401
ag3
(g4
g5
(dp3402
g14
S''
sg40
S'traitlot'
p3403
sg18
S''
sg42
S'Int'
p3404
sg19
S''
sg15
g3403
sg28
Nsg44
S'TraitLot'
p3405
stRp3406
ag3
(g4
g5
(dp3407
g14
S''
sg40
S'tampered'
p3408
sg18
S''
sg42
S'TamperCheck'
p3409
sg19
S''
sg15
g3408
sg28
Nsg44
S'Tampered'
p3410
stRp3411
ag3
(g4
g5
(dp3412
g14
S''
sg40
S'ctype'
p3413
sg18
S''
sg42
S'FileType'
p3414
sg19
S''
sg15
g3413
sg28
Nsg44
S'ClientType'
p3415
stRp3416
ag3
(g4
g5
(dp3417
g14
S''
sg40
S'mfile'
p3418
sg18
S''
sg42
S'File'
p3419
sg19
S''
sg15
g3418
sg28
Nsg44
S'Moved filename'
p3420
stRp3421
ag3
(g4
g5
(dp3422
g14
S''
sg40
S'status'
p3423
sg18
S''
sg42
S'Int'
p3424
sg19
S''
sg15
g3423
sg28
Nsg44
S'Working status'
p3425
stRp3426
ag3
(g4
g5
(dp3427
g14
S''
sg40
S'sha'
p3428
sg18
S''
sg42
S'SHA1'
p3429
sg19
S''
sg15
g3428
sg28
Nsg44
S'Blob SHA'
p3430
stRp3431
ag3
(g4
g5
(dp3432
g14
S''
sg40
S'repo'
p3433
sg18
S''
sg42
S'String'
p3434
sg19
S''
sg15
g3433
sg28
Nsg44
S'Repository name'
p3435
stRp3436
atRp3437
sg68
g3320
sg69
S'0'
sg70
g71
sg44
S'Working records for clients of type graph'
p3438
sg42
S'WorkingG'
p3439
sg74
S'51'
p3440
sg40
S'db.workingg'
p3441
stRp3442
sS'job'
p3443
g3
(g4
g5
(dp3444
g7
S'job'
p3445
sg9
g3
(g10
g11
(lp3446
g3
(g4
g5
(dp3447
g14
S''
sg15
g16
sg17
g16
sg18
S''
sg19
S''
sg20
g21
sg22
g23
stRp3448
ag3
(g4
g5
(dp3449
g14
S''
sg17
g26
sg18
S''
sg20
g27
sg19
S''
sg15
g26
sg28
Nsg22
g29
stRp3450
ag3
(g4
g5
(dp3451
g14
S''
sg17
g32
sg18
S''
sg20
g21
sg19
S''
sg15
g32
sg28
Nsg22
g33
stRp3452
ag3
(g4
g5
(dp3453
g14
S''
sg17
g36
sg18
S''
sg20
g27
sg19
S''
sg15
g36
sg28
Nsg22
g37
stRp3454
ag3
(g4
g5
(dp3455
g14
S''
sg40
S'job'
p3456
sg18
S''
sg42
S'String'
p3457
sg19
S''
sg15
g3456
sg28
Nsg44
S'The job name'
p3458
stRp3459
ag3
(g4
g5
(dp3460
g14
S''
sg40
S'xuser'
p3461
sg18
S''
sg42
S'User'
p3462
sg19
S''
sg15
g3461
sg28
Nsg44
S'User name: defunct'
p3463
stRp3464
ag3
(g4
g5
(dp3465
g14
S''
sg40
S'xdate'
p3466
sg18
S''
sg42
S'Date'
p3467
sg19
S''
sg15
g3466
sg28
Nsg44
S'The date: defunct'
p3468
stRp3469
ag3
(g4
g5
(dp3470
g14
S''
sg40
S'xstatus'
p3471
sg18
S''
sg42
S'JobStat'
p3472
sg19
S''
sg15
g3471
sg28
Nsg44
S'Job status: defunct'
p3473
stRp3474
ag3
(g4
g5
(dp3475
g14
S''
sg40
S'description'
p3476
sg18
S''
sg42
S'DescShort'
p3477
sg19
S''
sg15
g3476
sg28
Nsg44
S'Short description'
p3478
stRp3479
atRp3480
sg68
g3443
sg40
S'db.job'
p3481
sg69
S'0'
sg70
g71
sg121
S'db.bodtext'
p3482
sg42
S'Job'
p3483
sg74
S'68'
p3484
sg44
S'Job records'
p3485
stRp3486
sS'workingx'
p3487
g3
(g4
g5
(dp3488
g7
S'clientFile'
p3489
sg9
g3
(g10
g11
(lp3490
g3
(g4
g5
(dp3491
g14
S''
sg15
g16
sg17
g16
sg18
S''
sg19
S''
sg20
g21
sg22
g23
stRp3492
ag3
(g4
g5
(dp3493
g14
S''
sg17
g26
sg18
S''
sg20
g27
sg19
S''
sg15
g26
sg28
Nsg22
g29
stRp3494
ag3
(g4
g5
(dp3495
g14
S''
sg17
g32
sg18
S''
sg20
g21
sg19
S''
sg15
g32
sg28
Nsg22
g33
stRp3496
ag3
(g4
g5
(dp3497
g14
S''
sg17
g36
sg18
S''
sg20
g27
sg19
S''
sg15
g36
sg28
Nsg22
g37
stRp3498
ag3
(g4
g5
(dp3499
g14
S''
sg40
g664
sg18
S''
sg42
g665
sg19
S''
sg15
g664
sg28
Nsg44
g666
stRp3500
ag3
(g4
g5
(dp3501
g14
S''
sg40
g669
sg18
S''
sg42
g670
sg19
S''
sg15
g669
sg28
Nsg44
g671
stRp3502
ag3
(g4
g5
(dp3503
g14
S''
sg40
g674
sg18
S''
sg42
g675
sg19
S''
sg15
g674
sg28
Nsg44
g676
stRp3504
ag3
(g4
g5
(dp3505
g14
S''
sg40
g679
sg18
S''
sg42
g680
sg19
S''
sg15
g679
sg28
Nsg44
g681
stRp3506
ag3
(g4
g5
(dp3507
g14
S''
sg40
g684
sg18
S''
sg42
g685
sg19
S''
sg15
g684
sg28
Nsg44
g686
stRp3508
ag3
(g4
g5
(dp3509
g14
S''
sg40
g689
sg18
S''
sg42
g690
sg19
S''
sg15
g689
sg28
Nsg44
g691
stRp3510
ag3
(g4
g5
(dp3511
g14
S''
sg40
g694
sg18
S''
sg42
g695
sg19
S''
sg15
g694
sg28
Nsg44
g696
stRp3512
ag3
(g4
g5
(dp3513
g14
S''
sg40
g699
sg18
S''
sg42
g700
sg19
S''
sg15
g699
sg28
Nsg44
g701
stRp3514
ag3
(g4
g5
(dp3515
g14
S''
sg40
g704
sg18
S''
sg42
g705
sg19
S''
sg15
g704
sg28
Nsg44
g706
stRp3516
ag3
(g4
g5
(dp3517
g14
S''
sg40
g709
sg18
S''
sg42
g710
sg19
S''
sg15
g709
sg28
Nsg44
g711
stRp3518
ag3
(g4
g5
(dp3519
g14
S''
sg40
g714
sg18
S''
sg42
g715
sg19
S''
sg15
g714
sg28
Nsg44
g716
stRp3520
ag3
(g4
g5
(dp3521
g14
S''
sg40
g719
sg18
S''
sg42
g720
sg19
S''
sg15
g719
sg28
Nsg44
g721
stRp3522
ag3
(g4
g5
(dp3523
g14
S''
sg40
g724
sg18
S''
sg42
g725
sg19
S''
sg15
g724
sg28
Nsg44
g726
stRp3524
ag3
(g4
g5
(dp3525
g14
S''
sg40
g729
sg18
S''
sg42
g730
sg19
S''
sg15
g729
sg28
Nsg44
g731
stRp3526
ag3
(g4
g5
(dp3527
g14
S''
sg40
g734
sg18
S''
sg42
g735
sg19
S''
sg15
g734
sg28
Nsg44
g736
stRp3528
ag3
(g4
g5
(dp3529
g14
S''
sg40
g739
sg18
S''
sg42
g740
sg19
S''
sg15
g739
sg28
Nsg44
g741
stRp3530
ag3
(g4
g5
(dp3531
g14
S''
sg40
g744
sg18
S''
sg42
g745
sg19
S''
sg15
g744
sg28
Nsg44
g746
stRp3532
ag3
(g4
g5
(dp3533
g14
S''
sg40
g749
sg18
S''
sg42
g750
sg19
S''
sg15
g749
sg28
Nsg44
g751
stRp3534
ag3
(g4
g5
(dp3535
g14
S''
sg40
g754
sg18
S''
sg42
g755
sg19
S''
sg15
g754
sg28
Nsg44
g756
stRp3536
atRp3537
sg68
g3487
sg69
S'10'
p3538
sg70
g71
sg44
S'Records for shelved open files'
p3539
sg42
S'Working'
p3540
sg74
S'50'
p3541
sg40
S'db.workingx'
p3542
stRp3543
sS'templatewx'
p3544
g3
(g4
g5
(dp3545
g7
S'client, name, sequence'
p3546
sg9
g3
(g10
g11
(lp3547
g3
(g4
g5
(dp3548
g14
S''
sg15
g16
sg17
g16
sg18
S''
sg19
S''
sg20
g21
sg22
g23
stRp3549
ag3
(g4
g5
(dp3550
g14
S''
sg17
g26
sg18
S''
sg20
g27
sg19
S''
sg15
g26
sg28
Nsg22
g29
stRp3551
ag3
(g4
g5
(dp3552
g14
S''
sg17
g32
sg18
S''
sg20
g21
sg19
S''
sg15
g32
sg28
Nsg22
g33
stRp3553
ag3
(g4
g5
(dp3554
g14
S''
sg17
g36
sg18
S''
sg20
g27
sg19
S''
sg15
g36
sg28
Nsg22
g37
stRp3555
ag3
(g4
g5
(dp3556
g14
S''
sg40
S'client'
p3557
sg18
S''
sg42
S'Domain'
p3558
sg19
S''
sg15
g3557
sg28
Nsg44
S'Stream client'
p3559
stRp3560
ag3
(g4
g5
(dp3561
g14
S''
sg40
S'name'
p3562
sg18
S''
sg42
S'Domain'
p3563
sg19
S''
sg15
g3562
sg28
Nsg44
S'Stream name'
p3564
stRp3565
ag3
(g4
g5
(dp3566
g14
S''
sg40
S'seq'
p3567
sg18
S''
sg42
S'Int'
p3568
sg19
S''
sg15
g3567
sg28
Nsg44
S'Sequence (line) number'
p3569
stRp3570
ag3
(g4
g5
(dp3571
g14
S''
sg40
S'change'
p3572
sg18
S''
sg42
S'Change'
p3573
sg19
S''
sg15
g3572
sg28
Nsg44
S'Versioned at change'
p3574
stRp3575
ag3
(g4
g5
(dp3576
g14
S''
sg40
S'parent'
p3577
sg18
S''
sg42
S'Domain'
p3578
sg19
S''
sg15
g3577
sg28
Nsg44
S'Parent stream name'
p3579
stRp3580
ag3
(g4
g5
(dp3581
g14
S''
sg40
S'type'
p3582
sg18
S''
sg42
S'StreamType'
p3583
sg19
S''
sg15
g3582
sg28
Nsg44
S'Type of stream'
p3584
stRp3585
ag3
(g4
g5
(dp3586
g14
S''
sg40
S'path'
p3587
sg18
S''
sg42
S'StreamPathType'
p3588
sg19
S''
sg15
g3587
sg28
Nsg44
S'Stream path type'
p3589
stRp3590
ag3
(g4
g5
(dp3591
g14
S''
sg40
S'viewFile'
p3592
sg18
S''
sg42
S'Mapping'
p3593
sg19
S''
sg15
g3592
sg28
Nsg44
S'View file (left hand side of path)'
p3594
stRp3595
ag3
(g4
g5
(dp3596
g14
S''
sg40
S'depotFile'
p3597
sg18
S''
sg42
S'Mapping'
p3598
sg19
S''
sg15
g3597
sg28
Nsg44
S'Depot file (right hand side of path)'
p3599
stRp3600
ag3
(g4
g5
(dp3601
g14
S''
sg40
S'changeMap'
p3602
sg18
S''
sg42
S'Value'
p3603
sg19
S''
sg15
g3602
sg28
Nsg44
S"Stream 'import' path changelist specifier. The changelist\n\t\t\tlimits in effect for a given client are displayed in a\n\t    \tread-only client spec field called 'ChangeView'"
p3604
stRp3605
atRp3606
sg68
g3544
sg69
S'0'
sg70
g71
sg44
S'Pending stream templates'
p3607
sg42
S'TemplateWx'
p3608
sg74
S'22'
p3609
sg40
S'db.templatewx'
p3610
stRp3611
sS'revsh'
p3612
g3
(g4
g5
(dp3613
g7
S'depotFile, depotRev, type, action, change'
p3614
sg9
g3
(g10
g11
(lp3615
g3
(g4
g5
(dp3616
g14
S''
sg15
g16
sg17
g16
sg18
S''
sg19
S''
sg20
g21
sg22
g23
stRp3617
ag3
(g4
g5
(dp3618
g14
S''
sg17
g26
sg18
S''
sg20
g27
sg19
S''
sg15
g26
sg28
Nsg22
g29
stRp3619
ag3
(g4
g5
(dp3620
g14
S''
sg17
g32
sg18
S''
sg20
g21
sg19
S''
sg15
g32
sg28
Nsg22
g33
stRp3621
ag3
(g4
g5
(dp3622
g14
S''
sg17
g36
sg18
S''
sg20
g27
sg19
S''
sg15
g36
sg28
Nsg22
g37
stRp3623
ag3
(g4
g5
(dp3624
g14
S''
sg40
g140
sg18
S''
sg42
g141
sg19
S''
sg15
g140
sg28
Nsg44
g142
stRp3625
ag3
(g4
g5
(dp3626
g14
S''
sg40
g145
sg18
S''
sg42
g146
sg19
S''
sg15
g145
sg28
Nsg44
g147
stRp3627
ag3
(g4
g5
(dp3628
g14
S''
sg40
g150
sg18
S''
sg42
g151
sg19
S''
sg15
g150
sg28
Nsg44
g152
stRp3629
ag3
(g4
g5
(dp3630
g14
S''
sg40
g155
sg18
S''
sg42
g156
sg19
S''
sg15
g155
sg28
Nsg44
g157
stRp3631
ag3
(g4
g5
(dp3632
g14
S''
sg40
g160
sg18
S''
sg42
g161
sg19
S''
sg15
g160
sg28
Nsg44
g162
stRp3633
ag3
(g4
g5
(dp3634
g14
S''
sg40
g165
sg18
S''
sg42
g166
sg19
S''
sg15
g165
sg28
Nsg44
g167
stRp3635
ag3
(g4
g5
(dp3636
g14
S''
sg40
g170
sg18
S''
sg42
g171
sg19
S''
sg15
g170
sg28
Nsg44
g172
stRp3637
ag3
(g4
g5
(dp3638
g14
S''
sg40
g175
sg18
S''
sg42
g176
sg19
S''
sg15
g175
sg28
Nsg44
g177
stRp3639
ag3
(g4
g5
(dp3640
g14
S''
sg40
g180
sg18
S''
sg42
g181
sg19
S''
sg15
g180
sg28
Nsg44
g182
stRp3641
ag3
(g4
g5
(dp3642
g14
S''
sg40
g185
sg18
S''
sg42
g186
sg19
S''
sg15
g185
sg28
Nsg44
g187
stRp3643
ag3
(g4
g5
(dp3644
g14
S''
sg40
g190
sg18
S''
sg42
g191
sg19
S''
sg15
g190
sg28
Nsg44
g192
stRp3645
ag3
(g4
g5
(dp3646
g14
S''
sg40
g195
sg18
S''
sg42
g196
sg19
S''
sg15
g195
sg28
Nsg44
g197
stRp3647
ag3
(g4
g5
(dp3648
g14
S''
sg40
g200
sg18
S''
sg42
g201
sg19
S''
sg15
g200
sg28
Nsg44
g202
stRp3649
ag3
(g4
g5
(dp3650
g14
S''
sg40
g205
sg18
S''
sg42
g206
sg19
S''
sg15
g205
sg28
Nsg44
g207
stRp3651
atRp3652
sg68
g3612
sg69
S'9'
sg70
g71
sg44
S'Revision records for shelved files'
p3653
sg42
S'Rev'
p3654
sg74
S'41'
p3655
sg40
S'db.revsh'
p3656
stRp3657
sS'changeidx'
p3658
g3
(g4
g5
(dp3659
g7
S'identity'
p3660
sg9
g3
(g10
g11
(lp3661
g3
(g4
g5
(dp3662
g14
S''
sg15
g16
sg17
g16
sg18
S''
sg19
S''
sg20
g21
sg22
g23
stRp3663
ag3
(g4
g5
(dp3664
g14
S''
sg17
g26
sg18
S''
sg20
g27
sg19
S''
sg15
g26
sg28
Nsg22
g29
stRp3665
ag3
(g4
g5
(dp3666
g14
S''
sg17
g32
sg18
S''
sg20
g21
sg19
S''
sg15
g32
sg28
Nsg22
g33
stRp3667
ag3
(g4
g5
(dp3668
g14
S''
sg17
g36
sg18
S''
sg20
g27
sg19
S''
sg15
g36
sg28
Nsg22
g37
stRp3669
ag3
(g4
g5
(dp3670
g14
S''
sg40
S'identity'
p3671
sg18
S''
sg42
S'String'
p3672
sg19
S''
sg15
g3671
sg28
Nsg44
S'Identifier for this change'
p3673
stRp3674
ag3
(g4
g5
(dp3675
g14
S''
sg40
S'change'
p3676
sg18
S''
sg42
S'Change'
p3677
sg19
S''
sg15
g3676
sg28
Nsg44
S'Changelist'
p3678
stRp3679
atRp3680
sg68
g3658
sg69
S'1'
sg70
g71
sg44
S'Secondary index of db.change/db.changex'
p3681
sg42
S'ChangeIdx'
p3682
sg74
S'58'
p3683
sg40
S'db.changeidx'
p3684
stRp3685
sS'locksg'
p3686
g3
(g4
g5
(dp3687
g7
S'depotFile, client'
p3688
sg9
g3
(g10
g11
(lp3689
g3
(g4
g5
(dp3690
g14
S''
sg15
g16
sg17
g16
sg18
S''
sg19
S''
sg20
g21
sg22
g23
stRp3691
ag3
(g4
g5
(dp3692
g14
S''
sg17
g26
sg18
S''
sg20
g27
sg19
S''
sg15
g26
sg28
Nsg22
g29
stRp3693
ag3
(g4
g5
(dp3694
g14
S''
sg17
g32
sg18
S''
sg20
g21
sg19
S''
sg15
g32
sg28
Nsg22
g33
stRp3695
ag3
(g4
g5
(dp3696
g14
S''
sg17
g36
sg18
S''
sg20
g27
sg19
S''
sg15
g36
sg28
Nsg22
g37
stRp3697
ag3
(g4
g5
(dp3698
g14
S''
sg40
g2487
sg18
S''
sg42
g2488
sg19
S''
sg15
g2487
sg28
Nsg44
g2489
stRp3699
ag3
(g4
g5
(dp3700
g14
S''
sg40
g2492
sg18
S''
sg42
g2493
sg19
S''
sg15
g2492
sg28
Nsg44
g2494
stRp3701
ag3
(g4
g5
(dp3702
g14
S''
sg40
g2497
sg18
S''
sg42
g2498
sg19
S''
sg15
g2497
sg28
Nsg44
g2499
stRp3703
ag3
(g4
g5
(dp3704
g14
S''
sg40
g2502
sg18
S''
sg42
g2503
sg19
S''
sg15
g2502
sg28
Nsg44
g2504
stRp3705
ag3
(g4
g5
(dp3706
g14
S''
sg40
g2507
sg18
S''
sg42
g2508
sg19
S''
sg15
g2507
sg28
Nsg44
g2509
stRp3707
ag3
(g4
g5
(dp3708
g14
S''
sg40
g2512
sg18
S''
sg42
g2513
sg19
S''
sg15
g2512
sg28
Nsg44
g2514
stRp3709
atRp3710
sg68
g3686
sg69
S'2'
sg70
g71
sg44
S'Lock records for clients of type graph'
p3711
sg42
S'Locks'
p3712
sg74
S'48'
p3713
sg40
S'db.locksg'
p3714
stRp3715
sS'change'
p3716
g3
(g4
g5
(dp3717
g7
S'change'
p3718
sg9
g3
(g10
g11
(lp3719
g3
(g4
g5
(dp3720
g14
S''
sg15
g16
sg17
g16
sg18
S''
sg19
S''
sg20
g21
sg22
g23
stRp3721
ag3
(g4
g5
(dp3722
g14
S''
sg17
g26
sg18
S''
sg20
g27
sg19
S''
sg15
g26
sg28
Nsg22
g29
stRp3723
ag3
(g4
g5
(dp3724
g14
S''
sg17
g32
sg18
S''
sg20
g21
sg19
S''
sg15
g32
sg28
Nsg22
g33
stRp3725
ag3
(g4
g5
(dp3726
g14
S''
sg17
g36
sg18
S''
sg20
g27
sg19
S''
sg15
g36
sg28
Nsg22
g37
stRp3727
ag3
(g4
g5
(dp3728
g14
S''
sg40
S'change'
p3729
sg18
S''
sg42
S'Change'
p3730
sg19
S''
sg15
g3729
sg28
Nsg44
S'The change number'
p3731
stRp3732
ag3
(g4
g5
(dp3733
g14
S''
sg40
S'descKey'
p3734
sg18
S''
sg42
S'Change'
p3735
sg19
S''
sg15
g3734
sg28
Nsg44
S"The description key. Normally the same as 'change', but\n\t\t    may differ if a changelist was renumbered on submission."
p3736
stRp3737
ag3
(g4
g5
(dp3738
g14
S''
sg40
S'client'
p3739
sg18
S''
sg42
S'Domain'
p3740
sg19
S''
sg15
g3739
sg28
Nsg44
S'The client from which the change originates'
p3741
stRp3742
ag3
(g4
g5
(dp3743
g14
S''
sg40
S'user'
p3744
sg18
S''
sg42
S'User'
p3745
sg19
S''
sg15
g3744
sg28
Nsg44
S'The user who owns the change'
p3746
stRp3747
ag3
(g4
g5
(dp3748
g14
S''
sg40
S'date'
p3749
sg18
S''
sg42
S'Date'
p3750
sg19
S''
sg15
g3749
sg28
Nsg44
S'Date and time the changelist was submitted'
p3751
stRp3752
ag3
(g4
g5
(dp3753
g14
S''
sg40
S'status'
p3754
sg18
S''
sg42
S'ChangeStatus'
p3755
sg19
S''
sg15
g3754
sg28
Nsg44
S'Status of the change'
p3756
stRp3757
ag3
(g4
g5
(dp3758
g14
S''
sg40
S'description'
p3759
sg18
S''
sg42
S'DescShort'
p3760
sg19
S''
sg15
g3759
sg28
Nsg44
S'Short description of the change.'
p3761
stRp3762
ag3
(g4
g5
(dp3763
g14
S''
sg40
S'root'
p3764
sg18
S''
sg42
S'Mapping'
p3765
sg19
S''
sg15
g3764
sg28
Nsg44
S'Common path for all files in the changelist'
p3766
stRp3767
ag3
(g4
g5
(dp3768
g14
S''
sg40
S'importer'
p3769
sg18
S''
sg42
S'String'
p3770
sg19
S''
sg15
g3769
sg28
Nsg44
S'The user who fetched or pushed this change to this server'
p3771
stRp3772
ag3
(g4
g5
(dp3773
g14
S''
sg40
S'identify'
p3774
sg18
S''
sg42
S'String'
p3775
sg19
S''
sg15
g3774
sg28
Nsg44
S'Identifier for this change'
p3776
stRp3777
ag3
(g4
g5
(dp3778
g14
S''
sg40
S'access'
p3779
sg18
S''
sg42
S'Date'
p3780
sg19
S''
sg15
g3779
sg28
Nsg44
S'Shelve last access'
p3781
stRp3782
atRp3783
sg68
g3716
sg69
S'4'
sg70
g71
sg44
S'Changelists'
p3784
sg42
S'Change'
p3785
sg74
S'56'
p3786
sg40
S'db.change'
p3787
stRp3788
sS'integtx'
p3789
g3
(g4
g5
(dp3790
g7
S'toFile, fromFile, startFromRev, endFromRev, \n\t\tstartToRev, endToRev'
p3791
sg9
g3
(g10
g11
(lp3792
g3
(g4
g5
(dp3793
g14
S''
sg15
g16
sg17
g16
sg18
S''
sg19
S''
sg20
g21
sg22
g23
stRp3794
ag3
(g4
g5
(dp3795
g14
S''
sg17
g26
sg18
S''
sg20
g27
sg19
S''
sg15
g26
sg28
Nsg22
g29
stRp3796
ag3
(g4
g5
(dp3797
g14
S''
sg17
g32
sg18
S''
sg20
g21
sg19
S''
sg15
g32
sg28
Nsg22
g33
stRp3798
ag3
(g4
g5
(dp3799
g14
S''
sg17
g36
sg18
S''
sg20
g27
sg19
S''
sg15
g36
sg28
Nsg22
g37
stRp3800
ag3
(g4
g5
(dp3801
g14
S''
sg40
g1353
sg18
S''
sg42
g1354
sg19
S''
sg15
g1353
sg28
Nsg44
g1355
stRp3802
ag3
(g4
g5
(dp3803
g14
S''
sg40
g1358
sg18
S''
sg42
g1359
sg19
S''
sg15
g1358
sg28
Nsg44
g1360
stRp3804
ag3
(g4
g5
(dp3805
g14
S''
sg40
g1363
sg18
S''
sg42
g1364
sg19
S''
sg15
g1363
sg28
Nsg44
g1365
stRp3806
ag3
(g4
g5
(dp3807
g14
S''
sg40
g1368
sg18
S''
sg42
g1369
sg19
S''
sg15
g1368
sg28
Nsg44
g1370
stRp3808
ag3
(g4
g5
(dp3809
g14
S''
sg40
g1373
sg18
S''
sg42
g1374
sg19
S''
sg15
g1373
sg28
Nsg44
g1375
stRp3810
ag3
(g4
g5
(dp3811
g14
S''
sg40
g1378
sg18
S''
sg42
g1379
sg19
S''
sg15
g1378
sg28
Nsg44
g1380
stRp3812
ag3
(g4
g5
(dp3813
g14
S''
sg40
g1383
sg18
S''
sg42
g1384
sg19
S''
sg15
g1383
sg28
Nsg44
g1385
stRp3814
ag3
(g4
g5
(dp3815
g14
S''
sg40
g1388
sg18
S''
sg42
g1389
sg19
S''
sg15
g1388
sg28
Nsg44
g1390
stRp3816
atRp3817
sg68
g3789
sg40
S'db.integtx'
p3818
sg69
S'0'
sg70
g71
sg121
S'db.resolve'
p3819
sg42
S'Integed'
p3820
sg74
S'32'
p3821
sg44
S'Temporary integration records used by task streams'
p3822
stRp3823
sS'protect'
p3824
g3
(g4
g5
(dp3825
g7
S'seq'
p3826
sg9
g3
(g10
g11
(lp3827
g3
(g4
g5
(dp3828
g14
S''
sg15
g16
sg17
g16
sg18
S''
sg19
S''
sg20
g21
sg22
g23
stRp3829
ag3
(g4
g5
(dp3830
g14
S''
sg17
g26
sg18
S''
sg20
g27
sg19
S''
sg15
g26
sg28
Nsg22
g29
stRp3831
ag3
(g4
g5
(dp3832
g14
S''
sg17
g32
sg18
S''
sg20
g21
sg19
S''
sg15
g32
sg28
Nsg22
g33
stRp3833
ag3
(g4
g5
(dp3834
g14
S''
sg17
g36
sg18
S''
sg20
g27
sg19
S''
sg15
g36
sg28
Nsg22
g37
stRp3835
ag3
(g4
g5
(dp3836
g14
S''
sg40
S'seq'
p3837
sg18
S''
sg42
S'Int'
p3838
sg19
S''
sg15
g3837
sg28
Nsg44
S'Sequence number: for ordering the protections table'
p3839
stRp3840
ag3
(g4
g5
(dp3841
g14
S''
sg40
S'isGroup'
p3842
sg18
S''
sg42
S'Int'
p3843
sg19
S''
sg15
g3842
sg28
Nsg44
S'Flag: 0 for a per-user setting, 1 for a per-group setting.'
p3844
stRp3845
ag3
(g4
g5
(dp3846
g14
S''
sg40
S'user'
p3847
sg18
S''
sg42
S'UserWild'
p3848
sg19
S''
sg15
g3847
sg28
Nsg44
S'User(s), or Group(s) for whom this record applies.'
p3849
stRp3850
ag3
(g4
g5
(dp3851
g14
S''
sg40
S'host'
p3852
sg18
S''
sg42
S'DomainWild'
p3853
sg19
S''
sg15
g3852
sg28
Nsg44
S'Domain(s) (IP addresses) for which this record applies.'
p3854
stRp3855
ag3
(g4
g5
(dp3856
g14
S''
sg40
S'perm'
p3857
sg18
S''
sg42
S'Perm'
p3858
sg19
S''
sg15
g3857
sg28
Nsg44
S'Permissions to be granted/revoked'
p3859
stRp3860
ag3
(g4
g5
(dp3861
g14
S''
sg40
S'mapFlag'
p3862
sg18
S''
sg42
S'MapFlag'
p3863
sg19
S''
sg15
g3862
sg28
Nsg44
S'Flag: Map the files in or out?'
p3864
stRp3865
ag3
(g4
g5
(dp3866
g14
S''
sg40
S'depotFile'
p3867
sg18
S''
sg42
S'Mapping'
p3868
sg19
S''
sg15
g3867
sg28
Nsg44
S'Files to be mapped in or out.'
p3869
stRp3870
ag3
(g4
g5
(dp3871
g14
S''
sg40
S'subPath'
p3872
sg18
S''
sg42
S'String'
p3873
sg19
S''
sg15
g3872
sg28
Nsg44
S'Root path of the sub-protections table'
p3874
stRp3875
ag3
(g4
g5
(dp3876
g14
S''
sg40
S'update'
p3877
sg18
S''
sg42
S'Date'
p3878
sg19
S''
sg15
g3877
sg28
Nsg44
S'Date this specification was last modified'
p3879
stRp3880
atRp3881
sg68
g3824
sg69
S'5'
sg70
g71
sg44
S'The protections table'
p3882
sg42
S'Protect'
p3883
sg74
S'80'
p3884
sg40
S'db.protect'
p3885
stRp3886
sS'remote'
p3887
g3
(g4
g5
(dp3888
g7
S'id'
p3889
sg9
g3
(g10
g11
(lp3890
g3
(g4
g5
(dp3891
g14
S''
sg15
g16
sg17
g16
sg18
S''
sg19
S''
sg20
g21
sg22
g23
stRp3892
ag3
(g4
g5
(dp3893
g14
S''
sg17
g26
sg18
S''
sg20
g27
sg19
S''
sg15
g26
sg28
Nsg22
g29
stRp3894
ag3
(g4
g5
(dp3895
g14
S''
sg17
g32
sg18
S''
sg20
g21
sg19
S''
sg15
g32
sg28
Nsg22
g33
stRp3896
ag3
(g4
g5
(dp3897
g14
S''
sg17
g36
sg18
S''
sg20
g27
sg19
S''
sg15
g36
sg28
Nsg22
g37
stRp3898
ag3
(g4
g5
(dp3899
g14
S''
sg40
S'id'
p3900
sg18
S''
sg42
S'RemoteID'
p3901
sg19
S''
sg15
g3900
sg28
Nsg44
S'The remote identifier'
p3902
stRp3903
ag3
(g4
g5
(dp3904
g14
S''
sg40
S'owner'
p3905
sg18
S''
sg42
S'User'
p3906
sg19
S''
sg15
g3905
sg28
Nsg44
S'The user who created this remote'
p3907
stRp3908
ag3
(g4
g5
(dp3909
g14
S''
sg40
S'options'
p3910
sg18
S''
sg42
S'Int'
p3911
sg19
S''
sg15
g3910
sg28
Nsg44
S'Remote options: 0: unlocked/nocompress, 1: locked/nocompress, 2: unlocked/compress, 4: locked/compress'
p3912
stRp3913
ag3
(g4
g5
(dp3914
g14
S''
sg40
S'address'
p3915
sg18
S''
sg42
S'Text'
p3916
sg19
S''
sg15
g3915
sg28
Nsg44
S'The P4PORT used by the remote server'
p3917
stRp3918
ag3
(g4
g5
(dp3919
g14
S''
sg40
S'desc'
p3920
sg18
S''
sg42
S'Text'
p3921
sg19
S''
sg15
g3920
sg28
Nsg44
S'Description of the remote server'
p3922
stRp3923
ag3
(g4
g5
(dp3924
g14
S''
sg40
S'update'
p3925
sg18
S''
sg42
S'Date'
p3926
sg19
S''
sg15
g3925
sg28
Nsg44
S'The date this specification was last modified'
p3927
stRp3928
ag3
(g4
g5
(dp3929
g14
S''
sg40
S'access'
p3930
sg18
S''
sg42
S'Date'
p3931
sg19
S''
sg15
g3930
sg28
Nsg44
S'The date of the last push/fetch on this remote'
p3932
stRp3933
ag3
(g4
g5
(dp3934
g14
S''
sg40
S'fetch'
p3935
sg18
S''
sg42
S'Change'
p3936
sg19
S''
sg15
g3935
sg28
Nsg44
S'The last changelist that was fetched'
p3937
stRp3938
ag3
(g4
g5
(dp3939
g14
S''
sg40
S'push'
p3940
sg18
S''
sg42
S'Change'
p3941
sg19
S''
sg15
g3940
sg28
Nsg44
S'The last changelist that was pushed'
p3942
stRp3943
ag3
(g4
g5
(dp3944
g14
S''
sg40
S'rmtuser'
p3945
sg18
S''
sg42
S'User'
p3946
sg19
S''
sg15
g3945
sg28
Nsg44
S'The user to use when connecting to the remote server'
p3947
stRp3948
atRp3949
sg68
g3887
sg69
S'1'
sg70
g71
sg44
S'Remote specifications'
p3950
sg42
S'Remote'
p3951
sg74
S'8'
sg40
S'db.remote'
p3952
stRp3953
sS'haveview'
p3954
g3
(g4
g5
(dp3955
g7
S'name, domain'
p3956
sg9
g3
(g10
g11
(lp3957
g3
(g4
g5
(dp3958
g14
S''
sg15
g16
sg17
g16
sg18
S''
sg19
S''
sg20
g21
sg22
g23
stRp3959
ag3
(g4
g5
(dp3960
g14
S''
sg17
g26
sg18
S''
sg20
g27
sg19
S''
sg15
g26
sg28
Nsg22
g29
stRp3961
ag3
(g4
g5
(dp3962
g14
S''
sg17
g32
sg18
S''
sg20
g21
sg19
S''
sg15
g32
sg28
Nsg22
g33
stRp3963
ag3
(g4
g5
(dp3964
g14
S''
sg17
g36
sg18
S''
sg20
g27
sg19
S''
sg15
g36
sg28
Nsg22
g37
stRp3965
ag3
(g4
g5
(dp3966
g14
S''
sg40
g2082
sg18
S''
sg42
g2083
sg19
S''
sg15
g2082
sg28
Nsg44
g2084
stRp3967
ag3
(g4
g5
(dp3968
g14
S''
sg40
g2087
sg18
S''
sg42
g2088
sg19
S''
sg15
g2087
sg28
Nsg44
g2089
stRp3969
ag3
(g4
g5
(dp3970
g14
S''
sg40
g2092
sg18
S''
sg42
g2093
sg19
S''
sg15
g2092
sg28
Nsg44
g2094
stRp3971
ag3
(g4
g5
(dp3972
g14
S''
sg40
g2097
sg18
S''
sg42
g2098
sg19
S''
sg15
g2097
sg28
Nsg44
g2099
stRp3973
ag3
(g4
g5
(dp3974
g14
S''
sg40
g2102
sg18
S''
sg42
g2103
sg19
S''
sg15
g2102
sg28
Nsg44
g2104
stRp3975
atRp3976
sg68
g3954
sg69
S'1'
sg70
g71
sg44
S'Stores mapping changes for clients mapping graph depot content'
p3977
sg42
S'View'
p3978
sg74
S'25'
p3979
sg40
S'db.haveview'
p3980
stRp3981
sS'ixtexthx'
p3982
g3
(g4
g5
(dp3983
g7
S'type, word, attr, value'
p3984
sg9
g3
(g10
g11
(lp3985
g3
(g4
g5
(dp3986
g14
S''
sg15
g16
sg17
g16
sg18
S''
sg19
S''
sg20
g21
sg22
g23
stRp3987
ag3
(g4
g5
(dp3988
g14
S''
sg17
g26
sg18
S''
sg20
g27
sg19
S''
sg15
g26
sg28
Nsg22
g29
stRp3989
ag3
(g4
g5
(dp3990
g14
S''
sg17
g32
sg18
S''
sg20
g21
sg19
S''
sg15
g32
sg28
Nsg22
g33
stRp3991
ag3
(g4
g5
(dp3992
g14
S''
sg17
g36
sg18
S''
sg20
g27
sg19
S''
sg15
g36
sg28
Nsg22
g37
stRp3993
ag3
(g4
g5
(dp3994
g14
S''
sg40
S'type'
p3995
sg18
S''
sg42
S'String'
p3996
sg19
S''
sg15
g3995
sg28
Nsg44
S'The type'
p3997
stRp3998
ag3
(g4
g5
(dp3999
g14
S''
sg40
S'word'
p4000
sg18
S''
sg42
S'String'
p4001
sg19
S''
sg15
g4000
sg28
Nsg44
S'The word being indexed'
p4002
stRp4003
ag3
(g4
g5
(dp4004
g14
S''
sg40
S'attr'
p4005
sg18
S''
sg42
S'Int'
p4006
sg19
S''
sg15
g4005
sg28
Nsg44
S'The attribute number to which this word belongs.'
p4007
stRp4008
ag3
(g4
g5
(dp4009
g14
S''
sg40
S'value'
p4010
sg18
S''
sg42
S'String'
p4011
sg19
S''
sg15
g4010
sg28
Nsg44
S'The value of the index keyed by the word.'
p4012
stRp4013
atRp4014
sg68
g3982
sg69
S'0'
sg70
g71
sg44
S'Indexing data for head revision of all spec fields (for future use)'
p4015
sg42
S'IndexTextHx'
p4016
sg74
S'78'
p4017
sg40
S'db.ixtexthx'
p4018
stRp4019
sS'templatesx'
p4020
g3
(g4
g5
(dp4021
g7
S'shelf, name, sequence'
p4022
sg9
g3
(g10
g11
(lp4023
g3
(g4
g5
(dp4024
g14
S''
sg15
g16
sg17
g16
sg18
S''
sg19
S''
sg20
g21
sg22
g23
stRp4025
ag3
(g4
g5
(dp4026
g14
S''
sg17
g26
sg18
S''
sg20
g27
sg19
S''
sg15
g26
sg28
Nsg22
g29
stRp4027
ag3
(g4
g5
(dp4028
g14
S''
sg17
g32
sg18
S''
sg20
g21
sg19
S''
sg15
g32
sg28
Nsg22
g33
stRp4029
ag3
(g4
g5
(dp4030
g14
S''
sg17
g36
sg18
S''
sg20
g27
sg19
S''
sg15
g36
sg28
Nsg22
g37
stRp4031
ag3
(g4
g5
(dp4032
g14
S''
sg40
S'shelf'
p4033
sg18
S''
sg42
S'Change'
p4034
sg19
S''
sg15
g4033
sg28
Nsg44
S'Shelf changelist number'
p4035
stRp4036
ag3
(g4
g5
(dp4037
g14
S''
sg40
S'name'
p4038
sg18
S''
sg42
S'Domain'
p4039
sg19
S''
sg15
g4038
sg28
Nsg44
S'Stream name'
p4040
stRp4041
ag3
(g4
g5
(dp4042
g14
S''
sg40
S'seq'
p4043
sg18
S''
sg42
S'Int'
p4044
sg19
S''
sg15
g4043
sg28
Nsg44
S'Sequence (line) number'
p4045
stRp4046
ag3
(g4
g5
(dp4047
g14
S''
sg40
S'change'
p4048
sg18
S''
sg42
S'Change'
p4049
sg19
S''
sg15
g4048
sg28
Nsg44
S'Versioned at change'
p4050
stRp4051
ag3
(g4
g5
(dp4052
g14
S''
sg40
S'parent'
p4053
sg18
S''
sg42
S'Domain'
p4054
sg19
S''
sg15
g4053
sg28
Nsg44
S'Parent stream name'
p4055
stRp4056
ag3
(g4
g5
(dp4057
g14
S''
sg40
S'type'
p4058
sg18
S''
sg42
S'StreamType'
p4059
sg19
S''
sg15
g4058
sg28
Nsg44
S'Type of stream'
p4060
stRp4061
ag3
(g4
g5
(dp4062
g14
S''
sg40
S'path'
p4063
sg18
S''
sg42
S'StreamPathType'
p4064
sg19
S''
sg15
g4063
sg28
Nsg44
S'Stream path type'
p4065
stRp4066
ag3
(g4
g5
(dp4067
g14
S''
sg40
S'viewFile'
p4068
sg18
S''
sg42
S'Mapping'
p4069
sg19
S''
sg15
g4068
sg28
Nsg44
S'View file (left hand side of path)'
p4070
stRp4071
ag3
(g4
g5
(dp4072
g14
S''
sg40
S'depotFile'
p4073
sg18
S''
sg42
S'Mapping'
p4074
sg19
S''
sg15
g4073
sg28
Nsg44
S'Depot file (right hand side of path)'
p4075
stRp4076
ag3
(g4
g5
(dp4077
g14
S''
sg40
S'changeMap'
p4078
sg18
S''
sg42
S'Value'
p4079
sg19
S''
sg15
g4078
sg28
Nsg44
S"Stream 'import' path changelist specifier. The changelist\n\t\t\tlimits in effect for a given client are displayed in a\n\t    \tread-only client spec field called 'ChangeView'"
p4080
stRp4081
atRp4082
sg68
g4020
sg69
S'0'
sg70
g71
sg44
S'Shelved stream templates'
p4083
sg42
S'TemplateSx'
p4084
sg74
S'21'
p4085
sg40
S'db.templatesx'
p4086
stRp4087
sS'uxtext'
p4088
g3
(g4
g5
(dp4089
g7
S'word, attr, value'
p4090
sg9
g3
(g10
g11
(lp4091
g3
(g4
g5
(dp4092
g14
S''
sg15
g16
sg17
g16
sg18
S''
sg19
S''
sg20
g21
sg22
g23
stRp4093
ag3
(g4
g5
(dp4094
g14
S''
sg17
g26
sg18
S''
sg20
g27
sg19
S''
sg15
g26
sg28
Nsg22
g29
stRp4095
ag3
(g4
g5
(dp4096
g14
S''
sg17
g32
sg18
S''
sg20
g21
sg19
S''
sg15
g32
sg28
Nsg22
g33
stRp4097
ag3
(g4
g5
(dp4098
g14
S''
sg17
g36
sg18
S''
sg20
g27
sg19
S''
sg15
g36
sg28
Nsg22
g37
stRp4099
ag3
(g4
g5
(dp4100
g14
S''
sg40
g228
sg18
S''
sg42
g229
sg19
S''
sg15
g228
sg28
Nsg44
g230
stRp4101
ag3
(g4
g5
(dp4102
g14
S''
sg40
g233
sg18
S''
sg42
g234
sg19
S''
sg15
g233
sg28
Nsg44
g235
stRp4103
ag3
(g4
g5
(dp4104
g14
S''
sg40
g238
sg18
S''
sg42
g239
sg19
S''
sg15
g238
sg28
Nsg44
g240
stRp4105
atRp4106
sg68
g4088
sg69
S'0'
sg70
g71
sg44
S'Indexing data for Swarm'
p4107
sg42
S'IndexText'
p4108
sg74
S'79'
p4109
sg40
S'db.uxtext'
p4110
stRp4111
sS'bodtextwx'
p4112
g3
(g4
g5
(dp4113
g7
S'type, client, key, attr'
p4114
sg9
g3
(g10
g11
(lp4115
g3
(g4
g5
(dp4116
g14
S''
sg15
g16
sg17
g16
sg18
S''
sg19
S''
sg20
g21
sg22
g23
stRp4117
ag3
(g4
g5
(dp4118
g14
S''
sg17
g26
sg18
S''
sg20
g27
sg19
S''
sg15
g26
sg28
Nsg22
g29
stRp4119
ag3
(g4
g5
(dp4120
g14
S''
sg17
g32
sg18
S''
sg20
g21
sg19
S''
sg15
g32
sg28
Nsg22
g33
stRp4121
ag3
(g4
g5
(dp4122
g14
S''
sg17
g36
sg18
S''
sg20
g27
sg19
S''
sg15
g36
sg28
Nsg22
g37
stRp4123
ag3
(g4
g5
(dp4124
g14
S''
sg40
S'type'
p4125
sg18
S''
sg42
S'Int'
p4126
sg19
S''
sg15
g4125
sg28
Nsg44
S'The type of spec'
p4127
stRp4128
ag3
(g4
g5
(dp4129
g14
S''
sg40
S'client'
p4130
sg18
S''
sg42
S'String'
p4131
sg19
S''
sg15
g4130
sg28
Nsg44
S'The client the spec is opened on'
p4132
stRp4133
ag3
(g4
g5
(dp4134
g14
S''
sg40
S'key'
p4135
sg18
S''
sg42
S'String'
p4136
sg19
S''
sg15
g4135
sg28
Nsg44
S'The spec to which this attribute belongs'
p4137
stRp4138
ag3
(g4
g5
(dp4139
g14
S''
sg40
S'attr'
p4140
sg18
S''
sg42
S'Int'
p4141
sg19
S''
sg15
g4140
sg28
Nsg44
S'The attribute number of this attribute'
p4142
stRp4143
ag3
(g4
g5
(dp4144
g14
S''
sg40
S'text'
p4145
sg18
S''
sg42
S'Text'
p4146
sg19
S''
sg15
g4145
sg28
Nsg44
S'The attribute value'
p4147
stRp4148
ag3
(g4
g5
(dp4149
g14
S''
sg40
S'workChange'
p4150
sg18
S''
sg42
S'Change'
p4151
sg19
S''
sg15
g4150
sg28
Nsg44
S'The working change'
p4152
stRp4153
atRp4154
sg68
g4112
sg69
S'0'
sg70
g71
sg44
S'Open openable spec fields (for future use)'
p4155
sg42
S'BodyTextWx'
p4156
sg74
S'76'
p4157
sg40
S'db.bodtextwx'
p4158
stRp4159
sS'stash'
p4160
g3
(g4
g5
(dp4161
g7
S'client, stream, type, seq'
p4162
sg9
g3
(g10
g11
(lp4163
g3
(g4
g5
(dp4164
g14
S''
sg15
g16
sg17
g16
sg18
S''
sg19
S''
sg20
g21
sg22
g23
stRp4165
ag3
(g4
g5
(dp4166
g14
S''
sg17
g26
sg18
S''
sg20
g27
sg19
S''
sg15
g26
sg28
Nsg22
g29
stRp4167
ag3
(g4
g5
(dp4168
g14
S''
sg17
g32
sg18
S''
sg20
g21
sg19
S''
sg15
g32
sg28
Nsg22
g33
stRp4169
ag3
(g4
g5
(dp4170
g14
S''
sg17
g36
sg18
S''
sg20
g27
sg19
S''
sg15
g36
sg28
Nsg22
g37
stRp4171
ag3
(g4
g5
(dp4172
g14
S''
sg40
S'client'
p4173
sg18
S''
sg42
S'Domain'
p4174
sg19
S''
sg15
g4173
sg28
Nsg44
S'Client the stash refers to'
p4175
stRp4176
ag3
(g4
g5
(dp4177
g14
S''
sg40
S'stream'
p4178
sg18
S''
sg42
S'Domain'
p4179
sg19
S''
sg15
g4178
sg28
Nsg44
S'Stream the stash refers to'
p4180
stRp4181
ag3
(g4
g5
(dp4182
g14
S''
sg40
S'type'
p4183
sg18
S''
sg42
S'StashType'
p4184
sg19
S''
sg15
g4183
sg28
Nsg44
S'Stash type'
p4185
stRp4186
ag3
(g4
g5
(dp4187
g14
S''
sg40
S'seq'
p4188
sg18
S''
sg42
S'Int'
p4189
sg19
S''
sg15
g4188
sg28
Nsg44
S'Sequence number'
p4190
stRp4191
ag3
(g4
g5
(dp4192
g14
S''
sg40
S'change'
p4193
sg18
S''
sg42
S'Change'
p4194
sg19
S''
sg15
g4193
sg28
Nsg44
S'Stash change number'
p4195
stRp4196
atRp4197
sg68
g4160
sg69
S'0'
sg70
g71
sg44
S'Stash data'
p4198
sg42
S'Stash'
p4199
sg74
S'10'
p4200
sg40
S'db.stash'
p4201
stRp4202
sS'graphperm'
p4203
g3
(g4
g5
(dp4204
g7
S'name, repo, ref, type, user, perm'
p4205
sg9
g3
(g10
g11
(lp4206
g3
(g4
g5
(dp4207
g14
S''
sg15
g16
sg17
g16
sg18
S''
sg19
S''
sg20
g21
sg22
g23
stRp4208
ag3
(g4
g5
(dp4209
g14
S''
sg17
g26
sg18
S''
sg20
g27
sg19
S''
sg15
g26
sg28
Nsg22
g29
stRp4210
ag3
(g4
g5
(dp4211
g14
S''
sg17
g32
sg18
S''
sg20
g21
sg19
S''
sg15
g32
sg28
Nsg22
g33
stRp4212
ag3
(g4
g5
(dp4213
g14
S''
sg17
g36
sg18
S''
sg20
g27
sg19
S''
sg15
g36
sg28
Nsg22
g37
stRp4214
ag3
(g4
g5
(dp4215
g14
S''
sg40
S'name'
p4216
sg18
S''
sg42
S'Domain'
p4217
sg19
S''
sg15
g4216
sg28
Nsg44
S'Graph depot name'
p4218
stRp4219
ag3
(g4
g5
(dp4220
g14
S''
sg40
S'repo'
p4221
sg18
S''
sg42
S'String'
p4222
sg19
S''
sg15
g4221
sg28
Nsg44
S'Repository name'
p4223
stRp4224
ag3
(g4
g5
(dp4225
g14
S''
sg40
S'ref'
p4226
sg18
S''
sg42
S'String'
p4227
sg19
S''
sg15
g4226
sg28
Nsg44
S'Reference'
p4228
stRp4229
ag3
(g4
g5
(dp4230
g14
S''
sg40
S'type'
p4231
sg18
S''
sg42
S'UserType'
p4232
sg19
S''
sg15
g4231
sg28
Nsg44
S'Type of user'
p4233
stRp4234
ag3
(g4
g5
(dp4235
g14
S''
sg40
S'user'
p4236
sg18
S''
sg42
S'User'
p4237
sg19
S''
sg15
g4236
sg28
Nsg44
S'User or Group for permission'
p4238
stRp4239
ag3
(g4
g5
(dp4240
g14
S''
sg40
S'perm'
p4241
sg18
S''
sg42
S'GraphPermType'
p4242
sg19
S''
sg15
g4241
sg28
Nsg44
S'Permission'
p4243
stRp4244
atRp4245
sg68
g4203
sg69
S'0'
sg70
g71
sg44
S'Graph depot permissions'
p4246
sg42
S'GraphPerm'
p4247
sg74
S'65'
p4248
sg40
S'db.graphperm'
p4249
stRp4250
sS'userrp'
p4251
g3
(g4
g5
(dp4252
g7
S'user'
p4253
sg9
g3
(g10
g11
(lp4254
g3
(g4
g5
(dp4255
g14
S''
sg15
g16
sg17
g16
sg18
S''
sg19
S''
sg20
g21
sg22
g23
stRp4256
ag3
(g4
g5
(dp4257
g14
S''
sg17
g26
sg18
S''
sg20
g27
sg19
S''
sg15
g26
sg28
Nsg22
g29
stRp4258
ag3
(g4
g5
(dp4259
g14
S''
sg17
g32
sg18
S''
sg20
g21
sg19
S''
sg15
g32
sg28
Nsg22
g33
stRp4260
ag3
(g4
g5
(dp4261
g14
S''
sg17
g36
sg18
S''
sg20
g27
sg19
S''
sg15
g36
sg28
Nsg22
g37
stRp4262
ag3
(g4
g5
(dp4263
g14
S''
sg40
g2125
sg18
S''
sg42
g2126
sg19
S''
sg15
g2125
sg28
Nsg44
g2127
stRp4264
ag3
(g4
g5
(dp4265
g14
S''
sg40
g2130
sg18
S''
sg42
g2131
sg19
S''
sg15
g2130
sg28
Nsg44
g2132
stRp4266
ag3
(g4
g5
(dp4267
g14
S''
sg40
g2135
sg18
S''
sg42
g2136
sg19
S''
sg15
g2135
sg28
Nsg44
g2137
stRp4268
ag3
(g4
g5
(dp4269
g14
S''
sg40
g2140
sg18
S''
sg42
g2141
sg19
S''
sg15
g2140
sg28
Nsg44
g2142
stRp4270
ag3
(g4
g5
(dp4271
g14
S''
sg40
g2145
sg18
S''
sg42
g2146
sg19
S''
sg15
g2145
sg28
Nsg44
g2147
stRp4272
ag3
(g4
g5
(dp4273
g14
S''
sg40
g2150
sg18
S''
sg42
g2151
sg19
S''
sg15
g2150
sg28
Nsg44
g2152
stRp4274
ag3
(g4
g5
(dp4275
g14
S''
sg40
g2155
sg18
S''
sg42
g2156
sg19
S''
sg15
g2155
sg28
Nsg44
g2157
stRp4276
ag3
(g4
g5
(dp4277
g14
S''
sg40
g2160
sg18
S''
sg42
g2161
sg19
S''
sg15
g2160
sg28
Nsg44
g2162
stRp4278
ag3
(g4
g5
(dp4279
g14
S''
sg40
g2165
sg18
S''
sg42
g2166
sg19
S''
sg15
g2165
sg28
Nsg44
g2167
stRp4280
ag3
(g4
g5
(dp4281
g14
S''
sg40
g2170
sg18
S''
sg42
g2171
sg19
S''
sg15
g2170
sg28
Nsg44
g2172
stRp4282
ag3
(g4
g5
(dp4283
g14
S''
sg40
g2175
sg18
S''
sg42
g2176
sg19
S''
sg15
g2175
sg28
Nsg44
g2177
stRp4284
ag3
(g4
g5
(dp4285
g14
S''
sg40
g2180
sg18
S''
sg42
g2181
sg19
S''
sg15
g2180
sg28
Nsg44
g2182
stRp4286
ag3
(g4
g5
(dp4287
g14
S''
sg40
g2185
sg18
S''
sg42
g2186
sg19
S''
sg15
g2185
sg28
Nsg44
g2187
stRp4288
ag3
(g4
g5
(dp4289
g14
S''
sg40
g2190
sg18
S''
sg42
g2191
sg19
S''
sg15
g2190
sg28
Nsg44
g2192
stRp4290
ag3
(g4
g5
(dp4291
g14
S''
sg40
g2195
sg18
S''
sg42
g2196
sg19
S''
sg15
g2195
sg28
Nsg44
g2197
stRp4292
atRp4293
sg68
g4251
sg69
S'7'
sg70
g71
sg44
S"Used by replica server's to store login information"
p4294
sg42
S'User'
p4295
sg74
S'11'
p4296
sg40
S'db.user.rp'
p4297
stRp4298
sS'revcx'
p4299
g3
(g4
g5
(dp4300
g7
S'change, depotFile'
p4301
sg9
g3
(g10
g11
(lp4302
g3
(g4
g5
(dp4303
g14
S''
sg15
g16
sg17
g16
sg18
S''
sg19
S''
sg20
g21
sg22
g23
stRp4304
ag3
(g4
g5
(dp4305
g14
S''
sg17
g26
sg18
S''
sg20
g27
sg19
S''
sg15
g26
sg28
Nsg22
g29
stRp4306
ag3
(g4
g5
(dp4307
g14
S''
sg17
g32
sg18
S''
sg20
g21
sg19
S''
sg15
g32
sg28
Nsg22
g33
stRp4308
ag3
(g4
g5
(dp4309
g14
S''
sg17
g36
sg18
S''
sg20
g27
sg19
S''
sg15
g36
sg28
Nsg22
g37
stRp4310
ag3
(g4
g5
(dp4311
g14
S''
sg40
S'change'
p4312
sg18
S''
sg42
S'Change'
p4313
sg19
S''
sg15
g4312
sg28
Nsg44
S'The changelist that created the revision'
p4314
stRp4315
ag3
(g4
g5
(dp4316
g14
S''
sg40
S'depotFile'
p4317
sg18
S''
sg42
S'File'
p4318
sg19
S''
sg15
g4317
sg28
Nsg44
S'The file name'
p4319
stRp4320
ag3
(g4
g5
(dp4321
g14
S''
sg40
S'depotRev'
p4322
sg18
S''
sg42
S'Rev'
p4323
sg19
S''
sg15
g4322
sg28
Nsg44
S'The revision number'
p4324
stRp4325
ag3
(g4
g5
(dp4326
g14
S''
sg40
S'action'
p4327
sg18
S''
sg42
S'Action'
p4328
sg19
S''
sg15
g4327
sg28
Nsg44
S'The action that created the revision'
p4329
stRp4330
atRp4331
sg68
g4299
sg69
S'0'
sg70
g71
sg44
S'Secondary index of db.rev'
p4332
sg42
S'RevCx'
p4333
sg74
S'44'
p4334
sg40
S'db.revcx'
p4335
stRp4336
sS'viewrp'
p4337
g3
(g4
g5
(dp4338
g7
S'name seq'
p4339
sg9
g3
(g10
g11
(lp4340
g3
(g4
g5
(dp4341
g14
S''
sg15
g16
sg17
g16
sg18
S''
sg19
S''
sg20
g21
sg22
g23
stRp4342
ag3
(g4
g5
(dp4343
g14
S''
sg17
g26
sg18
S''
sg20
g27
sg19
S''
sg15
g26
sg28
Nsg22
g29
stRp4344
ag3
(g4
g5
(dp4345
g14
S''
sg17
g32
sg18
S''
sg20
g21
sg19
S''
sg15
g32
sg28
Nsg22
g33
stRp4346
ag3
(g4
g5
(dp4347
g14
S''
sg17
g36
sg18
S''
sg20
g27
sg19
S''
sg15
g36
sg28
Nsg22
g37
stRp4348
ag3
(g4
g5
(dp4349
g14
S''
sg40
g2082
sg18
S''
sg42
g2083
sg19
S''
sg15
g2082
sg28
Nsg44
g2084
stRp4350
ag3
(g4
g5
(dp4351
g14
S''
sg40
g2087
sg18
S''
sg42
g2088
sg19
S''
sg15
g2087
sg28
Nsg44
g2089
stRp4352
ag3
(g4
g5
(dp4353
g14
S''
sg40
g2092
sg18
S''
sg42
g2093
sg19
S''
sg15
g2092
sg28
Nsg44
g2094
stRp4354
ag3
(g4
g5
(dp4355
g14
S''
sg40
g2097
sg18
S''
sg42
g2098
sg19
S''
sg15
g2097
sg28
Nsg44
g2099
stRp4356
ag3
(g4
g5
(dp4357
g14
S''
sg40
g2102
sg18
S''
sg42
g2103
sg19
S''
sg15
g2102
sg28
Nsg44
g2104
stRp4358
atRp4359
sg68
g4337
sg69
S'1'
sg70
g71
sg44
S'View data for clients of build-server replicas'
p4360
sg42
S'View'
p4361
sg74
S'23'
p4362
sg40
S'db.view.rp'
p4363
stRp4364
sS'changex'
p4365
g3
(g4
g5
(dp4366
g7
S'change'
p4367
sg9
g3
(g10
g11
(lp4368
g3
(g4
g5
(dp4369
g14
S''
sg15
g16
sg17
g16
sg18
S''
sg19
S''
sg20
g21
sg22
g23
stRp4370
ag3
(g4
g5
(dp4371
g14
S''
sg17
g26
sg18
S''
sg20
g27
sg19
S''
sg15
g26
sg28
Nsg22
g29
stRp4372
ag3
(g4
g5
(dp4373
g14
S''
sg17
g32
sg18
S''
sg20
g21
sg19
S''
sg15
g32
sg28
Nsg22
g33
stRp4374
ag3
(g4
g5
(dp4375
g14
S''
sg17
g36
sg18
S''
sg20
g27
sg19
S''
sg15
g36
sg28
Nsg22
g37
stRp4376
ag3
(g4
g5
(dp4377
g14
S''
sg40
g3729
sg18
S''
sg42
g3730
sg19
S''
sg15
g3729
sg28
Nsg44
g3731
stRp4378
ag3
(g4
g5
(dp4379
g14
S''
sg40
g3734
sg18
S''
sg42
g3735
sg19
S''
sg15
g3734
sg28
Nsg44
g3736
stRp4380
ag3
(g4
g5
(dp4381
g14
S''
sg40
g3739
sg18
S''
sg42
g3740
sg19
S''
sg15
g3739
sg28
Nsg44
g3741
stRp4382
ag3
(g4
g5
(dp4383
g14
S''
sg40
g3744
sg18
S''
sg42
g3745
sg19
S''
sg15
g3744
sg28
Nsg44
g3746
stRp4384
ag3
(g4
g5
(dp4385
g14
S''
sg40
g3749
sg18
S''
sg42
g3750
sg19
S''
sg15
g3749
sg28
Nsg44
g3751
stRp4386
ag3
(g4
g5
(dp4387
g14
S''
sg40
g3754
sg18
S''
sg42
g3755
sg19
S''
sg15
g3754
sg28
Nsg44
g3756
stRp4388
ag3
(g4
g5
(dp4389
g14
S''
sg40
g3759
sg18
S''
sg42
g3760
sg19
S''
sg15
g3759
sg28
Nsg44
g3761
stRp4390
ag3
(g4
g5
(dp4391
g14
S''
sg40
g3764
sg18
S''
sg42
g3765
sg19
S''
sg15
g3764
sg28
Nsg44
g3766
stRp4392
ag3
(g4
g5
(dp4393
g14
S''
sg40
g3769
sg18
S''
sg42
g3770
sg19
S''
sg15
g3769
sg28
Nsg44
g3771
stRp4394
ag3
(g4
g5
(dp4395
g14
S''
sg40
g3774
sg18
S''
sg42
g3775
sg19
S''
sg15
g3774
sg28
Nsg44
g3776
stRp4396
ag3
(g4
g5
(dp4397
g14
S''
sg40
g3779
sg18
S''
sg42
g3780
sg19
S''
sg15
g3779
sg28
Nsg44
g3781
stRp4398
atRp4399
sg68
g4365
sg1195
S'contains records for pending changelists only.'
p4400
sg69
S'4'
sg70
g71
sg44
S'Subset of db.change - records for pending changelists only'
p4401
sg42
S'Change'
p4402
sg74
S'57'
p4403
sg40
S'db.changex'
p4404
stRp4405
s.