(dp1
S'domain'
p2
ccopy_reg
_reconstructor
p3
(clib.sqUtils
Storage
p4
c__builtin__
dict
p5
(dp6
S'keying'
p7
S'name'
p8
sS'fields'
p9
g3
(clib.sqUtils
Lst
p10
c__builtin__
list
p11
(lp12
g3
(g4
g5
(dp13
S'comment'
p14
S''
sS'fieldname'
p15
S'id'
p16
sS'name'
p17
g16
sS'default'
p18
S''
sS'label'
p19
S''
sS'type'
p20
S'integer'
p21
sS'desc'
p22
S'Record number as read in'
p23
stRp24
ag3
(g4
g5
(dp25
g14
S''
sg17
S'db_action'
p26
sg18
S''
sg20
S'string'
p27
sg19
S''
sg15
g26
sS'requires'
p28
Nsg22
S'Operation on table'
p29
stRp30
ag3
(g4
g5
(dp31
g14
S''
sg17
S'table_revision'
p32
sg18
S''
sg20
g21
sg19
S''
sg15
g32
sg28
Nsg22
S'Revision of the p4 schema table'
p33
stRp34
ag3
(g4
g5
(dp35
g14
S''
sg17
S'table_name'
p36
sg18
S''
sg20
g27
sg19
S''
sg15
g36
sg28
Nsg22
S'Redundant... but this is the table name'
p37
stRp38
ag3
(g4
g5
(dp39
g14
S''
sS'name'
p40
S'name'
p41
sg18
S''
sS'type'
p42
S'Domain'
p43
sg19
S''
sg15
g41
sg28
NsS'desc'
p44
S'Domain name'
p45
stRp46
ag3
(g4
g5
(dp47
g14
S''
sg40
S'type'
p48
sg18
S''
sg42
S'DomainType'
p49
sg19
S''
sg15
g48
sg28
Nsg44
S'Type of domain'
p50
stRp51
ag3
(g4
g5
(dp52
g14
S''
sg40
S'extra'
p53
sg18
S''
sg42
S'Text'
p54
sg19
S''
sg15
g53
sg28
Nsg44
S'Formerly "host". Associated host or, for labels, revision \n\t\t    number.'
p55
stRp56
ag3
(g4
g5
(dp57
g14
S''
sg40
S'mount'
p58
sg18
S''
sg42
S'Text'
p59
sg19
S''
sg15
g58
sg28
Nsg44
S'The client root'
p60
stRp61
ag3
(g4
g5
(dp62
g14
S''
sg40
S'mount2'
p63
sg18
S''
sg42
S'Text'
p64
sg19
S''
sg15
g63
sg28
Nsg44
S'Alternate client root'
p65
stRp66
ag3
(g4
g5
(dp67
g14
S''
sg40
S'mount3'
p68
sg18
S''
sg42
S'Text'
p69
sg19
S''
sg15
g68
sg28
Nsg44
S'Alternate client root'
p70
stRp71
ag3
(g4
g5
(dp72
g14
S''
sg40
S'owner'
p73
sg18
S''
sg42
S'User'
p74
sg19
S''
sg15
g73
sg28
Nsg44
S'Name of user who owns the domain.'
p75
stRp76
ag3
(g4
g5
(dp77
g14
S''
sg40
S'updateDate'
p78
sg18
S''
sg42
S'Date'
p79
sg19
S''
sg15
g78
sg28
Nsg44
S'Date of last update to domain specification.'
p80
stRp81
ag3
(g4
g5
(dp82
g14
S''
sg40
S'accessDate'
p83
sg18
S''
sg42
S'Date'
p84
sg19
S''
sg15
g83
sg28
Nsg44
S'Date of last access to domain specification.'
p85
stRp86
ag3
(g4
g5
(dp87
g14
S''
sg40
S'options'
p88
sg18
S''
sg42
S'DomainOpts'
p89
sg19
S''
sg15
g88
sg28
Nsg44
S'Options for client, label, and branch domains.'
p90
stRp91
ag3
(g4
g5
(dp92
g14
S''
sg40
S'description'
p93
sg18
S''
sg42
S'Text'
p94
sg19
S''
sg15
g93
sg28
Nsg44
S'Description of domain.'
p95
stRp96
atRp97
sS'tablename'
p98
g2
sS'version'
p99
S'4'
sS'schemaversion'
p100
S'2008.2'
p101
sg44
S'Domains: depots, clients, labels, branches and typemap'
p102
sg42
S'Domain'
p103
sS'lockseq'
p104
S'6'
sg40
S'db.domain'
p105
stRp106
sS'fixrev'
p107
g3
(g4
g5
(dp108
g7
S'change, job'
p109
sg9
g3
(g10
g11
(lp110
g3
(g4
g5
(dp111
g14
S''
sg15
g16
sg17
g16
sg18
S''
sg19
S''
sg20
g21
sg22
g23
stRp112
ag3
(g4
g5
(dp113
g14
S''
sg17
g26
sg18
S''
sg20
g27
sg19
S''
sg15
g26
sg28
Nsg22
g29
stRp114
ag3
(g4
g5
(dp115
g14
S''
sg17
g32
sg18
S''
sg20
g21
sg19
S''
sg15
g32
sg28
Nsg22
g33
stRp116
ag3
(g4
g5
(dp117
g14
S''
sg17
g36
sg18
S''
sg20
g27
sg19
S''
sg15
g36
sg28
Nsg22
g37
stRp118
ag3
(g4
g5
(dp119
g14
S''
sg40
S'job'
p120
sg18
S''
sg42
S'String'
p121
sg19
S''
sg15
g120
sg28
Nsg44
S'Job name'
p122
stRp123
ag3
(g4
g5
(dp124
g14
S''
sg40
S'change'
p125
sg18
S''
sg42
S'Change'
p126
sg19
S''
sg15
g125
sg28
Nsg44
S'Changelist number'
p127
stRp128
ag3
(g4
g5
(dp129
g14
S''
sg40
S'date'
p130
sg18
S''
sg42
S'Date'
p131
sg19
S''
sg15
g130
sg28
Nsg44
S'Date fix was recorded (may differ from date change was\n\t\t    submitted).'
p132
stRp133
ag3
(g4
g5
(dp134
g14
S''
sg40
S'status'
p135
sg18
S''
sg42
S'FixStatus'
p136
sg19
S''
sg15
g135
sg28
Nsg44
S'Status of the job'
p137
stRp138
ag3
(g4
g5
(dp139
g14
S''
sg40
S'client'
p140
sg18
S''
sg42
S'Domain'
p141
sg19
S''
sg15
g140
sg28
Nsg44
S'The client where the fix originated'
p142
stRp143
ag3
(g4
g5
(dp144
g14
S''
sg40
S'user'
p145
sg18
S''
sg42
S'User'
p146
sg19
S''
sg15
g145
sg28
Nsg44
S'The user who fixed the job'
p147
stRp148
atRp149
sg98
g107
sg40
S'db.fixrev'
p150
sg99
S'1'
sg100
g101
sS'seeAlso'
p151
S'db.fix'
p152
sg42
S'Fix'
p153
sg104
S'33'
p154
sg44
S'Fix records - indexed by change'
p155
stRp156
sS'traits'
p157
g3
(g4
g5
(dp158
g7
S'traitLot, name'
p159
sg9
g3
(g10
g11
(lp160
g3
(g4
g5
(dp161
g14
S''
sg15
g16
sg17
g16
sg18
S''
sg19
S''
sg20
g21
sg22
g23
stRp162
ag3
(g4
g5
(dp163
g14
S''
sg17
g26
sg18
S''
sg20
g27
sg19
S''
sg15
g26
sg28
Nsg22
g29
stRp164
ag3
(g4
g5
(dp165
g14
S''
sg17
g32
sg18
S''
sg20
g21
sg19
S''
sg15
g32
sg28
Nsg22
g33
stRp166
ag3
(g4
g5
(dp167
g14
S''
sg17
g36
sg18
S''
sg20
g27
sg19
S''
sg15
g36
sg28
Nsg22
g37
stRp168
ag3
(g4
g5
(dp169
g14
S''
sg40
S'traitLot'
p170
sg18
S''
sg42
S'Int'
p171
sg19
S''
sg15
g170
sg28
Nsg44
S'Indicates a specific collection of traits (referred to \n\t\t    externally as "attributes".)'
p172
stRp173
ag3
(g4
g5
(dp174
g14
S''
sg40
S'name'
p175
sg18
S''
sg42
S'String'
p176
sg19
S''
sg15
g175
sg28
Nsg44
S'Trait (attribute) name'
p177
stRp178
ag3
(g4
g5
(dp179
g14
S''
sg40
S'type'
p180
sg18
S''
sg42
S'TraitType'
p181
sg19
S''
sg15
g180
sg28
Nsg44
S'Type of trait'
p182
stRp183
ag3
(g4
g5
(dp184
g14
S''
sg40
S'value'
p185
sg18
S''
sg42
S'Octet String'
p186
sg19
S''
sg15
g185
sg28
Nsg44
S'The value'
p187
stRp188
atRp189
sg98
g157
sg99
S'0'
sg100
g101
sg44
S'Attributes associated with file revisions'
p190
sg42
S'Trait'
p191
sg104
S'24'
p192
sg40
S'db.traits'
p193
stRp194
sS'have'
p195
g3
(g4
g5
(dp196
g7
S'clientFile'
p197
sg9
g3
(g10
g11
(lp198
g3
(g4
g5
(dp199
g14
S''
sg15
g16
sg17
g16
sg18
S''
sg19
S''
sg20
g21
sg22
g23
stRp200
ag3
(g4
g5
(dp201
g14
S''
sg17
g26
sg18
S''
sg20
g27
sg19
S''
sg15
g26
sg28
Nsg22
g29
stRp202
ag3
(g4
g5
(dp203
g14
S''
sg17
g32
sg18
S''
sg20
g21
sg19
S''
sg15
g32
sg28
Nsg22
g33
stRp204
ag3
(g4
g5
(dp205
g14
S''
sg17
g36
sg18
S''
sg20
g27
sg19
S''
sg15
g36
sg28
Nsg22
g37
stRp206
ag3
(g4
g5
(dp207
g14
S''
sg40
S'clientFile'
p208
sg18
S''
sg42
S'File'
p209
sg19
S''
sg15
g208
sg28
Nsg44
S'The file in its location on the client'
p210
stRp211
ag3
(g4
g5
(dp212
g14
S''
sg40
S'depotFile'
p213
sg18
S''
sg42
S'File'
p214
sg19
S''
sg15
g213
sg28
Nsg44
S'The file in the depot'
p215
stRp216
ag3
(g4
g5
(dp217
g14
S''
sg40
S'haveRev'
p218
sg18
S''
sg42
S'Rev'
p219
sg19
S''
sg15
g218
sg28
Nsg44
S'The revision synced to the client'
p220
stRp221
ag3
(g4
g5
(dp222
g14
S''
sg40
S'type'
p223
sg18
S''
sg42
S'FileType'
p224
sg19
S''
sg15
g223
sg28
Nsg44
S'The filetype of the synced revision'
p225
stRp226
atRp227
sg98
g195
sg99
S'2'
sg100
g101
sg44
S"Contains the 'have-list' for all clients"
p228
sg42
S'Have'
p229
sg104
S'12'
p230
sg40
S'db.have'
p231
stRp232
sS'ixtext'
p233
g3
(g4
g5
(dp234
g7
S'word, attr, value'
p235
sg9
g3
(g10
g11
(lp236
g3
(g4
g5
(dp237
g14
S''
sg15
g16
sg17
g16
sg18
S''
sg19
S''
sg20
g21
sg22
g23
stRp238
ag3
(g4
g5
(dp239
g14
S''
sg17
g26
sg18
S''
sg20
g27
sg19
S''
sg15
g26
sg28
Nsg22
g29
stRp240
ag3
(g4
g5
(dp241
g14
S''
sg17
g32
sg18
S''
sg20
g21
sg19
S''
sg15
g32
sg28
Nsg22
g33
stRp242
ag3
(g4
g5
(dp243
g14
S''
sg17
g36
sg18
S''
sg20
g27
sg19
S''
sg15
g36
sg28
Nsg22
g37
stRp244
ag3
(g4
g5
(dp245
g14
S''
sg40
S'word'
p246
sg18
S''
sg42
S'String'
p247
sg19
S''
sg15
g246
sg28
Nsg44
S'The word being indexed'
p248
stRp249
ag3
(g4
g5
(dp250
g14
S''
sg40
S'attr'
p251
sg18
S''
sg42
S'Int'
p252
sg19
S''
sg15
g251
sg28
Nsg44
S'The attribute number (from the jobspec) to which this\n\t\t    word belongs'
p253
stRp254
ag3
(g4
g5
(dp255
g14
S''
sg40
S'value'
p256
sg18
S''
sg42
S'String'
p257
sg19
S''
sg15
g256
sg28
Nsg44
S'A job name'
p258
stRp259
atRp260
sg98
g233
sg40
S'db.ixtext'
p261
sg99
S'0'
sg100
g101
sg151
S'db.ixdate'
p262
sg42
S'IndexText'
p263
sg104
S'37'
p264
sg44
S'Indexing data for non-date-valued job attributes.'
p265
stRp266
sS'message'
p267
g3
(g4
g5
(dp268
g7
S'language, id'
p269
sg9
g3
(g10
g11
(lp270
g3
(g4
g5
(dp271
g14
S''
sg15
g16
sg17
g16
sg18
S''
sg19
S''
sg20
g21
sg22
g23
stRp272
ag3
(g4
g5
(dp273
g14
S''
sg17
g26
sg18
S''
sg20
g27
sg19
S''
sg15
g26
sg28
Nsg22
g29
stRp274
ag3
(g4
g5
(dp275
g14
S''
sg17
g32
sg18
S''
sg20
g21
sg19
S''
sg15
g32
sg28
Nsg22
g33
stRp276
ag3
(g4
g5
(dp277
g14
S''
sg17
g36
sg18
S''
sg20
g27
sg19
S''
sg15
g36
sg28
Nsg22
g37
stRp278
ag3
(g4
g5
(dp279
g14
S''
sg40
S'language'
p280
sg18
S''
sg42
S'String'
p281
sg19
S''
sg15
g280
sg28
Nsg44
S'The language for which this message applies'
p282
stRp283
ag3
(g4
g5
(dp284
g14
S''
sg40
S'id'
p285
sg18
S''
sg42
S'Int'
p286
sg19
S''
sg15
g285
sg28
Nsg44
S'The message number'
p287
stRp288
ag3
(g4
g5
(dp289
g14
S''
sg40
S'message'
p290
sg18
S''
sg42
S'String'
p291
sg19
S''
sg15
g290
sg28
Nsg44
S'The message text'
p292
stRp293
atRp294
sg98
g267
sg99
S'0'
sg100
g101
sg44
S'System messages'
p295
sg42
S'Message'
p296
sg104
S'39'
p297
sg40
S'db.message'
p298
stRp299
sS'label'
p300
g3
(g4
g5
(dp301
g7
S'name, depotFile'
p302
sg9
g3
(g10
g11
(lp303
g3
(g4
g5
(dp304
g14
S''
sg15
g16
sg17
g16
sg18
S''
sg19
S''
sg20
g21
sg22
g23
stRp305
ag3
(g4
g5
(dp306
g14
S''
sg17
g26
sg18
S''
sg20
g27
sg19
S''
sg15
g26
sg28
Nsg22
g29
stRp307
ag3
(g4
g5
(dp308
g14
S''
sg17
g32
sg18
S''
sg20
g21
sg19
S''
sg15
g32
sg28
Nsg22
g33
stRp309
ag3
(g4
g5
(dp310
g14
S''
sg17
g36
sg18
S''
sg20
g27
sg19
S''
sg15
g36
sg28
Nsg22
g37
stRp311
ag3
(g4
g5
(dp312
g14
S''
sg40
S'name'
p313
sg18
S''
sg42
S'Domain'
p314
sg19
S''
sg15
g313
sg28
Nsg44
S'Name of the label'
p315
stRp316
ag3
(g4
g5
(dp317
g14
S''
sg40
S'depotFile'
p318
sg18
S''
sg42
S'File'
p319
sg19
S''
sg15
g318
sg28
Nsg44
S'File name'
p320
stRp321
ag3
(g4
g5
(dp322
g14
S''
sg40
S'haveRev'
p323
sg18
S''
sg42
S'Rev'
p324
sg19
S''
sg15
g323
sg28
Nsg44
S'The revision of the file in the label'
p325
stRp326
atRp327
sg98
g300
sg99
S'0'
sg100
g101
sg44
S'Lists the revisions of files in labels.'
p328
sg42
S'Label'
p329
sg104
S'13'
p330
sg40
S'db.label'
p331
stRp332
sS'jobdesc'
p333
g3
(g4
g5
(dp334
g7
S'job'
p335
sg9
g3
(g10
g11
(lp336
g3
(g4
g5
(dp337
g14
S''
sg15
g16
sg17
g16
sg18
S''
sg19
S''
sg20
g21
sg22
g23
stRp338
ag3
(g4
g5
(dp339
g14
S''
sg17
g26
sg18
S''
sg20
g27
sg19
S''
sg15
g26
sg28
Nsg22
g29
stRp340
ag3
(g4
g5
(dp341
g14
S''
sg17
g32
sg18
S''
sg20
g21
sg19
S''
sg15
g32
sg28
Nsg22
g33
stRp342
ag3
(g4
g5
(dp343
g14
S''
sg17
g36
sg18
S''
sg20
g27
sg19
S''
sg15
g36
sg28
Nsg22
g37
stRp344
ag3
(g4
g5
(dp345
g14
S''
sg40
S'xjob'
p346
sg18
S''
sg42
S'String'
p347
sg19
S''
sg15
g346
sg28
Nsg44
S'The job name'
p348
stRp349
ag3
(g4
g5
(dp350
g14
S''
sg40
S'xdescription'
p351
sg18
S''
sg42
S'Text'
p352
sg19
S''
sg15
g351
sg28
Nsg44
S'Jobdescription'
p353
stRp354
atRp355
sg98
g333
sg40
S'db.jobdesc'
p356
sg99
S'0'
sg100
g101
sg151
g3
(g10
g11
(lp357
S'db.bodtext'
p358
aS'db.boddate'
p359
atRp360
sg42
S'JobDesc'
p361
sg104
S'31'
p362
sg44
S'Obsolete in 98.2'
p363
stRp364
sS'group'
p365
g3
(g4
g5
(dp366
g7
S'user, group'
p367
sg9
g3
(g10
g11
(lp368
g3
(g4
g5
(dp369
g14
S''
sg15
g16
sg17
g16
sg18
S''
sg19
S''
sg20
g21
sg22
g23
stRp370
ag3
(g4
g5
(dp371
g14
S''
sg17
g26
sg18
S''
sg20
g27
sg19
S''
sg15
g26
sg28
Nsg22
g29
stRp372
ag3
(g4
g5
(dp373
g14
S''
sg17
g32
sg18
S''
sg20
g21
sg19
S''
sg15
g32
sg28
Nsg22
g33
stRp374
ag3
(g4
g5
(dp375
g14
S''
sg17
g36
sg18
S''
sg20
g27
sg19
S''
sg15
g36
sg28
Nsg22
g37
stRp376
ag3
(g4
g5
(dp377
g14
S''
sg40
S'user'
p378
sg18
S''
sg42
S'User'
p379
sg19
S''
sg15
g378
sg28
Nsg44
S'User name'
p380
stRp381
ag3
(g4
g5
(dp382
g14
S''
sg40
S'group'
p383
sg18
S''
sg42
S'User'
p384
sg19
S''
sg15
g383
sg28
Nsg44
S'Group name'
p385
stRp386
ag3
(g4
g5
(dp387
g14
S''
sg40
S'type'
p388
sg18
S''
sg42
S'UserType'
p389
sg19
S''
sg15
g388
sg28
Nsg44
S'Type of user in this group.'
p390
stRp391
ag3
(g4
g5
(dp392
g14
S''
sg40
S'maxResults'
p393
sg18
S''
sg42
S'MaxResults'
p394
sg19
S''
sg15
g393
sg28
Nsg44
S'MaxResults setting for the group.'
p395
stRp396
ag3
(g4
g5
(dp397
g14
S''
sg40
S'maxScanRows'
p398
sg18
S''
sg42
S'MaxScanRows'
p399
sg19
S''
sg15
g398
sg28
Nsg44
S'MaxScanRows setting for the group.'
p400
stRp401
ag3
(g4
g5
(dp402
g14
S''
sg40
S'maxLockTime'
p403
sg18
S''
sg42
S'MaxLockTime'
p404
sg19
S''
sg15
g403
sg28
Nsg44
S'MaxLockTime setting for the group.'
p405
stRp406
ag3
(g4
g5
(dp407
g14
S''
sg40
S'timeout'
p408
sg18
S''
sg42
S'Int'
p409
sg19
S''
sg15
g408
sg28
Nsg44
S'Length of time (in seconds) a login ticket remains valid.'
p410
stRp411
atRp412
sg98
g365
sg99
S'6'
sg100
g101
sg44
S'Lists groups known to Perforce'
p413
sg42
S'Group'
p414
sg104
S'4'
sg40
S'db.group'
p415
stRp416
sS'monitor'
p417
g3
(g4
g5
(dp418
g7
S'id'
p419
sg9
g3
(g10
g11
(lp420
g3
(g4
g5
(dp421
g14
S''
sg15
g16
sg17
g16
sg18
S''
sg19
S''
sg20
g21
sg22
g23
stRp422
ag3
(g4
g5
(dp423
g14
S''
sg17
g26
sg18
S''
sg20
g27
sg19
S''
sg15
g26
sg28
Nsg22
g29
stRp424
ag3
(g4
g5
(dp425
g14
S''
sg17
g32
sg18
S''
sg20
g21
sg19
S''
sg15
g32
sg28
Nsg22
g33
stRp426
ag3
(g4
g5
(dp427
g14
S''
sg17
g36
sg18
S''
sg20
g27
sg19
S''
sg15
g36
sg28
Nsg22
g37
stRp428
ag3
(g4
g5
(dp429
g14
S''
sg40
S'id'
p430
sg18
S''
sg42
S'Int'
p431
sg19
S''
sg15
g430
sg28
Nsg44
S'Thread/process id'
p432
stRp433
ag3
(g4
g5
(dp434
g14
S''
sg40
S'user'
p435
sg18
S''
sg42
S'User'
p436
sg19
S''
sg15
g435
sg28
Nsg44
S'Username of the user running the command'
p437
stRp438
ag3
(g4
g5
(dp439
g14
S''
sg40
S'function'
p440
sg18
S''
sg42
S'String'
p441
sg19
S''
sg15
g440
sg28
Nsg44
S'The command being executed.'
p442
stRp443
ag3
(g4
g5
(dp444
g14
S''
sg40
S'args'
p445
sg18
S''
sg42
S'String'
p446
sg19
S''
sg15
g445
sg28
Nsg44
S'Arguments passed to the command'
p447
stRp448
ag3
(g4
g5
(dp449
g14
S''
sg40
S'startDate'
p450
sg18
S''
sg42
S'Date'
p451
sg19
S''
sg15
g450
sg28
Nsg44
S'The date and time the command started'
p452
stRp453
ag3
(g4
g5
(dp454
g14
S''
sg40
S'runstate'
p455
sg18
S''
sg42
S'Int'
p456
sg19
S''
sg15
g455
sg28
Nsg44
S'Flag: 0 for running, 1 for terminated'
p457
stRp458
ag3
(g4
g5
(dp459
g14
S''
sg40
S'client'
p460
sg18
S''
sg42
S'Domain'
p461
sg19
S''
sg15
g460
sg28
Nsg44
S'The client workspace'
p462
stRp463
ag3
(g4
g5
(dp464
g14
S''
sg40
S'host'
p465
sg18
S''
sg42
S'Text'
p466
sg19
S''
sg15
g465
sg28
Nsg44
S'The IP address of the client'
p467
stRp468
ag3
(g4
g5
(dp469
g14
S''
sg40
S'prog'
p470
sg18
S''
sg42
S'Text'
p471
sg19
S''
sg15
g470
sg28
Nsg44
S'The name (and version) of the client program'
p472
stRp473
atRp474
sg98
g417
sg99
S'1'
sg100
g101
sg44
S'System messages'
p475
sg42
S'Monitor'
p476
sg104
S'40'
p477
sg40
S'db.monitor'
p478
stRp479
sS'working'
p480
g3
(g4
g5
(dp481
g7
S'clientFile'
p482
sg9
g3
(g10
g11
(lp483
g3
(g4
g5
(dp484
g14
S''
sg15
g16
sg17
g16
sg18
S''
sg19
S''
sg20
g21
sg22
g23
stRp485
ag3
(g4
g5
(dp486
g14
S''
sg17
g26
sg18
S''
sg20
g27
sg19
S''
sg15
g26
sg28
Nsg22
g29
stRp487
ag3
(g4
g5
(dp488
g14
S''
sg17
g32
sg18
S''
sg20
g21
sg19
S''
sg15
g32
sg28
Nsg22
g33
stRp489
ag3
(g4
g5
(dp490
g14
S''
sg17
g36
sg18
S''
sg20
g27
sg19
S''
sg15
g36
sg28
Nsg22
g37
stRp491
ag3
(g4
g5
(dp492
g14
S''
sg40
S'clientFile'
p493
sg18
S''
sg42
S'File'
p494
sg19
S''
sg15
g493
sg28
Nsg44
S'File on the client'
p495
stRp496
ag3
(g4
g5
(dp497
g14
S''
sg40
S'depotFile'
p498
sg18
S''
sg42
S'File'
p499
sg19
S''
sg15
g498
sg28
Nsg44
S'File in the depot'
p500
stRp501
ag3
(g4
g5
(dp502
g14
S''
sg40
S'client'
p503
sg18
S''
sg42
S'Domain'
p504
sg19
S''
sg15
g503
sg28
Nsg44
S'The client the file is opened on'
p505
stRp506
ag3
(g4
g5
(dp507
g14
S''
sg40
S'user'
p508
sg18
S''
sg42
S'User'
p509
sg19
S''
sg15
g508
sg28
Nsg44
S'The user who has the file opened'
p510
stRp511
ag3
(g4
g5
(dp512
g14
S''
sg40
S'haveRev'
p513
sg18
S''
sg42
S'Rev'
p514
sg19
S''
sg15
g513
sg28
Nsg44
S"Revision presently in user's client workspace.  This is \n\t\t    normally identical to workRev except for the case in which \n\t\t    you've tried to submit a file where you no longer have the \n\t\t    head revision. Perforce schedules the integrate (moves \n\t\t    workRev to headRev, but doesn't change the haveRev, so that \n\t\t    a p4 revert will return the file originally checked-out \n\t\t    instead of the new head revision."
p515
stRp516
ag3
(g4
g5
(dp517
g14
S''
sg40
S'workRev'
p518
sg18
S''
sg42
S'Rev'
p519
sg19
S''
sg15
g518
sg28
Nsg44
S'Working revision; this is identical to the haveRev except \n\t\t    in the case described above.'
p520
stRp521
ag3
(g4
g5
(dp522
g14
S''
sg40
S'isVirtual'
p523
sg18
S''
sg42
S'Int'
p524
sg19
S''
sg15
g523
sg28
Nsg44
S'Flag: if 1, file was opened with "p4 integ -v".'
p525
stRp526
ag3
(g4
g5
(dp527
g14
S''
sg40
S'type'
p528
sg18
S''
sg42
S'FileType'
p529
sg19
S''
sg15
g528
sg28
Nsg44
S'File type'
p530
stRp531
ag3
(g4
g5
(dp532
g14
S''
sg40
S'action'
p533
sg18
S''
sg42
S'Action'
p534
sg19
S''
sg15
g533
sg28
Nsg44
S"What the user's doing with the file"
p535
stRp536
ag3
(g4
g5
(dp537
g14
S''
sg40
S'change'
p538
sg18
S''
sg42
S'Change'
p539
sg19
S''
sg15
g538
sg28
Nsg44
S'Associated changelist, or zero for the default changelist.'
p540
stRp541
ag3
(g4
g5
(dp542
g14
S''
sg40
S'modTime'
p543
sg18
S''
sg42
S'Date'
p544
sg19
S''
sg15
g543
sg28
Nsg44
S'Date when file was opened and added to the pending \n\t\t    changelist.'
p545
stRp546
ag3
(g4
g5
(dp547
g14
S''
sg40
S'isLocked'
p548
sg18
S''
sg42
S'Int'
p549
sg19
S''
sg15
g548
sg28
Nsg44
S'Flag: 0 for unlocked, 1 for locked.'
p550
stRp551
ag3
(g4
g5
(dp552
g14
S''
sg40
S'digest'
p553
sg18
S''
sg42
S'Digest'
p554
sg19
S''
sg15
g553
sg28
Nsg44
S'MD5 digest of working file.'
p555
stRp556
ag3
(g4
g5
(dp557
g14
S''
sg40
S'size'
p558
sg18
S''
sg42
S'Int64'
p559
sg19
S''
sg15
g558
sg28
Nsg44
S'File size'
p560
stRp561
ag3
(g4
g5
(dp562
g14
S''
sg40
S'traitLot'
p563
sg18
S''
sg42
S'int'
p564
sg19
S''
sg15
g563
sg28
Nsg44
S'Group of traits associated with file revision.'
p565
stRp566
ag3
(g4
g5
(dp567
g14
S''
sg40
S'tampered'
p568
sg18
S''
sg42
S'TamperCheck'
p569
sg19
S''
sg15
g568
sg28
Nsg44
S'Flag indicating the tamper-state of the file in the\n\t\t    workspace.'
p570
stRp571
ag3
(g4
g5
(dp572
g14
S''
sg40
S'clntType'
p573
sg18
S''
sg42
S'FileType'
p574
sg19
S''
sg15
g573
sg28
Nsg44
S'Type of the file in the client workspace.'
p575
stRp576
atRp577
sg98
g480
sg99
S'8'
sg100
g101
sg44
S'Records for work in progress'
p578
sg42
S'Working'
p579
sg104
S'23'
p580
sg40
S'db.working'
p581
stRp582
sS'fix'
p583
g3
(g4
g5
(dp584
g7
S'job, change'
p585
sg9
g3
(g10
g11
(lp586
g3
(g4
g5
(dp587
g14
S''
sg15
g16
sg17
g16
sg18
S''
sg19
S''
sg20
g21
sg22
g23
stRp588
ag3
(g4
g5
(dp589
g14
S''
sg17
g26
sg18
S''
sg20
g27
sg19
S''
sg15
g26
sg28
Nsg22
g29
stRp590
ag3
(g4
g5
(dp591
g14
S''
sg17
g32
sg18
S''
sg20
g21
sg19
S''
sg15
g32
sg28
Nsg22
g33
stRp592
ag3
(g4
g5
(dp593
g14
S''
sg17
g36
sg18
S''
sg20
g27
sg19
S''
sg15
g36
sg28
Nsg22
g37
stRp594
ag3
(g4
g5
(dp595
g14
S''
sg40
g120
sg18
S''
sg42
g121
sg19
S''
sg15
g120
sg28
Nsg44
g122
stRp596
ag3
(g4
g5
(dp597
g14
S''
sg40
g125
sg18
S''
sg42
g126
sg19
S''
sg15
g125
sg28
Nsg44
g127
stRp598
ag3
(g4
g5
(dp599
g14
S''
sg40
g130
sg18
S''
sg42
g131
sg19
S''
sg15
g130
sg28
Nsg44
g132
stRp600
ag3
(g4
g5
(dp601
g14
S''
sg40
g135
sg18
S''
sg42
g136
sg19
S''
sg15
g135
sg28
Nsg44
g137
stRp602
ag3
(g4
g5
(dp603
g14
S''
sg40
g140
sg18
S''
sg42
g141
sg19
S''
sg15
g140
sg28
Nsg44
g142
stRp604
ag3
(g4
g5
(dp605
g14
S''
sg40
g145
sg18
S''
sg42
g146
sg19
S''
sg15
g145
sg28
Nsg44
g147
stRp606
atRp607
sg98
g583
sg40
S'db.fix'
p608
sg99
S'1'
sg100
g101
sg151
S'db.fixrev'
p609
sg42
S'Fix'
p610
sg104
S'32'
p611
sg44
S'Fix records - indexed by job'
p612
stRp613
sS'rev'
p614
g3
(g4
g5
(dp615
g7
S'depotFile, depotRev'
p616
sg9
g3
(g10
g11
(lp617
g3
(g4
g5
(dp618
g14
S''
sg15
g16
sg17
g16
sg18
S''
sg19
S''
sg20
g21
sg22
g23
stRp619
ag3
(g4
g5
(dp620
g14
S''
sg17
g26
sg18
S''
sg20
g27
sg19
S''
sg15
g26
sg28
Nsg22
g29
stRp621
ag3
(g4
g5
(dp622
g14
S''
sg17
g32
sg18
S''
sg20
g21
sg19
S''
sg15
g32
sg28
Nsg22
g33
stRp623
ag3
(g4
g5
(dp624
g14
S''
sg17
g36
sg18
S''
sg20
g27
sg19
S''
sg15
g36
sg28
Nsg22
g37
stRp625
ag3
(g4
g5
(dp626
g14
S''
sg40
S'depotFile'
p627
sg18
S''
sg42
S'File'
p628
sg19
S''
sg15
g627
sg28
Nsg44
S'The file name'
p629
stRp630
ag3
(g4
g5
(dp631
g14
S''
sg40
S'depotRev'
p632
sg18
S''
sg42
S'Rev'
p633
sg19
S''
sg15
g632
sg28
Nsg44
S'The revision number'
p634
stRp635
ag3
(g4
g5
(dp636
g14
S''
sg40
S'type'
p637
sg18
S''
sg42
S'FileType'
p638
sg19
S''
sg15
g637
sg28
Nsg44
S'The file type of the revision'
p639
stRp640
ag3
(g4
g5
(dp641
g14
S''
sg40
S'action'
p642
sg18
S''
sg42
S'Action'
p643
sg19
S''
sg15
g642
sg28
Nsg44
S'The action that created the revision'
p644
stRp645
ag3
(g4
g5
(dp646
g14
S''
sg40
S'change'
p647
sg18
S''
sg42
S'Change'
p648
sg19
S''
sg15
g647
sg28
Nsg44
S'The changelist that created the revision'
p649
stRp650
ag3
(g4
g5
(dp651
g14
S''
sg40
S'date'
p652
sg18
S''
sg42
S'Date'
p653
sg19
S''
sg15
g652
sg28
Nsg44
S'The date/time the changelist that created the revision\n\t\t    was submitted'
p654
stRp655
ag3
(g4
g5
(dp656
g14
S''
sg40
S'modTime'
p657
sg18
S''
sg42
S'Date'
p658
sg19
S''
sg15
g657
sg28
Nsg44
S"The timestamp on the file in the user's workspace when\n\t\t    the revision was submitted."
p659
stRp660
ag3
(g4
g5
(dp661
g14
S''
sg40
S'digest'
p662
sg18
S''
sg42
S'Digest'
p663
sg19
S''
sg15
g662
sg28
Nsg44
S'The MD5 digest of the revision.'
p664
stRp665
ag3
(g4
g5
(dp666
g14
S''
sg40
S'size'
p667
sg18
S''
sg42
S'FileSize'
p668
sg19
S''
sg15
g667
sg28
Nsg44
S'The size of the file in bytes'
p669
stRp670
ag3
(g4
g5
(dp671
g14
S''
sg40
S'traitLot'
p672
sg18
S''
sg42
S'TraitLot'
p673
sg19
S''
sg15
g672
sg28
Nsg44
S'Group of traits (attributes) associated with the revision.'
p674
stRp675
ag3
(g4
g5
(dp676
g14
S''
sg40
S'lbrIsLazy'
p677
sg18
S''
sg42
S'Int'
p678
sg19
S''
sg15
g677
sg28
Nsg44
S'Flag specifying whether or not the revision gets its\n\t\t    content from another file (i.e. whether or not depotFile\n\t\t    and lbrFile differ)'
p679
stRp680
ag3
(g4
g5
(dp681
g14
S''
sg40
S'lbrFile'
p682
sg18
S''
sg42
S'File'
p683
sg19
S''
sg15
g682
sg28
Nsg44
S"Filename for librarian's purposes.  Specifies location in \n\t\t    the archives where the file containing the revision may\n\t\t    be found. Usually the same as depotFile, but differs in\n\t\t    the case of branched/copied revisions."
p684
stRp685
ag3
(g4
g5
(dp686
g14
S''
sg40
S'lbrRev'
p687
sg18
S''
sg42
S'Rev'
p688
sg19
S''
sg15
g687
sg28
Nsg44
S'The revision of lbrFile that contains the revision content.\n\t\t    Usually the same as depotRev, but differs in the case of\n\t\t    branched/copied revisions.'
p689
stRp690
ag3
(g4
g5
(dp691
g14
S''
sg40
S'lbrType'
p692
sg18
S''
sg42
S'FileType'
p693
sg19
S''
sg15
g692
sg28
Nsg44
S'The file type of the librarian revision. Usually the same\n\t\t    as type, but differs in the case of branched/copied \n\t\t    revisions.'
p694
stRp695
atRp696
sg98
g614
sg99
S'7'
sg100
g101
sg44
S'Revision records'
p697
sg42
S'Rev'
p698
sg104
S'17'
p699
sg40
S'db.rev'
p700
stRp701
sS'archive'
p702
g3
(g4
g5
(dp703
g7
S'lbrFile, lbrRev, depotFile, depotRev'
p704
sg9
g3
(g10
g11
(lp705
g3
(g4
g5
(dp706
g14
S''
sg15
g16
sg17
g16
sg18
S''
sg19
S''
sg20
g21
sg22
g23
stRp707
ag3
(g4
g5
(dp708
g14
S''
sg17
g26
sg18
S''
sg20
g27
sg19
S''
sg15
g26
sg28
Nsg22
g29
stRp709
ag3
(g4
g5
(dp710
g14
S''
sg17
g32
sg18
S''
sg20
g21
sg19
S''
sg15
g32
sg28
Nsg22
g33
stRp711
ag3
(g4
g5
(dp712
g14
S''
sg17
g36
sg18
S''
sg20
g27
sg19
S''
sg15
g36
sg28
Nsg22
g37
stRp713
ag3
(g4
g5
(dp714
g14
S''
sg40
S'lbrFile'
p715
sg18
S''
sg42
S'File'
p716
sg19
S''
sg15
g715
sg28
Nsg44
S"Specifies the location in the librarian's archives where\n\t\t    the revision may be found"
p717
stRp718
ag3
(g4
g5
(dp719
g14
S''
sg40
S'lbrRev'
p720
sg18
S''
sg42
S'Rev'
p721
sg19
S''
sg15
g720
sg28
Nsg44
S"Revision number in the librarian's archives"
p722
stRp723
ag3
(g4
g5
(dp724
g14
S''
sg40
S'depotFile'
p725
sg18
S''
sg42
S'File'
p726
sg19
S''
sg15
g725
sg28
Nsg44
S'Name of the file in the depot'
p727
stRp728
ag3
(g4
g5
(dp729
g14
S''
sg40
S'depotRev'
p730
sg18
S''
sg42
S'Rev'
p731
sg19
S''
sg15
g730
sg28
Nsg44
S'Name of the file in the depot'
p732
stRp733
ag3
(g4
g5
(dp734
g14
S''
sg40
S'lbrType'
p735
sg18
S''
sg42
S'FileType'
p736
sg19
S''
sg15
g735
sg28
Nsg44
S"File type for librarian's purposes"
p737
stRp738
atRp739
sg98
g702
sS'note'
p740
S'Obsoleted in 2006.2.'
p741
sg99
S'1'
sg100
g101
sg44
S'Archive information for each revision that is \n\t\tlazy-copied.'
p742
sg42
S'Archive'
p743
sg104
S'15'
p744
sg40
S'db.archive'
p745
stRp746
sS'trigger'
p747
g3
(g4
g5
(dp748
g7
S'seq'
p749
sg9
g3
(g10
g11
(lp750
g3
(g4
g5
(dp751
g14
S''
sg15
g16
sg17
g16
sg18
S''
sg19
S''
sg20
g21
sg22
g23
stRp752
ag3
(g4
g5
(dp753
g14
S''
sg17
g26
sg18
S''
sg20
g27
sg19
S''
sg15
g26
sg28
Nsg22
g29
stRp754
ag3
(g4
g5
(dp755
g14
S''
sg17
g32
sg18
S''
sg20
g21
sg19
S''
sg15
g32
sg28
Nsg22
g33
stRp756
ag3
(g4
g5
(dp757
g14
S''
sg17
g36
sg18
S''
sg20
g27
sg19
S''
sg15
g36
sg28
Nsg22
g37
stRp758
ag3
(g4
g5
(dp759
g14
S''
sg40
S'seq'
p760
sg18
S''
sg42
S'Int'
p761
sg19
S''
sg15
g760
sg28
Nsg44
S'Sequence number: for ordering the trigger list'
p762
stRp763
ag3
(g4
g5
(dp764
g14
S''
sg40
S'name'
p765
sg18
S''
sg42
S'String'
p766
sg19
S''
sg15
g765
sg28
Nsg44
S'Name of the trigger'
p767
stRp768
ag3
(g4
g5
(dp769
g14
S''
sg40
S'mapFlag'
p770
sg18
S''
sg42
S'MapFlag'
p771
sg19
S''
sg15
g770
sg28
Nsg44
S'Type of mapping: specifies whether the trigger applies \n\t\t    to the files or not.'
p772
stRp773
ag3
(g4
g5
(dp774
g14
S''
sg40
S'depotFile'
p775
sg18
S''
sg42
S'Mapping'
p776
sg19
S''
sg15
g775
sg28
Nsg44
S'The files to apply the trigger to'
p777
stRp778
ag3
(g4
g5
(dp779
g14
S''
sg40
S'trigger'
p780
sg18
S''
sg42
S'Trigger'
p781
sg19
S''
sg15
g780
sg28
Nsg44
S'Type of trigger'
p782
stRp783
ag3
(g4
g5
(dp784
g14
S''
sg40
S'action'
p785
sg18
S''
sg42
S'Text'
p786
sg19
S''
sg15
g785
sg28
Nsg44
S'Command to execute when trigger runs'
p787
stRp788
atRp789
sg98
g747
sg99
S'2'
sg100
g101
sg44
S'Trigger specifications'
p790
sg42
S'Trigger'
p791
sg104
S'25'
p792
sg40
S'db.trigger'
p793
stRp794
sS'logger'
p795
g3
(g4
g5
(dp796
g7
S'seq'
p797
sg9
g3
(g10
g11
(lp798
g3
(g4
g5
(dp799
g14
S''
sg15
g16
sg17
g16
sg18
S''
sg19
S''
sg20
g21
sg22
g23
stRp800
ag3
(g4
g5
(dp801
g14
S''
sg17
g26
sg18
S''
sg20
g27
sg19
S''
sg15
g26
sg28
Nsg22
g29
stRp802
ag3
(g4
g5
(dp803
g14
S''
sg17
g32
sg18
S''
sg20
g21
sg19
S''
sg15
g32
sg28
Nsg22
g33
stRp804
ag3
(g4
g5
(dp805
g14
S''
sg17
g36
sg18
S''
sg20
g27
sg19
S''
sg15
g36
sg28
Nsg22
g37
stRp806
ag3
(g4
g5
(dp807
g14
S''
sg40
S'seq'
p808
sg18
S''
sg42
S'Int'
p809
sg19
S''
sg15
g808
sg28
Nsg44
S'Sequence number of event'
p810
stRp811
ag3
(g4
g5
(dp812
g14
S''
sg40
S'key'
p813
sg18
S''
sg42
S'String'
p814
sg19
S''
sg15
g813
sg28
Nsg44
S"Either the word 'change' or the word 'job'"
p815
stRp816
ag3
(g4
g5
(dp817
g14
S''
sg40
S'attr'
p818
sg18
S''
sg42
S'String'
p819
sg19
S''
sg15
g818
sg28
Nsg44
S'The number of the change, or name of the job that was \n\t\t    altered.'
p820
stRp821
atRp822
sg98
g795
sg99
S'1'
sg100
g101
sg44
S"Support for 'p4 logger' command. Logs any changes to \n\t\tchangelists and jobs"
p823
sg42
S'Logger'
p824
sg104
S'2'
sg40
S'db.logger'
p825
stRp826
sS'depot'
p827
g3
(g4
g5
(dp828
g7
S'name'
p829
sg9
g3
(g10
g11
(lp830
g3
(g4
g5
(dp831
g14
S''
sg15
g16
sg17
g16
sg18
S''
sg19
S''
sg20
g21
sg22
g23
stRp832
ag3
(g4
g5
(dp833
g14
S''
sg17
g26
sg18
S''
sg20
g27
sg19
S''
sg15
g26
sg28
Nsg22
g29
stRp834
ag3
(g4
g5
(dp835
g14
S''
sg17
g32
sg18
S''
sg20
g21
sg19
S''
sg15
g32
sg28
Nsg22
g33
stRp836
ag3
(g4
g5
(dp837
g14
S''
sg17
g36
sg18
S''
sg20
g27
sg19
S''
sg15
g36
sg28
Nsg22
g37
stRp838
ag3
(g4
g5
(dp839
g14
S''
sg40
S'name'
p840
sg18
S''
sg42
S'Domain'
p841
sg19
S''
sg15
g840
sg28
Nsg44
S'Depot name'
p842
stRp843
ag3
(g4
g5
(dp844
g14
S''
sg40
S'type'
p845
sg18
S''
sg42
S'DepotType'
p846
sg19
S''
sg15
g845
sg28
Nsg44
S'Type of depot'
p847
stRp848
ag3
(g4
g5
(dp849
g14
S''
sg40
S'extra'
p850
sg18
S''
sg42
S'Text'
p851
sg19
S''
sg15
g850
sg28
Nsg44
S'For remote depots, the P4PORT address of the remote server.\n\t\t    For spec depots, the field contains a suffix to append to \n\t\t    the filename.'
p852
stRp853
ag3
(g4
g5
(dp854
g14
S''
sg40
S'map'
p855
sg18
S''
sg42
S'Text'
p856
sg19
S''
sg15
g855
sg28
Nsg44
S"The depot's map (path translation information).  For local \n\t\t    depots, this will be a path relative to the root directory.\n\t\t    For remote depots, this will be specified in terms of the \n\t\t    remote server's namespace."
p857
stRp858
atRp859
sg98
g827
sg99
S'1'
sg100
g101
sg44
S'Lists depots known to Perforce'
p860
sg42
S'Depot'
p861
sg104
S'5'
sg40
S'db.depot'
p862
stRp863
sS'revpx'
p864
g3
(g4
g5
(dp865
g7
S'depotFile, depotRev'
p866
sg9
g3
(g10
g11
(lp867
g3
(g4
g5
(dp868
g14
S''
sg15
g16
sg17
g16
sg18
S''
sg19
S''
sg20
g21
sg22
g23
stRp869
ag3
(g4
g5
(dp870
g14
S''
sg17
g26
sg18
S''
sg20
g27
sg19
S''
sg15
g26
sg28
Nsg22
g29
stRp871
ag3
(g4
g5
(dp872
g14
S''
sg17
g32
sg18
S''
sg20
g21
sg19
S''
sg15
g32
sg28
Nsg22
g33
stRp873
ag3
(g4
g5
(dp874
g14
S''
sg17
g36
sg18
S''
sg20
g27
sg19
S''
sg15
g36
sg28
Nsg22
g37
stRp875
ag3
(g4
g5
(dp876
g14
S''
sg40
g627
sg18
S''
sg42
g628
sg19
S''
sg15
g627
sg28
Nsg44
g629
stRp877
ag3
(g4
g5
(dp878
g14
S''
sg40
g632
sg18
S''
sg42
g633
sg19
S''
sg15
g632
sg28
Nsg44
g634
stRp879
ag3
(g4
g5
(dp880
g14
S''
sg40
g637
sg18
S''
sg42
g638
sg19
S''
sg15
g637
sg28
Nsg44
g639
stRp881
ag3
(g4
g5
(dp882
g14
S''
sg40
g642
sg18
S''
sg42
g643
sg19
S''
sg15
g642
sg28
Nsg44
g644
stRp883
ag3
(g4
g5
(dp884
g14
S''
sg40
g647
sg18
S''
sg42
g648
sg19
S''
sg15
g647
sg28
Nsg44
g649
stRp885
ag3
(g4
g5
(dp886
g14
S''
sg40
g652
sg18
S''
sg42
g653
sg19
S''
sg15
g652
sg28
Nsg44
g654
stRp887
ag3
(g4
g5
(dp888
g14
S''
sg40
g657
sg18
S''
sg42
g658
sg19
S''
sg15
g657
sg28
Nsg44
g659
stRp889
ag3
(g4
g5
(dp890
g14
S''
sg40
g662
sg18
S''
sg42
g663
sg19
S''
sg15
g662
sg28
Nsg44
g664
stRp891
ag3
(g4
g5
(dp892
g14
S''
sg40
g667
sg18
S''
sg42
g668
sg19
S''
sg15
g667
sg28
Nsg44
g669
stRp893
ag3
(g4
g5
(dp894
g14
S''
sg40
g672
sg18
S''
sg42
g673
sg19
S''
sg15
g672
sg28
Nsg44
g674
stRp895
ag3
(g4
g5
(dp896
g14
S''
sg40
g677
sg18
S''
sg42
g678
sg19
S''
sg15
g677
sg28
Nsg44
g679
stRp897
ag3
(g4
g5
(dp898
g14
S''
sg40
g682
sg18
S''
sg42
g683
sg19
S''
sg15
g682
sg28
Nsg44
g684
stRp899
ag3
(g4
g5
(dp900
g14
S''
sg40
g687
sg18
S''
sg42
g688
sg19
S''
sg15
g687
sg28
Nsg44
g689
stRp901
ag3
(g4
g5
(dp902
g14
S''
sg40
g692
sg18
S''
sg42
g693
sg19
S''
sg15
g692
sg28
Nsg44
g694
stRp903
atRp904
sg98
g864
sg740
S'Only populated during content trigger execution to allow \n\t\ttriggers access to the revisions being submitted.'
p905
sg99
S'7'
sg100
g101
sg44
S'Pending revision records.'
p906
sg42
S'Rev'
p907
sg104
S'21'
p908
sg40
S'db.revpx'
p909
stRp910
sS'counters'
p911
g3
(g4
g5
(dp912
g7
S'name'
p913
sg9
g3
(g10
g11
(lp914
g3
(g4
g5
(dp915
g14
S''
sg15
g16
sg17
g16
sg18
S''
sg19
S''
sg20
g21
sg22
g23
stRp916
ag3
(g4
g5
(dp917
g14
S''
sg17
g26
sg18
S''
sg20
g27
sg19
S''
sg15
g26
sg28
Nsg22
g29
stRp918
ag3
(g4
g5
(dp919
g14
S''
sg17
g32
sg18
S''
sg20
g21
sg19
S''
sg15
g32
sg28
Nsg22
g33
stRp920
ag3
(g4
g5
(dp921
g14
S''
sg17
g36
sg18
S''
sg20
g27
sg19
S''
sg15
g36
sg28
Nsg22
g37
stRp922
ag3
(g4
g5
(dp923
g14
S''
sg40
S'name'
p924
sg18
S''
sg42
S'Counter'
p925
sg19
S''
sg15
g924
sg28
Nsg44
S'Counter name'
p926
stRp927
ag3
(g4
g5
(dp928
g14
S''
sg40
S'value'
p929
sg18
S''
sg42
S'Value'
p930
sg19
S''
sg15
g929
sg28
Nsg44
S'Counter value'
p931
stRp932
atRp933
sg98
g911
sg99
S'1'
sg100
g101
sg44
S'Perforce counters table'
p934
sg42
S'Counters'
p935
sg104
S'1'
sg40
S'db.counters'
p936
stRp937
sS'revdx'
p938
g3
(g4
g5
(dp939
g7
S'depotFile'
p940
sg9
g3
(g10
g11
(lp941
g3
(g4
g5
(dp942
g14
S''
sg15
g16
sg17
g16
sg18
S''
sg19
S''
sg20
g21
sg22
g23
stRp943
ag3
(g4
g5
(dp944
g14
S''
sg17
g26
sg18
S''
sg20
g27
sg19
S''
sg15
g26
sg28
Nsg22
g29
stRp945
ag3
(g4
g5
(dp946
g14
S''
sg17
g32
sg18
S''
sg20
g21
sg19
S''
sg15
g32
sg28
Nsg22
g33
stRp947
ag3
(g4
g5
(dp948
g14
S''
sg17
g36
sg18
S''
sg20
g27
sg19
S''
sg15
g36
sg28
Nsg22
g37
stRp949
ag3
(g4
g5
(dp950
g14
S''
sg40
g627
sg18
S''
sg42
g628
sg19
S''
sg15
g627
sg28
Nsg44
g629
stRp951
ag3
(g4
g5
(dp952
g14
S''
sg40
g632
sg18
S''
sg42
g633
sg19
S''
sg15
g632
sg28
Nsg44
g634
stRp953
ag3
(g4
g5
(dp954
g14
S''
sg40
g637
sg18
S''
sg42
g638
sg19
S''
sg15
g637
sg28
Nsg44
g639
stRp955
ag3
(g4
g5
(dp956
g14
S''
sg40
g642
sg18
S''
sg42
g643
sg19
S''
sg15
g642
sg28
Nsg44
g644
stRp957
ag3
(g4
g5
(dp958
g14
S''
sg40
g647
sg18
S''
sg42
g648
sg19
S''
sg15
g647
sg28
Nsg44
g649
stRp959
ag3
(g4
g5
(dp960
g14
S''
sg40
g652
sg18
S''
sg42
g653
sg19
S''
sg15
g652
sg28
Nsg44
g654
stRp961
ag3
(g4
g5
(dp962
g14
S''
sg40
g657
sg18
S''
sg42
g658
sg19
S''
sg15
g657
sg28
Nsg44
g659
stRp963
ag3
(g4
g5
(dp964
g14
S''
sg40
g662
sg18
S''
sg42
g663
sg19
S''
sg15
g662
sg28
Nsg44
g664
stRp965
ag3
(g4
g5
(dp966
g14
S''
sg40
g667
sg18
S''
sg42
g668
sg19
S''
sg15
g667
sg28
Nsg44
g669
stRp967
ag3
(g4
g5
(dp968
g14
S''
sg40
g672
sg18
S''
sg42
g673
sg19
S''
sg15
g672
sg28
Nsg44
g674
stRp969
ag3
(g4
g5
(dp970
g14
S''
sg40
g677
sg18
S''
sg42
g678
sg19
S''
sg15
g677
sg28
Nsg44
g679
stRp971
ag3
(g4
g5
(dp972
g14
S''
sg40
g682
sg18
S''
sg42
g683
sg19
S''
sg15
g682
sg28
Nsg44
g684
stRp973
ag3
(g4
g5
(dp974
g14
S''
sg40
g687
sg18
S''
sg42
g688
sg19
S''
sg15
g687
sg28
Nsg44
g689
stRp975
ag3
(g4
g5
(dp976
g14
S''
sg40
g692
sg18
S''
sg42
g693
sg19
S''
sg15
g692
sg28
Nsg44
g694
stRp977
atRp978
sg98
g938
sg99
S'7'
sg100
g101
sg44
S'Revision records for revisions deleted at the head revision.'
p979
sg42
S'Rev'
p980
sg104
S'19'
p981
sg40
S'db.revdx'
p982
stRp983
sS'revsx'
p984
g3
(g4
g5
(dp985
g7
S'depotFile, depotRev'
p986
sg9
g3
(g10
g11
(lp987
g3
(g4
g5
(dp988
g14
S''
sg15
g16
sg17
g16
sg18
S''
sg19
S''
sg20
g21
sg22
g23
stRp989
ag3
(g4
g5
(dp990
g14
S''
sg17
g26
sg18
S''
sg20
g27
sg19
S''
sg15
g26
sg28
Nsg22
g29
stRp991
ag3
(g4
g5
(dp992
g14
S''
sg17
g32
sg18
S''
sg20
g21
sg19
S''
sg15
g32
sg28
Nsg22
g33
stRp993
ag3
(g4
g5
(dp994
g14
S''
sg17
g36
sg18
S''
sg20
g27
sg19
S''
sg15
g36
sg28
Nsg22
g37
stRp995
ag3
(g4
g5
(dp996
g14
S''
sg40
g627
sg18
S''
sg42
g628
sg19
S''
sg15
g627
sg28
Nsg44
g629
stRp997
ag3
(g4
g5
(dp998
g14
S''
sg40
g632
sg18
S''
sg42
g633
sg19
S''
sg15
g632
sg28
Nsg44
g634
stRp999
ag3
(g4
g5
(dp1000
g14
S''
sg40
g637
sg18
S''
sg42
g638
sg19
S''
sg15
g637
sg28
Nsg44
g639
stRp1001
ag3
(g4
g5
(dp1002
g14
S''
sg40
g642
sg18
S''
sg42
g643
sg19
S''
sg15
g642
sg28
Nsg44
g644
stRp1003
ag3
(g4
g5
(dp1004
g14
S''
sg40
g647
sg18
S''
sg42
g648
sg19
S''
sg15
g647
sg28
Nsg44
g649
stRp1005
ag3
(g4
g5
(dp1006
g14
S''
sg40
g652
sg18
S''
sg42
g653
sg19
S''
sg15
g652
sg28
Nsg44
g654
stRp1007
ag3
(g4
g5
(dp1008
g14
S''
sg40
g657
sg18
S''
sg42
g658
sg19
S''
sg15
g657
sg28
Nsg44
g659
stRp1009
ag3
(g4
g5
(dp1010
g14
S''
sg40
g662
sg18
S''
sg42
g663
sg19
S''
sg15
g662
sg28
Nsg44
g664
stRp1011
ag3
(g4
g5
(dp1012
g14
S''
sg40
g667
sg18
S''
sg42
g668
sg19
S''
sg15
g667
sg28
Nsg44
g669
stRp1013
ag3
(g4
g5
(dp1014
g14
S''
sg40
g672
sg18
S''
sg42
g673
sg19
S''
sg15
g672
sg28
Nsg44
g674
stRp1015
ag3
(g4
g5
(dp1016
g14
S''
sg40
g677
sg18
S''
sg42
g678
sg19
S''
sg15
g677
sg28
Nsg44
g679
stRp1017
ag3
(g4
g5
(dp1018
g14
S''
sg40
g682
sg18
S''
sg42
g683
sg19
S''
sg15
g682
sg28
Nsg44
g684
stRp1019
ag3
(g4
g5
(dp1020
g14
S''
sg40
g687
sg18
S''
sg42
g688
sg19
S''
sg15
g687
sg28
Nsg44
g689
stRp1021
ag3
(g4
g5
(dp1022
g14
S''
sg40
g692
sg18
S''
sg42
g693
sg19
S''
sg15
g692
sg28
Nsg44
g694
stRp1023
atRp1024
sg98
g984
sg99
S'7'
sg100
g101
sg44
S'Revision records for spec depot files.'
p1025
sg42
S'Rev'
p1026
sg104
S'22'
p1027
sg40
S'db.revsx'
p1028
stRp1029
sS'revcx'
p1030
g3
(g4
g5
(dp1031
g7
S'change, depotFile'
p1032
sg9
g3
(g10
g11
(lp1033
g3
(g4
g5
(dp1034
g14
S''
sg15
g16
sg17
g16
sg18
S''
sg19
S''
sg20
g21
sg22
g23
stRp1035
ag3
(g4
g5
(dp1036
g14
S''
sg17
g26
sg18
S''
sg20
g27
sg19
S''
sg15
g26
sg28
Nsg22
g29
stRp1037
ag3
(g4
g5
(dp1038
g14
S''
sg17
g32
sg18
S''
sg20
g21
sg19
S''
sg15
g32
sg28
Nsg22
g33
stRp1039
ag3
(g4
g5
(dp1040
g14
S''
sg17
g36
sg18
S''
sg20
g27
sg19
S''
sg15
g36
sg28
Nsg22
g37
stRp1041
ag3
(g4
g5
(dp1042
g14
S''
sg40
S'change'
p1043
sg18
S''
sg42
S'Change'
p1044
sg19
S''
sg15
g1043
sg28
Nsg44
S'The changelist that created the revision'
p1045
stRp1046
ag3
(g4
g5
(dp1047
g14
S''
sg40
S'depotFile'
p1048
sg18
S''
sg42
S'File'
p1049
sg19
S''
sg15
g1048
sg28
Nsg44
S'The file name'
p1050
stRp1051
ag3
(g4
g5
(dp1052
g14
S''
sg40
S'depotRev'
p1053
sg18
S''
sg42
S'Rev'
p1054
sg19
S''
sg15
g1053
sg28
Nsg44
S'The revision number'
p1055
stRp1056
ag3
(g4
g5
(dp1057
g14
S''
sg40
S'action'
p1058
sg18
S''
sg42
S'Action'
p1059
sg19
S''
sg15
g1058
sg28
Nsg44
S'The action that created the revision'
p1060
stRp1061
atRp1062
sg98
g1030
sg99
S'0'
sg100
g101
sg44
S'Secondary index of db.rev'
p1063
sg42
S'RevCx'
p1064
sg104
S'18'
p1065
sg40
S'db.revcx'
p1066
stRp1067
sS'integed'
p1068
g3
(g4
g5
(dp1069
g7
S'toFile, fromFile, startFromRev, endFromRev, \n\t\tstartToRev, endToRev'
p1070
sg9
g3
(g10
g11
(lp1071
g3
(g4
g5
(dp1072
g14
S''
sg15
g16
sg17
g16
sg18
S''
sg19
S''
sg20
g21
sg22
g23
stRp1073
ag3
(g4
g5
(dp1074
g14
S''
sg17
g26
sg18
S''
sg20
g27
sg19
S''
sg15
g26
sg28
Nsg22
g29
stRp1075
ag3
(g4
g5
(dp1076
g14
S''
sg17
g32
sg18
S''
sg20
g21
sg19
S''
sg15
g32
sg28
Nsg22
g33
stRp1077
ag3
(g4
g5
(dp1078
g14
S''
sg17
g36
sg18
S''
sg20
g27
sg19
S''
sg15
g36
sg28
Nsg22
g37
stRp1079
ag3
(g4
g5
(dp1080
g14
S''
sg40
S'toFile'
p1081
sg18
S''
sg42
S'File'
p1082
sg19
S''
sg15
g1081
sg28
Nsg44
S'File to which integration is being performed (target).'
p1083
stRp1084
ag3
(g4
g5
(dp1085
g14
S''
sg40
S'fromFile'
p1086
sg18
S''
sg42
S'File'
p1087
sg19
S''
sg15
g1086
sg28
Nsg44
S'File from which integration is being performed (source).'
p1088
stRp1089
ag3
(g4
g5
(dp1090
g14
S''
sg40
S'startFromRev'
p1091
sg18
S''
sg42
S'Rev'
p1092
sg19
S''
sg15
g1091
sg28
Nsg44
S'Starting revision of fromFile'
p1093
stRp1094
ag3
(g4
g5
(dp1095
g14
S''
sg40
S'endFromRev'
p1096
sg18
S''
sg42
S'Rev'
p1097
sg19
S''
sg15
g1096
sg28
Nsg44
S'Ending revision of fromFile. If integrating from a single \n\t\t    revision (not a revision range), the startFromRev and \n\t\t    endFromRev fields will be identical.'
p1098
stRp1099
ag3
(g4
g5
(dp1100
g14
S''
sg40
S'startToRev'
p1101
sg18
S''
sg42
S'Rev'
p1102
sg19
S''
sg15
g1101
sg28
Nsg44
S'Start revision of toFile into which integration was \n\t\t    performed.'
p1103
stRp1104
ag3
(g4
g5
(dp1105
g14
S''
sg40
S'endToRev'
p1106
sg18
S''
sg42
S'Rev'
p1107
sg19
S''
sg15
g1106
sg28
Nsg44
S'End revision of toFile into which integration was \n\t\t    performed. Only varies from startToRev for reverse \n\t\t    integration records.'
p1108
stRp1109
ag3
(g4
g5
(dp1110
g14
S''
sg40
S'how'
p1111
sg18
S''
sg42
S'IntegHow'
p1112
sg19
S''
sg15
g1111
sg28
Nsg44
S'Integration method: variations on \n\t\t    merge/branch/copy/ignore/delete.'
p1113
stRp1114
ag3
(g4
g5
(dp1115
g14
S''
sg40
S'change'
p1116
sg18
S''
sg42
S'Change'
p1117
sg19
S''
sg15
g1116
sg28
Nsg44
S'Changelist associated with the integration.'
p1118
stRp1119
atRp1120
sg98
g1068
sg40
S'db.integed'
p1121
sg99
S'0'
sg100
g101
sg151
S'db.resolve'
p1122
sg42
S'Integed'
p1123
sg104
S'10'
p1124
sg44
S'Permanent integration records'
p1125
stRp1126
sS'job'
p1127
g3
(g4
g5
(dp1128
g7
S'job'
p1129
sg9
g3
(g10
g11
(lp1130
g3
(g4
g5
(dp1131
g14
S''
sg15
g16
sg17
g16
sg18
S''
sg19
S''
sg20
g21
sg22
g23
stRp1132
ag3
(g4
g5
(dp1133
g14
S''
sg17
g26
sg18
S''
sg20
g27
sg19
S''
sg15
g26
sg28
Nsg22
g29
stRp1134
ag3
(g4
g5
(dp1135
g14
S''
sg17
g32
sg18
S''
sg20
g21
sg19
S''
sg15
g32
sg28
Nsg22
g33
stRp1136
ag3
(g4
g5
(dp1137
g14
S''
sg17
g36
sg18
S''
sg20
g27
sg19
S''
sg15
g36
sg28
Nsg22
g37
stRp1138
ag3
(g4
g5
(dp1139
g14
S''
sg40
S'job'
p1140
sg18
S''
sg42
S'String'
p1141
sg19
S''
sg15
g1140
sg28
Nsg44
S'The job name'
p1142
stRp1143
ag3
(g4
g5
(dp1144
g14
S''
sg40
S'xuser'
p1145
sg18
S''
sg42
S'User'
p1146
sg19
S''
sg15
g1145
sg28
Nsg44
S'User name: defunct'
p1147
stRp1148
ag3
(g4
g5
(dp1149
g14
S''
sg40
S'xdate'
p1150
sg18
S''
sg42
S'Date'
p1151
sg19
S''
sg15
g1150
sg28
Nsg44
S'The date: defunct'
p1152
stRp1153
ag3
(g4
g5
(dp1154
g14
S''
sg40
S'xstatus'
p1155
sg18
S''
sg42
S'JobStat'
p1156
sg19
S''
sg15
g1155
sg28
Nsg44
S'Job status: defunct'
p1157
stRp1158
ag3
(g4
g5
(dp1159
g14
S''
sg40
S'description'
p1160
sg18
S''
sg42
S'DescShort'
p1161
sg19
S''
sg15
g1160
sg28
Nsg44
S'Short description'
p1162
stRp1163
atRp1164
sg98
g1127
sg40
S'db.job'
p1165
sg99
S'0'
sg100
g101
sg151
g3
(g10
g11
(lp1166
S'db.bodtext'
p1167
aS'db.boddate'
p1168
atRp1169
sg42
S'Job'
p1170
sg104
S'29'
p1171
sg44
S'Job records'
p1172
stRp1173
sS'user'
p1174
g3
(g4
g5
(dp1175
g7
S'user'
p1176
sg9
g3
(g10
g11
(lp1177
g3
(g4
g5
(dp1178
g14
S''
sg15
g16
sg17
g16
sg18
S''
sg19
S''
sg20
g21
sg22
g23
stRp1179
ag3
(g4
g5
(dp1180
g14
S''
sg17
g26
sg18
S''
sg20
g27
sg19
S''
sg15
g26
sg28
Nsg22
g29
stRp1181
ag3
(g4
g5
(dp1182
g14
S''
sg17
g32
sg18
S''
sg20
g21
sg19
S''
sg15
g32
sg28
Nsg22
g33
stRp1183
ag3
(g4
g5
(dp1184
g14
S''
sg17
g36
sg18
S''
sg20
g27
sg19
S''
sg15
g36
sg28
Nsg22
g37
stRp1185
ag3
(g4
g5
(dp1186
g14
S''
sg40
S'user'
p1187
sg18
S''
sg42
S'User'
p1188
sg19
S''
sg15
g1187
sg28
Nsg44
S'The username'
p1189
stRp1190
ag3
(g4
g5
(dp1191
g14
S''
sg40
S'email'
p1192
sg18
S''
sg42
S'Text'
p1193
sg19
S''
sg15
g1192
sg28
Nsg44
S"The user's email address"
p1194
stRp1195
ag3
(g4
g5
(dp1196
g14
S''
sg40
S'jobView'
p1197
sg18
S''
sg42
S'Text'
p1198
sg19
S''
sg15
g1197
sg28
Nsg44
S"The user's job view"
p1199
stRp1200
ag3
(g4
g5
(dp1201
g14
S''
sg40
S'updateDate'
p1202
sg18
S''
sg42
S'Date'
p1203
sg19
S''
sg15
g1202
sg28
Nsg44
S'The date/time the user record was last updated'
p1204
stRp1205
ag3
(g4
g5
(dp1206
g14
S''
sg40
S'accessDate'
p1207
sg18
S''
sg42
S'Date'
p1208
sg19
S''
sg15
g1207
sg28
Nsg44
S'The date/time the user record was last used'
p1209
stRp1210
ag3
(g4
g5
(dp1211
g14
S''
sg40
S'fullName'
p1212
sg18
S''
sg42
S'Text'
p1213
sg19
S''
sg15
g1212
sg28
Nsg44
S"The user's full name"
p1214
stRp1215
ag3
(g4
g5
(dp1216
g14
S''
sg40
S'password'
p1217
sg18
S''
sg42
S'Password'
p1218
sg19
S''
sg15
g1217
sg28
Nsg44
S'The MD5 hash of the users (encrypted) password'
p1219
stRp1220
ag3
(g4
g5
(dp1221
g14
S''
sg40
S'strength'
p1222
sg18
S''
sg42
S'Strength'
p1223
sg19
S''
sg15
g1222
sg28
Nsg44
S"Measure of the strength of the user's password"
p1224
stRp1225
ag3
(g4
g5
(dp1226
g14
S''
sg40
S'ticket'
p1227
sg18
S''
sg42
S'Password'
p1228
sg19
S''
sg15
g1227
sg28
Nsg44
S"'p4 login' ticket for this user"
p1229
stRp1230
ag3
(g4
g5
(dp1231
g14
S''
sg40
S'endDate'
p1232
sg18
S''
sg42
S'Date'
p1233
sg19
S''
sg15
g1232
sg28
Nsg44
S"Date/time the user's ticket expires"
p1234
stRp1235
atRp1236
sg98
g1174
sg99
S'3'
sg100
g101
sg44
S'Lists users known to Perforce'
p1237
sg42
S'User'
p1238
sg104
S'3'
sg40
S'db.user'
p1239
stRp1240
sS'archmap'
p1241
g3
(g4
g5
(dp1242
g7
S'lbrFile, depotFile'
p1243
sg9
g3
(g10
g11
(lp1244
g3
(g4
g5
(dp1245
g14
S''
sg15
g16
sg17
g16
sg18
S''
sg19
S''
sg20
g21
sg22
g23
stRp1246
ag3
(g4
g5
(dp1247
g14
S''
sg17
g26
sg18
S''
sg20
g27
sg19
S''
sg15
g26
sg28
Nsg22
g29
stRp1248
ag3
(g4
g5
(dp1249
g14
S''
sg17
g32
sg18
S''
sg20
g21
sg19
S''
sg15
g32
sg28
Nsg22
g33
stRp1250
ag3
(g4
g5
(dp1251
g14
S''
sg17
g36
sg18
S''
sg20
g27
sg19
S''
sg15
g36
sg28
Nsg22
g37
stRp1252
ag3
(g4
g5
(dp1253
g14
S''
sg40
S'lbrFile'
p1254
sg18
S''
sg42
S'File'
p1255
sg19
S''
sg15
g1254
sg28
Nsg44
S'Paths in the librarian namespace that provide lazy\n\t\t    copies.'
p1256
stRp1257
ag3
(g4
g5
(dp1258
g14
S''
sg40
S'depotFile'
p1259
sg18
S''
sg42
S'File'
p1260
sg19
S''
sg15
g1259
sg28
Nsg44
S'Paths in the depot namespace that receive lazy copies.'
p1261
stRp1262
atRp1263
sg98
g1241
sg740
S'Supercedes db.archive'
p1264
sg99
S'0'
sg100
g101
sg44
S'Mappings entries for lazy-copies.'
p1265
sg42
S'ArchMap'
p1266
sg104
S'16'
p1267
sg40
S'db.archmap'
p1268
stRp1269
sS'change'
p1270
g3
(g4
g5
(dp1271
g7
S'change'
p1272
sg9
g3
(g10
g11
(lp1273
g3
(g4
g5
(dp1274
g14
S''
sg15
g16
sg17
g16
sg18
S''
sg19
S''
sg20
g21
sg22
g23
stRp1275
ag3
(g4
g5
(dp1276
g14
S''
sg17
g26
sg18
S''
sg20
g27
sg19
S''
sg15
g26
sg28
Nsg22
g29
stRp1277
ag3
(g4
g5
(dp1278
g14
S''
sg17
g32
sg18
S''
sg20
g21
sg19
S''
sg15
g32
sg28
Nsg22
g33
stRp1279
ag3
(g4
g5
(dp1280
g14
S''
sg17
g36
sg18
S''
sg20
g27
sg19
S''
sg15
g36
sg28
Nsg22
g37
stRp1281
ag3
(g4
g5
(dp1282
g14
S''
sg40
S'change'
p1283
sg18
S''
sg42
S'Change'
p1284
sg19
S''
sg15
g1283
sg28
Nsg44
S'The change number'
p1285
stRp1286
ag3
(g4
g5
(dp1287
g14
S''
sg40
S'descKey'
p1288
sg18
S''
sg42
S'Change'
p1289
sg19
S''
sg15
g1288
sg28
Nsg44
S"The description key. Normally the same as 'change', but\n\t\t    may differ if a changelist was renumbered on submission."
p1290
stRp1291
ag3
(g4
g5
(dp1292
g14
S''
sg40
S'client'
p1293
sg18
S''
sg42
S'Domain'
p1294
sg19
S''
sg15
g1293
sg28
Nsg44
S'The client from which the change originates'
p1295
stRp1296
ag3
(g4
g5
(dp1297
g14
S''
sg40
S'user'
p1298
sg18
S''
sg42
S'User'
p1299
sg19
S''
sg15
g1298
sg28
Nsg44
S'The user who owns the change'
p1300
stRp1301
ag3
(g4
g5
(dp1302
g14
S''
sg40
S'date'
p1303
sg18
S''
sg42
S'Date'
p1304
sg19
S''
sg15
g1303
sg28
Nsg44
S'Date and time the changelist was submitted'
p1305
stRp1306
ag3
(g4
g5
(dp1307
g14
S''
sg40
S'status'
p1308
sg18
S''
sg42
S'Int'
p1309
sg19
S''
sg15
g1308
sg28
Nsg44
S'Flag: 0 for pending changes; 1 for committed changes.'
p1310
stRp1311
ag3
(g4
g5
(dp1312
g14
S''
sg40
S'description'
p1313
sg18
S''
sg42
S'DescShort'
p1314
sg19
S''
sg15
g1313
sg28
Nsg44
S'Short description of the change.'
p1315
stRp1316
ag3
(g4
g5
(dp1317
g14
S''
sg40
S'root'
p1318
sg18
S''
sg42
S'Mapping'
p1319
sg19
S''
sg15
g1318
sg28
Nsg44
S'Common path for all files in the changelist'
p1320
stRp1321
atRp1322
sg98
g1270
sg99
S'1'
sg100
g101
sg44
S'Changelists'
p1323
sg42
S'Change'
p1324
sg104
S'26'
p1325
sg40
S'db.change'
p1326
stRp1327
sS'desc'
p1328
g3
(g4
g5
(dp1329
g7
S'descKey'
p1330
sg9
g3
(g10
g11
(lp1331
g3
(g4
g5
(dp1332
g14
S''
sg15
g16
sg17
g16
sg18
S''
sg19
S''
sg20
g21
sg22
g23
stRp1333
ag3
(g4
g5
(dp1334
g14
S''
sg17
g26
sg18
S''
sg20
g27
sg19
S''
sg15
g26
sg28
Nsg22
g29
stRp1335
ag3
(g4
g5
(dp1336
g14
S''
sg17
g32
sg18
S''
sg20
g21
sg19
S''
sg15
g32
sg28
Nsg22
g33
stRp1337
ag3
(g4
g5
(dp1338
g14
S''
sg17
g36
sg18
S''
sg20
g27
sg19
S''
sg15
g36
sg28
Nsg22
g37
stRp1339
ag3
(g4
g5
(dp1340
g14
S''
sg40
S'descKey'
p1341
sg18
S''
sg42
S'Change'
p1342
sg19
S''
sg15
g1341
sg28
Nsg44
S'Original number of the change to which this description\n\t\t    applies. This may differ from the final change number if\n\t\t    the change is renumbered on submission.'
p1343
stRp1344
ag3
(g4
g5
(dp1345
g14
S''
sg40
S'description'
p1346
sg18
S''
sg42
S'Text'
p1347
sg19
S''
sg15
g1346
sg28
Nsg44
S'The change description itself'
p1348
stRp1349
atRp1350
sg98
g1328
sg99
S'0'
sg100
g101
sg44
S'Change descriptions'
p1351
sg42
S'Desc'
p1352
sg104
S'28'
p1353
sg40
S'db.desc'
p1354
stRp1355
sS'protect'
p1356
g3
(g4
g5
(dp1357
g7
S'seq'
p1358
sg9
g3
(g10
g11
(lp1359
g3
(g4
g5
(dp1360
g14
S''
sg15
g16
sg17
g16
sg18
S''
sg19
S''
sg20
g21
sg22
g23
stRp1361
ag3
(g4
g5
(dp1362
g14
S''
sg17
g26
sg18
S''
sg20
g27
sg19
S''
sg15
g26
sg28
Nsg22
g29
stRp1363
ag3
(g4
g5
(dp1364
g14
S''
sg17
g32
sg18
S''
sg20
g21
sg19
S''
sg15
g32
sg28
Nsg22
g33
stRp1365
ag3
(g4
g5
(dp1366
g14
S''
sg17
g36
sg18
S''
sg20
g27
sg19
S''
sg15
g36
sg28
Nsg22
g37
stRp1367
ag3
(g4
g5
(dp1368
g14
S''
sg40
S'seq'
p1369
sg18
S''
sg42
S'Int'
p1370
sg19
S''
sg15
g1369
sg28
Nsg44
S'Sequence number: for ordering the protections table'
p1371
stRp1372
ag3
(g4
g5
(dp1373
g14
S''
sg40
S'isGroup'
p1374
sg18
S''
sg42
S'Int'
p1375
sg19
S''
sg15
g1374
sg28
Nsg44
S'Flag: 0 for a per-user setting, 1 for a per-group setting.'
p1376
stRp1377
ag3
(g4
g5
(dp1378
g14
S''
sg40
S'user'
p1379
sg18
S''
sg42
S'UserWild'
p1380
sg19
S''
sg15
g1379
sg28
Nsg44
S'User(s), or Group(s) for whom this record applies.'
p1381
stRp1382
ag3
(g4
g5
(dp1383
g14
S''
sg40
S'host'
p1384
sg18
S''
sg42
S'DomainWild'
p1385
sg19
S''
sg15
g1384
sg28
Nsg44
S'Domain(s) (IP addresses) for which this record applies.'
p1386
stRp1387
ag3
(g4
g5
(dp1388
g14
S''
sg40
S'perm'
p1389
sg18
S''
sg42
S'Perm'
p1390
sg19
S''
sg15
g1389
sg28
Nsg44
S'Permissions to be granted/revoked'
p1391
stRp1392
ag3
(g4
g5
(dp1393
g14
S''
sg40
S'mapFlag'
p1394
sg18
S''
sg42
S'MapFlag'
p1395
sg19
S''
sg15
g1394
sg28
Nsg44
S'Flag: Map the files in or out?'
p1396
stRp1397
ag3
(g4
g5
(dp1398
g14
S''
sg40
S'depotFile'
p1399
sg18
S''
sg42
S'Mapping'
p1400
sg19
S''
sg15
g1399
sg28
Nsg44
S'Files to be mapped in or out.'
p1401
stRp1402
atRp1403
sg98
g1356
sg99
S'4'
sg100
g101
sg44
S'The protections table'
p1404
sg42
S'Protect'
p1405
sg104
S'38'
p1406
sg40
S'db.protect'
p1407
stRp1408
sS'resolve'
p1409
g3
(g4
g5
(dp1410
g7
S'toFile, fromFile, startFromRev'
p1411
sg9
g3
(g10
g11
(lp1412
g3
(g4
g5
(dp1413
g14
S''
sg15
g16
sg17
g16
sg18
S''
sg19
S''
sg20
g21
sg22
g23
stRp1414
ag3
(g4
g5
(dp1415
g14
S''
sg17
g26
sg18
S''
sg20
g27
sg19
S''
sg15
g26
sg28
Nsg22
g29
stRp1416
ag3
(g4
g5
(dp1417
g14
S''
sg17
g32
sg18
S''
sg20
g21
sg19
S''
sg15
g32
sg28
Nsg22
g33
stRp1418
ag3
(g4
g5
(dp1419
g14
S''
sg17
g36
sg18
S''
sg20
g27
sg19
S''
sg15
g36
sg28
Nsg22
g37
stRp1420
ag3
(g4
g5
(dp1421
g14
S''
sg40
S'toFile'
p1422
sg18
S''
sg42
S'File'
p1423
sg19
S''
sg15
g1422
sg28
Nsg44
S'File to which integration is being performed (target).'
p1424
stRp1425
ag3
(g4
g5
(dp1426
g14
S''
sg40
S'fromFile'
p1427
sg18
S''
sg42
S'File'
p1428
sg19
S''
sg15
g1427
sg28
Nsg44
S'File from which integration is being performed (source).'
p1429
stRp1430
ag3
(g4
g5
(dp1431
g14
S''
sg40
S'startFromRev'
p1432
sg18
S''
sg42
S'Rev'
p1433
sg19
S''
sg15
g1432
sg28
Nsg44
S'Starting revision of fromFile'
p1434
stRp1435
ag3
(g4
g5
(dp1436
g14
S''
sg40
S'endFromRev'
p1437
sg18
S''
sg42
S'Rev'
p1438
sg19
S''
sg15
g1437
sg28
Nsg44
S'Ending revision of fromFile. If integrating from a single \n\t\t    revision (not a revision range), the startFromRev and \n\t\t    endFromRev fields will be identical.'
p1439
stRp1440
ag3
(g4
g5
(dp1441
g14
S''
sg40
S'startToRev'
p1442
sg18
S''
sg42
S'Rev'
p1443
sg19
S''
sg15
g1442
sg28
Nsg44
S'Start revision of toFile into which integration was \n\t\t    performed.'
p1444
stRp1445
ag3
(g4
g5
(dp1446
g14
S''
sg40
S'endToRev'
p1447
sg18
S''
sg42
S'Rev'
p1448
sg19
S''
sg15
g1447
sg28
Nsg44
S'End revision of toFile into which integration was \n\t\t    performed. Only varies from startToRev for reverse \n\t\t    integration records.'
p1449
stRp1450
ag3
(g4
g5
(dp1451
g14
S''
sg40
S'how'
p1452
sg18
S''
sg42
S'IntegHow'
p1453
sg19
S''
sg15
g1452
sg28
Nsg44
S'Integration method: variations on \n\t\t    merge/branch/copy/ignore/delete.'
p1454
stRp1455
ag3
(g4
g5
(dp1456
g14
S''
sg40
S'resolved'
p1457
sg18
S''
sg42
S'ResolvedStatus'
p1458
sg19
S''
sg15
g1457
sg28
Nsg44
S'How the user performed the resolve.'
p1459
stRp1460
ag3
(g4
g5
(dp1461
g14
S''
sg40
S'baseFile'
p1462
sg18
S''
sg42
S'File'
p1463
sg19
S''
sg15
g1462
sg28
Nsg44
S'File used as the base for merging.'
p1464
stRp1465
ag3
(g4
g5
(dp1466
g14
S''
sg40
S'baseRev'
p1467
sg18
S''
sg42
S'Rev'
p1468
sg19
S''
sg15
g1467
sg28
Nsg44
S'Revision of baseFile used as the merge base.'
p1469
stRp1470
atRp1471
sg98
g1409
sg40
S'db.resolve'
p1472
sg99
S'0'
sg100
g101
sg151
S'db.integed'
p1473
sg42
S'Resolve'
p1474
sg104
S'11'
p1475
sg44
S'Pending integration records'
p1476
stRp1477
sS'locks'
p1478
g3
(g4
g5
(dp1479
g7
S'depotFile, client'
p1480
sg9
g3
(g10
g11
(lp1481
g3
(g4
g5
(dp1482
g14
S''
sg15
g16
sg17
g16
sg18
S''
sg19
S''
sg20
g21
sg22
g23
stRp1483
ag3
(g4
g5
(dp1484
g14
S''
sg17
g26
sg18
S''
sg20
g27
sg19
S''
sg15
g26
sg28
Nsg22
g29
stRp1485
ag3
(g4
g5
(dp1486
g14
S''
sg17
g32
sg18
S''
sg20
g21
sg19
S''
sg15
g32
sg28
Nsg22
g33
stRp1487
ag3
(g4
g5
(dp1488
g14
S''
sg17
g36
sg18
S''
sg20
g27
sg19
S''
sg15
g36
sg28
Nsg22
g37
stRp1489
ag3
(g4
g5
(dp1490
g14
S''
sg40
S'depotFile'
p1491
sg18
S''
sg42
S'File'
p1492
sg19
S''
sg15
g1491
sg28
Nsg44
S'File in depot'
p1493
stRp1494
ag3
(g4
g5
(dp1495
g14
S''
sg40
S'client'
p1496
sg18
S''
sg42
S'Domain'
p1497
sg19
S''
sg15
g1496
sg28
Nsg44
S'Domain (client) in which file is open'
p1498
stRp1499
ag3
(g4
g5
(dp1500
g14
S''
sg40
S'user'
p1501
sg18
S''
sg42
S'User'
p1502
sg19
S''
sg15
g1501
sg28
Nsg44
S'User who presently has the file open'
p1503
stRp1504
ag3
(g4
g5
(dp1505
g14
S''
sg40
S'action'
p1506
sg18
S''
sg42
S'Action'
p1507
sg19
S''
sg15
g1506
sg28
Nsg44
S'Action file is open for: add, edit, delete, branch,\n\t\t    integrate, or import'
p1508
stRp1509
ag3
(g4
g5
(dp1510
g14
S''
sg40
S'isLocked'
p1511
sg18
S''
sg42
S'Int'
p1512
sg19
S''
sg15
g1511
sg28
Nsg44
S'Flag: 0 for unlocked, 1 for locked'
p1513
stRp1514
ag3
(g4
g5
(dp1515
g14
S''
sg40
S'change'
p1516
sg18
S''
sg42
S'Int'
p1517
sg19
S''
sg15
g1516
sg28
Nsg44
S'Changelist in which the revision is open: 0 for the\n\t\t    default changelist'
p1518
stRp1519
atRp1520
sg98
g1478
sg99
S'2'
sg100
g101
sg44
S'Locked/Unlocked files'
p1521
sg42
S'Locks'
p1522
sg104
S'14'
p1523
sg40
S'db.locks'
p1524
stRp1525
sS'revhx'
p1526
g3
(g4
g5
(dp1527
g7
S'depotFile'
p1528
sg9
g3
(g10
g11
(lp1529
g3
(g4
g5
(dp1530
g14
S''
sg15
g16
sg17
g16
sg18
S''
sg19
S''
sg20
g21
sg22
g23
stRp1531
ag3
(g4
g5
(dp1532
g14
S''
sg17
g26
sg18
S''
sg20
g27
sg19
S''
sg15
g26
sg28
Nsg22
g29
stRp1533
ag3
(g4
g5
(dp1534
g14
S''
sg17
g32
sg18
S''
sg20
g21
sg19
S''
sg15
g32
sg28
Nsg22
g33
stRp1535
ag3
(g4
g5
(dp1536
g14
S''
sg17
g36
sg18
S''
sg20
g27
sg19
S''
sg15
g36
sg28
Nsg22
g37
stRp1537
ag3
(g4
g5
(dp1538
g14
S''
sg40
g627
sg18
S''
sg42
g628
sg19
S''
sg15
g627
sg28
Nsg44
g629
stRp1539
ag3
(g4
g5
(dp1540
g14
S''
sg40
g632
sg18
S''
sg42
g633
sg19
S''
sg15
g632
sg28
Nsg44
g634
stRp1541
ag3
(g4
g5
(dp1542
g14
S''
sg40
g637
sg18
S''
sg42
g638
sg19
S''
sg15
g637
sg28
Nsg44
g639
stRp1543
ag3
(g4
g5
(dp1544
g14
S''
sg40
g642
sg18
S''
sg42
g643
sg19
S''
sg15
g642
sg28
Nsg44
g644
stRp1545
ag3
(g4
g5
(dp1546
g14
S''
sg40
g647
sg18
S''
sg42
g648
sg19
S''
sg15
g647
sg28
Nsg44
g649
stRp1547
ag3
(g4
g5
(dp1548
g14
S''
sg40
g652
sg18
S''
sg42
g653
sg19
S''
sg15
g652
sg28
Nsg44
g654
stRp1549
ag3
(g4
g5
(dp1550
g14
S''
sg40
g657
sg18
S''
sg42
g658
sg19
S''
sg15
g657
sg28
Nsg44
g659
stRp1551
ag3
(g4
g5
(dp1552
g14
S''
sg40
g662
sg18
S''
sg42
g663
sg19
S''
sg15
g662
sg28
Nsg44
g664
stRp1553
ag3
(g4
g5
(dp1554
g14
S''
sg40
g667
sg18
S''
sg42
g668
sg19
S''
sg15
g667
sg28
Nsg44
g669
stRp1555
ag3
(g4
g5
(dp1556
g14
S''
sg40
g672
sg18
S''
sg42
g673
sg19
S''
sg15
g672
sg28
Nsg44
g674
stRp1557
ag3
(g4
g5
(dp1558
g14
S''
sg40
g677
sg18
S''
sg42
g678
sg19
S''
sg15
g677
sg28
Nsg44
g679
stRp1559
ag3
(g4
g5
(dp1560
g14
S''
sg40
g682
sg18
S''
sg42
g683
sg19
S''
sg15
g682
sg28
Nsg44
g684
stRp1561
ag3
(g4
g5
(dp1562
g14
S''
sg40
g687
sg18
S''
sg42
g688
sg19
S''
sg15
g687
sg28
Nsg44
g689
stRp1563
ag3
(g4
g5
(dp1564
g14
S''
sg40
g692
sg18
S''
sg42
g693
sg19
S''
sg15
g692
sg28
Nsg44
g694
stRp1565
atRp1566
sg98
g1526
sg99
S'7'
sg100
g101
sg44
S'Revision records for revisions NOT deleted at the head revision.'
p1567
sg42
S'Rev'
p1568
sg104
S'20'
p1569
sg40
S'db.revhx'
p1570
stRp1571
sS'integ'
p1572
g3
(g4
g5
(dp1573
g7
S'toFile, fromFile, startFromRev'
p1574
sg9
g3
(g10
g11
(lp1575
g3
(g4
g5
(dp1576
g14
S''
sg15
g16
sg17
g16
sg18
S''
sg19
S''
sg20
g21
sg22
g23
stRp1577
ag3
(g4
g5
(dp1578
g14
S''
sg17
g26
sg18
S''
sg20
g27
sg19
S''
sg15
g26
sg28
Nsg22
g29
stRp1579
ag3
(g4
g5
(dp1580
g14
S''
sg17
g32
sg18
S''
sg20
g21
sg19
S''
sg15
g32
sg28
Nsg22
g33
stRp1581
ag3
(g4
g5
(dp1582
g14
S''
sg17
g36
sg18
S''
sg20
g27
sg19
S''
sg15
g36
sg28
Nsg22
g37
stRp1583
ag3
(g4
g5
(dp1584
g14
S''
sg40
S'toFile'
p1585
sg18
S''
sg42
S'File'
p1586
sg19
S''
sg15
g1585
sg28
Nsg44
S'File to which integration is being performed (target).'
p1587
stRp1588
ag3
(g4
g5
(dp1589
g14
S''
sg40
S'fromFile'
p1590
sg18
S''
sg42
S'File'
p1591
sg19
S''
sg15
g1590
sg28
Nsg44
S'File from which integration is being performed (source).'
p1592
stRp1593
ag3
(g4
g5
(dp1594
g14
S''
sg40
S'startFromRev'
p1595
sg18
S''
sg42
S'Rev'
p1596
sg19
S''
sg15
g1595
sg28
Nsg44
S'Starting revision of fromFile'
p1597
stRp1598
ag3
(g4
g5
(dp1599
g14
S''
sg40
S'endFromRev'
p1600
sg18
S''
sg42
S'Rev'
p1601
sg19
S''
sg15
g1600
sg28
Nsg44
S'Ending revision of fromFile. If integrating from a single \n\t\t    revision (not a revision range), the startFromRev and \n\t\t    endFromRev fields will be identical.'
p1602
stRp1603
ag3
(g4
g5
(dp1604
g14
S''
sg40
S'toRev'
p1605
sg18
S''
sg42
S'Rev'
p1606
sg19
S''
sg15
g1605
sg28
Nsg44
S'Revision of toFile into which integration is being \n\t\t    performed.'
p1607
stRp1608
ag3
(g4
g5
(dp1609
g14
S''
sg40
S'how'
p1610
sg18
S''
sg42
S'IntegHow'
p1611
sg19
S''
sg15
g1610
sg28
Nsg44
S'Integration method: variations on \n\t\t    merge/branch/copy/ignore/delete.'
p1612
stRp1613
ag3
(g4
g5
(dp1614
g14
S''
sg40
S'committed'
p1615
sg18
S''
sg42
S'Int'
p1616
sg19
S''
sg15
g1615
sg28
Nsg44
S'Flag: 0 for pending, 1 for committed.'
p1617
stRp1618
ag3
(g4
g5
(dp1619
g14
S''
sg40
S'resolved'
p1620
sg18
S''
sg42
S'ResolvedStatus'
p1621
sg19
S''
sg15
g1620
sg28
Nsg44
S'Resolution method: unresolved, resolved manually, \n\t\t    or resolved as part of a branch or delete.'
p1622
stRp1623
ag3
(g4
g5
(dp1624
g14
S''
sg40
S'change'
p1625
sg18
S''
sg42
S'Change'
p1626
sg19
S''
sg15
g1625
sg28
Nsg44
S'Changelist associated with the integration.'
p1627
stRp1628
atRp1629
sg98
g1572
sg40
S'db.integ'
p1630
sg99
S'0'
sg100
g101
sg151
g3
(g10
g11
(lp1631
S'db.integed'
p1632
aS'db.resolve'
p1633
atRp1634
sg42
S'Integ'
p1635
sg104
S'9'
sg44
S'Integration records: obsolete since 2001.1'
p1636
stRp1637
sS'ixdate'
p1638
g3
(g4
g5
(dp1639
g7
S'date, attr, value'
p1640
sg9
g3
(g10
g11
(lp1641
g3
(g4
g5
(dp1642
g14
S''
sg15
g16
sg17
g16
sg18
S''
sg19
S''
sg20
g21
sg22
g23
stRp1643
ag3
(g4
g5
(dp1644
g14
S''
sg17
g26
sg18
S''
sg20
g27
sg19
S''
sg15
g26
sg28
Nsg22
g29
stRp1645
ag3
(g4
g5
(dp1646
g14
S''
sg17
g32
sg18
S''
sg20
g21
sg19
S''
sg15
g32
sg28
Nsg22
g33
stRp1647
ag3
(g4
g5
(dp1648
g14
S''
sg17
g36
sg18
S''
sg20
g27
sg19
S''
sg15
g36
sg28
Nsg22
g37
stRp1649
ag3
(g4
g5
(dp1650
g14
S''
sg40
S'date'
p1651
sg18
S''
sg42
S'Date'
p1652
sg19
S''
sg15
g1651
sg28
Nsg44
S'Date value'
p1653
stRp1654
ag3
(g4
g5
(dp1655
g14
S''
sg40
S'attr'
p1656
sg18
S''
sg42
S'Int'
p1657
sg19
S''
sg15
g1656
sg28
Nsg44
S'The attribute number (from the jobspec) to which this\n\t\t    date belongs'
p1658
stRp1659
ag3
(g4
g5
(dp1660
g14
S''
sg40
S'value'
p1661
sg18
S''
sg42
S'String'
p1662
sg19
S''
sg15
g1661
sg28
Nsg44
S'A job name'
p1663
stRp1664
atRp1665
sg98
g1638
sg40
S'db.ixdate'
p1666
sg99
S'0'
sg100
g101
sg151
S'db.ixtext'
p1667
sg42
S'IndexDate'
p1668
sg104
S'36'
p1669
sg44
S'Indexing data for date-valued job attributes.'
p1670
stRp1671
sS'bodtext'
p1672
g3
(g4
g5
(dp1673
g7
S'key, attr'
p1674
sg9
g3
(g10
g11
(lp1675
g3
(g4
g5
(dp1676
g14
S''
sg15
g16
sg17
g16
sg18
S''
sg19
S''
sg20
g21
sg22
g23
stRp1677
ag3
(g4
g5
(dp1678
g14
S''
sg17
g26
sg18
S''
sg20
g27
sg19
S''
sg15
g26
sg28
Nsg22
g29
stRp1679
ag3
(g4
g5
(dp1680
g14
S''
sg17
g32
sg18
S''
sg20
g21
sg19
S''
sg15
g32
sg28
Nsg22
g33
stRp1681
ag3
(g4
g5
(dp1682
g14
S''
sg17
g36
sg18
S''
sg20
g27
sg19
S''
sg15
g36
sg28
Nsg22
g37
stRp1683
ag3
(g4
g5
(dp1684
g14
S''
sg40
S'key'
p1685
sg18
S''
sg42
S'String'
p1686
sg19
S''
sg15
g1685
sg28
Nsg44
S'The job to which this attribute belongs'
p1687
stRp1688
ag3
(g4
g5
(dp1689
g14
S''
sg40
S'attr'
p1690
sg18
S''
sg42
S'Int'
p1691
sg19
S''
sg15
g1690
sg28
Nsg44
S'The attribute number (from the jobspec) of this attribute'
p1692
stRp1693
ag3
(g4
g5
(dp1694
g14
S''
sg40
S'text'
p1695
sg18
S''
sg42
S'Text'
p1696
sg19
S''
sg15
g1695
sg28
Nsg44
S'The attribute value'
p1697
stRp1698
atRp1699
sg98
g1672
sg99
S'0'
sg100
g101
sg44
S'Job data for non-date attributes.'
p1700
sg42
S'BodyText'
p1701
sg104
S'35'
p1702
sg40
S'db.bodtext'
p1703
stRp1704
sS'changex'
p1705
g3
(g4
g5
(dp1706
g7
S'change'
p1707
sg9
g3
(g10
g11
(lp1708
g3
(g4
g5
(dp1709
g14
S''
sg15
g16
sg17
g16
sg18
S''
sg19
S''
sg20
g21
sg22
g23
stRp1710
ag3
(g4
g5
(dp1711
g14
S''
sg17
g26
sg18
S''
sg20
g27
sg19
S''
sg15
g26
sg28
Nsg22
g29
stRp1712
ag3
(g4
g5
(dp1713
g14
S''
sg17
g32
sg18
S''
sg20
g21
sg19
S''
sg15
g32
sg28
Nsg22
g33
stRp1714
ag3
(g4
g5
(dp1715
g14
S''
sg17
g36
sg18
S''
sg20
g27
sg19
S''
sg15
g36
sg28
Nsg22
g37
stRp1716
ag3
(g4
g5
(dp1717
g14
S''
sg40
g1283
sg18
S''
sg42
g1284
sg19
S''
sg15
g1283
sg28
Nsg44
g1285
stRp1718
ag3
(g4
g5
(dp1719
g14
S''
sg40
g1288
sg18
S''
sg42
g1289
sg19
S''
sg15
g1288
sg28
Nsg44
g1290
stRp1720
ag3
(g4
g5
(dp1721
g14
S''
sg40
g1293
sg18
S''
sg42
g1294
sg19
S''
sg15
g1293
sg28
Nsg44
g1295
stRp1722
ag3
(g4
g5
(dp1723
g14
S''
sg40
g1298
sg18
S''
sg42
g1299
sg19
S''
sg15
g1298
sg28
Nsg44
g1300
stRp1724
ag3
(g4
g5
(dp1725
g14
S''
sg40
g1303
sg18
S''
sg42
g1304
sg19
S''
sg15
g1303
sg28
Nsg44
g1305
stRp1726
ag3
(g4
g5
(dp1727
g14
S''
sg40
g1308
sg18
S''
sg42
g1309
sg19
S''
sg15
g1308
sg28
Nsg44
g1310
stRp1728
ag3
(g4
g5
(dp1729
g14
S''
sg40
g1313
sg18
S''
sg42
g1314
sg19
S''
sg15
g1313
sg28
Nsg44
g1315
stRp1730
ag3
(g4
g5
(dp1731
g14
S''
sg40
g1318
sg18
S''
sg42
g1319
sg19
S''
sg15
g1318
sg28
Nsg44
g1320
stRp1732
atRp1733
sg98
g1705
sg740
S'contains records for pending changelists only.'
p1734
sg99
S'1'
sg100
g101
sg44
S'Subset of db.change'
p1735
sg42
S'Change'
p1736
sg104
S'27'
p1737
sg40
S'db.changex'
p1738
stRp1739
sS'boddate'
p1740
g3
(g4
g5
(dp1741
g7
S'key, attr'
p1742
sg9
g3
(g10
g11
(lp1743
g3
(g4
g5
(dp1744
g14
S''
sg15
g16
sg17
g16
sg18
S''
sg19
S''
sg20
g21
sg22
g23
stRp1745
ag3
(g4
g5
(dp1746
g14
S''
sg17
g26
sg18
S''
sg20
g27
sg19
S''
sg15
g26
sg28
Nsg22
g29
stRp1747
ag3
(g4
g5
(dp1748
g14
S''
sg17
g32
sg18
S''
sg20
g21
sg19
S''
sg15
g32
sg28
Nsg22
g33
stRp1749
ag3
(g4
g5
(dp1750
g14
S''
sg17
g36
sg18
S''
sg20
g27
sg19
S''
sg15
g36
sg28
Nsg22
g37
stRp1751
ag3
(g4
g5
(dp1752
g14
S''
sg40
S'key'
p1753
sg18
S''
sg42
S'String'
p1754
sg19
S''
sg15
g1753
sg28
Nsg44
S'The job to which this attribute belongs'
p1755
stRp1756
ag3
(g4
g5
(dp1757
g14
S''
sg40
S'attr'
p1758
sg18
S''
sg42
S'Int'
p1759
sg19
S''
sg15
g1758
sg28
Nsg44
S'The attribute number (from the jobspec) of this attribute'
p1760
stRp1761
ag3
(g4
g5
(dp1762
g14
S''
sg40
S'date'
p1763
sg18
S''
sg42
S'Date'
p1764
sg19
S''
sg15
g1763
sg28
Nsg44
S'The date value itself'
p1765
stRp1766
atRp1767
sg98
g1740
sg99
S'0'
sg100
g101
sg44
S'Job data for date-valued attributes'
p1768
sg42
S'BodyDate'
p1769
sg104
S'34'
p1770
sg40
S'db.boddate'
p1771
stRp1772
sS'review'
p1773
g3
(g4
g5
(dp1774
g7
S'user, seq'
p1775
sg9
g3
(g10
g11
(lp1776
g3
(g4
g5
(dp1777
g14
S''
sg15
g16
sg17
g16
sg18
S''
sg19
S''
sg20
g21
sg22
g23
stRp1778
ag3
(g4
g5
(dp1779
g14
S''
sg17
g26
sg18
S''
sg20
g27
sg19
S''
sg15
g26
sg28
Nsg22
g29
stRp1780
ag3
(g4
g5
(dp1781
g14
S''
sg17
g32
sg18
S''
sg20
g21
sg19
S''
sg15
g32
sg28
Nsg22
g33
stRp1782
ag3
(g4
g5
(dp1783
g14
S''
sg17
g36
sg18
S''
sg20
g27
sg19
S''
sg15
g36
sg28
Nsg22
g37
stRp1784
ag3
(g4
g5
(dp1785
g14
S''
sg40
S'user'
p1786
sg18
S''
sg42
S'User'
p1787
sg19
S''
sg15
g1786
sg28
Nsg44
S'A user name'
p1788
stRp1789
ag3
(g4
g5
(dp1790
g14
S''
sg40
S'seq'
p1791
sg18
S''
sg42
S'Int'
p1792
sg19
S''
sg15
g1791
sg28
Nsg44
S'Sequence number: used for ordering multi-line views'
p1793
stRp1794
ag3
(g4
g5
(dp1795
g14
S''
sg40
S'mapFlag'
p1796
sg18
S''
sg42
S'MapFlag'
p1797
sg19
S''
sg15
g1796
sg28
Nsg44
S'Type of mapping'
p1798
stRp1799
ag3
(g4
g5
(dp1800
g14
S''
sg40
S'depotFile'
p1801
sg18
S''
sg42
S'Mapping'
p1802
sg19
S''
sg15
g1801
sg28
Nsg44
S'The files to be reviewed'
p1803
stRp1804
ag3
(g4
g5
(dp1805
g14
S''
sg40
S'type'
p1806
sg18
S''
sg42
S'Reviewer'
p1807
sg19
S''
sg15
g1806
sg28
Nsg44
S'Type of reviewer'
p1808
stRp1809
atRp1810
sg98
g1773
sg99
S'1'
sg100
g101
sg44
S"Contains user's review mappings"
p1811
sg42
S'Review'
p1812
sg104
S'8'
sg40
S'db.review'
p1813
stRp1814
sS'view'
p1815
g3
(g4
g5
(dp1816
g7
S'name, seq'
p1817
sg9
g3
(g10
g11
(lp1818
g3
(g4
g5
(dp1819
g14
S''
sg15
g16
sg17
g16
sg18
S''
sg19
S''
sg20
g21
sg22
g23
stRp1820
ag3
(g4
g5
(dp1821
g14
S''
sg17
g26
sg18
S''
sg20
g27
sg19
S''
sg15
g26
sg28
Nsg22
g29
stRp1822
ag3
(g4
g5
(dp1823
g14
S''
sg17
g32
sg18
S''
sg20
g21
sg19
S''
sg15
g32
sg28
Nsg22
g33
stRp1824
ag3
(g4
g5
(dp1825
g14
S''
sg17
g36
sg18
S''
sg20
g27
sg19
S''
sg15
g36
sg28
Nsg22
g37
stRp1826
ag3
(g4
g5
(dp1827
g14
S''
sg40
S'name'
p1828
sg18
S''
sg42
S'Domain'
p1829
sg19
S''
sg15
g1828
sg28
Nsg44
S'Domain name to which this view applies'
p1830
stRp1831
ag3
(g4
g5
(dp1832
g14
S''
sg40
S'seq'
p1833
sg18
S''
sg42
S'Int'
p1834
sg19
S''
sg15
g1833
sg28
Nsg44
S'Sequence number: for ordering multi-line views'
p1835
stRp1836
ag3
(g4
g5
(dp1837
g14
S''
sg40
S'mapFlag'
p1838
sg18
S''
sg42
S'MapFlag'
p1839
sg19
S''
sg15
g1838
sg28
Nsg44
S'Type of mapping'
p1840
stRp1841
ag3
(g4
g5
(dp1842
g14
S''
sg40
S'viewFile'
p1843
sg18
S''
sg42
S'Mapping'
p1844
sg19
S''
sg15
g1843
sg28
Nsg44
S"The right-hand-side of the view. For clients, this is\n\t\t    the client-side, for labels it's the generated label \n\t\t    view. For branches, it's the target side of the branch\n\t\t    view."
p1845
stRp1846
ag3
(g4
g5
(dp1847
g14
S''
sg40
S'depotFile'
p1848
sg18
S''
sg42
S'Mapping'
p1849
sg19
S''
sg15
g1848
sg28
Nsg44
S'The left-hand-side of the view - a mapping to file(s)\n\t\t    in the depot.'
p1850
stRp1851
atRp1852
sg98
g1815
sg99
S'1'
sg100
g101
sg44
S'Contains views for domains'
p1853
sg42
S'View'
p1854
sg104
S'7'
sg40
S'db.view'
p1855
stRp1856
s.