(dp1
S'domain'
p2
ccopy_reg
_reconstructor
p3
(clib.sqUtils
Storage
p4
c__builtin__
dict
p5
(dp6
S'keying'
p7
S'name'
p8
sS'fields'
p9
g3
(clib.sqUtils
Lst
p10
c__builtin__
list
p11
(lp12
g3
(g4
g5
(dp13
S'comment'
p14
S''
sS'fieldname'
p15
S'id'
p16
sS'name'
p17
g16
sS'default'
p18
S''
sS'label'
p19
S''
sS'type'
p20
S'integer'
p21
sS'desc'
p22
S'Record number as read in'
p23
stRp24
ag3
(g4
g5
(dp25
g14
S''
sg17
S'db_action'
p26
sg18
S''
sg20
S'string'
p27
sg19
S''
sg15
g26
sS'requires'
p28
Nsg22
S'Operation on table'
p29
stRp30
ag3
(g4
g5
(dp31
g14
S''
sg17
S'table_revision'
p32
sg18
S''
sg20
g21
sg19
S''
sg15
g32
sg28
Nsg22
S'Revision of the p4 schema table'
p33
stRp34
ag3
(g4
g5
(dp35
g14
S''
sg17
S'table_name'
p36
sg18
S''
sg20
g27
sg19
S''
sg15
g36
sg28
Nsg22
S'Redundant... but this is the table name'
p37
stRp38
ag3
(g4
g5
(dp39
g14
S''
sS'name'
p40
S'name'
p41
sg18
S''
sS'type'
p42
S'Domain'
p43
sg19
S''
sg15
g41
sg28
NsS'desc'
p44
S'Domain name'
p45
stRp46
ag3
(g4
g5
(dp47
g14
S''
sg40
S'type'
p48
sg18
S''
sg42
S'DomainType'
p49
sg19
S''
sg15
g48
sg28
Nsg44
S'Type of domain'
p50
stRp51
ag3
(g4
g5
(dp52
g14
S''
sg40
S'extra'
p53
sg18
S''
sg42
S'Text'
p54
sg19
S''
sg15
g53
sg28
Nsg44
S'Formerly "host". Associated host or, for labels, revision \n\t\t    number.'
p55
stRp56
ag3
(g4
g5
(dp57
g14
S''
sg40
S'mount'
p58
sg18
S''
sg42
S'Text'
p59
sg19
S''
sg15
g58
sg28
Nsg44
S'The client root'
p60
stRp61
ag3
(g4
g5
(dp62
g14
S''
sg40
S'mount2'
p63
sg18
S''
sg42
S'Text'
p64
sg19
S''
sg15
g63
sg28
Nsg44
S'Alternate client root'
p65
stRp66
ag3
(g4
g5
(dp67
g14
S''
sg40
S'mount3'
p68
sg18
S''
sg42
S'Text'
p69
sg19
S''
sg15
g68
sg28
Nsg44
S'Alternate client root'
p70
stRp71
ag3
(g4
g5
(dp72
g14
S''
sg40
S'owner'
p73
sg18
S''
sg42
S'User'
p74
sg19
S''
sg15
g73
sg28
Nsg44
S'Name of user who owns the domain.'
p75
stRp76
ag3
(g4
g5
(dp77
g14
S''
sg40
S'updateDate'
p78
sg18
S''
sg42
S'Date'
p79
sg19
S''
sg15
g78
sg28
Nsg44
S'Date of last update to domain specification.'
p80
stRp81
ag3
(g4
g5
(dp82
g14
S''
sg40
S'accessDate'
p83
sg18
S''
sg42
S'Date'
p84
sg19
S''
sg15
g83
sg28
Nsg44
S'Date of last access to domain specification.'
p85
stRp86
ag3
(g4
g5
(dp87
g14
S''
sg40
S'options'
p88
sg18
S''
sg42
S'DomainOpts'
p89
sg19
S''
sg15
g88
sg28
Nsg44
S'Options for client, label, and branch domains.'
p90
stRp91
ag3
(g4
g5
(dp92
g14
S''
sg40
S'description'
p93
sg18
S''
sg42
S'Text'
p94
sg19
S''
sg15
g93
sg28
Nsg44
S'Description of domain.'
p95
stRp96
atRp97
sS'tablename'
p98
g2
sS'version'
p99
S'5'
sS'schemaversion'
p100
S'2011.1'
p101
sg44
S'Domains: depots, clients, labels, branches, streams, and typemap'
p102
sg42
S'Domain'
p103
sS'lockseq'
p104
S'9'
sg40
S'db.domain'
p105
stRp106
sS'stream'
p107
g3
(g4
g5
(dp108
g7
S'stream'
p109
sg9
g3
(g10
g11
(lp110
g3
(g4
g5
(dp111
g14
S''
sg15
g16
sg17
g16
sg18
S''
sg19
S''
sg20
g21
sg22
g23
stRp112
ag3
(g4
g5
(dp113
g14
S''
sg17
g26
sg18
S''
sg20
g27
sg19
S''
sg15
g26
sg28
Nsg22
g29
stRp114
ag3
(g4
g5
(dp115
g14
S''
sg17
g32
sg18
S''
sg20
g21
sg19
S''
sg15
g32
sg28
Nsg22
g33
stRp116
ag3
(g4
g5
(dp117
g14
S''
sg17
g36
sg18
S''
sg20
g27
sg19
S''
sg15
g36
sg28
Nsg22
g37
stRp118
ag3
(g4
g5
(dp119
g14
S''
sg40
S'stream'
p120
sg18
S''
sg42
S'Domain'
p121
sg19
S''
sg15
g120
sg28
Nsg44
S'Stream name'
p122
stRp123
ag3
(g4
g5
(dp124
g14
S''
sg40
S'parent'
p125
sg18
S''
sg42
S'Domain'
p126
sg19
S''
sg15
g125
sg28
Nsg44
S'Parent stream name'
p127
stRp128
ag3
(g4
g5
(dp129
g14
S''
sg40
S'title'
p130
sg18
S''
sg42
S'Text'
p131
sg19
S''
sg15
g130
sg28
Nsg44
S'Stream title (alias for the stream name)'
p132
stRp133
ag3
(g4
g5
(dp134
g14
S''
sg40
S'type'
p135
sg18
S''
sg42
S'StreamType'
p136
sg19
S''
sg15
g135
sg28
Nsg44
S'The type of stream'
p137
stRp138
ag3
(g4
g5
(dp139
g14
S''
sg40
S'preview'
p140
sg18
S''
sg42
S'Date'
p141
sg19
S''
sg15
g140
sg28
Nsg44
S'Stream template modification time'
p142
stRp143
ag3
(g4
g5
(dp144
g14
S''
sg40
S'change'
p145
sg18
S''
sg42
S'Change'
p146
sg19
S''
sg15
g145
sg28
Nsg44
S'Last submit to stream'
p147
stRp148
ag3
(g4
g5
(dp149
g14
S''
sg40
S'copychg'
p150
sg18
S''
sg42
S'Change'
p151
sg19
S''
sg15
g150
sg28
Nsg44
S'Parent change at last copy'
p152
stRp153
ag3
(g4
g5
(dp154
g14
S''
sg40
S'mergechg'
p155
sg18
S''
sg42
S'Change'
p156
sg19
S''
sg15
g155
sg28
Nsg44
S'Parent change at last merge'
p157
stRp158
ag3
(g4
g5
(dp159
g14
S''
sg40
S'highchg'
p160
sg18
S''
sg42
S'Change'
p161
sg19
S''
sg15
g160
sg28
Nsg44
S'Highest change at last merge'
p162
stRp163
ag3
(g4
g5
(dp164
g14
S''
sg40
S'hash'
p165
sg18
S''
sg42
S'Int'
p166
sg19
S''
sg15
g165
sg28
Nsg44
S'Hash value of dynamic branch'
p167
stRp168
ag3
(g4
g5
(dp169
g14
S''
sg40
S'status'
p170
sg18
S''
sg42
S'StreamStatus'
p171
sg19
S''
sg15
g170
sg28
Nsg44
S'Flow status'
p172
stRp173
atRp174
sg98
g107
sg99
S'1'
sg100
g101
sg44
S'Perforce streams'
p175
sg42
S'Stream'
p176
sg104
S'8'
sg40
S'db.stream'
p177
stRp178
sS'revpx'
p179
g3
(g4
g5
(dp180
g7
S'depotFile, depotRev'
p181
sg9
g3
(g10
g11
(lp182
g3
(g4
g5
(dp183
g14
S''
sg15
g16
sg17
g16
sg18
S''
sg19
S''
sg20
g21
sg22
g23
stRp184
ag3
(g4
g5
(dp185
g14
S''
sg17
g26
sg18
S''
sg20
g27
sg19
S''
sg15
g26
sg28
Nsg22
g29
stRp186
ag3
(g4
g5
(dp187
g14
S''
sg17
g32
sg18
S''
sg20
g21
sg19
S''
sg15
g32
sg28
Nsg22
g33
stRp188
ag3
(g4
g5
(dp189
g14
S''
sg17
g36
sg18
S''
sg20
g27
sg19
S''
sg15
g36
sg28
Nsg22
g37
stRp190
ag3
(g4
g5
(dp191
g14
S''
sg40
S'depotFile'
p192
sg18
S''
sg42
S'File'
p193
sg19
S''
sg15
g192
sg28
Nsg44
S'The file name'
p194
stRp195
ag3
(g4
g5
(dp196
g14
S''
sg40
S'depotRev'
p197
sg18
S''
sg42
S'Rev'
p198
sg19
S''
sg15
g197
sg28
Nsg44
S'The revision number'
p199
stRp200
ag3
(g4
g5
(dp201
g14
S''
sg40
S'type'
p202
sg18
S''
sg42
S'FileType'
p203
sg19
S''
sg15
g202
sg28
Nsg44
S'The file type of the revision'
p204
stRp205
ag3
(g4
g5
(dp206
g14
S''
sg40
S'action'
p207
sg18
S''
sg42
S'Action'
p208
sg19
S''
sg15
g207
sg28
Nsg44
S'The action that created the revision'
p209
stRp210
ag3
(g4
g5
(dp211
g14
S''
sg40
S'change'
p212
sg18
S''
sg42
S'Change'
p213
sg19
S''
sg15
g212
sg28
Nsg44
S'The changelist that created the revision'
p214
stRp215
ag3
(g4
g5
(dp216
g14
S''
sg40
S'date'
p217
sg18
S''
sg42
S'Date'
p218
sg19
S''
sg15
g217
sg28
Nsg44
S'The date/time the changelist that created the revision\n\t\t    was submitted'
p219
stRp220
ag3
(g4
g5
(dp221
g14
S''
sg40
S'modTime'
p222
sg18
S''
sg42
S'Date'
p223
sg19
S''
sg15
g222
sg28
Nsg44
S"The timestamp on the file in the user's workspace when\n\t\t    the revision was submitted."
p224
stRp225
ag3
(g4
g5
(dp226
g14
S''
sg40
S'digest'
p227
sg18
S''
sg42
S'Digest'
p228
sg19
S''
sg15
g227
sg28
Nsg44
S'The MD5 digest of the revision.'
p229
stRp230
ag3
(g4
g5
(dp231
g14
S''
sg40
S'size'
p232
sg18
S''
sg42
S'FileSize'
p233
sg19
S''
sg15
g232
sg28
Nsg44
S'The size of the file in bytes'
p234
stRp235
ag3
(g4
g5
(dp236
g14
S''
sg40
S'traitLot'
p237
sg18
S''
sg42
S'TraitLot'
p238
sg19
S''
sg15
g237
sg28
Nsg44
S'Group of traits (attributes) associated with the revision.'
p239
stRp240
ag3
(g4
g5
(dp241
g14
S''
sg40
S'lbrIsLazy'
p242
sg18
S''
sg42
S'Int'
p243
sg19
S''
sg15
g242
sg28
Nsg44
S'Flag specifying whether or not the revision gets its\n\t\t    content from another file (i.e. whether or not depotFile\n\t\t    and lbrFile differ)'
p244
stRp245
ag3
(g4
g5
(dp246
g14
S''
sg40
S'lbrFile'
p247
sg18
S''
sg42
S'File'
p248
sg19
S''
sg15
g247
sg28
Nsg44
S"Filename for librarian's purposes.  Specifies location in \n\t\t    the archives where the file containing the revision may\n\t\t    be found. Usually the same as depotFile, but differs in\n\t\t    the case of branched/copied revisions."
p249
stRp250
ag3
(g4
g5
(dp251
g14
S''
sg40
S'lbrRev'
p252
sg18
S''
sg42
S'String'
p253
sg19
S''
sg15
g252
sg28
Nsg44
S'The revision of lbrFile that contains the revision content.'
p254
stRp255
ag3
(g4
g5
(dp256
g14
S''
sg40
S'lbrType'
p257
sg18
S''
sg42
S'FileType'
p258
sg19
S''
sg15
g257
sg28
Nsg44
S'The file type of the librarian revision. Usually the same\n\t\t    as type, but differs in the case of branched/copied \n\t\t    revisions.'
p259
stRp260
atRp261
sg98
g179
sS'note'
p262
S'Only populated during content trigger execution to allow \n\t\ttriggers access to the revisions being submitted.'
p263
sg99
S'9'
sg100
g101
sg44
S'Pending revision records.'
p264
sg42
S'Rev'
p265
sg104
S'26'
p266
sg40
S'db.revpx'
p267
stRp268
sS'traits'
p269
g3
(g4
g5
(dp270
g7
S'traitLot, name'
p271
sg9
g3
(g10
g11
(lp272
g3
(g4
g5
(dp273
g14
S''
sg15
g16
sg17
g16
sg18
S''
sg19
S''
sg20
g21
sg22
g23
stRp274
ag3
(g4
g5
(dp275
g14
S''
sg17
g26
sg18
S''
sg20
g27
sg19
S''
sg15
g26
sg28
Nsg22
g29
stRp276
ag3
(g4
g5
(dp277
g14
S''
sg17
g32
sg18
S''
sg20
g21
sg19
S''
sg15
g32
sg28
Nsg22
g33
stRp278
ag3
(g4
g5
(dp279
g14
S''
sg17
g36
sg18
S''
sg20
g27
sg19
S''
sg15
g36
sg28
Nsg22
g37
stRp280
ag3
(g4
g5
(dp281
g14
S''
sg40
S'traitLot'
p282
sg18
S''
sg42
S'Int'
p283
sg19
S''
sg15
g282
sg28
Nsg44
S'Indicates a specific collection of traits (referred to \n\t\t    externally as "attributes".)'
p284
stRp285
ag3
(g4
g5
(dp286
g14
S''
sg40
S'name'
p287
sg18
S''
sg42
S'String'
p288
sg19
S''
sg15
g287
sg28
Nsg44
S'Trait (attribute) name'
p289
stRp290
ag3
(g4
g5
(dp291
g14
S''
sg40
S'type'
p292
sg18
S''
sg42
S'TraitType'
p293
sg19
S''
sg15
g292
sg28
Nsg44
S'Type of trait'
p294
stRp295
ag3
(g4
g5
(dp296
g14
S''
sg40
S'value'
p297
sg18
S''
sg42
S'Octet String'
p298
sg19
S''
sg15
g297
sg28
Nsg44
S'The value'
p299
stRp300
atRp301
sg98
g269
sg99
S'0'
sg100
g101
sg44
S'Attributes associated with file revisions'
p302
sg42
S'Trait'
p303
sg104
S'32'
p304
sg40
S'db.traits'
p305
stRp306
sS'have'
p307
g3
(g4
g5
(dp308
g7
S'clientFile'
p309
sg9
g3
(g10
g11
(lp310
g3
(g4
g5
(dp311
g14
S''
sg15
g16
sg17
g16
sg18
S''
sg19
S''
sg20
g21
sg22
g23
stRp312
ag3
(g4
g5
(dp313
g14
S''
sg17
g26
sg18
S''
sg20
g27
sg19
S''
sg15
g26
sg28
Nsg22
g29
stRp314
ag3
(g4
g5
(dp315
g14
S''
sg17
g32
sg18
S''
sg20
g21
sg19
S''
sg15
g32
sg28
Nsg22
g33
stRp316
ag3
(g4
g5
(dp317
g14
S''
sg17
g36
sg18
S''
sg20
g27
sg19
S''
sg15
g36
sg28
Nsg22
g37
stRp318
ag3
(g4
g5
(dp319
g14
S''
sg40
S'clientFile'
p320
sg18
S''
sg42
S'File'
p321
sg19
S''
sg15
g320
sg28
Nsg44
S'The file in its location on the client'
p322
stRp323
ag3
(g4
g5
(dp324
g14
S''
sg40
S'depotFile'
p325
sg18
S''
sg42
S'File'
p326
sg19
S''
sg15
g325
sg28
Nsg44
S'The file in the depot'
p327
stRp328
ag3
(g4
g5
(dp329
g14
S''
sg40
S'haveRev'
p330
sg18
S''
sg42
S'Rev'
p331
sg19
S''
sg15
g330
sg28
Nsg44
S'The revision synced to the client'
p332
stRp333
ag3
(g4
g5
(dp334
g14
S''
sg40
S'type'
p335
sg18
S''
sg42
S'FileType'
p336
sg19
S''
sg15
g335
sg28
Nsg44
S'The filetype of the synced revision'
p337
stRp338
atRp339
sg98
g307
sg99
S'2'
sg100
g101
sg44
S"Contains the 'have-list' for all clients"
p340
sg42
S'Have'
p341
sg104
S'17'
p342
sg40
S'db.have'
p343
stRp344
sS'ixtext'
p345
g3
(g4
g5
(dp346
g7
S'word, attr, value'
p347
sg9
g3
(g10
g11
(lp348
g3
(g4
g5
(dp349
g14
S''
sg15
g16
sg17
g16
sg18
S''
sg19
S''
sg20
g21
sg22
g23
stRp350
ag3
(g4
g5
(dp351
g14
S''
sg17
g26
sg18
S''
sg20
g27
sg19
S''
sg15
g26
sg28
Nsg22
g29
stRp352
ag3
(g4
g5
(dp353
g14
S''
sg17
g32
sg18
S''
sg20
g21
sg19
S''
sg15
g32
sg28
Nsg22
g33
stRp354
ag3
(g4
g5
(dp355
g14
S''
sg17
g36
sg18
S''
sg20
g27
sg19
S''
sg15
g36
sg28
Nsg22
g37
stRp356
ag3
(g4
g5
(dp357
g14
S''
sg40
S'word'
p358
sg18
S''
sg42
S'String'
p359
sg19
S''
sg15
g358
sg28
Nsg44
S'The word being indexed'
p360
stRp361
ag3
(g4
g5
(dp362
g14
S''
sg40
S'attr'
p363
sg18
S''
sg42
S'Int'
p364
sg19
S''
sg15
g363
sg28
Nsg44
S'The attribute number (from the jobspec) to which this\n\t\t    word belongs'
p365
stRp366
ag3
(g4
g5
(dp367
g14
S''
sg40
S'value'
p368
sg18
S''
sg42
S'String'
p369
sg19
S''
sg15
g368
sg28
Nsg44
S'A job name'
p370
stRp371
atRp372
sg98
g345
sg99
S'0'
sg100
g101
sg44
S'Indexing data for job attributes.'
p373
sg42
S'IndexText'
p374
sg104
S'45'
p375
sg40
S'db.ixtext'
p376
stRp377
sS'message'
p378
g3
(g4
g5
(dp379
g7
S'language, id'
p380
sg9
g3
(g10
g11
(lp381
g3
(g4
g5
(dp382
g14
S''
sg15
g16
sg17
g16
sg18
S''
sg19
S''
sg20
g21
sg22
g23
stRp383
ag3
(g4
g5
(dp384
g14
S''
sg17
g26
sg18
S''
sg20
g27
sg19
S''
sg15
g26
sg28
Nsg22
g29
stRp385
ag3
(g4
g5
(dp386
g14
S''
sg17
g32
sg18
S''
sg20
g21
sg19
S''
sg15
g32
sg28
Nsg22
g33
stRp387
ag3
(g4
g5
(dp388
g14
S''
sg17
g36
sg18
S''
sg20
g27
sg19
S''
sg15
g36
sg28
Nsg22
g37
stRp389
ag3
(g4
g5
(dp390
g14
S''
sg40
S'language'
p391
sg18
S''
sg42
S'String'
p392
sg19
S''
sg15
g391
sg28
Nsg44
S'The language for which this message applies'
p393
stRp394
ag3
(g4
g5
(dp395
g14
S''
sg40
S'id'
p396
sg18
S''
sg42
S'Int'
p397
sg19
S''
sg15
g396
sg28
Nsg44
S'The message number'
p398
stRp399
ag3
(g4
g5
(dp400
g14
S''
sg40
S'message'
p401
sg18
S''
sg42
S'String'
p402
sg19
S''
sg15
g401
sg28
Nsg44
S'The message text'
p403
stRp404
atRp405
sg98
g378
sg99
S'0'
sg100
g101
sg44
S'System messages'
p406
sg42
S'Message'
p407
sg104
S'47'
p408
sg40
S'db.message'
p409
stRp410
sS'archive'
p411
g3
(g4
g5
(dp412
g7
S'lbrFile, lbrRev, depotFile, depotRev'
p413
sg9
g3
(g10
g11
(lp414
g3
(g4
g5
(dp415
g14
S''
sg15
g16
sg17
g16
sg18
S''
sg19
S''
sg20
g21
sg22
g23
stRp416
ag3
(g4
g5
(dp417
g14
S''
sg17
g26
sg18
S''
sg20
g27
sg19
S''
sg15
g26
sg28
Nsg22
g29
stRp418
ag3
(g4
g5
(dp419
g14
S''
sg17
g32
sg18
S''
sg20
g21
sg19
S''
sg15
g32
sg28
Nsg22
g33
stRp420
ag3
(g4
g5
(dp421
g14
S''
sg17
g36
sg18
S''
sg20
g27
sg19
S''
sg15
g36
sg28
Nsg22
g37
stRp422
ag3
(g4
g5
(dp423
g14
S''
sg40
S'lbrFile'
p424
sg18
S''
sg42
S'File'
p425
sg19
S''
sg15
g424
sg28
Nsg44
S"Specifies the location in the librarian's archives where\n\t\t    the revision may be found"
p426
stRp427
ag3
(g4
g5
(dp428
g14
S''
sg40
S'lbrRev'
p429
sg18
S''
sg42
S'String'
p430
sg19
S''
sg15
g429
sg28
Nsg44
S"Revision in the librarian's archives"
p431
stRp432
ag3
(g4
g5
(dp433
g14
S''
sg40
S'depotFile'
p434
sg18
S''
sg42
S'File'
p435
sg19
S''
sg15
g434
sg28
Nsg44
S'Name of the file in the depot'
p436
stRp437
ag3
(g4
g5
(dp438
g14
S''
sg40
S'depotRev'
p439
sg18
S''
sg42
S'Rev'
p440
sg19
S''
sg15
g439
sg28
Nsg44
S'Name of the file in the depot'
p441
stRp442
ag3
(g4
g5
(dp443
g14
S''
sg40
S'lbrType'
p444
sg18
S''
sg42
S'FileType'
p445
sg19
S''
sg15
g444
sg28
Nsg44
S"File type for librarian's purposes"
p446
stRp447
atRp448
sg98
g411
sg262
S'Obsoleted in 2006.2.'
p449
sg99
S'1'
sg100
g101
sg44
S'Archive information for each revision that is lazy-copied: obsolete since 2006.2'
p450
sg42
S'Archive'
p451
sg104
S'20'
p452
sg40
S'db.archive'
p453
stRp454
sS'group'
p455
g3
(g4
g5
(dp456
g7
S'user, group'
p457
sg9
g3
(g10
g11
(lp458
g3
(g4
g5
(dp459
g14
S''
sg15
g16
sg17
g16
sg18
S''
sg19
S''
sg20
g21
sg22
g23
stRp460
ag3
(g4
g5
(dp461
g14
S''
sg17
g26
sg18
S''
sg20
g27
sg19
S''
sg15
g26
sg28
Nsg22
g29
stRp462
ag3
(g4
g5
(dp463
g14
S''
sg17
g32
sg18
S''
sg20
g21
sg19
S''
sg15
g32
sg28
Nsg22
g33
stRp464
ag3
(g4
g5
(dp465
g14
S''
sg17
g36
sg18
S''
sg20
g27
sg19
S''
sg15
g36
sg28
Nsg22
g37
stRp466
ag3
(g4
g5
(dp467
g14
S''
sg40
S'user'
p468
sg18
S''
sg42
S'User'
p469
sg19
S''
sg15
g468
sg28
Nsg44
S'User name'
p470
stRp471
ag3
(g4
g5
(dp472
g14
S''
sg40
S'group'
p473
sg18
S''
sg42
S'User'
p474
sg19
S''
sg15
g473
sg28
Nsg44
S'Group name'
p475
stRp476
ag3
(g4
g5
(dp477
g14
S''
sg40
S'type'
p478
sg18
S''
sg42
S'UserType'
p479
sg19
S''
sg15
g478
sg28
Nsg44
S'Type of user in this group.'
p480
stRp481
ag3
(g4
g5
(dp482
g14
S''
sg40
S'maxResults'
p483
sg18
S''
sg42
S'MaxResults'
p484
sg19
S''
sg15
g483
sg28
Nsg44
S'MaxResults setting for the group.'
p485
stRp486
ag3
(g4
g5
(dp487
g14
S''
sg40
S'maxScanRows'
p488
sg18
S''
sg42
S'MaxScanRows'
p489
sg19
S''
sg15
g488
sg28
Nsg44
S'MaxScanRows setting for the group.'
p490
stRp491
ag3
(g4
g5
(dp492
g14
S''
sg40
S'maxLockTime'
p493
sg18
S''
sg42
S'MaxLockTime'
p494
sg19
S''
sg15
g493
sg28
Nsg44
S'MaxLockTime setting for the group.'
p495
stRp496
ag3
(g4
g5
(dp497
g14
S''
sg40
S'timeout'
p498
sg18
S''
sg42
S'Int'
p499
sg19
S''
sg15
g498
sg28
Nsg44
S'Length of time (in seconds) a login ticket remains valid.'
p500
stRp501
ag3
(g4
g5
(dp502
g14
S''
sg40
S'passwordTimeout'
p503
sg18
S''
sg42
S'Int'
p504
sg19
S''
sg15
g503
sg28
Nsg44
S'Length of time (in seconds) a password remains valid for users in the group.'
p505
stRp506
atRp507
sg98
g455
sg99
S'8'
sg100
g101
sg44
S'Groups of Perforce users'
p508
sg42
S'Group'
p509
sg104
S'6'
sg40
S'db.group'
p510
stRp511
sS'monitor'
p512
g3
(g4
g5
(dp513
g7
S'id'
p514
sg9
g3
(g10
g11
(lp515
g3
(g4
g5
(dp516
g14
S''
sg15
g16
sg17
g16
sg18
S''
sg19
S''
sg20
g21
sg22
g23
stRp517
ag3
(g4
g5
(dp518
g14
S''
sg17
g26
sg18
S''
sg20
g27
sg19
S''
sg15
g26
sg28
Nsg22
g29
stRp519
ag3
(g4
g5
(dp520
g14
S''
sg17
g32
sg18
S''
sg20
g21
sg19
S''
sg15
g32
sg28
Nsg22
g33
stRp521
ag3
(g4
g5
(dp522
g14
S''
sg17
g36
sg18
S''
sg20
g27
sg19
S''
sg15
g36
sg28
Nsg22
g37
stRp523
ag3
(g4
g5
(dp524
g14
S''
sg40
S'id'
p525
sg18
S''
sg42
S'Int'
p526
sg19
S''
sg15
g525
sg28
Nsg44
S'Thread/process id'
p527
stRp528
ag3
(g4
g5
(dp529
g14
S''
sg40
S'user'
p530
sg18
S''
sg42
S'User'
p531
sg19
S''
sg15
g530
sg28
Nsg44
S'Username of the user running the command'
p532
stRp533
ag3
(g4
g5
(dp534
g14
S''
sg40
S'function'
p535
sg18
S''
sg42
S'String'
p536
sg19
S''
sg15
g535
sg28
Nsg44
S'The command being executed.'
p537
stRp538
ag3
(g4
g5
(dp539
g14
S''
sg40
S'args'
p540
sg18
S''
sg42
S'String'
p541
sg19
S''
sg15
g540
sg28
Nsg44
S'Arguments passed to the command'
p542
stRp543
ag3
(g4
g5
(dp544
g14
S''
sg40
S'startDate'
p545
sg18
S''
sg42
S'Date'
p546
sg19
S''
sg15
g545
sg28
Nsg44
S'The date and time the command started'
p547
stRp548
ag3
(g4
g5
(dp549
g14
S''
sg40
S'runstate'
p550
sg18
S''
sg42
S'Int'
p551
sg19
S''
sg15
g550
sg28
Nsg44
S'Flag: 0 for running, 1 for terminated, 2 for paused'
p552
stRp553
ag3
(g4
g5
(dp554
g14
S''
sg40
S'client'
p555
sg18
S''
sg42
S'Domain'
p556
sg19
S''
sg15
g555
sg28
Nsg44
S'The client workspace'
p557
stRp558
ag3
(g4
g5
(dp559
g14
S''
sg40
S'host'
p560
sg18
S''
sg42
S'Text'
p561
sg19
S''
sg15
g560
sg28
Nsg44
S'The IP address of the client'
p562
stRp563
ag3
(g4
g5
(dp564
g14
S''
sg40
S'prog'
p565
sg18
S''
sg42
S'Text'
p566
sg19
S''
sg15
g565
sg28
Nsg44
S'The name (and version) of the client program'
p567
stRp568
atRp569
sg98
g512
sg99
S'1'
sg100
g101
sg44
S'Perforce process information'
p570
sg42
S'Monitor'
p571
sg104
S'48'
p572
sg40
S'db.monitor'
p573
stRp574
sS'working'
p575
g3
(g4
g5
(dp576
g7
S'clientFile'
p577
sg9
g3
(g10
g11
(lp578
g3
(g4
g5
(dp579
g14
S''
sg15
g16
sg17
g16
sg18
S''
sg19
S''
sg20
g21
sg22
g23
stRp580
ag3
(g4
g5
(dp581
g14
S''
sg17
g26
sg18
S''
sg20
g27
sg19
S''
sg15
g26
sg28
Nsg22
g29
stRp582
ag3
(g4
g5
(dp583
g14
S''
sg17
g32
sg18
S''
sg20
g21
sg19
S''
sg15
g32
sg28
Nsg22
g33
stRp584
ag3
(g4
g5
(dp585
g14
S''
sg17
g36
sg18
S''
sg20
g27
sg19
S''
sg15
g36
sg28
Nsg22
g37
stRp586
ag3
(g4
g5
(dp587
g14
S''
sg40
S'clientFile'
p588
sg18
S''
sg42
S'File'
p589
sg19
S''
sg15
g588
sg28
Nsg44
S'File on the client'
p590
stRp591
ag3
(g4
g5
(dp592
g14
S''
sg40
S'depotFile'
p593
sg18
S''
sg42
S'File'
p594
sg19
S''
sg15
g593
sg28
Nsg44
S'File in the depot'
p595
stRp596
ag3
(g4
g5
(dp597
g14
S''
sg40
S'client'
p598
sg18
S''
sg42
S'Domain'
p599
sg19
S''
sg15
g598
sg28
Nsg44
S'The client the file is opened on'
p600
stRp601
ag3
(g4
g5
(dp602
g14
S''
sg40
S'user'
p603
sg18
S''
sg42
S'User'
p604
sg19
S''
sg15
g603
sg28
Nsg44
S'The user who has the file opened'
p605
stRp606
ag3
(g4
g5
(dp607
g14
S''
sg40
S'haveRev'
p608
sg18
S''
sg42
S'Rev'
p609
sg19
S''
sg15
g608
sg28
Nsg44
S"Revision presently in user's client workspace.  This is \n\t\t    normally identical to workRev except for the case in which \n\t\t    you've tried to submit a file where you no longer have the \n\t\t    head revision. Perforce schedules the integrate (moves \n\t\t    workRev to headRev, but doesn't change the haveRev, so that \n\t\t    a p4 revert will return the file originally checked-out \n\t\t    instead of the new head revision."
p610
stRp611
ag3
(g4
g5
(dp612
g14
S''
sg40
S'workRev'
p613
sg18
S''
sg42
S'Rev'
p614
sg19
S''
sg15
g613
sg28
Nsg44
S'Working revision; this is identical to the haveRev except \n\t\t    in the case described above.'
p615
stRp616
ag3
(g4
g5
(dp617
g14
S''
sg40
S'isVirtual'
p618
sg18
S''
sg42
S'Int'
p619
sg19
S''
sg15
g618
sg28
Nsg44
S'Flag: if 1, file was opened with "p4 integ -v".'
p620
stRp621
ag3
(g4
g5
(dp622
g14
S''
sg40
S'type'
p623
sg18
S''
sg42
S'FileType'
p624
sg19
S''
sg15
g623
sg28
Nsg44
S'File type'
p625
stRp626
ag3
(g4
g5
(dp627
g14
S''
sg40
S'action'
p628
sg18
S''
sg42
S'Action'
p629
sg19
S''
sg15
g628
sg28
Nsg44
S"What the user's doing with the file"
p630
stRp631
ag3
(g4
g5
(dp632
g14
S''
sg40
S'change'
p633
sg18
S''
sg42
S'Change'
p634
sg19
S''
sg15
g633
sg28
Nsg44
S'Associated changelist, or zero for the default changelist.'
p635
stRp636
ag3
(g4
g5
(dp637
g14
S''
sg40
S'modTime'
p638
sg18
S''
sg42
S'Date'
p639
sg19
S''
sg15
g638
sg28
Nsg44
S"Modification timestamp on the file in the user's workspace."
p640
stRp641
ag3
(g4
g5
(dp642
g14
S''
sg40
S'isLocked'
p643
sg18
S''
sg42
S'Int'
p644
sg19
S''
sg15
g643
sg28
Nsg44
S'Flag: 0 for unlocked, 1 for locked.'
p645
stRp646
ag3
(g4
g5
(dp647
g14
S''
sg40
S'digest'
p648
sg18
S''
sg42
S'Digest'
p649
sg19
S''
sg15
g648
sg28
Nsg44
S'MD5 digest of working file.'
p650
stRp651
ag3
(g4
g5
(dp652
g14
S''
sg40
S'size'
p653
sg18
S''
sg42
S'Int64'
p654
sg19
S''
sg15
g653
sg28
Nsg44
S'File size'
p655
stRp656
ag3
(g4
g5
(dp657
g14
S''
sg40
S'traitLot'
p658
sg18
S''
sg42
S'int'
p659
sg19
S''
sg15
g658
sg28
Nsg44
S'Group of traits associated with file revision.'
p660
stRp661
ag3
(g4
g5
(dp662
g14
S''
sg40
S'tampered'
p663
sg18
S''
sg42
S'TamperCheck'
p664
sg19
S''
sg15
g663
sg28
Nsg44
S'Flag indicating the tamper-state of the file in the\n\t\t    workspace.'
p665
stRp666
ag3
(g4
g5
(dp667
g14
S''
sg40
S'clntType'
p668
sg18
S''
sg42
S'FileType'
p669
sg19
S''
sg15
g668
sg28
Nsg44
S'Type of the file in the client workspace.'
p670
stRp671
ag3
(g4
g5
(dp672
g14
S''
sg40
S'mFile'
p673
sg18
S''
sg42
S'File'
p674
sg19
S''
sg15
g673
sg28
Nsg44
S'Moved filename'
p675
stRp676
atRp677
sg98
g575
sg99
S'9'
sg100
g101
sg44
S'Records for work in progress'
p678
sg42
S'Working'
p679
sg104
S'30'
p680
sg40
S'db.working'
p681
stRp682
sS'review'
p683
g3
(g4
g5
(dp684
g7
S'user, seq'
p685
sg9
g3
(g10
g11
(lp686
g3
(g4
g5
(dp687
g14
S''
sg15
g16
sg17
g16
sg18
S''
sg19
S''
sg20
g21
sg22
g23
stRp688
ag3
(g4
g5
(dp689
g14
S''
sg17
g26
sg18
S''
sg20
g27
sg19
S''
sg15
g26
sg28
Nsg22
g29
stRp690
ag3
(g4
g5
(dp691
g14
S''
sg17
g32
sg18
S''
sg20
g21
sg19
S''
sg15
g32
sg28
Nsg22
g33
stRp692
ag3
(g4
g5
(dp693
g14
S''
sg17
g36
sg18
S''
sg20
g27
sg19
S''
sg15
g36
sg28
Nsg22
g37
stRp694
ag3
(g4
g5
(dp695
g14
S''
sg40
S'user'
p696
sg18
S''
sg42
S'User'
p697
sg19
S''
sg15
g696
sg28
Nsg44
S'A user name'
p698
stRp699
ag3
(g4
g5
(dp700
g14
S''
sg40
S'seq'
p701
sg18
S''
sg42
S'Int'
p702
sg19
S''
sg15
g701
sg28
Nsg44
S'Sequence number: used for ordering multi-line views'
p703
stRp704
ag3
(g4
g5
(dp705
g14
S''
sg40
S'mapFlag'
p706
sg18
S''
sg42
S'MapFlag'
p707
sg19
S''
sg15
g706
sg28
Nsg44
S'Type of mapping'
p708
stRp709
ag3
(g4
g5
(dp710
g14
S''
sg40
S'depotFile'
p711
sg18
S''
sg42
S'Mapping'
p712
sg19
S''
sg15
g711
sg28
Nsg44
S'The files to be reviewed'
p713
stRp714
ag3
(g4
g5
(dp715
g14
S''
sg40
S'type'
p716
sg18
S''
sg42
S'Reviewer'
p717
sg19
S''
sg15
g716
sg28
Nsg44
S'Type of reviewer'
p718
stRp719
atRp720
sg98
g683
sg99
S'1'
sg100
g101
sg44
S"Contains user's review mappings"
p721
sg42
S'Review'
p722
sg104
S'12'
p723
sg40
S'db.review'
p724
stRp725
sS'rev'
p726
g3
(g4
g5
(dp727
g7
S'depotFile, depotRev'
p728
sg9
g3
(g10
g11
(lp729
g3
(g4
g5
(dp730
g14
S''
sg15
g16
sg17
g16
sg18
S''
sg19
S''
sg20
g21
sg22
g23
stRp731
ag3
(g4
g5
(dp732
g14
S''
sg17
g26
sg18
S''
sg20
g27
sg19
S''
sg15
g26
sg28
Nsg22
g29
stRp733
ag3
(g4
g5
(dp734
g14
S''
sg17
g32
sg18
S''
sg20
g21
sg19
S''
sg15
g32
sg28
Nsg22
g33
stRp735
ag3
(g4
g5
(dp736
g14
S''
sg17
g36
sg18
S''
sg20
g27
sg19
S''
sg15
g36
sg28
Nsg22
g37
stRp737
ag3
(g4
g5
(dp738
g14
S''
sg40
g192
sg18
S''
sg42
g193
sg19
S''
sg15
g192
sg28
Nsg44
g194
stRp739
ag3
(g4
g5
(dp740
g14
S''
sg40
g197
sg18
S''
sg42
g198
sg19
S''
sg15
g197
sg28
Nsg44
g199
stRp741
ag3
(g4
g5
(dp742
g14
S''
sg40
g202
sg18
S''
sg42
g203
sg19
S''
sg15
g202
sg28
Nsg44
g204
stRp743
ag3
(g4
g5
(dp744
g14
S''
sg40
g207
sg18
S''
sg42
g208
sg19
S''
sg15
g207
sg28
Nsg44
g209
stRp745
ag3
(g4
g5
(dp746
g14
S''
sg40
g212
sg18
S''
sg42
g213
sg19
S''
sg15
g212
sg28
Nsg44
g214
stRp747
ag3
(g4
g5
(dp748
g14
S''
sg40
g217
sg18
S''
sg42
g218
sg19
S''
sg15
g217
sg28
Nsg44
g219
stRp749
ag3
(g4
g5
(dp750
g14
S''
sg40
g222
sg18
S''
sg42
g223
sg19
S''
sg15
g222
sg28
Nsg44
g224
stRp751
ag3
(g4
g5
(dp752
g14
S''
sg40
g227
sg18
S''
sg42
g228
sg19
S''
sg15
g227
sg28
Nsg44
g229
stRp753
ag3
(g4
g5
(dp754
g14
S''
sg40
g232
sg18
S''
sg42
g233
sg19
S''
sg15
g232
sg28
Nsg44
g234
stRp755
ag3
(g4
g5
(dp756
g14
S''
sg40
g237
sg18
S''
sg42
g238
sg19
S''
sg15
g237
sg28
Nsg44
g239
stRp757
ag3
(g4
g5
(dp758
g14
S''
sg40
g242
sg18
S''
sg42
g243
sg19
S''
sg15
g242
sg28
Nsg44
g244
stRp759
ag3
(g4
g5
(dp760
g14
S''
sg40
g247
sg18
S''
sg42
g248
sg19
S''
sg15
g247
sg28
Nsg44
g249
stRp761
ag3
(g4
g5
(dp762
g14
S''
sg40
g252
sg18
S''
sg42
g253
sg19
S''
sg15
g252
sg28
Nsg44
g254
stRp763
ag3
(g4
g5
(dp764
g14
S''
sg40
g257
sg18
S''
sg42
g258
sg19
S''
sg15
g257
sg28
Nsg44
g259
stRp765
atRp766
sg98
g726
sg99
S'9'
sg100
g101
sg44
S'Revision records'
p767
sg42
S'Rev'
p768
sg104
S'22'
p769
sg40
S'db.rev'
p770
stRp771
sS'label'
p772
g3
(g4
g5
(dp773
g7
S'name, depotFile'
p774
sg9
g3
(g10
g11
(lp775
g3
(g4
g5
(dp776
g14
S''
sg15
g16
sg17
g16
sg18
S''
sg19
S''
sg20
g21
sg22
g23
stRp777
ag3
(g4
g5
(dp778
g14
S''
sg17
g26
sg18
S''
sg20
g27
sg19
S''
sg15
g26
sg28
Nsg22
g29
stRp779
ag3
(g4
g5
(dp780
g14
S''
sg17
g32
sg18
S''
sg20
g21
sg19
S''
sg15
g32
sg28
Nsg22
g33
stRp781
ag3
(g4
g5
(dp782
g14
S''
sg17
g36
sg18
S''
sg20
g27
sg19
S''
sg15
g36
sg28
Nsg22
g37
stRp783
ag3
(g4
g5
(dp784
g14
S''
sg40
S'name'
p785
sg18
S''
sg42
S'Domain'
p786
sg19
S''
sg15
g785
sg28
Nsg44
S'Name of the label'
p787
stRp788
ag3
(g4
g5
(dp789
g14
S''
sg40
S'depotFile'
p790
sg18
S''
sg42
S'File'
p791
sg19
S''
sg15
g790
sg28
Nsg44
S'File name'
p792
stRp793
ag3
(g4
g5
(dp794
g14
S''
sg40
S'haveRev'
p795
sg18
S''
sg42
S'Rev'
p796
sg19
S''
sg15
g795
sg28
Nsg44
S'The revision of the file in the label'
p797
stRp798
atRp799
sg98
g772
sg99
S'0'
sg100
g101
sg44
S'Lists the revisions of files in labels.'
p800
sg42
S'Label'
p801
sg104
S'18'
p802
sg40
S'db.label'
p803
stRp804
sS'revbx'
p805
g3
(g4
g5
(dp806
g7
S'depotFile, depotRev'
p807
sg9
g3
(g10
g11
(lp808
g3
(g4
g5
(dp809
g14
S''
sg15
g16
sg17
g16
sg18
S''
sg19
S''
sg20
g21
sg22
g23
stRp810
ag3
(g4
g5
(dp811
g14
S''
sg17
g26
sg18
S''
sg20
g27
sg19
S''
sg15
g26
sg28
Nsg22
g29
stRp812
ag3
(g4
g5
(dp813
g14
S''
sg17
g32
sg18
S''
sg20
g21
sg19
S''
sg15
g32
sg28
Nsg22
g33
stRp814
ag3
(g4
g5
(dp815
g14
S''
sg17
g36
sg18
S''
sg20
g27
sg19
S''
sg15
g36
sg28
Nsg22
g37
stRp816
ag3
(g4
g5
(dp817
g14
S''
sg40
g192
sg18
S''
sg42
g193
sg19
S''
sg15
g192
sg28
Nsg44
g194
stRp818
ag3
(g4
g5
(dp819
g14
S''
sg40
g197
sg18
S''
sg42
g198
sg19
S''
sg15
g197
sg28
Nsg44
g199
stRp820
ag3
(g4
g5
(dp821
g14
S''
sg40
g202
sg18
S''
sg42
g203
sg19
S''
sg15
g202
sg28
Nsg44
g204
stRp822
ag3
(g4
g5
(dp823
g14
S''
sg40
g207
sg18
S''
sg42
g208
sg19
S''
sg15
g207
sg28
Nsg44
g209
stRp824
ag3
(g4
g5
(dp825
g14
S''
sg40
g212
sg18
S''
sg42
g213
sg19
S''
sg15
g212
sg28
Nsg44
g214
stRp826
ag3
(g4
g5
(dp827
g14
S''
sg40
g217
sg18
S''
sg42
g218
sg19
S''
sg15
g217
sg28
Nsg44
g219
stRp828
ag3
(g4
g5
(dp829
g14
S''
sg40
g222
sg18
S''
sg42
g223
sg19
S''
sg15
g222
sg28
Nsg44
g224
stRp830
ag3
(g4
g5
(dp831
g14
S''
sg40
g227
sg18
S''
sg42
g228
sg19
S''
sg15
g227
sg28
Nsg44
g229
stRp832
ag3
(g4
g5
(dp833
g14
S''
sg40
g232
sg18
S''
sg42
g233
sg19
S''
sg15
g232
sg28
Nsg44
g234
stRp834
ag3
(g4
g5
(dp835
g14
S''
sg40
g237
sg18
S''
sg42
g238
sg19
S''
sg15
g237
sg28
Nsg44
g239
stRp836
ag3
(g4
g5
(dp837
g14
S''
sg40
g242
sg18
S''
sg42
g243
sg19
S''
sg15
g242
sg28
Nsg44
g244
stRp838
ag3
(g4
g5
(dp839
g14
S''
sg40
g247
sg18
S''
sg42
g248
sg19
S''
sg15
g247
sg28
Nsg44
g249
stRp840
ag3
(g4
g5
(dp841
g14
S''
sg40
g252
sg18
S''
sg42
g253
sg19
S''
sg15
g252
sg28
Nsg44
g254
stRp842
ag3
(g4
g5
(dp843
g14
S''
sg40
g257
sg18
S''
sg42
g258
sg19
S''
sg15
g257
sg28
Nsg44
g259
stRp844
atRp845
sg98
g805
sg99
S'9'
sg100
g101
sg44
S'Revision records for archived files.'
p846
sg42
S'Rev'
p847
sg104
S'29'
p848
sg40
S'db.revbx'
p849
stRp850
sS'trigger'
p851
g3
(g4
g5
(dp852
g7
S'seq'
p853
sg9
g3
(g10
g11
(lp854
g3
(g4
g5
(dp855
g14
S''
sg15
g16
sg17
g16
sg18
S''
sg19
S''
sg20
g21
sg22
g23
stRp856
ag3
(g4
g5
(dp857
g14
S''
sg17
g26
sg18
S''
sg20
g27
sg19
S''
sg15
g26
sg28
Nsg22
g29
stRp858
ag3
(g4
g5
(dp859
g14
S''
sg17
g32
sg18
S''
sg20
g21
sg19
S''
sg15
g32
sg28
Nsg22
g33
stRp860
ag3
(g4
g5
(dp861
g14
S''
sg17
g36
sg18
S''
sg20
g27
sg19
S''
sg15
g36
sg28
Nsg22
g37
stRp862
ag3
(g4
g5
(dp863
g14
S''
sg40
S'seq'
p864
sg18
S''
sg42
S'Int'
p865
sg19
S''
sg15
g864
sg28
Nsg44
S'Sequence number: for ordering the trigger list'
p866
stRp867
ag3
(g4
g5
(dp868
g14
S''
sg40
S'name'
p869
sg18
S''
sg42
S'String'
p870
sg19
S''
sg15
g869
sg28
Nsg44
S'Name of the trigger'
p871
stRp872
ag3
(g4
g5
(dp873
g14
S''
sg40
S'mapFlag'
p874
sg18
S''
sg42
S'MapFlag'
p875
sg19
S''
sg15
g874
sg28
Nsg44
S'Type of mapping: specifies whether the trigger applies \n\t\t    to the files or not.'
p876
stRp877
ag3
(g4
g5
(dp878
g14
S''
sg40
S'depotFile'
p879
sg18
S''
sg42
S'Mapping'
p880
sg19
S''
sg15
g879
sg28
Nsg44
S'The files to apply the trigger to'
p881
stRp882
ag3
(g4
g5
(dp883
g14
S''
sg40
S'trigger'
p884
sg18
S''
sg42
S'Trigger'
p885
sg19
S''
sg15
g884
sg28
Nsg44
S'Type of trigger'
p886
stRp887
ag3
(g4
g5
(dp888
g14
S''
sg40
S'action'
p889
sg18
S''
sg42
S'Text'
p890
sg19
S''
sg15
g889
sg28
Nsg44
S'Command to execute when trigger runs'
p891
stRp892
atRp893
sg98
g851
sg99
S'2'
sg100
g101
sg44
S'Trigger specifications'
p894
sg42
S'Trigger'
p895
sg104
S'33'
p896
sg40
S'db.trigger'
p897
stRp898
sS'template'
p899
g3
(g4
g5
(dp900
g7
S'name, change, sequence'
p901
sg9
g3
(g10
g11
(lp902
g3
(g4
g5
(dp903
g14
S''
sg15
g16
sg17
g16
sg18
S''
sg19
S''
sg20
g21
sg22
g23
stRp904
ag3
(g4
g5
(dp905
g14
S''
sg17
g26
sg18
S''
sg20
g27
sg19
S''
sg15
g26
sg28
Nsg22
g29
stRp906
ag3
(g4
g5
(dp907
g14
S''
sg17
g32
sg18
S''
sg20
g21
sg19
S''
sg15
g32
sg28
Nsg22
g33
stRp908
ag3
(g4
g5
(dp909
g14
S''
sg17
g36
sg18
S''
sg20
g27
sg19
S''
sg15
g36
sg28
Nsg22
g37
stRp910
ag3
(g4
g5
(dp911
g14
S''
sg40
S'name'
p912
sg18
S''
sg42
S'Domain'
p913
sg19
S''
sg15
g912
sg28
Nsg44
S'Stream name'
p914
stRp915
ag3
(g4
g5
(dp916
g14
S''
sg40
S'change'
p917
sg18
S''
sg42
S'Change'
p918
sg19
S''
sg15
g917
sg28
Nsg44
S'Versioned at change'
p919
stRp920
ag3
(g4
g5
(dp921
g14
S''
sg40
S'seq'
p922
sg18
S''
sg42
S'Int'
p923
sg19
S''
sg15
g922
sg28
Nsg44
S'Sequence (line) number'
p924
stRp925
ag3
(g4
g5
(dp926
g14
S''
sg40
S'parent'
p927
sg18
S''
sg42
S'Domain'
p928
sg19
S''
sg15
g927
sg28
Nsg44
S'Parent stream name'
p929
stRp930
ag3
(g4
g5
(dp931
g14
S''
sg40
S'type'
p932
sg18
S''
sg42
S'StreamType'
p933
sg19
S''
sg15
g932
sg28
Nsg44
S'Type of stream'
p934
stRp935
ag3
(g4
g5
(dp936
g14
S''
sg40
S'path'
p937
sg18
S''
sg42
S'StreamPathType'
p938
sg19
S''
sg15
g937
sg28
Nsg44
S'Stream path type'
p939
stRp940
ag3
(g4
g5
(dp941
g14
S''
sg40
S'viewFile'
p942
sg18
S''
sg42
S'Mapping'
p943
sg19
S''
sg15
g942
sg28
Nsg44
S'View file (left hand side of path)'
p944
stRp945
ag3
(g4
g5
(dp946
g14
S''
sg40
S'depotFile'
p947
sg18
S''
sg42
S'Mapping'
p948
sg19
S''
sg15
g947
sg28
Nsg44
S'Depot file (right hand side of path)'
p949
stRp950
atRp951
sg98
g899
sg99
S'0'
sg100
g101
sg44
S'Streams templates'
p952
sg42
S'Template'
p953
sg104
S'10'
p954
sg40
S'db.template'
p955
stRp956
sS'logger'
p957
g3
(g4
g5
(dp958
g7
S'seq'
p959
sg9
g3
(g10
g11
(lp960
g3
(g4
g5
(dp961
g14
S''
sg15
g16
sg17
g16
sg18
S''
sg19
S''
sg20
g21
sg22
g23
stRp962
ag3
(g4
g5
(dp963
g14
S''
sg17
g26
sg18
S''
sg20
g27
sg19
S''
sg15
g26
sg28
Nsg22
g29
stRp964
ag3
(g4
g5
(dp965
g14
S''
sg17
g32
sg18
S''
sg20
g21
sg19
S''
sg15
g32
sg28
Nsg22
g33
stRp966
ag3
(g4
g5
(dp967
g14
S''
sg17
g36
sg18
S''
sg20
g27
sg19
S''
sg15
g36
sg28
Nsg22
g37
stRp968
ag3
(g4
g5
(dp969
g14
S''
sg40
S'seq'
p970
sg18
S''
sg42
S'Int'
p971
sg19
S''
sg15
g970
sg28
Nsg44
S'Sequence number of event'
p972
stRp973
ag3
(g4
g5
(dp974
g14
S''
sg40
S'key'
p975
sg18
S''
sg42
S'String'
p976
sg19
S''
sg15
g975
sg28
Nsg44
S"Either the word 'change' or the word 'job'"
p977
stRp978
ag3
(g4
g5
(dp979
g14
S''
sg40
S'attr'
p980
sg18
S''
sg42
S'String'
p981
sg19
S''
sg15
g980
sg28
Nsg44
S'The number of the change, or name of the job that was \n\t\t    altered.'
p982
stRp983
atRp984
sg98
g957
sg99
S'0'
sg100
g101
sg44
S"Support for 'p4 logger' command. Logs any changes to \n\t\tchangelists and jobs"
p985
sg42
S'Logger'
p986
sg104
S'3'
sg40
S'db.logger'
p987
stRp988
sS'depot'
p989
g3
(g4
g5
(dp990
g7
S'name'
p991
sg9
g3
(g10
g11
(lp992
g3
(g4
g5
(dp993
g14
S''
sg15
g16
sg17
g16
sg18
S''
sg19
S''
sg20
g21
sg22
g23
stRp994
ag3
(g4
g5
(dp995
g14
S''
sg17
g26
sg18
S''
sg20
g27
sg19
S''
sg15
g26
sg28
Nsg22
g29
stRp996
ag3
(g4
g5
(dp997
g14
S''
sg17
g32
sg18
S''
sg20
g21
sg19
S''
sg15
g32
sg28
Nsg22
g33
stRp998
ag3
(g4
g5
(dp999
g14
S''
sg17
g36
sg18
S''
sg20
g27
sg19
S''
sg15
g36
sg28
Nsg22
g37
stRp1000
ag3
(g4
g5
(dp1001
g14
S''
sg40
S'name'
p1002
sg18
S''
sg42
S'Domain'
p1003
sg19
S''
sg15
g1002
sg28
Nsg44
S'Depot name'
p1004
stRp1005
ag3
(g4
g5
(dp1006
g14
S''
sg40
S'type'
p1007
sg18
S''
sg42
S'DepotType'
p1008
sg19
S''
sg15
g1007
sg28
Nsg44
S'Type of depot'
p1009
stRp1010
ag3
(g4
g5
(dp1011
g14
S''
sg40
S'extra'
p1012
sg18
S''
sg42
S'Text'
p1013
sg19
S''
sg15
g1012
sg28
Nsg44
S'For remote depots, the P4PORT address of the remote server.\n\t\t    For spec depots, the field contains a suffix to append to \n\t\t    the filename.'
p1014
stRp1015
ag3
(g4
g5
(dp1016
g14
S''
sg40
S'map'
p1017
sg18
S''
sg42
S'Text'
p1018
sg19
S''
sg15
g1017
sg28
Nsg44
S"The depot's map (path translation information).  For local \n\t\t    depots, this will be a path relative to the root directory.\n\t\t    For remote depots, this will be specified in terms of the \n\t\t    remote server's namespace."
p1019
stRp1020
atRp1021
sg98
g989
sg99
S'1'
sg100
g101
sg44
S'Perforce depots'
p1022
sg42
S'Depot'
p1023
sg104
S'7'
sg40
S'db.depot'
p1024
stRp1025
sS'config'
p1026
g3
(g4
g5
(dp1027
g7
S'serverName, name'
p1028
sg9
g3
(g10
g11
(lp1029
g3
(g4
g5
(dp1030
g14
S''
sg15
g16
sg17
g16
sg18
S''
sg19
S''
sg20
g21
sg22
g23
stRp1031
ag3
(g4
g5
(dp1032
g14
S''
sg17
g26
sg18
S''
sg20
g27
sg19
S''
sg15
g26
sg28
Nsg22
g29
stRp1033
ag3
(g4
g5
(dp1034
g14
S''
sg17
g32
sg18
S''
sg20
g21
sg19
S''
sg15
g32
sg28
Nsg22
g33
stRp1035
ag3
(g4
g5
(dp1036
g14
S''
sg17
g36
sg18
S''
sg20
g27
sg19
S''
sg15
g36
sg28
Nsg22
g37
stRp1037
ag3
(g4
g5
(dp1038
g14
S''
sg40
S'serverName'
p1039
sg18
S''
sg42
S'String'
p1040
sg19
S''
sg15
g1039
sg28
Nsg44
S'Server name'
p1041
stRp1042
ag3
(g4
g5
(dp1043
g14
S''
sg40
S'name'
p1044
sg18
S''
sg42
S'String'
p1045
sg19
S''
sg15
g1044
sg28
Nsg44
S'Configuration variable name'
p1046
stRp1047
ag3
(g4
g5
(dp1048
g14
S''
sg40
S'value'
p1049
sg18
S''
sg42
S'Value'
p1050
sg19
S''
sg15
g1049
sg28
Nsg44
S'Configuration variable value'
p1051
stRp1052
atRp1053
sg98
g1026
sg99
S'1'
sg100
g101
sg44
S'Perforce server configurations table'
p1054
sg42
S'Config'
p1055
sg104
S'1'
sg40
S'db.config'
p1056
stRp1057
sS'fixrev'
p1058
g3
(g4
g5
(dp1059
g7
S'change, job'
p1060
sg9
g3
(g10
g11
(lp1061
g3
(g4
g5
(dp1062
g14
S''
sg15
g16
sg17
g16
sg18
S''
sg19
S''
sg20
g21
sg22
g23
stRp1063
ag3
(g4
g5
(dp1064
g14
S''
sg17
g26
sg18
S''
sg20
g27
sg19
S''
sg15
g26
sg28
Nsg22
g29
stRp1065
ag3
(g4
g5
(dp1066
g14
S''
sg17
g32
sg18
S''
sg20
g21
sg19
S''
sg15
g32
sg28
Nsg22
g33
stRp1067
ag3
(g4
g5
(dp1068
g14
S''
sg17
g36
sg18
S''
sg20
g27
sg19
S''
sg15
g36
sg28
Nsg22
g37
stRp1069
ag3
(g4
g5
(dp1070
g14
S''
sg40
S'job'
p1071
sg18
S''
sg42
S'String'
p1072
sg19
S''
sg15
g1071
sg28
Nsg44
S'Job name'
p1073
stRp1074
ag3
(g4
g5
(dp1075
g14
S''
sg40
S'change'
p1076
sg18
S''
sg42
S'Change'
p1077
sg19
S''
sg15
g1076
sg28
Nsg44
S'Changelist number'
p1078
stRp1079
ag3
(g4
g5
(dp1080
g14
S''
sg40
S'date'
p1081
sg18
S''
sg42
S'Date'
p1082
sg19
S''
sg15
g1081
sg28
Nsg44
S'Date fix was recorded (may differ from date change was\n\t\t    submitted).'
p1083
stRp1084
ag3
(g4
g5
(dp1085
g14
S''
sg40
S'status'
p1086
sg18
S''
sg42
S'FixStatus'
p1087
sg19
S''
sg15
g1086
sg28
Nsg44
S'Status of the job'
p1088
stRp1089
ag3
(g4
g5
(dp1090
g14
S''
sg40
S'client'
p1091
sg18
S''
sg42
S'Domain'
p1092
sg19
S''
sg15
g1091
sg28
Nsg44
S'The client where the fix originated'
p1093
stRp1094
ag3
(g4
g5
(dp1095
g14
S''
sg40
S'user'
p1096
sg18
S''
sg42
S'User'
p1097
sg19
S''
sg15
g1096
sg28
Nsg44
S'The user who fixed the job'
p1098
stRp1099
atRp1100
sg98
g1058
sg40
S'db.fixrev'
p1101
sg99
S'1'
sg100
g101
sS'seeAlso'
p1102
S'db.fix'
p1103
sg42
S'Fix'
p1104
sg104
S'41'
p1105
sg44
S'Fix records - indexed by change'
p1106
stRp1107
sS'bodtext'
p1108
g3
(g4
g5
(dp1109
g7
S'key, attr'
p1110
sg9
g3
(g10
g11
(lp1111
g3
(g4
g5
(dp1112
g14
S''
sg15
g16
sg17
g16
sg18
S''
sg19
S''
sg20
g21
sg22
g23
stRp1113
ag3
(g4
g5
(dp1114
g14
S''
sg17
g26
sg18
S''
sg20
g27
sg19
S''
sg15
g26
sg28
Nsg22
g29
stRp1115
ag3
(g4
g5
(dp1116
g14
S''
sg17
g32
sg18
S''
sg20
g21
sg19
S''
sg15
g32
sg28
Nsg22
g33
stRp1117
ag3
(g4
g5
(dp1118
g14
S''
sg17
g36
sg18
S''
sg20
g27
sg19
S''
sg15
g36
sg28
Nsg22
g37
stRp1119
ag3
(g4
g5
(dp1120
g14
S''
sg40
S'key'
p1121
sg18
S''
sg42
S'String'
p1122
sg19
S''
sg15
g1121
sg28
Nsg44
S'The job to which this attribute belongs'
p1123
stRp1124
ag3
(g4
g5
(dp1125
g14
S''
sg40
S'attr'
p1126
sg18
S''
sg42
S'Int'
p1127
sg19
S''
sg15
g1126
sg28
Nsg44
S'The attribute number (from the jobspec) of this attribute'
p1128
stRp1129
ag3
(g4
g5
(dp1130
g14
S''
sg40
S'isBulk'
p1131
sg18
S''
sg42
S'Int'
p1132
sg19
S''
sg15
g1131
sg28
Nsg44
S'Indicates whether (1), or not (0) the field is a bulk\n\t\t    text field that should not be indexed.'
p1133
stRp1134
ag3
(g4
g5
(dp1135
g14
S''
sg40
S'text'
p1136
sg18
S''
sg42
S'Text'
p1137
sg19
S''
sg15
g1136
sg28
Nsg44
S'The attribute value'
p1138
stRp1139
atRp1140
sg98
g1108
sg99
S'1'
sg100
g101
sg44
S'Job data for job attributes.'
p1141
sg42
S'BodyText'
p1142
sg104
S'43'
p1143
sg40
S'db.bodtext'
p1144
stRp1145
sS'revdx'
p1146
g3
(g4
g5
(dp1147
g7
S'depotFile'
p1148
sg9
g3
(g10
g11
(lp1149
g3
(g4
g5
(dp1150
g14
S''
sg15
g16
sg17
g16
sg18
S''
sg19
S''
sg20
g21
sg22
g23
stRp1151
ag3
(g4
g5
(dp1152
g14
S''
sg17
g26
sg18
S''
sg20
g27
sg19
S''
sg15
g26
sg28
Nsg22
g29
stRp1153
ag3
(g4
g5
(dp1154
g14
S''
sg17
g32
sg18
S''
sg20
g21
sg19
S''
sg15
g32
sg28
Nsg22
g33
stRp1155
ag3
(g4
g5
(dp1156
g14
S''
sg17
g36
sg18
S''
sg20
g27
sg19
S''
sg15
g36
sg28
Nsg22
g37
stRp1157
ag3
(g4
g5
(dp1158
g14
S''
sg40
g192
sg18
S''
sg42
g193
sg19
S''
sg15
g192
sg28
Nsg44
g194
stRp1159
ag3
(g4
g5
(dp1160
g14
S''
sg40
g197
sg18
S''
sg42
g198
sg19
S''
sg15
g197
sg28
Nsg44
g199
stRp1161
ag3
(g4
g5
(dp1162
g14
S''
sg40
g202
sg18
S''
sg42
g203
sg19
S''
sg15
g202
sg28
Nsg44
g204
stRp1163
ag3
(g4
g5
(dp1164
g14
S''
sg40
g207
sg18
S''
sg42
g208
sg19
S''
sg15
g207
sg28
Nsg44
g209
stRp1165
ag3
(g4
g5
(dp1166
g14
S''
sg40
g212
sg18
S''
sg42
g213
sg19
S''
sg15
g212
sg28
Nsg44
g214
stRp1167
ag3
(g4
g5
(dp1168
g14
S''
sg40
g217
sg18
S''
sg42
g218
sg19
S''
sg15
g217
sg28
Nsg44
g219
stRp1169
ag3
(g4
g5
(dp1170
g14
S''
sg40
g222
sg18
S''
sg42
g223
sg19
S''
sg15
g222
sg28
Nsg44
g224
stRp1171
ag3
(g4
g5
(dp1172
g14
S''
sg40
g227
sg18
S''
sg42
g228
sg19
S''
sg15
g227
sg28
Nsg44
g229
stRp1173
ag3
(g4
g5
(dp1174
g14
S''
sg40
g232
sg18
S''
sg42
g233
sg19
S''
sg15
g232
sg28
Nsg44
g234
stRp1175
ag3
(g4
g5
(dp1176
g14
S''
sg40
g237
sg18
S''
sg42
g238
sg19
S''
sg15
g237
sg28
Nsg44
g239
stRp1177
ag3
(g4
g5
(dp1178
g14
S''
sg40
g242
sg18
S''
sg42
g243
sg19
S''
sg15
g242
sg28
Nsg44
g244
stRp1179
ag3
(g4
g5
(dp1180
g14
S''
sg40
g247
sg18
S''
sg42
g248
sg19
S''
sg15
g247
sg28
Nsg44
g249
stRp1181
ag3
(g4
g5
(dp1182
g14
S''
sg40
g252
sg18
S''
sg42
g253
sg19
S''
sg15
g252
sg28
Nsg44
g254
stRp1183
ag3
(g4
g5
(dp1184
g14
S''
sg40
g257
sg18
S''
sg42
g258
sg19
S''
sg15
g257
sg28
Nsg44
g259
stRp1185
atRp1186
sg98
g1146
sg99
S'9'
sg100
g101
sg44
S'Revision records for revisions deleted at the head revision.'
p1187
sg42
S'Rev'
p1188
sg104
S'24'
p1189
sg40
S'db.revdx'
p1190
stRp1191
sS'revsx'
p1192
g3
(g4
g5
(dp1193
g7
S'depotFile, depotRev'
p1194
sg9
g3
(g10
g11
(lp1195
g3
(g4
g5
(dp1196
g14
S''
sg15
g16
sg17
g16
sg18
S''
sg19
S''
sg20
g21
sg22
g23
stRp1197
ag3
(g4
g5
(dp1198
g14
S''
sg17
g26
sg18
S''
sg20
g27
sg19
S''
sg15
g26
sg28
Nsg22
g29
stRp1199
ag3
(g4
g5
(dp1200
g14
S''
sg17
g32
sg18
S''
sg20
g21
sg19
S''
sg15
g32
sg28
Nsg22
g33
stRp1201
ag3
(g4
g5
(dp1202
g14
S''
sg17
g36
sg18
S''
sg20
g27
sg19
S''
sg15
g36
sg28
Nsg22
g37
stRp1203
ag3
(g4
g5
(dp1204
g14
S''
sg40
g192
sg18
S''
sg42
g193
sg19
S''
sg15
g192
sg28
Nsg44
g194
stRp1205
ag3
(g4
g5
(dp1206
g14
S''
sg40
g197
sg18
S''
sg42
g198
sg19
S''
sg15
g197
sg28
Nsg44
g199
stRp1207
ag3
(g4
g5
(dp1208
g14
S''
sg40
g202
sg18
S''
sg42
g203
sg19
S''
sg15
g202
sg28
Nsg44
g204
stRp1209
ag3
(g4
g5
(dp1210
g14
S''
sg40
g207
sg18
S''
sg42
g208
sg19
S''
sg15
g207
sg28
Nsg44
g209
stRp1211
ag3
(g4
g5
(dp1212
g14
S''
sg40
g212
sg18
S''
sg42
g213
sg19
S''
sg15
g212
sg28
Nsg44
g214
stRp1213
ag3
(g4
g5
(dp1214
g14
S''
sg40
g217
sg18
S''
sg42
g218
sg19
S''
sg15
g217
sg28
Nsg44
g219
stRp1215
ag3
(g4
g5
(dp1216
g14
S''
sg40
g222
sg18
S''
sg42
g223
sg19
S''
sg15
g222
sg28
Nsg44
g224
stRp1217
ag3
(g4
g5
(dp1218
g14
S''
sg40
g227
sg18
S''
sg42
g228
sg19
S''
sg15
g227
sg28
Nsg44
g229
stRp1219
ag3
(g4
g5
(dp1220
g14
S''
sg40
g232
sg18
S''
sg42
g233
sg19
S''
sg15
g232
sg28
Nsg44
g234
stRp1221
ag3
(g4
g5
(dp1222
g14
S''
sg40
g237
sg18
S''
sg42
g238
sg19
S''
sg15
g237
sg28
Nsg44
g239
stRp1223
ag3
(g4
g5
(dp1224
g14
S''
sg40
g242
sg18
S''
sg42
g243
sg19
S''
sg15
g242
sg28
Nsg44
g244
stRp1225
ag3
(g4
g5
(dp1226
g14
S''
sg40
g247
sg18
S''
sg42
g248
sg19
S''
sg15
g247
sg28
Nsg44
g249
stRp1227
ag3
(g4
g5
(dp1228
g14
S''
sg40
g252
sg18
S''
sg42
g253
sg19
S''
sg15
g252
sg28
Nsg44
g254
stRp1229
ag3
(g4
g5
(dp1230
g14
S''
sg40
g257
sg18
S''
sg42
g258
sg19
S''
sg15
g257
sg28
Nsg44
g259
stRp1231
atRp1232
sg98
g1192
sg99
S'9'
sg100
g101
sg44
S'Revision records for spec depot files.'
p1233
sg42
S'Rev'
p1234
sg104
S'27'
p1235
sg40
S'db.revsx'
p1236
stRp1237
sS'changex'
p1238
g3
(g4
g5
(dp1239
g7
S'change'
p1240
sg9
g3
(g10
g11
(lp1241
g3
(g4
g5
(dp1242
g14
S''
sg15
g16
sg17
g16
sg18
S''
sg19
S''
sg20
g21
sg22
g23
stRp1243
ag3
(g4
g5
(dp1244
g14
S''
sg17
g26
sg18
S''
sg20
g27
sg19
S''
sg15
g26
sg28
Nsg22
g29
stRp1245
ag3
(g4
g5
(dp1246
g14
S''
sg17
g32
sg18
S''
sg20
g21
sg19
S''
sg15
g32
sg28
Nsg22
g33
stRp1247
ag3
(g4
g5
(dp1248
g14
S''
sg17
g36
sg18
S''
sg20
g27
sg19
S''
sg15
g36
sg28
Nsg22
g37
stRp1249
ag3
(g4
g5
(dp1250
g14
S''
sg40
S'change'
p1251
sg18
S''
sg42
S'Change'
p1252
sg19
S''
sg15
g1251
sg28
Nsg44
S'The change number'
p1253
stRp1254
ag3
(g4
g5
(dp1255
g14
S''
sg40
S'descKey'
p1256
sg18
S''
sg42
S'Change'
p1257
sg19
S''
sg15
g1256
sg28
Nsg44
S"The description key. Normally the same as 'change', but\n\t\t    may differ if a changelist was renumbered on submission."
p1258
stRp1259
ag3
(g4
g5
(dp1260
g14
S''
sg40
S'client'
p1261
sg18
S''
sg42
S'Domain'
p1262
sg19
S''
sg15
g1261
sg28
Nsg44
S'The client from which the change originates'
p1263
stRp1264
ag3
(g4
g5
(dp1265
g14
S''
sg40
S'user'
p1266
sg18
S''
sg42
S'User'
p1267
sg19
S''
sg15
g1266
sg28
Nsg44
S'The user who owns the change'
p1268
stRp1269
ag3
(g4
g5
(dp1270
g14
S''
sg40
S'date'
p1271
sg18
S''
sg42
S'Date'
p1272
sg19
S''
sg15
g1271
sg28
Nsg44
S'Date and time the changelist was submitted'
p1273
stRp1274
ag3
(g4
g5
(dp1275
g14
S''
sg40
S'status'
p1276
sg18
S''
sg42
S'ChangeStatus'
p1277
sg19
S''
sg15
g1276
sg28
Nsg44
S'Status of the change'
p1278
stRp1279
ag3
(g4
g5
(dp1280
g14
S''
sg40
S'description'
p1281
sg18
S''
sg42
S'DescShort'
p1282
sg19
S''
sg15
g1281
sg28
Nsg44
S'Short description of the change.'
p1283
stRp1284
ag3
(g4
g5
(dp1285
g14
S''
sg40
S'root'
p1286
sg18
S''
sg42
S'Mapping'
p1287
sg19
S''
sg15
g1286
sg28
Nsg44
S'Common path for all files in the changelist'
p1288
stRp1289
atRp1290
sg98
g1238
sg262
S'contains records for pending changelists only.'
p1291
sg99
S'2'
sg100
g101
sg44
S'Subset of db.change - records for pending changelists only'
p1292
sg42
S'Change'
p1293
sg104
S'35'
p1294
sg40
S'db.changex'
p1295
stRp1296
sS'integed'
p1297
g3
(g4
g5
(dp1298
g7
S'toFile, fromFile, startFromRev, endFromRev, \n\t\tstartToRev, endToRev'
p1299
sg9
g3
(g10
g11
(lp1300
g3
(g4
g5
(dp1301
g14
S''
sg15
g16
sg17
g16
sg18
S''
sg19
S''
sg20
g21
sg22
g23
stRp1302
ag3
(g4
g5
(dp1303
g14
S''
sg17
g26
sg18
S''
sg20
g27
sg19
S''
sg15
g26
sg28
Nsg22
g29
stRp1304
ag3
(g4
g5
(dp1305
g14
S''
sg17
g32
sg18
S''
sg20
g21
sg19
S''
sg15
g32
sg28
Nsg22
g33
stRp1306
ag3
(g4
g5
(dp1307
g14
S''
sg17
g36
sg18
S''
sg20
g27
sg19
S''
sg15
g36
sg28
Nsg22
g37
stRp1308
ag3
(g4
g5
(dp1309
g14
S''
sg40
S'toFile'
p1310
sg18
S''
sg42
S'File'
p1311
sg19
S''
sg15
g1310
sg28
Nsg44
S'File to which integration is being performed (target).'
p1312
stRp1313
ag3
(g4
g5
(dp1314
g14
S''
sg40
S'fromFile'
p1315
sg18
S''
sg42
S'File'
p1316
sg19
S''
sg15
g1315
sg28
Nsg44
S'File from which integration is being performed (source).'
p1317
stRp1318
ag3
(g4
g5
(dp1319
g14
S''
sg40
S'startFromRev'
p1320
sg18
S''
sg42
S'Rev'
p1321
sg19
S''
sg15
g1320
sg28
Nsg44
S'Starting revision of fromFile'
p1322
stRp1323
ag3
(g4
g5
(dp1324
g14
S''
sg40
S'endFromRev'
p1325
sg18
S''
sg42
S'Rev'
p1326
sg19
S''
sg15
g1325
sg28
Nsg44
S'Ending revision of fromFile. If integrating from a single \n\t\t    revision (not a revision range), the startFromRev and \n\t\t    endFromRev fields will be identical.'
p1327
stRp1328
ag3
(g4
g5
(dp1329
g14
S''
sg40
S'startToRev'
p1330
sg18
S''
sg42
S'Rev'
p1331
sg19
S''
sg15
g1330
sg28
Nsg44
S'Start revision of toFile into which integration was \n\t\t    performed.'
p1332
stRp1333
ag3
(g4
g5
(dp1334
g14
S''
sg40
S'endToRev'
p1335
sg18
S''
sg42
S'Rev'
p1336
sg19
S''
sg15
g1335
sg28
Nsg44
S'End revision of toFile into which integration was \n\t\t    performed. Only varies from startToRev for reverse \n\t\t    integration records.'
p1337
stRp1338
ag3
(g4
g5
(dp1339
g14
S''
sg40
S'how'
p1340
sg18
S''
sg42
S'IntegHow'
p1341
sg19
S''
sg15
g1340
sg28
Nsg44
S'Integration method: variations on \n\t\t    merge/branch/copy/ignore/delete.'
p1342
stRp1343
ag3
(g4
g5
(dp1344
g14
S''
sg40
S'change'
p1345
sg18
S''
sg42
S'Change'
p1346
sg19
S''
sg15
g1345
sg28
Nsg44
S'Changelist associated with the integration.'
p1347
stRp1348
atRp1349
sg98
g1297
sg40
S'db.integed'
p1350
sg99
S'0'
sg100
g101
sg1102
S'db.resolve'
p1351
sg42
S'Integed'
p1352
sg104
S'14'
p1353
sg44
S'Permanent integration records'
p1354
stRp1355
sS'jobdesc'
p1356
g3
(g4
g5
(dp1357
g7
S'job'
p1358
sg9
g3
(g10
g11
(lp1359
g3
(g4
g5
(dp1360
g14
S''
sg15
g16
sg17
g16
sg18
S''
sg19
S''
sg20
g21
sg22
g23
stRp1361
ag3
(g4
g5
(dp1362
g14
S''
sg17
g26
sg18
S''
sg20
g27
sg19
S''
sg15
g26
sg28
Nsg22
g29
stRp1363
ag3
(g4
g5
(dp1364
g14
S''
sg17
g32
sg18
S''
sg20
g21
sg19
S''
sg15
g32
sg28
Nsg22
g33
stRp1365
ag3
(g4
g5
(dp1366
g14
S''
sg17
g36
sg18
S''
sg20
g27
sg19
S''
sg15
g36
sg28
Nsg22
g37
stRp1367
ag3
(g4
g5
(dp1368
g14
S''
sg40
S'xjob'
p1369
sg18
S''
sg42
S'String'
p1370
sg19
S''
sg15
g1369
sg28
Nsg44
S'The job name'
p1371
stRp1372
ag3
(g4
g5
(dp1373
g14
S''
sg40
S'xdescription'
p1374
sg18
S''
sg42
S'Text'
p1375
sg19
S''
sg15
g1374
sg28
Nsg44
S'Jobdescription'
p1376
stRp1377
atRp1378
sg98
g1356
sg40
S'db.jobdesc'
p1379
sg99
S'0'
sg100
g101
sg1102
S'db.bodtext'
p1380
sg42
S'JobDesc'
p1381
sg104
S'39'
p1382
sg44
S'Obsolete in 98.2'
p1383
stRp1384
sS'job'
p1385
g3
(g4
g5
(dp1386
g7
S'job'
p1387
sg9
g3
(g10
g11
(lp1388
g3
(g4
g5
(dp1389
g14
S''
sg15
g16
sg17
g16
sg18
S''
sg19
S''
sg20
g21
sg22
g23
stRp1390
ag3
(g4
g5
(dp1391
g14
S''
sg17
g26
sg18
S''
sg20
g27
sg19
S''
sg15
g26
sg28
Nsg22
g29
stRp1392
ag3
(g4
g5
(dp1393
g14
S''
sg17
g32
sg18
S''
sg20
g21
sg19
S''
sg15
g32
sg28
Nsg22
g33
stRp1394
ag3
(g4
g5
(dp1395
g14
S''
sg17
g36
sg18
S''
sg20
g27
sg19
S''
sg15
g36
sg28
Nsg22
g37
stRp1396
ag3
(g4
g5
(dp1397
g14
S''
sg40
S'job'
p1398
sg18
S''
sg42
S'String'
p1399
sg19
S''
sg15
g1398
sg28
Nsg44
S'The job name'
p1400
stRp1401
ag3
(g4
g5
(dp1402
g14
S''
sg40
S'xuser'
p1403
sg18
S''
sg42
S'User'
p1404
sg19
S''
sg15
g1403
sg28
Nsg44
S'User name: defunct'
p1405
stRp1406
ag3
(g4
g5
(dp1407
g14
S''
sg40
S'xdate'
p1408
sg18
S''
sg42
S'Date'
p1409
sg19
S''
sg15
g1408
sg28
Nsg44
S'The date: defunct'
p1410
stRp1411
ag3
(g4
g5
(dp1412
g14
S''
sg40
S'xstatus'
p1413
sg18
S''
sg42
S'JobStat'
p1414
sg19
S''
sg15
g1413
sg28
Nsg44
S'Job status: defunct'
p1415
stRp1416
ag3
(g4
g5
(dp1417
g14
S''
sg40
S'description'
p1418
sg18
S''
sg42
S'DescShort'
p1419
sg19
S''
sg15
g1418
sg28
Nsg44
S'Short description'
p1420
stRp1421
atRp1422
sg98
g1385
sg40
S'db.job'
p1423
sg99
S'0'
sg100
g101
sg1102
S'db.bodtext'
p1424
sg42
S'Job'
p1425
sg104
S'37'
p1426
sg44
S'Job records'
p1427
stRp1428
sS'workingx'
p1429
g3
(g4
g5
(dp1430
g7
S'clientFile'
p1431
sg9
g3
(g10
g11
(lp1432
g3
(g4
g5
(dp1433
g14
S''
sg15
g16
sg17
g16
sg18
S''
sg19
S''
sg20
g21
sg22
g23
stRp1434
ag3
(g4
g5
(dp1435
g14
S''
sg17
g26
sg18
S''
sg20
g27
sg19
S''
sg15
g26
sg28
Nsg22
g29
stRp1436
ag3
(g4
g5
(dp1437
g14
S''
sg17
g32
sg18
S''
sg20
g21
sg19
S''
sg15
g32
sg28
Nsg22
g33
stRp1438
ag3
(g4
g5
(dp1439
g14
S''
sg17
g36
sg18
S''
sg20
g27
sg19
S''
sg15
g36
sg28
Nsg22
g37
stRp1440
ag3
(g4
g5
(dp1441
g14
S''
sg40
g588
sg18
S''
sg42
g589
sg19
S''
sg15
g588
sg28
Nsg44
g590
stRp1442
ag3
(g4
g5
(dp1443
g14
S''
sg40
g593
sg18
S''
sg42
g594
sg19
S''
sg15
g593
sg28
Nsg44
g595
stRp1444
ag3
(g4
g5
(dp1445
g14
S''
sg40
g598
sg18
S''
sg42
g599
sg19
S''
sg15
g598
sg28
Nsg44
g600
stRp1446
ag3
(g4
g5
(dp1447
g14
S''
sg40
g603
sg18
S''
sg42
g604
sg19
S''
sg15
g603
sg28
Nsg44
g605
stRp1448
ag3
(g4
g5
(dp1449
g14
S''
sg40
g608
sg18
S''
sg42
g609
sg19
S''
sg15
g608
sg28
Nsg44
g610
stRp1450
ag3
(g4
g5
(dp1451
g14
S''
sg40
g613
sg18
S''
sg42
g614
sg19
S''
sg15
g613
sg28
Nsg44
g615
stRp1452
ag3
(g4
g5
(dp1453
g14
S''
sg40
g618
sg18
S''
sg42
g619
sg19
S''
sg15
g618
sg28
Nsg44
g620
stRp1454
ag3
(g4
g5
(dp1455
g14
S''
sg40
g623
sg18
S''
sg42
g624
sg19
S''
sg15
g623
sg28
Nsg44
g625
stRp1456
ag3
(g4
g5
(dp1457
g14
S''
sg40
g628
sg18
S''
sg42
g629
sg19
S''
sg15
g628
sg28
Nsg44
g630
stRp1458
ag3
(g4
g5
(dp1459
g14
S''
sg40
g633
sg18
S''
sg42
g634
sg19
S''
sg15
g633
sg28
Nsg44
g635
stRp1460
ag3
(g4
g5
(dp1461
g14
S''
sg40
g638
sg18
S''
sg42
g639
sg19
S''
sg15
g638
sg28
Nsg44
g640
stRp1462
ag3
(g4
g5
(dp1463
g14
S''
sg40
g643
sg18
S''
sg42
g644
sg19
S''
sg15
g643
sg28
Nsg44
g645
stRp1464
ag3
(g4
g5
(dp1465
g14
S''
sg40
g648
sg18
S''
sg42
g649
sg19
S''
sg15
g648
sg28
Nsg44
g650
stRp1466
ag3
(g4
g5
(dp1467
g14
S''
sg40
g653
sg18
S''
sg42
g654
sg19
S''
sg15
g653
sg28
Nsg44
g655
stRp1468
ag3
(g4
g5
(dp1469
g14
S''
sg40
g658
sg18
S''
sg42
g659
sg19
S''
sg15
g658
sg28
Nsg44
g660
stRp1470
ag3
(g4
g5
(dp1471
g14
S''
sg40
g663
sg18
S''
sg42
g664
sg19
S''
sg15
g663
sg28
Nsg44
g665
stRp1472
ag3
(g4
g5
(dp1473
g14
S''
sg40
g668
sg18
S''
sg42
g669
sg19
S''
sg15
g668
sg28
Nsg44
g670
stRp1474
ag3
(g4
g5
(dp1475
g14
S''
sg40
g673
sg18
S''
sg42
g674
sg19
S''
sg15
g673
sg28
Nsg44
g675
stRp1476
atRp1477
sg98
g1429
sg99
S'9'
sg100
g101
sg44
S'Records for shelved open files'
p1478
sg42
S'Working'
p1479
sg104
S'31'
p1480
sg40
S'db.workingx'
p1481
stRp1482
sS'user'
p1483
g3
(g4
g5
(dp1484
g7
S'user'
p1485
sg9
g3
(g10
g11
(lp1486
g3
(g4
g5
(dp1487
g14
S''
sg15
g16
sg17
g16
sg18
S''
sg19
S''
sg20
g21
sg22
g23
stRp1488
ag3
(g4
g5
(dp1489
g14
S''
sg17
g26
sg18
S''
sg20
g27
sg19
S''
sg15
g26
sg28
Nsg22
g29
stRp1490
ag3
(g4
g5
(dp1491
g14
S''
sg17
g32
sg18
S''
sg20
g21
sg19
S''
sg15
g32
sg28
Nsg22
g33
stRp1492
ag3
(g4
g5
(dp1493
g14
S''
sg17
g36
sg18
S''
sg20
g27
sg19
S''
sg15
g36
sg28
Nsg22
g37
stRp1494
ag3
(g4
g5
(dp1495
g14
S''
sg40
S'user'
p1496
sg18
S''
sg42
S'User'
p1497
sg19
S''
sg15
g1496
sg28
Nsg44
S'The username'
p1498
stRp1499
ag3
(g4
g5
(dp1500
g14
S''
sg40
S'email'
p1501
sg18
S''
sg42
S'Text'
p1502
sg19
S''
sg15
g1501
sg28
Nsg44
S"The user's email address"
p1503
stRp1504
ag3
(g4
g5
(dp1505
g14
S''
sg40
S'jobView'
p1506
sg18
S''
sg42
S'Text'
p1507
sg19
S''
sg15
g1506
sg28
Nsg44
S"The user's job view"
p1508
stRp1509
ag3
(g4
g5
(dp1510
g14
S''
sg40
S'updateDate'
p1511
sg18
S''
sg42
S'Date'
p1512
sg19
S''
sg15
g1511
sg28
Nsg44
S'The date/time the user record was last updated'
p1513
stRp1514
ag3
(g4
g5
(dp1515
g14
S''
sg40
S'accessDate'
p1516
sg18
S''
sg42
S'Date'
p1517
sg19
S''
sg15
g1516
sg28
Nsg44
S'The date/time the user record was last used'
p1518
stRp1519
ag3
(g4
g5
(dp1520
g14
S''
sg40
S'fullName'
p1521
sg18
S''
sg42
S'Text'
p1522
sg19
S''
sg15
g1521
sg28
Nsg44
S"The user's full name"
p1523
stRp1524
ag3
(g4
g5
(dp1525
g14
S''
sg40
S'password'
p1526
sg18
S''
sg42
S'Password'
p1527
sg19
S''
sg15
g1526
sg28
Nsg44
S'The MD5 hash of the users (encrypted) password'
p1528
stRp1529
ag3
(g4
g5
(dp1530
g14
S''
sg40
S'strength'
p1531
sg18
S''
sg42
S'Strength'
p1532
sg19
S''
sg15
g1531
sg28
Nsg44
S"Measure of the strength of the user's password"
p1533
stRp1534
ag3
(g4
g5
(dp1535
g14
S''
sg40
S'ticket'
p1536
sg18
S''
sg42
S'Password'
p1537
sg19
S''
sg15
g1536
sg28
Nsg44
S"'p4 login' ticket for this user"
p1538
stRp1539
ag3
(g4
g5
(dp1540
g14
S''
sg40
S'endDate'
p1541
sg18
S''
sg42
S'Date'
p1542
sg19
S''
sg15
g1541
sg28
Nsg44
S"Date/time the user's ticket expires"
p1543
stRp1544
ag3
(g4
g5
(dp1545
g14
S''
sg40
S'type'
p1546
sg18
S''
sg42
S'UserLevel'
p1547
sg19
S''
sg15
g1546
sg28
Nsg44
S'Type of user'
p1548
stRp1549
ag3
(g4
g5
(dp1550
g14
S''
sg40
S'passwordChangeDate'
p1551
sg18
S''
sg42
S'Date'
p1552
sg19
S''
sg15
g1551
sg28
Nsg44
S'Date password was last changed'
p1553
stRp1554
atRp1555
sg98
g1483
sg99
S'4'
sg100
g101
sg44
S'Perforce users'
p1556
sg42
S'User'
p1557
sg104
S'5'
sg40
S'db.user'
p1558
stRp1559
sS'revsh'
p1560
g3
(g4
g5
(dp1561
g7
S'depotFile, depotRev, type, action, change'
p1562
sg9
g3
(g10
g11
(lp1563
g3
(g4
g5
(dp1564
g14
S''
sg15
g16
sg17
g16
sg18
S''
sg19
S''
sg20
g21
sg22
g23
stRp1565
ag3
(g4
g5
(dp1566
g14
S''
sg17
g26
sg18
S''
sg20
g27
sg19
S''
sg15
g26
sg28
Nsg22
g29
stRp1567
ag3
(g4
g5
(dp1568
g14
S''
sg17
g32
sg18
S''
sg20
g21
sg19
S''
sg15
g32
sg28
Nsg22
g33
stRp1569
ag3
(g4
g5
(dp1570
g14
S''
sg17
g36
sg18
S''
sg20
g27
sg19
S''
sg15
g36
sg28
Nsg22
g37
stRp1571
ag3
(g4
g5
(dp1572
g14
S''
sg40
g192
sg18
S''
sg42
g193
sg19
S''
sg15
g192
sg28
Nsg44
g194
stRp1573
ag3
(g4
g5
(dp1574
g14
S''
sg40
g197
sg18
S''
sg42
g198
sg19
S''
sg15
g197
sg28
Nsg44
g199
stRp1575
ag3
(g4
g5
(dp1576
g14
S''
sg40
g202
sg18
S''
sg42
g203
sg19
S''
sg15
g202
sg28
Nsg44
g204
stRp1577
ag3
(g4
g5
(dp1578
g14
S''
sg40
g207
sg18
S''
sg42
g208
sg19
S''
sg15
g207
sg28
Nsg44
g209
stRp1579
ag3
(g4
g5
(dp1580
g14
S''
sg40
g212
sg18
S''
sg42
g213
sg19
S''
sg15
g212
sg28
Nsg44
g214
stRp1581
ag3
(g4
g5
(dp1582
g14
S''
sg40
g217
sg18
S''
sg42
g218
sg19
S''
sg15
g217
sg28
Nsg44
g219
stRp1583
ag3
(g4
g5
(dp1584
g14
S''
sg40
g222
sg18
S''
sg42
g223
sg19
S''
sg15
g222
sg28
Nsg44
g224
stRp1585
ag3
(g4
g5
(dp1586
g14
S''
sg40
g227
sg18
S''
sg42
g228
sg19
S''
sg15
g227
sg28
Nsg44
g229
stRp1587
ag3
(g4
g5
(dp1588
g14
S''
sg40
g232
sg18
S''
sg42
g233
sg19
S''
sg15
g232
sg28
Nsg44
g234
stRp1589
ag3
(g4
g5
(dp1590
g14
S''
sg40
g237
sg18
S''
sg42
g238
sg19
S''
sg15
g237
sg28
Nsg44
g239
stRp1591
ag3
(g4
g5
(dp1592
g14
S''
sg40
g242
sg18
S''
sg42
g243
sg19
S''
sg15
g242
sg28
Nsg44
g244
stRp1593
ag3
(g4
g5
(dp1594
g14
S''
sg40
g247
sg18
S''
sg42
g248
sg19
S''
sg15
g247
sg28
Nsg44
g249
stRp1595
ag3
(g4
g5
(dp1596
g14
S''
sg40
g252
sg18
S''
sg42
g253
sg19
S''
sg15
g252
sg28
Nsg44
g254
stRp1597
ag3
(g4
g5
(dp1598
g14
S''
sg40
g257
sg18
S''
sg42
g258
sg19
S''
sg15
g257
sg28
Nsg44
g259
stRp1599
atRp1600
sg98
g1560
sg99
S'9'
sg100
g101
sg44
S'Revision records for shelved files.'
p1601
sg42
S'Rev'
p1602
sg104
S'28'
p1603
sg40
S'db.revsh'
p1604
stRp1605
sS'resolvex'
p1606
g3
(g4
g5
(dp1607
g7
S'toFile, fromFile, startFromRev'
p1608
sg9
g3
(g10
g11
(lp1609
g3
(g4
g5
(dp1610
g14
S''
sg15
g16
sg17
g16
sg18
S''
sg19
S''
sg20
g21
sg22
g23
stRp1611
ag3
(g4
g5
(dp1612
g14
S''
sg17
g26
sg18
S''
sg20
g27
sg19
S''
sg15
g26
sg28
Nsg22
g29
stRp1613
ag3
(g4
g5
(dp1614
g14
S''
sg17
g32
sg18
S''
sg20
g21
sg19
S''
sg15
g32
sg28
Nsg22
g33
stRp1615
ag3
(g4
g5
(dp1616
g14
S''
sg17
g36
sg18
S''
sg20
g27
sg19
S''
sg15
g36
sg28
Nsg22
g37
stRp1617
ag3
(g4
g5
(dp1618
g14
S''
sg40
S'toFile'
p1619
sg18
S''
sg42
S'File'
p1620
sg19
S''
sg15
g1619
sg28
Nsg44
S'File to which integration is being performed (target).'
p1621
stRp1622
ag3
(g4
g5
(dp1623
g14
S''
sg40
S'fromFile'
p1624
sg18
S''
sg42
S'File'
p1625
sg19
S''
sg15
g1624
sg28
Nsg44
S'File from which integration is being performed (source).'
p1626
stRp1627
ag3
(g4
g5
(dp1628
g14
S''
sg40
S'startFromRev'
p1629
sg18
S''
sg42
S'Rev'
p1630
sg19
S''
sg15
g1629
sg28
Nsg44
S'Starting revision of fromFile'
p1631
stRp1632
ag3
(g4
g5
(dp1633
g14
S''
sg40
S'endFromRev'
p1634
sg18
S''
sg42
S'Rev'
p1635
sg19
S''
sg15
g1634
sg28
Nsg44
S'Ending revision of fromFile. If integrating from a single \n\t\t    revision (not a revision range), the startFromRev and \n\t\t    endFromRev fields will be identical.'
p1636
stRp1637
ag3
(g4
g5
(dp1638
g14
S''
sg40
S'startToRev'
p1639
sg18
S''
sg42
S'Rev'
p1640
sg19
S''
sg15
g1639
sg28
Nsg44
S'Start revision of toFile into which integration was \n\t\t    performed.'
p1641
stRp1642
ag3
(g4
g5
(dp1643
g14
S''
sg40
S'endToRev'
p1644
sg18
S''
sg42
S'Rev'
p1645
sg19
S''
sg15
g1644
sg28
Nsg44
S'End revision of toFile into which integration was \n\t\t    performed. Only varies from startToRev for reverse \n\t\t    integration records.'
p1646
stRp1647
ag3
(g4
g5
(dp1648
g14
S''
sg40
S'how'
p1649
sg18
S''
sg42
S'IntegHow'
p1650
sg19
S''
sg15
g1649
sg28
Nsg44
S'Integration method: variations on \n\t\t    merge/branch/copy/ignore/delete.'
p1651
stRp1652
ag3
(g4
g5
(dp1653
g14
S''
sg40
S'state'
p1654
sg18
S''
sg42
S'ResolveState'
p1655
sg19
S''
sg15
g1654
sg28
Nsg44
S'How the user performed the resolve.'
p1656
stRp1657
ag3
(g4
g5
(dp1658
g14
S''
sg40
S'baseFile'
p1659
sg18
S''
sg42
S'File'
p1660
sg19
S''
sg15
g1659
sg28
Nsg44
S'File used as the base for merging.'
p1661
stRp1662
ag3
(g4
g5
(dp1663
g14
S''
sg40
S'baseRev'
p1664
sg18
S''
sg42
S'Rev'
p1665
sg19
S''
sg15
g1664
sg28
Nsg44
S'Revision of baseFile used as the merge base.'
p1666
stRp1667
atRp1668
sg98
g1606
sg40
S'db.resolvex'
p1669
sg99
S'1'
sg100
g101
sg1102
S'db.integed'
p1670
sg42
S'Resolve'
p1671
sg104
S'16'
p1672
sg44
S'Pending integration records for shelved files'
p1673
stRp1674
sS'archmap'
p1675
g3
(g4
g5
(dp1676
g7
S'lbrFile, depotFile'
p1677
sg9
g3
(g10
g11
(lp1678
g3
(g4
g5
(dp1679
g14
S''
sg15
g16
sg17
g16
sg18
S''
sg19
S''
sg20
g21
sg22
g23
stRp1680
ag3
(g4
g5
(dp1681
g14
S''
sg17
g26
sg18
S''
sg20
g27
sg19
S''
sg15
g26
sg28
Nsg22
g29
stRp1682
ag3
(g4
g5
(dp1683
g14
S''
sg17
g32
sg18
S''
sg20
g21
sg19
S''
sg15
g32
sg28
Nsg22
g33
stRp1684
ag3
(g4
g5
(dp1685
g14
S''
sg17
g36
sg18
S''
sg20
g27
sg19
S''
sg15
g36
sg28
Nsg22
g37
stRp1686
ag3
(g4
g5
(dp1687
g14
S''
sg40
S'lbrFile'
p1688
sg18
S''
sg42
S'File'
p1689
sg19
S''
sg15
g1688
sg28
Nsg44
S'Paths in the librarian namespace that recieve lazy\n\t\t    copies.'
p1690
stRp1691
ag3
(g4
g5
(dp1692
g14
S''
sg40
S'depotFile'
p1693
sg18
S''
sg42
S'File'
p1694
sg19
S''
sg15
g1693
sg28
Nsg44
S'Paths in the depot namespace that provide lazy copies.'
p1695
stRp1696
atRp1697
sg98
g1675
sg262
S'Supercedes db.archive'
p1698
sg99
S'0'
sg100
g101
sg44
S'Mappings entries for lazy-copies.'
p1699
sg42
S'ArchMap'
p1700
sg104
S'21'
p1701
sg40
S'db.archmap'
p1702
stRp1703
sS'change'
p1704
g3
(g4
g5
(dp1705
g7
S'change'
p1706
sg9
g3
(g10
g11
(lp1707
g3
(g4
g5
(dp1708
g14
S''
sg15
g16
sg17
g16
sg18
S''
sg19
S''
sg20
g21
sg22
g23
stRp1709
ag3
(g4
g5
(dp1710
g14
S''
sg17
g26
sg18
S''
sg20
g27
sg19
S''
sg15
g26
sg28
Nsg22
g29
stRp1711
ag3
(g4
g5
(dp1712
g14
S''
sg17
g32
sg18
S''
sg20
g21
sg19
S''
sg15
g32
sg28
Nsg22
g33
stRp1713
ag3
(g4
g5
(dp1714
g14
S''
sg17
g36
sg18
S''
sg20
g27
sg19
S''
sg15
g36
sg28
Nsg22
g37
stRp1715
ag3
(g4
g5
(dp1716
g14
S''
sg40
g1251
sg18
S''
sg42
g1252
sg19
S''
sg15
g1251
sg28
Nsg44
g1253
stRp1717
ag3
(g4
g5
(dp1718
g14
S''
sg40
g1256
sg18
S''
sg42
g1257
sg19
S''
sg15
g1256
sg28
Nsg44
g1258
stRp1719
ag3
(g4
g5
(dp1720
g14
S''
sg40
g1261
sg18
S''
sg42
g1262
sg19
S''
sg15
g1261
sg28
Nsg44
g1263
stRp1721
ag3
(g4
g5
(dp1722
g14
S''
sg40
g1266
sg18
S''
sg42
g1267
sg19
S''
sg15
g1266
sg28
Nsg44
g1268
stRp1723
ag3
(g4
g5
(dp1724
g14
S''
sg40
g1271
sg18
S''
sg42
g1272
sg19
S''
sg15
g1271
sg28
Nsg44
g1273
stRp1725
ag3
(g4
g5
(dp1726
g14
S''
sg40
g1276
sg18
S''
sg42
g1277
sg19
S''
sg15
g1276
sg28
Nsg44
g1278
stRp1727
ag3
(g4
g5
(dp1728
g14
S''
sg40
g1281
sg18
S''
sg42
g1282
sg19
S''
sg15
g1281
sg28
Nsg44
g1283
stRp1729
ag3
(g4
g5
(dp1730
g14
S''
sg40
g1286
sg18
S''
sg42
g1287
sg19
S''
sg15
g1286
sg28
Nsg44
g1288
stRp1731
atRp1732
sg98
g1704
sg99
S'2'
sg100
g101
sg44
S'Changelists'
p1733
sg42
S'Change'
p1734
sg104
S'34'
p1735
sg40
S'db.change'
p1736
stRp1737
sS'desc'
p1738
g3
(g4
g5
(dp1739
g7
S'descKey'
p1740
sg9
g3
(g10
g11
(lp1741
g3
(g4
g5
(dp1742
g14
S''
sg15
g16
sg17
g16
sg18
S''
sg19
S''
sg20
g21
sg22
g23
stRp1743
ag3
(g4
g5
(dp1744
g14
S''
sg17
g26
sg18
S''
sg20
g27
sg19
S''
sg15
g26
sg28
Nsg22
g29
stRp1745
ag3
(g4
g5
(dp1746
g14
S''
sg17
g32
sg18
S''
sg20
g21
sg19
S''
sg15
g32
sg28
Nsg22
g33
stRp1747
ag3
(g4
g5
(dp1748
g14
S''
sg17
g36
sg18
S''
sg20
g27
sg19
S''
sg15
g36
sg28
Nsg22
g37
stRp1749
ag3
(g4
g5
(dp1750
g14
S''
sg40
S'descKey'
p1751
sg18
S''
sg42
S'Change'
p1752
sg19
S''
sg15
g1751
sg28
Nsg44
S'Original number of the change to which this description\n\t\t    applies. This may differ from the final change number if\n\t\t    the change is renumbered on submission.'
p1753
stRp1754
ag3
(g4
g5
(dp1755
g14
S''
sg40
S'description'
p1756
sg18
S''
sg42
S'Text'
p1757
sg19
S''
sg15
g1756
sg28
Nsg44
S'The change description itself'
p1758
stRp1759
atRp1760
sg98
g1738
sg99
S'0'
sg100
g101
sg44
S'Change descriptions'
p1761
sg42
S'Desc'
p1762
sg104
S'36'
p1763
sg40
S'db.desc'
p1764
stRp1765
sS'protect'
p1766
g3
(g4
g5
(dp1767
g7
S'seq'
p1768
sg9
g3
(g10
g11
(lp1769
g3
(g4
g5
(dp1770
g14
S''
sg15
g16
sg17
g16
sg18
S''
sg19
S''
sg20
g21
sg22
g23
stRp1771
ag3
(g4
g5
(dp1772
g14
S''
sg17
g26
sg18
S''
sg20
g27
sg19
S''
sg15
g26
sg28
Nsg22
g29
stRp1773
ag3
(g4
g5
(dp1774
g14
S''
sg17
g32
sg18
S''
sg20
g21
sg19
S''
sg15
g32
sg28
Nsg22
g33
stRp1775
ag3
(g4
g5
(dp1776
g14
S''
sg17
g36
sg18
S''
sg20
g27
sg19
S''
sg15
g36
sg28
Nsg22
g37
stRp1777
ag3
(g4
g5
(dp1778
g14
S''
sg40
S'seq'
p1779
sg18
S''
sg42
S'Int'
p1780
sg19
S''
sg15
g1779
sg28
Nsg44
S'Sequence number: for ordering the protections table'
p1781
stRp1782
ag3
(g4
g5
(dp1783
g14
S''
sg40
S'isGroup'
p1784
sg18
S''
sg42
S'Int'
p1785
sg19
S''
sg15
g1784
sg28
Nsg44
S'Flag: 0 for a per-user setting, 1 for a per-group setting.'
p1786
stRp1787
ag3
(g4
g5
(dp1788
g14
S''
sg40
S'user'
p1789
sg18
S''
sg42
S'UserWild'
p1790
sg19
S''
sg15
g1789
sg28
Nsg44
S'User(s), or Group(s) for whom this record applies.'
p1791
stRp1792
ag3
(g4
g5
(dp1793
g14
S''
sg40
S'host'
p1794
sg18
S''
sg42
S'DomainWild'
p1795
sg19
S''
sg15
g1794
sg28
Nsg44
S'Domain(s) (IP addresses) for which this record applies.'
p1796
stRp1797
ag3
(g4
g5
(dp1798
g14
S''
sg40
S'perm'
p1799
sg18
S''
sg42
S'Perm'
p1800
sg19
S''
sg15
g1799
sg28
Nsg44
S'Permissions to be granted/revoked'
p1801
stRp1802
ag3
(g4
g5
(dp1803
g14
S''
sg40
S'mapFlag'
p1804
sg18
S''
sg42
S'MapFlag'
p1805
sg19
S''
sg15
g1804
sg28
Nsg44
S'Flag: Map the files in or out?'
p1806
stRp1807
ag3
(g4
g5
(dp1808
g14
S''
sg40
S'depotFile'
p1809
sg18
S''
sg42
S'Mapping'
p1810
sg19
S''
sg15
g1809
sg28
Nsg44
S'Files to be mapped in or out.'
p1811
stRp1812
atRp1813
sg98
g1766
sg99
S'4'
sg100
g101
sg44
S'The protections table'
p1814
sg42
S'Protect'
p1815
sg104
S'46'
p1816
sg40
S'db.protect'
p1817
stRp1818
sS'resolve'
p1819
g3
(g4
g5
(dp1820
g7
S'toFile, fromFile, startFromRev'
p1821
sg9
g3
(g10
g11
(lp1822
g3
(g4
g5
(dp1823
g14
S''
sg15
g16
sg17
g16
sg18
S''
sg19
S''
sg20
g21
sg22
g23
stRp1824
ag3
(g4
g5
(dp1825
g14
S''
sg17
g26
sg18
S''
sg20
g27
sg19
S''
sg15
g26
sg28
Nsg22
g29
stRp1826
ag3
(g4
g5
(dp1827
g14
S''
sg17
g32
sg18
S''
sg20
g21
sg19
S''
sg15
g32
sg28
Nsg22
g33
stRp1828
ag3
(g4
g5
(dp1829
g14
S''
sg17
g36
sg18
S''
sg20
g27
sg19
S''
sg15
g36
sg28
Nsg22
g37
stRp1830
ag3
(g4
g5
(dp1831
g14
S''
sg40
g1619
sg18
S''
sg42
g1620
sg19
S''
sg15
g1619
sg28
Nsg44
g1621
stRp1832
ag3
(g4
g5
(dp1833
g14
S''
sg40
g1624
sg18
S''
sg42
g1625
sg19
S''
sg15
g1624
sg28
Nsg44
g1626
stRp1834
ag3
(g4
g5
(dp1835
g14
S''
sg40
g1629
sg18
S''
sg42
g1630
sg19
S''
sg15
g1629
sg28
Nsg44
g1631
stRp1836
ag3
(g4
g5
(dp1837
g14
S''
sg40
g1634
sg18
S''
sg42
g1635
sg19
S''
sg15
g1634
sg28
Nsg44
g1636
stRp1838
ag3
(g4
g5
(dp1839
g14
S''
sg40
g1639
sg18
S''
sg42
g1640
sg19
S''
sg15
g1639
sg28
Nsg44
g1641
stRp1840
ag3
(g4
g5
(dp1841
g14
S''
sg40
g1644
sg18
S''
sg42
g1645
sg19
S''
sg15
g1644
sg28
Nsg44
g1646
stRp1842
ag3
(g4
g5
(dp1843
g14
S''
sg40
g1649
sg18
S''
sg42
g1650
sg19
S''
sg15
g1649
sg28
Nsg44
g1651
stRp1844
ag3
(g4
g5
(dp1845
g14
S''
sg40
g1654
sg18
S''
sg42
g1655
sg19
S''
sg15
g1654
sg28
Nsg44
g1656
stRp1846
ag3
(g4
g5
(dp1847
g14
S''
sg40
g1659
sg18
S''
sg42
g1660
sg19
S''
sg15
g1659
sg28
Nsg44
g1661
stRp1848
ag3
(g4
g5
(dp1849
g14
S''
sg40
g1664
sg18
S''
sg42
g1665
sg19
S''
sg15
g1664
sg28
Nsg44
g1666
stRp1850
atRp1851
sg98
g1819
sg40
S'db.resolve'
p1852
sg99
S'1'
sg100
g101
sg1102
S'db.integed'
p1853
sg42
S'Resolve'
p1854
sg104
S'15'
p1855
sg44
S'Pending integration records'
p1856
stRp1857
sS'locks'
p1858
g3
(g4
g5
(dp1859
g7
S'depotFile, client'
p1860
sg9
g3
(g10
g11
(lp1861
g3
(g4
g5
(dp1862
g14
S''
sg15
g16
sg17
g16
sg18
S''
sg19
S''
sg20
g21
sg22
g23
stRp1863
ag3
(g4
g5
(dp1864
g14
S''
sg17
g26
sg18
S''
sg20
g27
sg19
S''
sg15
g26
sg28
Nsg22
g29
stRp1865
ag3
(g4
g5
(dp1866
g14
S''
sg17
g32
sg18
S''
sg20
g21
sg19
S''
sg15
g32
sg28
Nsg22
g33
stRp1867
ag3
(g4
g5
(dp1868
g14
S''
sg17
g36
sg18
S''
sg20
g27
sg19
S''
sg15
g36
sg28
Nsg22
g37
stRp1869
ag3
(g4
g5
(dp1870
g14
S''
sg40
S'depotFile'
p1871
sg18
S''
sg42
S'File'
p1872
sg19
S''
sg15
g1871
sg28
Nsg44
S'File in depot'
p1873
stRp1874
ag3
(g4
g5
(dp1875
g14
S''
sg40
S'client'
p1876
sg18
S''
sg42
S'Domain'
p1877
sg19
S''
sg15
g1876
sg28
Nsg44
S'Domain (client) in which file is open'
p1878
stRp1879
ag3
(g4
g5
(dp1880
g14
S''
sg40
S'user'
p1881
sg18
S''
sg42
S'User'
p1882
sg19
S''
sg15
g1881
sg28
Nsg44
S'User who presently has the file open'
p1883
stRp1884
ag3
(g4
g5
(dp1885
g14
S''
sg40
S'action'
p1886
sg18
S''
sg42
S'Action'
p1887
sg19
S''
sg15
g1886
sg28
Nsg44
S'Action file is open for: add, edit, delete, branch,\n\t\t    integrate, or import'
p1888
stRp1889
ag3
(g4
g5
(dp1890
g14
S''
sg40
S'isLocked'
p1891
sg18
S''
sg42
S'Int'
p1892
sg19
S''
sg15
g1891
sg28
Nsg44
S'Flag: 0 for unlocked, 1 for locked'
p1893
stRp1894
ag3
(g4
g5
(dp1895
g14
S''
sg40
S'change'
p1896
sg18
S''
sg42
S'Int'
p1897
sg19
S''
sg15
g1896
sg28
Nsg44
S'Changelist in which the revision is open: 0 for the\n\t\t    default changelist'
p1898
stRp1899
atRp1900
sg98
g1858
sg99
S'2'
sg100
g101
sg44
S'Locked/Unlocked files'
p1901
sg42
S'Locks'
p1902
sg104
S'19'
p1903
sg40
S'db.locks'
p1904
stRp1905
sS'revhx'
p1906
g3
(g4
g5
(dp1907
g7
S'depotFile'
p1908
sg9
g3
(g10
g11
(lp1909
g3
(g4
g5
(dp1910
g14
S''
sg15
g16
sg17
g16
sg18
S''
sg19
S''
sg20
g21
sg22
g23
stRp1911
ag3
(g4
g5
(dp1912
g14
S''
sg17
g26
sg18
S''
sg20
g27
sg19
S''
sg15
g26
sg28
Nsg22
g29
stRp1913
ag3
(g4
g5
(dp1914
g14
S''
sg17
g32
sg18
S''
sg20
g21
sg19
S''
sg15
g32
sg28
Nsg22
g33
stRp1915
ag3
(g4
g5
(dp1916
g14
S''
sg17
g36
sg18
S''
sg20
g27
sg19
S''
sg15
g36
sg28
Nsg22
g37
stRp1917
ag3
(g4
g5
(dp1918
g14
S''
sg40
g192
sg18
S''
sg42
g193
sg19
S''
sg15
g192
sg28
Nsg44
g194
stRp1919
ag3
(g4
g5
(dp1920
g14
S''
sg40
g197
sg18
S''
sg42
g198
sg19
S''
sg15
g197
sg28
Nsg44
g199
stRp1921
ag3
(g4
g5
(dp1922
g14
S''
sg40
g202
sg18
S''
sg42
g203
sg19
S''
sg15
g202
sg28
Nsg44
g204
stRp1923
ag3
(g4
g5
(dp1924
g14
S''
sg40
g207
sg18
S''
sg42
g208
sg19
S''
sg15
g207
sg28
Nsg44
g209
stRp1925
ag3
(g4
g5
(dp1926
g14
S''
sg40
g212
sg18
S''
sg42
g213
sg19
S''
sg15
g212
sg28
Nsg44
g214
stRp1927
ag3
(g4
g5
(dp1928
g14
S''
sg40
g217
sg18
S''
sg42
g218
sg19
S''
sg15
g217
sg28
Nsg44
g219
stRp1929
ag3
(g4
g5
(dp1930
g14
S''
sg40
g222
sg18
S''
sg42
g223
sg19
S''
sg15
g222
sg28
Nsg44
g224
stRp1931
ag3
(g4
g5
(dp1932
g14
S''
sg40
g227
sg18
S''
sg42
g228
sg19
S''
sg15
g227
sg28
Nsg44
g229
stRp1933
ag3
(g4
g5
(dp1934
g14
S''
sg40
g232
sg18
S''
sg42
g233
sg19
S''
sg15
g232
sg28
Nsg44
g234
stRp1935
ag3
(g4
g5
(dp1936
g14
S''
sg40
g237
sg18
S''
sg42
g238
sg19
S''
sg15
g237
sg28
Nsg44
g239
stRp1937
ag3
(g4
g5
(dp1938
g14
S''
sg40
g242
sg18
S''
sg42
g243
sg19
S''
sg15
g242
sg28
Nsg44
g244
stRp1939
ag3
(g4
g5
(dp1940
g14
S''
sg40
g247
sg18
S''
sg42
g248
sg19
S''
sg15
g247
sg28
Nsg44
g249
stRp1941
ag3
(g4
g5
(dp1942
g14
S''
sg40
g252
sg18
S''
sg42
g253
sg19
S''
sg15
g252
sg28
Nsg44
g254
stRp1943
ag3
(g4
g5
(dp1944
g14
S''
sg40
g257
sg18
S''
sg42
g258
sg19
S''
sg15
g257
sg28
Nsg44
g259
stRp1945
atRp1946
sg98
g1906
sg99
S'9'
sg100
g101
sg44
S'Revision records for revisions NOT deleted at the head revision.'
p1947
sg42
S'Rev'
p1948
sg104
S'25'
p1949
sg40
S'db.revhx'
p1950
stRp1951
sS'integ'
p1952
g3
(g4
g5
(dp1953
g7
S'toFile, fromFile, startFromRev'
p1954
sg9
g3
(g10
g11
(lp1955
g3
(g4
g5
(dp1956
g14
S''
sg15
g16
sg17
g16
sg18
S''
sg19
S''
sg20
g21
sg22
g23
stRp1957
ag3
(g4
g5
(dp1958
g14
S''
sg17
g26
sg18
S''
sg20
g27
sg19
S''
sg15
g26
sg28
Nsg22
g29
stRp1959
ag3
(g4
g5
(dp1960
g14
S''
sg17
g32
sg18
S''
sg20
g21
sg19
S''
sg15
g32
sg28
Nsg22
g33
stRp1961
ag3
(g4
g5
(dp1962
g14
S''
sg17
g36
sg18
S''
sg20
g27
sg19
S''
sg15
g36
sg28
Nsg22
g37
stRp1963
ag3
(g4
g5
(dp1964
g14
S''
sg40
S'toFile'
p1965
sg18
S''
sg42
S'File'
p1966
sg19
S''
sg15
g1965
sg28
Nsg44
S'File to which integration is being performed (target).'
p1967
stRp1968
ag3
(g4
g5
(dp1969
g14
S''
sg40
S'fromFile'
p1970
sg18
S''
sg42
S'File'
p1971
sg19
S''
sg15
g1970
sg28
Nsg44
S'File from which integration is being performed (source).'
p1972
stRp1973
ag3
(g4
g5
(dp1974
g14
S''
sg40
S'startFromRev'
p1975
sg18
S''
sg42
S'Rev'
p1976
sg19
S''
sg15
g1975
sg28
Nsg44
S'Starting revision of fromFile'
p1977
stRp1978
ag3
(g4
g5
(dp1979
g14
S''
sg40
S'endFromRev'
p1980
sg18
S''
sg42
S'Rev'
p1981
sg19
S''
sg15
g1980
sg28
Nsg44
S'Ending revision of fromFile. If integrating from a single \n\t\t    revision (not a revision range), the startFromRev and \n\t\t    endFromRev fields will be identical.'
p1982
stRp1983
ag3
(g4
g5
(dp1984
g14
S''
sg40
S'toRev'
p1985
sg18
S''
sg42
S'Rev'
p1986
sg19
S''
sg15
g1985
sg28
Nsg44
S'Revision of toFile into which integration is being \n\t\t    performed.'
p1987
stRp1988
ag3
(g4
g5
(dp1989
g14
S''
sg40
S'how'
p1990
sg18
S''
sg42
S'IntegHow'
p1991
sg19
S''
sg15
g1990
sg28
Nsg44
S'Integration method: variations on \n\t\t    merge/branch/copy/ignore/delete.'
p1992
stRp1993
ag3
(g4
g5
(dp1994
g14
S''
sg40
S'committed'
p1995
sg18
S''
sg42
S'Int'
p1996
sg19
S''
sg15
g1995
sg28
Nsg44
S'Flag: 0 for pending, 1 for committed.'
p1997
stRp1998
ag3
(g4
g5
(dp1999
g14
S''
sg40
S'resolved'
p2000
sg18
S''
sg42
S'ResolvedStatus'
p2001
sg19
S''
sg15
g2000
sg28
Nsg44
S'Resolution method: unresolved, resolved manually, \n\t\t    or resolved as part of a branch or delete.'
p2002
stRp2003
ag3
(g4
g5
(dp2004
g14
S''
sg40
S'change'
p2005
sg18
S''
sg42
S'Change'
p2006
sg19
S''
sg15
g2005
sg28
Nsg44
S'Changelist associated with the integration.'
p2007
stRp2008
atRp2009
sg98
g1952
sg40
S'db.integ'
p2010
sg262
S'Obsoleted in 2001.1'
p2011
sg99
S'0'
sg100
g101
sg1102
g3
(g10
g11
(lp2012
S'db.integed'
p2013
aS'db.resolve'
p2014
atRp2015
sg42
S'Integ'
p2016
sg104
S'13'
p2017
sg44
S'Integration records: obsolete since 2001.1'
p2018
stRp2019
sS'ixdate'
p2020
g3
(g4
g5
(dp2021
g7
S'date, attr, value'
p2022
sg9
g3
(g10
g11
(lp2023
g3
(g4
g5
(dp2024
g14
S''
sg15
g16
sg17
g16
sg18
S''
sg19
S''
sg20
g21
sg22
g23
stRp2025
ag3
(g4
g5
(dp2026
g14
S''
sg17
g26
sg18
S''
sg20
g27
sg19
S''
sg15
g26
sg28
Nsg22
g29
stRp2027
ag3
(g4
g5
(dp2028
g14
S''
sg17
g32
sg18
S''
sg20
g21
sg19
S''
sg15
g32
sg28
Nsg22
g33
stRp2029
ag3
(g4
g5
(dp2030
g14
S''
sg17
g36
sg18
S''
sg20
g27
sg19
S''
sg15
g36
sg28
Nsg22
g37
stRp2031
ag3
(g4
g5
(dp2032
g14
S''
sg40
S'date'
p2033
sg18
S''
sg42
S'Date'
p2034
sg19
S''
sg15
g2033
sg28
Nsg44
S'Date value'
p2035
stRp2036
ag3
(g4
g5
(dp2037
g14
S''
sg40
S'attr'
p2038
sg18
S''
sg42
S'Int'
p2039
sg19
S''
sg15
g2038
sg28
Nsg44
S'The attribute number (from the jobspec) to which this\n\t\t    date belongs'
p2040
stRp2041
ag3
(g4
g5
(dp2042
g14
S''
sg40
S'value'
p2043
sg18
S''
sg42
S'String'
p2044
sg19
S''
sg15
g2043
sg28
Nsg44
S'A job name'
p2045
stRp2046
atRp2047
sg98
g2020
sg40
S'db.ixdate'
p2048
sg262
S'Obsoleted in 2009.2'
p2049
sg99
S'0'
sg100
g101
sg1102
S'db.ixtext'
p2050
sg42
S'IndexDate'
p2051
sg104
S'44'
p2052
sg44
S'Indexing data for date-valued job attributes: obsolete since 2009.2'
p2053
stRp2054
sS'userrp'
p2055
g3
(g4
g5
(dp2056
g7
S'user'
p2057
sg9
g3
(g10
g11
(lp2058
g3
(g4
g5
(dp2059
g14
S''
sg15
g16
sg17
g16
sg18
S''
sg19
S''
sg20
g21
sg22
g23
stRp2060
ag3
(g4
g5
(dp2061
g14
S''
sg17
g26
sg18
S''
sg20
g27
sg19
S''
sg15
g26
sg28
Nsg22
g29
stRp2062
ag3
(g4
g5
(dp2063
g14
S''
sg17
g32
sg18
S''
sg20
g21
sg19
S''
sg15
g32
sg28
Nsg22
g33
stRp2064
ag3
(g4
g5
(dp2065
g14
S''
sg17
g36
sg18
S''
sg20
g27
sg19
S''
sg15
g36
sg28
Nsg22
g37
stRp2066
ag3
(g4
g5
(dp2067
g14
S''
sg40
g1496
sg18
S''
sg42
g1497
sg19
S''
sg15
g1496
sg28
Nsg44
g1498
stRp2068
ag3
(g4
g5
(dp2069
g14
S''
sg40
g1501
sg18
S''
sg42
g1502
sg19
S''
sg15
g1501
sg28
Nsg44
g1503
stRp2070
ag3
(g4
g5
(dp2071
g14
S''
sg40
g1506
sg18
S''
sg42
g1507
sg19
S''
sg15
g1506
sg28
Nsg44
g1508
stRp2072
ag3
(g4
g5
(dp2073
g14
S''
sg40
g1511
sg18
S''
sg42
g1512
sg19
S''
sg15
g1511
sg28
Nsg44
g1513
stRp2074
ag3
(g4
g5
(dp2075
g14
S''
sg40
g1516
sg18
S''
sg42
g1517
sg19
S''
sg15
g1516
sg28
Nsg44
g1518
stRp2076
ag3
(g4
g5
(dp2077
g14
S''
sg40
g1521
sg18
S''
sg42
g1522
sg19
S''
sg15
g1521
sg28
Nsg44
g1523
stRp2078
ag3
(g4
g5
(dp2079
g14
S''
sg40
g1526
sg18
S''
sg42
g1527
sg19
S''
sg15
g1526
sg28
Nsg44
g1528
stRp2080
ag3
(g4
g5
(dp2081
g14
S''
sg40
g1531
sg18
S''
sg42
g1532
sg19
S''
sg15
g1531
sg28
Nsg44
g1533
stRp2082
ag3
(g4
g5
(dp2083
g14
S''
sg40
g1536
sg18
S''
sg42
g1537
sg19
S''
sg15
g1536
sg28
Nsg44
g1538
stRp2084
ag3
(g4
g5
(dp2085
g14
S''
sg40
g1541
sg18
S''
sg42
g1542
sg19
S''
sg15
g1541
sg28
Nsg44
g1543
stRp2086
ag3
(g4
g5
(dp2087
g14
S''
sg40
g1546
sg18
S''
sg42
g1547
sg19
S''
sg15
g1546
sg28
Nsg44
g1548
stRp2088
ag3
(g4
g5
(dp2089
g14
S''
sg40
g1551
sg18
S''
sg42
g1552
sg19
S''
sg15
g1551
sg28
Nsg44
g1553
stRp2090
atRp2091
sg98
g2055
sg99
S'4'
sg100
g101
sg44
S'Perforce users of a replica server'
p2092
sg42
S'User'
p2093
sg104
S'4'
sg40
S'db.user.rp'
p2094
stRp2095
sS'revcx'
p2096
g3
(g4
g5
(dp2097
g7
S'change, depotFile'
p2098
sg9
g3
(g10
g11
(lp2099
g3
(g4
g5
(dp2100
g14
S''
sg15
g16
sg17
g16
sg18
S''
sg19
S''
sg20
g21
sg22
g23
stRp2101
ag3
(g4
g5
(dp2102
g14
S''
sg17
g26
sg18
S''
sg20
g27
sg19
S''
sg15
g26
sg28
Nsg22
g29
stRp2103
ag3
(g4
g5
(dp2104
g14
S''
sg17
g32
sg18
S''
sg20
g21
sg19
S''
sg15
g32
sg28
Nsg22
g33
stRp2105
ag3
(g4
g5
(dp2106
g14
S''
sg17
g36
sg18
S''
sg20
g27
sg19
S''
sg15
g36
sg28
Nsg22
g37
stRp2107
ag3
(g4
g5
(dp2108
g14
S''
sg40
S'change'
p2109
sg18
S''
sg42
S'Change'
p2110
sg19
S''
sg15
g2109
sg28
Nsg44
S'The changelist that created the revision'
p2111
stRp2112
ag3
(g4
g5
(dp2113
g14
S''
sg40
S'depotFile'
p2114
sg18
S''
sg42
S'File'
p2115
sg19
S''
sg15
g2114
sg28
Nsg44
S'The file name'
p2116
stRp2117
ag3
(g4
g5
(dp2118
g14
S''
sg40
S'depotRev'
p2119
sg18
S''
sg42
S'Rev'
p2120
sg19
S''
sg15
g2119
sg28
Nsg44
S'The revision number'
p2121
stRp2122
ag3
(g4
g5
(dp2123
g14
S''
sg40
S'action'
p2124
sg18
S''
sg42
S'Action'
p2125
sg19
S''
sg15
g2124
sg28
Nsg44
S'The action that created the revision'
p2126
stRp2127
atRp2128
sg98
g2096
sg99
S'0'
sg100
g101
sg44
S'Secondary index of db.rev'
p2129
sg42
S'RevCx'
p2130
sg104
S'23'
p2131
sg40
S'db.revcx'
p2132
stRp2133
sS'counters'
p2134
g3
(g4
g5
(dp2135
g7
S'name'
p2136
sg9
g3
(g10
g11
(lp2137
g3
(g4
g5
(dp2138
g14
S''
sg15
g16
sg17
g16
sg18
S''
sg19
S''
sg20
g21
sg22
g23
stRp2139
ag3
(g4
g5
(dp2140
g14
S''
sg17
g26
sg18
S''
sg20
g27
sg19
S''
sg15
g26
sg28
Nsg22
g29
stRp2141
ag3
(g4
g5
(dp2142
g14
S''
sg17
g32
sg18
S''
sg20
g21
sg19
S''
sg15
g32
sg28
Nsg22
g33
stRp2143
ag3
(g4
g5
(dp2144
g14
S''
sg17
g36
sg18
S''
sg20
g27
sg19
S''
sg15
g36
sg28
Nsg22
g37
stRp2145
ag3
(g4
g5
(dp2146
g14
S''
sg40
S'name'
p2147
sg18
S''
sg42
S'Counter'
p2148
sg19
S''
sg15
g2147
sg28
Nsg44
S'Counter name'
p2149
stRp2150
ag3
(g4
g5
(dp2151
g14
S''
sg40
S'value'
p2152
sg18
S''
sg42
S'Value'
p2153
sg19
S''
sg15
g2152
sg28
Nsg44
S'Counter value'
p2154
stRp2155
atRp2156
sg98
g2134
sg99
S'1'
sg100
g101
sg44
S'Perforce counters table'
p2157
sg42
S'Counters'
p2158
sg104
S'2'
sg40
S'db.counters'
p2159
stRp2160
sS'boddate'
p2161
g3
(g4
g5
(dp2162
g7
S'key, attr'
p2163
sg9
g3
(g10
g11
(lp2164
g3
(g4
g5
(dp2165
g14
S''
sg15
g16
sg17
g16
sg18
S''
sg19
S''
sg20
g21
sg22
g23
stRp2166
ag3
(g4
g5
(dp2167
g14
S''
sg17
g26
sg18
S''
sg20
g27
sg19
S''
sg15
g26
sg28
Nsg22
g29
stRp2168
ag3
(g4
g5
(dp2169
g14
S''
sg17
g32
sg18
S''
sg20
g21
sg19
S''
sg15
g32
sg28
Nsg22
g33
stRp2170
ag3
(g4
g5
(dp2171
g14
S''
sg17
g36
sg18
S''
sg20
g27
sg19
S''
sg15
g36
sg28
Nsg22
g37
stRp2172
ag3
(g4
g5
(dp2173
g14
S''
sg40
S'key'
p2174
sg18
S''
sg42
S'String'
p2175
sg19
S''
sg15
g2174
sg28
Nsg44
S'The job to which this attribute belongs'
p2176
stRp2177
ag3
(g4
g5
(dp2178
g14
S''
sg40
S'attr'
p2179
sg18
S''
sg42
S'Int'
p2180
sg19
S''
sg15
g2179
sg28
Nsg44
S'The attribute number (from the jobspec) of this attribute'
p2181
stRp2182
ag3
(g4
g5
(dp2183
g14
S''
sg40
S'date'
p2184
sg18
S''
sg42
S'Date'
p2185
sg19
S''
sg15
g2184
sg28
Nsg44
S'The date value itself'
p2186
stRp2187
atRp2188
sg98
g2161
sg262
S'Obsoleted in 2009.2'
p2189
sg99
S'0'
sg100
g101
sg44
S'Job data for date-valued attributes: obsolete since 2009.2'
p2190
sg42
S'BodyDate'
p2191
sg104
S'42'
p2192
sg40
S'db.boddate'
p2193
stRp2194
sS'fix'
p2195
g3
(g4
g5
(dp2196
g7
S'job, change'
p2197
sg9
g3
(g10
g11
(lp2198
g3
(g4
g5
(dp2199
g14
S''
sg15
g16
sg17
g16
sg18
S''
sg19
S''
sg20
g21
sg22
g23
stRp2200
ag3
(g4
g5
(dp2201
g14
S''
sg17
g26
sg18
S''
sg20
g27
sg19
S''
sg15
g26
sg28
Nsg22
g29
stRp2202
ag3
(g4
g5
(dp2203
g14
S''
sg17
g32
sg18
S''
sg20
g21
sg19
S''
sg15
g32
sg28
Nsg22
g33
stRp2204
ag3
(g4
g5
(dp2205
g14
S''
sg17
g36
sg18
S''
sg20
g27
sg19
S''
sg15
g36
sg28
Nsg22
g37
stRp2206
ag3
(g4
g5
(dp2207
g14
S''
sg40
g1071
sg18
S''
sg42
g1072
sg19
S''
sg15
g1071
sg28
Nsg44
g1073
stRp2208
ag3
(g4
g5
(dp2209
g14
S''
sg40
g1076
sg18
S''
sg42
g1077
sg19
S''
sg15
g1076
sg28
Nsg44
g1078
stRp2210
ag3
(g4
g5
(dp2211
g14
S''
sg40
g1081
sg18
S''
sg42
g1082
sg19
S''
sg15
g1081
sg28
Nsg44
g1083
stRp2212
ag3
(g4
g5
(dp2213
g14
S''
sg40
g1086
sg18
S''
sg42
g1087
sg19
S''
sg15
g1086
sg28
Nsg44
g1088
stRp2214
ag3
(g4
g5
(dp2215
g14
S''
sg40
g1091
sg18
S''
sg42
g1092
sg19
S''
sg15
g1091
sg28
Nsg44
g1093
stRp2216
ag3
(g4
g5
(dp2217
g14
S''
sg40
g1096
sg18
S''
sg42
g1097
sg19
S''
sg15
g1096
sg28
Nsg44
g1098
stRp2218
atRp2219
sg98
g2195
sg40
S'db.fix'
p2220
sg99
S'1'
sg100
g101
sg1102
S'db.fixrev'
p2221
sg42
S'Fix'
p2222
sg104
S'40'
p2223
sg44
S'Fix records - indexed by job'
p2224
stRp2225
sS'view'
p2226
g3
(g4
g5
(dp2227
g7
S'name, seq'
p2228
sg9
g3
(g10
g11
(lp2229
g3
(g4
g5
(dp2230
g14
S''
sg15
g16
sg17
g16
sg18
S''
sg19
S''
sg20
g21
sg22
g23
stRp2231
ag3
(g4
g5
(dp2232
g14
S''
sg17
g26
sg18
S''
sg20
g27
sg19
S''
sg15
g26
sg28
Nsg22
g29
stRp2233
ag3
(g4
g5
(dp2234
g14
S''
sg17
g32
sg18
S''
sg20
g21
sg19
S''
sg15
g32
sg28
Nsg22
g33
stRp2235
ag3
(g4
g5
(dp2236
g14
S''
sg17
g36
sg18
S''
sg20
g27
sg19
S''
sg15
g36
sg28
Nsg22
g37
stRp2237
ag3
(g4
g5
(dp2238
g14
S''
sg40
S'name'
p2239
sg18
S''
sg42
S'Domain'
p2240
sg19
S''
sg15
g2239
sg28
Nsg44
S'Domain name to which this view applies'
p2241
stRp2242
ag3
(g4
g5
(dp2243
g14
S''
sg40
S'seq'
p2244
sg18
S''
sg42
S'Int'
p2245
sg19
S''
sg15
g2244
sg28
Nsg44
S'Sequence number: for ordering multi-line views'
p2246
stRp2247
ag3
(g4
g5
(dp2248
g14
S''
sg40
S'mapFlag'
p2249
sg18
S''
sg42
S'MapFlag'
p2250
sg19
S''
sg15
g2249
sg28
Nsg44
S'Type of mapping'
p2251
stRp2252
ag3
(g4
g5
(dp2253
g14
S''
sg40
S'viewFile'
p2254
sg18
S''
sg42
S'Mapping'
p2255
sg19
S''
sg15
g2254
sg28
Nsg44
S"The right-hand-side of the view. For clients, this is\n\t\t    the client-side, for labels it's the generated label \n\t\t    view. For branches, it's the target side of the branch\n\t\t    view."
p2256
stRp2257
ag3
(g4
g5
(dp2258
g14
S''
sg40
S'depotFile'
p2259
sg18
S''
sg42
S'Mapping'
p2260
sg19
S''
sg15
g2259
sg28
Nsg44
S'The left-hand-side of the view - a mapping to file(s)\n\t\t    in the depot.'
p2261
stRp2262
atRp2263
sg98
g2226
sg99
S'1'
sg100
g101
sg44
S'Contains views for domains'
p2264
sg42
S'View'
p2265
sg104
S'11'
p2266
sg40
S'db.view'
p2267
stRp2268
s.