(dp1
S'svrview'
p2
ccopy_reg
_reconstructor
p3
(clib.sqUtils
Storage
p4
c__builtin__
dict
p5
(dp6
S'keying'
p7
S'id, type, seq'
p8
sS'fields'
p9
g3
(clib.sqUtils
Lst
p10
c__builtin__
list
p11
(lp12
g3
(g4
g5
(dp13
S'comment'
p14
S''
sS'fieldname'
p15
S'id'
p16
sS'name'
p17
g16
sS'default'
p18
S''
sS'label'
p19
S''
sS'type'
p20
S'integer'
p21
sS'desc'
p22
S'Record number as read in'
p23
stRp24
ag3
(g4
g5
(dp25
g14
S''
sg17
S'db_action'
p26
sg18
S''
sg20
S'string'
p27
sg19
S''
sg15
g26
sS'requires'
p28
Nsg22
S'Operation on table'
p29
stRp30
ag3
(g4
g5
(dp31
g14
S''
sg17
S'table_revision'
p32
sg18
S''
sg20
g21
sg19
S''
sg15
g32
sg28
Nsg22
S'Revision of the p4 schema table'
p33
stRp34
ag3
(g4
g5
(dp35
g14
S''
sg17
S'table_name'
p36
sg18
S''
sg20
g27
sg19
S''
sg15
g36
sg28
Nsg22
S'Redundant... but this is the table name'
p37
stRp38
ag3
(g4
g5
(dp39
g14
S''
sS'name'
p40
S'id'
p41
sg18
S''
sS'type'
p42
S'Key'
p43
sg19
S''
sg15
g41
sg28
NsS'desc'
p44
S'Server name'
p45
stRp46
ag3
(g4
g5
(dp47
g14
S''
sg40
S'type'
p48
sg18
S''
sg42
S'SvrViewType'
p49
sg19
S''
sg15
g48
sg28
Nsg44
S'View type'
p50
stRp51
ag3
(g4
g5
(dp52
g14
S''
sg40
S'seq'
p53
sg18
S''
sg42
S'Int'
p54
sg19
S''
sg15
g53
sg28
Nsg44
S'Sequence (line) number'
p55
stRp56
ag3
(g4
g5
(dp57
g14
S''
sg40
S'mapFlag'
p58
sg18
S''
sg42
S'MapFlag'
p59
sg19
S''
sg15
g58
sg28
Nsg44
S'Type of mapping'
p60
stRp61
ag3
(g4
g5
(dp62
g14
S''
sg40
S'viewFile'
p63
sg18
S''
sg42
S'Mapping'
p64
sg19
S''
sg15
g63
sg28
Nsg44
S'View file'
p65
stRp66
atRp67
sS'tablename'
p68
g2
sS'version'
p69
S'0'
sS'schemaversion'
p70
S'2019.2'
p71
sg44
S'View data for servers specifications'
p72
sg42
S'SvrView'
p73
sS'lockseq'
p74
S'10'
p75
sg40
S'db.svrview'
p76
stRp77
sS'rev'
p78
g3
(g4
g5
(dp79
g7
S'depotFile, depotRev'
p80
sg9
g3
(g10
g11
(lp81
g3
(g4
g5
(dp82
g14
S''
sg15
g16
sg17
g16
sg18
S''
sg19
S''
sg20
g21
sg22
g23
stRp83
ag3
(g4
g5
(dp84
g14
S''
sg17
g26
sg18
S''
sg20
g27
sg19
S''
sg15
g26
sg28
Nsg22
g29
stRp85
ag3
(g4
g5
(dp86
g14
S''
sg17
g32
sg18
S''
sg20
g21
sg19
S''
sg15
g32
sg28
Nsg22
g33
stRp87
ag3
(g4
g5
(dp88
g14
S''
sg17
g36
sg18
S''
sg20
g27
sg19
S''
sg15
g36
sg28
Nsg22
g37
stRp89
ag3
(g4
g5
(dp90
g14
S''
sg40
S'depotFile'
p91
sg18
S''
sg42
S'File'
p92
sg19
S''
sg15
g91
sg28
Nsg44
S'The file name'
p93
stRp94
ag3
(g4
g5
(dp95
g14
S''
sg40
S'depotRev'
p96
sg18
S''
sg42
S'Rev'
p97
sg19
S''
sg15
g96
sg28
Nsg44
S'The revision number'
p98
stRp99
ag3
(g4
g5
(dp100
g14
S''
sg40
S'type'
p101
sg18
S''
sg42
S'FileType'
p102
sg19
S''
sg15
g101
sg28
Nsg44
S'The file type of the revision'
p103
stRp104
ag3
(g4
g5
(dp105
g14
S''
sg40
S'action'
p106
sg18
S''
sg42
S'Action'
p107
sg19
S''
sg15
g106
sg28
Nsg44
S'The action that created the revision'
p108
stRp109
ag3
(g4
g5
(dp110
g14
S''
sg40
S'change'
p111
sg18
S''
sg42
S'Change'
p112
sg19
S''
sg15
g111
sg28
Nsg44
S'The changelist that created the revision'
p113
stRp114
ag3
(g4
g5
(dp115
g14
S''
sg40
S'date'
p116
sg18
S''
sg42
S'Date'
p117
sg19
S''
sg15
g116
sg28
Nsg44
S'The date/time the changelist that created the revision\n\t\t    was submitted'
p118
stRp119
ag3
(g4
g5
(dp120
g14
S''
sg40
S'modTime'
p121
sg18
S''
sg42
S'Date'
p122
sg19
S''
sg15
g121
sg28
Nsg44
S"The timestamp on the file in the user's workspace when\n\t\t    the revision was submitted."
p123
stRp124
ag3
(g4
g5
(dp125
g14
S''
sg40
S'digest'
p126
sg18
S''
sg42
S'Digest'
p127
sg19
S''
sg15
g126
sg28
Nsg44
S'The MD5 digest of the revision.'
p128
stRp129
ag3
(g4
g5
(dp130
g14
S''
sg40
S'size'
p131
sg18
S''
sg42
S'FileSize'
p132
sg19
S''
sg15
g131
sg28
Nsg44
S'The size of the file in bytes'
p133
stRp134
ag3
(g4
g5
(dp135
g14
S''
sg40
S'traitLot'
p136
sg18
S''
sg42
S'TraitLot'
p137
sg19
S''
sg15
g136
sg28
Nsg44
S'Group of traits (attributes) associated with the revision.'
p138
stRp139
ag3
(g4
g5
(dp140
g14
S''
sg40
S'lbrIsLazy'
p141
sg18
S''
sg42
S'RevStatus'
p142
sg19
S''
sg15
g141
sg28
Nsg44
S'Specifies whether or not the revision gets its content from \n\t  \t    another file (lazy copy), data about promotion of revision\n\t \t    content from task streams, and data about revision charset \n            information.'
p143
stRp144
ag3
(g4
g5
(dp145
g14
S''
sg40
S'lbrFile'
p146
sg18
S''
sg42
S'File'
p147
sg19
S''
sg15
g146
sg28
Nsg44
S"Filename for librarian's purposes.  Specifies location in \n\t\t    the archives where the file containing the revision may\n\t\t    be found. Usually the same as depotFile, but differs in\n\t\t    the case of branched/copied revisions."
p148
stRp149
ag3
(g4
g5
(dp150
g14
S''
sg40
S'lbrRev'
p151
sg18
S''
sg42
S'String'
p152
sg19
S''
sg15
g151
sg28
Nsg44
S'The revision of lbrFile that contains the revision content.'
p153
stRp154
ag3
(g4
g5
(dp155
g14
S''
sg40
S'lbrType'
p156
sg18
S''
sg42
S'FileType'
p157
sg19
S''
sg15
g156
sg28
Nsg44
S'The file type of the librarian revision. Usually the same\n\t\t    as type, but differs in the case of branched/copied \n\t\t    revisions.'
p158
stRp159
atRp160
sg68
g78
sg69
S'9'
sg70
g71
sg44
S'Revision records'
p161
sg42
S'Rev'
p162
sg74
S'56'
p163
sg40
S'db.rev'
p164
stRp165
sS'revpx'
p166
g3
(g4
g5
(dp167
g7
S'depotFile, depotRev'
p168
sg9
g3
(g10
g11
(lp169
g3
(g4
g5
(dp170
g14
S''
sg15
g16
sg17
g16
sg18
S''
sg19
S''
sg20
g21
sg22
g23
stRp171
ag3
(g4
g5
(dp172
g14
S''
sg17
g26
sg18
S''
sg20
g27
sg19
S''
sg15
g26
sg28
Nsg22
g29
stRp173
ag3
(g4
g5
(dp174
g14
S''
sg17
g32
sg18
S''
sg20
g21
sg19
S''
sg15
g32
sg28
Nsg22
g33
stRp175
ag3
(g4
g5
(dp176
g14
S''
sg17
g36
sg18
S''
sg20
g27
sg19
S''
sg15
g36
sg28
Nsg22
g37
stRp177
ag3
(g4
g5
(dp178
g14
S''
sg40
g91
sg18
S''
sg42
g92
sg19
S''
sg15
g91
sg28
Nsg44
g93
stRp179
ag3
(g4
g5
(dp180
g14
S''
sg40
g96
sg18
S''
sg42
g97
sg19
S''
sg15
g96
sg28
Nsg44
g98
stRp181
ag3
(g4
g5
(dp182
g14
S''
sg40
g101
sg18
S''
sg42
g102
sg19
S''
sg15
g101
sg28
Nsg44
g103
stRp183
ag3
(g4
g5
(dp184
g14
S''
sg40
g106
sg18
S''
sg42
g107
sg19
S''
sg15
g106
sg28
Nsg44
g108
stRp185
ag3
(g4
g5
(dp186
g14
S''
sg40
g111
sg18
S''
sg42
g112
sg19
S''
sg15
g111
sg28
Nsg44
g113
stRp187
ag3
(g4
g5
(dp188
g14
S''
sg40
g116
sg18
S''
sg42
g117
sg19
S''
sg15
g116
sg28
Nsg44
g118
stRp189
ag3
(g4
g5
(dp190
g14
S''
sg40
g121
sg18
S''
sg42
g122
sg19
S''
sg15
g121
sg28
Nsg44
g123
stRp191
ag3
(g4
g5
(dp192
g14
S''
sg40
g126
sg18
S''
sg42
g127
sg19
S''
sg15
g126
sg28
Nsg44
g128
stRp193
ag3
(g4
g5
(dp194
g14
S''
sg40
g131
sg18
S''
sg42
g132
sg19
S''
sg15
g131
sg28
Nsg44
g133
stRp195
ag3
(g4
g5
(dp196
g14
S''
sg40
g136
sg18
S''
sg42
g137
sg19
S''
sg15
g136
sg28
Nsg44
g138
stRp197
ag3
(g4
g5
(dp198
g14
S''
sg40
g141
sg18
S''
sg42
g142
sg19
S''
sg15
g141
sg28
Nsg44
g143
stRp199
ag3
(g4
g5
(dp200
g14
S''
sg40
g146
sg18
S''
sg42
g147
sg19
S''
sg15
g146
sg28
Nsg44
g148
stRp201
ag3
(g4
g5
(dp202
g14
S''
sg40
g151
sg18
S''
sg42
g152
sg19
S''
sg15
g151
sg28
Nsg44
g153
stRp203
ag3
(g4
g5
(dp204
g14
S''
sg40
g156
sg18
S''
sg42
g157
sg19
S''
sg15
g156
sg28
Nsg44
g158
stRp205
atRp206
sg68
g166
sS'note'
p207
S'Only populated during content trigger execution to allow\n\t\t\ttriggers access to the revisions being submitted.'
p208
sg69
S'9'
sg70
g71
sg44
S'Pending revision records'
p209
sg42
S'Rev'
p210
sg74
S'50'
p211
sg40
S'db.revpx'
p212
stRp213
sS'bodtextcx'
p214
g3
(g4
g5
(dp215
g7
S'type, key, change, attr'
p216
sg9
g3
(g10
g11
(lp217
g3
(g4
g5
(dp218
g14
S''
sg15
g16
sg17
g16
sg18
S''
sg19
S''
sg20
g21
sg22
g23
stRp219
ag3
(g4
g5
(dp220
g14
S''
sg17
g26
sg18
S''
sg20
g27
sg19
S''
sg15
g26
sg28
Nsg22
g29
stRp221
ag3
(g4
g5
(dp222
g14
S''
sg17
g32
sg18
S''
sg20
g21
sg19
S''
sg15
g32
sg28
Nsg22
g33
stRp223
ag3
(g4
g5
(dp224
g14
S''
sg17
g36
sg18
S''
sg20
g27
sg19
S''
sg15
g36
sg28
Nsg22
g37
stRp225
ag3
(g4
g5
(dp226
g14
S''
sg40
S'type'
p227
sg18
S''
sg42
S'Int'
p228
sg19
S''
sg15
g227
sg28
Nsg44
S'The type of spec'
p229
stRp230
ag3
(g4
g5
(dp231
g14
S''
sg40
S'key'
p232
sg18
S''
sg42
S'Key'
p233
sg19
S''
sg15
g232
sg28
Nsg44
S'The spec to which this attribute belongs'
p234
stRp235
ag3
(g4
g5
(dp236
g14
S''
sg40
S'change'
p237
sg18
S''
sg42
S'Change'
p238
sg19
S''
sg15
g237
sg28
Nsg44
S'The change to which this attribute belongs'
p239
stRp240
ag3
(g4
g5
(dp241
g14
S''
sg40
S'attr'
p242
sg18
S''
sg42
S'Int'
p243
sg19
S''
sg15
g242
sg28
Nsg44
S'The attribute number of this attribute'
p244
stRp245
ag3
(g4
g5
(dp246
g14
S''
sg40
S'text'
p247
sg18
S''
sg42
S'Text'
p248
sg19
S''
sg15
g247
sg28
Nsg44
S'The attribute value'
p249
stRp250
atRp251
sg68
g214
sg69
S'0'
sg70
g71
sg44
S'Versioned openable spec fields'
p252
sg42
S'BodyTextCx'
p253
sg74
S'89'
p254
sg40
S'db.bodtextcx'
p255
stRp256
sS'revtx'
p257
g3
(g4
g5
(dp258
g7
S'depotFile, depotRev'
p259
sg9
g3
(g10
g11
(lp260
g3
(g4
g5
(dp261
g14
S''
sg15
g16
sg17
g16
sg18
S''
sg19
S''
sg20
g21
sg22
g23
stRp262
ag3
(g4
g5
(dp263
g14
S''
sg17
g26
sg18
S''
sg20
g27
sg19
S''
sg15
g26
sg28
Nsg22
g29
stRp264
ag3
(g4
g5
(dp265
g14
S''
sg17
g32
sg18
S''
sg20
g21
sg19
S''
sg15
g32
sg28
Nsg22
g33
stRp266
ag3
(g4
g5
(dp267
g14
S''
sg17
g36
sg18
S''
sg20
g27
sg19
S''
sg15
g36
sg28
Nsg22
g37
stRp268
ag3
(g4
g5
(dp269
g14
S''
sg40
g91
sg18
S''
sg42
g92
sg19
S''
sg15
g91
sg28
Nsg44
g93
stRp270
ag3
(g4
g5
(dp271
g14
S''
sg40
g96
sg18
S''
sg42
g97
sg19
S''
sg15
g96
sg28
Nsg44
g98
stRp272
ag3
(g4
g5
(dp273
g14
S''
sg40
g101
sg18
S''
sg42
g102
sg19
S''
sg15
g101
sg28
Nsg44
g103
stRp274
ag3
(g4
g5
(dp275
g14
S''
sg40
g106
sg18
S''
sg42
g107
sg19
S''
sg15
g106
sg28
Nsg44
g108
stRp276
ag3
(g4
g5
(dp277
g14
S''
sg40
g111
sg18
S''
sg42
g112
sg19
S''
sg15
g111
sg28
Nsg44
g113
stRp278
ag3
(g4
g5
(dp279
g14
S''
sg40
g116
sg18
S''
sg42
g117
sg19
S''
sg15
g116
sg28
Nsg44
g118
stRp280
ag3
(g4
g5
(dp281
g14
S''
sg40
g121
sg18
S''
sg42
g122
sg19
S''
sg15
g121
sg28
Nsg44
g123
stRp282
ag3
(g4
g5
(dp283
g14
S''
sg40
g126
sg18
S''
sg42
g127
sg19
S''
sg15
g126
sg28
Nsg44
g128
stRp284
ag3
(g4
g5
(dp285
g14
S''
sg40
g131
sg18
S''
sg42
g132
sg19
S''
sg15
g131
sg28
Nsg44
g133
stRp286
ag3
(g4
g5
(dp287
g14
S''
sg40
g136
sg18
S''
sg42
g137
sg19
S''
sg15
g136
sg28
Nsg44
g138
stRp288
ag3
(g4
g5
(dp289
g14
S''
sg40
g141
sg18
S''
sg42
g142
sg19
S''
sg15
g141
sg28
Nsg44
g143
stRp290
ag3
(g4
g5
(dp291
g14
S''
sg40
g146
sg18
S''
sg42
g147
sg19
S''
sg15
g146
sg28
Nsg44
g148
stRp292
ag3
(g4
g5
(dp293
g14
S''
sg40
g151
sg18
S''
sg42
g152
sg19
S''
sg15
g151
sg28
Nsg44
g153
stRp294
ag3
(g4
g5
(dp295
g14
S''
sg40
g156
sg18
S''
sg42
g157
sg19
S''
sg15
g156
sg28
Nsg44
g158
stRp296
atRp297
sg68
g257
sg69
S'9'
sg70
g71
sg44
S'Task stream revision records'
p298
sg42
S'Rev'
p299
sg74
S'57'
p300
sg40
S'db.revtx'
p301
stRp302
sS'upgrades'
p303
g3
(g4
g5
(dp304
g7
S'seq'
p305
sg9
g3
(g10
g11
(lp306
g3
(g4
g5
(dp307
g14
S''
sg15
g16
sg17
g16
sg18
S''
sg19
S''
sg20
g21
sg22
g23
stRp308
ag3
(g4
g5
(dp309
g14
S''
sg17
g26
sg18
S''
sg20
g27
sg19
S''
sg15
g26
sg28
Nsg22
g29
stRp310
ag3
(g4
g5
(dp311
g14
S''
sg17
g32
sg18
S''
sg20
g21
sg19
S''
sg15
g32
sg28
Nsg22
g33
stRp312
ag3
(g4
g5
(dp313
g14
S''
sg17
g36
sg18
S''
sg20
g27
sg19
S''
sg15
g36
sg28
Nsg22
g37
stRp314
ag3
(g4
g5
(dp315
g14
S''
sg40
S'seq'
p316
sg18
S''
sg42
S'Int'
p317
sg19
S''
sg15
g316
sg28
Nsg44
S'Sequence'
p318
stRp319
ag3
(g4
g5
(dp320
g14
S''
sg40
S'name'
p321
sg18
S''
sg42
S'Text'
p322
sg19
S''
sg15
g321
sg28
Nsg44
S'name of upgrade'
p323
stRp324
ag3
(g4
g5
(dp325
g14
S''
sg40
S'state'
p326
sg18
S''
sg42
S'UpgradeState'
p327
sg19
S''
sg15
g326
sg28
Nsg44
S'current state'
p328
stRp329
ag3
(g4
g5
(dp330
g14
S''
sg40
S'startdate'
p331
sg18
S''
sg42
S'Date'
p332
sg19
S''
sg15
g331
sg28
Nsg44
S'upgrade started'
p333
stRp334
ag3
(g4
g5
(dp335
g14
S''
sg40
S'enddate'
p336
sg18
S''
sg42
S'Date'
p337
sg19
S''
sg15
g336
sg28
Nsg44
S'upgrade ended'
p338
stRp339
ag3
(g4
g5
(dp340
g14
S''
sg40
S'info'
p341
sg18
S''
sg42
S'Text'
p342
sg19
S''
sg15
g341
sg28
Nsg44
S'optional information specific to the upgrade step'
p343
stRp344
atRp345
sg68
g303
sg69
S'0'
sg70
g71
sg44
S'Store server upgrade info'
p346
sg42
S'Upgrades'
p347
sg74
S'6'
sg40
S'db.upgrades'
p348
stRp349
sS'ixtext'
p350
g3
(g4
g5
(dp351
g7
S'word, attr, value'
p352
sg9
g3
(g10
g11
(lp353
g3
(g4
g5
(dp354
g14
S''
sg15
g16
sg17
g16
sg18
S''
sg19
S''
sg20
g21
sg22
g23
stRp355
ag3
(g4
g5
(dp356
g14
S''
sg17
g26
sg18
S''
sg20
g27
sg19
S''
sg15
g26
sg28
Nsg22
g29
stRp357
ag3
(g4
g5
(dp358
g14
S''
sg17
g32
sg18
S''
sg20
g21
sg19
S''
sg15
g32
sg28
Nsg22
g33
stRp359
ag3
(g4
g5
(dp360
g14
S''
sg17
g36
sg18
S''
sg20
g27
sg19
S''
sg15
g36
sg28
Nsg22
g37
stRp361
ag3
(g4
g5
(dp362
g14
S''
sg40
S'word'
p363
sg18
S''
sg42
S'Key'
p364
sg19
S''
sg15
g363
sg28
Nsg44
S'The word being indexed'
p365
stRp366
ag3
(g4
g5
(dp367
g14
S''
sg40
S'attr'
p368
sg18
S''
sg42
S'Int'
p369
sg19
S''
sg15
g368
sg28
Nsg44
S'The attribute number to which this word belongs. For\n\t\t    job data, the attribute number from the jobspec.'
p370
stRp371
ag3
(g4
g5
(dp372
g14
S''
sg40
S'value'
p373
sg18
S''
sg42
S'Key'
p374
sg19
S''
sg15
g373
sg28
Nsg44
S'For job data, a job name. For generic data, the value\n\t\t    of the index keyed by the word.'
p375
stRp376
atRp377
sg68
g350
sg69
S'0'
sg70
g71
sg44
S'Indexing data for generic and job attributes'
p378
sg42
S'IndexText'
p379
sg74
S'94'
p380
sg40
S'db.ixtext'
p381
stRp382
sS'rmtview'
p383
g3
(g4
g5
(dp384
g7
S'id, seq'
p385
sg9
g3
(g10
g11
(lp386
g3
(g4
g5
(dp387
g14
S''
sg15
g16
sg17
g16
sg18
S''
sg19
S''
sg20
g21
sg22
g23
stRp388
ag3
(g4
g5
(dp389
g14
S''
sg17
g26
sg18
S''
sg20
g27
sg19
S''
sg15
g26
sg28
Nsg22
g29
stRp390
ag3
(g4
g5
(dp391
g14
S''
sg17
g32
sg18
S''
sg20
g21
sg19
S''
sg15
g32
sg28
Nsg22
g33
stRp392
ag3
(g4
g5
(dp393
g14
S''
sg17
g36
sg18
S''
sg20
g27
sg19
S''
sg15
g36
sg28
Nsg22
g37
stRp394
ag3
(g4
g5
(dp395
g14
S''
sg40
S'id'
p396
sg18
S''
sg42
S'RemoteID'
p397
sg19
S''
sg15
g396
sg28
Nsg44
S'Remote name'
p398
stRp399
ag3
(g4
g5
(dp400
g14
S''
sg40
S'seq'
p401
sg18
S''
sg42
S'Int'
p402
sg19
S''
sg15
g401
sg28
Nsg44
S'Sequence number: for ordering multi-line views'
p403
stRp404
ag3
(g4
g5
(dp405
g14
S''
sg40
S'mapFlag'
p406
sg18
S''
sg42
S'MapFlag'
p407
sg19
S''
sg15
g406
sg28
Nsg44
S'Type of mapping'
p408
stRp409
ag3
(g4
g5
(dp410
g14
S''
sg40
S'localFile'
p411
sg18
S''
sg42
S'Mapping'
p412
sg19
S''
sg15
g411
sg28
Nsg44
S'Local file'
p413
stRp414
ag3
(g4
g5
(dp415
g14
S''
sg40
S'remoteFile'
p416
sg18
S''
sg42
S'Mapping'
p417
sg19
S''
sg15
g416
sg28
Nsg44
S'Remote file'
p418
stRp419
ag3
(g4
g5
(dp420
g14
S''
sg40
S'retain'
p421
sg18
S''
sg42
S'Int'
p422
sg19
S''
sg15
g421
sg28
Nsg44
S'ArchiveLimits'
p423
stRp424
atRp425
sg68
g383
sg69
S'1'
sg70
g71
sg44
S'View data for remote specifications'
p426
sg42
S'RmtView'
p427
sg74
S'12'
p428
sg40
S'db.rmtview'
p429
stRp430
sS'message'
p431
g3
(g4
g5
(dp432
g7
S'language, id'
p433
sg9
g3
(g10
g11
(lp434
g3
(g4
g5
(dp435
g14
S''
sg15
g16
sg17
g16
sg18
S''
sg19
S''
sg20
g21
sg22
g23
stRp436
ag3
(g4
g5
(dp437
g14
S''
sg17
g26
sg18
S''
sg20
g27
sg19
S''
sg15
g26
sg28
Nsg22
g29
stRp438
ag3
(g4
g5
(dp439
g14
S''
sg17
g32
sg18
S''
sg20
g21
sg19
S''
sg15
g32
sg28
Nsg22
g33
stRp440
ag3
(g4
g5
(dp441
g14
S''
sg17
g36
sg18
S''
sg20
g27
sg19
S''
sg15
g36
sg28
Nsg22
g37
stRp442
ag3
(g4
g5
(dp443
g14
S''
sg40
S'language'
p444
sg18
S''
sg42
S'Key'
p445
sg19
S''
sg15
g444
sg28
Nsg44
S'The language for which this message applies'
p446
stRp447
ag3
(g4
g5
(dp448
g14
S''
sg40
S'id'
p449
sg18
S''
sg42
S'Int'
p450
sg19
S''
sg15
g449
sg28
Nsg44
S'The message number'
p451
stRp452
ag3
(g4
g5
(dp453
g14
S''
sg40
S'message'
p454
sg18
S''
sg42
S'String'
p455
sg19
S''
sg15
g454
sg28
Nsg44
S'The message text'
p456
stRp457
atRp458
sg68
g431
sg69
S'0'
sg70
g71
sg44
S'System messages'
p459
sg42
S'Message'
p460
sg74
S'99'
p461
sg40
S'db.message'
p462
stRp463
sS'ticket'
p464
g3
(g4
g5
(dp465
g7
S'user, host'
p466
sg9
g3
(g10
g11
(lp467
g3
(g4
g5
(dp468
g14
S''
sg15
g16
sg17
g16
sg18
S''
sg19
S''
sg20
g21
sg22
g23
stRp469
ag3
(g4
g5
(dp470
g14
S''
sg17
g26
sg18
S''
sg20
g27
sg19
S''
sg15
g26
sg28
Nsg22
g29
stRp471
ag3
(g4
g5
(dp472
g14
S''
sg17
g32
sg18
S''
sg20
g21
sg19
S''
sg15
g32
sg28
Nsg22
g33
stRp473
ag3
(g4
g5
(dp474
g14
S''
sg17
g36
sg18
S''
sg20
g27
sg19
S''
sg15
g36
sg28
Nsg22
g37
stRp475
ag3
(g4
g5
(dp476
g14
S''
sg40
S'user'
p477
sg18
S''
sg42
S'User'
p478
sg19
S''
sg15
g477
sg28
Nsg44
S'User the ticket was issued for'
p479
stRp480
ag3
(g4
g5
(dp481
g14
S''
sg40
S'host'
p482
sg18
S''
sg42
S'Key'
p483
sg19
S''
sg15
g482
sg28
Nsg44
S'Host the ticket was issued for'
p484
stRp485
ag3
(g4
g5
(dp486
g14
S''
sg40
S'ticket'
p487
sg18
S''
sg42
S'Password'
p488
sg19
S''
sg15
g487
sg28
Nsg44
S"The 'p4 login' ticket for this user"
p489
stRp490
ag3
(g4
g5
(dp491
g14
S''
sg40
S'state'
p492
sg18
S''
sg42
S'2FAState'
p493
sg19
S''
sg15
g492
sg28
Nsg44
S'The state of 2 Factor Authentication'
p494
stRp495
ag3
(g4
g5
(dp496
g14
S''
sg40
S'token'
p497
sg18
S''
sg42
S'String'
p498
sg19
S''
sg15
g497
sg28
Nsg44
S'The 2 Factor Authentication token'
p499
stRp500
ag3
(g4
g5
(dp501
g14
S''
sg40
S'updateDate'
p502
sg18
S''
sg42
S'Date'
p503
sg19
S''
sg15
g502
sg28
Nsg44
S'The date of the last ticket update'
p504
stRp505
atRp506
sg68
g464
sg69
S'0'
sg70
g71
sg44
S'Second factor authentication state on a per user/host basis'
p507
sg42
S'Ticket'
p508
sg74
S'17'
p509
sg40
S'db.ticket'
p510
stRp511
sS'bodtext'
p512
g3
(g4
g5
(dp513
g7
S'key, attr'
p514
sg9
g3
(g10
g11
(lp515
g3
(g4
g5
(dp516
g14
S''
sg15
g16
sg17
g16
sg18
S''
sg19
S''
sg20
g21
sg22
g23
stRp517
ag3
(g4
g5
(dp518
g14
S''
sg17
g26
sg18
S''
sg20
g27
sg19
S''
sg15
g26
sg28
Nsg22
g29
stRp519
ag3
(g4
g5
(dp520
g14
S''
sg17
g32
sg18
S''
sg20
g21
sg19
S''
sg15
g32
sg28
Nsg22
g33
stRp521
ag3
(g4
g5
(dp522
g14
S''
sg17
g36
sg18
S''
sg20
g27
sg19
S''
sg15
g36
sg28
Nsg22
g37
stRp523
ag3
(g4
g5
(dp524
g14
S''
sg40
S'key'
p525
sg18
S''
sg42
S'Key'
p526
sg19
S''
sg15
g525
sg28
Nsg44
S'The job to which this attribute belongs'
p527
stRp528
ag3
(g4
g5
(dp529
g14
S''
sg40
S'attr'
p530
sg18
S''
sg42
S'Int'
p531
sg19
S''
sg15
g530
sg28
Nsg44
S'The attribute number (from the jobspec) of this attribute'
p532
stRp533
ag3
(g4
g5
(dp534
g14
S''
sg40
S'isBulk'
p535
sg18
S''
sg42
S'Int'
p536
sg19
S''
sg15
g535
sg28
Nsg44
S'Indicates whether (1), or not (0) the field is a bulk\n\t\t    text field that should not be indexed.'
p537
stRp538
ag3
(g4
g5
(dp539
g14
S''
sg40
S'text'
p540
sg18
S''
sg42
S'Text'
p541
sg19
S''
sg15
g540
sg28
Nsg44
S'The attribute value'
p542
stRp543
atRp544
sg68
g512
sg69
S'1'
sg70
g71
sg44
S'Job data for job attributes'
p545
sg42
S'BodyText'
p546
sg74
S'88'
p547
sg40
S'db.bodtext'
p548
stRp549
sS'havept'
p550
g3
(g4
g5
(dp551
g7
S'clientFile'
p552
sg9
g3
(g10
g11
(lp553
g3
(g4
g5
(dp554
g14
S''
sg15
g16
sg17
g16
sg18
S''
sg19
S''
sg20
g21
sg22
g23
stRp555
ag3
(g4
g5
(dp556
g14
S''
sg17
g26
sg18
S''
sg20
g27
sg19
S''
sg15
g26
sg28
Nsg22
g29
stRp557
ag3
(g4
g5
(dp558
g14
S''
sg17
g32
sg18
S''
sg20
g21
sg19
S''
sg15
g32
sg28
Nsg22
g33
stRp559
ag3
(g4
g5
(dp560
g14
S''
sg17
g36
sg18
S''
sg20
g27
sg19
S''
sg15
g36
sg28
Nsg22
g37
stRp561
ag3
(g4
g5
(dp562
g14
S''
sg40
S'clientFile'
p563
sg18
S''
sg42
S'File'
p564
sg19
S''
sg15
g563
sg28
Nsg44
S'The file in its location on the client'
p565
stRp566
ag3
(g4
g5
(dp567
g14
S''
sg40
S'depotFile'
p568
sg18
S''
sg42
S'File'
p569
sg19
S''
sg15
g568
sg28
Nsg44
S'The file in the depot'
p570
stRp571
ag3
(g4
g5
(dp572
g14
S''
sg40
S'haveRev'
p573
sg18
S''
sg42
S'Rev'
p574
sg19
S''
sg15
g573
sg28
Nsg44
S'The revision synced to the client'
p575
stRp576
ag3
(g4
g5
(dp577
g14
S''
sg40
S'type'
p578
sg18
S''
sg42
S'FileType'
p579
sg19
S''
sg15
g578
sg28
Nsg44
S'The filetype of the synced file'
p580
stRp581
ag3
(g4
g5
(dp582
g14
S''
sg40
S'time'
p583
sg18
S''
sg42
S'Date'
p584
sg19
S''
sg15
g583
sg28
Nsg44
S'The sync time of the synced revision'
p585
stRp586
atRp587
sg68
g550
sg69
S'3'
sg70
g71
sg44
S'Placeholder for read-only clients'
p588
sg42
S'Have'
p589
sg74
S'33'
p590
sg40
S'db.have.pt'
p591
stRp592
sS'submodule'
p593
g3
(g4
g5
(dp594
g7
S'repo, path'
p595
sg9
g3
(g10
g11
(lp596
g3
(g4
g5
(dp597
g14
S''
sg15
g16
sg17
g16
sg18
S''
sg19
S''
sg20
g21
sg22
g23
stRp598
ag3
(g4
g5
(dp599
g14
S''
sg17
g26
sg18
S''
sg20
g27
sg19
S''
sg15
g26
sg28
Nsg22
g29
stRp600
ag3
(g4
g5
(dp601
g14
S''
sg17
g32
sg18
S''
sg20
g21
sg19
S''
sg15
g32
sg28
Nsg22
g33
stRp602
ag3
(g4
g5
(dp603
g14
S''
sg17
g36
sg18
S''
sg20
g27
sg19
S''
sg15
g36
sg28
Nsg22
g37
stRp604
ag3
(g4
g5
(dp605
g14
S''
sg40
S'repo'
p606
sg18
S''
sg42
S'Key'
p607
sg19
S''
sg15
g606
sg28
Nsg44
S'Repository name'
p608
stRp609
ag3
(g4
g5
(dp610
g14
S''
sg40
S'path'
p611
sg18
S''
sg42
S'Key'
p612
sg19
S''
sg15
g611
sg28
Nsg44
S'Path at which the submodule is linked'
p613
stRp614
ag3
(g4
g5
(dp615
g14
S''
sg40
S'subrepo'
p616
sg18
S''
sg42
S'Key'
p617
sg19
S''
sg15
g616
sg28
Nsg44
S'Submodule repository name'
p618
stRp619
atRp620
sg68
g593
sg69
S'0'
sg70
g71
sg44
S'Submodule configuration data'
p621
sg42
S'Submodule'
p622
sg74
S'80'
p623
sg40
S'db.submodule'
p624
stRp625
sS'group'
p626
g3
(g4
g5
(dp627
g7
S'user, group'
p628
sg9
g3
(g10
g11
(lp629
g3
(g4
g5
(dp630
g14
S''
sg15
g16
sg17
g16
sg18
S''
sg19
S''
sg20
g21
sg22
g23
stRp631
ag3
(g4
g5
(dp632
g14
S''
sg17
g26
sg18
S''
sg20
g27
sg19
S''
sg15
g26
sg28
Nsg22
g29
stRp633
ag3
(g4
g5
(dp634
g14
S''
sg17
g32
sg18
S''
sg20
g21
sg19
S''
sg15
g32
sg28
Nsg22
g33
stRp635
ag3
(g4
g5
(dp636
g14
S''
sg17
g36
sg18
S''
sg20
g27
sg19
S''
sg15
g36
sg28
Nsg22
g37
stRp637
ag3
(g4
g5
(dp638
g14
S''
sg40
S'user'
p639
sg18
S''
sg42
S'User'
p640
sg19
S''
sg15
g639
sg28
Nsg44
S'User name'
p641
stRp642
ag3
(g4
g5
(dp643
g14
S''
sg40
S'group'
p644
sg18
S''
sg42
S'User'
p645
sg19
S''
sg15
g644
sg28
Nsg44
S'Group name'
p646
stRp647
ag3
(g4
g5
(dp648
g14
S''
sg40
S'type'
p649
sg18
S''
sg42
S'UserType'
p650
sg19
S''
sg15
g649
sg28
Nsg44
S'Type of user in this group.'
p651
stRp652
ag3
(g4
g5
(dp653
g14
S''
sg40
S'maxResults'
p654
sg18
S''
sg42
S'MaxResults'
p655
sg19
S''
sg15
g654
sg28
Nsg44
S'MaxResults setting for the group.'
p656
stRp657
ag3
(g4
g5
(dp658
g14
S''
sg40
S'maxScanRows'
p659
sg18
S''
sg42
S'MaxScanRows'
p660
sg19
S''
sg15
g659
sg28
Nsg44
S'MaxScanRows setting for the group.'
p661
stRp662
ag3
(g4
g5
(dp663
g14
S''
sg40
S'maxLockTime'
p664
sg18
S''
sg42
S'MaxLockTime'
p665
sg19
S''
sg15
g664
sg28
Nsg44
S'MaxLockTime setting for the group.'
p666
stRp667
ag3
(g4
g5
(dp668
g14
S''
sg40
S'maxOpenFiles'
p669
sg18
S''
sg42
S'MaxOpenFiles'
p670
sg19
S''
sg15
g669
sg28
Nsg44
S'MaxOpenFiles setting for the group.'
p671
stRp672
ag3
(g4
g5
(dp673
g14
S''
sg40
S'timeout'
p674
sg18
S''
sg42
S'Int'
p675
sg19
S''
sg15
g674
sg28
Nsg44
S'Length of time (in seconds) a login ticket remains valid.'
p676
stRp677
ag3
(g4
g5
(dp678
g14
S''
sg40
S'passwordTimeout'
p679
sg18
S''
sg42
S'Int'
p680
sg19
S''
sg15
g679
sg28
Nsg44
S'Length of time (in seconds) a password remains valid for users in the group.'
p681
stRp682
atRp683
sg68
g626
sg69
S'9'
sg70
g71
sg44
S'Group specifications'
p684
sg42
S'Group'
p685
sg74
S'18'
p686
sg40
S'db.group'
p687
stRp688
sS'monitor'
p689
g3
(g4
g5
(dp690
g7
S'id'
p691
sg9
g3
(g10
g11
(lp692
g3
(g4
g5
(dp693
g14
S''
sg15
g16
sg17
g16
sg18
S''
sg19
S''
sg20
g21
sg22
g23
stRp694
ag3
(g4
g5
(dp695
g14
S''
sg17
g26
sg18
S''
sg20
g27
sg19
S''
sg15
g26
sg28
Nsg22
g29
stRp696
ag3
(g4
g5
(dp697
g14
S''
sg17
g32
sg18
S''
sg20
g21
sg19
S''
sg15
g32
sg28
Nsg22
g33
stRp698
ag3
(g4
g5
(dp699
g14
S''
sg17
g36
sg18
S''
sg20
g27
sg19
S''
sg15
g36
sg28
Nsg22
g37
stRp700
ag3
(g4
g5
(dp701
g14
S''
sg40
S'id'
p702
sg18
S''
sg42
S'Int'
p703
sg19
S''
sg15
g702
sg28
Nsg44
S'Thread/process id'
p704
stRp705
ag3
(g4
g5
(dp706
g14
S''
sg40
S'user'
p707
sg18
S''
sg42
S'User'
p708
sg19
S''
sg15
g707
sg28
Nsg44
S'Username of the user running the command'
p709
stRp710
ag3
(g4
g5
(dp711
g14
S''
sg40
S'function'
p712
sg18
S''
sg42
S'String'
p713
sg19
S''
sg15
g712
sg28
Nsg44
S'The command being executed.'
p714
stRp715
ag3
(g4
g5
(dp716
g14
S''
sg40
S'args'
p717
sg18
S''
sg42
S'String'
p718
sg19
S''
sg15
g717
sg28
Nsg44
S'Arguments passed to the command'
p719
stRp720
ag3
(g4
g5
(dp721
g14
S''
sg40
S'startDate'
p722
sg18
S''
sg42
S'Date'
p723
sg19
S''
sg15
g722
sg28
Nsg44
S'The date and time the command started'
p724
stRp725
ag3
(g4
g5
(dp726
g14
S''
sg40
S'runstate'
p727
sg18
S''
sg42
S'Int'
p728
sg19
S''
sg15
g727
sg28
Nsg44
S'Flag: 0 for running, 1 for terminated, 2 for paused'
p729
stRp730
ag3
(g4
g5
(dp731
g14
S''
sg40
S'client'
p732
sg18
S''
sg42
S'Domain'
p733
sg19
S''
sg15
g732
sg28
Nsg44
S'The client workspace'
p734
stRp735
ag3
(g4
g5
(dp736
g14
S''
sg40
S'host'
p737
sg18
S''
sg42
S'Text'
p738
sg19
S''
sg15
g737
sg28
Nsg44
S'The IP address of the client'
p739
stRp740
ag3
(g4
g5
(dp741
g14
S''
sg40
S'prog'
p742
sg18
S''
sg42
S'Text'
p743
sg19
S''
sg15
g742
sg28
Nsg44
S'The name (and version) of the client program'
p744
stRp745
ag3
(g4
g5
(dp746
g14
S''
sg40
S'lockInfo'
p747
sg18
S''
sg42
S'Text'
p748
sg19
S''
sg15
g747
sg28
Nsg44
S'Table locking information for command'
p749
stRp750
atRp751
sg68
g689
sg69
S'2'
sg70
g71
sg44
S'Helix Server process information'
p752
sg42
S'Monitor'
p753
sg74
S'103'
p754
sg40
S'db.monitor'
p755
stRp756
sS'working'
p757
g3
(g4
g5
(dp758
g7
S'clientFile'
p759
sg9
g3
(g10
g11
(lp760
g3
(g4
g5
(dp761
g14
S''
sg15
g16
sg17
g16
sg18
S''
sg19
S''
sg20
g21
sg22
g23
stRp762
ag3
(g4
g5
(dp763
g14
S''
sg17
g26
sg18
S''
sg20
g27
sg19
S''
sg15
g26
sg28
Nsg22
g29
stRp764
ag3
(g4
g5
(dp765
g14
S''
sg17
g32
sg18
S''
sg20
g21
sg19
S''
sg15
g32
sg28
Nsg22
g33
stRp766
ag3
(g4
g5
(dp767
g14
S''
sg17
g36
sg18
S''
sg20
g27
sg19
S''
sg15
g36
sg28
Nsg22
g37
stRp768
ag3
(g4
g5
(dp769
g14
S''
sg40
S'clientFile'
p770
sg18
S''
sg42
S'File'
p771
sg19
S''
sg15
g770
sg28
Nsg44
S'File on the client'
p772
stRp773
ag3
(g4
g5
(dp774
g14
S''
sg40
S'depotFile'
p775
sg18
S''
sg42
S'File'
p776
sg19
S''
sg15
g775
sg28
Nsg44
S'File in the depot'
p777
stRp778
ag3
(g4
g5
(dp779
g14
S''
sg40
S'client'
p780
sg18
S''
sg42
S'Domain'
p781
sg19
S''
sg15
g780
sg28
Nsg44
S'The client the file is opened on'
p782
stRp783
ag3
(g4
g5
(dp784
g14
S''
sg40
S'user'
p785
sg18
S''
sg42
S'User'
p786
sg19
S''
sg15
g785
sg28
Nsg44
S'The user who has the file opened'
p787
stRp788
ag3
(g4
g5
(dp789
g14
S''
sg40
S'haveRev'
p790
sg18
S''
sg42
S'Rev'
p791
sg19
S''
sg15
g790
sg28
Nsg44
S"Revision presently in user's client workspace"
p792
stRp793
ag3
(g4
g5
(dp794
g14
S''
sg40
S'workRev'
p795
sg18
S''
sg42
S'Rev'
p796
sg19
S''
sg15
g795
sg28
Nsg44
S'Working revision; normally identical to the haveRev'
p797
stRp798
ag3
(g4
g5
(dp799
g14
S''
sg40
S'isVirtual'
p800
sg18
S''
sg42
S'Int'
p801
sg19
S''
sg15
g800
sg28
Nsg44
S'Flag: if 1, file was opened with "p4 integ -v".'
p802
stRp803
ag3
(g4
g5
(dp804
g14
S''
sg40
S'type'
p805
sg18
S''
sg42
S'FileType'
p806
sg19
S''
sg15
g805
sg28
Nsg44
S'File type'
p807
stRp808
ag3
(g4
g5
(dp809
g14
S''
sg40
S'action'
p810
sg18
S''
sg42
S'Action'
p811
sg19
S''
sg15
g810
sg28
Nsg44
S"What the user's doing with the file"
p812
stRp813
ag3
(g4
g5
(dp814
g14
S''
sg40
S'change'
p815
sg18
S''
sg42
S'Change'
p816
sg19
S''
sg15
g815
sg28
Nsg44
S'Associated changelist, or zero for the default changelist.'
p817
stRp818
ag3
(g4
g5
(dp819
g14
S''
sg40
S'modTime'
p820
sg18
S''
sg42
S'Date'
p821
sg19
S''
sg15
g820
sg28
Nsg44
S"Modification timestamp on the file in the user's workspace."
p822
stRp823
ag3
(g4
g5
(dp824
g14
S''
sg40
S'isLocked'
p825
sg18
S''
sg42
S'Int'
p826
sg19
S''
sg15
g825
sg28
Nsg44
S'Flag: 0 for unlocked, 1 for locked.'
p827
stRp828
ag3
(g4
g5
(dp829
g14
S''
sg40
S'digest'
p830
sg18
S''
sg42
S'Digest'
p831
sg19
S''
sg15
g830
sg28
Nsg44
S'MD5 digest of working file.'
p832
stRp833
ag3
(g4
g5
(dp834
g14
S''
sg40
S'size'
p835
sg18
S''
sg42
S'FileSize'
p836
sg19
S''
sg15
g835
sg28
Nsg44
S'File size'
p837
stRp838
ag3
(g4
g5
(dp839
g14
S''
sg40
S'traitLot'
p840
sg18
S''
sg42
S'TraitLot'
p841
sg19
S''
sg15
g840
sg28
Nsg44
S'Group of traits associated with file revision.'
p842
stRp843
ag3
(g4
g5
(dp844
g14
S''
sg40
S'tampered'
p845
sg18
S''
sg42
S'TamperCheck'
p846
sg19
S''
sg15
g845
sg28
Nsg44
S'Flag indicating the tamper-state of the file in the\n\t\t    workspace.'
p847
stRp848
ag3
(g4
g5
(dp849
g14
S''
sg40
S'clientType'
p850
sg18
S''
sg42
S'FileType'
p851
sg19
S''
sg15
g850
sg28
Nsg44
S'Type of the file in the client workspace.'
p852
stRp853
ag3
(g4
g5
(dp854
g14
S''
sg40
S'movedFile'
p855
sg18
S''
sg42
S'File'
p856
sg19
S''
sg15
g855
sg28
Nsg44
S'Moved from filename'
p857
stRp858
ag3
(g4
g5
(dp859
g14
S''
sg40
S'status'
p860
sg18
S''
sg42
S'WorkStatus'
p861
sg19
S''
sg15
g860
sg28
Nsg44
S'Working status'
p862
stRp863
atRp864
sg68
g757
sg69
S'10'
p865
sg70
g71
sg44
S'Records for work in progress'
p866
sg42
S'Working'
p867
sg74
S'61'
p868
sg40
S'db.working'
p869
stRp870
sS'fix'
p871
g3
(g4
g5
(dp872
g7
S'job, change'
p873
sg9
g3
(g10
g11
(lp874
g3
(g4
g5
(dp875
g14
S''
sg15
g16
sg17
g16
sg18
S''
sg19
S''
sg20
g21
sg22
g23
stRp876
ag3
(g4
g5
(dp877
g14
S''
sg17
g26
sg18
S''
sg20
g27
sg19
S''
sg15
g26
sg28
Nsg22
g29
stRp878
ag3
(g4
g5
(dp879
g14
S''
sg17
g32
sg18
S''
sg20
g21
sg19
S''
sg15
g32
sg28
Nsg22
g33
stRp880
ag3
(g4
g5
(dp881
g14
S''
sg17
g36
sg18
S''
sg20
g27
sg19
S''
sg15
g36
sg28
Nsg22
g37
stRp882
ag3
(g4
g5
(dp883
g14
S''
sg40
S'job'
p884
sg18
S''
sg42
S'Key'
p885
sg19
S''
sg15
g884
sg28
Nsg44
S'Job name'
p886
stRp887
ag3
(g4
g5
(dp888
g14
S''
sg40
S'change'
p889
sg18
S''
sg42
S'Change'
p890
sg19
S''
sg15
g889
sg28
Nsg44
S'Changelist number'
p891
stRp892
ag3
(g4
g5
(dp893
g14
S''
sg40
S'date'
p894
sg18
S''
sg42
S'Date'
p895
sg19
S''
sg15
g894
sg28
Nsg44
S'Date fix was recorded (may differ from date change was\n\t\t    submitted).'
p896
stRp897
ag3
(g4
g5
(dp898
g14
S''
sg40
S'status'
p899
sg18
S''
sg42
S'FixStatus'
p900
sg19
S''
sg15
g899
sg28
Nsg44
S'Status of the job'
p901
stRp902
ag3
(g4
g5
(dp903
g14
S''
sg40
S'client'
p904
sg18
S''
sg42
S'Domain'
p905
sg19
S''
sg15
g904
sg28
Nsg44
S'The client where the fix originated'
p906
stRp907
ag3
(g4
g5
(dp908
g14
S''
sg40
S'user'
p909
sg18
S''
sg42
S'User'
p910
sg19
S''
sg15
g909
sg28
Nsg44
S'The user who fixed the job'
p911
stRp912
atRp913
sg68
g871
sg40
S'db.fix'
p914
sg69
S'1'
sg70
g71
sS'seeAlso'
p915
S'db.fixrev'
p916
sg42
S'Fix'
p917
sg74
S'85'
p918
sg44
S'Fix records - indexed by job'
p919
stRp920
sS'tiny'
p921
g3
(g4
g5
(dp922
g7
S'key'
p923
sg9
g3
(g10
g11
(lp924
g3
(g4
g5
(dp925
g14
S''
sg15
g16
sg17
g16
sg18
S''
sg19
S''
sg20
g21
sg22
g23
stRp926
ag3
(g4
g5
(dp927
g14
S''
sg17
g26
sg18
S''
sg20
g27
sg19
S''
sg15
g26
sg28
Nsg22
g29
stRp928
ag3
(g4
g5
(dp929
g14
S''
sg17
g32
sg18
S''
sg20
g21
sg19
S''
sg15
g32
sg28
Nsg22
g33
stRp930
ag3
(g4
g5
(dp931
g14
S''
sg17
g36
sg18
S''
sg20
g27
sg19
S''
sg15
g36
sg28
Nsg22
g37
stRp932
ag3
(g4
g5
(dp933
g14
S''
sg40
S'key'
p934
sg18
S''
sg42
S'Key'
p935
sg19
S''
sg15
g934
sg28
Nsg44
S'The file name and revision'
p936
stRp937
ag3
(g4
g5
(dp938
g14
S''
sg40
S'value'
p939
sg18
S''
sg42
S'Octet String'
p940
sg19
S''
sg15
g939
sg28
Nsg44
S'The (encoded) file content'
p941
stRp942
atRp943
sg68
g921
sg69
S'0'
sg70
g71
sg44
S'Records content data for tiny files using the +T file type modifier'
p944
sg42
S'TinyDb'
p945
sg40
S'tiny.db'
p946
stRp947
sS'groupx'
p948
g3
(g4
g5
(dp949
g7
S'group'
p950
sg9
g3
(g10
g11
(lp951
g3
(g4
g5
(dp952
g14
S''
sg15
g16
sg17
g16
sg18
S''
sg19
S''
sg20
g21
sg22
g23
stRp953
ag3
(g4
g5
(dp954
g14
S''
sg17
g26
sg18
S''
sg20
g27
sg19
S''
sg15
g26
sg28
Nsg22
g29
stRp955
ag3
(g4
g5
(dp956
g14
S''
sg17
g32
sg18
S''
sg20
g21
sg19
S''
sg15
g32
sg28
Nsg22
g33
stRp957
ag3
(g4
g5
(dp958
g14
S''
sg17
g36
sg18
S''
sg20
g27
sg19
S''
sg15
g36
sg28
Nsg22
g37
stRp959
ag3
(g4
g5
(dp960
g14
S''
sg40
S'group'
p961
sg18
S''
sg42
S'User'
p962
sg19
S''
sg15
g961
sg28
Nsg44
S'Group name'
p963
stRp964
ag3
(g4
g5
(dp965
g14
S''
sg40
S'ldapConf'
p966
sg18
S''
sg42
S'String'
p967
sg19
S''
sg15
g966
sg28
Nsg44
S"The LDAP configuration to use when populating the group's user list from an LDAP query"
p968
stRp969
ag3
(g4
g5
(dp970
g14
S''
sg40
S'ldapSearchQuery'
p971
sg18
S''
sg42
S'String'
p972
sg19
S''
sg15
g971
sg28
Nsg44
S'The LDAP query used to identify the members of the group'
p973
stRp974
ag3
(g4
g5
(dp975
g14
S''
sg40
S'ldapUserAttribute'
p976
sg18
S''
sg42
S'String'
p977
sg19
S''
sg15
g976
sg28
Nsg44
S"The LDAP attribute that represents the user's username"
p978
stRp979
ag3
(g4
g5
(dp980
g14
S''
sg40
S'ldapDNAttribute'
p981
sg18
S''
sg42
S'String'
p982
sg19
S''
sg15
g981
sg28
Nsg44
S"The LDAP attribute that represents the user's DN"
p983
stRp984
atRp985
sg68
g948
sg69
S'1'
sg70
g71
sg44
S'Per-group data to support group membership controlled by AD/LDAP group membership'
p986
sg42
S'GroupX'
p987
sg74
S'19'
p988
sg40
S'db.groupx'
p989
stRp990
sS'trigger'
p991
g3
(g4
g5
(dp992
g7
S'seq'
p993
sg9
g3
(g10
g11
(lp994
g3
(g4
g5
(dp995
g14
S''
sg15
g16
sg17
g16
sg18
S''
sg19
S''
sg20
g21
sg22
g23
stRp996
ag3
(g4
g5
(dp997
g14
S''
sg17
g26
sg18
S''
sg20
g27
sg19
S''
sg15
g26
sg28
Nsg22
g29
stRp998
ag3
(g4
g5
(dp999
g14
S''
sg17
g32
sg18
S''
sg20
g21
sg19
S''
sg15
g32
sg28
Nsg22
g33
stRp1000
ag3
(g4
g5
(dp1001
g14
S''
sg17
g36
sg18
S''
sg20
g27
sg19
S''
sg15
g36
sg28
Nsg22
g37
stRp1002
ag3
(g4
g5
(dp1003
g14
S''
sg40
S'seq'
p1004
sg18
S''
sg42
S'Int'
p1005
sg19
S''
sg15
g1004
sg28
Nsg44
S'Sequence number: for ordering the trigger list'
p1006
stRp1007
ag3
(g4
g5
(dp1008
g14
S''
sg40
S'name'
p1009
sg18
S''
sg42
S'Key'
p1010
sg19
S''
sg15
g1009
sg28
Nsg44
S'Name of the trigger'
p1011
stRp1012
ag3
(g4
g5
(dp1013
g14
S''
sg40
S'mapFlag'
p1014
sg18
S''
sg42
S'MapFlag'
p1015
sg19
S''
sg15
g1014
sg28
Nsg44
S'Type of mapping: specifies whether the trigger applies \n\t\t    to the files or not.'
p1016
stRp1017
ag3
(g4
g5
(dp1018
g14
S''
sg40
S'depotFile'
p1019
sg18
S''
sg42
S'Mapping'
p1020
sg19
S''
sg15
g1019
sg28
Nsg44
S'The files to apply the trigger to'
p1021
stRp1022
ag3
(g4
g5
(dp1023
g14
S''
sg40
S'triggerDepotFile'
p1024
sg18
S''
sg42
S'File'
p1025
sg19
S''
sg15
g1024
sg28
Nsg44
S'Depot path to the trigger'
p1026
stRp1027
ag3
(g4
g5
(dp1028
g14
S''
sg40
S'trigger'
p1029
sg18
S''
sg42
S'Trigger'
p1030
sg19
S''
sg15
g1029
sg28
Nsg44
S'Type of trigger'
p1031
stRp1032
ag3
(g4
g5
(dp1033
g14
S''
sg40
S'action'
p1034
sg18
S''
sg42
S'Text'
p1035
sg19
S''
sg15
g1034
sg28
Nsg44
S'Command to execute when trigger runs'
p1036
stRp1037
atRp1038
sg68
g991
sg69
S'3'
sg70
g71
sg44
S'Trigger specifications'
p1039
sg42
S'Trigger'
p1040
sg74
S'69'
p1041
sg40
S'db.trigger'
p1042
stRp1043
sS'change'
p1044
g3
(g4
g5
(dp1045
g7
S'change'
p1046
sg9
g3
(g10
g11
(lp1047
g3
(g4
g5
(dp1048
g14
S''
sg15
g16
sg17
g16
sg18
S''
sg19
S''
sg20
g21
sg22
g23
stRp1049
ag3
(g4
g5
(dp1050
g14
S''
sg17
g26
sg18
S''
sg20
g27
sg19
S''
sg15
g26
sg28
Nsg22
g29
stRp1051
ag3
(g4
g5
(dp1052
g14
S''
sg17
g32
sg18
S''
sg20
g21
sg19
S''
sg15
g32
sg28
Nsg22
g33
stRp1053
ag3
(g4
g5
(dp1054
g14
S''
sg17
g36
sg18
S''
sg20
g27
sg19
S''
sg15
g36
sg28
Nsg22
g37
stRp1055
ag3
(g4
g5
(dp1056
g14
S''
sg40
S'change'
p1057
sg18
S''
sg42
S'Change'
p1058
sg19
S''
sg15
g1057
sg28
Nsg44
S'The change number'
p1059
stRp1060
ag3
(g4
g5
(dp1061
g14
S''
sg40
S'descKey'
p1062
sg18
S''
sg42
S'Change'
p1063
sg19
S''
sg15
g1062
sg28
Nsg44
S"The description key. Normally the same as 'change', but\n\t\t    may differ if a changelist was renumbered on submission."
p1064
stRp1065
ag3
(g4
g5
(dp1066
g14
S''
sg40
S'client'
p1067
sg18
S''
sg42
S'Domain'
p1068
sg19
S''
sg15
g1067
sg28
Nsg44
S'The client from which the change originates'
p1069
stRp1070
ag3
(g4
g5
(dp1071
g14
S''
sg40
S'user'
p1072
sg18
S''
sg42
S'User'
p1073
sg19
S''
sg15
g1072
sg28
Nsg44
S'The user who owns the change'
p1074
stRp1075
ag3
(g4
g5
(dp1076
g14
S''
sg40
S'date'
p1077
sg18
S''
sg42
S'Date'
p1078
sg19
S''
sg15
g1077
sg28
Nsg44
S'Date and time the changelist was submitted'
p1079
stRp1080
ag3
(g4
g5
(dp1081
g14
S''
sg40
S'status'
p1082
sg18
S''
sg42
S'ChangeStatus'
p1083
sg19
S''
sg15
g1082
sg28
Nsg44
S'Status of the change'
p1084
stRp1085
ag3
(g4
g5
(dp1086
g14
S''
sg40
S'description'
p1087
sg18
S''
sg42
S'DescShort'
p1088
sg19
S''
sg15
g1087
sg28
Nsg44
S'Short description of the change.'
p1089
stRp1090
ag3
(g4
g5
(dp1091
g14
S''
sg40
S'root'
p1092
sg18
S''
sg42
S'Mapping'
p1093
sg19
S''
sg15
g1092
sg28
Nsg44
S'Common path for all files in the changelist'
p1094
stRp1095
ag3
(g4
g5
(dp1096
g14
S''
sg40
S'importer'
p1097
sg18
S''
sg42
S'User'
p1098
sg19
S''
sg15
g1097
sg28
Nsg44
S'The user who fetched or pushed this change to this server'
p1099
stRp1100
ag3
(g4
g5
(dp1101
g14
S''
sg40
S'identity'
p1102
sg18
S''
sg42
S'Key'
p1103
sg19
S''
sg15
g1102
sg28
Nsg44
S'Identifier for this change'
p1104
stRp1105
ag3
(g4
g5
(dp1106
g14
S''
sg40
S'access'
p1107
sg18
S''
sg42
S'Date'
p1108
sg19
S''
sg15
g1107
sg28
Nsg44
S'Shelve last access'
p1109
stRp1110
ag3
(g4
g5
(dp1111
g14
S''
sg40
S'update'
p1112
sg18
S''
sg42
S'Date'
p1113
sg19
S''
sg15
g1112
sg28
Nsg44
S'Shelve last update'
p1114
stRp1115
ag3
(g4
g5
(dp1116
g14
S''
sg40
S'stream'
p1117
sg18
S''
sg42
S'Domain'
p1118
sg19
S''
sg15
g1117
sg28
Nsg44
S'Stream spec name in changelist'
p1119
stRp1120
atRp1121
sg68
g1044
sg69
S'6'
sg70
g71
sg44
S'Changelists'
p1122
sg42
S'Change'
p1123
sg74
S'70'
p1124
sg40
S'db.change'
p1125
stRp1126
sS'ldap'
p1127
g3
(g4
g5
(dp1128
g7
S'name'
p1129
sg9
g3
(g10
g11
(lp1130
g3
(g4
g5
(dp1131
g14
S''
sg15
g16
sg17
g16
sg18
S''
sg19
S''
sg20
g21
sg22
g23
stRp1132
ag3
(g4
g5
(dp1133
g14
S''
sg17
g26
sg18
S''
sg20
g27
sg19
S''
sg15
g26
sg28
Nsg22
g29
stRp1134
ag3
(g4
g5
(dp1135
g14
S''
sg17
g32
sg18
S''
sg20
g21
sg19
S''
sg15
g32
sg28
Nsg22
g33
stRp1136
ag3
(g4
g5
(dp1137
g14
S''
sg17
g36
sg18
S''
sg20
g27
sg19
S''
sg15
g36
sg28
Nsg22
g37
stRp1138
ag3
(g4
g5
(dp1139
g14
S''
sg40
S'name'
p1140
sg18
S''
sg42
S'Key'
p1141
sg19
S''
sg15
g1140
sg28
Nsg44
S'The LDAP configuration name'
p1142
stRp1143
ag3
(g4
g5
(dp1144
g14
S''
sg40
S'host'
p1145
sg18
S''
sg42
S'String'
p1146
sg19
S''
sg15
g1145
sg28
Nsg44
S'The FQDN of the directory server'
p1147
stRp1148
ag3
(g4
g5
(dp1149
g14
S''
sg40
S'port'
p1150
sg18
S''
sg42
S'Int'
p1151
sg19
S''
sg15
g1150
sg28
Nsg44
S'The port number on which to connect to the directory server'
p1152
stRp1153
ag3
(g4
g5
(dp1154
g14
S''
sg40
S'ssl'
p1155
sg18
S''
sg42
S'Int'
p1156
sg19
S''
sg15
g1155
sg28
Nsg44
S"The encryption method to use when connecting to the The FQDN of the directory server.\n\t\t\tOptions are: 0='none', 1='ssl' and 2='tls'"
p1157
stRp1158
ag3
(g4
g5
(dp1159
g14
S''
sg40
S'type'
p1160
sg18
S''
sg42
S'Int'
p1161
sg19
S''
sg15
g1160
sg28
Nsg44
S"The bind method to use with this directory.  Options are: 0='simple', 1='search' and 2='sasl'."
p1162
stRp1163
ag3
(g4
g5
(dp1164
g14
S''
sg40
S'pattern'
p1165
sg18
S''
sg42
S'Text'
p1166
sg19
S''
sg15
g1165
sg28
Nsg44
S"The DN used to bind against to validate the user's credentials."
p1167
stRp1168
ag3
(g4
g5
(dp1169
g14
S''
sg40
S'baseDN'
p1170
sg18
S''
sg42
S'Text'
p1171
sg19
S''
sg15
g1170
sg28
Nsg44
S'The DN from which to start the search for the user object'
p1172
stRp1173
ag3
(g4
g5
(dp1174
g14
S''
sg40
S'filter'
p1175
sg18
S''
sg42
S'Text'
p1176
sg19
S''
sg15
g1175
sg28
Nsg44
S'The LDAP query filter to use to identify the user object which will be used to bind against'
p1177
stRp1178
ag3
(g4
g5
(dp1179
g14
S''
sg40
S'scope'
p1180
sg18
S''
sg42
S'Int'
p1181
sg19
S''
sg15
g1180
sg28
Nsg44
S'The scope to use when searching for the user records. Options are:\n                 0 = baseonly - Just the BaseDN object\n                 1 = children - The BaseDN and its direct children\n                 2 = subtree - The BaseDN and all objects below it'
p1182
stRp1183
ag3
(g4
g5
(dp1184
g14
S''
sg40
S'bindDN'
p1185
sg18
S''
sg42
S'Text'
p1186
sg19
S''
sg15
g1185
sg28
Nsg44
S'The DN to bind against in order to search the directory'
p1187
stRp1188
ag3
(g4
g5
(dp1189
g14
S''
sg40
S'bindpass'
p1190
sg18
S''
sg42
S'Text'
p1191
sg19
S''
sg15
g1190
sg28
Nsg44
S'The password for the BindDN record'
p1192
stRp1193
ag3
(g4
g5
(dp1194
g14
S''
sg40
S'realm'
p1195
sg18
S''
sg42
S'Text'
p1196
sg19
S''
sg15
g1195
sg28
Nsg44
S'The optional realm to use when authenticating the user via SASL'
p1197
stRp1198
ag3
(g4
g5
(dp1199
g14
S''
sg40
S'groupBaseDN'
p1200
sg18
S''
sg42
S'Text'
p1201
sg19
S''
sg15
g1200
sg28
Nsg44
S'The search base for performing the group search. If unset this will default to the SearchBaseDN'
p1202
stRp1203
ag3
(g4
g5
(dp1204
g14
S''
sg40
S'groupFilter'
p1205
sg18
S''
sg42
S'Text'
p1206
sg19
S''
sg15
g1205
sg28
Nsg44
S'The filter to use for the group search'
p1207
stRp1208
ag3
(g4
g5
(dp1209
g14
S''
sg40
S'groupScope'
p1210
sg18
S''
sg42
S'Int'
p1211
sg19
S''
sg15
g1210
sg28
Nsg44
S'The scope to use when performing the group search.Options are:\n \t\t\t\t0 = baseonly - Just the BaseDN object\n\t\t\t\t1 = children - The BaseDN and its direct children\n\t\t\t\t2 = subtree - The BaseDN and all objects below it'
p1212
stRp1213
ag3
(g4
g5
(dp1214
g14
S''
sg40
S'options'
p1215
sg18
S''
sg42
S'Int'
p1216
sg19
S''
sg15
g1215
sg28
Nsg44
S'LDAP options bitmask: 1=[no]downcase, 2=[no]getattrs and 4=[no]realminusername'
p1217
stRp1218
ag3
(g4
g5
(dp1219
g14
S''
sg40
S'attrUid'
p1220
sg18
S''
sg42
S'Text'
p1221
sg19
S''
sg15
g1220
sg28
Nsg44
S"The name of the attribute in the directory's user records that contain the users' UIDs"
p1222
stRp1223
ag3
(g4
g5
(dp1224
g14
S''
sg40
S'attrEmail'
p1225
sg18
S''
sg42
S'Text'
p1226
sg19
S''
sg15
g1225
sg28
Nsg44
S"The name of the attribute in the directory's user records that contain the users' email addresses."
p1227
stRp1228
ag3
(g4
g5
(dp1229
g14
S''
sg40
S'attrName'
p1230
sg18
S''
sg42
S'Text'
p1231
sg19
S''
sg15
g1230
sg28
Nsg44
S"The name(s) of the attribute(s) in the directory's user records that contain the users' full names."
p1232
stRp1233
atRp1234
sg68
g1127
sg69
S'0'
sg70
g71
sg44
S'LDAP specifications'
p1235
sg42
S'Ldap'
p1236
sg74
S'8'
sg40
S'db.ldap'
p1237
stRp1238
sS'logger'
p1239
g3
(g4
g5
(dp1240
g7
S'seq'
p1241
sg9
g3
(g10
g11
(lp1242
g3
(g4
g5
(dp1243
g14
S''
sg15
g16
sg17
g16
sg18
S''
sg19
S''
sg20
g21
sg22
g23
stRp1244
ag3
(g4
g5
(dp1245
g14
S''
sg17
g26
sg18
S''
sg20
g27
sg19
S''
sg15
g26
sg28
Nsg22
g29
stRp1246
ag3
(g4
g5
(dp1247
g14
S''
sg17
g32
sg18
S''
sg20
g21
sg19
S''
sg15
g32
sg28
Nsg22
g33
stRp1248
ag3
(g4
g5
(dp1249
g14
S''
sg17
g36
sg18
S''
sg20
g27
sg19
S''
sg15
g36
sg28
Nsg22
g37
stRp1250
ag3
(g4
g5
(dp1251
g14
S''
sg40
S'seq'
p1252
sg18
S''
sg42
S'Int'
p1253
sg19
S''
sg15
g1252
sg28
Nsg44
S'Sequence number of event'
p1254
stRp1255
ag3
(g4
g5
(dp1256
g14
S''
sg40
S'key'
p1257
sg18
S''
sg42
S'Key'
p1258
sg19
S''
sg15
g1257
sg28
Nsg44
S"Either the word 'change' or the word 'job'"
p1259
stRp1260
ag3
(g4
g5
(dp1261
g14
S''
sg40
S'attr'
p1262
sg18
S''
sg42
S'Key'
p1263
sg19
S''
sg15
g1262
sg28
Nsg44
S'The number of the change, or name of the job that was \n\t\t    altered.'
p1264
stRp1265
atRp1266
sg68
g1239
sg69
S'0'
sg70
g71
sg44
S"Support for 'p4 logger' command. Logs any changes to \n\t\tchangelists and jobs"
p1267
sg42
S'Logger'
p1268
sg74
S'7'
sg40
S'db.logger'
p1269
stRp1270
sS'pubkey'
p1271
g3
(g4
g5
(dp1272
g7
S'user, scope'
p1273
sg9
g3
(g10
g11
(lp1274
g3
(g4
g5
(dp1275
g14
S''
sg15
g16
sg17
g16
sg18
S''
sg19
S''
sg20
g21
sg22
g23
stRp1276
ag3
(g4
g5
(dp1277
g14
S''
sg17
g26
sg18
S''
sg20
g27
sg19
S''
sg15
g26
sg28
Nsg22
g29
stRp1278
ag3
(g4
g5
(dp1279
g14
S''
sg17
g32
sg18
S''
sg20
g21
sg19
S''
sg15
g32
sg28
Nsg22
g33
stRp1280
ag3
(g4
g5
(dp1281
g14
S''
sg17
g36
sg18
S''
sg20
g27
sg19
S''
sg15
g36
sg28
Nsg22
g37
stRp1282
ag3
(g4
g5
(dp1283
g14
S''
sg40
S'user'
p1284
sg18
S''
sg42
S'User'
p1285
sg19
S''
sg15
g1284
sg28
Nsg44
S'User'
p1286
stRp1287
ag3
(g4
g5
(dp1288
g14
S''
sg40
S'scope'
p1289
sg18
S''
sg42
S'Key'
p1290
sg19
S''
sg15
g1289
sg28
Nsg44
S'Scope'
p1291
stRp1292
ag3
(g4
g5
(dp1293
g14
S''
sg40
S'key'
p1294
sg18
S''
sg42
S'Text'
p1295
sg19
S''
sg15
g1294
sg28
Nsg44
S'Key'
p1296
stRp1297
ag3
(g4
g5
(dp1298
g14
S''
sg40
S'digest'
p1299
sg18
S''
sg42
S'Digest'
p1300
sg19
S''
sg15
g1299
sg28
Nsg44
S'Digest'
p1301
stRp1302
ag3
(g4
g5
(dp1303
g14
S''
sg40
S'update'
p1304
sg18
S''
sg42
S'Date'
p1305
sg19
S''
sg15
g1304
sg28
Nsg44
S'Update date'
p1306
stRp1307
atRp1308
sg68
g1271
sg69
S'0'
sg70
g71
sg44
S'SSH Public keys'
p1309
sg42
S'PublicKey'
p1310
sg74
S'81'
p1311
sg40
S'db.pubkey'
p1312
stRp1313
sS'fixrev'
p1314
g3
(g4
g5
(dp1315
g7
S'change, job'
p1316
sg9
g3
(g10
g11
(lp1317
g3
(g4
g5
(dp1318
g14
S''
sg15
g16
sg17
g16
sg18
S''
sg19
S''
sg20
g21
sg22
g23
stRp1319
ag3
(g4
g5
(dp1320
g14
S''
sg17
g26
sg18
S''
sg20
g27
sg19
S''
sg15
g26
sg28
Nsg22
g29
stRp1321
ag3
(g4
g5
(dp1322
g14
S''
sg17
g32
sg18
S''
sg20
g21
sg19
S''
sg15
g32
sg28
Nsg22
g33
stRp1323
ag3
(g4
g5
(dp1324
g14
S''
sg17
g36
sg18
S''
sg20
g27
sg19
S''
sg15
g36
sg28
Nsg22
g37
stRp1325
ag3
(g4
g5
(dp1326
g14
S''
sg40
g884
sg18
S''
sg42
g885
sg19
S''
sg15
g884
sg28
Nsg44
g886
stRp1327
ag3
(g4
g5
(dp1328
g14
S''
sg40
g889
sg18
S''
sg42
g890
sg19
S''
sg15
g889
sg28
Nsg44
g891
stRp1329
ag3
(g4
g5
(dp1330
g14
S''
sg40
g894
sg18
S''
sg42
g895
sg19
S''
sg15
g894
sg28
Nsg44
g896
stRp1331
ag3
(g4
g5
(dp1332
g14
S''
sg40
g899
sg18
S''
sg42
g900
sg19
S''
sg15
g899
sg28
Nsg44
g901
stRp1333
ag3
(g4
g5
(dp1334
g14
S''
sg40
g904
sg18
S''
sg42
g905
sg19
S''
sg15
g904
sg28
Nsg44
g906
stRp1335
ag3
(g4
g5
(dp1336
g14
S''
sg40
g909
sg18
S''
sg42
g910
sg19
S''
sg15
g909
sg28
Nsg44
g911
stRp1337
atRp1338
sg68
g1314
sg40
S'db.fixrev'
p1339
sg69
S'1'
sg70
g71
sg915
S'db.fix'
p1340
sg42
S'Fix'
p1341
sg74
S'86'
p1342
sg44
S'Fix records - indexed by change'
p1343
stRp1344
sS'resolveg'
p1345
g3
(g4
g5
(dp1346
g7
S'toFile, fromFile, baseSha'
p1347
sg9
g3
(g10
g11
(lp1348
g3
(g4
g5
(dp1349
g14
S''
sg15
g16
sg17
g16
sg18
S''
sg19
S''
sg20
g21
sg22
g23
stRp1350
ag3
(g4
g5
(dp1351
g14
S''
sg17
g26
sg18
S''
sg20
g27
sg19
S''
sg15
g26
sg28
Nsg22
g29
stRp1352
ag3
(g4
g5
(dp1353
g14
S''
sg17
g32
sg18
S''
sg20
g21
sg19
S''
sg15
g32
sg28
Nsg22
g33
stRp1354
ag3
(g4
g5
(dp1355
g14
S''
sg17
g36
sg18
S''
sg20
g27
sg19
S''
sg15
g36
sg28
Nsg22
g37
stRp1356
ag3
(g4
g5
(dp1357
g14
S''
sg40
S'toFile'
p1358
sg18
S''
sg42
S'File'
p1359
sg19
S''
sg15
g1358
sg28
Nsg44
S'ToFile'
p1360
stRp1361
ag3
(g4
g5
(dp1362
g14
S''
sg40
S'fromFile'
p1363
sg18
S''
sg42
S'File'
p1364
sg19
S''
sg15
g1363
sg28
Nsg44
S'FromFile'
p1365
stRp1366
ag3
(g4
g5
(dp1367
g14
S''
sg40
S'baseSHA'
p1368
sg18
S''
sg42
S'SHA1'
p1369
sg19
S''
sg15
g1368
sg28
Nsg44
S'Base SHA'
p1370
stRp1371
ag3
(g4
g5
(dp1372
g14
S''
sg40
S'wantsSHA'
p1373
sg18
S''
sg42
S'SHA1'
p1374
sg19
S''
sg15
g1373
sg28
Nsg44
S'Wants SHA'
p1375
stRp1376
ag3
(g4
g5
(dp1377
g14
S''
sg40
S'how'
p1378
sg18
S''
sg42
S'IntegHow'
p1379
sg19
S''
sg15
g1378
sg28
Nsg44
S'How'
p1380
stRp1381
ag3
(g4
g5
(dp1382
g14
S''
sg40
S'state'
p1383
sg18
S''
sg42
S'ResolvedStatus'
p1384
sg19
S''
sg15
g1383
sg28
Nsg44
S'State'
p1385
stRp1386
atRp1387
sg68
g1345
sg69
S'0'
sg70
g71
sg44
S'Resolve records for clients of type graph'
p1388
sg42
S'ResolveG'
p1389
sg74
S'40'
p1390
sg40
S'db.resolveg'
p1391
stRp1392
sS'revdx'
p1393
g3
(g4
g5
(dp1394
g7
S'depotFile'
p1395
sg9
g3
(g10
g11
(lp1396
g3
(g4
g5
(dp1397
g14
S''
sg15
g16
sg17
g16
sg18
S''
sg19
S''
sg20
g21
sg22
g23
stRp1398
ag3
(g4
g5
(dp1399
g14
S''
sg17
g26
sg18
S''
sg20
g27
sg19
S''
sg15
g26
sg28
Nsg22
g29
stRp1400
ag3
(g4
g5
(dp1401
g14
S''
sg17
g32
sg18
S''
sg20
g21
sg19
S''
sg15
g32
sg28
Nsg22
g33
stRp1402
ag3
(g4
g5
(dp1403
g14
S''
sg17
g36
sg18
S''
sg20
g27
sg19
S''
sg15
g36
sg28
Nsg22
g37
stRp1404
ag3
(g4
g5
(dp1405
g14
S''
sg40
g91
sg18
S''
sg42
g92
sg19
S''
sg15
g91
sg28
Nsg44
g93
stRp1406
ag3
(g4
g5
(dp1407
g14
S''
sg40
g96
sg18
S''
sg42
g97
sg19
S''
sg15
g96
sg28
Nsg44
g98
stRp1408
ag3
(g4
g5
(dp1409
g14
S''
sg40
g101
sg18
S''
sg42
g102
sg19
S''
sg15
g101
sg28
Nsg44
g103
stRp1410
ag3
(g4
g5
(dp1411
g14
S''
sg40
g106
sg18
S''
sg42
g107
sg19
S''
sg15
g106
sg28
Nsg44
g108
stRp1412
ag3
(g4
g5
(dp1413
g14
S''
sg40
g111
sg18
S''
sg42
g112
sg19
S''
sg15
g111
sg28
Nsg44
g113
stRp1414
ag3
(g4
g5
(dp1415
g14
S''
sg40
g116
sg18
S''
sg42
g117
sg19
S''
sg15
g116
sg28
Nsg44
g118
stRp1416
ag3
(g4
g5
(dp1417
g14
S''
sg40
g121
sg18
S''
sg42
g122
sg19
S''
sg15
g121
sg28
Nsg44
g123
stRp1418
ag3
(g4
g5
(dp1419
g14
S''
sg40
g126
sg18
S''
sg42
g127
sg19
S''
sg15
g126
sg28
Nsg44
g128
stRp1420
ag3
(g4
g5
(dp1421
g14
S''
sg40
g131
sg18
S''
sg42
g132
sg19
S''
sg15
g131
sg28
Nsg44
g133
stRp1422
ag3
(g4
g5
(dp1423
g14
S''
sg40
g136
sg18
S''
sg42
g137
sg19
S''
sg15
g136
sg28
Nsg44
g138
stRp1424
ag3
(g4
g5
(dp1425
g14
S''
sg40
g141
sg18
S''
sg42
g142
sg19
S''
sg15
g141
sg28
Nsg44
g143
stRp1426
ag3
(g4
g5
(dp1427
g14
S''
sg40
g146
sg18
S''
sg42
g147
sg19
S''
sg15
g146
sg28
Nsg44
g148
stRp1428
ag3
(g4
g5
(dp1429
g14
S''
sg40
g151
sg18
S''
sg42
g152
sg19
S''
sg15
g151
sg28
Nsg44
g153
stRp1430
ag3
(g4
g5
(dp1431
g14
S''
sg40
g156
sg18
S''
sg42
g157
sg19
S''
sg15
g156
sg28
Nsg44
g158
stRp1432
atRp1433
sg68
g1393
sg69
S'9'
sg70
g71
sg44
S'Revision records for revisions deleted at the head revision'
p1434
sg42
S'Rev'
p1435
sg74
S'48'
p1436
sg40
S'db.revdx'
p1437
stRp1438
sS'exclgx'
p1439
g3
(g4
g5
(dp1440
g7
S'lockId'
p1441
sg9
g3
(g10
g11
(lp1442
g3
(g4
g5
(dp1443
g14
S''
sg15
g16
sg17
g16
sg18
S''
sg19
S''
sg20
g21
sg22
g23
stRp1444
ag3
(g4
g5
(dp1445
g14
S''
sg17
g26
sg18
S''
sg20
g27
sg19
S''
sg15
g26
sg28
Nsg22
g29
stRp1446
ag3
(g4
g5
(dp1447
g14
S''
sg17
g32
sg18
S''
sg20
g21
sg19
S''
sg15
g32
sg28
Nsg22
g33
stRp1448
ag3
(g4
g5
(dp1449
g14
S''
sg17
g36
sg18
S''
sg20
g27
sg19
S''
sg15
g36
sg28
Nsg22
g37
stRp1450
ag3
(g4
g5
(dp1451
g14
S''
sg40
S'lockId'
p1452
sg18
S''
sg42
S'String'
p1453
sg19
S''
sg15
g1452
sg28
Nsg44
S'The git LFS lock identifier'
p1454
stRp1455
ag3
(g4
g5
(dp1456
g14
S''
sg40
S'repo'
p1457
sg18
S''
sg42
S'Key'
p1458
sg19
S''
sg15
g1457
sg28
Nsg44
S'The name of the repository on which the lock is applied'
p1459
stRp1460
ag3
(g4
g5
(dp1461
g14
S''
sg40
S'ref'
p1462
sg18
S''
sg42
S'Text'
p1463
sg19
S''
sg15
g1462
sg28
Nsg44
S'The reference on which the lock is applied'
p1464
stRp1465
ag3
(g4
g5
(dp1466
g14
S''
sg40
S'file'
p1467
sg18
S''
sg42
S'File'
p1468
sg19
S''
sg15
g1467
sg28
Nsg44
S'The git file path'
p1469
stRp1470
ag3
(g4
g5
(dp1471
g14
S''
sg40
S'user'
p1472
sg18
S''
sg42
S'User'
p1473
sg19
S''
sg15
g1472
sg28
Nsg44
S'The user for which the file is locked'
p1474
stRp1475
ag3
(g4
g5
(dp1476
g14
S''
sg40
S'created'
p1477
sg18
S''
sg42
S'String'
p1478
sg19
S''
sg15
g1477
sg28
Nsg44
S'The lock creation date stored in git data format'
p1479
stRp1480
atRp1481
sg68
g1439
sg69
S'0'
sg70
g71
sg44
S'Graph depot LFS locks indexed by lockId'
p1482
sg42
S'ExclGX'
p1483
sg74
S'67'
p1484
sg40
S'db.exclgx'
p1485
stRp1486
sS'bodtexthx'
p1487
g3
(g4
g5
(dp1488
g7
S'type, key, attr'
p1489
sg9
g3
(g10
g11
(lp1490
g3
(g4
g5
(dp1491
g14
S''
sg15
g16
sg17
g16
sg18
S''
sg19
S''
sg20
g21
sg22
g23
stRp1492
ag3
(g4
g5
(dp1493
g14
S''
sg17
g26
sg18
S''
sg20
g27
sg19
S''
sg15
g26
sg28
Nsg22
g29
stRp1494
ag3
(g4
g5
(dp1495
g14
S''
sg17
g32
sg18
S''
sg20
g21
sg19
S''
sg15
g32
sg28
Nsg22
g33
stRp1496
ag3
(g4
g5
(dp1497
g14
S''
sg17
g36
sg18
S''
sg20
g27
sg19
S''
sg15
g36
sg28
Nsg22
g37
stRp1498
ag3
(g4
g5
(dp1499
g14
S''
sg40
S'type'
p1500
sg18
S''
sg42
S'Int'
p1501
sg19
S''
sg15
g1500
sg28
Nsg44
S'The type of spec'
p1502
stRp1503
ag3
(g4
g5
(dp1504
g14
S''
sg40
S'key'
p1505
sg18
S''
sg42
S'Key'
p1506
sg19
S''
sg15
g1505
sg28
Nsg44
S'The spec to which this attribute belongs'
p1507
stRp1508
ag3
(g4
g5
(dp1509
g14
S''
sg40
S'attr'
p1510
sg18
S''
sg42
S'Int'
p1511
sg19
S''
sg15
g1510
sg28
Nsg44
S'The attribute number of this attribute'
p1512
stRp1513
ag3
(g4
g5
(dp1514
g14
S''
sg40
S'bulk'
p1515
sg18
S''
sg42
S'Int'
p1516
sg19
S''
sg15
g1515
sg28
Nsg44
S'Indicates whether (1), or not (0) the field is a bulk\n\t\t    text field that should not be indexed.'
p1517
stRp1518
ag3
(g4
g5
(dp1519
g14
S''
sg40
S'text'
p1520
sg18
S''
sg42
S'Text'
p1521
sg19
S''
sg15
g1520
sg28
Nsg44
S'The attribute value'
p1522
stRp1523
atRp1524
sg68
g1487
sg69
S'0'
sg70
g71
sg44
S'Head revision of spec fields'
p1525
sg42
S'BodyTextHx'
p1526
sg74
S'90'
p1527
sg40
S'db.bodtexthx'
p1528
stRp1529
sS'integed'
p1530
g3
(g4
g5
(dp1531
g7
S'toFile, fromFile, startFromRev, endFromRev,\n\t\t\tstartToRev, endToRev'
p1532
sg9
g3
(g10
g11
(lp1533
g3
(g4
g5
(dp1534
g14
S''
sg15
g16
sg17
g16
sg18
S''
sg19
S''
sg20
g21
sg22
g23
stRp1535
ag3
(g4
g5
(dp1536
g14
S''
sg17
g26
sg18
S''
sg20
g27
sg19
S''
sg15
g26
sg28
Nsg22
g29
stRp1537
ag3
(g4
g5
(dp1538
g14
S''
sg17
g32
sg18
S''
sg20
g21
sg19
S''
sg15
g32
sg28
Nsg22
g33
stRp1539
ag3
(g4
g5
(dp1540
g14
S''
sg17
g36
sg18
S''
sg20
g27
sg19
S''
sg15
g36
sg28
Nsg22
g37
stRp1541
ag3
(g4
g5
(dp1542
g14
S''
sg40
S'toFile'
p1543
sg18
S''
sg42
S'File'
p1544
sg19
S''
sg15
g1543
sg28
Nsg44
S'File to which integration is being performed (target).'
p1545
stRp1546
ag3
(g4
g5
(dp1547
g14
S''
sg40
S'fromFile'
p1548
sg18
S''
sg42
S'File'
p1549
sg19
S''
sg15
g1548
sg28
Nsg44
S'File from which integration is being performed (source).'
p1550
stRp1551
ag3
(g4
g5
(dp1552
g14
S''
sg40
S'startFromRev'
p1553
sg18
S''
sg42
S'Rev'
p1554
sg19
S''
sg15
g1553
sg28
Nsg44
S'Starting revision of fromFile'
p1555
stRp1556
ag3
(g4
g5
(dp1557
g14
S''
sg40
S'endFromRev'
p1558
sg18
S''
sg42
S'Rev'
p1559
sg19
S''
sg15
g1558
sg28
Nsg44
S'Ending revision of fromFile'
p1560
stRp1561
ag3
(g4
g5
(dp1562
g14
S''
sg40
S'startToRev'
p1563
sg18
S''
sg42
S'Rev'
p1564
sg19
S''
sg15
g1563
sg28
Nsg44
S'Start revision of toFile into which integration was \n\t\t    performed.'
p1565
stRp1566
ag3
(g4
g5
(dp1567
g14
S''
sg40
S'endToRev'
p1568
sg18
S''
sg42
S'Rev'
p1569
sg19
S''
sg15
g1568
sg28
Nsg44
S'End revision of toFile into which integration was \n\t\t    performed. Only varies from startToRev for reverse \n\t\t    integration records.'
p1570
stRp1571
ag3
(g4
g5
(dp1572
g14
S''
sg40
S'how'
p1573
sg18
S''
sg42
S'IntegHow'
p1574
sg19
S''
sg15
g1573
sg28
Nsg44
S'Integration method: variations on \n\t\t    merge/branch/copy/ignore/delete.'
p1575
stRp1576
ag3
(g4
g5
(dp1577
g14
S''
sg40
S'change'
p1578
sg18
S''
sg42
S'Change'
p1579
sg19
S''
sg15
g1578
sg28
Nsg44
S'Changelist associated with the integration.'
p1580
stRp1581
atRp1582
sg68
g1530
sg40
S'db.integed'
p1583
sg69
S'0'
sg70
g71
sg915
S'db.resolve'
p1584
sg42
S'Integed'
p1585
sg74
S'36'
p1586
sg44
S'Permanent integration records'
p1587
stRp1588
sS'repo'
p1589
g3
(g4
g5
(dp1590
g7
S'repo'
p1591
sg9
g3
(g10
g11
(lp1592
g3
(g4
g5
(dp1593
g14
S''
sg15
g16
sg17
g16
sg18
S''
sg19
S''
sg20
g21
sg22
g23
stRp1594
ag3
(g4
g5
(dp1595
g14
S''
sg17
g26
sg18
S''
sg20
g27
sg19
S''
sg15
g26
sg28
Nsg22
g29
stRp1596
ag3
(g4
g5
(dp1597
g14
S''
sg17
g32
sg18
S''
sg20
g21
sg19
S''
sg15
g32
sg28
Nsg22
g33
stRp1598
ag3
(g4
g5
(dp1599
g14
S''
sg17
g36
sg18
S''
sg20
g27
sg19
S''
sg15
g36
sg28
Nsg22
g37
stRp1600
ag3
(g4
g5
(dp1601
g14
S''
sg40
S'repo'
p1602
sg18
S''
sg42
S'Key'
p1603
sg19
S''
sg15
g1602
sg28
Nsg44
S'Name of the repo'
p1604
stRp1605
ag3
(g4
g5
(dp1606
g14
S''
sg40
S'owner'
p1607
sg18
S''
sg42
S'User'
p1608
sg19
S''
sg15
g1607
sg28
Nsg44
S'Owner of the repo'
p1609
stRp1610
ag3
(g4
g5
(dp1611
g14
S''
sg40
S'created'
p1612
sg18
S''
sg42
S'Date'
p1613
sg19
S''
sg15
g1612
sg28
Nsg44
S'Date the repo specification was created'
p1614
stRp1615
ag3
(g4
g5
(dp1616
g14
S''
sg40
S'pushed'
p1617
sg18
S''
sg42
S'Date'
p1618
sg19
S''
sg15
g1617
sg28
Nsg44
S'Date of the last push to the repo'
p1619
stRp1620
ag3
(g4
g5
(dp1621
g14
S''
sg40
S'forked'
p1622
sg18
S''
sg42
S'Key'
p1623
sg19
S''
sg15
g1622
sg28
Nsg44
S'Name of the repo from which this repo was forked'
p1624
stRp1625
ag3
(g4
g5
(dp1626
g14
S''
sg40
S'desc'
p1627
sg18
S''
sg42
S'Text'
p1628
sg19
S''
sg15
g1627
sg28
Nsg44
S'Repo Description'
p1629
stRp1630
ag3
(g4
g5
(dp1631
g14
S''
sg40
S'branch'
p1632
sg18
S''
sg42
S'Text'
p1633
sg19
S''
sg15
g1632
sg28
Nsg44
S'Default branch to clone from the repo'
p1634
stRp1635
ag3
(g4
g5
(dp1636
g14
S''
sg40
S'mirror'
p1637
sg18
S''
sg42
S'Text'
p1638
sg19
S''
sg15
g1637
sg28
Nsg44
S'Upstream URL that this repo is mirrored (readonly) from'
p1639
stRp1640
ag3
(g4
g5
(dp1641
g14
S''
sg40
S'options'
p1642
sg18
S''
sg42
S'Int'
p1643
sg19
S''
sg15
g1642
sg28
Nsg44
S'Repo options: 0 = nolfs, 1 = lfs'
p1644
stRp1645
ag3
(g4
g5
(dp1646
g14
S''
sg40
S'id'
p1647
sg18
S''
sg42
S'Int'
p1648
sg19
S''
sg15
g1647
sg28
Nsg44
S'Repo index ID'
p1649
stRp1650
ag3
(g4
g5
(dp1651
g14
S''
sg40
S'gcmrrserver'
p1652
sg18
S''
sg42
S'Text'
p1653
sg19
S''
sg15
g1652
sg28
Nsg44
S'gconn Mirror Server ID'
p1654
stRp1655
atRp1656
sg68
g1589
sg69
S'3'
sg70
g71
sg44
S'Repository specifications'
p1657
sg42
S'Repo'
p1658
sg74
S'74'
p1659
sg40
S'db.repo'
p1660
stRp1661
sS'revhx'
p1662
g3
(g4
g5
(dp1663
g7
S'depotFile'
p1664
sg9
g3
(g10
g11
(lp1665
g3
(g4
g5
(dp1666
g14
S''
sg15
g16
sg17
g16
sg18
S''
sg19
S''
sg20
g21
sg22
g23
stRp1667
ag3
(g4
g5
(dp1668
g14
S''
sg17
g26
sg18
S''
sg20
g27
sg19
S''
sg15
g26
sg28
Nsg22
g29
stRp1669
ag3
(g4
g5
(dp1670
g14
S''
sg17
g32
sg18
S''
sg20
g21
sg19
S''
sg15
g32
sg28
Nsg22
g33
stRp1671
ag3
(g4
g5
(dp1672
g14
S''
sg17
g36
sg18
S''
sg20
g27
sg19
S''
sg15
g36
sg28
Nsg22
g37
stRp1673
ag3
(g4
g5
(dp1674
g14
S''
sg40
g91
sg18
S''
sg42
g92
sg19
S''
sg15
g91
sg28
Nsg44
g93
stRp1675
ag3
(g4
g5
(dp1676
g14
S''
sg40
g96
sg18
S''
sg42
g97
sg19
S''
sg15
g96
sg28
Nsg44
g98
stRp1677
ag3
(g4
g5
(dp1678
g14
S''
sg40
g101
sg18
S''
sg42
g102
sg19
S''
sg15
g101
sg28
Nsg44
g103
stRp1679
ag3
(g4
g5
(dp1680
g14
S''
sg40
g106
sg18
S''
sg42
g107
sg19
S''
sg15
g106
sg28
Nsg44
g108
stRp1681
ag3
(g4
g5
(dp1682
g14
S''
sg40
g111
sg18
S''
sg42
g112
sg19
S''
sg15
g111
sg28
Nsg44
g113
stRp1683
ag3
(g4
g5
(dp1684
g14
S''
sg40
g116
sg18
S''
sg42
g117
sg19
S''
sg15
g116
sg28
Nsg44
g118
stRp1685
ag3
(g4
g5
(dp1686
g14
S''
sg40
g121
sg18
S''
sg42
g122
sg19
S''
sg15
g121
sg28
Nsg44
g123
stRp1687
ag3
(g4
g5
(dp1688
g14
S''
sg40
g126
sg18
S''
sg42
g127
sg19
S''
sg15
g126
sg28
Nsg44
g128
stRp1689
ag3
(g4
g5
(dp1690
g14
S''
sg40
g131
sg18
S''
sg42
g132
sg19
S''
sg15
g131
sg28
Nsg44
g133
stRp1691
ag3
(g4
g5
(dp1692
g14
S''
sg40
g136
sg18
S''
sg42
g137
sg19
S''
sg15
g136
sg28
Nsg44
g138
stRp1693
ag3
(g4
g5
(dp1694
g14
S''
sg40
g141
sg18
S''
sg42
g142
sg19
S''
sg15
g141
sg28
Nsg44
g143
stRp1695
ag3
(g4
g5
(dp1696
g14
S''
sg40
g146
sg18
S''
sg42
g147
sg19
S''
sg15
g146
sg28
Nsg44
g148
stRp1697
ag3
(g4
g5
(dp1698
g14
S''
sg40
g151
sg18
S''
sg42
g152
sg19
S''
sg15
g151
sg28
Nsg44
g153
stRp1699
ag3
(g4
g5
(dp1700
g14
S''
sg40
g156
sg18
S''
sg42
g157
sg19
S''
sg15
g156
sg28
Nsg44
g158
stRp1701
atRp1702
sg68
g1662
sg69
S'9'
sg70
g71
sg44
S'Revision records for revisions NOT deleted at the head revision'
p1703
sg42
S'Rev'
p1704
sg74
S'49'
p1705
sg40
S'db.revhx'
p1706
stRp1707
sS'haveg'
p1708
g3
(g4
g5
(dp1709
g7
S'repo, clientFile'
p1710
sg9
g3
(g10
g11
(lp1711
g3
(g4
g5
(dp1712
g14
S''
sg15
g16
sg17
g16
sg18
S''
sg19
S''
sg20
g21
sg22
g23
stRp1713
ag3
(g4
g5
(dp1714
g14
S''
sg17
g26
sg18
S''
sg20
g27
sg19
S''
sg15
g26
sg28
Nsg22
g29
stRp1715
ag3
(g4
g5
(dp1716
g14
S''
sg17
g32
sg18
S''
sg20
g21
sg19
S''
sg15
g32
sg28
Nsg22
g33
stRp1717
ag3
(g4
g5
(dp1718
g14
S''
sg17
g36
sg18
S''
sg20
g27
sg19
S''
sg15
g36
sg28
Nsg22
g37
stRp1719
ag3
(g4
g5
(dp1720
g14
S''
sg40
S'repo'
p1721
sg18
S''
sg42
S'Key'
p1722
sg19
S''
sg15
g1721
sg28
Nsg44
S'Repository name'
p1723
stRp1724
ag3
(g4
g5
(dp1725
g14
S''
sg40
S'clientFile'
p1726
sg18
S''
sg42
S'File'
p1727
sg19
S''
sg15
g1726
sg28
Nsg44
S'The file in its location on the client'
p1728
stRp1729
ag3
(g4
g5
(dp1730
g14
S''
sg40
S'depotFile'
p1731
sg18
S''
sg42
S'File'
p1732
sg19
S''
sg15
g1731
sg28
Nsg44
S'The git file path'
p1733
stRp1734
ag3
(g4
g5
(dp1735
g14
S''
sg40
S'client'
p1736
sg18
S''
sg42
S'Domain'
p1737
sg19
S''
sg15
g1736
sg28
Nsg44
S'Domain (client) in which file is synced'
p1738
stRp1739
ag3
(g4
g5
(dp1740
g14
S''
sg40
S'type'
p1741
sg18
S''
sg42
S'FileType'
p1742
sg19
S''
sg15
g1741
sg28
Nsg44
S'The filetype of the synced revision'
p1743
stRp1744
ag3
(g4
g5
(dp1745
g14
S''
sg40
S'action'
p1746
sg18
S''
sg42
S'Action'
p1747
sg19
S''
sg15
g1746
sg28
Nsg44
S'Action file is open for: add, edit, delete, branch, integrate, or import'
p1748
stRp1749
ag3
(g4
g5
(dp1750
g14
S''
sg40
S'blobSha'
p1751
sg18
S''
sg42
S'SHA1'
p1752
sg19
S''
sg15
g1751
sg28
Nsg44
S'SHA of blob'
p1753
stRp1754
ag3
(g4
g5
(dp1755
g14
S''
sg40
S'commitSha'
p1756
sg18
S''
sg42
S'SHA1'
p1757
sg19
S''
sg15
g1756
sg28
Nsg44
S'SHA of commit that added/edited this file'
p1758
stRp1759
ag3
(g4
g5
(dp1760
g14
S''
sg40
S'flags'
p1761
sg18
S''
sg42
S'Int'
p1762
sg19
S''
sg15
g1761
sg28
Nsg44
S'Miscellaneous flags'
p1763
stRp1764
atRp1765
sg68
g1708
sg69
S'0'
sg70
g71
sg44
S"Contains the 'have-list' for graph depot files that are not at the same revision as defined by the client's have reference."
p1766
sg42
S'Haveg'
p1767
sg74
S'64'
p1768
sg40
S'db.haveg'
p1769
stRp1770
sS'revux'
p1771
g3
(g4
g5
(dp1772
g7
S'depotFile, depotRev'
p1773
sg9
g3
(g10
g11
(lp1774
g3
(g4
g5
(dp1775
g14
S''
sg15
g16
sg17
g16
sg18
S''
sg19
S''
sg20
g21
sg22
g23
stRp1776
ag3
(g4
g5
(dp1777
g14
S''
sg17
g26
sg18
S''
sg20
g27
sg19
S''
sg15
g26
sg28
Nsg22
g29
stRp1778
ag3
(g4
g5
(dp1779
g14
S''
sg17
g32
sg18
S''
sg20
g21
sg19
S''
sg15
g32
sg28
Nsg22
g33
stRp1780
ag3
(g4
g5
(dp1781
g14
S''
sg17
g36
sg18
S''
sg20
g27
sg19
S''
sg15
g36
sg28
Nsg22
g37
stRp1782
ag3
(g4
g5
(dp1783
g14
S''
sg40
g91
sg18
S''
sg42
g92
sg19
S''
sg15
g91
sg28
Nsg44
g93
stRp1784
ag3
(g4
g5
(dp1785
g14
S''
sg40
g96
sg18
S''
sg42
g97
sg19
S''
sg15
g96
sg28
Nsg44
g98
stRp1786
ag3
(g4
g5
(dp1787
g14
S''
sg40
g101
sg18
S''
sg42
g102
sg19
S''
sg15
g101
sg28
Nsg44
g103
stRp1788
ag3
(g4
g5
(dp1789
g14
S''
sg40
g106
sg18
S''
sg42
g107
sg19
S''
sg15
g106
sg28
Nsg44
g108
stRp1790
ag3
(g4
g5
(dp1791
g14
S''
sg40
g111
sg18
S''
sg42
g112
sg19
S''
sg15
g111
sg28
Nsg44
g113
stRp1792
ag3
(g4
g5
(dp1793
g14
S''
sg40
g116
sg18
S''
sg42
g117
sg19
S''
sg15
g116
sg28
Nsg44
g118
stRp1794
ag3
(g4
g5
(dp1795
g14
S''
sg40
g121
sg18
S''
sg42
g122
sg19
S''
sg15
g121
sg28
Nsg44
g123
stRp1796
ag3
(g4
g5
(dp1797
g14
S''
sg40
g126
sg18
S''
sg42
g127
sg19
S''
sg15
g126
sg28
Nsg44
g128
stRp1798
ag3
(g4
g5
(dp1799
g14
S''
sg40
g131
sg18
S''
sg42
g132
sg19
S''
sg15
g131
sg28
Nsg44
g133
stRp1800
ag3
(g4
g5
(dp1801
g14
S''
sg40
g136
sg18
S''
sg42
g137
sg19
S''
sg15
g136
sg28
Nsg44
g138
stRp1802
ag3
(g4
g5
(dp1803
g14
S''
sg40
g141
sg18
S''
sg42
g142
sg19
S''
sg15
g141
sg28
Nsg44
g143
stRp1804
ag3
(g4
g5
(dp1805
g14
S''
sg40
g146
sg18
S''
sg42
g147
sg19
S''
sg15
g146
sg28
Nsg44
g148
stRp1806
ag3
(g4
g5
(dp1807
g14
S''
sg40
g151
sg18
S''
sg42
g152
sg19
S''
sg15
g151
sg28
Nsg44
g153
stRp1808
ag3
(g4
g5
(dp1809
g14
S''
sg40
g156
sg18
S''
sg42
g157
sg19
S''
sg15
g156
sg28
Nsg44
g158
stRp1810
atRp1811
sg68
g1771
sg69
S'9'
sg70
g71
sg44
S'Revision records for unload depot files'
p1812
sg42
S'Rev'
p1813
sg74
S'54'
p1814
sg40
S'db.revux'
p1815
stRp1816
sS'jnlack'
p1817
g3
(g4
g5
(dp1818
g7
S'serverId'
p1819
sg9
g3
(g10
g11
(lp1820
g3
(g4
g5
(dp1821
g14
S''
sg15
g16
sg17
g16
sg18
S''
sg19
S''
sg20
g21
sg22
g23
stRp1822
ag3
(g4
g5
(dp1823
g14
S''
sg17
g26
sg18
S''
sg20
g27
sg19
S''
sg15
g26
sg28
Nsg22
g29
stRp1824
ag3
(g4
g5
(dp1825
g14
S''
sg17
g32
sg18
S''
sg20
g21
sg19
S''
sg15
g32
sg28
Nsg22
g33
stRp1826
ag3
(g4
g5
(dp1827
g14
S''
sg17
g36
sg18
S''
sg20
g27
sg19
S''
sg15
g36
sg28
Nsg22
g37
stRp1828
ag3
(g4
g5
(dp1829
g14
S''
sg40
S'serverId'
p1830
sg18
S''
sg42
S'Key'
p1831
sg19
S''
sg15
g1830
sg28
Nsg44
S'The serverId of the replica for whom this record applies'
p1832
stRp1833
ag3
(g4
g5
(dp1834
g14
S''
sg40
S'lastUpdate'
p1835
sg18
S''
sg42
S'Date'
p1836
sg19
S''
sg15
g1835
sg28
Nsg44
S'The date and time of last update'
p1837
stRp1838
ag3
(g4
g5
(dp1839
g14
S''
sg40
S'serverType'
p1840
sg18
S''
sg42
S'ServerServiceType'
p1841
sg19
S''
sg15
g1840
sg28
Nsg44
S'The server services offered by this replica'
p1842
stRp1843
ag3
(g4
g5
(dp1844
g14
S''
sg40
S'persistedJnl'
p1845
sg18
S''
sg42
S'Int'
p1846
sg19
S''
sg15
g1845
sg28
Nsg44
S'The last journal number persisted by this replica'
p1847
stRp1848
ag3
(g4
g5
(dp1849
g14
S''
sg40
S'appliedJnl'
p1850
sg18
S''
sg42
S'Int'
p1851
sg19
S''
sg15
g1850
sg28
Nsg44
S'The last journal number applied by this replica'
p1852
stRp1853
ag3
(g4
g5
(dp1854
g14
S''
sg40
S'persistedPos'
p1855
sg18
S''
sg42
S'Int64'
p1856
sg19
S''
sg15
g1855
sg28
Nsg44
S'The last journal position persisted by this replica'
p1857
stRp1858
ag3
(g4
g5
(dp1859
g14
S''
sg40
S'appliedPos'
p1860
sg18
S''
sg42
S'Int64'
p1861
sg19
S''
sg15
g1860
sg28
Nsg44
S'The last journal position applied by this replica'
p1862
stRp1863
ag3
(g4
g5
(dp1864
g14
S''
sg40
S'jcflags'
p1865
sg18
S''
sg42
S'JournalCopyFlags'
p1866
sg19
S''
sg15
g1865
sg28
Nsg44
S'Journalcopy Flags'
p1867
stRp1868
ag3
(g4
g5
(dp1869
g14
S''
sg40
S'isAlive'
p1870
sg18
S''
sg42
S'Int'
p1871
sg19
S''
sg15
g1870
sg28
Nsg44
S'1 = alive'
p1872
stRp1873
ag3
(g4
g5
(dp1874
g14
S''
sg40
S'serverOptions'
p1875
sg18
S''
sg42
S'ServerOptionsType'
p1876
sg19
S''
sg15
g1875
sg28
Nsg44
S'Server Options'
p1877
stRp1878
ag3
(g4
g5
(dp1879
g14
S''
sg40
S'failoverSeen'
p1880
sg18
S''
sg42
S'Text'
p1881
sg19
S''
sg15
g1880
sg28
Nsg44
S'Failover was seen'
p1882
stRp1883
atRp1884
sg68
g1817
sg69
S'1'
sg70
g71
sg44
S'Tracks journal positions of all replicas'
p1885
sg42
S'JnlAck'
p1886
sg74
S'102'
p1887
sg40
S'db.jnlack'
p1888
stRp1889
sS'excl'
p1890
g3
(g4
g5
(dp1891
g7
S'depotFile'
p1892
sg9
g3
(g10
g11
(lp1893
g3
(g4
g5
(dp1894
g14
S''
sg15
g16
sg17
g16
sg18
S''
sg19
S''
sg20
g21
sg22
g23
stRp1895
ag3
(g4
g5
(dp1896
g14
S''
sg17
g26
sg18
S''
sg20
g27
sg19
S''
sg15
g26
sg28
Nsg22
g29
stRp1897
ag3
(g4
g5
(dp1898
g14
S''
sg17
g32
sg18
S''
sg20
g21
sg19
S''
sg15
g32
sg28
Nsg22
g33
stRp1899
ag3
(g4
g5
(dp1900
g14
S''
sg17
g36
sg18
S''
sg20
g27
sg19
S''
sg15
g36
sg28
Nsg22
g37
stRp1901
ag3
(g4
g5
(dp1902
g14
S''
sg40
S'depotFile'
p1903
sg18
S''
sg42
S'File'
p1904
sg19
S''
sg15
g1903
sg28
Nsg44
S'The file locked'
p1905
stRp1906
ag3
(g4
g5
(dp1907
g14
S''
sg40
S'client'
p1908
sg18
S''
sg42
S'Domain'
p1909
sg19
S''
sg15
g1908
sg28
Nsg44
S'The client for which the file is locked'
p1910
stRp1911
ag3
(g4
g5
(dp1912
g14
S''
sg40
S'user'
p1913
sg18
S''
sg42
S'User'
p1914
sg19
S''
sg15
g1913
sg28
Nsg44
S'The user for which the file is locked'
p1915
stRp1916
atRp1917
sg68
g1890
sg69
S'1'
sg70
g71
sg44
S'Exclusively locked (+l) files -  enables coordinated file locking in commit/edge server environments'
p1918
sg42
S'ExclusiveLock'
p1919
sg74
S'65'
p1920
sg40
S'db.excl'
p1921
stRp1922
sS'resolvex'
p1923
g3
(g4
g5
(dp1924
g7
S'toFile, fromFile, startFromRev'
p1925
sg9
g3
(g10
g11
(lp1926
g3
(g4
g5
(dp1927
g14
S''
sg15
g16
sg17
g16
sg18
S''
sg19
S''
sg20
g21
sg22
g23
stRp1928
ag3
(g4
g5
(dp1929
g14
S''
sg17
g26
sg18
S''
sg20
g27
sg19
S''
sg15
g26
sg28
Nsg22
g29
stRp1930
ag3
(g4
g5
(dp1931
g14
S''
sg17
g32
sg18
S''
sg20
g21
sg19
S''
sg15
g32
sg28
Nsg22
g33
stRp1932
ag3
(g4
g5
(dp1933
g14
S''
sg17
g36
sg18
S''
sg20
g27
sg19
S''
sg15
g36
sg28
Nsg22
g37
stRp1934
ag3
(g4
g5
(dp1935
g14
S''
sg40
S'toFile'
p1936
sg18
S''
sg42
S'File'
p1937
sg19
S''
sg15
g1936
sg28
Nsg44
S'File to which integration is being performed (target).'
p1938
stRp1939
ag3
(g4
g5
(dp1940
g14
S''
sg40
S'fromFile'
p1941
sg18
S''
sg42
S'File'
p1942
sg19
S''
sg15
g1941
sg28
Nsg44
S'File from which integration is being performed (source).'
p1943
stRp1944
ag3
(g4
g5
(dp1945
g14
S''
sg40
S'startFromRev'
p1946
sg18
S''
sg42
S'Rev'
p1947
sg19
S''
sg15
g1946
sg28
Nsg44
S'Starting revision of fromFile'
p1948
stRp1949
ag3
(g4
g5
(dp1950
g14
S''
sg40
S'endFromRev'
p1951
sg18
S''
sg42
S'Rev'
p1952
sg19
S''
sg15
g1951
sg28
Nsg44
S'Ending revision of fromFile'
p1953
stRp1954
ag3
(g4
g5
(dp1955
g14
S''
sg40
S'startToRev'
p1956
sg18
S''
sg42
S'Rev'
p1957
sg19
S''
sg15
g1956
sg28
Nsg44
S'Start revision of toFile into which integration was \n\t\t    performed.'
p1958
stRp1959
ag3
(g4
g5
(dp1960
g14
S''
sg40
S'endToRev'
p1961
sg18
S''
sg42
S'Rev'
p1962
sg19
S''
sg15
g1961
sg28
Nsg44
S'End revision of toFile into which integration was \n\t\t    performed. Only varies from startToRev for reverse \n\t\t    integration records.'
p1963
stRp1964
ag3
(g4
g5
(dp1965
g14
S''
sg40
S'how'
p1966
sg18
S''
sg42
S'IntegHow'
p1967
sg19
S''
sg15
g1966
sg28
Nsg44
S'Integration method: variations on \n\t\t    merge/branch/copy/ignore/delete.'
p1968
stRp1969
ag3
(g4
g5
(dp1970
g14
S''
sg40
S'state'
p1971
sg18
S''
sg42
S'ResolveState'
p1972
sg19
S''
sg15
g1971
sg28
Nsg44
S'How the user performed the resolve.'
p1973
stRp1974
ag3
(g4
g5
(dp1975
g14
S''
sg40
S'baseFile'
p1976
sg18
S''
sg42
S'File'
p1977
sg19
S''
sg15
g1976
sg28
Nsg44
S'File used as the base for merging.'
p1978
stRp1979
ag3
(g4
g5
(dp1980
g14
S''
sg40
S'baseRev'
p1981
sg18
S''
sg42
S'Rev'
p1982
sg19
S''
sg15
g1981
sg28
Nsg44
S'Revision of baseFile used as the merge base.'
p1983
stRp1984
atRp1985
sg68
g1923
sg40
S'db.resolvex'
p1986
sg69
S'1'
sg70
g71
sg915
S'db.integed'
p1987
sg42
S'Resolve'
p1988
sg74
S'39'
p1989
sg44
S'Pending integration records for shelved files'
p1990
stRp1991
sS'desc'
p1992
g3
(g4
g5
(dp1993
g7
S'descKey'
p1994
sg9
g3
(g10
g11
(lp1995
g3
(g4
g5
(dp1996
g14
S''
sg15
g16
sg17
g16
sg18
S''
sg19
S''
sg20
g21
sg22
g23
stRp1997
ag3
(g4
g5
(dp1998
g14
S''
sg17
g26
sg18
S''
sg20
g27
sg19
S''
sg15
g26
sg28
Nsg22
g29
stRp1999
ag3
(g4
g5
(dp2000
g14
S''
sg17
g32
sg18
S''
sg20
g21
sg19
S''
sg15
g32
sg28
Nsg22
g33
stRp2001
ag3
(g4
g5
(dp2002
g14
S''
sg17
g36
sg18
S''
sg20
g27
sg19
S''
sg15
g36
sg28
Nsg22
g37
stRp2003
ag3
(g4
g5
(dp2004
g14
S''
sg40
S'descKey'
p2005
sg18
S''
sg42
S'Change'
p2006
sg19
S''
sg15
g2005
sg28
Nsg44
S'Original number of the change to which this description\n\t\t    applies. This may differ from the final change number if\n\t\t    the change is renumbered on submission.'
p2007
stRp2008
ag3
(g4
g5
(dp2009
g14
S''
sg40
S'description'
p2010
sg18
S''
sg42
S'Text'
p2011
sg19
S''
sg15
g2010
sg28
Nsg44
S'The change description itself'
p2012
stRp2013
atRp2014
sg68
g1992
sg69
S'0'
sg70
g71
sg44
S'Change descriptions'
p2015
sg42
S'Desc'
p2016
sg74
S'73'
p2017
sg40
S'db.desc'
p2018
stRp2019
sS'resolve'
p2020
g3
(g4
g5
(dp2021
g7
S'toFile, fromFile, startFromRev'
p2022
sg9
g3
(g10
g11
(lp2023
g3
(g4
g5
(dp2024
g14
S''
sg15
g16
sg17
g16
sg18
S''
sg19
S''
sg20
g21
sg22
g23
stRp2025
ag3
(g4
g5
(dp2026
g14
S''
sg17
g26
sg18
S''
sg20
g27
sg19
S''
sg15
g26
sg28
Nsg22
g29
stRp2027
ag3
(g4
g5
(dp2028
g14
S''
sg17
g32
sg18
S''
sg20
g21
sg19
S''
sg15
g32
sg28
Nsg22
g33
stRp2029
ag3
(g4
g5
(dp2030
g14
S''
sg17
g36
sg18
S''
sg20
g27
sg19
S''
sg15
g36
sg28
Nsg22
g37
stRp2031
ag3
(g4
g5
(dp2032
g14
S''
sg40
g1936
sg18
S''
sg42
g1937
sg19
S''
sg15
g1936
sg28
Nsg44
g1938
stRp2033
ag3
(g4
g5
(dp2034
g14
S''
sg40
g1941
sg18
S''
sg42
g1942
sg19
S''
sg15
g1941
sg28
Nsg44
g1943
stRp2035
ag3
(g4
g5
(dp2036
g14
S''
sg40
g1946
sg18
S''
sg42
g1947
sg19
S''
sg15
g1946
sg28
Nsg44
g1948
stRp2037
ag3
(g4
g5
(dp2038
g14
S''
sg40
g1951
sg18
S''
sg42
g1952
sg19
S''
sg15
g1951
sg28
Nsg44
g1953
stRp2039
ag3
(g4
g5
(dp2040
g14
S''
sg40
g1956
sg18
S''
sg42
g1957
sg19
S''
sg15
g1956
sg28
Nsg44
g1958
stRp2041
ag3
(g4
g5
(dp2042
g14
S''
sg40
g1961
sg18
S''
sg42
g1962
sg19
S''
sg15
g1961
sg28
Nsg44
g1963
stRp2043
ag3
(g4
g5
(dp2044
g14
S''
sg40
g1966
sg18
S''
sg42
g1967
sg19
S''
sg15
g1966
sg28
Nsg44
g1968
stRp2045
ag3
(g4
g5
(dp2046
g14
S''
sg40
g1971
sg18
S''
sg42
g1972
sg19
S''
sg15
g1971
sg28
Nsg44
g1973
stRp2047
ag3
(g4
g5
(dp2048
g14
S''
sg40
g1976
sg18
S''
sg42
g1977
sg19
S''
sg15
g1976
sg28
Nsg44
g1978
stRp2049
ag3
(g4
g5
(dp2050
g14
S''
sg40
g1981
sg18
S''
sg42
g1982
sg19
S''
sg15
g1981
sg28
Nsg44
g1983
stRp2051
atRp2052
sg68
g2020
sg40
S'db.resolve'
p2053
sg69
S'1'
sg70
g71
sg915
S'db.integed'
p2054
sg42
S'Resolve'
p2055
sg74
S'38'
p2056
sg44
S'Pending integration records'
p2057
stRp2058
sS'traits'
p2059
g3
(g4
g5
(dp2060
g7
S'traitLot, name'
p2061
sg9
g3
(g10
g11
(lp2062
g3
(g4
g5
(dp2063
g14
S''
sg15
g16
sg17
g16
sg18
S''
sg19
S''
sg20
g21
sg22
g23
stRp2064
ag3
(g4
g5
(dp2065
g14
S''
sg17
g26
sg18
S''
sg20
g27
sg19
S''
sg15
g26
sg28
Nsg22
g29
stRp2066
ag3
(g4
g5
(dp2067
g14
S''
sg17
g32
sg18
S''
sg20
g21
sg19
S''
sg15
g32
sg28
Nsg22
g33
stRp2068
ag3
(g4
g5
(dp2069
g14
S''
sg17
g36
sg18
S''
sg20
g27
sg19
S''
sg15
g36
sg28
Nsg22
g37
stRp2070
ag3
(g4
g5
(dp2071
g14
S''
sg40
S'traitLot'
p2072
sg18
S''
sg42
S'Int'
p2073
sg19
S''
sg15
g2072
sg28
Nsg44
S'Indicates a specific collection of traits (referred to \n\t\t    externally as "attributes".)'
p2074
stRp2075
ag3
(g4
g5
(dp2076
g14
S''
sg40
S'name'
p2077
sg18
S''
sg42
S'Key'
p2078
sg19
S''
sg15
g2077
sg28
Nsg44
S'Trait (attribute) name'
p2079
stRp2080
ag3
(g4
g5
(dp2081
g14
S''
sg40
S'type'
p2082
sg18
S''
sg42
S'TraitType'
p2083
sg19
S''
sg15
g2082
sg28
Nsg44
S'Type of trait'
p2084
stRp2085
ag3
(g4
g5
(dp2086
g14
S''
sg40
S'value'
p2087
sg18
S''
sg42
S'Octet String'
p2088
sg19
S''
sg15
g2087
sg28
Nsg44
S'The value'
p2089
stRp2090
atRp2091
sg68
g2059
sg69
S'0'
sg70
g71
sg44
S'Attributes associated with file revisions'
p2092
sg42
S'Trait'
p2093
sg74
S'68'
p2094
sg40
S'db.traits'
p2095
stRp2096
sS'ref'
p2097
g3
(g4
g5
(dp2098
g7
S'repo, type, name'
p2099
sg9
g3
(g10
g11
(lp2100
g3
(g4
g5
(dp2101
g14
S''
sg15
g16
sg17
g16
sg18
S''
sg19
S''
sg20
g21
sg22
g23
stRp2102
ag3
(g4
g5
(dp2103
g14
S''
sg17
g26
sg18
S''
sg20
g27
sg19
S''
sg15
g26
sg28
Nsg22
g29
stRp2104
ag3
(g4
g5
(dp2105
g14
S''
sg17
g32
sg18
S''
sg20
g21
sg19
S''
sg15
g32
sg28
Nsg22
g33
stRp2106
ag3
(g4
g5
(dp2107
g14
S''
sg17
g36
sg18
S''
sg20
g27
sg19
S''
sg15
g36
sg28
Nsg22
g37
stRp2108
ag3
(g4
g5
(dp2109
g14
S''
sg40
S'repo'
p2110
sg18
S''
sg42
S'Key'
p2111
sg19
S''
sg15
g2110
sg28
Nsg44
S'Repository name'
p2112
stRp2113
ag3
(g4
g5
(dp2114
g14
S''
sg40
S'name'
p2115
sg18
S''
sg42
S'Key'
p2116
sg19
S''
sg15
g2115
sg28
Nsg44
S'Reference name'
p2117
stRp2118
ag3
(g4
g5
(dp2119
g14
S''
sg40
S'type'
p2120
sg18
S''
sg42
S'RefType'
p2121
sg19
S''
sg15
g2120
sg28
Nsg44
S'Reference type'
p2122
stRp2123
ag3
(g4
g5
(dp2124
g14
S''
sg40
S'ref'
p2125
sg18
S''
sg42
S'SHA1'
p2126
sg19
S''
sg15
g2125
sg28
Nsg44
S'Target of the reference'
p2127
stRp2128
ag3
(g4
g5
(dp2129
g14
S''
sg40
S'symref'
p2130
sg18
S''
sg42
S'Text'
p2131
sg19
S''
sg15
g2130
sg28
Nsg44
S'Target of symbolic reference'
p2132
stRp2133
atRp2134
sg68
g2097
sg69
S'0'
sg70
g71
sg44
S'Reference content for graph depots'
p2135
sg42
S'Ref'
p2136
sg74
S'76'
p2137
sg40
S'db.ref'
p2138
stRp2139
sS'server'
p2140
g3
(g4
g5
(dp2141
g7
S'id'
p2142
sg9
g3
(g10
g11
(lp2143
g3
(g4
g5
(dp2144
g14
S''
sg15
g16
sg17
g16
sg18
S''
sg19
S''
sg20
g21
sg22
g23
stRp2145
ag3
(g4
g5
(dp2146
g14
S''
sg17
g26
sg18
S''
sg20
g27
sg19
S''
sg15
g26
sg28
Nsg22
g29
stRp2147
ag3
(g4
g5
(dp2148
g14
S''
sg17
g32
sg18
S''
sg20
g21
sg19
S''
sg15
g32
sg28
Nsg22
g33
stRp2149
ag3
(g4
g5
(dp2150
g14
S''
sg17
g36
sg18
S''
sg20
g27
sg19
S''
sg15
g36
sg28
Nsg22
g37
stRp2151
ag3
(g4
g5
(dp2152
g14
S''
sg40
S'id'
p2153
sg18
S''
sg42
S'Key'
p2154
sg19
S''
sg15
g2153
sg28
Nsg44
S'The server identifier'
p2155
stRp2156
ag3
(g4
g5
(dp2157
g14
S''
sg40
S'type'
p2158
sg18
S''
sg42
S'ServerType'
p2159
sg19
S''
sg15
g2158
sg28
Nsg44
S'The server type: server/broker/proxy'
p2160
stRp2161
ag3
(g4
g5
(dp2162
g14
S''
sg40
S'name'
p2163
sg18
S''
sg42
S'Text'
p2164
sg19
S''
sg15
g2163
sg28
Nsg44
S'The P4NAME used by this server'
p2165
stRp2166
ag3
(g4
g5
(dp2167
g14
S''
sg40
S'address'
p2168
sg18
S''
sg42
S'Text'
p2169
sg19
S''
sg15
g2168
sg28
Nsg44
S'The P4PORT used by this server'
p2170
stRp2171
ag3
(g4
g5
(dp2172
g14
S''
sg40
S'externalAddress'
p2173
sg18
S''
sg42
S'Text'
p2174
sg19
S''
sg15
g2173
sg28
Nsg44
S'For an edge server, this optional field contains its external address for connections from the commit server. This field is required for federated parallel submit.'
p2175
stRp2176
ag3
(g4
g5
(dp2177
g14
S''
sg40
S'services'
p2178
sg18
S''
sg42
S'ServerServiceType'
p2179
sg19
S''
sg15
g2178
sg28
Nsg44
S'Service provided by this server'
p2180
stRp2181
ag3
(g4
g5
(dp2182
g14
S''
sg40
S'desc'
p2183
sg18
S''
sg42
S'Text'
p2184
sg19
S''
sg15
g2183
sg28
Nsg44
S'Server description'
p2185
stRp2186
ag3
(g4
g5
(dp2187
g14
S''
sg40
S'user'
p2188
sg18
S''
sg42
S'User'
p2189
sg19
S''
sg15
g2188
sg28
Nsg44
S'The service user used by this server'
p2190
stRp2191
ag3
(g4
g5
(dp2192
g14
S''
sg40
S'options'
p2193
sg18
S''
sg42
S'ServerOptionsType'
p2194
sg19
S''
sg15
g2193
sg28
Nsg44
S'Server options'
p2195
stRp2196
ag3
(g4
g5
(dp2197
g14
S''
sg40
S'rplFrom'
p2198
sg18
S''
sg42
S'Key'
p2199
sg19
S''
sg15
g2198
sg28
Nsg44
S'Replication from Server ID'
p2200
stRp2201
ag3
(g4
g5
(dp2202
g14
S''
sg40
S'failoverSeen'
p2203
sg18
S''
sg42
S'Text'
p2204
sg19
S''
sg15
g2203
sg28
Nsg44
S'Mark failover as seen'
p2205
stRp2206
atRp2207
sg68
g2140
sg69
S'3'
sg70
g71
sg44
S'Server specifications'
p2208
sg42
S'Server'
p2209
sg74
S'9'
sg40
S'db.server'
p2210
stRp2211
sS'scanctl'
p2212
g3
(g4
g5
(dp2213
g7
S'file'
p2214
sg9
g3
(g10
g11
(lp2215
g3
(g4
g5
(dp2216
g14
S''
sg15
g16
sg17
g16
sg18
S''
sg19
S''
sg20
g21
sg22
g23
stRp2217
ag3
(g4
g5
(dp2218
g14
S''
sg17
g26
sg18
S''
sg20
g27
sg19
S''
sg15
g26
sg28
Nsg22
g29
stRp2219
ag3
(g4
g5
(dp2220
g14
S''
sg17
g32
sg18
S''
sg20
g21
sg19
S''
sg15
g32
sg28
Nsg22
g33
stRp2221
ag3
(g4
g5
(dp2222
g14
S''
sg17
g36
sg18
S''
sg20
g27
sg19
S''
sg15
g36
sg28
Nsg22
g37
stRp2223
ag3
(g4
g5
(dp2224
g14
S''
sg40
S'depotPath'
p2225
sg18
S''
sg42
S'File'
p2226
sg19
S''
sg15
g2225
sg28
Nsg44
S'name of scanner task'
p2227
stRp2228
ag3
(g4
g5
(dp2229
g14
S''
sg40
S'state'
p2230
sg18
S''
sg42
S'ScanState'
p2231
sg19
S''
sg15
g2230
sg28
Nsg44
S'scan state'
p2232
stRp2233
ag3
(g4
g5
(dp2234
g14
S''
sg40
S'seq'
p2235
sg18
S''
sg42
S'Int'
p2236
sg19
S''
sg15
g2235
sg28
Nsg44
S'Next internal sequence number of working directories'
p2237
stRp2238
ag3
(g4
g5
(dp2239
g14
S''
sg40
S'dirs'
p2240
sg18
S''
sg42
S'Int'
p2241
sg19
S''
sg15
g2240
sg28
Nsg44
S'directories processed'
p2242
stRp2243
ag3
(g4
g5
(dp2244
g14
S''
sg40
S'files'
p2245
sg18
S''
sg42
S'Int'
p2246
sg19
S''
sg15
g2245
sg28
Nsg44
S'files processed'
p2247
stRp2248
ag3
(g4
g5
(dp2249
g14
S''
sg40
S'zeros'
p2250
sg18
S''
sg42
S'Int'
p2251
sg19
S''
sg15
g2250
sg28
Nsg44
S'orphaned revisions'
p2252
stRp2253
ag3
(g4
g5
(dp2254
g14
S''
sg40
S'dirserr'
p2255
sg18
S''
sg42
S'Int'
p2256
sg19
S''
sg15
g2255
sg28
Nsg44
S'directories skipped due to errors'
p2257
stRp2258
ag3
(g4
g5
(dp2259
g14
S''
sg40
S'pri'
p2260
sg18
S''
sg42
S'Int'
p2261
sg19
S''
sg15
g2260
sg28
Nsg44
S'Priority (unused)'
p2262
stRp2263
ag3
(g4
g5
(dp2264
g14
S''
sg40
S'reqpause'
p2265
sg18
S''
sg42
S'Int'
p2266
sg19
S''
sg15
g2265
sg28
Nsg44
S'request paused'
p2267
stRp2268
ag3
(g4
g5
(dp2269
g14
S''
sg40
S'err'
p2270
sg18
S''
sg42
S'Text'
p2271
sg19
S''
sg15
g2270
sg28
Nsg44
S'background process error'
p2272
stRp2273
atRp2274
sg68
g2212
sg69
S'0'
sg70
g71
sg44
S'ScanCtl'
p2275
sg42
S'ScanCtl'
p2276
sg74
S'44'
p2277
sg40
S'db.scanctl'
p2278
stRp2279
sS'upgradesrp'
p2280
g3
(g4
g5
(dp2281
g7
S'seq'
p2282
sg9
g3
(g10
g11
(lp2283
g3
(g4
g5
(dp2284
g14
S''
sg15
g16
sg17
g16
sg18
S''
sg19
S''
sg20
g21
sg22
g23
stRp2285
ag3
(g4
g5
(dp2286
g14
S''
sg17
g26
sg18
S''
sg20
g27
sg19
S''
sg15
g26
sg28
Nsg22
g29
stRp2287
ag3
(g4
g5
(dp2288
g14
S''
sg17
g32
sg18
S''
sg20
g21
sg19
S''
sg15
g32
sg28
Nsg22
g33
stRp2289
ag3
(g4
g5
(dp2290
g14
S''
sg17
g36
sg18
S''
sg20
g27
sg19
S''
sg15
g36
sg28
Nsg22
g37
stRp2291
ag3
(g4
g5
(dp2292
g14
S''
sg40
g316
sg18
S''
sg42
g317
sg19
S''
sg15
g316
sg28
Nsg44
g318
stRp2293
ag3
(g4
g5
(dp2294
g14
S''
sg40
g321
sg18
S''
sg42
g322
sg19
S''
sg15
g321
sg28
Nsg44
g323
stRp2295
ag3
(g4
g5
(dp2296
g14
S''
sg40
g326
sg18
S''
sg42
g327
sg19
S''
sg15
g326
sg28
Nsg44
g328
stRp2297
ag3
(g4
g5
(dp2298
g14
S''
sg40
g331
sg18
S''
sg42
g332
sg19
S''
sg15
g331
sg28
Nsg44
g333
stRp2299
ag3
(g4
g5
(dp2300
g14
S''
sg40
g336
sg18
S''
sg42
g337
sg19
S''
sg15
g336
sg28
Nsg44
g338
stRp2301
ag3
(g4
g5
(dp2302
g14
S''
sg40
g341
sg18
S''
sg42
g342
sg19
S''
sg15
g341
sg28
Nsg44
g343
stRp2303
atRp2304
sg68
g2280
sg69
S'0'
sg70
g71
sg44
S'Store replica upgrade info'
p2305
sg42
S'Upgrades'
p2306
sg74
S'5'
sg40
S'db.upgrades.rp'
p2307
stRp2308
sS'property'
p2309
g3
(g4
g5
(dp2310
g7
S'name, seq, type, scope'
p2311
sg9
g3
(g10
g11
(lp2312
g3
(g4
g5
(dp2313
g14
S''
sg15
g16
sg17
g16
sg18
S''
sg19
S''
sg20
g21
sg22
g23
stRp2314
ag3
(g4
g5
(dp2315
g14
S''
sg17
g26
sg18
S''
sg20
g27
sg19
S''
sg15
g26
sg28
Nsg22
g29
stRp2316
ag3
(g4
g5
(dp2317
g14
S''
sg17
g32
sg18
S''
sg20
g21
sg19
S''
sg15
g32
sg28
Nsg22
g33
stRp2318
ag3
(g4
g5
(dp2319
g14
S''
sg17
g36
sg18
S''
sg20
g27
sg19
S''
sg15
g36
sg28
Nsg22
g37
stRp2320
ag3
(g4
g5
(dp2321
g14
S''
sg40
S'name'
p2322
sg18
S''
sg42
S'Key'
p2323
sg19
S''
sg15
g2322
sg28
Nsg44
S'The property name'
p2324
stRp2325
ag3
(g4
g5
(dp2326
g14
S''
sg40
S'seq'
p2327
sg18
S''
sg42
S'Int'
p2328
sg19
S''
sg15
g2327
sg28
Nsg44
S'Sequence number of property'
p2329
stRp2330
ag3
(g4
g5
(dp2331
g14
S''
sg40
S'type'
p2332
sg18
S''
sg42
S'UserType'
p2333
sg19
S''
sg15
g2332
sg28
Nsg44
S'Only uses 1=user or 2=group and only applies when scope is set'
p2334
stRp2335
ag3
(g4
g5
(dp2336
g14
S''
sg40
S'scope'
p2337
sg18
S''
sg42
S'User'
p2338
sg19
S''
sg15
g2337
sg28
Nsg44
S'The user or group the property applies to (may be empty)'
p2339
stRp2340
ag3
(g4
g5
(dp2341
g14
S''
sg40
S'value'
p2342
sg18
S''
sg42
S'Value'
p2343
sg19
S''
sg15
g2342
sg28
Nsg44
S'The property value'
p2344
stRp2345
ag3
(g4
g5
(dp2346
g14
S''
sg40
S'date'
p2347
sg18
S''
sg42
S'Date'
p2348
sg19
S''
sg15
g2347
sg28
Nsg44
S'The date/time the property was last updated'
p2349
stRp2350
ag3
(g4
g5
(dp2351
g14
S''
sg40
S'user'
p2352
sg18
S''
sg42
S'User'
p2353
sg19
S''
sg15
g2352
sg28
Nsg44
S'The user that last modified the property'
p2354
stRp2355
atRp2356
sg68
g2309
sg69
S'0'
sg70
g71
sg44
S'Properties'
p2357
sg42
S'Property'
p2358
sg74
S'98'
p2359
sg40
S'db.property'
p2360
stRp2361
sS'view'
p2362
g3
(g4
g5
(dp2363
g7
S'name, seq'
p2364
sg9
g3
(g10
g11
(lp2365
g3
(g4
g5
(dp2366
g14
S''
sg15
g16
sg17
g16
sg18
S''
sg19
S''
sg20
g21
sg22
g23
stRp2367
ag3
(g4
g5
(dp2368
g14
S''
sg17
g26
sg18
S''
sg20
g27
sg19
S''
sg15
g26
sg28
Nsg22
g29
stRp2369
ag3
(g4
g5
(dp2370
g14
S''
sg17
g32
sg18
S''
sg20
g21
sg19
S''
sg15
g32
sg28
Nsg22
g33
stRp2371
ag3
(g4
g5
(dp2372
g14
S''
sg17
g36
sg18
S''
sg20
g27
sg19
S''
sg15
g36
sg28
Nsg22
g37
stRp2373
ag3
(g4
g5
(dp2374
g14
S''
sg40
S'name'
p2375
sg18
S''
sg42
S'Domain'
p2376
sg19
S''
sg15
g2375
sg28
Nsg44
S'Domain name to which this view applies'
p2377
stRp2378
ag3
(g4
g5
(dp2379
g14
S''
sg40
S'seq'
p2380
sg18
S''
sg42
S'Int'
p2381
sg19
S''
sg15
g2380
sg28
Nsg44
S'Sequence number: for ordering multi-line views'
p2382
stRp2383
ag3
(g4
g5
(dp2384
g14
S''
sg40
S'mapFlag'
p2385
sg18
S''
sg42
S'MapFlag'
p2386
sg19
S''
sg15
g2385
sg28
Nsg44
S'Type of mapping'
p2387
stRp2388
ag3
(g4
g5
(dp2389
g14
S''
sg40
S'viewFile'
p2390
sg18
S''
sg42
S'Mapping'
p2391
sg19
S''
sg15
g2390
sg28
Nsg44
S"The right-hand-side of the view. For clients, this is\n\t\t    the client-side, for labels it's the generated label \n\t\t    view. For branches, it's the target side of the branch\n\t\t    view."
p2392
stRp2393
ag3
(g4
g5
(dp2394
g14
S''
sg40
S'depotFile'
p2395
sg18
S''
sg42
S'Mapping'
p2396
sg19
S''
sg15
g2395
sg28
Nsg44
S'The left-hand-side of the view - a mapping to file(s)\n\t\t    in the depot.'
p2397
stRp2398
atRp2399
sg68
g2362
sg69
S'1'
sg70
g71
sg44
S'View data for domain records'
p2400
sg42
S'View'
p2401
sg74
S'27'
p2402
sg40
S'db.view'
p2403
stRp2404
sS'user'
p2405
g3
(g4
g5
(dp2406
g7
S'user'
p2407
sg9
g3
(g10
g11
(lp2408
g3
(g4
g5
(dp2409
g14
S''
sg15
g16
sg17
g16
sg18
S''
sg19
S''
sg20
g21
sg22
g23
stRp2410
ag3
(g4
g5
(dp2411
g14
S''
sg17
g26
sg18
S''
sg20
g27
sg19
S''
sg15
g26
sg28
Nsg22
g29
stRp2412
ag3
(g4
g5
(dp2413
g14
S''
sg17
g32
sg18
S''
sg20
g21
sg19
S''
sg15
g32
sg28
Nsg22
g33
stRp2414
ag3
(g4
g5
(dp2415
g14
S''
sg17
g36
sg18
S''
sg20
g27
sg19
S''
sg15
g36
sg28
Nsg22
g37
stRp2416
ag3
(g4
g5
(dp2417
g14
S''
sg40
S'user'
p2418
sg18
S''
sg42
S'User'
p2419
sg19
S''
sg15
g2418
sg28
Nsg44
S'The username'
p2420
stRp2421
ag3
(g4
g5
(dp2422
g14
S''
sg40
S'email'
p2423
sg18
S''
sg42
S'Text'
p2424
sg19
S''
sg15
g2423
sg28
Nsg44
S"The user's email address"
p2425
stRp2426
ag3
(g4
g5
(dp2427
g14
S''
sg40
S'jobView'
p2428
sg18
S''
sg42
S'Text'
p2429
sg19
S''
sg15
g2428
sg28
Nsg44
S"The user's job view"
p2430
stRp2431
ag3
(g4
g5
(dp2432
g14
S''
sg40
S'updateDate'
p2433
sg18
S''
sg42
S'Date'
p2434
sg19
S''
sg15
g2433
sg28
Nsg44
S'The date/time the user record was last updated'
p2435
stRp2436
ag3
(g4
g5
(dp2437
g14
S''
sg40
S'accessDate'
p2438
sg18
S''
sg42
S'Date'
p2439
sg19
S''
sg15
g2438
sg28
Nsg44
S'The date/time the user record was last used'
p2440
stRp2441
ag3
(g4
g5
(dp2442
g14
S''
sg40
S'fullName'
p2443
sg18
S''
sg42
S'Text'
p2444
sg19
S''
sg15
g2443
sg28
Nsg44
S"The user's full name"
p2445
stRp2446
ag3
(g4
g5
(dp2447
g14
S''
sg40
S'password'
p2448
sg18
S''
sg42
S'Password'
p2449
sg19
S''
sg15
g2448
sg28
Nsg44
S'The MD5 hash of the users (encrypted) password'
p2450
stRp2451
ag3
(g4
g5
(dp2452
g14
S''
sg40
S'strength'
p2453
sg18
S''
sg42
S'Strength'
p2454
sg19
S''
sg15
g2453
sg28
Nsg44
S"Measure of the strength of the user's password"
p2455
stRp2456
ag3
(g4
g5
(dp2457
g14
S''
sg40
S'ticket'
p2458
sg18
S''
sg42
S'Password'
p2459
sg19
S''
sg15
g2458
sg28
Nsg44
S"'p4 login' ticket for this user"
p2460
stRp2461
ag3
(g4
g5
(dp2462
g14
S''
sg40
S'endDate'
p2463
sg18
S''
sg42
S'Date'
p2464
sg19
S''
sg15
g2463
sg28
Nsg44
S"Date/time the user's ticket expires"
p2465
stRp2466
ag3
(g4
g5
(dp2467
g14
S''
sg40
S'type'
p2468
sg18
S''
sg42
S'UserLevel'
p2469
sg19
S''
sg15
g2468
sg28
Nsg44
S'Type of user'
p2470
stRp2471
ag3
(g4
g5
(dp2472
g14
S''
sg40
S'passDate'
p2473
sg18
S''
sg42
S'Date'
p2474
sg19
S''
sg15
g2473
sg28
Nsg44
S'Date password was last changed'
p2475
stRp2476
ag3
(g4
g5
(dp2477
g14
S''
sg40
S'passExpire'
p2478
sg18
S''
sg42
S'Date'
p2479
sg19
S''
sg15
g2478
sg28
Nsg44
S'Date of password expiration'
p2480
stRp2481
ag3
(g4
g5
(dp2482
g14
S''
sg40
S'attempts'
p2483
sg18
S''
sg42
S'Date'
p2484
sg19
S''
sg15
g2483
sg28
Nsg44
S'Failed login attempts'
p2485
stRp2486
ag3
(g4
g5
(dp2487
g14
S''
sg40
S'auth'
p2488
sg18
S''
sg42
S'UserAuthType'
p2489
sg19
S''
sg15
g2488
sg28
Nsg44
S'Authentication method (AuthMethod) for the user'
p2490
stRp2491
atRp2492
sg68
g2405
sg69
S'7'
sg70
g71
sg44
S'User specifications'
p2493
sg42
S'User'
p2494
sg74
S'15'
p2495
sg40
S'db.user'
p2496
stRp2497
sS'domain'
p2498
g3
(g4
g5
(dp2499
g7
S'name'
p2500
sg9
g3
(g10
g11
(lp2501
g3
(g4
g5
(dp2502
g14
S''
sg15
g16
sg17
g16
sg18
S''
sg19
S''
sg20
g21
sg22
g23
stRp2503
ag3
(g4
g5
(dp2504
g14
S''
sg17
g26
sg18
S''
sg20
g27
sg19
S''
sg15
g26
sg28
Nsg22
g29
stRp2505
ag3
(g4
g5
(dp2506
g14
S''
sg17
g32
sg18
S''
sg20
g21
sg19
S''
sg15
g32
sg28
Nsg22
g33
stRp2507
ag3
(g4
g5
(dp2508
g14
S''
sg17
g36
sg18
S''
sg20
g27
sg19
S''
sg15
g36
sg28
Nsg22
g37
stRp2509
ag3
(g4
g5
(dp2510
g14
S''
sg40
S'name'
p2511
sg18
S''
sg42
S'Domain'
p2512
sg19
S''
sg15
g2511
sg28
Nsg44
S'Domain name'
p2513
stRp2514
ag3
(g4
g5
(dp2515
g14
S''
sg40
S'type'
p2516
sg18
S''
sg42
S'DomainType'
p2517
sg19
S''
sg15
g2516
sg28
Nsg44
S'Type of domain'
p2518
stRp2519
ag3
(g4
g5
(dp2520
g14
S''
sg40
S'extra'
p2521
sg18
S''
sg42
S'Text'
p2522
sg19
S''
sg15
g2521
sg28
Nsg44
S'Formerly "host". Associated host or, for labels, revision \n\t\t    number.'
p2523
stRp2524
ag3
(g4
g5
(dp2525
g14
S''
sg40
S'mount'
p2526
sg18
S''
sg42
S'Text'
p2527
sg19
S''
sg15
g2526
sg28
Nsg44
S'The client root'
p2528
stRp2529
ag3
(g4
g5
(dp2530
g14
S''
sg40
S'mount2'
p2531
sg18
S''
sg42
S'Text'
p2532
sg19
S''
sg15
g2531
sg28
Nsg44
S'Alternate client root'
p2533
stRp2534
ag3
(g4
g5
(dp2535
g14
S''
sg40
S'mount3'
p2536
sg18
S''
sg42
S'Text'
p2537
sg19
S''
sg15
g2536
sg28
Nsg44
S'Alternate client root'
p2538
stRp2539
ag3
(g4
g5
(dp2540
g14
S''
sg40
S'owner'
p2541
sg18
S''
sg42
S'User'
p2542
sg19
S''
sg15
g2541
sg28
Nsg44
S'Name of user who owns the domain.'
p2543
stRp2544
ag3
(g4
g5
(dp2545
g14
S''
sg40
S'updateDate'
p2546
sg18
S''
sg42
S'Date'
p2547
sg19
S''
sg15
g2546
sg28
Nsg44
S'Date of last update to domain specification.'
p2548
stRp2549
ag3
(g4
g5
(dp2550
g14
S''
sg40
S'accessDate'
p2551
sg18
S''
sg42
S'Date'
p2552
sg19
S''
sg15
g2551
sg28
Nsg44
S'Date of last access to domain specification.'
p2553
stRp2554
ag3
(g4
g5
(dp2555
g14
S''
sg40
S'options'
p2556
sg18
S''
sg42
S'DomainOpts'
p2557
sg19
S''
sg15
g2556
sg28
Nsg44
S'Options for client, label, and branch domains.'
p2558
stRp2559
ag3
(g4
g5
(dp2560
g14
S''
sg40
S'description'
p2561
sg18
S''
sg42
S'Text'
p2562
sg19
S''
sg15
g2561
sg28
Nsg44
S'Description of domain.'
p2563
stRp2564
ag3
(g4
g5
(dp2565
g14
S''
sg40
S'stream'
p2566
sg18
S''
sg42
S'Domain'
p2567
sg19
S''
sg15
g2566
sg28
Nsg44
S'Associated stream for client records'
p2568
stRp2569
ag3
(g4
g5
(dp2570
g14
S''
sg40
S'serverId'
p2571
sg18
S''
sg42
S'Key'
p2572
sg19
S''
sg15
g2571
sg28
Nsg44
S'Associated server ID for client records'
p2573
stRp2574
ag3
(g4
g5
(dp2575
g14
S''
sg40
S'contents'
p2576
sg18
S''
sg42
S'Int'
p2577
sg19
S''
sg15
g2576
sg28
Nsg44
S'Client domain contents. 1: Maps only classic depot files, 2: Maps only graph depot files, 3: Maps both classic and graph depot files'
p2578
stRp2579
atRp2580
sg68
g2498
sg69
S'7'
sg70
g71
sg44
S'Domains: depots, clients, labels, branches, streams, and typemap'
p2581
sg42
S'Domain'
p2582
sg74
S'22'
p2583
sg40
S'db.domain'
p2584
stRp2585
sS'stream'
p2586
g3
(g4
g5
(dp2587
g7
S'stream'
p2588
sg9
g3
(g10
g11
(lp2589
g3
(g4
g5
(dp2590
g14
S''
sg15
g16
sg17
g16
sg18
S''
sg19
S''
sg20
g21
sg22
g23
stRp2591
ag3
(g4
g5
(dp2592
g14
S''
sg17
g26
sg18
S''
sg20
g27
sg19
S''
sg15
g26
sg28
Nsg22
g29
stRp2593
ag3
(g4
g5
(dp2594
g14
S''
sg17
g32
sg18
S''
sg20
g21
sg19
S''
sg15
g32
sg28
Nsg22
g33
stRp2595
ag3
(g4
g5
(dp2596
g14
S''
sg17
g36
sg18
S''
sg20
g27
sg19
S''
sg15
g36
sg28
Nsg22
g37
stRp2597
ag3
(g4
g5
(dp2598
g14
S''
sg40
S'stream'
p2599
sg18
S''
sg42
S'Domain'
p2600
sg19
S''
sg15
g2599
sg28
Nsg44
S'Stream name'
p2601
stRp2602
ag3
(g4
g5
(dp2603
g14
S''
sg40
S'parent'
p2604
sg18
S''
sg42
S'Domain'
p2605
sg19
S''
sg15
g2604
sg28
Nsg44
S'Parent stream name'
p2606
stRp2607
ag3
(g4
g5
(dp2608
g14
S''
sg40
S'title'
p2609
sg18
S''
sg42
S'Text'
p2610
sg19
S''
sg15
g2609
sg28
Nsg44
S'Stream title (alias for the stream name)'
p2611
stRp2612
ag3
(g4
g5
(dp2613
g14
S''
sg40
S'type'
p2614
sg18
S''
sg42
S'StreamType'
p2615
sg19
S''
sg15
g2614
sg28
Nsg44
S'The type of stream'
p2616
stRp2617
ag3
(g4
g5
(dp2618
g14
S''
sg40
S'preview'
p2619
sg18
S''
sg42
S'Date'
p2620
sg19
S''
sg15
g2619
sg28
Nsg44
S'Stream template modification time'
p2621
stRp2622
ag3
(g4
g5
(dp2623
g14
S''
sg40
S'change'
p2624
sg18
S''
sg42
S'Change'
p2625
sg19
S''
sg15
g2624
sg28
Nsg44
S'Last submit to stream'
p2626
stRp2627
ag3
(g4
g5
(dp2628
g14
S''
sg40
S'copyChange'
p2629
sg18
S''
sg42
S'Change'
p2630
sg19
S''
sg15
g2629
sg28
Nsg44
S'Parent change at last copy'
p2631
stRp2632
ag3
(g4
g5
(dp2633
g14
S''
sg40
S'mergeChange'
p2634
sg18
S''
sg42
S'Change'
p2635
sg19
S''
sg15
g2634
sg28
Nsg44
S'Parent change at last merge'
p2636
stRp2637
ag3
(g4
g5
(dp2638
g14
S''
sg40
S'highChange'
p2639
sg18
S''
sg42
S'Change'
p2640
sg19
S''
sg15
g2639
sg28
Nsg44
S'Highest change at last merge'
p2641
stRp2642
ag3
(g4
g5
(dp2643
g14
S''
sg40
S'hash'
p2644
sg18
S''
sg42
S'Int'
p2645
sg19
S''
sg15
g2644
sg28
Nsg44
S'Hash value of dynamic branch'
p2646
stRp2647
ag3
(g4
g5
(dp2648
g14
S''
sg40
S'status'
p2649
sg18
S''
sg42
S'StreamStatus'
p2650
sg19
S''
sg15
g2649
sg28
Nsg44
S'Flow status'
p2651
stRp2652
atRp2653
sg68
g2586
sg69
S'1'
sg70
g71
sg44
S'Stream specifications'
p2654
sg42
S'Stream'
p2655
sg74
S'21'
p2656
sg40
S'db.stream'
p2657
stRp2658
sS'sendq'
p2659
g3
(g4
g5
(dp2660
g7
S'taskid, seq'
p2661
sg9
g3
(g10
g11
(lp2662
g3
(g4
g5
(dp2663
g14
S''
sg15
g16
sg17
g16
sg18
S''
sg19
S''
sg20
g21
sg22
g23
stRp2664
ag3
(g4
g5
(dp2665
g14
S''
sg17
g26
sg18
S''
sg20
g27
sg19
S''
sg15
g26
sg28
Nsg22
g29
stRp2666
ag3
(g4
g5
(dp2667
g14
S''
sg17
g32
sg18
S''
sg20
g21
sg19
S''
sg15
g32
sg28
Nsg22
g33
stRp2668
ag3
(g4
g5
(dp2669
g14
S''
sg17
g36
sg18
S''
sg20
g27
sg19
S''
sg15
g36
sg28
Nsg22
g37
stRp2670
ag3
(g4
g5
(dp2671
g14
S''
sg40
S'taskid'
p2672
sg18
S''
sg42
S'Int'
p2673
sg19
S''
sg15
g2672
sg28
Nsg44
S'The process id (PID) of the sync'
p2674
stRp2675
ag3
(g4
g5
(dp2676
g14
S''
sg40
S'seq'
p2677
sg18
S''
sg42
S'Int'
p2678
sg19
S''
sg15
g2677
sg28
Nsg44
S'Sequence number'
p2679
stRp2680
ag3
(g4
g5
(dp2681
g14
S''
sg40
S'handle'
p2682
sg18
S''
sg42
S'Text'
p2683
sg19
S''
sg15
g2682
sg28
Nsg44
S'Handle'
p2684
stRp2685
ag3
(g4
g5
(dp2686
g14
S''
sg40
S'depotFile'
p2687
sg18
S''
sg42
S'File'
p2688
sg19
S''
sg15
g2687
sg28
Nsg44
S'The file in the depot'
p2689
stRp2690
ag3
(g4
g5
(dp2691
g14
S''
sg40
S'clientFile'
p2692
sg18
S''
sg42
S'File'
p2693
sg19
S''
sg15
g2692
sg28
Nsg44
S'The file in its location on the client'
p2694
stRp2695
ag3
(g4
g5
(dp2696
g14
S''
sg40
S'haveRev'
p2697
sg18
S''
sg42
S'Rev'
p2698
sg19
S''
sg15
g2697
sg28
Nsg44
S'Have revision'
p2699
stRp2700
ag3
(g4
g5
(dp2701
g14
S''
sg40
S'type'
p2702
sg18
S''
sg42
S'FileType'
p2703
sg19
S''
sg15
g2702
sg28
Nsg44
S'File type'
p2704
stRp2705
ag3
(g4
g5
(dp2706
g14
S''
sg40
S'modtime'
p2707
sg18
S''
sg42
S'Date'
p2708
sg19
S''
sg15
g2707
sg28
Nsg44
S'Modification time'
p2709
stRp2710
ag3
(g4
g5
(dp2711
g14
S''
sg40
S'digest'
p2712
sg18
S''
sg42
S'Digest'
p2713
sg19
S''
sg15
g2712
sg28
Nsg44
S'The MD5 digest of the revision'
p2714
stRp2715
ag3
(g4
g5
(dp2716
g14
S''
sg40
S'size'
p2717
sg18
S''
sg42
S'FileSize'
p2718
sg19
S''
sg15
g2717
sg28
Nsg44
S'The size of the file in bytes'
p2719
stRp2720
ag3
(g4
g5
(dp2721
g14
S''
sg40
S'lbrFile'
p2722
sg18
S''
sg42
S'File'
p2723
sg19
S''
sg15
g2722
sg28
Nsg44
S'Librarian filename'
p2724
stRp2725
ag3
(g4
g5
(dp2726
g14
S''
sg40
S'lbrRev'
p2727
sg18
S''
sg42
S'String'
p2728
sg19
S''
sg15
g2727
sg28
Nsg44
S'The librarian revision number'
p2729
stRp2730
ag3
(g4
g5
(dp2731
g14
S''
sg40
S'lbrType'
p2732
sg18
S''
sg42
S'FileType'
p2733
sg19
S''
sg15
g2732
sg28
Nsg44
S'The file type of the librarian revision'
p2734
stRp2735
ag3
(g4
g5
(dp2736
g14
S''
sg40
S'flags'
p2737
sg18
S''
sg42
S'Int'
p2738
sg19
S''
sg15
g2737
sg28
Nsg44
S'Miscellaneous flags'
p2739
stRp2740
ag3
(g4
g5
(dp2741
g14
S''
sg40
S'clientType'
p2742
sg18
S''
sg42
S'FileType'
p2743
sg19
S''
sg15
g2742
sg28
Nsg44
S'The client file type of the revision'
p2744
stRp2745
ag3
(g4
g5
(dp2746
g14
S''
sg40
S'depotRev'
p2747
sg18
S''
sg42
S'Rev'
p2748
sg19
S''
sg15
g2747
sg28
Nsg44
S'The revision number of depotFile'
p2749
stRp2750
ag3
(g4
g5
(dp2751
g14
S''
sg40
S'change'
p2752
sg18
S''
sg42
S'Change'
p2753
sg19
S''
sg15
g2752
sg28
Nsg44
S'The changelist that created the depotRev of depotFile'
p2754
stRp2755
ag3
(g4
g5
(dp2756
g14
S''
sg40
S'date'
p2757
sg18
S''
sg42
S'Date'
p2758
sg19
S''
sg15
g2757
sg28
Nsg44
S'The date/time when the changelist that created depotRev of depotFile was submitted'
p2759
stRp2760
ag3
(g4
g5
(dp2761
g14
S''
sg40
S'blobSha'
p2762
sg18
S''
sg42
S'SHA1'
p2763
sg19
S''
sg15
g2762
sg28
Nsg44
S'The Blob SHA'
p2764
stRp2765
ag3
(g4
g5
(dp2766
g14
S''
sg40
S'repoSlot'
p2767
sg18
S''
sg42
S'Int'
p2768
sg19
S''
sg15
g2767
sg28
Nsg44
S'The repo slot (internal repo ordering)'
p2769
stRp2770
ag3
(g4
g5
(dp2771
g14
S''
sg40
S'shelveDigest'
p2772
sg18
S''
sg42
S'Digest'
p2773
sg19
S''
sg15
g2772
sg28
Nsg44
S'Digest of previous shelved revision'
p2774
stRp2775
atRp2776
sg68
g2659
sg69
S'4'
sg70
g71
sg44
S'Parallel file transmission work queue'
p2777
sg42
S'SendQ'
p2778
sg74
S'100'
p2779
sg40
S'db.sendq'
p2780
stRp2781
sS'revstg'
p2782
g3
(g4
g5
(dp2783
g7
S'depotFile, depotRev'
p2784
sg9
g3
(g10
g11
(lp2785
g3
(g4
g5
(dp2786
g14
S''
sg15
g16
sg17
g16
sg18
S''
sg19
S''
sg20
g21
sg22
g23
stRp2787
ag3
(g4
g5
(dp2788
g14
S''
sg17
g26
sg18
S''
sg20
g27
sg19
S''
sg15
g26
sg28
Nsg22
g29
stRp2789
ag3
(g4
g5
(dp2790
g14
S''
sg17
g32
sg18
S''
sg20
g21
sg19
S''
sg15
g32
sg28
Nsg22
g33
stRp2791
ag3
(g4
g5
(dp2792
g14
S''
sg17
g36
sg18
S''
sg20
g27
sg19
S''
sg15
g36
sg28
Nsg22
g37
stRp2793
ag3
(g4
g5
(dp2794
g14
S''
sg40
g91
sg18
S''
sg42
g92
sg19
S''
sg15
g91
sg28
Nsg44
g93
stRp2795
ag3
(g4
g5
(dp2796
g14
S''
sg40
g96
sg18
S''
sg42
g97
sg19
S''
sg15
g96
sg28
Nsg44
g98
stRp2797
ag3
(g4
g5
(dp2798
g14
S''
sg40
g101
sg18
S''
sg42
g102
sg19
S''
sg15
g101
sg28
Nsg44
g103
stRp2799
ag3
(g4
g5
(dp2800
g14
S''
sg40
g106
sg18
S''
sg42
g107
sg19
S''
sg15
g106
sg28
Nsg44
g108
stRp2801
ag3
(g4
g5
(dp2802
g14
S''
sg40
g111
sg18
S''
sg42
g112
sg19
S''
sg15
g111
sg28
Nsg44
g113
stRp2803
ag3
(g4
g5
(dp2804
g14
S''
sg40
g116
sg18
S''
sg42
g117
sg19
S''
sg15
g116
sg28
Nsg44
g118
stRp2805
ag3
(g4
g5
(dp2806
g14
S''
sg40
g121
sg18
S''
sg42
g122
sg19
S''
sg15
g121
sg28
Nsg44
g123
stRp2807
ag3
(g4
g5
(dp2808
g14
S''
sg40
g126
sg18
S''
sg42
g127
sg19
S''
sg15
g126
sg28
Nsg44
g128
stRp2809
ag3
(g4
g5
(dp2810
g14
S''
sg40
g131
sg18
S''
sg42
g132
sg19
S''
sg15
g131
sg28
Nsg44
g133
stRp2811
ag3
(g4
g5
(dp2812
g14
S''
sg40
g136
sg18
S''
sg42
g137
sg19
S''
sg15
g136
sg28
Nsg44
g138
stRp2813
ag3
(g4
g5
(dp2814
g14
S''
sg40
g141
sg18
S''
sg42
g142
sg19
S''
sg15
g141
sg28
Nsg44
g143
stRp2815
ag3
(g4
g5
(dp2816
g14
S''
sg40
g146
sg18
S''
sg42
g147
sg19
S''
sg15
g146
sg28
Nsg44
g148
stRp2817
ag3
(g4
g5
(dp2818
g14
S''
sg40
g151
sg18
S''
sg42
g152
sg19
S''
sg15
g151
sg28
Nsg44
g153
stRp2819
ag3
(g4
g5
(dp2820
g14
S''
sg40
g156
sg18
S''
sg42
g157
sg19
S''
sg15
g156
sg28
Nsg44
g158
stRp2821
atRp2822
sg68
g2782
sg69
S'9'
sg70
g71
sg44
S'Temporary revision records for storage upgrade process'
p2823
sg42
S'Rev'
p2824
sg74
S'58'
p2825
sg40
S'db.revstg'
p2826
stRp2827
sS'locks'
p2828
g3
(g4
g5
(dp2829
g7
S'depotFile, client'
p2830
sg9
g3
(g10
g11
(lp2831
g3
(g4
g5
(dp2832
g14
S''
sg15
g16
sg17
g16
sg18
S''
sg19
S''
sg20
g21
sg22
g23
stRp2833
ag3
(g4
g5
(dp2834
g14
S''
sg17
g26
sg18
S''
sg20
g27
sg19
S''
sg15
g26
sg28
Nsg22
g29
stRp2835
ag3
(g4
g5
(dp2836
g14
S''
sg17
g32
sg18
S''
sg20
g21
sg19
S''
sg15
g32
sg28
Nsg22
g33
stRp2837
ag3
(g4
g5
(dp2838
g14
S''
sg17
g36
sg18
S''
sg20
g27
sg19
S''
sg15
g36
sg28
Nsg22
g37
stRp2839
ag3
(g4
g5
(dp2840
g14
S''
sg40
S'depotFile'
p2841
sg18
S''
sg42
S'File'
p2842
sg19
S''
sg15
g2841
sg28
Nsg44
S'File in depot'
p2843
stRp2844
ag3
(g4
g5
(dp2845
g14
S''
sg40
S'client'
p2846
sg18
S''
sg42
S'Domain'
p2847
sg19
S''
sg15
g2846
sg28
Nsg44
S'Domain (client) in which file is open'
p2848
stRp2849
ag3
(g4
g5
(dp2850
g14
S''
sg40
S'user'
p2851
sg18
S''
sg42
S'User'
p2852
sg19
S''
sg15
g2851
sg28
Nsg44
S'User who presently has the file open'
p2853
stRp2854
ag3
(g4
g5
(dp2855
g14
S''
sg40
S'action'
p2856
sg18
S''
sg42
S'Action'
p2857
sg19
S''
sg15
g2856
sg28
Nsg44
S'Action file is open for: add, edit, delete, branch,\n\t\t    integrate, or import'
p2858
stRp2859
ag3
(g4
g5
(dp2860
g14
S''
sg40
S'isLocked'
p2861
sg18
S''
sg42
S'Int'
p2862
sg19
S''
sg15
g2861
sg28
Nsg44
S'Flag: 0 for unlocked, 1 for locked'
p2863
stRp2864
ag3
(g4
g5
(dp2865
g14
S''
sg40
S'change'
p2866
sg18
S''
sg42
S'Change'
p2867
sg19
S''
sg15
g2866
sg28
Nsg44
S'Changelist in which the revision is open: 0 for the\n\t\t    default changelist'
p2868
stRp2869
atRp2870
sg68
g2828
sg69
S'2'
sg70
g71
sg44
S'Locked/Unlocked files'
p2871
sg42
S'Locks'
p2872
sg74
S'59'
p2873
sg40
S'db.locks'
p2874
stRp2875
sS'pdblbr'
p2876
g3
(g4
g5
(dp2877
g7
S'file, rev'
p2878
sg9
g3
(g10
g11
(lp2879
g3
(g4
g5
(dp2880
g14
S''
sg15
g16
sg17
g16
sg18
S''
sg19
S''
sg20
g21
sg22
g23
stRp2881
ag3
(g4
g5
(dp2882
g14
S''
sg17
g26
sg18
S''
sg20
g27
sg19
S''
sg15
g26
sg28
Nsg22
g29
stRp2883
ag3
(g4
g5
(dp2884
g14
S''
sg17
g32
sg18
S''
sg20
g21
sg19
S''
sg15
g32
sg28
Nsg22
g33
stRp2885
ag3
(g4
g5
(dp2886
g14
S''
sg17
g36
sg18
S''
sg20
g27
sg19
S''
sg15
g36
sg28
Nsg22
g37
stRp2887
ag3
(g4
g5
(dp2888
g14
S''
sg40
S'file'
p2889
sg18
S''
sg42
S'File'
p2890
sg19
S''
sg15
g2889
sg28
Nsg44
S'The file name'
p2891
stRp2892
ag3
(g4
g5
(dp2893
g14
S''
sg40
S'rev'
p2894
sg18
S''
sg42
S'String'
p2895
sg19
S''
sg15
g2894
sg28
Nsg44
S'The librarian revision'
p2896
stRp2897
ag3
(g4
g5
(dp2898
g14
S''
sg40
S'type'
p2899
sg18
S''
sg42
S'FileType'
p2900
sg19
S''
sg15
g2899
sg28
Nsg44
S'The file type of the revision'
p2901
stRp2902
ag3
(g4
g5
(dp2903
g14
S''
sg40
S'status'
p2904
sg18
S''
sg42
S'PullStatus'
p2905
sg19
S''
sg15
g2904
sg28
Nsg44
S'The status of the archive transfer'
p2906
stRp2907
ag3
(g4
g5
(dp2908
g14
S''
sg40
S'who'
p2909
sg18
S''
sg42
S'Int'
p2910
sg19
S''
sg15
g2909
sg28
Nsg44
S'The process / thread id ID of the pull process'
p2911
stRp2912
ag3
(g4
g5
(dp2913
g14
S''
sg40
S'when'
p2914
sg18
S''
sg42
S'Int'
p2915
sg19
S''
sg15
g2914
sg28
Nsg44
S'The timestamp from when the transfer was scheduled'
p2916
stRp2917
ag3
(g4
g5
(dp2918
g14
S''
sg40
S'action'
p2919
sg18
S''
sg42
S'Action'
p2920
sg19
S''
sg15
g2919
sg28
Nsg44
S'The action that created the revision'
p2921
stRp2922
ag3
(g4
g5
(dp2923
g14
S''
sg40
S'digest'
p2924
sg18
S''
sg42
S'Digest'
p2925
sg19
S''
sg15
g2924
sg28
Nsg44
S'The MD5 digest of the revision'
p2926
stRp2927
ag3
(g4
g5
(dp2928
g14
S''
sg40
S'size'
p2929
sg18
S''
sg42
S'FileSize'
p2930
sg19
S''
sg15
g2929
sg28
Nsg44
S'The size of the file in bytes'
p2931
stRp2932
ag3
(g4
g5
(dp2933
g14
S''
sg40
S'retries'
p2934
sg18
S''
sg42
S'Int'
p2935
sg19
S''
sg15
g2934
sg28
Nsg44
S'Error retry count'
p2936
stRp2937
ag3
(g4
g5
(dp2938
g14
S''
sg40
S'errmsg'
p2939
sg18
S''
sg42
S'Octet String'
p2940
sg19
S''
sg15
g2939
sg28
Nsg44
S'Last Error Message'
p2941
stRp2942
ag3
(g4
g5
(dp2943
g14
S''
sg40
S'change'
p2944
sg18
S''
sg42
S'Change'
p2945
sg19
S''
sg15
g2944
sg28
Nsg44
S'The changelist that created the revision'
p2946
stRp2947
ag3
(g4
g5
(dp2948
g14
S''
sg40
S'date'
p2949
sg18
S''
sg42
S'Date'
p2950
sg19
S''
sg15
g2949
sg28
Nsg44
S'Librarian date'
p2951
stRp2952
ag3
(g4
g5
(dp2953
g14
S''
sg40
S'modTime'
p2954
sg18
S''
sg42
S'Date'
p2955
sg19
S''
sg15
g2954
sg28
Nsg44
S'Librarian modtime'
p2956
stRp2957
ag3
(g4
g5
(dp2958
g14
S''
sg40
S'origin'
p2959
sg18
S''
sg42
S'Int'
p2960
sg19
S''
sg15
g2959
sg28
Nsg44
S'The revision type that this transfer originates from:\n\t\t      1 = db.rev\n\t\t      2 = db.revsh\n\t\t      3 = db.revsx\n\t\t      4 = db.revux\n\t\t      5 = db.object'
p2961
stRp2962
ag3
(g4
g5
(dp2963
g14
S''
sg40
S'target'
p2964
sg18
S''
sg42
S'Text'
p2965
sg19
S''
sg15
g2964
sg28
Nsg44
S'Edge server to transfer from (reverse replication only)'
p2966
stRp2967
atRp2968
sg68
g2876
sg69
S'3'
sg70
g71
sg44
S'Proxy server pending archive transfer table'
p2969
sg42
S'ReplicaArchiveTransfer'
p2970
sg40
S'pdb.lbr'
p2971
stRp2972
sS'have'
p2973
g3
(g4
g5
(dp2974
g7
S'clientFile'
p2975
sg9
g3
(g10
g11
(lp2976
g3
(g4
g5
(dp2977
g14
S''
sg15
g16
sg17
g16
sg18
S''
sg19
S''
sg20
g21
sg22
g23
stRp2978
ag3
(g4
g5
(dp2979
g14
S''
sg17
g26
sg18
S''
sg20
g27
sg19
S''
sg15
g26
sg28
Nsg22
g29
stRp2980
ag3
(g4
g5
(dp2981
g14
S''
sg17
g32
sg18
S''
sg20
g21
sg19
S''
sg15
g32
sg28
Nsg22
g33
stRp2982
ag3
(g4
g5
(dp2983
g14
S''
sg17
g36
sg18
S''
sg20
g27
sg19
S''
sg15
g36
sg28
Nsg22
g37
stRp2984
ag3
(g4
g5
(dp2985
g14
S''
sg40
g563
sg18
S''
sg42
g564
sg19
S''
sg15
g563
sg28
Nsg44
g565
stRp2986
ag3
(g4
g5
(dp2987
g14
S''
sg40
g568
sg18
S''
sg42
g569
sg19
S''
sg15
g568
sg28
Nsg44
g570
stRp2988
ag3
(g4
g5
(dp2989
g14
S''
sg40
g573
sg18
S''
sg42
g574
sg19
S''
sg15
g573
sg28
Nsg44
g575
stRp2990
ag3
(g4
g5
(dp2991
g14
S''
sg40
g578
sg18
S''
sg42
g579
sg19
S''
sg15
g578
sg28
Nsg44
g580
stRp2992
ag3
(g4
g5
(dp2993
g14
S''
sg40
g583
sg18
S''
sg42
g584
sg19
S''
sg15
g583
sg28
Nsg44
g585
stRp2994
atRp2995
sg68
g2973
sg69
S'3'
sg70
g71
sg44
S"Contains the 'have-list' for all clients"
p2996
sg42
S'Have'
p2997
sg74
S'34'
p2998
sg40
S'db.have'
p2999
stRp3000
sS'graphindex'
p3001
g3
(g4
g5
(dp3002
g7
S'id, name, date, blobSha, commitSha'
p3003
sg9
g3
(g10
g11
(lp3004
g3
(g4
g5
(dp3005
g14
S''
sg15
g16
sg17
g16
sg18
S''
sg19
S''
sg20
g21
sg22
g23
stRp3006
ag3
(g4
g5
(dp3007
g14
S''
sg17
g26
sg18
S''
sg20
g27
sg19
S''
sg15
g26
sg28
Nsg22
g29
stRp3008
ag3
(g4
g5
(dp3009
g14
S''
sg17
g32
sg18
S''
sg20
g21
sg19
S''
sg15
g32
sg28
Nsg22
g33
stRp3010
ag3
(g4
g5
(dp3011
g14
S''
sg17
g36
sg18
S''
sg20
g27
sg19
S''
sg15
g36
sg28
Nsg22
g37
stRp3012
ag3
(g4
g5
(dp3013
g14
S''
sg40
S'id'
p3014
sg18
S''
sg42
S'Int'
p3015
sg19
S''
sg15
g3014
sg28
Nsg44
S'ID of repo index belongs to'
p3016
stRp3017
ag3
(g4
g5
(dp3018
g14
S''
sg40
S'name'
p3019
sg18
S''
sg42
S'File'
p3020
sg19
S''
sg15
g3019
sg28
Nsg44
S'File name (minus the repo name)'
p3021
stRp3022
ag3
(g4
g5
(dp3023
g14
S''
sg40
S'date'
p3024
sg18
S''
sg42
S'Date'
p3025
sg19
S''
sg15
g3024
sg28
Nsg44
S'Descending historical commit sequence'
p3026
stRp3027
ag3
(g4
g5
(dp3028
g14
S''
sg40
S'blobSha'
p3029
sg18
S''
sg42
S'SHA1'
p3030
sg19
S''
sg15
g3029
sg28
Nsg44
S'SHA of blob'
p3031
stRp3032
ag3
(g4
g5
(dp3033
g14
S''
sg40
S'commitSha'
p3034
sg18
S''
sg42
S'SHA1'
p3035
sg19
S''
sg15
g3034
sg28
Nsg44
S'SHA of commit that added/edited this file'
p3036
stRp3037
ag3
(g4
g5
(dp3038
g14
S''
sg40
S'flags'
p3039
sg18
S''
sg42
S'Int'
p3040
sg19
S''
sg15
g3039
sg28
Nsg44
S'Miscellaneous flags'
p3041
stRp3042
ag3
(g4
g5
(dp3043
g14
S''
sg40
S'size'
p3044
sg18
S''
sg42
S'FileSize'
p3045
sg19
S''
sg15
g3044
sg28
Nsg44
S'The size of the file (or target LFS file)'
p3046
stRp3047
ag3
(g4
g5
(dp3048
g14
S''
sg40
S'type'
p3049
sg18
S''
sg42
S'FileType'
p3050
sg19
S''
sg15
g3049
sg28
Nsg44
S'The filetype of the graph file'
p3051
stRp3052
ag3
(g4
g5
(dp3053
g14
S''
sg40
S'lfsoid'
p3054
sg18
S''
sg42
S'Text'
p3055
sg19
S''
sg15
g3054
sg28
Nsg44
S'LFS Object ID'
p3056
stRp3057
atRp3058
sg68
g3001
sg69
S'1'
sg70
g71
sg44
S'Graph depot repository index data'
p3059
sg42
S'GraphIndex'
p3060
sg74
S'78'
p3061
sg40
S'db.graphindex'
p3062
stRp3063
sS'revcx'
p3064
g3
(g4
g5
(dp3065
g7
S'change, depotFile'
p3066
sg9
g3
(g10
g11
(lp3067
g3
(g4
g5
(dp3068
g14
S''
sg15
g16
sg17
g16
sg18
S''
sg19
S''
sg20
g21
sg22
g23
stRp3069
ag3
(g4
g5
(dp3070
g14
S''
sg17
g26
sg18
S''
sg20
g27
sg19
S''
sg15
g26
sg28
Nsg22
g29
stRp3071
ag3
(g4
g5
(dp3072
g14
S''
sg17
g32
sg18
S''
sg20
g21
sg19
S''
sg15
g32
sg28
Nsg22
g33
stRp3073
ag3
(g4
g5
(dp3074
g14
S''
sg17
g36
sg18
S''
sg20
g27
sg19
S''
sg15
g36
sg28
Nsg22
g37
stRp3075
ag3
(g4
g5
(dp3076
g14
S''
sg40
S'change'
p3077
sg18
S''
sg42
S'Change'
p3078
sg19
S''
sg15
g3077
sg28
Nsg44
S'The changelist that created the revision'
p3079
stRp3080
ag3
(g4
g5
(dp3081
g14
S''
sg40
S'depotFile'
p3082
sg18
S''
sg42
S'File'
p3083
sg19
S''
sg15
g3082
sg28
Nsg44
S'The file name'
p3084
stRp3085
ag3
(g4
g5
(dp3086
g14
S''
sg40
S'depotRev'
p3087
sg18
S''
sg42
S'Rev'
p3088
sg19
S''
sg15
g3087
sg28
Nsg44
S'The revision number'
p3089
stRp3090
ag3
(g4
g5
(dp3091
g14
S''
sg40
S'action'
p3092
sg18
S''
sg42
S'Action'
p3093
sg19
S''
sg15
g3092
sg28
Nsg44
S'The action that created the revision'
p3094
stRp3095
atRp3096
sg68
g3064
sg69
S'0'
sg70
g71
sg44
S'Secondary index of db.rev'
p3097
sg42
S'RevCx'
p3098
sg74
S'55'
p3099
sg40
S'db.revcx'
p3100
stRp3101
sS'refhist'
p3102
g3
(g4
g5
(dp3103
g7
S'repo, type, name, date, action, user, ref'
p3104
sg9
g3
(g10
g11
(lp3105
g3
(g4
g5
(dp3106
g14
S''
sg15
g16
sg17
g16
sg18
S''
sg19
S''
sg20
g21
sg22
g23
stRp3107
ag3
(g4
g5
(dp3108
g14
S''
sg17
g26
sg18
S''
sg20
g27
sg19
S''
sg15
g26
sg28
Nsg22
g29
stRp3109
ag3
(g4
g5
(dp3110
g14
S''
sg17
g32
sg18
S''
sg20
g21
sg19
S''
sg15
g32
sg28
Nsg22
g33
stRp3111
ag3
(g4
g5
(dp3112
g14
S''
sg17
g36
sg18
S''
sg20
g27
sg19
S''
sg15
g36
sg28
Nsg22
g37
stRp3113
ag3
(g4
g5
(dp3114
g14
S''
sg40
S'repo'
p3115
sg18
S''
sg42
S'Key'
p3116
sg19
S''
sg15
g3115
sg28
Nsg44
S'Repository name'
p3117
stRp3118
ag3
(g4
g5
(dp3119
g14
S''
sg40
S'name'
p3120
sg18
S''
sg42
S'Key'
p3121
sg19
S''
sg15
g3120
sg28
Nsg44
S'Reference name'
p3122
stRp3123
ag3
(g4
g5
(dp3124
g14
S''
sg40
S'type'
p3125
sg18
S''
sg42
S'RefType'
p3126
sg19
S''
sg15
g3125
sg28
Nsg44
S'Reference type'
p3127
stRp3128
ag3
(g4
g5
(dp3129
g14
S''
sg40
S'action'
p3130
sg18
S''
sg42
S'RefAction'
p3131
sg19
S''
sg15
g3130
sg28
Nsg44
S'Reference action'
p3132
stRp3133
ag3
(g4
g5
(dp3134
g14
S''
sg40
S'date'
p3135
sg18
S''
sg42
S'Date'
p3136
sg19
S''
sg15
g3135
sg28
Nsg44
S'The date the reference was updated'
p3137
stRp3138
ag3
(g4
g5
(dp3139
g14
S''
sg40
S'user'
p3140
sg18
S''
sg42
S'User'
p3141
sg19
S''
sg15
g3140
sg28
Nsg44
S'The user who made the reference update'
p3142
stRp3143
ag3
(g4
g5
(dp3144
g14
S''
sg40
S'ref'
p3145
sg18
S''
sg42
S'SHA1'
p3146
sg19
S''
sg15
g3145
sg28
Nsg44
S'Encoded reference value'
p3147
stRp3148
ag3
(g4
g5
(dp3149
g14
S''
sg40
S'symref'
p3150
sg18
S''
sg42
S'Text'
p3151
sg19
S''
sg15
g3150
sg28
Nsg44
S'Symbolic reference'
p3152
stRp3153
atRp3154
sg68
g3102
sg69
S'0'
sg70
g71
sg44
S'Reference history for graph depots'
p3155
sg42
S'RefHist'
p3156
sg74
S'75'
p3157
sg40
S'db.refhist'
p3158
stRp3159
sS'rdblbr'
p3160
g3
(g4
g5
(dp3161
g7
S'file, rev'
p3162
sg9
g3
(g10
g11
(lp3163
g3
(g4
g5
(dp3164
g14
S''
sg15
g16
sg17
g16
sg18
S''
sg19
S''
sg20
g21
sg22
g23
stRp3165
ag3
(g4
g5
(dp3166
g14
S''
sg17
g26
sg18
S''
sg20
g27
sg19
S''
sg15
g26
sg28
Nsg22
g29
stRp3167
ag3
(g4
g5
(dp3168
g14
S''
sg17
g32
sg18
S''
sg20
g21
sg19
S''
sg15
g32
sg28
Nsg22
g33
stRp3169
ag3
(g4
g5
(dp3170
g14
S''
sg17
g36
sg18
S''
sg20
g27
sg19
S''
sg15
g36
sg28
Nsg22
g37
stRp3171
ag3
(g4
g5
(dp3172
g14
S''
sg40
g2889
sg18
S''
sg42
g2890
sg19
S''
sg15
g2889
sg28
Nsg44
g2891
stRp3173
ag3
(g4
g5
(dp3174
g14
S''
sg40
g2894
sg18
S''
sg42
g2895
sg19
S''
sg15
g2894
sg28
Nsg44
g2896
stRp3175
ag3
(g4
g5
(dp3176
g14
S''
sg40
g2899
sg18
S''
sg42
g2900
sg19
S''
sg15
g2899
sg28
Nsg44
g2901
stRp3177
ag3
(g4
g5
(dp3178
g14
S''
sg40
g2904
sg18
S''
sg42
g2905
sg19
S''
sg15
g2904
sg28
Nsg44
g2906
stRp3179
ag3
(g4
g5
(dp3180
g14
S''
sg40
g2909
sg18
S''
sg42
g2910
sg19
S''
sg15
g2909
sg28
Nsg44
g2911
stRp3181
ag3
(g4
g5
(dp3182
g14
S''
sg40
g2914
sg18
S''
sg42
g2915
sg19
S''
sg15
g2914
sg28
Nsg44
g2916
stRp3183
ag3
(g4
g5
(dp3184
g14
S''
sg40
g2919
sg18
S''
sg42
g2920
sg19
S''
sg15
g2919
sg28
Nsg44
g2921
stRp3185
ag3
(g4
g5
(dp3186
g14
S''
sg40
g2924
sg18
S''
sg42
g2925
sg19
S''
sg15
g2924
sg28
Nsg44
g2926
stRp3187
ag3
(g4
g5
(dp3188
g14
S''
sg40
g2929
sg18
S''
sg42
g2930
sg19
S''
sg15
g2929
sg28
Nsg44
g2931
stRp3189
ag3
(g4
g5
(dp3190
g14
S''
sg40
g2934
sg18
S''
sg42
g2935
sg19
S''
sg15
g2934
sg28
Nsg44
g2936
stRp3191
ag3
(g4
g5
(dp3192
g14
S''
sg40
g2939
sg18
S''
sg42
g2940
sg19
S''
sg15
g2939
sg28
Nsg44
g2941
stRp3193
ag3
(g4
g5
(dp3194
g14
S''
sg40
g2944
sg18
S''
sg42
g2945
sg19
S''
sg15
g2944
sg28
Nsg44
g2946
stRp3195
ag3
(g4
g5
(dp3196
g14
S''
sg40
g2949
sg18
S''
sg42
g2950
sg19
S''
sg15
g2949
sg28
Nsg44
g2951
stRp3197
ag3
(g4
g5
(dp3198
g14
S''
sg40
g2954
sg18
S''
sg42
g2955
sg19
S''
sg15
g2954
sg28
Nsg44
g2956
stRp3199
ag3
(g4
g5
(dp3200
g14
S''
sg40
g2959
sg18
S''
sg42
g2960
sg19
S''
sg15
g2959
sg28
Nsg44
g2961
stRp3201
ag3
(g4
g5
(dp3202
g14
S''
sg40
g2964
sg18
S''
sg42
g2965
sg19
S''
sg15
g2964
sg28
Nsg44
g2966
stRp3203
atRp3204
sg68
g3160
sg69
S'3'
sg70
g71
sg44
S'Replica server pending archive transfer table'
p3205
sg42
S'ReplicaArchiveTransfer'
p3206
sg40
S'rdb.lbr'
p3207
stRp3208
sS'bodresolve'
p3209
g3
(g4
g5
(dp3210
g7
S'type, client, toKey, attr, fromKey, fromChange'
p3211
sg9
g3
(g10
g11
(lp3212
g3
(g4
g5
(dp3213
g14
S''
sg15
g16
sg17
g16
sg18
S''
sg19
S''
sg20
g21
sg22
g23
stRp3214
ag3
(g4
g5
(dp3215
g14
S''
sg17
g26
sg18
S''
sg20
g27
sg19
S''
sg15
g26
sg28
Nsg22
g29
stRp3216
ag3
(g4
g5
(dp3217
g14
S''
sg17
g32
sg18
S''
sg20
g21
sg19
S''
sg15
g32
sg28
Nsg22
g33
stRp3218
ag3
(g4
g5
(dp3219
g14
S''
sg17
g36
sg18
S''
sg20
g27
sg19
S''
sg15
g36
sg28
Nsg22
g37
stRp3220
ag3
(g4
g5
(dp3221
g14
S''
sg40
S'type'
p3222
sg18
S''
sg42
S'SpecType'
p3223
sg19
S''
sg15
g3222
sg28
Nsg44
S'The spec type'
p3224
stRp3225
ag3
(g4
g5
(dp3226
g14
S''
sg40
S'client'
p3227
sg18
S''
sg42
S'Domain'
p3228
sg19
S''
sg15
g3227
sg28
Nsg44
S'The client name'
p3229
stRp3230
ag3
(g4
g5
(dp3231
g14
S''
sg40
S'toKey'
p3232
sg18
S''
sg42
S'Key'
p3233
sg19
S''
sg15
g3232
sg28
Nsg44
S'To Key'
p3234
stRp3235
ag3
(g4
g5
(dp3236
g14
S''
sg40
S'attr'
p3237
sg18
S''
sg42
S'Int'
p3238
sg19
S''
sg15
g3237
sg28
Nsg44
S'The attribute value'
p3239
stRp3240
ag3
(g4
g5
(dp3241
g14
S''
sg40
S'fromKey'
p3242
sg18
S''
sg42
S'Key'
p3243
sg19
S''
sg15
g3242
sg28
Nsg44
S'From key'
p3244
stRp3245
ag3
(g4
g5
(dp3246
g14
S''
sg40
S'fromChange'
p3247
sg18
S''
sg42
S'Change'
p3248
sg19
S''
sg15
g3247
sg28
Nsg44
S'From change'
p3249
stRp3250
ag3
(g4
g5
(dp3251
g14
S''
sg40
S'baseKey'
p3252
sg18
S''
sg42
S'Key'
p3253
sg19
S''
sg15
g3252
sg28
Nsg44
S'Base Key'
p3254
stRp3255
ag3
(g4
g5
(dp3256
g14
S''
sg40
S'baseChange'
p3257
sg18
S''
sg42
S'Change'
p3258
sg19
S''
sg15
g3257
sg28
Nsg44
S'Base change'
p3259
stRp3260
atRp3261
sg68
g3209
sg69
S'0'
sg70
g71
sg44
S'Resolve data for stream specifications'
p3262
sg42
S'BodyResolve'
p3263
sg74
S'87'
p3264
sg40
S'db.bodresolve'
p3265
stRp3266
sS'review'
p3267
g3
(g4
g5
(dp3268
g7
S'user, seq'
p3269
sg9
g3
(g10
g11
(lp3270
g3
(g4
g5
(dp3271
g14
S''
sg15
g16
sg17
g16
sg18
S''
sg19
S''
sg20
g21
sg22
g23
stRp3272
ag3
(g4
g5
(dp3273
g14
S''
sg17
g26
sg18
S''
sg20
g27
sg19
S''
sg15
g26
sg28
Nsg22
g29
stRp3274
ag3
(g4
g5
(dp3275
g14
S''
sg17
g32
sg18
S''
sg20
g21
sg19
S''
sg15
g32
sg28
Nsg22
g33
stRp3276
ag3
(g4
g5
(dp3277
g14
S''
sg17
g36
sg18
S''
sg20
g27
sg19
S''
sg15
g36
sg28
Nsg22
g37
stRp3278
ag3
(g4
g5
(dp3279
g14
S''
sg40
S'user'
p3280
sg18
S''
sg42
S'User'
p3281
sg19
S''
sg15
g3280
sg28
Nsg44
S'A user name'
p3282
stRp3283
ag3
(g4
g5
(dp3284
g14
S''
sg40
S'seq'
p3285
sg18
S''
sg42
S'Int'
p3286
sg19
S''
sg15
g3285
sg28
Nsg44
S'Sequence number: used for ordering multi-line views'
p3287
stRp3288
ag3
(g4
g5
(dp3289
g14
S''
sg40
S'mapFlag'
p3290
sg18
S''
sg42
S'MapFlag'
p3291
sg19
S''
sg15
g3290
sg28
Nsg44
S'Type of mapping'
p3292
stRp3293
ag3
(g4
g5
(dp3294
g14
S''
sg40
S'depotFile'
p3295
sg18
S''
sg42
S'Mapping'
p3296
sg19
S''
sg15
g3295
sg28
Nsg44
S'The files to be reviewed'
p3297
stRp3298
ag3
(g4
g5
(dp3299
g14
S''
sg40
S'type'
p3300
sg18
S''
sg42
S'Reviewer'
p3301
sg19
S''
sg15
g3300
sg28
Nsg44
S'Type of reviewer'
p3302
stRp3303
atRp3304
sg68
g3267
sg69
S'1'
sg70
g71
sg44
S"User's review mappings"
p3305
sg42
S'Review'
p3306
sg74
S'30'
p3307
sg40
S'db.review'
p3308
stRp3309
sS'storage'
p3310
g3
(g4
g5
(dp3311
g7
S'file, rev, type'
p3312
sg9
g3
(g10
g11
(lp3313
g3
(g4
g5
(dp3314
g14
S''
sg15
g16
sg17
g16
sg18
S''
sg19
S''
sg20
g21
sg22
g23
stRp3315
ag3
(g4
g5
(dp3316
g14
S''
sg17
g26
sg18
S''
sg20
g27
sg19
S''
sg15
g26
sg28
Nsg22
g29
stRp3317
ag3
(g4
g5
(dp3318
g14
S''
sg17
g32
sg18
S''
sg20
g21
sg19
S''
sg15
g32
sg28
Nsg22
g33
stRp3319
ag3
(g4
g5
(dp3320
g14
S''
sg17
g36
sg18
S''
sg20
g27
sg19
S''
sg15
g36
sg28
Nsg22
g37
stRp3321
ag3
(g4
g5
(dp3322
g14
S''
sg40
S'file'
p3323
sg18
S''
sg42
S'File'
p3324
sg19
S''
sg15
g3323
sg28
Nsg44
S'Librarian file'
p3325
stRp3326
ag3
(g4
g5
(dp3327
g14
S''
sg40
S'rev'
p3328
sg18
S''
sg42
S'String'
p3329
sg19
S''
sg15
g3328
sg28
Nsg44
S'Librarian revision'
p3330
stRp3331
ag3
(g4
g5
(dp3332
g14
S''
sg40
S'type'
p3333
sg18
S''
sg42
S'FileType'
p3334
sg19
S''
sg15
g3333
sg28
Nsg44
S'The file type of the librarian revision'
p3335
stRp3336
ag3
(g4
g5
(dp3337
g14
S''
sg40
S'refCount'
p3338
sg18
S''
sg42
S'Int'
p3339
sg19
S''
sg15
g3338
sg28
Nsg44
S'Reference count'
p3340
stRp3341
ag3
(g4
g5
(dp3342
g14
S''
sg40
S'digest'
p3343
sg18
S''
sg42
S'Digest'
p3344
sg19
S''
sg15
g3343
sg28
Nsg44
S'MD5 of librarian file (ktext collapsed)'
p3345
stRp3346
ag3
(g4
g5
(dp3347
g14
S''
sg40
S'size'
p3348
sg18
S''
sg42
S'FileSize'
p3349
sg19
S''
sg15
g3348
sg28
Nsg44
S'Size of file'
p3350
stRp3351
ag3
(g4
g5
(dp3352
g14
S''
sg40
S'serverSize'
p3353
sg18
S''
sg42
S'FileSize'
p3354
sg19
S''
sg15
g3353
sg28
Nsg44
S'Size of librarian file on server at time of submit / shelve operation'
p3355
stRp3356
ag3
(g4
g5
(dp3357
g14
S''
sg40
S'compCksum'
p3358
sg18
S''
sg42
S'Digest'
p3359
sg19
S''
sg15
g3358
sg28
Nsg44
S'Digest of compressed librarian file'
p3360
stRp3361
ag3
(g4
g5
(dp3362
g14
S''
sg40
S'date'
p3363
sg18
S''
sg42
S'Date'
p3364
sg19
S''
sg15
g3363
sg28
Nsg44
S'Date of last update to the storage record'
p3365
stRp3366
atRp3367
sg68
g3310
sg207
S'Supersedes db.archmap in 2019.1'
p3368
sg69
S'1'
sg70
g71
sg44
S'Track references to archive files'
p3369
sg42
S'Storage'
p3370
sg74
S'46'
p3371
sg40
S'db.storage'
p3372
stRp3373
sS'storageg'
p3374
g3
(g4
g5
(dp3375
g7
S'repo, sha, type'
p3376
sg9
g3
(g10
g11
(lp3377
g3
(g4
g5
(dp3378
g14
S''
sg15
g16
sg17
g16
sg18
S''
sg19
S''
sg20
g21
sg22
g23
stRp3379
ag3
(g4
g5
(dp3380
g14
S''
sg17
g26
sg18
S''
sg20
g27
sg19
S''
sg15
g26
sg28
Nsg22
g29
stRp3381
ag3
(g4
g5
(dp3382
g14
S''
sg17
g32
sg18
S''
sg20
g21
sg19
S''
sg15
g32
sg28
Nsg22
g33
stRp3383
ag3
(g4
g5
(dp3384
g14
S''
sg17
g36
sg18
S''
sg20
g27
sg19
S''
sg15
g36
sg28
Nsg22
g37
stRp3385
ag3
(g4
g5
(dp3386
g14
S''
sg40
S'repo'
p3387
sg18
S''
sg42
S'Key'
p3388
sg19
S''
sg15
g3387
sg28
Nsg44
S'Repository name'
p3389
stRp3390
ag3
(g4
g5
(dp3391
g14
S''
sg40
S'sha'
p3392
sg18
S''
sg42
S'Key'
p3393
sg19
S''
sg15
g3392
sg28
Nsg44
S'Digest of the file in type appropriate format'
p3394
stRp3395
ag3
(g4
g5
(dp3396
g14
S''
sg40
S'type'
p3397
sg18
S''
sg42
S'ObjectType'
p3398
sg19
S''
sg15
g3397
sg28
Nsg44
S'Type of graph object'
p3399
stRp3400
ag3
(g4
g5
(dp3401
g14
S''
sg40
S'refCount'
p3402
sg18
S''
sg42
S'Int'
p3403
sg19
S''
sg15
g3402
sg28
Nsg44
S'Reference count'
p3404
stRp3405
ag3
(g4
g5
(dp3406
g14
S''
sg40
S'date'
p3407
sg18
S''
sg42
S'Date'
p3408
sg19
S''
sg15
g3407
sg28
Nsg44
S'Date of last update to the storage record'
p3409
stRp3410
atRp3411
sg68
g3374
sg69
S'0'
sg70
g71
sg44
S'Track references to Graph Depot archive files (for future use)'
p3412
sg42
S'StorageG'
p3413
sg74
S'47'
p3414
sg40
S'db.storageg'
p3415
stRp3416
sS'label'
p3417
g3
(g4
g5
(dp3418
g7
S'name, depotFile'
p3419
sg9
g3
(g10
g11
(lp3420
g3
(g4
g5
(dp3421
g14
S''
sg15
g16
sg17
g16
sg18
S''
sg19
S''
sg20
g21
sg22
g23
stRp3422
ag3
(g4
g5
(dp3423
g14
S''
sg17
g26
sg18
S''
sg20
g27
sg19
S''
sg15
g26
sg28
Nsg22
g29
stRp3424
ag3
(g4
g5
(dp3425
g14
S''
sg17
g32
sg18
S''
sg20
g21
sg19
S''
sg15
g32
sg28
Nsg22
g33
stRp3426
ag3
(g4
g5
(dp3427
g14
S''
sg17
g36
sg18
S''
sg20
g27
sg19
S''
sg15
g36
sg28
Nsg22
g37
stRp3428
ag3
(g4
g5
(dp3429
g14
S''
sg40
S'name'
p3430
sg18
S''
sg42
S'Domain'
p3431
sg19
S''
sg15
g3430
sg28
Nsg44
S'Name of the label'
p3432
stRp3433
ag3
(g4
g5
(dp3434
g14
S''
sg40
S'depotFile'
p3435
sg18
S''
sg42
S'File'
p3436
sg19
S''
sg15
g3435
sg28
Nsg44
S'File name'
p3437
stRp3438
ag3
(g4
g5
(dp3439
g14
S''
sg40
S'haveRev'
p3440
sg18
S''
sg42
S'Rev'
p3441
sg19
S''
sg15
g3440
sg28
Nsg44
S'The revision of the file in the label'
p3442
stRp3443
atRp3444
sg68
g3417
sg69
S'0'
sg70
g71
sg44
S'Revisions of files in labels'
p3445
sg42
S'Label'
p3446
sg74
S'31'
p3447
sg40
S'db.label'
p3448
stRp3449
sS'revbx'
p3450
g3
(g4
g5
(dp3451
g7
S'depotFile, depotRev'
p3452
sg9
g3
(g10
g11
(lp3453
g3
(g4
g5
(dp3454
g14
S''
sg15
g16
sg17
g16
sg18
S''
sg19
S''
sg20
g21
sg22
g23
stRp3455
ag3
(g4
g5
(dp3456
g14
S''
sg17
g26
sg18
S''
sg20
g27
sg19
S''
sg15
g26
sg28
Nsg22
g29
stRp3457
ag3
(g4
g5
(dp3458
g14
S''
sg17
g32
sg18
S''
sg20
g21
sg19
S''
sg15
g32
sg28
Nsg22
g33
stRp3459
ag3
(g4
g5
(dp3460
g14
S''
sg17
g36
sg18
S''
sg20
g27
sg19
S''
sg15
g36
sg28
Nsg22
g37
stRp3461
ag3
(g4
g5
(dp3462
g14
S''
sg40
g91
sg18
S''
sg42
g92
sg19
S''
sg15
g91
sg28
Nsg44
g93
stRp3463
ag3
(g4
g5
(dp3464
g14
S''
sg40
g96
sg18
S''
sg42
g97
sg19
S''
sg15
g96
sg28
Nsg44
g98
stRp3465
ag3
(g4
g5
(dp3466
g14
S''
sg40
g101
sg18
S''
sg42
g102
sg19
S''
sg15
g101
sg28
Nsg44
g103
stRp3467
ag3
(g4
g5
(dp3468
g14
S''
sg40
g106
sg18
S''
sg42
g107
sg19
S''
sg15
g106
sg28
Nsg44
g108
stRp3469
ag3
(g4
g5
(dp3470
g14
S''
sg40
g111
sg18
S''
sg42
g112
sg19
S''
sg15
g111
sg28
Nsg44
g113
stRp3471
ag3
(g4
g5
(dp3472
g14
S''
sg40
g116
sg18
S''
sg42
g117
sg19
S''
sg15
g116
sg28
Nsg44
g118
stRp3473
ag3
(g4
g5
(dp3474
g14
S''
sg40
g121
sg18
S''
sg42
g122
sg19
S''
sg15
g121
sg28
Nsg44
g123
stRp3475
ag3
(g4
g5
(dp3476
g14
S''
sg40
g126
sg18
S''
sg42
g127
sg19
S''
sg15
g126
sg28
Nsg44
g128
stRp3477
ag3
(g4
g5
(dp3478
g14
S''
sg40
g131
sg18
S''
sg42
g132
sg19
S''
sg15
g131
sg28
Nsg44
g133
stRp3479
ag3
(g4
g5
(dp3480
g14
S''
sg40
g136
sg18
S''
sg42
g137
sg19
S''
sg15
g136
sg28
Nsg44
g138
stRp3481
ag3
(g4
g5
(dp3482
g14
S''
sg40
g141
sg18
S''
sg42
g142
sg19
S''
sg15
g141
sg28
Nsg44
g143
stRp3483
ag3
(g4
g5
(dp3484
g14
S''
sg40
g146
sg18
S''
sg42
g147
sg19
S''
sg15
g146
sg28
Nsg44
g148
stRp3485
ag3
(g4
g5
(dp3486
g14
S''
sg40
g151
sg18
S''
sg42
g152
sg19
S''
sg15
g151
sg28
Nsg44
g153
stRp3487
ag3
(g4
g5
(dp3488
g14
S''
sg40
g156
sg18
S''
sg42
g157
sg19
S''
sg15
g156
sg28
Nsg44
g158
stRp3489
atRp3490
sg68
g3450
sg69
S'9'
sg70
g71
sg44
S'Revision records for archived files'
p3491
sg42
S'Rev'
p3492
sg74
S'53'
p3493
sg40
S'db.revbx'
p3494
stRp3495
sS'nameval'
p3496
g3
(g4
g5
(dp3497
g7
S'name'
p3498
sg9
g3
(g10
g11
(lp3499
g3
(g4
g5
(dp3500
g14
S''
sg15
g16
sg17
g16
sg18
S''
sg19
S''
sg20
g21
sg22
g23
stRp3501
ag3
(g4
g5
(dp3502
g14
S''
sg17
g26
sg18
S''
sg20
g27
sg19
S''
sg15
g26
sg28
Nsg22
g29
stRp3503
ag3
(g4
g5
(dp3504
g14
S''
sg17
g32
sg18
S''
sg20
g21
sg19
S''
sg15
g32
sg28
Nsg22
g33
stRp3505
ag3
(g4
g5
(dp3506
g14
S''
sg17
g36
sg18
S''
sg20
g27
sg19
S''
sg15
g36
sg28
Nsg22
g37
stRp3507
ag3
(g4
g5
(dp3508
g14
S''
sg40
S'name'
p3509
sg18
S''
sg42
S'Key'
p3510
sg19
S''
sg15
g3509
sg28
Nsg44
S'Key name'
p3511
stRp3512
ag3
(g4
g5
(dp3513
g14
S''
sg40
S'value'
p3514
sg18
S''
sg42
S'Value'
p3515
sg19
S''
sg15
g3514
sg28
Nsg44
S'Key value'
p3516
stRp3517
atRp3518
sg68
g3496
sg69
S'1'
sg70
g71
sg44
S'A table to store key/value pairs'
p3519
sg42
S'Keys'
p3520
sg74
S'4'
sg40
S'db.nameval'
p3521
stRp3522
sS'template'
p3523
g3
(g4
g5
(dp3524
g7
S'name, change, seq'
p3525
sg9
g3
(g10
g11
(lp3526
g3
(g4
g5
(dp3527
g14
S''
sg15
g16
sg17
g16
sg18
S''
sg19
S''
sg20
g21
sg22
g23
stRp3528
ag3
(g4
g5
(dp3529
g14
S''
sg17
g26
sg18
S''
sg20
g27
sg19
S''
sg15
g26
sg28
Nsg22
g29
stRp3530
ag3
(g4
g5
(dp3531
g14
S''
sg17
g32
sg18
S''
sg20
g21
sg19
S''
sg15
g32
sg28
Nsg22
g33
stRp3532
ag3
(g4
g5
(dp3533
g14
S''
sg17
g36
sg18
S''
sg20
g27
sg19
S''
sg15
g36
sg28
Nsg22
g37
stRp3534
ag3
(g4
g5
(dp3535
g14
S''
sg40
S'name'
p3536
sg18
S''
sg42
S'Domain'
p3537
sg19
S''
sg15
g3536
sg28
Nsg44
S'Stream name'
p3538
stRp3539
ag3
(g4
g5
(dp3540
g14
S''
sg40
S'change'
p3541
sg18
S''
sg42
S'Change'
p3542
sg19
S''
sg15
g3541
sg28
Nsg44
S'Versioned at change'
p3543
stRp3544
ag3
(g4
g5
(dp3545
g14
S''
sg40
S'seq'
p3546
sg18
S''
sg42
S'Int'
p3547
sg19
S''
sg15
g3546
sg28
Nsg44
S'Sequence (line) number'
p3548
stRp3549
ag3
(g4
g5
(dp3550
g14
S''
sg40
S'parent'
p3551
sg18
S''
sg42
S'Domain'
p3552
sg19
S''
sg15
g3551
sg28
Nsg44
S'Parent stream name'
p3553
stRp3554
ag3
(g4
g5
(dp3555
g14
S''
sg40
S'type'
p3556
sg18
S''
sg42
S'StreamType'
p3557
sg19
S''
sg15
g3556
sg28
Nsg44
S'Type of stream'
p3558
stRp3559
ag3
(g4
g5
(dp3560
g14
S''
sg40
S'path'
p3561
sg18
S''
sg42
S'StreamPathType'
p3562
sg19
S''
sg15
g3561
sg28
Nsg44
S'Stream path type'
p3563
stRp3564
ag3
(g4
g5
(dp3565
g14
S''
sg40
S'viewFile'
p3566
sg18
S''
sg42
S'Mapping'
p3567
sg19
S''
sg15
g3566
sg28
Nsg44
S'View file (left hand side of path)'
p3568
stRp3569
ag3
(g4
g5
(dp3570
g14
S''
sg40
S'depotFile'
p3571
sg18
S''
sg42
S'Mapping'
p3572
sg19
S''
sg15
g3571
sg28
Nsg44
S'Depot file (right hand side of path)'
p3573
stRp3574
ag3
(g4
g5
(dp3575
g14
S''
sg40
S'changeMap'
p3576
sg18
S''
sg42
S'Value'
p3577
sg19
S''
sg15
g3576
sg28
Nsg44
S"Stream 'import' path changelist specifier. The changelist\n\t\t\tlimits in effect for a given client are displayed in a\n\t    \tread-only client spec field called 'ChangeView'"
p3578
stRp3579
atRp3580
sg68
g3523
sg69
S'2'
sg70
g71
sg44
S'Streams templates'
p3581
sg42
S'Template'
p3582
sg74
S'23'
p3583
sg40
S'db.template'
p3584
stRp3585
sS'haverp'
p3586
g3
(g4
g5
(dp3587
g7
S'clientFile'
p3588
sg9
g3
(g10
g11
(lp3589
g3
(g4
g5
(dp3590
g14
S''
sg15
g16
sg17
g16
sg18
S''
sg19
S''
sg20
g21
sg22
g23
stRp3591
ag3
(g4
g5
(dp3592
g14
S''
sg17
g26
sg18
S''
sg20
g27
sg19
S''
sg15
g26
sg28
Nsg22
g29
stRp3593
ag3
(g4
g5
(dp3594
g14
S''
sg17
g32
sg18
S''
sg20
g21
sg19
S''
sg15
g32
sg28
Nsg22
g33
stRp3595
ag3
(g4
g5
(dp3596
g14
S''
sg17
g36
sg18
S''
sg20
g27
sg19
S''
sg15
g36
sg28
Nsg22
g37
stRp3597
ag3
(g4
g5
(dp3598
g14
S''
sg40
g563
sg18
S''
sg42
g564
sg19
S''
sg15
g563
sg28
Nsg44
g565
stRp3599
ag3
(g4
g5
(dp3600
g14
S''
sg40
g568
sg18
S''
sg42
g569
sg19
S''
sg15
g568
sg28
Nsg44
g570
stRp3601
ag3
(g4
g5
(dp3602
g14
S''
sg40
g573
sg18
S''
sg42
g574
sg19
S''
sg15
g573
sg28
Nsg44
g575
stRp3603
ag3
(g4
g5
(dp3604
g14
S''
sg40
g578
sg18
S''
sg42
g579
sg19
S''
sg15
g578
sg28
Nsg44
g580
stRp3605
ag3
(g4
g5
(dp3606
g14
S''
sg40
g583
sg18
S''
sg42
g584
sg19
S''
sg15
g583
sg28
Nsg44
g585
stRp3607
atRp3608
sg68
g3586
sg69
S'3'
sg70
g71
sg44
S"Contains the 'have-list' for clients of build-server replicas"
p3609
sg42
S'Have'
p3610
sg74
S'32'
p3611
sg40
S'db.have.rp'
p3612
stRp3613
sS'depot'
p3614
g3
(g4
g5
(dp3615
g7
S'name'
p3616
sg9
g3
(g10
g11
(lp3617
g3
(g4
g5
(dp3618
g14
S''
sg15
g16
sg17
g16
sg18
S''
sg19
S''
sg20
g21
sg22
g23
stRp3619
ag3
(g4
g5
(dp3620
g14
S''
sg17
g26
sg18
S''
sg20
g27
sg19
S''
sg15
g26
sg28
Nsg22
g29
stRp3621
ag3
(g4
g5
(dp3622
g14
S''
sg17
g32
sg18
S''
sg20
g21
sg19
S''
sg15
g32
sg28
Nsg22
g33
stRp3623
ag3
(g4
g5
(dp3624
g14
S''
sg17
g36
sg18
S''
sg20
g27
sg19
S''
sg15
g36
sg28
Nsg22
g37
stRp3625
ag3
(g4
g5
(dp3626
g14
S''
sg40
S'name'
p3627
sg18
S''
sg42
S'Domain'
p3628
sg19
S''
sg15
g3627
sg28
Nsg44
S'Depot name'
p3629
stRp3630
ag3
(g4
g5
(dp3631
g14
S''
sg40
S'type'
p3632
sg18
S''
sg42
S'DepotType'
p3633
sg19
S''
sg15
g3632
sg28
Nsg44
S'Type of depot'
p3634
stRp3635
ag3
(g4
g5
(dp3636
g14
S''
sg40
S'extra'
p3637
sg18
S''
sg42
S'Text'
p3638
sg19
S''
sg15
g3637
sg28
Nsg44
S'For remote depots, the P4PORT address of the remote server.\n\t\t    For spec depots, a suffix to append to the filename.\n                   For stream depots, stream depth'
p3639
stRp3640
ag3
(g4
g5
(dp3641
g14
S''
sg40
S'map'
p3642
sg18
S''
sg42
S'Text'
p3643
sg19
S''
sg15
g3642
sg28
Nsg44
S"The depot's map (path translation information).  For local \n\t\t    depots, this will be a path relative to the root directory.\n\t\t    For remote depots, this will be specified in terms of the \n\t\t    remote server's namespace."
p3644
stRp3645
atRp3646
sg68
g3614
sg69
S'1'
sg70
g71
sg44
S'Depot specifications'
p3647
sg42
S'Depot'
p3648
sg74
S'20'
p3649
sg40
S'db.depot'
p3650
stRp3651
sS'config'
p3652
g3
(g4
g5
(dp3653
g7
S'serverName, name'
p3654
sg9
g3
(g10
g11
(lp3655
g3
(g4
g5
(dp3656
g14
S''
sg15
g16
sg17
g16
sg18
S''
sg19
S''
sg20
g21
sg22
g23
stRp3657
ag3
(g4
g5
(dp3658
g14
S''
sg17
g26
sg18
S''
sg20
g27
sg19
S''
sg15
g26
sg28
Nsg22
g29
stRp3659
ag3
(g4
g5
(dp3660
g14
S''
sg17
g32
sg18
S''
sg20
g21
sg19
S''
sg15
g32
sg28
Nsg22
g33
stRp3661
ag3
(g4
g5
(dp3662
g14
S''
sg17
g36
sg18
S''
sg20
g27
sg19
S''
sg15
g36
sg28
Nsg22
g37
stRp3663
ag3
(g4
g5
(dp3664
g14
S''
sg40
S'serverName'
p3665
sg18
S''
sg42
S'Key'
p3666
sg19
S''
sg15
g3665
sg28
Nsg44
S'Server name'
p3667
stRp3668
ag3
(g4
g5
(dp3669
g14
S''
sg40
S'name'
p3670
sg18
S''
sg42
S'Key'
p3671
sg19
S''
sg15
g3670
sg28
Nsg44
S'Configuration variable name'
p3672
stRp3673
ag3
(g4
g5
(dp3674
g14
S''
sg40
S'value'
p3675
sg18
S''
sg42
S'Value'
p3676
sg19
S''
sg15
g3675
sg28
Nsg44
S'Configuration variable value'
p3677
stRp3678
atRp3679
sg68
g3652
sg69
S'1'
sg70
g71
sg44
S'Server configurations table'
p3680
sg42
S'Config'
p3681
sg74
S'1'
sg40
S'db.config'
p3682
stRp3683
sS'counters'
p3684
g3
(g4
g5
(dp3685
g7
S'name'
p3686
sg9
g3
(g10
g11
(lp3687
g3
(g4
g5
(dp3688
g14
S''
sg15
g16
sg17
g16
sg18
S''
sg19
S''
sg20
g21
sg22
g23
stRp3689
ag3
(g4
g5
(dp3690
g14
S''
sg17
g26
sg18
S''
sg20
g27
sg19
S''
sg15
g26
sg28
Nsg22
g29
stRp3691
ag3
(g4
g5
(dp3692
g14
S''
sg17
g32
sg18
S''
sg20
g21
sg19
S''
sg15
g32
sg28
Nsg22
g33
stRp3693
ag3
(g4
g5
(dp3694
g14
S''
sg17
g36
sg18
S''
sg20
g27
sg19
S''
sg15
g36
sg28
Nsg22
g37
stRp3695
ag3
(g4
g5
(dp3696
g14
S''
sg40
S'name'
p3697
sg18
S''
sg42
S'Counter'
p3698
sg19
S''
sg15
g3697
sg28
Nsg44
S'Counter name'
p3699
stRp3700
ag3
(g4
g5
(dp3701
g14
S''
sg40
S'value'
p3702
sg18
S''
sg42
S'Value'
p3703
sg19
S''
sg15
g3702
sg28
Nsg44
S'Counter value'
p3704
stRp3705
atRp3706
sg68
g3684
sg69
S'1'
sg70
g71
sg44
S'Counters table'
p3707
sg42
S'Counters'
p3708
sg74
S'3'
sg40
S'db.counters'
p3709
stRp3710
sS'configh'
p3711
g3
(g4
g5
(dp3712
g7
S'sName, name, version, date, server'
p3713
sg9
g3
(g10
g11
(lp3714
g3
(g4
g5
(dp3715
g14
S''
sg15
g16
sg17
g16
sg18
S''
sg19
S''
sg20
g21
sg22
g23
stRp3716
ag3
(g4
g5
(dp3717
g14
S''
sg17
g26
sg18
S''
sg20
g27
sg19
S''
sg15
g26
sg28
Nsg22
g29
stRp3718
ag3
(g4
g5
(dp3719
g14
S''
sg17
g32
sg18
S''
sg20
g21
sg19
S''
sg15
g32
sg28
Nsg22
g33
stRp3720
ag3
(g4
g5
(dp3721
g14
S''
sg17
g36
sg18
S''
sg20
g27
sg19
S''
sg15
g36
sg28
Nsg22
g37
stRp3722
ag3
(g4
g5
(dp3723
g14
S''
sg40
S'sName'
p3724
sg18
S''
sg42
S'Key'
p3725
sg19
S''
sg15
g3724
sg28
Nsg44
S'Server name where configurable applies'
p3726
stRp3727
ag3
(g4
g5
(dp3728
g14
S''
sg40
S'name'
p3729
sg18
S''
sg42
S'Key'
p3730
sg19
S''
sg15
g3729
sg28
Nsg44
S'variable name'
p3731
stRp3732
ag3
(g4
g5
(dp3733
g14
S''
sg40
S'version'
p3734
sg18
S''
sg42
S'Int'
p3735
sg19
S''
sg15
g3734
sg28
Nsg44
S'configuration version'
p3736
stRp3737
ag3
(g4
g5
(dp3738
g14
S''
sg40
S'date'
p3739
sg18
S''
sg42
S'Date'
p3740
sg19
S''
sg15
g3739
sg28
Nsg44
S'date'
p3741
stRp3742
ag3
(g4
g5
(dp3743
g14
S''
sg40
S'server'
p3744
sg18
S''
sg42
S'Key'
p3745
sg19
S''
sg15
g3744
sg28
Nsg44
S'server ID where the configurable was set'
p3746
stRp3747
ag3
(g4
g5
(dp3748
g14
S''
sg40
S'user'
p3749
sg18
S''
sg42
S'User'
p3750
sg19
S''
sg15
g3749
sg28
Nsg44
S'user'
p3751
stRp3752
ag3
(g4
g5
(dp3753
g14
S''
sg40
S'ovalue'
p3754
sg18
S''
sg42
S'Value'
p3755
sg19
S''
sg15
g3754
sg28
Nsg44
S'old value'
p3756
stRp3757
ag3
(g4
g5
(dp3758
g14
S''
sg40
S'nvalue'
p3759
sg18
S''
sg42
S'Value'
p3760
sg19
S''
sg15
g3759
sg28
Nsg44
S'new value'
p3761
stRp3762
atRp3763
sg68
g3711
sg69
S'0'
sg70
g71
sg44
S'Server configuration history'
p3764
sg42
S'ConfigHist'
p3765
sg74
S'2'
sg40
S'db.configh'
p3766
stRp3767
sS'sendqpt'
p3768
g3
(g4
g5
(dp3769
g7
S'taskid, seq'
p3770
sg9
g3
(g10
g11
(lp3771
g3
(g4
g5
(dp3772
g14
S''
sg15
g16
sg17
g16
sg18
S''
sg19
S''
sg20
g21
sg22
g23
stRp3773
ag3
(g4
g5
(dp3774
g14
S''
sg17
g26
sg18
S''
sg20
g27
sg19
S''
sg15
g26
sg28
Nsg22
g29
stRp3775
ag3
(g4
g5
(dp3776
g14
S''
sg17
g32
sg18
S''
sg20
g21
sg19
S''
sg15
g32
sg28
Nsg22
g33
stRp3777
ag3
(g4
g5
(dp3778
g14
S''
sg17
g36
sg18
S''
sg20
g27
sg19
S''
sg15
g36
sg28
Nsg22
g37
stRp3779
ag3
(g4
g5
(dp3780
g14
S''
sg40
g2672
sg18
S''
sg42
g2673
sg19
S''
sg15
g2672
sg28
Nsg44
g2674
stRp3781
ag3
(g4
g5
(dp3782
g14
S''
sg40
g2677
sg18
S''
sg42
g2678
sg19
S''
sg15
g2677
sg28
Nsg44
g2679
stRp3783
ag3
(g4
g5
(dp3784
g14
S''
sg40
g2682
sg18
S''
sg42
g2683
sg19
S''
sg15
g2682
sg28
Nsg44
g2684
stRp3785
ag3
(g4
g5
(dp3786
g14
S''
sg40
g2687
sg18
S''
sg42
g2688
sg19
S''
sg15
g2687
sg28
Nsg44
g2689
stRp3787
ag3
(g4
g5
(dp3788
g14
S''
sg40
g2692
sg18
S''
sg42
g2693
sg19
S''
sg15
g2692
sg28
Nsg44
g2694
stRp3789
ag3
(g4
g5
(dp3790
g14
S''
sg40
g2697
sg18
S''
sg42
g2698
sg19
S''
sg15
g2697
sg28
Nsg44
g2699
stRp3791
ag3
(g4
g5
(dp3792
g14
S''
sg40
g2702
sg18
S''
sg42
g2703
sg19
S''
sg15
g2702
sg28
Nsg44
g2704
stRp3793
ag3
(g4
g5
(dp3794
g14
S''
sg40
g2707
sg18
S''
sg42
g2708
sg19
S''
sg15
g2707
sg28
Nsg44
g2709
stRp3795
ag3
(g4
g5
(dp3796
g14
S''
sg40
g2712
sg18
S''
sg42
g2713
sg19
S''
sg15
g2712
sg28
Nsg44
g2714
stRp3797
ag3
(g4
g5
(dp3798
g14
S''
sg40
g2717
sg18
S''
sg42
g2718
sg19
S''
sg15
g2717
sg28
Nsg44
g2719
stRp3799
ag3
(g4
g5
(dp3800
g14
S''
sg40
g2722
sg18
S''
sg42
g2723
sg19
S''
sg15
g2722
sg28
Nsg44
g2724
stRp3801
ag3
(g4
g5
(dp3802
g14
S''
sg40
g2727
sg18
S''
sg42
g2728
sg19
S''
sg15
g2727
sg28
Nsg44
g2729
stRp3803
ag3
(g4
g5
(dp3804
g14
S''
sg40
g2732
sg18
S''
sg42
g2733
sg19
S''
sg15
g2732
sg28
Nsg44
g2734
stRp3805
ag3
(g4
g5
(dp3806
g14
S''
sg40
g2737
sg18
S''
sg42
g2738
sg19
S''
sg15
g2737
sg28
Nsg44
g2739
stRp3807
ag3
(g4
g5
(dp3808
g14
S''
sg40
g2742
sg18
S''
sg42
g2743
sg19
S''
sg15
g2742
sg28
Nsg44
g2744
stRp3809
ag3
(g4
g5
(dp3810
g14
S''
sg40
g2747
sg18
S''
sg42
g2748
sg19
S''
sg15
g2747
sg28
Nsg44
g2749
stRp3811
ag3
(g4
g5
(dp3812
g14
S''
sg40
g2752
sg18
S''
sg42
g2753
sg19
S''
sg15
g2752
sg28
Nsg44
g2754
stRp3813
ag3
(g4
g5
(dp3814
g14
S''
sg40
g2757
sg18
S''
sg42
g2758
sg19
S''
sg15
g2757
sg28
Nsg44
g2759
stRp3815
ag3
(g4
g5
(dp3816
g14
S''
sg40
g2762
sg18
S''
sg42
g2763
sg19
S''
sg15
g2762
sg28
Nsg44
g2764
stRp3817
ag3
(g4
g5
(dp3818
g14
S''
sg40
g2767
sg18
S''
sg42
g2768
sg19
S''
sg15
g2767
sg28
Nsg44
g2769
stRp3819
ag3
(g4
g5
(dp3820
g14
S''
sg40
g2772
sg18
S''
sg42
g2773
sg19
S''
sg15
g2772
sg28
Nsg44
g2774
stRp3821
atRp3822
sg68
g3768
sg69
S'4'
sg70
g71
sg44
S'Per Client transmission work queue'
p3823
sg42
S'SendQ'
p3824
sg74
S'101'
p3825
sg40
S'db.sendq.pt'
p3826
stRp3827
sS'revsx'
p3828
g3
(g4
g5
(dp3829
g7
S'depotFile, depotRev'
p3830
sg9
g3
(g10
g11
(lp3831
g3
(g4
g5
(dp3832
g14
S''
sg15
g16
sg17
g16
sg18
S''
sg19
S''
sg20
g21
sg22
g23
stRp3833
ag3
(g4
g5
(dp3834
g14
S''
sg17
g26
sg18
S''
sg20
g27
sg19
S''
sg15
g26
sg28
Nsg22
g29
stRp3835
ag3
(g4
g5
(dp3836
g14
S''
sg17
g32
sg18
S''
sg20
g21
sg19
S''
sg15
g32
sg28
Nsg22
g33
stRp3837
ag3
(g4
g5
(dp3838
g14
S''
sg17
g36
sg18
S''
sg20
g27
sg19
S''
sg15
g36
sg28
Nsg22
g37
stRp3839
ag3
(g4
g5
(dp3840
g14
S''
sg40
g91
sg18
S''
sg42
g92
sg19
S''
sg15
g91
sg28
Nsg44
g93
stRp3841
ag3
(g4
g5
(dp3842
g14
S''
sg40
g96
sg18
S''
sg42
g97
sg19
S''
sg15
g96
sg28
Nsg44
g98
stRp3843
ag3
(g4
g5
(dp3844
g14
S''
sg40
g101
sg18
S''
sg42
g102
sg19
S''
sg15
g101
sg28
Nsg44
g103
stRp3845
ag3
(g4
g5
(dp3846
g14
S''
sg40
g106
sg18
S''
sg42
g107
sg19
S''
sg15
g106
sg28
Nsg44
g108
stRp3847
ag3
(g4
g5
(dp3848
g14
S''
sg40
g111
sg18
S''
sg42
g112
sg19
S''
sg15
g111
sg28
Nsg44
g113
stRp3849
ag3
(g4
g5
(dp3850
g14
S''
sg40
g116
sg18
S''
sg42
g117
sg19
S''
sg15
g116
sg28
Nsg44
g118
stRp3851
ag3
(g4
g5
(dp3852
g14
S''
sg40
g121
sg18
S''
sg42
g122
sg19
S''
sg15
g121
sg28
Nsg44
g123
stRp3853
ag3
(g4
g5
(dp3854
g14
S''
sg40
g126
sg18
S''
sg42
g127
sg19
S''
sg15
g126
sg28
Nsg44
g128
stRp3855
ag3
(g4
g5
(dp3856
g14
S''
sg40
g131
sg18
S''
sg42
g132
sg19
S''
sg15
g131
sg28
Nsg44
g133
stRp3857
ag3
(g4
g5
(dp3858
g14
S''
sg40
g136
sg18
S''
sg42
g137
sg19
S''
sg15
g136
sg28
Nsg44
g138
stRp3859
ag3
(g4
g5
(dp3860
g14
S''
sg40
g141
sg18
S''
sg42
g142
sg19
S''
sg15
g141
sg28
Nsg44
g143
stRp3861
ag3
(g4
g5
(dp3862
g14
S''
sg40
g146
sg18
S''
sg42
g147
sg19
S''
sg15
g146
sg28
Nsg44
g148
stRp3863
ag3
(g4
g5
(dp3864
g14
S''
sg40
g151
sg18
S''
sg42
g152
sg19
S''
sg15
g151
sg28
Nsg44
g153
stRp3865
ag3
(g4
g5
(dp3866
g14
S''
sg40
g156
sg18
S''
sg42
g157
sg19
S''
sg15
g156
sg28
Nsg44
g158
stRp3867
atRp3868
sg68
g3828
sg69
S'9'
sg70
g71
sg44
S'Revision records for spec depot files'
p3869
sg42
S'Rev'
p3870
sg74
S'51'
p3871
sg40
S'db.revsx'
p3872
stRp3873
sS'ticketrp'
p3874
g3
(g4
g5
(dp3875
g7
S'user, host'
p3876
sg9
g3
(g10
g11
(lp3877
g3
(g4
g5
(dp3878
g14
S''
sg15
g16
sg17
g16
sg18
S''
sg19
S''
sg20
g21
sg22
g23
stRp3879
ag3
(g4
g5
(dp3880
g14
S''
sg17
g26
sg18
S''
sg20
g27
sg19
S''
sg15
g26
sg28
Nsg22
g29
stRp3881
ag3
(g4
g5
(dp3882
g14
S''
sg17
g32
sg18
S''
sg20
g21
sg19
S''
sg15
g32
sg28
Nsg22
g33
stRp3883
ag3
(g4
g5
(dp3884
g14
S''
sg17
g36
sg18
S''
sg20
g27
sg19
S''
sg15
g36
sg28
Nsg22
g37
stRp3885
ag3
(g4
g5
(dp3886
g14
S''
sg40
g477
sg18
S''
sg42
g478
sg19
S''
sg15
g477
sg28
Nsg44
g479
stRp3887
ag3
(g4
g5
(dp3888
g14
S''
sg40
g482
sg18
S''
sg42
g483
sg19
S''
sg15
g482
sg28
Nsg44
g484
stRp3889
ag3
(g4
g5
(dp3890
g14
S''
sg40
g487
sg18
S''
sg42
g488
sg19
S''
sg15
g487
sg28
Nsg44
g489
stRp3891
ag3
(g4
g5
(dp3892
g14
S''
sg40
g492
sg18
S''
sg42
g493
sg19
S''
sg15
g492
sg28
Nsg44
g494
stRp3893
ag3
(g4
g5
(dp3894
g14
S''
sg40
g497
sg18
S''
sg42
g498
sg19
S''
sg15
g497
sg28
Nsg44
g499
stRp3895
ag3
(g4
g5
(dp3896
g14
S''
sg40
g502
sg18
S''
sg42
g503
sg19
S''
sg15
g502
sg28
Nsg44
g504
stRp3897
atRp3898
sg68
g3874
sg69
S'0'
sg70
g71
sg44
S'Second factor authentication state on a per user/host basis (replica)'
p3899
sg42
S'Ticket'
p3900
sg74
S'16'
p3901
sg40
S'db.ticket.rp'
p3902
stRp3903
sS'object'
p3904
g3
(g4
g5
(dp3905
g7
S'sha'
p3906
sg9
g3
(g10
g11
(lp3907
g3
(g4
g5
(dp3908
g14
S''
sg15
g16
sg17
g16
sg18
S''
sg19
S''
sg20
g21
sg22
g23
stRp3909
ag3
(g4
g5
(dp3910
g14
S''
sg17
g26
sg18
S''
sg20
g27
sg19
S''
sg15
g26
sg28
Nsg22
g29
stRp3911
ag3
(g4
g5
(dp3912
g14
S''
sg17
g32
sg18
S''
sg20
g21
sg19
S''
sg15
g32
sg28
Nsg22
g33
stRp3913
ag3
(g4
g5
(dp3914
g14
S''
sg17
g36
sg18
S''
sg20
g27
sg19
S''
sg15
g36
sg28
Nsg22
g37
stRp3915
ag3
(g4
g5
(dp3916
g14
S''
sg40
S'sha'
p3917
sg18
S''
sg42
S'SHA1'
p3918
sg19
S''
sg15
g3917
sg28
Nsg44
S'The SHA1 of the object'
p3919
stRp3920
ag3
(g4
g5
(dp3921
g14
S''
sg40
S'type'
p3922
sg18
S''
sg42
S'ObjectType'
p3923
sg19
S''
sg15
g3922
sg28
Nsg44
S'The object type'
p3924
stRp3925
ag3
(g4
g5
(dp3926
g14
S''
sg40
S'data'
p3927
sg18
S''
sg42
S'Octet String'
p3928
sg19
S''
sg15
g3927
sg28
Nsg44
S'The object content'
p3929
stRp3930
atRp3931
sg68
g3904
sg69
S'0'
sg70
g71
sg44
S'Object storage for graph depots'
p3932
sg42
S'Object'
p3933
sg74
S'77'
p3934
sg40
S'db.object'
p3935
stRp3936
sS'workingg'
p3937
g3
(g4
g5
(dp3938
g7
S'clientFile'
p3939
sg9
g3
(g10
g11
(lp3940
g3
(g4
g5
(dp3941
g14
S''
sg15
g16
sg17
g16
sg18
S''
sg19
S''
sg20
g21
sg22
g23
stRp3942
ag3
(g4
g5
(dp3943
g14
S''
sg17
g26
sg18
S''
sg20
g27
sg19
S''
sg15
g26
sg28
Nsg22
g29
stRp3944
ag3
(g4
g5
(dp3945
g14
S''
sg17
g32
sg18
S''
sg20
g21
sg19
S''
sg15
g32
sg28
Nsg22
g33
stRp3946
ag3
(g4
g5
(dp3947
g14
S''
sg17
g36
sg18
S''
sg20
g27
sg19
S''
sg15
g36
sg28
Nsg22
g37
stRp3948
ag3
(g4
g5
(dp3949
g14
S''
sg40
S'clientFile'
p3950
sg18
S''
sg42
S'File'
p3951
sg19
S''
sg15
g3950
sg28
Nsg44
S'File on the client'
p3952
stRp3953
ag3
(g4
g5
(dp3954
g14
S''
sg40
S'depotFile'
p3955
sg18
S''
sg42
S'File'
p3956
sg19
S''
sg15
g3955
sg28
Nsg44
S'File in the depot'
p3957
stRp3958
ag3
(g4
g5
(dp3959
g14
S''
sg40
S'client'
p3960
sg18
S''
sg42
S'Domain'
p3961
sg19
S''
sg15
g3960
sg28
Nsg44
S'The client on which the file is opened'
p3962
stRp3963
ag3
(g4
g5
(dp3964
g14
S''
sg40
S'user'
p3965
sg18
S''
sg42
S'User'
p3966
sg19
S''
sg15
g3965
sg28
Nsg44
S'The user who has the file opened'
p3967
stRp3968
ag3
(g4
g5
(dp3969
g14
S''
sg40
S'haveRev'
p3970
sg18
S''
sg42
S'Rev'
p3971
sg19
S''
sg15
g3970
sg28
Nsg44
S"Revision presently in user's client workspace"
p3972
stRp3973
ag3
(g4
g5
(dp3974
g14
S''
sg40
S'workRev'
p3975
sg18
S''
sg42
S'Rev'
p3976
sg19
S''
sg15
g3975
sg28
Nsg44
S'Working revision; normally identical to the haveRev'
p3977
stRp3978
ag3
(g4
g5
(dp3979
g14
S''
sg40
S'isVirtual'
p3980
sg18
S''
sg42
S'Int'
p3981
sg19
S''
sg15
g3980
sg28
Nsg44
S'Flag: if 1, file was opened with "p4 integ -v".'
p3982
stRp3983
ag3
(g4
g5
(dp3984
g14
S''
sg40
S'type'
p3985
sg18
S''
sg42
S'FileType'
p3986
sg19
S''
sg15
g3985
sg28
Nsg44
S'File type'
p3987
stRp3988
ag3
(g4
g5
(dp3989
g14
S''
sg40
S'action'
p3990
sg18
S''
sg42
S'Action'
p3991
sg19
S''
sg15
g3990
sg28
Nsg44
S"What the user's doing with the file"
p3992
stRp3993
ag3
(g4
g5
(dp3994
g14
S''
sg40
S'change'
p3995
sg18
S''
sg42
S'Change'
p3996
sg19
S''
sg15
g3995
sg28
Nsg44
S'Associated changelist, or zero for the default changelist.'
p3997
stRp3998
ag3
(g4
g5
(dp3999
g14
S''
sg40
S'modTime'
p4000
sg18
S''
sg42
S'Date'
p4001
sg19
S''
sg15
g4000
sg28
Nsg44
S"Modification timestamp on the file in the user's workspace."
p4002
stRp4003
ag3
(g4
g5
(dp4004
g14
S''
sg40
S'isLocked'
p4005
sg18
S''
sg42
S'Int'
p4006
sg19
S''
sg15
g4005
sg28
Nsg44
S'Flag: 0 for unlocked, 1 for locked.'
p4007
stRp4008
ag3
(g4
g5
(dp4009
g14
S''
sg40
S'digest'
p4010
sg18
S''
sg42
S'Digest'
p4011
sg19
S''
sg15
g4010
sg28
Nsg44
S'MD5 digest of working file.'
p4012
stRp4013
ag3
(g4
g5
(dp4014
g14
S''
sg40
S'size'
p4015
sg18
S''
sg42
S'FileSize'
p4016
sg19
S''
sg15
g4015
sg28
Nsg44
S'File size'
p4017
stRp4018
ag3
(g4
g5
(dp4019
g14
S''
sg40
S'traitLot'
p4020
sg18
S''
sg42
S'TraitLot'
p4021
sg19
S''
sg15
g4020
sg28
Nsg44
S'Group of traits associated with file revision.'
p4022
stRp4023
ag3
(g4
g5
(dp4024
g14
S''
sg40
S'tampered'
p4025
sg18
S''
sg42
S'TamperCheck'
p4026
sg19
S''
sg15
g4025
sg28
Nsg44
S'Flag indicating the tamper-state of the file in the\n\t\t    workspace.'
p4027
stRp4028
ag3
(g4
g5
(dp4029
g14
S''
sg40
S'clientType'
p4030
sg18
S''
sg42
S'FileType'
p4031
sg19
S''
sg15
g4030
sg28
Nsg44
S'Type of the file in the client workspace.'
p4032
stRp4033
ag3
(g4
g5
(dp4034
g14
S''
sg40
S'movedFile'
p4035
sg18
S''
sg42
S'File'
p4036
sg19
S''
sg15
g4035
sg28
Nsg44
S'Moved from filename'
p4037
stRp4038
ag3
(g4
g5
(dp4039
g14
S''
sg40
S'status'
p4040
sg18
S''
sg42
S'WorkStatus'
p4041
sg19
S''
sg15
g4040
sg28
Nsg44
S'Working status'
p4042
stRp4043
ag3
(g4
g5
(dp4044
g14
S''
sg40
S'blobSha'
p4045
sg18
S''
sg42
S'SHA1'
p4046
sg19
S''
sg15
g4045
sg28
Nsg44
S'Blob SHA'
p4047
stRp4048
ag3
(g4
g5
(dp4049
g14
S''
sg40
S'repo'
p4050
sg18
S''
sg42
S'Key'
p4051
sg19
S''
sg15
g4050
sg28
Nsg44
S'Repository name'
p4052
stRp4053
atRp4054
sg68
g3937
sg69
S'0'
sg70
g71
sg44
S'Working records for clients of type graph'
p4055
sg42
S'WorkingG'
p4056
sg74
S'63'
p4057
sg40
S'db.workingg'
p4058
stRp4059
sS'job'
p4060
g3
(g4
g5
(dp4061
g7
S'job'
p4062
sg9
g3
(g10
g11
(lp4063
g3
(g4
g5
(dp4064
g14
S''
sg15
g16
sg17
g16
sg18
S''
sg19
S''
sg20
g21
sg22
g23
stRp4065
ag3
(g4
g5
(dp4066
g14
S''
sg17
g26
sg18
S''
sg20
g27
sg19
S''
sg15
g26
sg28
Nsg22
g29
stRp4067
ag3
(g4
g5
(dp4068
g14
S''
sg17
g32
sg18
S''
sg20
g21
sg19
S''
sg15
g32
sg28
Nsg22
g33
stRp4069
ag3
(g4
g5
(dp4070
g14
S''
sg17
g36
sg18
S''
sg20
g27
sg19
S''
sg15
g36
sg28
Nsg22
g37
stRp4071
ag3
(g4
g5
(dp4072
g14
S''
sg40
S'job'
p4073
sg18
S''
sg42
S'Key'
p4074
sg19
S''
sg15
g4073
sg28
Nsg44
S'The job name'
p4075
stRp4076
ag3
(g4
g5
(dp4077
g14
S''
sg40
S'xuser'
p4078
sg18
S''
sg42
S'User'
p4079
sg19
S''
sg15
g4078
sg28
Nsg44
S'User name: defunct'
p4080
stRp4081
ag3
(g4
g5
(dp4082
g14
S''
sg40
S'xdate'
p4083
sg18
S''
sg42
S'Date'
p4084
sg19
S''
sg15
g4083
sg28
Nsg44
S'The date: defunct'
p4085
stRp4086
ag3
(g4
g5
(dp4087
g14
S''
sg40
S'xstatus'
p4088
sg18
S''
sg42
S'JobStat'
p4089
sg19
S''
sg15
g4088
sg28
Nsg44
S'Job status: defunct'
p4090
stRp4091
ag3
(g4
g5
(dp4092
g14
S''
sg40
S'description'
p4093
sg18
S''
sg42
S'DescShort'
p4094
sg19
S''
sg15
g4093
sg28
Nsg44
S'Short description'
p4095
stRp4096
atRp4097
sg68
g4060
sg40
S'db.job'
p4098
sg69
S'0'
sg70
g71
sg915
S'db.bodtext'
p4099
sg42
S'Job'
p4100
sg74
S'82'
p4101
sg44
S'Job records'
p4102
stRp4103
sS'workingx'
p4104
g3
(g4
g5
(dp4105
g7
S'clientFile'
p4106
sg9
g3
(g10
g11
(lp4107
g3
(g4
g5
(dp4108
g14
S''
sg15
g16
sg17
g16
sg18
S''
sg19
S''
sg20
g21
sg22
g23
stRp4109
ag3
(g4
g5
(dp4110
g14
S''
sg17
g26
sg18
S''
sg20
g27
sg19
S''
sg15
g26
sg28
Nsg22
g29
stRp4111
ag3
(g4
g5
(dp4112
g14
S''
sg17
g32
sg18
S''
sg20
g21
sg19
S''
sg15
g32
sg28
Nsg22
g33
stRp4113
ag3
(g4
g5
(dp4114
g14
S''
sg17
g36
sg18
S''
sg20
g27
sg19
S''
sg15
g36
sg28
Nsg22
g37
stRp4115
ag3
(g4
g5
(dp4116
g14
S''
sg40
g770
sg18
S''
sg42
g771
sg19
S''
sg15
g770
sg28
Nsg44
g772
stRp4117
ag3
(g4
g5
(dp4118
g14
S''
sg40
g775
sg18
S''
sg42
g776
sg19
S''
sg15
g775
sg28
Nsg44
g777
stRp4119
ag3
(g4
g5
(dp4120
g14
S''
sg40
g780
sg18
S''
sg42
g781
sg19
S''
sg15
g780
sg28
Nsg44
g782
stRp4121
ag3
(g4
g5
(dp4122
g14
S''
sg40
g785
sg18
S''
sg42
g786
sg19
S''
sg15
g785
sg28
Nsg44
g787
stRp4123
ag3
(g4
g5
(dp4124
g14
S''
sg40
g790
sg18
S''
sg42
g791
sg19
S''
sg15
g790
sg28
Nsg44
g792
stRp4125
ag3
(g4
g5
(dp4126
g14
S''
sg40
g795
sg18
S''
sg42
g796
sg19
S''
sg15
g795
sg28
Nsg44
g797
stRp4127
ag3
(g4
g5
(dp4128
g14
S''
sg40
g800
sg18
S''
sg42
g801
sg19
S''
sg15
g800
sg28
Nsg44
g802
stRp4129
ag3
(g4
g5
(dp4130
g14
S''
sg40
g805
sg18
S''
sg42
g806
sg19
S''
sg15
g805
sg28
Nsg44
g807
stRp4131
ag3
(g4
g5
(dp4132
g14
S''
sg40
g810
sg18
S''
sg42
g811
sg19
S''
sg15
g810
sg28
Nsg44
g812
stRp4133
ag3
(g4
g5
(dp4134
g14
S''
sg40
g815
sg18
S''
sg42
g816
sg19
S''
sg15
g815
sg28
Nsg44
g817
stRp4135
ag3
(g4
g5
(dp4136
g14
S''
sg40
g820
sg18
S''
sg42
g821
sg19
S''
sg15
g820
sg28
Nsg44
g822
stRp4137
ag3
(g4
g5
(dp4138
g14
S''
sg40
g825
sg18
S''
sg42
g826
sg19
S''
sg15
g825
sg28
Nsg44
g827
stRp4139
ag3
(g4
g5
(dp4140
g14
S''
sg40
g830
sg18
S''
sg42
g831
sg19
S''
sg15
g830
sg28
Nsg44
g832
stRp4141
ag3
(g4
g5
(dp4142
g14
S''
sg40
g835
sg18
S''
sg42
g836
sg19
S''
sg15
g835
sg28
Nsg44
g837
stRp4143
ag3
(g4
g5
(dp4144
g14
S''
sg40
g840
sg18
S''
sg42
g841
sg19
S''
sg15
g840
sg28
Nsg44
g842
stRp4145
ag3
(g4
g5
(dp4146
g14
S''
sg40
g845
sg18
S''
sg42
g846
sg19
S''
sg15
g845
sg28
Nsg44
g847
stRp4147
ag3
(g4
g5
(dp4148
g14
S''
sg40
g850
sg18
S''
sg42
g851
sg19
S''
sg15
g850
sg28
Nsg44
g852
stRp4149
ag3
(g4
g5
(dp4150
g14
S''
sg40
g855
sg18
S''
sg42
g856
sg19
S''
sg15
g855
sg28
Nsg44
g857
stRp4151
ag3
(g4
g5
(dp4152
g14
S''
sg40
g860
sg18
S''
sg42
g861
sg19
S''
sg15
g860
sg28
Nsg44
g862
stRp4153
atRp4154
sg68
g4104
sg69
S'10'
p4155
sg70
g71
sg44
S'Records for shelved open files'
p4156
sg42
S'Working'
p4157
sg74
S'62'
p4158
sg40
S'db.workingx'
p4159
stRp4160
sS'templatewx'
p4161
g3
(g4
g5
(dp4162
g7
S'client, name, seq'
p4163
sg9
g3
(g10
g11
(lp4164
g3
(g4
g5
(dp4165
g14
S''
sg15
g16
sg17
g16
sg18
S''
sg19
S''
sg20
g21
sg22
g23
stRp4166
ag3
(g4
g5
(dp4167
g14
S''
sg17
g26
sg18
S''
sg20
g27
sg19
S''
sg15
g26
sg28
Nsg22
g29
stRp4168
ag3
(g4
g5
(dp4169
g14
S''
sg17
g32
sg18
S''
sg20
g21
sg19
S''
sg15
g32
sg28
Nsg22
g33
stRp4170
ag3
(g4
g5
(dp4171
g14
S''
sg17
g36
sg18
S''
sg20
g27
sg19
S''
sg15
g36
sg28
Nsg22
g37
stRp4172
ag3
(g4
g5
(dp4173
g14
S''
sg40
S'client'
p4174
sg18
S''
sg42
S'Domain'
p4175
sg19
S''
sg15
g4174
sg28
Nsg44
S'Stream client'
p4176
stRp4177
ag3
(g4
g5
(dp4178
g14
S''
sg40
S'name'
p4179
sg18
S''
sg42
S'Domain'
p4180
sg19
S''
sg15
g4179
sg28
Nsg44
S'Stream name'
p4181
stRp4182
ag3
(g4
g5
(dp4183
g14
S''
sg40
S'seq'
p4184
sg18
S''
sg42
S'Int'
p4185
sg19
S''
sg15
g4184
sg28
Nsg44
S'Sequence (line) number'
p4186
stRp4187
ag3
(g4
g5
(dp4188
g14
S''
sg40
S'change'
p4189
sg18
S''
sg42
S'Change'
p4190
sg19
S''
sg15
g4189
sg28
Nsg44
S'Versioned at change'
p4191
stRp4192
ag3
(g4
g5
(dp4193
g14
S''
sg40
S'parent'
p4194
sg18
S''
sg42
S'Domain'
p4195
sg19
S''
sg15
g4194
sg28
Nsg44
S'Parent stream name'
p4196
stRp4197
ag3
(g4
g5
(dp4198
g14
S''
sg40
S'type'
p4199
sg18
S''
sg42
S'StreamType'
p4200
sg19
S''
sg15
g4199
sg28
Nsg44
S'Type of stream'
p4201
stRp4202
ag3
(g4
g5
(dp4203
g14
S''
sg40
S'path'
p4204
sg18
S''
sg42
S'StreamPathType'
p4205
sg19
S''
sg15
g4204
sg28
Nsg44
S'Stream path type'
p4206
stRp4207
ag3
(g4
g5
(dp4208
g14
S''
sg40
S'viewFile'
p4209
sg18
S''
sg42
S'Mapping'
p4210
sg19
S''
sg15
g4209
sg28
Nsg44
S'View file (left hand side of path)'
p4211
stRp4212
ag3
(g4
g5
(dp4213
g14
S''
sg40
S'depotFile'
p4214
sg18
S''
sg42
S'Mapping'
p4215
sg19
S''
sg15
g4214
sg28
Nsg44
S'Depot file (right hand side of path)'
p4216
stRp4217
ag3
(g4
g5
(dp4218
g14
S''
sg40
S'changeMap'
p4219
sg18
S''
sg42
S'Value'
p4220
sg19
S''
sg15
g4219
sg28
Nsg44
S"Stream 'import' path changelist specifier. The changelist\n\t\t\tlimits in effect for a given client are displayed in a\n\t    \tread-only client spec field called 'ChangeView'"
p4221
stRp4222
ag3
(g4
g5
(dp4223
g14
S''
sg40
S'changeAtOpen'
p4224
sg18
S''
sg42
S'Change'
p4225
sg19
S''
sg15
g4224
sg28
Nsg44
S'Base change at time of opening'
p4226
stRp4227
atRp4228
sg68
g4161
sg69
S'1'
sg70
g71
sg44
S'Pending stream templates'
p4229
sg42
S'TemplateWx'
p4230
sg74
S'25'
p4231
sg40
S'db.templatewx'
p4232
stRp4233
sS'revsh'
p4234
g3
(g4
g5
(dp4235
g7
S'depotFile, depotRev, type, action, change'
p4236
sg9
g3
(g10
g11
(lp4237
g3
(g4
g5
(dp4238
g14
S''
sg15
g16
sg17
g16
sg18
S''
sg19
S''
sg20
g21
sg22
g23
stRp4239
ag3
(g4
g5
(dp4240
g14
S''
sg17
g26
sg18
S''
sg20
g27
sg19
S''
sg15
g26
sg28
Nsg22
g29
stRp4241
ag3
(g4
g5
(dp4242
g14
S''
sg17
g32
sg18
S''
sg20
g21
sg19
S''
sg15
g32
sg28
Nsg22
g33
stRp4243
ag3
(g4
g5
(dp4244
g14
S''
sg17
g36
sg18
S''
sg20
g27
sg19
S''
sg15
g36
sg28
Nsg22
g37
stRp4245
ag3
(g4
g5
(dp4246
g14
S''
sg40
g91
sg18
S''
sg42
g92
sg19
S''
sg15
g91
sg28
Nsg44
g93
stRp4247
ag3
(g4
g5
(dp4248
g14
S''
sg40
g96
sg18
S''
sg42
g97
sg19
S''
sg15
g96
sg28
Nsg44
g98
stRp4249
ag3
(g4
g5
(dp4250
g14
S''
sg40
g101
sg18
S''
sg42
g102
sg19
S''
sg15
g101
sg28
Nsg44
g103
stRp4251
ag3
(g4
g5
(dp4252
g14
S''
sg40
g106
sg18
S''
sg42
g107
sg19
S''
sg15
g106
sg28
Nsg44
g108
stRp4253
ag3
(g4
g5
(dp4254
g14
S''
sg40
g111
sg18
S''
sg42
g112
sg19
S''
sg15
g111
sg28
Nsg44
g113
stRp4255
ag3
(g4
g5
(dp4256
g14
S''
sg40
g116
sg18
S''
sg42
g117
sg19
S''
sg15
g116
sg28
Nsg44
g118
stRp4257
ag3
(g4
g5
(dp4258
g14
S''
sg40
g121
sg18
S''
sg42
g122
sg19
S''
sg15
g121
sg28
Nsg44
g123
stRp4259
ag3
(g4
g5
(dp4260
g14
S''
sg40
g126
sg18
S''
sg42
g127
sg19
S''
sg15
g126
sg28
Nsg44
g128
stRp4261
ag3
(g4
g5
(dp4262
g14
S''
sg40
g131
sg18
S''
sg42
g132
sg19
S''
sg15
g131
sg28
Nsg44
g133
stRp4263
ag3
(g4
g5
(dp4264
g14
S''
sg40
g136
sg18
S''
sg42
g137
sg19
S''
sg15
g136
sg28
Nsg44
g138
stRp4265
ag3
(g4
g5
(dp4266
g14
S''
sg40
g141
sg18
S''
sg42
g142
sg19
S''
sg15
g141
sg28
Nsg44
g143
stRp4267
ag3
(g4
g5
(dp4268
g14
S''
sg40
g146
sg18
S''
sg42
g147
sg19
S''
sg15
g146
sg28
Nsg44
g148
stRp4269
ag3
(g4
g5
(dp4270
g14
S''
sg40
g151
sg18
S''
sg42
g152
sg19
S''
sg15
g151
sg28
Nsg44
g153
stRp4271
ag3
(g4
g5
(dp4272
g14
S''
sg40
g156
sg18
S''
sg42
g157
sg19
S''
sg15
g156
sg28
Nsg44
g158
stRp4273
atRp4274
sg68
g4234
sg69
S'9'
sg70
g71
sg44
S'Revision records for shelved files'
p4275
sg42
S'Rev'
p4276
sg74
S'52'
p4277
sg40
S'db.revsh'
p4278
stRp4279
sS'changeidx'
p4280
g3
(g4
g5
(dp4281
g7
S'identity'
p4282
sg9
g3
(g10
g11
(lp4283
g3
(g4
g5
(dp4284
g14
S''
sg15
g16
sg17
g16
sg18
S''
sg19
S''
sg20
g21
sg22
g23
stRp4285
ag3
(g4
g5
(dp4286
g14
S''
sg17
g26
sg18
S''
sg20
g27
sg19
S''
sg15
g26
sg28
Nsg22
g29
stRp4287
ag3
(g4
g5
(dp4288
g14
S''
sg17
g32
sg18
S''
sg20
g21
sg19
S''
sg15
g32
sg28
Nsg22
g33
stRp4289
ag3
(g4
g5
(dp4290
g14
S''
sg17
g36
sg18
S''
sg20
g27
sg19
S''
sg15
g36
sg28
Nsg22
g37
stRp4291
ag3
(g4
g5
(dp4292
g14
S''
sg40
S'identity'
p4293
sg18
S''
sg42
S'Key'
p4294
sg19
S''
sg15
g4293
sg28
Nsg44
S'Identifier for this change'
p4295
stRp4296
ag3
(g4
g5
(dp4297
g14
S''
sg40
S'change'
p4298
sg18
S''
sg42
S'Change'
p4299
sg19
S''
sg15
g4298
sg28
Nsg44
S'Changelist'
p4300
stRp4301
atRp4302
sg68
g4280
sg69
S'1'
sg70
g71
sg44
S'Secondary index of db.change/db.changex'
p4303
sg42
S'ChangeIdx'
p4304
sg74
S'72'
p4305
sg40
S'db.changeidx'
p4306
stRp4307
sS'locksg'
p4308
g3
(g4
g5
(dp4309
g7
S'depotFile, client'
p4310
sg9
g3
(g10
g11
(lp4311
g3
(g4
g5
(dp4312
g14
S''
sg15
g16
sg17
g16
sg18
S''
sg19
S''
sg20
g21
sg22
g23
stRp4313
ag3
(g4
g5
(dp4314
g14
S''
sg17
g26
sg18
S''
sg20
g27
sg19
S''
sg15
g26
sg28
Nsg22
g29
stRp4315
ag3
(g4
g5
(dp4316
g14
S''
sg17
g32
sg18
S''
sg20
g21
sg19
S''
sg15
g32
sg28
Nsg22
g33
stRp4317
ag3
(g4
g5
(dp4318
g14
S''
sg17
g36
sg18
S''
sg20
g27
sg19
S''
sg15
g36
sg28
Nsg22
g37
stRp4319
ag3
(g4
g5
(dp4320
g14
S''
sg40
g2841
sg18
S''
sg42
g2842
sg19
S''
sg15
g2841
sg28
Nsg44
g2843
stRp4321
ag3
(g4
g5
(dp4322
g14
S''
sg40
g2846
sg18
S''
sg42
g2847
sg19
S''
sg15
g2846
sg28
Nsg44
g2848
stRp4323
ag3
(g4
g5
(dp4324
g14
S''
sg40
g2851
sg18
S''
sg42
g2852
sg19
S''
sg15
g2851
sg28
Nsg44
g2853
stRp4325
ag3
(g4
g5
(dp4326
g14
S''
sg40
g2856
sg18
S''
sg42
g2857
sg19
S''
sg15
g2856
sg28
Nsg44
g2858
stRp4327
ag3
(g4
g5
(dp4328
g14
S''
sg40
g2861
sg18
S''
sg42
g2862
sg19
S''
sg15
g2861
sg28
Nsg44
g2863
stRp4329
ag3
(g4
g5
(dp4330
g14
S''
sg40
g2866
sg18
S''
sg42
g2867
sg19
S''
sg15
g2866
sg28
Nsg44
g2868
stRp4331
atRp4332
sg68
g4308
sg69
S'2'
sg70
g71
sg44
S'Lock records for clients of type graph'
p4333
sg42
S'Locks'
p4334
sg74
S'60'
p4335
sg40
S'db.locksg'
p4336
stRp4337
sS'bodtextsx'
p4338
g3
(g4
g5
(dp4339
g7
S'type, shelf, key, attr'
p4340
sg9
g3
(g10
g11
(lp4341
g3
(g4
g5
(dp4342
g14
S''
sg15
g16
sg17
g16
sg18
S''
sg19
S''
sg20
g21
sg22
g23
stRp4343
ag3
(g4
g5
(dp4344
g14
S''
sg17
g26
sg18
S''
sg20
g27
sg19
S''
sg15
g26
sg28
Nsg22
g29
stRp4345
ag3
(g4
g5
(dp4346
g14
S''
sg17
g32
sg18
S''
sg20
g21
sg19
S''
sg15
g32
sg28
Nsg22
g33
stRp4347
ag3
(g4
g5
(dp4348
g14
S''
sg17
g36
sg18
S''
sg20
g27
sg19
S''
sg15
g36
sg28
Nsg22
g37
stRp4349
ag3
(g4
g5
(dp4350
g14
S''
sg40
S'type'
p4351
sg18
S''
sg42
S'Int'
p4352
sg19
S''
sg15
g4351
sg28
Nsg44
S'The type of spec'
p4353
stRp4354
ag3
(g4
g5
(dp4355
g14
S''
sg40
S'shelf'
p4356
sg18
S''
sg42
S'Change'
p4357
sg19
S''
sg15
g4356
sg28
Nsg44
S'The shelf to which this attribute belongs'
p4358
stRp4359
ag3
(g4
g5
(dp4360
g14
S''
sg40
S'key'
p4361
sg18
S''
sg42
S'Key'
p4362
sg19
S''
sg15
g4361
sg28
Nsg44
S'The spec to which this attribute belongs'
p4363
stRp4364
ag3
(g4
g5
(dp4365
g14
S''
sg40
S'attr'
p4366
sg18
S''
sg42
S'Int'
p4367
sg19
S''
sg15
g4366
sg28
Nsg44
S'The attribute number of this attribute'
p4368
stRp4369
ag3
(g4
g5
(dp4370
g14
S''
sg40
S'text'
p4371
sg18
S''
sg42
S'Text'
p4372
sg19
S''
sg15
g4371
sg28
Nsg44
S'The attribute value'
p4373
stRp4374
ag3
(g4
g5
(dp4375
g14
S''
sg40
S'workChange'
p4376
sg18
S''
sg42
S'Change'
p4377
sg19
S''
sg15
g4376
sg28
Nsg44
S'The working change'
p4378
stRp4379
atRp4380
sg68
g4338
sg69
S'0'
sg70
g71
sg44
S'Shelved openable spec fields'
p4381
sg42
S'BodyTextSx'
p4382
sg74
S'91'
p4383
sg40
S'db.bodtextsx'
p4384
stRp4385
sS'integtx'
p4386
g3
(g4
g5
(dp4387
g7
S'toFile, fromFile, startFromRev, endFromRev,\n\t\t\tstartToRev, endToRev'
p4388
sg9
g3
(g10
g11
(lp4389
g3
(g4
g5
(dp4390
g14
S''
sg15
g16
sg17
g16
sg18
S''
sg19
S''
sg20
g21
sg22
g23
stRp4391
ag3
(g4
g5
(dp4392
g14
S''
sg17
g26
sg18
S''
sg20
g27
sg19
S''
sg15
g26
sg28
Nsg22
g29
stRp4393
ag3
(g4
g5
(dp4394
g14
S''
sg17
g32
sg18
S''
sg20
g21
sg19
S''
sg15
g32
sg28
Nsg22
g33
stRp4395
ag3
(g4
g5
(dp4396
g14
S''
sg17
g36
sg18
S''
sg20
g27
sg19
S''
sg15
g36
sg28
Nsg22
g37
stRp4397
ag3
(g4
g5
(dp4398
g14
S''
sg40
g1543
sg18
S''
sg42
g1544
sg19
S''
sg15
g1543
sg28
Nsg44
g1545
stRp4399
ag3
(g4
g5
(dp4400
g14
S''
sg40
g1548
sg18
S''
sg42
g1549
sg19
S''
sg15
g1548
sg28
Nsg44
g1550
stRp4401
ag3
(g4
g5
(dp4402
g14
S''
sg40
g1553
sg18
S''
sg42
g1554
sg19
S''
sg15
g1553
sg28
Nsg44
g1555
stRp4403
ag3
(g4
g5
(dp4404
g14
S''
sg40
g1558
sg18
S''
sg42
g1559
sg19
S''
sg15
g1558
sg28
Nsg44
g1560
stRp4405
ag3
(g4
g5
(dp4406
g14
S''
sg40
g1563
sg18
S''
sg42
g1564
sg19
S''
sg15
g1563
sg28
Nsg44
g1565
stRp4407
ag3
(g4
g5
(dp4408
g14
S''
sg40
g1568
sg18
S''
sg42
g1569
sg19
S''
sg15
g1568
sg28
Nsg44
g1570
stRp4409
ag3
(g4
g5
(dp4410
g14
S''
sg40
g1573
sg18
S''
sg42
g1574
sg19
S''
sg15
g1573
sg28
Nsg44
g1575
stRp4411
ag3
(g4
g5
(dp4412
g14
S''
sg40
g1578
sg18
S''
sg42
g1579
sg19
S''
sg15
g1578
sg28
Nsg44
g1580
stRp4413
atRp4414
sg68
g4386
sg40
S'db.integtx'
p4415
sg69
S'0'
sg70
g71
sg915
S'db.resolve'
p4416
sg42
S'Integed'
p4417
sg74
S'37'
p4418
sg44
S'Temporary integration records used by task streams'
p4419
stRp4420
sS'protect'
p4421
g3
(g4
g5
(dp4422
g7
S'seq'
p4423
sg9
g3
(g10
g11
(lp4424
g3
(g4
g5
(dp4425
g14
S''
sg15
g16
sg17
g16
sg18
S''
sg19
S''
sg20
g21
sg22
g23
stRp4426
ag3
(g4
g5
(dp4427
g14
S''
sg17
g26
sg18
S''
sg20
g27
sg19
S''
sg15
g26
sg28
Nsg22
g29
stRp4428
ag3
(g4
g5
(dp4429
g14
S''
sg17
g32
sg18
S''
sg20
g21
sg19
S''
sg15
g32
sg28
Nsg22
g33
stRp4430
ag3
(g4
g5
(dp4431
g14
S''
sg17
g36
sg18
S''
sg20
g27
sg19
S''
sg15
g36
sg28
Nsg22
g37
stRp4432
ag3
(g4
g5
(dp4433
g14
S''
sg40
S'seq'
p4434
sg18
S''
sg42
S'Int'
p4435
sg19
S''
sg15
g4434
sg28
Nsg44
S'Sequence number: for ordering the protections table'
p4436
stRp4437
ag3
(g4
g5
(dp4438
g14
S''
sg40
S'isGroup'
p4439
sg18
S''
sg42
S'Int'
p4440
sg19
S''
sg15
g4439
sg28
Nsg44
S'Flag: 0 for a per-user setting, 1 for a per-group setting.'
p4441
stRp4442
ag3
(g4
g5
(dp4443
g14
S''
sg40
S'user'
p4444
sg18
S''
sg42
S'UserWild'
p4445
sg19
S''
sg15
g4444
sg28
Nsg44
S'User(s), or Group(s) for whom this record applies.'
p4446
stRp4447
ag3
(g4
g5
(dp4448
g14
S''
sg40
S'host'
p4449
sg18
S''
sg42
S'DomainWild'
p4450
sg19
S''
sg15
g4449
sg28
Nsg44
S'Domain(s) (IP addresses) for which this record applies.'
p4451
stRp4452
ag3
(g4
g5
(dp4453
g14
S''
sg40
S'perm'
p4454
sg18
S''
sg42
S'Perm'
p4455
sg19
S''
sg15
g4454
sg28
Nsg44
S'Permissions to be granted/revoked'
p4456
stRp4457
ag3
(g4
g5
(dp4458
g14
S''
sg40
S'mapFlag'
p4459
sg18
S''
sg42
S'MapFlag'
p4460
sg19
S''
sg15
g4459
sg28
Nsg44
S'Flag: Map the files in or out?'
p4461
stRp4462
ag3
(g4
g5
(dp4463
g14
S''
sg40
S'depotFile'
p4464
sg18
S''
sg42
S'Mapping'
p4465
sg19
S''
sg15
g4464
sg28
Nsg44
S'Files to be mapped in or out.'
p4466
stRp4467
ag3
(g4
g5
(dp4468
g14
S''
sg40
S'subPath'
p4469
sg18
S''
sg42
S'Mapping'
p4470
sg19
S''
sg15
g4469
sg28
Nsg44
S'Root path of the sub-protections table'
p4471
stRp4472
ag3
(g4
g5
(dp4473
g14
S''
sg40
S'update'
p4474
sg18
S''
sg42
S'Date'
p4475
sg19
S''
sg15
g4474
sg28
Nsg44
S'Date this specification was last modified'
p4476
stRp4477
atRp4478
sg68
g4421
sg69
S'5'
sg70
g71
sg44
S'The protections table'
p4479
sg42
S'Protect'
p4480
sg74
S'97'
p4481
sg40
S'db.protect'
p4482
stRp4483
sS'remote'
p4484
g3
(g4
g5
(dp4485
g7
S'id'
p4486
sg9
g3
(g10
g11
(lp4487
g3
(g4
g5
(dp4488
g14
S''
sg15
g16
sg17
g16
sg18
S''
sg19
S''
sg20
g21
sg22
g23
stRp4489
ag3
(g4
g5
(dp4490
g14
S''
sg17
g26
sg18
S''
sg20
g27
sg19
S''
sg15
g26
sg28
Nsg22
g29
stRp4491
ag3
(g4
g5
(dp4492
g14
S''
sg17
g32
sg18
S''
sg20
g21
sg19
S''
sg15
g32
sg28
Nsg22
g33
stRp4493
ag3
(g4
g5
(dp4494
g14
S''
sg17
g36
sg18
S''
sg20
g27
sg19
S''
sg15
g36
sg28
Nsg22
g37
stRp4495
ag3
(g4
g5
(dp4496
g14
S''
sg40
S'id'
p4497
sg18
S''
sg42
S'RemoteID'
p4498
sg19
S''
sg15
g4497
sg28
Nsg44
S'The remote identifier'
p4499
stRp4500
ag3
(g4
g5
(dp4501
g14
S''
sg40
S'owner'
p4502
sg18
S''
sg42
S'User'
p4503
sg19
S''
sg15
g4502
sg28
Nsg44
S'The user who created this remote'
p4504
stRp4505
ag3
(g4
g5
(dp4506
g14
S''
sg40
S'options'
p4507
sg18
S''
sg42
S'Int'
p4508
sg19
S''
sg15
g4507
sg28
Nsg44
S'Remote options bitmask: 0: unlocked/nocompress, 1: locked/nocompress, 2: unlocked/compress, 4: locked/compress'
p4509
stRp4510
ag3
(g4
g5
(dp4511
g14
S''
sg40
S'address'
p4512
sg18
S''
sg42
S'Text'
p4513
sg19
S''
sg15
g4512
sg28
Nsg44
S'The P4PORT used by the remote server'
p4514
stRp4515
ag3
(g4
g5
(dp4516
g14
S''
sg40
S'desc'
p4517
sg18
S''
sg42
S'Text'
p4518
sg19
S''
sg15
g4517
sg28
Nsg44
S'Description of the remote server'
p4519
stRp4520
ag3
(g4
g5
(dp4521
g14
S''
sg40
S'update'
p4522
sg18
S''
sg42
S'Date'
p4523
sg19
S''
sg15
g4522
sg28
Nsg44
S'The date this specification was last modified'
p4524
stRp4525
ag3
(g4
g5
(dp4526
g14
S''
sg40
S'access'
p4527
sg18
S''
sg42
S'Date'
p4528
sg19
S''
sg15
g4527
sg28
Nsg44
S'The date of the last push/fetch on this remote'
p4529
stRp4530
ag3
(g4
g5
(dp4531
g14
S''
sg40
S'fetch'
p4532
sg18
S''
sg42
S'Change'
p4533
sg19
S''
sg15
g4532
sg28
Nsg44
S'The last changelist that was fetched'
p4534
stRp4535
ag3
(g4
g5
(dp4536
g14
S''
sg40
S'push'
p4537
sg18
S''
sg42
S'Change'
p4538
sg19
S''
sg15
g4537
sg28
Nsg44
S'The last changelist that was pushed'
p4539
stRp4540
ag3
(g4
g5
(dp4541
g14
S''
sg40
S'rmtuser'
p4542
sg18
S''
sg42
S'User'
p4543
sg19
S''
sg15
g4542
sg28
Nsg44
S'The user to use when connecting to the remote server'
p4544
stRp4545
atRp4546
sg68
g4484
sg69
S'1'
sg70
g71
sg44
S'Remote specifications'
p4547
sg42
S'Remote'
p4548
sg74
S'11'
p4549
sg40
S'db.remote'
p4550
stRp4551
sS'haveview'
p4552
g3
(g4
g5
(dp4553
g7
S'name, seq'
p4554
sg9
g3
(g10
g11
(lp4555
g3
(g4
g5
(dp4556
g14
S''
sg15
g16
sg17
g16
sg18
S''
sg19
S''
sg20
g21
sg22
g23
stRp4557
ag3
(g4
g5
(dp4558
g14
S''
sg17
g26
sg18
S''
sg20
g27
sg19
S''
sg15
g26
sg28
Nsg22
g29
stRp4559
ag3
(g4
g5
(dp4560
g14
S''
sg17
g32
sg18
S''
sg20
g21
sg19
S''
sg15
g32
sg28
Nsg22
g33
stRp4561
ag3
(g4
g5
(dp4562
g14
S''
sg17
g36
sg18
S''
sg20
g27
sg19
S''
sg15
g36
sg28
Nsg22
g37
stRp4563
ag3
(g4
g5
(dp4564
g14
S''
sg40
g2375
sg18
S''
sg42
g2376
sg19
S''
sg15
g2375
sg28
Nsg44
g2377
stRp4565
ag3
(g4
g5
(dp4566
g14
S''
sg40
g2380
sg18
S''
sg42
g2381
sg19
S''
sg15
g2380
sg28
Nsg44
g2382
stRp4567
ag3
(g4
g5
(dp4568
g14
S''
sg40
g2385
sg18
S''
sg42
g2386
sg19
S''
sg15
g2385
sg28
Nsg44
g2387
stRp4569
ag3
(g4
g5
(dp4570
g14
S''
sg40
g2390
sg18
S''
sg42
g2391
sg19
S''
sg15
g2390
sg28
Nsg44
g2392
stRp4571
ag3
(g4
g5
(dp4572
g14
S''
sg40
g2395
sg18
S''
sg42
g2396
sg19
S''
sg15
g2395
sg28
Nsg44
g2397
stRp4573
atRp4574
sg68
g4552
sg69
S'1'
sg70
g71
sg44
S'Stores mapping changes for clients mapping graph depot content'
p4575
sg42
S'View'
p4576
sg74
S'29'
p4577
sg40
S'db.haveview'
p4578
stRp4579
sS'ixtexthx'
p4580
g3
(g4
g5
(dp4581
g7
S'type, word, attr, value'
p4582
sg9
g3
(g10
g11
(lp4583
g3
(g4
g5
(dp4584
g14
S''
sg15
g16
sg17
g16
sg18
S''
sg19
S''
sg20
g21
sg22
g23
stRp4585
ag3
(g4
g5
(dp4586
g14
S''
sg17
g26
sg18
S''
sg20
g27
sg19
S''
sg15
g26
sg28
Nsg22
g29
stRp4587
ag3
(g4
g5
(dp4588
g14
S''
sg17
g32
sg18
S''
sg20
g21
sg19
S''
sg15
g32
sg28
Nsg22
g33
stRp4589
ag3
(g4
g5
(dp4590
g14
S''
sg17
g36
sg18
S''
sg20
g27
sg19
S''
sg15
g36
sg28
Nsg22
g37
stRp4591
ag3
(g4
g5
(dp4592
g14
S''
sg40
S'type'
p4593
sg18
S''
sg42
S'SpecType'
p4594
sg19
S''
sg15
g4593
sg28
Nsg44
S'The type'
p4595
stRp4596
ag3
(g4
g5
(dp4597
g14
S''
sg40
S'word'
p4598
sg18
S''
sg42
S'Key'
p4599
sg19
S''
sg15
g4598
sg28
Nsg44
S'The word being indexed'
p4600
stRp4601
ag3
(g4
g5
(dp4602
g14
S''
sg40
S'attr'
p4603
sg18
S''
sg42
S'Int'
p4604
sg19
S''
sg15
g4603
sg28
Nsg44
S'The attribute number to which this word belongs.'
p4605
stRp4606
ag3
(g4
g5
(dp4607
g14
S''
sg40
S'value'
p4608
sg18
S''
sg42
S'Key'
p4609
sg19
S''
sg15
g4608
sg28
Nsg44
S'The value of the index keyed by the word.'
p4610
stRp4611
atRp4612
sg68
g4580
sg69
S'0'
sg70
g71
sg44
S'Indexing data for head revision of all spec fields'
p4613
sg42
S'IndexTextHx'
p4614
sg74
S'95'
p4615
sg40
S'db.ixtexthx'
p4616
stRp4617
sS'templatesx'
p4618
g3
(g4
g5
(dp4619
g7
S'shelf, name, seq'
p4620
sg9
g3
(g10
g11
(lp4621
g3
(g4
g5
(dp4622
g14
S''
sg15
g16
sg17
g16
sg18
S''
sg19
S''
sg20
g21
sg22
g23
stRp4623
ag3
(g4
g5
(dp4624
g14
S''
sg17
g26
sg18
S''
sg20
g27
sg19
S''
sg15
g26
sg28
Nsg22
g29
stRp4625
ag3
(g4
g5
(dp4626
g14
S''
sg17
g32
sg18
S''
sg20
g21
sg19
S''
sg15
g32
sg28
Nsg22
g33
stRp4627
ag3
(g4
g5
(dp4628
g14
S''
sg17
g36
sg18
S''
sg20
g27
sg19
S''
sg15
g36
sg28
Nsg22
g37
stRp4629
ag3
(g4
g5
(dp4630
g14
S''
sg40
S'shelf'
p4631
sg18
S''
sg42
S'Change'
p4632
sg19
S''
sg15
g4631
sg28
Nsg44
S'Shelf changelist number'
p4633
stRp4634
ag3
(g4
g5
(dp4635
g14
S''
sg40
S'name'
p4636
sg18
S''
sg42
S'Domain'
p4637
sg19
S''
sg15
g4636
sg28
Nsg44
S'Stream name'
p4638
stRp4639
ag3
(g4
g5
(dp4640
g14
S''
sg40
S'seq'
p4641
sg18
S''
sg42
S'Int'
p4642
sg19
S''
sg15
g4641
sg28
Nsg44
S'Sequence (line) number'
p4643
stRp4644
ag3
(g4
g5
(dp4645
g14
S''
sg40
S'change'
p4646
sg18
S''
sg42
S'Change'
p4647
sg19
S''
sg15
g4646
sg28
Nsg44
S'Versioned at change'
p4648
stRp4649
ag3
(g4
g5
(dp4650
g14
S''
sg40
S'parent'
p4651
sg18
S''
sg42
S'Domain'
p4652
sg19
S''
sg15
g4651
sg28
Nsg44
S'Parent stream name'
p4653
stRp4654
ag3
(g4
g5
(dp4655
g14
S''
sg40
S'type'
p4656
sg18
S''
sg42
S'StreamType'
p4657
sg19
S''
sg15
g4656
sg28
Nsg44
S'Type of stream'
p4658
stRp4659
ag3
(g4
g5
(dp4660
g14
S''
sg40
S'path'
p4661
sg18
S''
sg42
S'StreamPathType'
p4662
sg19
S''
sg15
g4661
sg28
Nsg44
S'Stream path type'
p4663
stRp4664
ag3
(g4
g5
(dp4665
g14
S''
sg40
S'viewFile'
p4666
sg18
S''
sg42
S'Mapping'
p4667
sg19
S''
sg15
g4666
sg28
Nsg44
S'View file (left hand side of path)'
p4668
stRp4669
ag3
(g4
g5
(dp4670
g14
S''
sg40
S'depotFile'
p4671
sg18
S''
sg42
S'Mapping'
p4672
sg19
S''
sg15
g4671
sg28
Nsg44
S'Depot file (right hand side of path)'
p4673
stRp4674
ag3
(g4
g5
(dp4675
g14
S''
sg40
S'changeMap'
p4676
sg18
S''
sg42
S'Value'
p4677
sg19
S''
sg15
g4676
sg28
Nsg44
S"Stream 'import' path changelist specifier. The changelist\n\t\t\tlimits in effect for a given client are displayed in a\n\t    \tread-only client spec field called 'ChangeView'"
p4678
stRp4679
ag3
(g4
g5
(dp4680
g14
S''
sg40
S'changeAtOpen'
p4681
sg18
S''
sg42
S'Change'
p4682
sg19
S''
sg15
g4681
sg28
Nsg44
S'Base change at time of opening'
p4683
stRp4684
atRp4685
sg68
g4618
sg69
S'1'
sg70
g71
sg44
S'Shelved stream templates'
p4686
sg42
S'TemplateSx'
p4687
sg74
S'24'
p4688
sg40
S'db.templatesx'
p4689
stRp4690
sS'uxtext'
p4691
g3
(g4
g5
(dp4692
g7
S'word, attr, value'
p4693
sg9
g3
(g10
g11
(lp4694
g3
(g4
g5
(dp4695
g14
S''
sg15
g16
sg17
g16
sg18
S''
sg19
S''
sg20
g21
sg22
g23
stRp4696
ag3
(g4
g5
(dp4697
g14
S''
sg17
g26
sg18
S''
sg20
g27
sg19
S''
sg15
g26
sg28
Nsg22
g29
stRp4698
ag3
(g4
g5
(dp4699
g14
S''
sg17
g32
sg18
S''
sg20
g21
sg19
S''
sg15
g32
sg28
Nsg22
g33
stRp4700
ag3
(g4
g5
(dp4701
g14
S''
sg17
g36
sg18
S''
sg20
g27
sg19
S''
sg15
g36
sg28
Nsg22
g37
stRp4702
ag3
(g4
g5
(dp4703
g14
S''
sg40
g363
sg18
S''
sg42
g364
sg19
S''
sg15
g363
sg28
Nsg44
g365
stRp4704
ag3
(g4
g5
(dp4705
g14
S''
sg40
g368
sg18
S''
sg42
g369
sg19
S''
sg15
g368
sg28
Nsg44
g370
stRp4706
ag3
(g4
g5
(dp4707
g14
S''
sg40
g373
sg18
S''
sg42
g374
sg19
S''
sg15
g373
sg28
Nsg44
g375
stRp4708
atRp4709
sg68
g4691
sg69
S'0'
sg70
g71
sg44
S'Indexing data for Swarm'
p4710
sg42
S'IndexText'
p4711
sg74
S'96'
p4712
sg40
S'db.uxtext'
p4713
stRp4714
sS'bodtextwx'
p4715
g3
(g4
g5
(dp4716
g7
S'type, client, key, attr'
p4717
sg9
g3
(g10
g11
(lp4718
g3
(g4
g5
(dp4719
g14
S''
sg15
g16
sg17
g16
sg18
S''
sg19
S''
sg20
g21
sg22
g23
stRp4720
ag3
(g4
g5
(dp4721
g14
S''
sg17
g26
sg18
S''
sg20
g27
sg19
S''
sg15
g26
sg28
Nsg22
g29
stRp4722
ag3
(g4
g5
(dp4723
g14
S''
sg17
g32
sg18
S''
sg20
g21
sg19
S''
sg15
g32
sg28
Nsg22
g33
stRp4724
ag3
(g4
g5
(dp4725
g14
S''
sg17
g36
sg18
S''
sg20
g27
sg19
S''
sg15
g36
sg28
Nsg22
g37
stRp4726
ag3
(g4
g5
(dp4727
g14
S''
sg40
S'type'
p4728
sg18
S''
sg42
S'Int'
p4729
sg19
S''
sg15
g4728
sg28
Nsg44
S'The type of spec'
p4730
stRp4731
ag3
(g4
g5
(dp4732
g14
S''
sg40
S'client'
p4733
sg18
S''
sg42
S'Domain'
p4734
sg19
S''
sg15
g4733
sg28
Nsg44
S'The client the spec is opened on'
p4735
stRp4736
ag3
(g4
g5
(dp4737
g14
S''
sg40
S'key'
p4738
sg18
S''
sg42
S'Key'
p4739
sg19
S''
sg15
g4738
sg28
Nsg44
S'The spec to which this attribute belongs'
p4740
stRp4741
ag3
(g4
g5
(dp4742
g14
S''
sg40
S'attr'
p4743
sg18
S''
sg42
S'Int'
p4744
sg19
S''
sg15
g4743
sg28
Nsg44
S'The attribute number of this attribute'
p4745
stRp4746
ag3
(g4
g5
(dp4747
g14
S''
sg40
S'text'
p4748
sg18
S''
sg42
S'Text'
p4749
sg19
S''
sg15
g4748
sg28
Nsg44
S'The attribute value'
p4750
stRp4751
ag3
(g4
g5
(dp4752
g14
S''
sg40
S'workChange'
p4753
sg18
S''
sg42
S'Change'
p4754
sg19
S''
sg15
g4753
sg28
Nsg44
S'The working change'
p4755
stRp4756
atRp4757
sg68
g4715
sg69
S'0'
sg70
g71
sg44
S'Open openable spec fields'
p4758
sg42
S'BodyTextWx'
p4759
sg74
S'92'
p4760
sg40
S'db.bodtextwx'
p4761
stRp4762
sS'stash'
p4763
g3
(g4
g5
(dp4764
g7
S'client, stream, type, seq'
p4765
sg9
g3
(g10
g11
(lp4766
g3
(g4
g5
(dp4767
g14
S''
sg15
g16
sg17
g16
sg18
S''
sg19
S''
sg20
g21
sg22
g23
stRp4768
ag3
(g4
g5
(dp4769
g14
S''
sg17
g26
sg18
S''
sg20
g27
sg19
S''
sg15
g26
sg28
Nsg22
g29
stRp4770
ag3
(g4
g5
(dp4771
g14
S''
sg17
g32
sg18
S''
sg20
g21
sg19
S''
sg15
g32
sg28
Nsg22
g33
stRp4772
ag3
(g4
g5
(dp4773
g14
S''
sg17
g36
sg18
S''
sg20
g27
sg19
S''
sg15
g36
sg28
Nsg22
g37
stRp4774
ag3
(g4
g5
(dp4775
g14
S''
sg40
S'client'
p4776
sg18
S''
sg42
S'Domain'
p4777
sg19
S''
sg15
g4776
sg28
Nsg44
S'Client the stash refers to'
p4778
stRp4779
ag3
(g4
g5
(dp4780
g14
S''
sg40
S'stream'
p4781
sg18
S''
sg42
S'Domain'
p4782
sg19
S''
sg15
g4781
sg28
Nsg44
S'Stream the stash refers to'
p4783
stRp4784
ag3
(g4
g5
(dp4785
g14
S''
sg40
S'type'
p4786
sg18
S''
sg42
S'StashType'
p4787
sg19
S''
sg15
g4786
sg28
Nsg44
S'Stash type'
p4788
stRp4789
ag3
(g4
g5
(dp4790
g14
S''
sg40
S'seq'
p4791
sg18
S''
sg42
S'Int'
p4792
sg19
S''
sg15
g4791
sg28
Nsg44
S'Sequence number'
p4793
stRp4794
ag3
(g4
g5
(dp4795
g14
S''
sg40
S'change'
p4796
sg18
S''
sg42
S'Change'
p4797
sg19
S''
sg15
g4796
sg28
Nsg44
S'Stash change number'
p4798
stRp4799
atRp4800
sg68
g4763
sg69
S'0'
sg70
g71
sg44
S'Stash data'
p4801
sg42
S'Stash'
p4802
sg74
S'13'
p4803
sg40
S'db.stash'
p4804
stRp4805
sS'graphperm'
p4806
g3
(g4
g5
(dp4807
g7
S'name, repo, ref, type, user, perm'
p4808
sg9
g3
(g10
g11
(lp4809
g3
(g4
g5
(dp4810
g14
S''
sg15
g16
sg17
g16
sg18
S''
sg19
S''
sg20
g21
sg22
g23
stRp4811
ag3
(g4
g5
(dp4812
g14
S''
sg17
g26
sg18
S''
sg20
g27
sg19
S''
sg15
g26
sg28
Nsg22
g29
stRp4813
ag3
(g4
g5
(dp4814
g14
S''
sg17
g32
sg18
S''
sg20
g21
sg19
S''
sg15
g32
sg28
Nsg22
g33
stRp4815
ag3
(g4
g5
(dp4816
g14
S''
sg17
g36
sg18
S''
sg20
g27
sg19
S''
sg15
g36
sg28
Nsg22
g37
stRp4817
ag3
(g4
g5
(dp4818
g14
S''
sg40
S'name'
p4819
sg18
S''
sg42
S'Domain'
p4820
sg19
S''
sg15
g4819
sg28
Nsg44
S'Graph depot name'
p4821
stRp4822
ag3
(g4
g5
(dp4823
g14
S''
sg40
S'repo'
p4824
sg18
S''
sg42
S'Mapping'
p4825
sg19
S''
sg15
g4824
sg28
Nsg44
S'Repository name'
p4826
stRp4827
ag3
(g4
g5
(dp4828
g14
S''
sg40
S'ref'
p4829
sg18
S''
sg42
S'Mapping'
p4830
sg19
S''
sg15
g4829
sg28
Nsg44
S'Reference'
p4831
stRp4832
ag3
(g4
g5
(dp4833
g14
S''
sg40
S'type'
p4834
sg18
S''
sg42
S'UserType'
p4835
sg19
S''
sg15
g4834
sg28
Nsg44
S'Type of user'
p4836
stRp4837
ag3
(g4
g5
(dp4838
g14
S''
sg40
S'user'
p4839
sg18
S''
sg42
S'UserWild'
p4840
sg19
S''
sg15
g4839
sg28
Nsg44
S'User or Group for permission'
p4841
stRp4842
ag3
(g4
g5
(dp4843
g14
S''
sg40
S'perm'
p4844
sg18
S''
sg42
S'GraphPermType'
p4845
sg19
S''
sg15
g4844
sg28
Nsg44
S'Permission'
p4846
stRp4847
atRp4848
sg68
g4806
sg69
S'0'
sg70
g71
sg44
S'Graph depot permissions'
p4849
sg42
S'GraphPerm'
p4850
sg74
S'79'
p4851
sg40
S'db.graphperm'
p4852
stRp4853
sS'changex'
p4854
g3
(g4
g5
(dp4855
g7
S'change'
p4856
sg9
g3
(g10
g11
(lp4857
g3
(g4
g5
(dp4858
g14
S''
sg15
g16
sg17
g16
sg18
S''
sg19
S''
sg20
g21
sg22
g23
stRp4859
ag3
(g4
g5
(dp4860
g14
S''
sg17
g26
sg18
S''
sg20
g27
sg19
S''
sg15
g26
sg28
Nsg22
g29
stRp4861
ag3
(g4
g5
(dp4862
g14
S''
sg17
g32
sg18
S''
sg20
g21
sg19
S''
sg15
g32
sg28
Nsg22
g33
stRp4863
ag3
(g4
g5
(dp4864
g14
S''
sg17
g36
sg18
S''
sg20
g27
sg19
S''
sg15
g36
sg28
Nsg22
g37
stRp4865
ag3
(g4
g5
(dp4866
g14
S''
sg40
g1057
sg18
S''
sg42
g1058
sg19
S''
sg15
g1057
sg28
Nsg44
g1059
stRp4867
ag3
(g4
g5
(dp4868
g14
S''
sg40
g1062
sg18
S''
sg42
g1063
sg19
S''
sg15
g1062
sg28
Nsg44
g1064
stRp4869
ag3
(g4
g5
(dp4870
g14
S''
sg40
g1067
sg18
S''
sg42
g1068
sg19
S''
sg15
g1067
sg28
Nsg44
g1069
stRp4871
ag3
(g4
g5
(dp4872
g14
S''
sg40
g1072
sg18
S''
sg42
g1073
sg19
S''
sg15
g1072
sg28
Nsg44
g1074
stRp4873
ag3
(g4
g5
(dp4874
g14
S''
sg40
g1077
sg18
S''
sg42
g1078
sg19
S''
sg15
g1077
sg28
Nsg44
g1079
stRp4875
ag3
(g4
g5
(dp4876
g14
S''
sg40
g1082
sg18
S''
sg42
g1083
sg19
S''
sg15
g1082
sg28
Nsg44
g1084
stRp4877
ag3
(g4
g5
(dp4878
g14
S''
sg40
g1087
sg18
S''
sg42
g1088
sg19
S''
sg15
g1087
sg28
Nsg44
g1089
stRp4879
ag3
(g4
g5
(dp4880
g14
S''
sg40
g1092
sg18
S''
sg42
g1093
sg19
S''
sg15
g1092
sg28
Nsg44
g1094
stRp4881
ag3
(g4
g5
(dp4882
g14
S''
sg40
g1097
sg18
S''
sg42
g1098
sg19
S''
sg15
g1097
sg28
Nsg44
g1099
stRp4883
ag3
(g4
g5
(dp4884
g14
S''
sg40
g1102
sg18
S''
sg42
g1103
sg19
S''
sg15
g1102
sg28
Nsg44
g1104
stRp4885
ag3
(g4
g5
(dp4886
g14
S''
sg40
g1107
sg18
S''
sg42
g1108
sg19
S''
sg15
g1107
sg28
Nsg44
g1109
stRp4887
ag3
(g4
g5
(dp4888
g14
S''
sg40
g1112
sg18
S''
sg42
g1113
sg19
S''
sg15
g1112
sg28
Nsg44
g1114
stRp4889
ag3
(g4
g5
(dp4890
g14
S''
sg40
g1117
sg18
S''
sg42
g1118
sg19
S''
sg15
g1117
sg28
Nsg44
g1119
stRp4891
atRp4892
sg68
g4854
sg207
S'contains records for pending changelists only.'
p4893
sg69
S'6'
sg70
g71
sg44
S'Subset of db.change - records for pending changelists only'
p4894
sg42
S'Change'
p4895
sg74
S'71'
p4896
sg40
S'db.changex'
p4897
stRp4898
sS'userrp'
p4899
g3
(g4
g5
(dp4900
g7
S'user'
p4901
sg9
g3
(g10
g11
(lp4902
g3
(g4
g5
(dp4903
g14
S''
sg15
g16
sg17
g16
sg18
S''
sg19
S''
sg20
g21
sg22
g23
stRp4904
ag3
(g4
g5
(dp4905
g14
S''
sg17
g26
sg18
S''
sg20
g27
sg19
S''
sg15
g26
sg28
Nsg22
g29
stRp4906
ag3
(g4
g5
(dp4907
g14
S''
sg17
g32
sg18
S''
sg20
g21
sg19
S''
sg15
g32
sg28
Nsg22
g33
stRp4908
ag3
(g4
g5
(dp4909
g14
S''
sg17
g36
sg18
S''
sg20
g27
sg19
S''
sg15
g36
sg28
Nsg22
g37
stRp4910
ag3
(g4
g5
(dp4911
g14
S''
sg40
g2418
sg18
S''
sg42
g2419
sg19
S''
sg15
g2418
sg28
Nsg44
g2420
stRp4912
ag3
(g4
g5
(dp4913
g14
S''
sg40
g2423
sg18
S''
sg42
g2424
sg19
S''
sg15
g2423
sg28
Nsg44
g2425
stRp4914
ag3
(g4
g5
(dp4915
g14
S''
sg40
g2428
sg18
S''
sg42
g2429
sg19
S''
sg15
g2428
sg28
Nsg44
g2430
stRp4916
ag3
(g4
g5
(dp4917
g14
S''
sg40
g2433
sg18
S''
sg42
g2434
sg19
S''
sg15
g2433
sg28
Nsg44
g2435
stRp4918
ag3
(g4
g5
(dp4919
g14
S''
sg40
g2438
sg18
S''
sg42
g2439
sg19
S''
sg15
g2438
sg28
Nsg44
g2440
stRp4920
ag3
(g4
g5
(dp4921
g14
S''
sg40
g2443
sg18
S''
sg42
g2444
sg19
S''
sg15
g2443
sg28
Nsg44
g2445
stRp4922
ag3
(g4
g5
(dp4923
g14
S''
sg40
g2448
sg18
S''
sg42
g2449
sg19
S''
sg15
g2448
sg28
Nsg44
g2450
stRp4924
ag3
(g4
g5
(dp4925
g14
S''
sg40
g2453
sg18
S''
sg42
g2454
sg19
S''
sg15
g2453
sg28
Nsg44
g2455
stRp4926
ag3
(g4
g5
(dp4927
g14
S''
sg40
g2458
sg18
S''
sg42
g2459
sg19
S''
sg15
g2458
sg28
Nsg44
g2460
stRp4928
ag3
(g4
g5
(dp4929
g14
S''
sg40
g2463
sg18
S''
sg42
g2464
sg19
S''
sg15
g2463
sg28
Nsg44
g2465
stRp4930
ag3
(g4
g5
(dp4931
g14
S''
sg40
g2468
sg18
S''
sg42
g2469
sg19
S''
sg15
g2468
sg28
Nsg44
g2470
stRp4932
ag3
(g4
g5
(dp4933
g14
S''
sg40
g2473
sg18
S''
sg42
g2474
sg19
S''
sg15
g2473
sg28
Nsg44
g2475
stRp4934
ag3
(g4
g5
(dp4935
g14
S''
sg40
g2478
sg18
S''
sg42
g2479
sg19
S''
sg15
g2478
sg28
Nsg44
g2480
stRp4936
ag3
(g4
g5
(dp4937
g14
S''
sg40
g2483
sg18
S''
sg42
g2484
sg19
S''
sg15
g2483
sg28
Nsg44
g2485
stRp4938
ag3
(g4
g5
(dp4939
g14
S''
sg40
g2488
sg18
S''
sg42
g2489
sg19
S''
sg15
g2488
sg28
Nsg44
g2490
stRp4940
atRp4941
sg68
g4899
sg69
S'7'
sg70
g71
sg44
S"Used by replica server's to store login information"
p4942
sg42
S'User'
p4943
sg74
S'14'
p4944
sg40
S'db.user.rp'
p4945
stRp4946
sS'storagesh'
p4947
g3
(g4
g5
(dp4948
g7
S'file, rev, type'
p4949
sg9
g3
(g10
g11
(lp4950
g3
(g4
g5
(dp4951
g14
S''
sg15
g16
sg17
g16
sg18
S''
sg19
S''
sg20
g21
sg22
g23
stRp4952
ag3
(g4
g5
(dp4953
g14
S''
sg17
g26
sg18
S''
sg20
g27
sg19
S''
sg15
g26
sg28
Nsg22
g29
stRp4954
ag3
(g4
g5
(dp4955
g14
S''
sg17
g32
sg18
S''
sg20
g21
sg19
S''
sg15
g32
sg28
Nsg22
g33
stRp4956
ag3
(g4
g5
(dp4957
g14
S''
sg17
g36
sg18
S''
sg20
g27
sg19
S''
sg15
g36
sg28
Nsg22
g37
stRp4958
ag3
(g4
g5
(dp4959
g14
S''
sg40
g3323
sg18
S''
sg42
g3324
sg19
S''
sg15
g3323
sg28
Nsg44
g3325
stRp4960
ag3
(g4
g5
(dp4961
g14
S''
sg40
g3328
sg18
S''
sg42
g3329
sg19
S''
sg15
g3328
sg28
Nsg44
g3330
stRp4962
ag3
(g4
g5
(dp4963
g14
S''
sg40
g3333
sg18
S''
sg42
g3334
sg19
S''
sg15
g3333
sg28
Nsg44
g3335
stRp4964
ag3
(g4
g5
(dp4965
g14
S''
sg40
g3338
sg18
S''
sg42
g3339
sg19
S''
sg15
g3338
sg28
Nsg44
g3340
stRp4966
ag3
(g4
g5
(dp4967
g14
S''
sg40
g3343
sg18
S''
sg42
g3344
sg19
S''
sg15
g3343
sg28
Nsg44
g3345
stRp4968
ag3
(g4
g5
(dp4969
g14
S''
sg40
g3348
sg18
S''
sg42
g3349
sg19
S''
sg15
g3348
sg28
Nsg44
g3350
stRp4970
ag3
(g4
g5
(dp4971
g14
S''
sg40
g3353
sg18
S''
sg42
g3354
sg19
S''
sg15
g3353
sg28
Nsg44
g3355
stRp4972
ag3
(g4
g5
(dp4973
g14
S''
sg40
g3358
sg18
S''
sg42
g3359
sg19
S''
sg15
g3358
sg28
Nsg44
g3360
stRp4974
ag3
(g4
g5
(dp4975
g14
S''
sg40
g3363
sg18
S''
sg42
g3364
sg19
S''
sg15
g3363
sg28
Nsg44
g3365
stRp4976
atRp4977
sg68
g4947
sg69
S'1'
sg70
g71
sg44
S'Track references to shelved archive files'
p4978
sg42
S'Storage'
p4979
sg74
S'45'
p4980
sg40
S'db.storagesh'
p4981
stRp4982
sS'exclg'
p4983
g3
(g4
g5
(dp4984
g7
S'repo, ref, file'
p4985
sg9
g3
(g10
g11
(lp4986
g3
(g4
g5
(dp4987
g14
S''
sg15
g16
sg17
g16
sg18
S''
sg19
S''
sg20
g21
sg22
g23
stRp4988
ag3
(g4
g5
(dp4989
g14
S''
sg17
g26
sg18
S''
sg20
g27
sg19
S''
sg15
g26
sg28
Nsg22
g29
stRp4990
ag3
(g4
g5
(dp4991
g14
S''
sg17
g32
sg18
S''
sg20
g21
sg19
S''
sg15
g32
sg28
Nsg22
g33
stRp4992
ag3
(g4
g5
(dp4993
g14
S''
sg17
g36
sg18
S''
sg20
g27
sg19
S''
sg15
g36
sg28
Nsg22
g37
stRp4994
ag3
(g4
g5
(dp4995
g14
S''
sg40
S'repo'
p4996
sg18
S''
sg42
S'Key'
p4997
sg19
S''
sg15
g4996
sg28
Nsg44
S'The name of the repository on which the lock is applied'
p4998
stRp4999
ag3
(g4
g5
(dp5000
g14
S''
sg40
S'ref'
p5001
sg18
S''
sg42
S'Text'
p5002
sg19
S''
sg15
g5001
sg28
Nsg44
S'The reference on which the lock is applied'
p5003
stRp5004
ag3
(g4
g5
(dp5005
g14
S''
sg40
S'file'
p5006
sg18
S''
sg42
S'File'
p5007
sg19
S''
sg15
g5006
sg28
Nsg44
S'The git file path'
p5008
stRp5009
ag3
(g4
g5
(dp5010
g14
S''
sg40
S'lockId'
p5011
sg18
S''
sg42
S'String'
p5012
sg19
S''
sg15
g5011
sg28
Nsg44
S'The git LFS lock identifier'
p5013
stRp5014
ag3
(g4
g5
(dp5015
g14
S''
sg40
S'user'
p5016
sg18
S''
sg42
S'User'
p5017
sg19
S''
sg15
g5016
sg28
Nsg44
S'The user for which the file is locked'
p5018
stRp5019
ag3
(g4
g5
(dp5020
g14
S''
sg40
S'created'
p5021
sg18
S''
sg42
S'String'
p5022
sg19
S''
sg15
g5021
sg28
Nsg44
S'The lock creation date stored in git data format'
p5023
stRp5024
atRp5025
sg68
g4983
sg69
S'0'
sg70
g71
sg44
S'Graph depot LFS locks'
p5026
sg42
S'ExclG'
p5027
sg74
S'66'
p5028
sg40
S'db.exclg'
p5029
stRp5030
sS'viewrp'
p5031
g3
(g4
g5
(dp5032
g7
S'name, seq'
p5033
sg9
g3
(g10
g11
(lp5034
g3
(g4
g5
(dp5035
g14
S''
sg15
g16
sg17
g16
sg18
S''
sg19
S''
sg20
g21
sg22
g23
stRp5036
ag3
(g4
g5
(dp5037
g14
S''
sg17
g26
sg18
S''
sg20
g27
sg19
S''
sg15
g26
sg28
Nsg22
g29
stRp5038
ag3
(g4
g5
(dp5039
g14
S''
sg17
g32
sg18
S''
sg20
g21
sg19
S''
sg15
g32
sg28
Nsg22
g33
stRp5040
ag3
(g4
g5
(dp5041
g14
S''
sg17
g36
sg18
S''
sg20
g27
sg19
S''
sg15
g36
sg28
Nsg22
g37
stRp5042
ag3
(g4
g5
(dp5043
g14
S''
sg40
g2375
sg18
S''
sg42
g2376
sg19
S''
sg15
g2375
sg28
Nsg44
g2377
stRp5044
ag3
(g4
g5
(dp5045
g14
S''
sg40
g2380
sg18
S''
sg42
g2381
sg19
S''
sg15
g2380
sg28
Nsg44
g2382
stRp5046
ag3
(g4
g5
(dp5047
g14
S''
sg40
g2385
sg18
S''
sg42
g2386
sg19
S''
sg15
g2385
sg28
Nsg44
g2387
stRp5048
ag3
(g4
g5
(dp5049
g14
S''
sg40
g2390
sg18
S''
sg42
g2391
sg19
S''
sg15
g2390
sg28
Nsg44
g2392
stRp5050
ag3
(g4
g5
(dp5051
g14
S''
sg40
g2395
sg18
S''
sg42
g2396
sg19
S''
sg15
g2395
sg28
Nsg44
g2397
stRp5052
atRp5053
sg68
g5031
sg69
S'1'
sg70
g71
sg44
S'View data for clients of build-server replicas'
p5054
sg42
S'View'
p5055
sg74
S'26'
p5056
sg40
S'db.view.rp'
p5057
stRp5058
sS'scandir'
p5059
g3
(g4
g5
(dp5060
g7
S'lskey, seq'
p5061
sg9
g3
(g10
g11
(lp5062
g3
(g4
g5
(dp5063
g14
S''
sg15
g16
sg17
g16
sg18
S''
sg19
S''
sg20
g21
sg22
g23
stRp5064
ag3
(g4
g5
(dp5065
g14
S''
sg17
g26
sg18
S''
sg20
g27
sg19
S''
sg15
g26
sg28
Nsg22
g29
stRp5066
ag3
(g4
g5
(dp5067
g14
S''
sg17
g32
sg18
S''
sg20
g21
sg19
S''
sg15
g32
sg28
Nsg22
g33
stRp5068
ag3
(g4
g5
(dp5069
g14
S''
sg17
g36
sg18
S''
sg20
g27
sg19
S''
sg15
g36
sg28
Nsg22
g37
stRp5070
ag3
(g4
g5
(dp5071
g14
S''
sg40
S'lskey'
p5072
sg18
S''
sg42
S'File'
p5073
sg19
S''
sg15
g5072
sg28
Nsg44
S'library scan key'
p5074
stRp5075
ag3
(g4
g5
(dp5076
g14
S''
sg40
S'seq'
p5077
sg18
S''
sg42
S'Int'
p5078
sg19
S''
sg15
g5077
sg28
Nsg44
S'The sequence of the work directory'
p5079
stRp5080
ag3
(g4
g5
(dp5081
g14
S''
sg40
S'file'
p5082
sg18
S''
sg42
S'File'
p5083
sg19
S''
sg15
g5082
sg28
Nsg44
S'The path of the pending work directory'
p5084
stRp5085
atRp5086
sg68
g5059
sg69
S'0'
sg70
g71
sg44
S'Scandir'
p5087
sg42
S'ScanDir'
p5088
sg74
S'43'
p5089
sg40
S'db.scandir'
p5090
stRp5091
s.