(dp1
S'svrview'
p2
ccopy_reg
_reconstructor
p3
(clib.sqUtils
Storage
p4
c__builtin__
dict
p5
(dp6
S'keying'
p7
S'id, type, seq'
p8
sS'fields'
p9
g3
(clib.sqUtils
Lst
p10
c__builtin__
list
p11
(lp12
g3
(g4
g5
(dp13
S'comment'
p14
S''
sS'fieldname'
p15
S'id'
p16
sS'name'
p17
g16
sS'default'
p18
S''
sS'label'
p19
S''
sS'type'
p20
S'integer'
p21
sS'desc'
p22
S'Record number as read in'
p23
stRp24
ag3
(g4
g5
(dp25
g14
S''
sg17
S'db_action'
p26
sg18
S''
sg20
S'string'
p27
sg19
S''
sg15
g26
sS'requires'
p28
Nsg22
S'Operation on table'
p29
stRp30
ag3
(g4
g5
(dp31
g14
S''
sg17
S'table_revision'
p32
sg18
S''
sg20
g21
sg19
S''
sg15
g32
sg28
Nsg22
S'Revision of the p4 schema table'
p33
stRp34
ag3
(g4
g5
(dp35
g14
S''
sg17
S'table_name'
p36
sg18
S''
sg20
g27
sg19
S''
sg15
g36
sg28
Nsg22
S'Redundant... but this is the table name'
p37
stRp38
ag3
(g4
g5
(dp39
g14
S''
sS'name'
p40
S'id'
p41
sg18
S''
sS'type'
p42
S'Text'
p43
sg19
S''
sg15
g41
sg28
NsS'desc'
p44
S'Server name'
p45
stRp46
ag3
(g4
g5
(dp47
g14
S''
sg40
S'type'
p48
sg18
S''
sg42
S'SvrViewType'
p49
sg19
S''
sg15
g48
sg28
Nsg44
S'View type'
p50
stRp51
ag3
(g4
g5
(dp52
g14
S''
sg40
S'seq'
p53
sg18
S''
sg42
S'Int'
p54
sg19
S''
sg15
g53
sg28
Nsg44
S'Sequence (line) number'
p55
stRp56
ag3
(g4
g5
(dp57
g14
S''
sg40
S'mapFlag'
p58
sg18
S''
sg42
S'MapFlag'
p59
sg19
S''
sg15
g58
sg28
Nsg44
S'Type of mapping'
p60
stRp61
ag3
(g4
g5
(dp62
g14
S''
sg40
S'viewFile'
p63
sg18
S''
sg42
S'Mapping'
p64
sg19
S''
sg15
g63
sg28
Nsg44
S'View file'
p65
stRp66
atRp67
sS'tablename'
p68
g2
sS'version'
p69
S'0'
sS'schemaversion'
p70
S'2017.1'
p71
sg44
S'View data for servers specifications'
p72
sg42
S'SvrView'
p73
sS'lockseq'
p74
S'7'
sg40
S'db.svrview'
p75
stRp76
sS'revpx'
p77
g3
(g4
g5
(dp78
g7
S'depotFile, depotRev'
p79
sg9
g3
(g10
g11
(lp80
g3
(g4
g5
(dp81
g14
S''
sg15
g16
sg17
g16
sg18
S''
sg19
S''
sg20
g21
sg22
g23
stRp82
ag3
(g4
g5
(dp83
g14
S''
sg17
g26
sg18
S''
sg20
g27
sg19
S''
sg15
g26
sg28
Nsg22
g29
stRp84
ag3
(g4
g5
(dp85
g14
S''
sg17
g32
sg18
S''
sg20
g21
sg19
S''
sg15
g32
sg28
Nsg22
g33
stRp86
ag3
(g4
g5
(dp87
g14
S''
sg17
g36
sg18
S''
sg20
g27
sg19
S''
sg15
g36
sg28
Nsg22
g37
stRp88
ag3
(g4
g5
(dp89
g14
S''
sg40
S'depotFile'
p90
sg18
S''
sg42
S'File'
p91
sg19
S''
sg15
g90
sg28
Nsg44
S'The file name'
p92
stRp93
ag3
(g4
g5
(dp94
g14
S''
sg40
S'depotRev'
p95
sg18
S''
sg42
S'Rev'
p96
sg19
S''
sg15
g95
sg28
Nsg44
S'The revision number'
p97
stRp98
ag3
(g4
g5
(dp99
g14
S''
sg40
S'type'
p100
sg18
S''
sg42
S'FileType'
p101
sg19
S''
sg15
g100
sg28
Nsg44
S'The file type of the revision'
p102
stRp103
ag3
(g4
g5
(dp104
g14
S''
sg40
S'action'
p105
sg18
S''
sg42
S'Action'
p106
sg19
S''
sg15
g105
sg28
Nsg44
S'The action that created the revision'
p107
stRp108
ag3
(g4
g5
(dp109
g14
S''
sg40
S'change'
p110
sg18
S''
sg42
S'Change'
p111
sg19
S''
sg15
g110
sg28
Nsg44
S'The changelist that created the revision'
p112
stRp113
ag3
(g4
g5
(dp114
g14
S''
sg40
S'date'
p115
sg18
S''
sg42
S'Date'
p116
sg19
S''
sg15
g115
sg28
Nsg44
S'The date/time the changelist that created the revision\n\t\t    was submitted'
p117
stRp118
ag3
(g4
g5
(dp119
g14
S''
sg40
S'modTime'
p120
sg18
S''
sg42
S'Date'
p121
sg19
S''
sg15
g120
sg28
Nsg44
S"The timestamp on the file in the user's workspace when\n\t\t    the revision was submitted."
p122
stRp123
ag3
(g4
g5
(dp124
g14
S''
sg40
S'digest'
p125
sg18
S''
sg42
S'Digest'
p126
sg19
S''
sg15
g125
sg28
Nsg44
S'The MD5 digest of the revision.'
p127
stRp128
ag3
(g4
g5
(dp129
g14
S''
sg40
S'size'
p130
sg18
S''
sg42
S'FileSize'
p131
sg19
S''
sg15
g130
sg28
Nsg44
S'The size of the file in bytes'
p132
stRp133
ag3
(g4
g5
(dp134
g14
S''
sg40
S'traitLot'
p135
sg18
S''
sg42
S'TraitLot'
p136
sg19
S''
sg15
g135
sg28
Nsg44
S'Group of traits (attributes) associated with the revision.'
p137
stRp138
ag3
(g4
g5
(dp139
g14
S''
sg40
S'lbrIsLazy'
p140
sg18
S''
sg42
S'RevStatus'
p141
sg19
S''
sg15
g140
sg28
Nsg44
S'Specifies whether or not the revision gets its content from \n\t  \t    another file (lazy copy), data about promotion of revision\n\t \t    content from task streams, and data about revision charset \n            information.'
p142
stRp143
ag3
(g4
g5
(dp144
g14
S''
sg40
S'lbrFile'
p145
sg18
S''
sg42
S'File'
p146
sg19
S''
sg15
g145
sg28
Nsg44
S"Filename for librarian's purposes.  Specifies location in \n\t\t    the archives where the file containing the revision may\n\t\t    be found. Usually the same as depotFile, but differs in\n\t\t    the case of branched/copied revisions."
p147
stRp148
ag3
(g4
g5
(dp149
g14
S''
sg40
S'lbrRev'
p150
sg18
S''
sg42
S'String'
p151
sg19
S''
sg15
g150
sg28
Nsg44
S'The revision of lbrFile that contains the revision content.'
p152
stRp153
ag3
(g4
g5
(dp154
g14
S''
sg40
S'lbrType'
p155
sg18
S''
sg42
S'FileType'
p156
sg19
S''
sg15
g155
sg28
Nsg44
S'The file type of the librarian revision. Usually the same\n\t\t    as type, but differs in the case of branched/copied \n\t\t    revisions.'
p157
stRp158
atRp159
sg68
g77
sS'note'
p160
S'Only populated during content trigger execution to allow \n\t\ttriggers access to the revisions being submitted.'
p161
sg69
S'9'
sg70
g71
sg44
S'Pending revision records'
p162
sg42
S'Rev'
p163
sg74
S'37'
p164
sg40
S'db.revpx'
p165
stRp166
sS'revtx'
p167
g3
(g4
g5
(dp168
g7
S'depotFile, depotRev'
p169
sg9
g3
(g10
g11
(lp170
g3
(g4
g5
(dp171
g14
S''
sg15
g16
sg17
g16
sg18
S''
sg19
S''
sg20
g21
sg22
g23
stRp172
ag3
(g4
g5
(dp173
g14
S''
sg17
g26
sg18
S''
sg20
g27
sg19
S''
sg15
g26
sg28
Nsg22
g29
stRp174
ag3
(g4
g5
(dp175
g14
S''
sg17
g32
sg18
S''
sg20
g21
sg19
S''
sg15
g32
sg28
Nsg22
g33
stRp176
ag3
(g4
g5
(dp177
g14
S''
sg17
g36
sg18
S''
sg20
g27
sg19
S''
sg15
g36
sg28
Nsg22
g37
stRp178
ag3
(g4
g5
(dp179
g14
S''
sg40
g90
sg18
S''
sg42
g91
sg19
S''
sg15
g90
sg28
Nsg44
g92
stRp180
ag3
(g4
g5
(dp181
g14
S''
sg40
g95
sg18
S''
sg42
g96
sg19
S''
sg15
g95
sg28
Nsg44
g97
stRp182
ag3
(g4
g5
(dp183
g14
S''
sg40
g100
sg18
S''
sg42
g101
sg19
S''
sg15
g100
sg28
Nsg44
g102
stRp184
ag3
(g4
g5
(dp185
g14
S''
sg40
g105
sg18
S''
sg42
g106
sg19
S''
sg15
g105
sg28
Nsg44
g107
stRp186
ag3
(g4
g5
(dp187
g14
S''
sg40
g110
sg18
S''
sg42
g111
sg19
S''
sg15
g110
sg28
Nsg44
g112
stRp188
ag3
(g4
g5
(dp189
g14
S''
sg40
g115
sg18
S''
sg42
g116
sg19
S''
sg15
g115
sg28
Nsg44
g117
stRp190
ag3
(g4
g5
(dp191
g14
S''
sg40
g120
sg18
S''
sg42
g121
sg19
S''
sg15
g120
sg28
Nsg44
g122
stRp192
ag3
(g4
g5
(dp193
g14
S''
sg40
g125
sg18
S''
sg42
g126
sg19
S''
sg15
g125
sg28
Nsg44
g127
stRp194
ag3
(g4
g5
(dp195
g14
S''
sg40
g130
sg18
S''
sg42
g131
sg19
S''
sg15
g130
sg28
Nsg44
g132
stRp196
ag3
(g4
g5
(dp197
g14
S''
sg40
g135
sg18
S''
sg42
g136
sg19
S''
sg15
g135
sg28
Nsg44
g137
stRp198
ag3
(g4
g5
(dp199
g14
S''
sg40
g140
sg18
S''
sg42
g141
sg19
S''
sg15
g140
sg28
Nsg44
g142
stRp200
ag3
(g4
g5
(dp201
g14
S''
sg40
g145
sg18
S''
sg42
g146
sg19
S''
sg15
g145
sg28
Nsg44
g147
stRp202
ag3
(g4
g5
(dp203
g14
S''
sg40
g150
sg18
S''
sg42
g151
sg19
S''
sg15
g150
sg28
Nsg44
g152
stRp204
ag3
(g4
g5
(dp205
g14
S''
sg40
g155
sg18
S''
sg42
g156
sg19
S''
sg15
g155
sg28
Nsg44
g157
stRp206
atRp207
sg68
g167
sg69
S'9'
sg70
g71
sg44
S'Task stream revision records'
p208
sg42
S'Rev'
p209
sg74
S'44'
p210
sg40
S'db.revtx'
p211
stRp212
sS'ixtext'
p213
g3
(g4
g5
(dp214
g7
S'word, attr, value'
p215
sg9
g3
(g10
g11
(lp216
g3
(g4
g5
(dp217
g14
S''
sg15
g16
sg17
g16
sg18
S''
sg19
S''
sg20
g21
sg22
g23
stRp218
ag3
(g4
g5
(dp219
g14
S''
sg17
g26
sg18
S''
sg20
g27
sg19
S''
sg15
g26
sg28
Nsg22
g29
stRp220
ag3
(g4
g5
(dp221
g14
S''
sg17
g32
sg18
S''
sg20
g21
sg19
S''
sg15
g32
sg28
Nsg22
g33
stRp222
ag3
(g4
g5
(dp223
g14
S''
sg17
g36
sg18
S''
sg20
g27
sg19
S''
sg15
g36
sg28
Nsg22
g37
stRp224
ag3
(g4
g5
(dp225
g14
S''
sg40
S'word'
p226
sg18
S''
sg42
S'String'
p227
sg19
S''
sg15
g226
sg28
Nsg44
S'The word being indexed'
p228
stRp229
ag3
(g4
g5
(dp230
g14
S''
sg40
S'attr'
p231
sg18
S''
sg42
S'Int'
p232
sg19
S''
sg15
g231
sg28
Nsg44
S'The attribute number to which this word belongs. For\n\t\t    job data, the attribute number from the jobspec.'
p233
stRp234
ag3
(g4
g5
(dp235
g14
S''
sg40
S'value'
p236
sg18
S''
sg42
S'String'
p237
sg19
S''
sg15
g236
sg28
Nsg44
S'For job data, a job name. For generic data, the value\n\t\t    of the index keyed by the word.'
p238
stRp239
atRp240
sg68
g213
sg69
S'0'
sg70
g71
sg44
S'Indexing data for generic and job attributes'
p241
sg42
S'IndexText'
p242
sg74
S'73'
p243
sg40
S'db.ixtext'
p244
stRp245
sS'rmtview'
p246
g3
(g4
g5
(dp247
g7
S'id, seq'
p248
sg9
g3
(g10
g11
(lp249
g3
(g4
g5
(dp250
g14
S''
sg15
g16
sg17
g16
sg18
S''
sg19
S''
sg20
g21
sg22
g23
stRp251
ag3
(g4
g5
(dp252
g14
S''
sg17
g26
sg18
S''
sg20
g27
sg19
S''
sg15
g26
sg28
Nsg22
g29
stRp253
ag3
(g4
g5
(dp254
g14
S''
sg17
g32
sg18
S''
sg20
g21
sg19
S''
sg15
g32
sg28
Nsg22
g33
stRp255
ag3
(g4
g5
(dp256
g14
S''
sg17
g36
sg18
S''
sg20
g27
sg19
S''
sg15
g36
sg28
Nsg22
g37
stRp257
ag3
(g4
g5
(dp258
g14
S''
sg40
S'id'
p259
sg18
S''
sg42
S'RemoteID'
p260
sg19
S''
sg15
g259
sg28
Nsg44
S'Remote name'
p261
stRp262
ag3
(g4
g5
(dp263
g14
S''
sg40
S'seq'
p264
sg18
S''
sg42
S'Int'
p265
sg19
S''
sg15
g264
sg28
Nsg44
S'Sequence number: for ordering multi-line views'
p266
stRp267
ag3
(g4
g5
(dp268
g14
S''
sg40
S'mapFlag'
p269
sg18
S''
sg42
S'MapFlag'
p270
sg19
S''
sg15
g269
sg28
Nsg44
S'Type of mapping'
p271
stRp272
ag3
(g4
g5
(dp273
g14
S''
sg40
S'localFile'
p274
sg18
S''
sg42
S'Mapping'
p275
sg19
S''
sg15
g274
sg28
Nsg44
S'Local file'
p276
stRp277
ag3
(g4
g5
(dp278
g14
S''
sg40
S'remoteFile'
p279
sg18
S''
sg42
S'Mapping'
p280
sg19
S''
sg15
g279
sg28
Nsg44
S'Remote file'
p281
stRp282
ag3
(g4
g5
(dp283
g14
S''
sg40
S'retain'
p284
sg18
S''
sg42
S'Int'
p285
sg19
S''
sg15
g284
sg28
Nsg44
S'ArchiveLimits'
p286
stRp287
atRp288
sg68
g246
sg69
S'1'
sg70
g71
sg44
S'View data for remote specifications'
p289
sg42
S'RmtView'
p290
sg74
S'9'
sg40
S'db.rmtview'
p291
stRp292
sS'message'
p293
g3
(g4
g5
(dp294
g7
S'language, id'
p295
sg9
g3
(g10
g11
(lp296
g3
(g4
g5
(dp297
g14
S''
sg15
g16
sg17
g16
sg18
S''
sg19
S''
sg20
g21
sg22
g23
stRp298
ag3
(g4
g5
(dp299
g14
S''
sg17
g26
sg18
S''
sg20
g27
sg19
S''
sg15
g26
sg28
Nsg22
g29
stRp300
ag3
(g4
g5
(dp301
g14
S''
sg17
g32
sg18
S''
sg20
g21
sg19
S''
sg15
g32
sg28
Nsg22
g33
stRp302
ag3
(g4
g5
(dp303
g14
S''
sg17
g36
sg18
S''
sg20
g27
sg19
S''
sg15
g36
sg28
Nsg22
g37
stRp304
ag3
(g4
g5
(dp305
g14
S''
sg40
S'language'
p306
sg18
S''
sg42
S'String'
p307
sg19
S''
sg15
g306
sg28
Nsg44
S'The language for which this message applies'
p308
stRp309
ag3
(g4
g5
(dp310
g14
S''
sg40
S'id'
p311
sg18
S''
sg42
S'Int'
p312
sg19
S''
sg15
g311
sg28
Nsg44
S'The message number'
p313
stRp314
ag3
(g4
g5
(dp315
g14
S''
sg40
S'message'
p316
sg18
S''
sg42
S'String'
p317
sg19
S''
sg15
g316
sg28
Nsg44
S'The message text'
p318
stRp319
atRp320
sg68
g293
sg69
S'0'
sg70
g71
sg44
S'System messages'
p321
sg42
S'Message'
p322
sg74
S'78'
p323
sg40
S'db.message'
p324
stRp325
sS'havept'
p326
g3
(g4
g5
(dp327
g7
S'clientFile depotFile haveRev'
p328
sg9
g3
(g10
g11
(lp329
g3
(g4
g5
(dp330
g14
S''
sg15
g16
sg17
g16
sg18
S''
sg19
S''
sg20
g21
sg22
g23
stRp331
ag3
(g4
g5
(dp332
g14
S''
sg17
g26
sg18
S''
sg20
g27
sg19
S''
sg15
g26
sg28
Nsg22
g29
stRp333
ag3
(g4
g5
(dp334
g14
S''
sg17
g32
sg18
S''
sg20
g21
sg19
S''
sg15
g32
sg28
Nsg22
g33
stRp335
ag3
(g4
g5
(dp336
g14
S''
sg17
g36
sg18
S''
sg20
g27
sg19
S''
sg15
g36
sg28
Nsg22
g37
stRp337
ag3
(g4
g5
(dp338
g14
S''
sg40
S'clientFile'
p339
sg18
S''
sg42
S'File'
p340
sg19
S''
sg15
g339
sg28
Nsg44
S'The file in its location on the client'
p341
stRp342
ag3
(g4
g5
(dp343
g14
S''
sg40
S'depotFile'
p344
sg18
S''
sg42
S'File'
p345
sg19
S''
sg15
g344
sg28
Nsg44
S'The file in the depot'
p346
stRp347
ag3
(g4
g5
(dp348
g14
S''
sg40
S'haveRev'
p349
sg18
S''
sg42
S'Rev'
p350
sg19
S''
sg15
g349
sg28
Nsg44
S'The revision synced to the client'
p351
stRp352
ag3
(g4
g5
(dp353
g14
S''
sg40
S'type'
p354
sg18
S''
sg42
S'FileType'
p355
sg19
S''
sg15
g354
sg28
Nsg44
S'The filetype of the synced revision'
p356
stRp357
ag3
(g4
g5
(dp358
g14
S''
sg40
S'time'
p359
sg18
S''
sg42
S'Date'
p360
sg19
S''
sg15
g359
sg28
Nsg44
S'The sync time of the synced revision'
p361
stRp362
atRp363
sg68
g326
sg69
S'3'
sg70
g71
sg44
S'Placeholder for read-only clients'
p364
sg42
S'Have'
p365
sg74
S'27'
p366
sg40
S'db.have.pt'
p367
stRp368
sS'submodule'
p369
g3
(g4
g5
(dp370
g7
S'repo, path'
p371
sg9
g3
(g10
g11
(lp372
g3
(g4
g5
(dp373
g14
S''
sg15
g16
sg17
g16
sg18
S''
sg19
S''
sg20
g21
sg22
g23
stRp374
ag3
(g4
g5
(dp375
g14
S''
sg17
g26
sg18
S''
sg20
g27
sg19
S''
sg15
g26
sg28
Nsg22
g29
stRp376
ag3
(g4
g5
(dp377
g14
S''
sg17
g32
sg18
S''
sg20
g21
sg19
S''
sg15
g32
sg28
Nsg22
g33
stRp378
ag3
(g4
g5
(dp379
g14
S''
sg17
g36
sg18
S''
sg20
g27
sg19
S''
sg15
g36
sg28
Nsg22
g37
stRp380
ag3
(g4
g5
(dp381
g14
S''
sg40
S'repo'
p382
sg18
S''
sg42
S'String'
p383
sg19
S''
sg15
g382
sg28
Nsg44
S'Repository name'
p384
stRp385
ag3
(g4
g5
(dp386
g14
S''
sg40
S'path'
p387
sg18
S''
sg42
S'String'
p388
sg19
S''
sg15
g387
sg28
Nsg44
S'Path at which the submodule is linked'
p389
stRp390
ag3
(g4
g5
(dp391
g14
S''
sg40
S'subrepo'
p392
sg18
S''
sg42
S'String'
p393
sg19
S''
sg15
g392
sg28
Nsg44
S'Submodule repository name'
p394
stRp395
atRp396
sg68
g369
sg69
S'0'
sg70
g71
sg44
S'Submodule configuration data'
p397
sg42
S'Submodule'
p398
sg74
S'62'
p399
sg40
S'db.submodule'
p400
stRp401
sS'group'
p402
g3
(g4
g5
(dp403
g7
S'user, group'
p404
sg9
g3
(g10
g11
(lp405
g3
(g4
g5
(dp406
g14
S''
sg15
g16
sg17
g16
sg18
S''
sg19
S''
sg20
g21
sg22
g23
stRp407
ag3
(g4
g5
(dp408
g14
S''
sg17
g26
sg18
S''
sg20
g27
sg19
S''
sg15
g26
sg28
Nsg22
g29
stRp409
ag3
(g4
g5
(dp410
g14
S''
sg17
g32
sg18
S''
sg20
g21
sg19
S''
sg15
g32
sg28
Nsg22
g33
stRp411
ag3
(g4
g5
(dp412
g14
S''
sg17
g36
sg18
S''
sg20
g27
sg19
S''
sg15
g36
sg28
Nsg22
g37
stRp413
ag3
(g4
g5
(dp414
g14
S''
sg40
S'user'
p415
sg18
S''
sg42
S'User'
p416
sg19
S''
sg15
g415
sg28
Nsg44
S'User name'
p417
stRp418
ag3
(g4
g5
(dp419
g14
S''
sg40
S'group'
p420
sg18
S''
sg42
S'User'
p421
sg19
S''
sg15
g420
sg28
Nsg44
S'Group name'
p422
stRp423
ag3
(g4
g5
(dp424
g14
S''
sg40
S'type'
p425
sg18
S''
sg42
S'UserType'
p426
sg19
S''
sg15
g425
sg28
Nsg44
S'Type of user in this group.'
p427
stRp428
ag3
(g4
g5
(dp429
g14
S''
sg40
S'maxResults'
p430
sg18
S''
sg42
S'MaxResults'
p431
sg19
S''
sg15
g430
sg28
Nsg44
S'MaxResults setting for the group.'
p432
stRp433
ag3
(g4
g5
(dp434
g14
S''
sg40
S'maxScanRows'
p435
sg18
S''
sg42
S'MaxScanRows'
p436
sg19
S''
sg15
g435
sg28
Nsg44
S'MaxScanRows setting for the group.'
p437
stRp438
ag3
(g4
g5
(dp439
g14
S''
sg40
S'maxLockTime'
p440
sg18
S''
sg42
S'MaxLockTime'
p441
sg19
S''
sg15
g440
sg28
Nsg44
S'MaxLockTime setting for the group.'
p442
stRp443
ag3
(g4
g5
(dp444
g14
S''
sg40
S'maxOpenFiles'
p445
sg18
S''
sg42
S'MaxOpenFiles'
p446
sg19
S''
sg15
g445
sg28
Nsg44
S'MaxOpenFiles setting for the group.'
p447
stRp448
ag3
(g4
g5
(dp449
g14
S''
sg40
S'timeout'
p450
sg18
S''
sg42
S'Int'
p451
sg19
S''
sg15
g450
sg28
Nsg44
S'Length of time (in seconds) a login ticket remains valid.'
p452
stRp453
ag3
(g4
g5
(dp454
g14
S''
sg40
S'passwordTimeout'
p455
sg18
S''
sg42
S'Int'
p456
sg19
S''
sg15
g455
sg28
Nsg44
S'Length of time (in seconds) a password remains valid for users in the group.'
p457
stRp458
atRp459
sg68
g402
sg69
S'9'
sg70
g71
sg44
S'Group specifications'
p460
sg42
S'Group'
p461
sg74
S'13'
p462
sg40
S'db.group'
p463
stRp464
sS'monitor'
p465
g3
(g4
g5
(dp466
g7
S'id'
p467
sg9
g3
(g10
g11
(lp468
g3
(g4
g5
(dp469
g14
S''
sg15
g16
sg17
g16
sg18
S''
sg19
S''
sg20
g21
sg22
g23
stRp470
ag3
(g4
g5
(dp471
g14
S''
sg17
g26
sg18
S''
sg20
g27
sg19
S''
sg15
g26
sg28
Nsg22
g29
stRp472
ag3
(g4
g5
(dp473
g14
S''
sg17
g32
sg18
S''
sg20
g21
sg19
S''
sg15
g32
sg28
Nsg22
g33
stRp474
ag3
(g4
g5
(dp475
g14
S''
sg17
g36
sg18
S''
sg20
g27
sg19
S''
sg15
g36
sg28
Nsg22
g37
stRp476
ag3
(g4
g5
(dp477
g14
S''
sg40
S'id'
p478
sg18
S''
sg42
S'Int'
p479
sg19
S''
sg15
g478
sg28
Nsg44
S'Thread/process id'
p480
stRp481
ag3
(g4
g5
(dp482
g14
S''
sg40
S'user'
p483
sg18
S''
sg42
S'User'
p484
sg19
S''
sg15
g483
sg28
Nsg44
S'Username of the user running the command'
p485
stRp486
ag3
(g4
g5
(dp487
g14
S''
sg40
S'function'
p488
sg18
S''
sg42
S'String'
p489
sg19
S''
sg15
g488
sg28
Nsg44
S'The command being executed.'
p490
stRp491
ag3
(g4
g5
(dp492
g14
S''
sg40
S'args'
p493
sg18
S''
sg42
S'String'
p494
sg19
S''
sg15
g493
sg28
Nsg44
S'Arguments passed to the command'
p495
stRp496
ag3
(g4
g5
(dp497
g14
S''
sg40
S'startDate'
p498
sg18
S''
sg42
S'Date'
p499
sg19
S''
sg15
g498
sg28
Nsg44
S'The date and time the command started'
p500
stRp501
ag3
(g4
g5
(dp502
g14
S''
sg40
S'runstate'
p503
sg18
S''
sg42
S'Int'
p504
sg19
S''
sg15
g503
sg28
Nsg44
S'Flag: 0 for running, 1 for terminated, 2 for paused'
p505
stRp506
ag3
(g4
g5
(dp507
g14
S''
sg40
S'client'
p508
sg18
S''
sg42
S'Domain'
p509
sg19
S''
sg15
g508
sg28
Nsg44
S'The client workspace'
p510
stRp511
ag3
(g4
g5
(dp512
g14
S''
sg40
S'host'
p513
sg18
S''
sg42
S'Text'
p514
sg19
S''
sg15
g513
sg28
Nsg44
S'The IP address of the client'
p515
stRp516
ag3
(g4
g5
(dp517
g14
S''
sg40
S'prog'
p518
sg18
S''
sg42
S'Text'
p519
sg19
S''
sg15
g518
sg28
Nsg44
S'The name (and version) of the client program'
p520
stRp521
ag3
(g4
g5
(dp522
g14
S''
sg40
S'lockInfo'
p523
sg18
S''
sg42
S'Text'
p524
sg19
S''
sg15
g523
sg28
Nsg44
S'Table locking information for command'
p525
stRp526
atRp527
sg68
g465
sg69
S'2'
sg70
g71
sg44
S'Helix Server process information'
p528
sg42
S'Monitor'
p529
sg74
S'81'
p530
sg40
S'db.monitor'
p531
stRp532
sS'working'
p533
g3
(g4
g5
(dp534
g7
S'clientFile'
p535
sg9
g3
(g10
g11
(lp536
g3
(g4
g5
(dp537
g14
S''
sg15
g16
sg17
g16
sg18
S''
sg19
S''
sg20
g21
sg22
g23
stRp538
ag3
(g4
g5
(dp539
g14
S''
sg17
g26
sg18
S''
sg20
g27
sg19
S''
sg15
g26
sg28
Nsg22
g29
stRp540
ag3
(g4
g5
(dp541
g14
S''
sg17
g32
sg18
S''
sg20
g21
sg19
S''
sg15
g32
sg28
Nsg22
g33
stRp542
ag3
(g4
g5
(dp543
g14
S''
sg17
g36
sg18
S''
sg20
g27
sg19
S''
sg15
g36
sg28
Nsg22
g37
stRp544
ag3
(g4
g5
(dp545
g14
S''
sg40
S'clientFile'
p546
sg18
S''
sg42
S'File'
p547
sg19
S''
sg15
g546
sg28
Nsg44
S'File on the client'
p548
stRp549
ag3
(g4
g5
(dp550
g14
S''
sg40
S'depotFile'
p551
sg18
S''
sg42
S'File'
p552
sg19
S''
sg15
g551
sg28
Nsg44
S'File in the depot'
p553
stRp554
ag3
(g4
g5
(dp555
g14
S''
sg40
S'client'
p556
sg18
S''
sg42
S'Domain'
p557
sg19
S''
sg15
g556
sg28
Nsg44
S'The client the file is opened on'
p558
stRp559
ag3
(g4
g5
(dp560
g14
S''
sg40
S'user'
p561
sg18
S''
sg42
S'User'
p562
sg19
S''
sg15
g561
sg28
Nsg44
S'The user who has the file opened'
p563
stRp564
ag3
(g4
g5
(dp565
g14
S''
sg40
S'haveRev'
p566
sg18
S''
sg42
S'Rev'
p567
sg19
S''
sg15
g566
sg28
Nsg44
S"Revision presently in user's client workspace"
p568
stRp569
ag3
(g4
g5
(dp570
g14
S''
sg40
S'workRev'
p571
sg18
S''
sg42
S'Rev'
p572
sg19
S''
sg15
g571
sg28
Nsg44
S'Working revision; normally identical to the haveRev'
p573
stRp574
ag3
(g4
g5
(dp575
g14
S''
sg40
S'isVirtual'
p576
sg18
S''
sg42
S'Int'
p577
sg19
S''
sg15
g576
sg28
Nsg44
S'Flag: if 1, file was opened with "p4 integ -v".'
p578
stRp579
ag3
(g4
g5
(dp580
g14
S''
sg40
S'type'
p581
sg18
S''
sg42
S'FileType'
p582
sg19
S''
sg15
g581
sg28
Nsg44
S'File type'
p583
stRp584
ag3
(g4
g5
(dp585
g14
S''
sg40
S'action'
p586
sg18
S''
sg42
S'Action'
p587
sg19
S''
sg15
g586
sg28
Nsg44
S"What the user's doing with the file"
p588
stRp589
ag3
(g4
g5
(dp590
g14
S''
sg40
S'change'
p591
sg18
S''
sg42
S'Change'
p592
sg19
S''
sg15
g591
sg28
Nsg44
S'Associated changelist, or zero for the default changelist.'
p593
stRp594
ag3
(g4
g5
(dp595
g14
S''
sg40
S'modTime'
p596
sg18
S''
sg42
S'Date'
p597
sg19
S''
sg15
g596
sg28
Nsg44
S"Modification timestamp on the file in the user's workspace."
p598
stRp599
ag3
(g4
g5
(dp600
g14
S''
sg40
S'isLocked'
p601
sg18
S''
sg42
S'Int'
p602
sg19
S''
sg15
g601
sg28
Nsg44
S'Flag: 0 for unlocked, 1 for locked.'
p603
stRp604
ag3
(g4
g5
(dp605
g14
S''
sg40
S'digest'
p606
sg18
S''
sg42
S'Digest'
p607
sg19
S''
sg15
g606
sg28
Nsg44
S'MD5 digest of working file.'
p608
stRp609
ag3
(g4
g5
(dp610
g14
S''
sg40
S'size'
p611
sg18
S''
sg42
S'Int64'
p612
sg19
S''
sg15
g611
sg28
Nsg44
S'File size'
p613
stRp614
ag3
(g4
g5
(dp615
g14
S''
sg40
S'traitLot'
p616
sg18
S''
sg42
S'Int'
p617
sg19
S''
sg15
g616
sg28
Nsg44
S'Group of traits associated with file revision.'
p618
stRp619
ag3
(g4
g5
(dp620
g14
S''
sg40
S'tampered'
p621
sg18
S''
sg42
S'TamperCheck'
p622
sg19
S''
sg15
g621
sg28
Nsg44
S'Flag indicating the tamper-state of the file in the\n\t\t    workspace.'
p623
stRp624
ag3
(g4
g5
(dp625
g14
S''
sg40
S'clntType'
p626
sg18
S''
sg42
S'FileType'
p627
sg19
S''
sg15
g626
sg28
Nsg44
S'Type of the file in the client workspace.'
p628
stRp629
ag3
(g4
g5
(dp630
g14
S''
sg40
S'mFile'
p631
sg18
S''
sg42
S'File'
p632
sg19
S''
sg15
g631
sg28
Nsg44
S'Moved filename'
p633
stRp634
ag3
(g4
g5
(dp635
g14
S''
sg40
S'status'
p636
sg18
S''
sg42
S'Int'
p637
sg19
S''
sg15
g636
sg28
Nsg44
S'Working status'
p638
stRp639
atRp640
sg68
g533
sg69
S'10'
p641
sg70
g71
sg44
S'Records for work in progress'
p642
sg42
S'Working'
p643
sg74
S'47'
p644
sg40
S'db.working'
p645
stRp646
sS'fix'
p647
g3
(g4
g5
(dp648
g7
S'job, change'
p649
sg9
g3
(g10
g11
(lp650
g3
(g4
g5
(dp651
g14
S''
sg15
g16
sg17
g16
sg18
S''
sg19
S''
sg20
g21
sg22
g23
stRp652
ag3
(g4
g5
(dp653
g14
S''
sg17
g26
sg18
S''
sg20
g27
sg19
S''
sg15
g26
sg28
Nsg22
g29
stRp654
ag3
(g4
g5
(dp655
g14
S''
sg17
g32
sg18
S''
sg20
g21
sg19
S''
sg15
g32
sg28
Nsg22
g33
stRp656
ag3
(g4
g5
(dp657
g14
S''
sg17
g36
sg18
S''
sg20
g27
sg19
S''
sg15
g36
sg28
Nsg22
g37
stRp658
ag3
(g4
g5
(dp659
g14
S''
sg40
S'job'
p660
sg18
S''
sg42
S'String'
p661
sg19
S''
sg15
g660
sg28
Nsg44
S'Job name'
p662
stRp663
ag3
(g4
g5
(dp664
g14
S''
sg40
S'change'
p665
sg18
S''
sg42
S'Change'
p666
sg19
S''
sg15
g665
sg28
Nsg44
S'Changelist number'
p667
stRp668
ag3
(g4
g5
(dp669
g14
S''
sg40
S'date'
p670
sg18
S''
sg42
S'Date'
p671
sg19
S''
sg15
g670
sg28
Nsg44
S'Date fix was recorded (may differ from date change was\n\t\t    submitted).'
p672
stRp673
ag3
(g4
g5
(dp674
g14
S''
sg40
S'status'
p675
sg18
S''
sg42
S'FixStatus'
p676
sg19
S''
sg15
g675
sg28
Nsg44
S'Status of the job'
p677
stRp678
ag3
(g4
g5
(dp679
g14
S''
sg40
S'client'
p680
sg18
S''
sg42
S'Domain'
p681
sg19
S''
sg15
g680
sg28
Nsg44
S'The client where the fix originated'
p682
stRp683
ag3
(g4
g5
(dp684
g14
S''
sg40
S'user'
p685
sg18
S''
sg42
S'User'
p686
sg19
S''
sg15
g685
sg28
Nsg44
S'The user who fixed the job'
p687
stRp688
atRp689
sg68
g647
sg40
S'db.fix'
p690
sg69
S'1'
sg70
g71
sS'seeAlso'
p691
S'db.fixrev'
p692
sg42
S'Fix'
p693
sg74
S'65'
p694
sg44
S'Fix records - indexed by job'
p695
stRp696
sS'tiny'
p697
g3
(g4
g5
(dp698
g7
S'fileAndRev'
p699
sg68
g697
sg9
g3
(g10
g11
(lp700
g3
(g4
g5
(dp701
g14
S''
sg15
g16
sg17
g16
sg18
S''
sg19
S''
sg20
g21
sg22
g23
stRp702
ag3
(g4
g5
(dp703
g14
S''
sg17
g26
sg18
S''
sg20
g27
sg19
S''
sg15
g26
sg28
Nsg22
g29
stRp704
ag3
(g4
g5
(dp705
g14
S''
sg17
g32
sg18
S''
sg20
g21
sg19
S''
sg15
g32
sg28
Nsg22
g33
stRp706
ag3
(g4
g5
(dp707
g14
S''
sg17
g36
sg18
S''
sg20
g27
sg19
S''
sg15
g36
sg28
Nsg22
g37
stRp708
ag3
(g4
g5
(dp709
g14
S''
sg40
S'fileAndRev'
p710
sg18
S''
sg42
S'String'
p711
sg19
S''
sg15
g710
sg28
Nsg44
S'The file name and revision'
p712
stRp713
ag3
(g4
g5
(dp714
g14
S''
sg40
S'fileContent'
p715
sg18
S''
sg42
S'Octet String'
p716
sg19
S''
sg15
g715
sg28
Nsg44
S'The (encoded) file content'
p717
stRp718
atRp719
sg70
g71
sg44
S'Records revision and content data for files using the +T file type modifier'
p720
sg42
S'TinyDb'
p721
sg40
S'tiny.db'
p722
stRp723
sS'groupx'
p724
g3
(g4
g5
(dp725
g7
S'group'
p726
sg9
g3
(g10
g11
(lp727
g3
(g4
g5
(dp728
g14
S''
sg15
g16
sg17
g16
sg18
S''
sg19
S''
sg20
g21
sg22
g23
stRp729
ag3
(g4
g5
(dp730
g14
S''
sg17
g26
sg18
S''
sg20
g27
sg19
S''
sg15
g26
sg28
Nsg22
g29
stRp731
ag3
(g4
g5
(dp732
g14
S''
sg17
g32
sg18
S''
sg20
g21
sg19
S''
sg15
g32
sg28
Nsg22
g33
stRp733
ag3
(g4
g5
(dp734
g14
S''
sg17
g36
sg18
S''
sg20
g27
sg19
S''
sg15
g36
sg28
Nsg22
g37
stRp735
ag3
(g4
g5
(dp736
g14
S''
sg40
S'group'
p737
sg18
S''
sg42
S'User'
p738
sg19
S''
sg15
g737
sg28
Nsg44
S'Group name'
p739
stRp740
ag3
(g4
g5
(dp741
g14
S''
sg40
S'ldapConf'
p742
sg18
S''
sg42
S'String'
p743
sg19
S''
sg15
g742
sg28
Nsg44
S"The LDAP configuration to use when populating the group's user list from an LDAP query"
p744
stRp745
ag3
(g4
g5
(dp746
g14
S''
sg40
S'ldapSearchQuery'
p747
sg18
S''
sg42
S'String'
p748
sg19
S''
sg15
g747
sg28
Nsg44
S'The LDAP query used to identify the members of the group'
p749
stRp750
ag3
(g4
g5
(dp751
g14
S''
sg40
S'ldapUserAttribute'
p752
sg18
S''
sg42
S'String'
p753
sg19
S''
sg15
g752
sg28
Nsg44
S"The LDAP attribute that represents the user's username"
p754
stRp755
ag3
(g4
g5
(dp756
g14
S''
sg40
S'ldapDNAttribute'
p757
sg18
S''
sg42
S'String'
p758
sg19
S''
sg15
g757
sg28
Nsg44
S"The LDAP attribute that represents the user's DN"
p759
stRp760
atRp761
sg68
g724
sg69
S'1'
sg70
g71
sg44
S'Per-group data to support group membership controlled by AD/LDAP group membership'
p762
sg42
S'GroupX'
p763
sg74
S'14'
p764
sg40
S'db.groupx'
p765
stRp766
sS'trigger'
p767
g3
(g4
g5
(dp768
g7
S'seq'
p769
sg9
g3
(g10
g11
(lp770
g3
(g4
g5
(dp771
g14
S''
sg15
g16
sg17
g16
sg18
S''
sg19
S''
sg20
g21
sg22
g23
stRp772
ag3
(g4
g5
(dp773
g14
S''
sg17
g26
sg18
S''
sg20
g27
sg19
S''
sg15
g26
sg28
Nsg22
g29
stRp774
ag3
(g4
g5
(dp775
g14
S''
sg17
g32
sg18
S''
sg20
g21
sg19
S''
sg15
g32
sg28
Nsg22
g33
stRp776
ag3
(g4
g5
(dp777
g14
S''
sg17
g36
sg18
S''
sg20
g27
sg19
S''
sg15
g36
sg28
Nsg22
g37
stRp778
ag3
(g4
g5
(dp779
g14
S''
sg40
S'seq'
p780
sg18
S''
sg42
S'Int'
p781
sg19
S''
sg15
g780
sg28
Nsg44
S'Sequence number: for ordering the trigger list'
p782
stRp783
ag3
(g4
g5
(dp784
g14
S''
sg40
S'name'
p785
sg18
S''
sg42
S'String'
p786
sg19
S''
sg15
g785
sg28
Nsg44
S'Name of the trigger'
p787
stRp788
ag3
(g4
g5
(dp789
g14
S''
sg40
S'mapFlag'
p790
sg18
S''
sg42
S'MapFlag'
p791
sg19
S''
sg15
g790
sg28
Nsg44
S'Type of mapping: specifies whether the trigger applies \n\t\t    to the files or not.'
p792
stRp793
ag3
(g4
g5
(dp794
g14
S''
sg40
S'depotFile'
p795
sg18
S''
sg42
S'Mapping'
p796
sg19
S''
sg15
g795
sg28
Nsg44
S'The files to apply the trigger to'
p797
stRp798
ag3
(g4
g5
(dp799
g14
S''
sg40
S'triggerDepotFile'
p800
sg18
S''
sg42
S'File'
p801
sg19
S''
sg15
g800
sg28
Nsg44
S'Depot path to the trigger'
p802
stRp803
ag3
(g4
g5
(dp804
g14
S''
sg40
S'trigger'
p805
sg18
S''
sg42
S'Trigger'
p806
sg19
S''
sg15
g805
sg28
Nsg44
S'Type of trigger'
p807
stRp808
ag3
(g4
g5
(dp809
g14
S''
sg40
S'action'
p810
sg18
S''
sg42
S'Text'
p811
sg19
S''
sg15
g810
sg28
Nsg44
S'Command to execute when trigger runs'
p812
stRp813
atRp814
sg68
g767
sg69
S'3'
sg70
g71
sg44
S'Trigger specifications'
p815
sg42
S'Trigger'
p816
sg74
S'52'
p817
sg40
S'db.trigger'
p818
stRp819
sS'change'
p820
g3
(g4
g5
(dp821
g7
S'change'
p822
sg9
g3
(g10
g11
(lp823
g3
(g4
g5
(dp824
g14
S''
sg15
g16
sg17
g16
sg18
S''
sg19
S''
sg20
g21
sg22
g23
stRp825
ag3
(g4
g5
(dp826
g14
S''
sg17
g26
sg18
S''
sg20
g27
sg19
S''
sg15
g26
sg28
Nsg22
g29
stRp827
ag3
(g4
g5
(dp828
g14
S''
sg17
g32
sg18
S''
sg20
g21
sg19
S''
sg15
g32
sg28
Nsg22
g33
stRp829
ag3
(g4
g5
(dp830
g14
S''
sg17
g36
sg18
S''
sg20
g27
sg19
S''
sg15
g36
sg28
Nsg22
g37
stRp831
ag3
(g4
g5
(dp832
g14
S''
sg40
S'change'
p833
sg18
S''
sg42
S'Change'
p834
sg19
S''
sg15
g833
sg28
Nsg44
S'The change number'
p835
stRp836
ag3
(g4
g5
(dp837
g14
S''
sg40
S'descKey'
p838
sg18
S''
sg42
S'Change'
p839
sg19
S''
sg15
g838
sg28
Nsg44
S"The description key. Normally the same as 'change', but\n\t\t    may differ if a changelist was renumbered on submission."
p840
stRp841
ag3
(g4
g5
(dp842
g14
S''
sg40
S'client'
p843
sg18
S''
sg42
S'Domain'
p844
sg19
S''
sg15
g843
sg28
Nsg44
S'The client from which the change originates'
p845
stRp846
ag3
(g4
g5
(dp847
g14
S''
sg40
S'user'
p848
sg18
S''
sg42
S'User'
p849
sg19
S''
sg15
g848
sg28
Nsg44
S'The user who owns the change'
p850
stRp851
ag3
(g4
g5
(dp852
g14
S''
sg40
S'date'
p853
sg18
S''
sg42
S'Date'
p854
sg19
S''
sg15
g853
sg28
Nsg44
S'Date and time the changelist was submitted'
p855
stRp856
ag3
(g4
g5
(dp857
g14
S''
sg40
S'status'
p858
sg18
S''
sg42
S'ChangeStatus'
p859
sg19
S''
sg15
g858
sg28
Nsg44
S'Status of the change'
p860
stRp861
ag3
(g4
g5
(dp862
g14
S''
sg40
S'description'
p863
sg18
S''
sg42
S'DescShort'
p864
sg19
S''
sg15
g863
sg28
Nsg44
S'Short description of the change.'
p865
stRp866
ag3
(g4
g5
(dp867
g14
S''
sg40
S'root'
p868
sg18
S''
sg42
S'Mapping'
p869
sg19
S''
sg15
g868
sg28
Nsg44
S'Common path for all files in the changelist'
p870
stRp871
ag3
(g4
g5
(dp872
g14
S''
sg40
S'importer'
p873
sg18
S''
sg42
S'String'
p874
sg19
S''
sg15
g873
sg28
Nsg44
S'The user who fetched or pushed this change to this server'
p875
stRp876
ag3
(g4
g5
(dp877
g14
S''
sg40
S'identify'
p878
sg18
S''
sg42
S'String'
p879
sg19
S''
sg15
g878
sg28
Nsg44
S'Identifier for this change'
p880
stRp881
ag3
(g4
g5
(dp882
g14
S''
sg40
S'access'
p883
sg18
S''
sg42
S'Date'
p884
sg19
S''
sg15
g883
sg28
Nsg44
S'Shelve last access'
p885
stRp886
atRp887
sg68
g820
sg69
S'4'
sg70
g71
sg44
S'Changelists'
p888
sg42
S'Change'
p889
sg74
S'53'
p890
sg40
S'db.change'
p891
stRp892
sS'ldap'
p893
g3
(g4
g5
(dp894
g7
S'name'
p895
sg9
g3
(g10
g11
(lp896
g3
(g4
g5
(dp897
g14
S''
sg15
g16
sg17
g16
sg18
S''
sg19
S''
sg20
g21
sg22
g23
stRp898
ag3
(g4
g5
(dp899
g14
S''
sg17
g26
sg18
S''
sg20
g27
sg19
S''
sg15
g26
sg28
Nsg22
g29
stRp900
ag3
(g4
g5
(dp901
g14
S''
sg17
g32
sg18
S''
sg20
g21
sg19
S''
sg15
g32
sg28
Nsg22
g33
stRp902
ag3
(g4
g5
(dp903
g14
S''
sg17
g36
sg18
S''
sg20
g27
sg19
S''
sg15
g36
sg28
Nsg22
g37
stRp904
ag3
(g4
g5
(dp905
g14
S''
sg40
S'name'
p906
sg18
S''
sg42
S'String'
p907
sg19
S''
sg15
g906
sg28
Nsg44
S'The LDAP configuration name'
p908
stRp909
ag3
(g4
g5
(dp910
g14
S''
sg40
S'host'
p911
sg18
S''
sg42
S'String'
p912
sg19
S''
sg15
g911
sg28
Nsg44
S'The FQDN of the directory server'
p913
stRp914
ag3
(g4
g5
(dp915
g14
S''
sg40
S'port'
p916
sg18
S''
sg42
S'String'
p917
sg19
S''
sg15
g916
sg28
Nsg44
S'The port number on which to connect to the directory server'
p918
stRp919
ag3
(g4
g5
(dp920
g14
S''
sg40
S'ssl'
p921
sg18
S''
sg42
S'String'
p922
sg19
S''
sg15
g921
sg28
Nsg44
S"The encryption method to use when connecting to the The FQDN of the directory server.\n\t\t\tOptions are: 'none', 'ssl' and 'tls'"
p923
stRp924
ag3
(g4
g5
(dp925
g14
S''
sg40
S'type'
p926
sg18
S''
sg42
S'String'
p927
sg19
S''
sg15
g926
sg28
Nsg44
S"The bind method to use with this directory.  Options are: 'simple', 'search' and 'sasl'."
p928
stRp929
ag3
(g4
g5
(dp930
g14
S''
sg40
S'pattern'
p931
sg18
S''
sg42
S'String'
p932
sg19
S''
sg15
g931
sg28
Nsg44
S"The DN used to bind against to validate the user's credentials."
p933
stRp934
ag3
(g4
g5
(dp935
g14
S''
sg40
S'basedn'
p936
sg18
S''
sg42
S'String'
p937
sg19
S''
sg15
g936
sg28
Nsg44
S'The DN from which to start the search for the user object'
p938
stRp939
ag3
(g4
g5
(dp940
g14
S''
sg40
S'filter'
p941
sg18
S''
sg42
S'String'
p942
sg19
S''
sg15
g941
sg28
Nsg44
S'The LDAP query filter to use to identify the user object which will be used to bind against'
p943
stRp944
ag3
(g4
g5
(dp945
g14
S''
sg40
S'scope'
p946
sg18
S''
sg42
S'String'
p947
sg19
S''
sg15
g946
sg28
Nsg44
S'The scope to use when searching for the user records. Options are:\n                 0 = baseonly - Just the BaseDN object\n                 1 = children - The BaseDN and its direct children\n                 2 = subtree - The BaseDN and all objects below it'
p948
stRp949
ag3
(g4
g5
(dp950
g14
S''
sg40
S'binddn'
p951
sg18
S''
sg42
S'String'
p952
sg19
S''
sg15
g951
sg28
Nsg44
S'The DN to bind against in order to search the directory'
p953
stRp954
ag3
(g4
g5
(dp955
g14
S''
sg40
S'bindpass'
p956
sg18
S''
sg42
S'String'
p957
sg19
S''
sg15
g956
sg28
Nsg44
S'The password for the BindDN record'
p958
stRp959
ag3
(g4
g5
(dp960
g14
S''
sg40
S'realm'
p961
sg18
S''
sg42
S'String'
p962
sg19
S''
sg15
g961
sg28
Nsg44
S'The optional realm to use when authenticating the user via SASL'
p963
stRp964
ag3
(g4
g5
(dp965
g14
S''
sg40
S'grpbasedn'
p966
sg18
S''
sg42
S'String'
p967
sg19
S''
sg15
g966
sg28
Nsg44
S'The search base for performing the group search. If unset this will default to the SearchBaseDN'
p968
stRp969
ag3
(g4
g5
(dp970
g14
S''
sg40
S'grpfilter'
p971
sg18
S''
sg42
S'String'
p972
sg19
S''
sg15
g971
sg28
Nsg44
S'The filter to use for the group search'
p973
stRp974
ag3
(g4
g5
(dp975
g14
S''
sg40
S'grpscope'
p976
sg18
S''
sg42
S'String'
p977
sg19
S''
sg15
g976
sg28
Nsg44
S'The scope to use when performing the group search.Options are:\n \t\t\t\t0 = baseonly - Just the BaseDN object\n\t\t\t\t1 = children - The BaseDN and its direct children\n\t\t\t\t2 = subtree - The BaseDN and all objects below it'
p978
stRp979
ag3
(g4
g5
(dp980
g14
S''
sg40
S'options'
p981
sg18
S''
sg42
S'String'
p982
sg19
S''
sg15
g981
sg28
Nsg44
S'LDAP Options: [no]downcase [no]getattrs [no]realminusername'
p983
stRp984
ag3
(g4
g5
(dp985
g14
S''
sg40
S'attruid'
p986
sg18
S''
sg42
S'String'
p987
sg19
S''
sg15
g986
sg28
Nsg44
S"The name of the attribute in the directory's user records that contain the users' UIDs"
p988
stRp989
ag3
(g4
g5
(dp990
g14
S''
sg40
S'attremail'
p991
sg18
S''
sg42
S'String'
p992
sg19
S''
sg15
g991
sg28
Nsg44
S"The name of the attribute in the directory's user records that contain the users' email addresses."
p993
stRp994
ag3
(g4
g5
(dp995
g14
S''
sg40
S'attrename'
p996
sg18
S''
sg42
S'String'
p997
sg19
S''
sg15
g996
sg28
Nsg44
S"The name(s) of the attribute(s) in the directory's user records that contain the users' full names."
p998
stRp999
atRp1000
sg68
g893
sg69
S'0'
sg70
g71
sg44
S'LDAP specifications'
p1001
sg42
S'Ldap'
p1002
sg74
S'5'
sg40
S'db.ldap'
p1003
stRp1004
sS'logger'
p1005
g3
(g4
g5
(dp1006
g7
S'seq'
p1007
sg9
g3
(g10
g11
(lp1008
g3
(g4
g5
(dp1009
g14
S''
sg15
g16
sg17
g16
sg18
S''
sg19
S''
sg20
g21
sg22
g23
stRp1010
ag3
(g4
g5
(dp1011
g14
S''
sg17
g26
sg18
S''
sg20
g27
sg19
S''
sg15
g26
sg28
Nsg22
g29
stRp1012
ag3
(g4
g5
(dp1013
g14
S''
sg17
g32
sg18
S''
sg20
g21
sg19
S''
sg15
g32
sg28
Nsg22
g33
stRp1014
ag3
(g4
g5
(dp1015
g14
S''
sg17
g36
sg18
S''
sg20
g27
sg19
S''
sg15
g36
sg28
Nsg22
g37
stRp1016
ag3
(g4
g5
(dp1017
g14
S''
sg40
S'seq'
p1018
sg18
S''
sg42
S'Int'
p1019
sg19
S''
sg15
g1018
sg28
Nsg44
S'Sequence number of event'
p1020
stRp1021
ag3
(g4
g5
(dp1022
g14
S''
sg40
S'key'
p1023
sg18
S''
sg42
S'String'
p1024
sg19
S''
sg15
g1023
sg28
Nsg44
S"Either the word 'change' or the word 'job'"
p1025
stRp1026
ag3
(g4
g5
(dp1027
g14
S''
sg40
S'attr'
p1028
sg18
S''
sg42
S'String'
p1029
sg19
S''
sg15
g1028
sg28
Nsg44
S'The number of the change, or name of the job that was \n\t\t    altered.'
p1030
stRp1031
atRp1032
sg68
g1005
sg69
S'0'
sg70
g71
sg44
S"Support for 'p4 logger' command. Logs any changes to \n\t\tchangelists and jobs"
p1033
sg42
S'Logger'
p1034
sg74
S'4'
sg40
S'db.logger'
p1035
stRp1036
sS'pubkey'
p1037
g3
(g4
g5
(dp1038
g7
S'user,scope'
p1039
sg9
g3
(g10
g11
(lp1040
g3
(g4
g5
(dp1041
g14
S''
sg15
g16
sg17
g16
sg18
S''
sg19
S''
sg20
g21
sg22
g23
stRp1042
ag3
(g4
g5
(dp1043
g14
S''
sg17
g26
sg18
S''
sg20
g27
sg19
S''
sg15
g26
sg28
Nsg22
g29
stRp1044
ag3
(g4
g5
(dp1045
g14
S''
sg17
g32
sg18
S''
sg20
g21
sg19
S''
sg15
g32
sg28
Nsg22
g33
stRp1046
ag3
(g4
g5
(dp1047
g14
S''
sg17
g36
sg18
S''
sg20
g27
sg19
S''
sg15
g36
sg28
Nsg22
g37
stRp1048
ag3
(g4
g5
(dp1049
g14
S''
sg40
S'user'
p1050
sg18
S''
sg42
S'String'
p1051
sg19
S''
sg15
g1050
sg28
Nsg44
S'User'
p1052
stRp1053
ag3
(g4
g5
(dp1054
g14
S''
sg40
S'scope'
p1055
sg18
S''
sg42
S'String'
p1056
sg19
S''
sg15
g1055
sg28
Nsg44
S'Scope'
p1057
stRp1058
ag3
(g4
g5
(dp1059
g14
S''
sg40
S'key'
p1060
sg18
S''
sg42
S'String'
p1061
sg19
S''
sg15
g1060
sg28
Nsg44
S'Key'
p1062
stRp1063
ag3
(g4
g5
(dp1064
g14
S''
sg40
S'digest'
p1065
sg18
S''
sg42
S'Digest'
p1066
sg19
S''
sg15
g1065
sg28
Nsg44
S'Digest'
p1067
stRp1068
ag3
(g4
g5
(dp1069
g14
S''
sg40
S'update'
p1070
sg18
S''
sg42
S'Date'
p1071
sg19
S''
sg15
g1070
sg28
Nsg44
S'Update date'
p1072
stRp1073
atRp1074
sg68
g1037
sg69
S'0'
sg70
g71
sg44
S'SSH Public keys'
p1075
sg42
S'PublicKey'
p1076
sg74
S'63'
p1077
sg40
S'db.pubkey'
p1078
stRp1079
sS'fixrev'
p1080
g3
(g4
g5
(dp1081
g7
S'change, job'
p1082
sg9
g3
(g10
g11
(lp1083
g3
(g4
g5
(dp1084
g14
S''
sg15
g16
sg17
g16
sg18
S''
sg19
S''
sg20
g21
sg22
g23
stRp1085
ag3
(g4
g5
(dp1086
g14
S''
sg17
g26
sg18
S''
sg20
g27
sg19
S''
sg15
g26
sg28
Nsg22
g29
stRp1087
ag3
(g4
g5
(dp1088
g14
S''
sg17
g32
sg18
S''
sg20
g21
sg19
S''
sg15
g32
sg28
Nsg22
g33
stRp1089
ag3
(g4
g5
(dp1090
g14
S''
sg17
g36
sg18
S''
sg20
g27
sg19
S''
sg15
g36
sg28
Nsg22
g37
stRp1091
ag3
(g4
g5
(dp1092
g14
S''
sg40
g660
sg18
S''
sg42
g661
sg19
S''
sg15
g660
sg28
Nsg44
g662
stRp1093
ag3
(g4
g5
(dp1094
g14
S''
sg40
g665
sg18
S''
sg42
g666
sg19
S''
sg15
g665
sg28
Nsg44
g667
stRp1095
ag3
(g4
g5
(dp1096
g14
S''
sg40
g670
sg18
S''
sg42
g671
sg19
S''
sg15
g670
sg28
Nsg44
g672
stRp1097
ag3
(g4
g5
(dp1098
g14
S''
sg40
g675
sg18
S''
sg42
g676
sg19
S''
sg15
g675
sg28
Nsg44
g677
stRp1099
ag3
(g4
g5
(dp1100
g14
S''
sg40
g680
sg18
S''
sg42
g681
sg19
S''
sg15
g680
sg28
Nsg44
g682
stRp1101
ag3
(g4
g5
(dp1102
g14
S''
sg40
g685
sg18
S''
sg42
g686
sg19
S''
sg15
g685
sg28
Nsg44
g687
stRp1103
atRp1104
sg68
g1080
sg40
S'db.fixrev'
p1105
sg69
S'1'
sg70
g71
sg691
S'db.fix'
p1106
sg42
S'Fix'
p1107
sg74
S'66'
p1108
sg44
S'Fix records - indexed by change'
p1109
stRp1110
sS'resolveg'
p1111
g3
(g4
g5
(dp1112
g7
S'toFile, fromFile, baseSHA'
p1113
sg9
g3
(g10
g11
(lp1114
g3
(g4
g5
(dp1115
g14
S''
sg15
g16
sg17
g16
sg18
S''
sg19
S''
sg20
g21
sg22
g23
stRp1116
ag3
(g4
g5
(dp1117
g14
S''
sg17
g26
sg18
S''
sg20
g27
sg19
S''
sg15
g26
sg28
Nsg22
g29
stRp1118
ag3
(g4
g5
(dp1119
g14
S''
sg17
g32
sg18
S''
sg20
g21
sg19
S''
sg15
g32
sg28
Nsg22
g33
stRp1120
ag3
(g4
g5
(dp1121
g14
S''
sg17
g36
sg18
S''
sg20
g27
sg19
S''
sg15
g36
sg28
Nsg22
g37
stRp1122
ag3
(g4
g5
(dp1123
g14
S''
sg40
S'toFile'
p1124
sg18
S''
sg42
S'File'
p1125
sg19
S''
sg15
g1124
sg28
Nsg44
S'ToFile'
p1126
stRp1127
ag3
(g4
g5
(dp1128
g14
S''
sg40
S'fromFile'
p1129
sg18
S''
sg42
S'File'
p1130
sg19
S''
sg15
g1129
sg28
Nsg44
S'FromFile'
p1131
stRp1132
ag3
(g4
g5
(dp1133
g14
S''
sg40
S'baseSHA'
p1134
sg18
S''
sg42
S'SHA1'
p1135
sg19
S''
sg15
g1134
sg28
Nsg44
S'Base SHA'
p1136
stRp1137
ag3
(g4
g5
(dp1138
g14
S''
sg40
S'wantsSHA'
p1139
sg18
S''
sg42
S'SHA1'
p1140
sg19
S''
sg15
g1139
sg28
Nsg44
S'Wants SHA'
p1141
stRp1142
ag3
(g4
g5
(dp1143
g14
S''
sg40
S'how'
p1144
sg18
S''
sg42
S'IntegHow'
p1145
sg19
S''
sg15
g1144
sg28
Nsg44
S'How'
p1146
stRp1147
ag3
(g4
g5
(dp1148
g14
S''
sg40
S'state'
p1149
sg18
S''
sg42
S'ResolvedStatus'
p1150
sg19
S''
sg15
g1149
sg28
Nsg44
S'State'
p1151
stRp1152
atRp1153
sg68
g1111
sg40
S'db.resolveg'
p1154
sg69
S'0'
sg70
g71
sg691
S'db.integed'
p1155
sg42
S'ResolveG'
p1156
sg74
S'33'
p1157
sg44
S'Resolve records for clients of type graph'
p1158
stRp1159
sS'revdx'
p1160
g3
(g4
g5
(dp1161
g7
S'depotFile'
p1162
sg9
g3
(g10
g11
(lp1163
g3
(g4
g5
(dp1164
g14
S''
sg15
g16
sg17
g16
sg18
S''
sg19
S''
sg20
g21
sg22
g23
stRp1165
ag3
(g4
g5
(dp1166
g14
S''
sg17
g26
sg18
S''
sg20
g27
sg19
S''
sg15
g26
sg28
Nsg22
g29
stRp1167
ag3
(g4
g5
(dp1168
g14
S''
sg17
g32
sg18
S''
sg20
g21
sg19
S''
sg15
g32
sg28
Nsg22
g33
stRp1169
ag3
(g4
g5
(dp1170
g14
S''
sg17
g36
sg18
S''
sg20
g27
sg19
S''
sg15
g36
sg28
Nsg22
g37
stRp1171
ag3
(g4
g5
(dp1172
g14
S''
sg40
g90
sg18
S''
sg42
g91
sg19
S''
sg15
g90
sg28
Nsg44
g92
stRp1173
ag3
(g4
g5
(dp1174
g14
S''
sg40
g95
sg18
S''
sg42
g96
sg19
S''
sg15
g95
sg28
Nsg44
g97
stRp1175
ag3
(g4
g5
(dp1176
g14
S''
sg40
g100
sg18
S''
sg42
g101
sg19
S''
sg15
g100
sg28
Nsg44
g102
stRp1177
ag3
(g4
g5
(dp1178
g14
S''
sg40
g105
sg18
S''
sg42
g106
sg19
S''
sg15
g105
sg28
Nsg44
g107
stRp1179
ag3
(g4
g5
(dp1180
g14
S''
sg40
g110
sg18
S''
sg42
g111
sg19
S''
sg15
g110
sg28
Nsg44
g112
stRp1181
ag3
(g4
g5
(dp1182
g14
S''
sg40
g115
sg18
S''
sg42
g116
sg19
S''
sg15
g115
sg28
Nsg44
g117
stRp1183
ag3
(g4
g5
(dp1184
g14
S''
sg40
g120
sg18
S''
sg42
g121
sg19
S''
sg15
g120
sg28
Nsg44
g122
stRp1185
ag3
(g4
g5
(dp1186
g14
S''
sg40
g125
sg18
S''
sg42
g126
sg19
S''
sg15
g125
sg28
Nsg44
g127
stRp1187
ag3
(g4
g5
(dp1188
g14
S''
sg40
g130
sg18
S''
sg42
g131
sg19
S''
sg15
g130
sg28
Nsg44
g132
stRp1189
ag3
(g4
g5
(dp1190
g14
S''
sg40
g135
sg18
S''
sg42
g136
sg19
S''
sg15
g135
sg28
Nsg44
g137
stRp1191
ag3
(g4
g5
(dp1192
g14
S''
sg40
g140
sg18
S''
sg42
g141
sg19
S''
sg15
g140
sg28
Nsg44
g142
stRp1193
ag3
(g4
g5
(dp1194
g14
S''
sg40
g145
sg18
S''
sg42
g146
sg19
S''
sg15
g145
sg28
Nsg44
g147
stRp1195
ag3
(g4
g5
(dp1196
g14
S''
sg40
g150
sg18
S''
sg42
g151
sg19
S''
sg15
g150
sg28
Nsg44
g152
stRp1197
ag3
(g4
g5
(dp1198
g14
S''
sg40
g155
sg18
S''
sg42
g156
sg19
S''
sg15
g155
sg28
Nsg44
g157
stRp1199
atRp1200
sg68
g1160
sg69
S'9'
sg70
g71
sg44
S'Revision records for revisions deleted at the head revision'
p1201
sg42
S'Rev'
p1202
sg74
S'35'
p1203
sg40
S'db.revdx'
p1204
stRp1205
sS'bodtexthx'
p1206
g3
(g4
g5
(dp1207
g7
S'type, key, attr'
p1208
sg9
g3
(g10
g11
(lp1209
g3
(g4
g5
(dp1210
g14
S''
sg15
g16
sg17
g16
sg18
S''
sg19
S''
sg20
g21
sg22
g23
stRp1211
ag3
(g4
g5
(dp1212
g14
S''
sg17
g26
sg18
S''
sg20
g27
sg19
S''
sg15
g26
sg28
Nsg22
g29
stRp1213
ag3
(g4
g5
(dp1214
g14
S''
sg17
g32
sg18
S''
sg20
g21
sg19
S''
sg15
g32
sg28
Nsg22
g33
stRp1215
ag3
(g4
g5
(dp1216
g14
S''
sg17
g36
sg18
S''
sg20
g27
sg19
S''
sg15
g36
sg28
Nsg22
g37
stRp1217
ag3
(g4
g5
(dp1218
g14
S''
sg40
S'type'
p1219
sg18
S''
sg42
S'Int'
p1220
sg19
S''
sg15
g1219
sg28
Nsg44
S'The type of spec'
p1221
stRp1222
ag3
(g4
g5
(dp1223
g14
S''
sg40
S'key'
p1224
sg18
S''
sg42
S'String'
p1225
sg19
S''
sg15
g1224
sg28
Nsg44
S'The spec to which this attribute belongs'
p1226
stRp1227
ag3
(g4
g5
(dp1228
g14
S''
sg40
S'attr'
p1229
sg18
S''
sg42
S'Int'
p1230
sg19
S''
sg15
g1229
sg28
Nsg44
S'The attribute number of this attribute'
p1231
stRp1232
ag3
(g4
g5
(dp1233
g14
S''
sg40
S'bulk'
p1234
sg18
S''
sg42
S'Int'
p1235
sg19
S''
sg15
g1234
sg28
Nsg44
S'Indicates whether (1), or not (0) the field is a bulk\n\t\t    text field that should not be indexed.'
p1236
stRp1237
ag3
(g4
g5
(dp1238
g14
S''
sg40
S'text'
p1239
sg18
S''
sg42
S'Text'
p1240
sg19
S''
sg15
g1239
sg28
Nsg44
S'The attribute value'
p1241
stRp1242
atRp1243
sg68
g1206
sg69
S'0'
sg70
g71
sg44
S'Head revsision of spec fields (for future use)'
p1244
sg42
S'BodyTextHx'
p1245
sg74
S'70'
p1246
sg40
S'db.bodtexthx'
p1247
stRp1248
sS'integed'
p1249
g3
(g4
g5
(dp1250
g7
S'toFile, fromFile, startFromRev, endFromRev, \n\t\tstartToRev, endToRev'
p1251
sg9
g3
(g10
g11
(lp1252
g3
(g4
g5
(dp1253
g14
S''
sg15
g16
sg17
g16
sg18
S''
sg19
S''
sg20
g21
sg22
g23
stRp1254
ag3
(g4
g5
(dp1255
g14
S''
sg17
g26
sg18
S''
sg20
g27
sg19
S''
sg15
g26
sg28
Nsg22
g29
stRp1256
ag3
(g4
g5
(dp1257
g14
S''
sg17
g32
sg18
S''
sg20
g21
sg19
S''
sg15
g32
sg28
Nsg22
g33
stRp1258
ag3
(g4
g5
(dp1259
g14
S''
sg17
g36
sg18
S''
sg20
g27
sg19
S''
sg15
g36
sg28
Nsg22
g37
stRp1260
ag3
(g4
g5
(dp1261
g14
S''
sg40
S'toFile'
p1262
sg18
S''
sg42
S'File'
p1263
sg19
S''
sg15
g1262
sg28
Nsg44
S'File to which integration is being performed (target).'
p1264
stRp1265
ag3
(g4
g5
(dp1266
g14
S''
sg40
S'fromFile'
p1267
sg18
S''
sg42
S'File'
p1268
sg19
S''
sg15
g1267
sg28
Nsg44
S'File from which integration is being performed (source).'
p1269
stRp1270
ag3
(g4
g5
(dp1271
g14
S''
sg40
S'startFromRev'
p1272
sg18
S''
sg42
S'Rev'
p1273
sg19
S''
sg15
g1272
sg28
Nsg44
S'Starting revision of fromFile'
p1274
stRp1275
ag3
(g4
g5
(dp1276
g14
S''
sg40
S'endFromRev'
p1277
sg18
S''
sg42
S'Rev'
p1278
sg19
S''
sg15
g1277
sg28
Nsg44
S'Ending revision of fromFile'
p1279
stRp1280
ag3
(g4
g5
(dp1281
g14
S''
sg40
S'startToRev'
p1282
sg18
S''
sg42
S'Rev'
p1283
sg19
S''
sg15
g1282
sg28
Nsg44
S'Start revision of toFile into which integration was \n\t\t    performed.'
p1284
stRp1285
ag3
(g4
g5
(dp1286
g14
S''
sg40
S'endToRev'
p1287
sg18
S''
sg42
S'Rev'
p1288
sg19
S''
sg15
g1287
sg28
Nsg44
S'End revision of toFile into which integration was \n\t\t    performed. Only varies from startToRev for reverse \n\t\t    integration records.'
p1289
stRp1290
ag3
(g4
g5
(dp1291
g14
S''
sg40
S'how'
p1292
sg18
S''
sg42
S'IntegHow'
p1293
sg19
S''
sg15
g1292
sg28
Nsg44
S'Integration method: variations on \n\t\t    merge/branch/copy/ignore/delete.'
p1294
stRp1295
ag3
(g4
g5
(dp1296
g14
S''
sg40
S'change'
p1297
sg18
S''
sg42
S'Change'
p1298
sg19
S''
sg15
g1297
sg28
Nsg44
S'Changelist associated with the integration.'
p1299
stRp1300
atRp1301
sg68
g1249
sg40
S'db.integed'
p1302
sg69
S'0'
sg70
g71
sg691
S'db.resolve'
p1303
sg42
S'Integed'
p1304
sg74
S'29'
p1305
sg44
S'Permanent integration records'
p1306
stRp1307
sS'repo'
p1308
g3
(g4
g5
(dp1309
g7
S'repo'
p1310
sg9
g3
(g10
g11
(lp1311
g3
(g4
g5
(dp1312
g14
S''
sg15
g16
sg17
g16
sg18
S''
sg19
S''
sg20
g21
sg22
g23
stRp1313
ag3
(g4
g5
(dp1314
g14
S''
sg17
g26
sg18
S''
sg20
g27
sg19
S''
sg15
g26
sg28
Nsg22
g29
stRp1315
ag3
(g4
g5
(dp1316
g14
S''
sg17
g32
sg18
S''
sg20
g21
sg19
S''
sg15
g32
sg28
Nsg22
g33
stRp1317
ag3
(g4
g5
(dp1318
g14
S''
sg17
g36
sg18
S''
sg20
g27
sg19
S''
sg15
g36
sg28
Nsg22
g37
stRp1319
ag3
(g4
g5
(dp1320
g14
S''
sg40
S'repo'
p1321
sg18
S''
sg42
S'String'
p1322
sg19
S''
sg15
g1321
sg28
Nsg44
S'Name of the repo'
p1323
stRp1324
ag3
(g4
g5
(dp1325
g14
S''
sg40
S'owner'
p1326
sg18
S''
sg42
S'User'
p1327
sg19
S''
sg15
g1326
sg28
Nsg44
S'Owner of the repo'
p1328
stRp1329
ag3
(g4
g5
(dp1330
g14
S''
sg40
S'created'
p1331
sg18
S''
sg42
S'Date'
p1332
sg19
S''
sg15
g1331
sg28
Nsg44
S'Date the repo specification was created'
p1333
stRp1334
ag3
(g4
g5
(dp1335
g14
S''
sg40
S'pushed'
p1336
sg18
S''
sg42
S'Date'
p1337
sg19
S''
sg15
g1336
sg28
Nsg44
S'Date of the last push to the repo'
p1338
stRp1339
ag3
(g4
g5
(dp1340
g14
S''
sg40
S'forked'
p1341
sg18
S''
sg42
S'String'
p1342
sg19
S''
sg15
g1341
sg28
Nsg44
S'Name of the repo from which this repo was forked'
p1343
stRp1344
ag3
(g4
g5
(dp1345
g14
S''
sg40
S'desc'
p1346
sg18
S''
sg42
S'String'
p1347
sg19
S''
sg15
g1346
sg28
Nsg44
S'Repo Description'
p1348
stRp1349
ag3
(g4
g5
(dp1350
g14
S''
sg40
S'branch'
p1351
sg18
S''
sg42
S'String'
p1352
sg19
S''
sg15
g1351
sg28
Nsg44
S'Default branch to clone from the repo'
p1353
stRp1354
ag3
(g4
g5
(dp1355
g14
S''
sg40
S'mirror'
p1356
sg18
S''
sg42
S'String'
p1357
sg19
S''
sg15
g1356
sg28
Nsg44
S'Upstream URL that this repo is mirrored (readonly) from'
p1358
stRp1359
atRp1360
sg68
g1308
sg69
S'1'
sg70
g71
sg44
S'Repository specifications'
p1361
sg42
S'Repo'
p1362
sg74
S'57'
p1363
sg40
S'db.repo'
p1364
stRp1365
sS'revhx'
p1366
g3
(g4
g5
(dp1367
g7
S'depotFile'
p1368
sg9
g3
(g10
g11
(lp1369
g3
(g4
g5
(dp1370
g14
S''
sg15
g16
sg17
g16
sg18
S''
sg19
S''
sg20
g21
sg22
g23
stRp1371
ag3
(g4
g5
(dp1372
g14
S''
sg17
g26
sg18
S''
sg20
g27
sg19
S''
sg15
g26
sg28
Nsg22
g29
stRp1373
ag3
(g4
g5
(dp1374
g14
S''
sg17
g32
sg18
S''
sg20
g21
sg19
S''
sg15
g32
sg28
Nsg22
g33
stRp1375
ag3
(g4
g5
(dp1376
g14
S''
sg17
g36
sg18
S''
sg20
g27
sg19
S''
sg15
g36
sg28
Nsg22
g37
stRp1377
ag3
(g4
g5
(dp1378
g14
S''
sg40
g90
sg18
S''
sg42
g91
sg19
S''
sg15
g90
sg28
Nsg44
g92
stRp1379
ag3
(g4
g5
(dp1380
g14
S''
sg40
g95
sg18
S''
sg42
g96
sg19
S''
sg15
g95
sg28
Nsg44
g97
stRp1381
ag3
(g4
g5
(dp1382
g14
S''
sg40
g100
sg18
S''
sg42
g101
sg19
S''
sg15
g100
sg28
Nsg44
g102
stRp1383
ag3
(g4
g5
(dp1384
g14
S''
sg40
g105
sg18
S''
sg42
g106
sg19
S''
sg15
g105
sg28
Nsg44
g107
stRp1385
ag3
(g4
g5
(dp1386
g14
S''
sg40
g110
sg18
S''
sg42
g111
sg19
S''
sg15
g110
sg28
Nsg44
g112
stRp1387
ag3
(g4
g5
(dp1388
g14
S''
sg40
g115
sg18
S''
sg42
g116
sg19
S''
sg15
g115
sg28
Nsg44
g117
stRp1389
ag3
(g4
g5
(dp1390
g14
S''
sg40
g120
sg18
S''
sg42
g121
sg19
S''
sg15
g120
sg28
Nsg44
g122
stRp1391
ag3
(g4
g5
(dp1392
g14
S''
sg40
g125
sg18
S''
sg42
g126
sg19
S''
sg15
g125
sg28
Nsg44
g127
stRp1393
ag3
(g4
g5
(dp1394
g14
S''
sg40
g130
sg18
S''
sg42
g131
sg19
S''
sg15
g130
sg28
Nsg44
g132
stRp1395
ag3
(g4
g5
(dp1396
g14
S''
sg40
g135
sg18
S''
sg42
g136
sg19
S''
sg15
g135
sg28
Nsg44
g137
stRp1397
ag3
(g4
g5
(dp1398
g14
S''
sg40
g140
sg18
S''
sg42
g141
sg19
S''
sg15
g140
sg28
Nsg44
g142
stRp1399
ag3
(g4
g5
(dp1400
g14
S''
sg40
g145
sg18
S''
sg42
g146
sg19
S''
sg15
g145
sg28
Nsg44
g147
stRp1401
ag3
(g4
g5
(dp1402
g14
S''
sg40
g150
sg18
S''
sg42
g151
sg19
S''
sg15
g150
sg28
Nsg44
g152
stRp1403
ag3
(g4
g5
(dp1404
g14
S''
sg40
g155
sg18
S''
sg42
g156
sg19
S''
sg15
g155
sg28
Nsg44
g157
stRp1405
atRp1406
sg68
g1366
sg69
S'9'
sg70
g71
sg44
S'Revision records for revisions NOT deleted at the head revision'
p1407
sg42
S'Rev'
p1408
sg74
S'36'
p1409
sg40
S'db.revhx'
p1410
stRp1411
sS'revux'
p1412
g3
(g4
g5
(dp1413
g7
S'depotFile'
p1414
sg9
g3
(g10
g11
(lp1415
g3
(g4
g5
(dp1416
g14
S''
sg15
g16
sg17
g16
sg18
S''
sg19
S''
sg20
g21
sg22
g23
stRp1417
ag3
(g4
g5
(dp1418
g14
S''
sg17
g26
sg18
S''
sg20
g27
sg19
S''
sg15
g26
sg28
Nsg22
g29
stRp1419
ag3
(g4
g5
(dp1420
g14
S''
sg17
g32
sg18
S''
sg20
g21
sg19
S''
sg15
g32
sg28
Nsg22
g33
stRp1421
ag3
(g4
g5
(dp1422
g14
S''
sg17
g36
sg18
S''
sg20
g27
sg19
S''
sg15
g36
sg28
Nsg22
g37
stRp1423
ag3
(g4
g5
(dp1424
g14
S''
sg40
g90
sg18
S''
sg42
g91
sg19
S''
sg15
g90
sg28
Nsg44
g92
stRp1425
ag3
(g4
g5
(dp1426
g14
S''
sg40
g95
sg18
S''
sg42
g96
sg19
S''
sg15
g95
sg28
Nsg44
g97
stRp1427
ag3
(g4
g5
(dp1428
g14
S''
sg40
g100
sg18
S''
sg42
g101
sg19
S''
sg15
g100
sg28
Nsg44
g102
stRp1429
ag3
(g4
g5
(dp1430
g14
S''
sg40
g105
sg18
S''
sg42
g106
sg19
S''
sg15
g105
sg28
Nsg44
g107
stRp1431
ag3
(g4
g5
(dp1432
g14
S''
sg40
g110
sg18
S''
sg42
g111
sg19
S''
sg15
g110
sg28
Nsg44
g112
stRp1433
ag3
(g4
g5
(dp1434
g14
S''
sg40
g115
sg18
S''
sg42
g116
sg19
S''
sg15
g115
sg28
Nsg44
g117
stRp1435
ag3
(g4
g5
(dp1436
g14
S''
sg40
g120
sg18
S''
sg42
g121
sg19
S''
sg15
g120
sg28
Nsg44
g122
stRp1437
ag3
(g4
g5
(dp1438
g14
S''
sg40
g125
sg18
S''
sg42
g126
sg19
S''
sg15
g125
sg28
Nsg44
g127
stRp1439
ag3
(g4
g5
(dp1440
g14
S''
sg40
g130
sg18
S''
sg42
g131
sg19
S''
sg15
g130
sg28
Nsg44
g132
stRp1441
ag3
(g4
g5
(dp1442
g14
S''
sg40
g135
sg18
S''
sg42
g136
sg19
S''
sg15
g135
sg28
Nsg44
g137
stRp1443
ag3
(g4
g5
(dp1444
g14
S''
sg40
g140
sg18
S''
sg42
g141
sg19
S''
sg15
g140
sg28
Nsg44
g142
stRp1445
ag3
(g4
g5
(dp1446
g14
S''
sg40
g145
sg18
S''
sg42
g146
sg19
S''
sg15
g145
sg28
Nsg44
g147
stRp1447
ag3
(g4
g5
(dp1448
g14
S''
sg40
g150
sg18
S''
sg42
g151
sg19
S''
sg15
g150
sg28
Nsg44
g152
stRp1449
ag3
(g4
g5
(dp1450
g14
S''
sg40
g155
sg18
S''
sg42
g156
sg19
S''
sg15
g155
sg28
Nsg44
g157
stRp1451
atRp1452
sg68
g1412
sg69
S'9'
sg70
g71
sg44
S'Revision records for unload depot files'
p1453
sg42
S'Rev'
p1454
sg74
S'41'
p1455
sg40
S'db.revux'
p1456
stRp1457
sS'jnlack'
p1458
g3
(g4
g5
(dp1459
g7
S'id'
p1460
sg9
g3
(g10
g11
(lp1461
g3
(g4
g5
(dp1462
g14
S''
sg15
g16
sg17
g16
sg18
S''
sg19
S''
sg20
g21
sg22
g23
stRp1463
ag3
(g4
g5
(dp1464
g14
S''
sg17
g26
sg18
S''
sg20
g27
sg19
S''
sg15
g26
sg28
Nsg22
g29
stRp1465
ag3
(g4
g5
(dp1466
g14
S''
sg17
g32
sg18
S''
sg20
g21
sg19
S''
sg15
g32
sg28
Nsg22
g33
stRp1467
ag3
(g4
g5
(dp1468
g14
S''
sg17
g36
sg18
S''
sg20
g27
sg19
S''
sg15
g36
sg28
Nsg22
g37
stRp1469
ag3
(g4
g5
(dp1470
g14
S''
sg40
S'serverId'
p1471
sg18
S''
sg42
S'Domain'
p1472
sg19
S''
sg15
g1471
sg28
Nsg44
S'The serverId of the standby for whom this record applies'
p1473
stRp1474
ag3
(g4
g5
(dp1475
g14
S''
sg40
S'lastUpdate'
p1476
sg18
S''
sg42
S'Date'
p1477
sg19
S''
sg15
g1476
sg28
Nsg44
S'The date and time of last update'
p1478
stRp1479
ag3
(g4
g5
(dp1480
g14
S''
sg40
S'serverType'
p1481
sg18
S''
sg42
S'ServerServiceType'
p1482
sg19
S''
sg15
g1481
sg28
Nsg44
S'The server services offered by this standby'
p1483
stRp1484
ag3
(g4
g5
(dp1485
g14
S''
sg40
S'persistedJnl'
p1486
sg18
S''
sg42
S'Int'
p1487
sg19
S''
sg15
g1486
sg28
Nsg44
S'The last journal number persisted by this standby'
p1488
stRp1489
ag3
(g4
g5
(dp1490
g14
S''
sg40
S'persistedPos'
p1491
sg18
S''
sg42
S'Int64'
p1492
sg19
S''
sg15
g1491
sg28
Nsg44
S'The last journal position persisted by this standby'
p1493
stRp1494
ag3
(g4
g5
(dp1495
g14
S''
sg40
S'isAlive'
p1496
sg18
S''
sg42
S'Int'
p1497
sg19
S''
sg15
g1496
sg28
Nsg44
S'1 = alive'
p1498
stRp1499
ag3
(g4
g5
(dp1500
g14
S''
sg40
S'appliedJnl'
p1501
sg18
S''
sg42
S'Int'
p1502
sg19
S''
sg15
g1501
sg28
Nsg44
S'The last journal number applied to this standby'
p1503
stRp1504
ag3
(g4
g5
(dp1505
g14
S''
sg40
S'appliedPos'
p1506
sg18
S''
sg42
S'Int64'
p1507
sg19
S''
sg15
g1506
sg28
Nsg44
S'The last journal position applied to this standby'
p1508
stRp1509
atRp1510
sg68
g1458
sg69
S'0'
sg70
g71
sg44
S'Tracks journal positions of all standby servers'
p1511
sg42
S'JnlAck'
p1512
sg74
S'80'
p1513
sg40
S'db.jnlack'
p1514
stRp1515
sS'excl'
p1516
g3
(g4
g5
(dp1517
g7
S'depotFile'
p1518
sg9
g3
(g10
g11
(lp1519
g3
(g4
g5
(dp1520
g14
S''
sg15
g16
sg17
g16
sg18
S''
sg19
S''
sg20
g21
sg22
g23
stRp1521
ag3
(g4
g5
(dp1522
g14
S''
sg17
g26
sg18
S''
sg20
g27
sg19
S''
sg15
g26
sg28
Nsg22
g29
stRp1523
ag3
(g4
g5
(dp1524
g14
S''
sg17
g32
sg18
S''
sg20
g21
sg19
S''
sg15
g32
sg28
Nsg22
g33
stRp1525
ag3
(g4
g5
(dp1526
g14
S''
sg17
g36
sg18
S''
sg20
g27
sg19
S''
sg15
g36
sg28
Nsg22
g37
stRp1527
ag3
(g4
g5
(dp1528
g14
S''
sg40
S'depotFile'
p1529
sg18
S''
sg42
S'File'
p1530
sg19
S''
sg15
g1529
sg28
Nsg44
S'The file locked'
p1531
stRp1532
ag3
(g4
g5
(dp1533
g14
S''
sg40
S'client'
p1534
sg18
S''
sg42
S'Domain'
p1535
sg19
S''
sg15
g1534
sg28
Nsg44
S'The client for which the file is locked'
p1536
stRp1537
ag3
(g4
g5
(dp1538
g14
S''
sg40
S'user'
p1539
sg18
S''
sg42
S'User'
p1540
sg19
S''
sg15
g1539
sg28
Nsg44
S'The user for which the file is locked'
p1541
stRp1542
atRp1543
sg68
g1516
sg69
S'1'
sg70
g71
sg44
S'Exclusively locked (+l) files -  enables coordinated file locking in commit/edge server environments'
p1544
sg42
S'ExclusiveLock'
p1545
sg74
S'50'
p1546
sg40
S'db.excl'
p1547
stRp1548
sS'resolvex'
p1549
g3
(g4
g5
(dp1550
g7
S'toFile, fromFile, startFromRev'
p1551
sg9
g3
(g10
g11
(lp1552
g3
(g4
g5
(dp1553
g14
S''
sg15
g16
sg17
g16
sg18
S''
sg19
S''
sg20
g21
sg22
g23
stRp1554
ag3
(g4
g5
(dp1555
g14
S''
sg17
g26
sg18
S''
sg20
g27
sg19
S''
sg15
g26
sg28
Nsg22
g29
stRp1556
ag3
(g4
g5
(dp1557
g14
S''
sg17
g32
sg18
S''
sg20
g21
sg19
S''
sg15
g32
sg28
Nsg22
g33
stRp1558
ag3
(g4
g5
(dp1559
g14
S''
sg17
g36
sg18
S''
sg20
g27
sg19
S''
sg15
g36
sg28
Nsg22
g37
stRp1560
ag3
(g4
g5
(dp1561
g14
S''
sg40
S'toFile'
p1562
sg18
S''
sg42
S'File'
p1563
sg19
S''
sg15
g1562
sg28
Nsg44
S'File to which integration is being performed (target).'
p1564
stRp1565
ag3
(g4
g5
(dp1566
g14
S''
sg40
S'fromFile'
p1567
sg18
S''
sg42
S'File'
p1568
sg19
S''
sg15
g1567
sg28
Nsg44
S'File from which integration is being performed (source).'
p1569
stRp1570
ag3
(g4
g5
(dp1571
g14
S''
sg40
S'startFromRev'
p1572
sg18
S''
sg42
S'Rev'
p1573
sg19
S''
sg15
g1572
sg28
Nsg44
S'Starting revision of fromFile'
p1574
stRp1575
ag3
(g4
g5
(dp1576
g14
S''
sg40
S'endFromRev'
p1577
sg18
S''
sg42
S'Rev'
p1578
sg19
S''
sg15
g1577
sg28
Nsg44
S'Ending revision of fromFile'
p1579
stRp1580
ag3
(g4
g5
(dp1581
g14
S''
sg40
S'startToRev'
p1582
sg18
S''
sg42
S'Rev'
p1583
sg19
S''
sg15
g1582
sg28
Nsg44
S'Start revision of toFile into which integration was \n\t\t    performed.'
p1584
stRp1585
ag3
(g4
g5
(dp1586
g14
S''
sg40
S'endToRev'
p1587
sg18
S''
sg42
S'Rev'
p1588
sg19
S''
sg15
g1587
sg28
Nsg44
S'End revision of toFile into which integration was \n\t\t    performed. Only varies from startToRev for reverse \n\t\t    integration records.'
p1589
stRp1590
ag3
(g4
g5
(dp1591
g14
S''
sg40
S'how'
p1592
sg18
S''
sg42
S'IntegHow'
p1593
sg19
S''
sg15
g1592
sg28
Nsg44
S'Integration method: variations on \n\t\t    merge/branch/copy/ignore/delete.'
p1594
stRp1595
ag3
(g4
g5
(dp1596
g14
S''
sg40
S'state'
p1597
sg18
S''
sg42
S'ResolveState'
p1598
sg19
S''
sg15
g1597
sg28
Nsg44
S'How the user performed the resolve.'
p1599
stRp1600
ag3
(g4
g5
(dp1601
g14
S''
sg40
S'baseFile'
p1602
sg18
S''
sg42
S'File'
p1603
sg19
S''
sg15
g1602
sg28
Nsg44
S'File used as the base for merging.'
p1604
stRp1605
ag3
(g4
g5
(dp1606
g14
S''
sg40
S'baseRev'
p1607
sg18
S''
sg42
S'Rev'
p1608
sg19
S''
sg15
g1607
sg28
Nsg44
S'Revision of baseFile used as the merge base.'
p1609
stRp1610
atRp1611
sg68
g1549
sg40
S'db.resolvex'
p1612
sg69
S'1'
sg70
g71
sg691
S'db.integed'
p1613
sg42
S'Resolve'
p1614
sg74
S'32'
p1615
sg44
S'Pending integration records for shelved files'
p1616
stRp1617
sS'archmap'
p1618
g3
(g4
g5
(dp1619
g7
S'lbrFile, depotFile'
p1620
sg9
g3
(g10
g11
(lp1621
g3
(g4
g5
(dp1622
g14
S''
sg15
g16
sg17
g16
sg18
S''
sg19
S''
sg20
g21
sg22
g23
stRp1623
ag3
(g4
g5
(dp1624
g14
S''
sg17
g26
sg18
S''
sg20
g27
sg19
S''
sg15
g26
sg28
Nsg22
g29
stRp1625
ag3
(g4
g5
(dp1626
g14
S''
sg17
g32
sg18
S''
sg20
g21
sg19
S''
sg15
g32
sg28
Nsg22
g33
stRp1627
ag3
(g4
g5
(dp1628
g14
S''
sg17
g36
sg18
S''
sg20
g27
sg19
S''
sg15
g36
sg28
Nsg22
g37
stRp1629
ag3
(g4
g5
(dp1630
g14
S''
sg40
S'lbrFile'
p1631
sg18
S''
sg42
S'File'
p1632
sg19
S''
sg15
g1631
sg28
Nsg44
S'Paths in the librarian namespace that receive lazy\n\t\t    copies.'
p1633
stRp1634
ag3
(g4
g5
(dp1635
g14
S''
sg40
S'depotFile'
p1636
sg18
S''
sg42
S'File'
p1637
sg19
S''
sg15
g1636
sg28
Nsg44
S'Paths in the depot namespace that provide lazy copies.'
p1638
stRp1639
atRp1640
sg68
g1618
sg160
S'Supercedes db.archive'
p1641
sg69
S'0'
sg70
g71
sg44
S'Mapping entries for lazy-copies'
p1642
sg42
S'ArchMap'
p1643
sg74
S'34'
p1644
sg40
S'db.archmap'
p1645
stRp1646
sS'desc'
p1647
g3
(g4
g5
(dp1648
g7
S'descKey'
p1649
sg9
g3
(g10
g11
(lp1650
g3
(g4
g5
(dp1651
g14
S''
sg15
g16
sg17
g16
sg18
S''
sg19
S''
sg20
g21
sg22
g23
stRp1652
ag3
(g4
g5
(dp1653
g14
S''
sg17
g26
sg18
S''
sg20
g27
sg19
S''
sg15
g26
sg28
Nsg22
g29
stRp1654
ag3
(g4
g5
(dp1655
g14
S''
sg17
g32
sg18
S''
sg20
g21
sg19
S''
sg15
g32
sg28
Nsg22
g33
stRp1656
ag3
(g4
g5
(dp1657
g14
S''
sg17
g36
sg18
S''
sg20
g27
sg19
S''
sg15
g36
sg28
Nsg22
g37
stRp1658
ag3
(g4
g5
(dp1659
g14
S''
sg40
S'descKey'
p1660
sg18
S''
sg42
S'Change'
p1661
sg19
S''
sg15
g1660
sg28
Nsg44
S'Original number of the change to which this description\n\t\t    applies. This may differ from the final change number if\n\t\t    the change is renumbered on submission.'
p1662
stRp1663
ag3
(g4
g5
(dp1664
g14
S''
sg40
S'description'
p1665
sg18
S''
sg42
S'Text'
p1666
sg19
S''
sg15
g1665
sg28
Nsg44
S'The change description itself'
p1667
stRp1668
atRp1669
sg68
g1647
sg69
S'0'
sg70
g71
sg44
S'Change descriptions'
p1670
sg42
S'Desc'
p1671
sg74
S'56'
p1672
sg40
S'db.desc'
p1673
stRp1674
sS'resolve'
p1675
g3
(g4
g5
(dp1676
g7
S'toFile, fromFile, startFromRev'
p1677
sg9
g3
(g10
g11
(lp1678
g3
(g4
g5
(dp1679
g14
S''
sg15
g16
sg17
g16
sg18
S''
sg19
S''
sg20
g21
sg22
g23
stRp1680
ag3
(g4
g5
(dp1681
g14
S''
sg17
g26
sg18
S''
sg20
g27
sg19
S''
sg15
g26
sg28
Nsg22
g29
stRp1682
ag3
(g4
g5
(dp1683
g14
S''
sg17
g32
sg18
S''
sg20
g21
sg19
S''
sg15
g32
sg28
Nsg22
g33
stRp1684
ag3
(g4
g5
(dp1685
g14
S''
sg17
g36
sg18
S''
sg20
g27
sg19
S''
sg15
g36
sg28
Nsg22
g37
stRp1686
ag3
(g4
g5
(dp1687
g14
S''
sg40
g1562
sg18
S''
sg42
g1563
sg19
S''
sg15
g1562
sg28
Nsg44
g1564
stRp1688
ag3
(g4
g5
(dp1689
g14
S''
sg40
g1567
sg18
S''
sg42
g1568
sg19
S''
sg15
g1567
sg28
Nsg44
g1569
stRp1690
ag3
(g4
g5
(dp1691
g14
S''
sg40
g1572
sg18
S''
sg42
g1573
sg19
S''
sg15
g1572
sg28
Nsg44
g1574
stRp1692
ag3
(g4
g5
(dp1693
g14
S''
sg40
g1577
sg18
S''
sg42
g1578
sg19
S''
sg15
g1577
sg28
Nsg44
g1579
stRp1694
ag3
(g4
g5
(dp1695
g14
S''
sg40
g1582
sg18
S''
sg42
g1583
sg19
S''
sg15
g1582
sg28
Nsg44
g1584
stRp1696
ag3
(g4
g5
(dp1697
g14
S''
sg40
g1587
sg18
S''
sg42
g1588
sg19
S''
sg15
g1587
sg28
Nsg44
g1589
stRp1698
ag3
(g4
g5
(dp1699
g14
S''
sg40
g1592
sg18
S''
sg42
g1593
sg19
S''
sg15
g1592
sg28
Nsg44
g1594
stRp1700
ag3
(g4
g5
(dp1701
g14
S''
sg40
g1597
sg18
S''
sg42
g1598
sg19
S''
sg15
g1597
sg28
Nsg44
g1599
stRp1702
ag3
(g4
g5
(dp1703
g14
S''
sg40
g1602
sg18
S''
sg42
g1603
sg19
S''
sg15
g1602
sg28
Nsg44
g1604
stRp1704
ag3
(g4
g5
(dp1705
g14
S''
sg40
g1607
sg18
S''
sg42
g1608
sg19
S''
sg15
g1607
sg28
Nsg44
g1609
stRp1706
atRp1707
sg68
g1675
sg40
S'db.resolve'
p1708
sg69
S'1'
sg70
g71
sg691
S'db.integed'
p1709
sg42
S'Resolve'
p1710
sg74
S'31'
p1711
sg44
S'Pending integration records'
p1712
stRp1713
sS'traits'
p1714
g3
(g4
g5
(dp1715
g7
S'traitLot, name'
p1716
sg9
g3
(g10
g11
(lp1717
g3
(g4
g5
(dp1718
g14
S''
sg15
g16
sg17
g16
sg18
S''
sg19
S''
sg20
g21
sg22
g23
stRp1719
ag3
(g4
g5
(dp1720
g14
S''
sg17
g26
sg18
S''
sg20
g27
sg19
S''
sg15
g26
sg28
Nsg22
g29
stRp1721
ag3
(g4
g5
(dp1722
g14
S''
sg17
g32
sg18
S''
sg20
g21
sg19
S''
sg15
g32
sg28
Nsg22
g33
stRp1723
ag3
(g4
g5
(dp1724
g14
S''
sg17
g36
sg18
S''
sg20
g27
sg19
S''
sg15
g36
sg28
Nsg22
g37
stRp1725
ag3
(g4
g5
(dp1726
g14
S''
sg40
S'traitLot'
p1727
sg18
S''
sg42
S'Int'
p1728
sg19
S''
sg15
g1727
sg28
Nsg44
S'Indicates a specific collection of traits (referred to \n\t\t    externally as "attributes".)'
p1729
stRp1730
ag3
(g4
g5
(dp1731
g14
S''
sg40
S'name'
p1732
sg18
S''
sg42
S'String'
p1733
sg19
S''
sg15
g1732
sg28
Nsg44
S'Trait (attribute) name'
p1734
stRp1735
ag3
(g4
g5
(dp1736
g14
S''
sg40
S'type'
p1737
sg18
S''
sg42
S'TraitType'
p1738
sg19
S''
sg15
g1737
sg28
Nsg44
S'Type of trait'
p1739
stRp1740
ag3
(g4
g5
(dp1741
g14
S''
sg40
S'value'
p1742
sg18
S''
sg42
S'Octet String'
p1743
sg19
S''
sg15
g1742
sg28
Nsg44
S'The value'
p1744
stRp1745
atRp1746
sg68
g1714
sg69
S'0'
sg70
g71
sg44
S'Attributes associated with file revisions'
p1747
sg42
S'Trait'
p1748
sg74
S'51'
p1749
sg40
S'db.traits'
p1750
stRp1751
sS'config'
p1752
g3
(g4
g5
(dp1753
g7
S'serverName, name'
p1754
sg9
g3
(g10
g11
(lp1755
g3
(g4
g5
(dp1756
g14
S''
sg15
g16
sg17
g16
sg18
S''
sg19
S''
sg20
g21
sg22
g23
stRp1757
ag3
(g4
g5
(dp1758
g14
S''
sg17
g26
sg18
S''
sg20
g27
sg19
S''
sg15
g26
sg28
Nsg22
g29
stRp1759
ag3
(g4
g5
(dp1760
g14
S''
sg17
g32
sg18
S''
sg20
g21
sg19
S''
sg15
g32
sg28
Nsg22
g33
stRp1761
ag3
(g4
g5
(dp1762
g14
S''
sg17
g36
sg18
S''
sg20
g27
sg19
S''
sg15
g36
sg28
Nsg22
g37
stRp1763
ag3
(g4
g5
(dp1764
g14
S''
sg40
S'sname'
p1765
sg18
S''
sg42
S'String'
p1766
sg19
S''
sg15
g1765
sg28
Nsg44
S'Server name'
p1767
stRp1768
ag3
(g4
g5
(dp1769
g14
S''
sg40
S'name'
p1770
sg18
S''
sg42
S'String'
p1771
sg19
S''
sg15
g1770
sg28
Nsg44
S'Configuration variable name'
p1772
stRp1773
ag3
(g4
g5
(dp1774
g14
S''
sg40
S'value'
p1775
sg18
S''
sg42
S'Value'
p1776
sg19
S''
sg15
g1775
sg28
Nsg44
S'Configuration variable value'
p1777
stRp1778
atRp1779
sg68
g1752
sg69
S'1'
sg70
g71
sg44
S'Server configurations table'
p1780
sg42
S'Config'
p1781
sg74
S'1'
sg40
S'db.config'
p1782
stRp1783
sS'server'
p1784
g3
(g4
g5
(dp1785
g7
S'id'
p1786
sg9
g3
(g10
g11
(lp1787
g3
(g4
g5
(dp1788
g14
S''
sg15
g16
sg17
g16
sg18
S''
sg19
S''
sg20
g21
sg22
g23
stRp1789
ag3
(g4
g5
(dp1790
g14
S''
sg17
g26
sg18
S''
sg20
g27
sg19
S''
sg15
g26
sg28
Nsg22
g29
stRp1791
ag3
(g4
g5
(dp1792
g14
S''
sg17
g32
sg18
S''
sg20
g21
sg19
S''
sg15
g32
sg28
Nsg22
g33
stRp1793
ag3
(g4
g5
(dp1794
g14
S''
sg17
g36
sg18
S''
sg20
g27
sg19
S''
sg15
g36
sg28
Nsg22
g37
stRp1795
ag3
(g4
g5
(dp1796
g14
S''
sg40
S'id'
p1797
sg18
S''
sg42
S'Text'
p1798
sg19
S''
sg15
g1797
sg28
Nsg44
S'The server identifier'
p1799
stRp1800
ag3
(g4
g5
(dp1801
g14
S''
sg40
S'type'
p1802
sg18
S''
sg42
S'ServerType'
p1803
sg19
S''
sg15
g1802
sg28
Nsg44
S'The server type: server/broker/proxy'
p1804
stRp1805
ag3
(g4
g5
(dp1806
g14
S''
sg40
S'name'
p1807
sg18
S''
sg42
S'Text'
p1808
sg19
S''
sg15
g1807
sg28
Nsg44
S'The P4NAME used by this server'
p1809
stRp1810
ag3
(g4
g5
(dp1811
g14
S''
sg40
S'address'
p1812
sg18
S''
sg42
S'Text'
p1813
sg19
S''
sg15
g1812
sg28
Nsg44
S'The P4PORT used by this server'
p1814
stRp1815
ag3
(g4
g5
(dp1816
g14
S''
sg40
S'externalAddress'
p1817
sg18
S''
sg42
S'Text'
p1818
sg19
S''
sg15
g1817
sg28
Nsg44
S'For an edge server, this optional field contains its external address for connections from the commit server. This field is required for federated parallel submit.'
p1819
stRp1820
ag3
(g4
g5
(dp1821
g14
S''
sg40
S'services'
p1822
sg18
S''
sg42
S'ServerServiceType'
p1823
sg19
S''
sg15
g1822
sg28
Nsg44
S'Service provided by this server'
p1824
stRp1825
ag3
(g4
g5
(dp1826
g14
S''
sg40
S'desc'
p1827
sg18
S''
sg42
S'Text'
p1828
sg19
S''
sg15
g1827
sg28
Nsg44
S'Server description'
p1829
stRp1830
ag3
(g4
g5
(dp1831
g14
S''
sg40
S'user'
p1832
sg18
S''
sg42
S'User'
p1833
sg19
S''
sg15
g1832
sg28
Nsg44
S'The service user used by this server'
p1834
stRp1835
atRp1836
sg68
g1784
sg69
S'2'
sg70
g71
sg44
S'Server specifications'
p1837
sg42
S'Server'
p1838
sg74
S'6'
sg40
S'db.server'
p1839
stRp1840
sS'property'
p1841
g3
(g4
g5
(dp1842
g7
S'name, seq, type, scope'
p1843
sg9
g3
(g10
g11
(lp1844
g3
(g4
g5
(dp1845
g14
S''
sg15
g16
sg17
g16
sg18
S''
sg19
S''
sg20
g21
sg22
g23
stRp1846
ag3
(g4
g5
(dp1847
g14
S''
sg17
g26
sg18
S''
sg20
g27
sg19
S''
sg15
g26
sg28
Nsg22
g29
stRp1848
ag3
(g4
g5
(dp1849
g14
S''
sg17
g32
sg18
S''
sg20
g21
sg19
S''
sg15
g32
sg28
Nsg22
g33
stRp1850
ag3
(g4
g5
(dp1851
g14
S''
sg17
g36
sg18
S''
sg20
g27
sg19
S''
sg15
g36
sg28
Nsg22
g37
stRp1852
ag3
(g4
g5
(dp1853
g14
S''
sg40
S'name'
p1854
sg18
S''
sg42
S'String'
p1855
sg19
S''
sg15
g1854
sg28
Nsg44
S'The property name'
p1856
stRp1857
ag3
(g4
g5
(dp1858
g14
S''
sg40
S'sequence'
p1859
sg18
S''
sg42
S'String'
p1860
sg19
S''
sg15
g1859
sg28
Nsg44
S'Sequence number of property'
p1861
stRp1862
ag3
(g4
g5
(dp1863
g14
S''
sg40
S'type'
p1864
sg18
S''
sg42
S'Int'
p1865
sg19
S''
sg15
g1864
sg28
Nsg44
S"1=user, 2=group; set if '-u | -g' option used with 'p4 property'"
p1866
stRp1867
ag3
(g4
g5
(dp1868
g14
S''
sg40
S'scope'
p1869
sg18
S''
sg42
S'String'
p1870
sg19
S''
sg15
g1869
sg28
Nsg44
S'The user or group the property applies to'
p1871
stRp1872
ag3
(g4
g5
(dp1873
g14
S''
sg40
S'value'
p1874
sg18
S''
sg42
S'String'
p1875
sg19
S''
sg15
g1874
sg28
Nsg44
S'The property value'
p1876
stRp1877
ag3
(g4
g5
(dp1878
g14
S''
sg40
S'date'
p1879
sg18
S''
sg42
S'String'
p1880
sg19
S''
sg15
g1879
sg28
Nsg44
S'The date/time the property was last updated'
p1881
stRp1882
ag3
(g4
g5
(dp1883
g14
S''
sg40
S'user'
p1884
sg18
S''
sg42
S'String'
p1885
sg19
S''
sg15
g1884
sg28
Nsg44
S'The user that last modified the property'
p1886
stRp1887
atRp1888
sg68
g1841
sg69
S'0'
sg70
g71
sg44
S'Properties'
p1889
sg42
S'Property'
p1890
sg74
S'77'
p1891
sg40
S'db.property'
p1892
stRp1893
sS'view'
p1894
g3
(g4
g5
(dp1895
g7
S'name, seq'
p1896
sg9
g3
(g10
g11
(lp1897
g3
(g4
g5
(dp1898
g14
S''
sg15
g16
sg17
g16
sg18
S''
sg19
S''
sg20
g21
sg22
g23
stRp1899
ag3
(g4
g5
(dp1900
g14
S''
sg17
g26
sg18
S''
sg20
g27
sg19
S''
sg15
g26
sg28
Nsg22
g29
stRp1901
ag3
(g4
g5
(dp1902
g14
S''
sg17
g32
sg18
S''
sg20
g21
sg19
S''
sg15
g32
sg28
Nsg22
g33
stRp1903
ag3
(g4
g5
(dp1904
g14
S''
sg17
g36
sg18
S''
sg20
g27
sg19
S''
sg15
g36
sg28
Nsg22
g37
stRp1905
ag3
(g4
g5
(dp1906
g14
S''
sg40
S'name'
p1907
sg18
S''
sg42
S'Domain'
p1908
sg19
S''
sg15
g1907
sg28
Nsg44
S'Domain name to which this view applies'
p1909
stRp1910
ag3
(g4
g5
(dp1911
g14
S''
sg40
S'seq'
p1912
sg18
S''
sg42
S'Int'
p1913
sg19
S''
sg15
g1912
sg28
Nsg44
S'Sequence number: for ordering multi-line views'
p1914
stRp1915
ag3
(g4
g5
(dp1916
g14
S''
sg40
S'mapFlag'
p1917
sg18
S''
sg42
S'MapFlag'
p1918
sg19
S''
sg15
g1917
sg28
Nsg44
S'Type of mapping'
p1919
stRp1920
ag3
(g4
g5
(dp1921
g14
S''
sg40
S'viewFile'
p1922
sg18
S''
sg42
S'Mapping'
p1923
sg19
S''
sg15
g1922
sg28
Nsg44
S"The right-hand-side of the view. For clients, this is\n\t\t    the client-side, for labels it's the generated label \n\t\t    view. For branches, it's the target side of the branch\n\t\t    view."
p1924
stRp1925
ag3
(g4
g5
(dp1926
g14
S''
sg40
S'depotFile'
p1927
sg18
S''
sg42
S'Mapping'
p1928
sg19
S''
sg15
g1927
sg28
Nsg44
S'The left-hand-side of the view - a mapping to file(s)\n\t\t    in the depot.'
p1929
stRp1930
atRp1931
sg68
g1894
sg69
S'1'
sg70
g71
sg44
S'View data for domain records'
p1932
sg42
S'View'
p1933
sg74
S'22'
p1934
sg40
S'db.view'
p1935
stRp1936
sS'domain'
p1937
g3
(g4
g5
(dp1938
g7
S'name'
p1939
sg9
g3
(g10
g11
(lp1940
g3
(g4
g5
(dp1941
g14
S''
sg15
g16
sg17
g16
sg18
S''
sg19
S''
sg20
g21
sg22
g23
stRp1942
ag3
(g4
g5
(dp1943
g14
S''
sg17
g26
sg18
S''
sg20
g27
sg19
S''
sg15
g26
sg28
Nsg22
g29
stRp1944
ag3
(g4
g5
(dp1945
g14
S''
sg17
g32
sg18
S''
sg20
g21
sg19
S''
sg15
g32
sg28
Nsg22
g33
stRp1946
ag3
(g4
g5
(dp1947
g14
S''
sg17
g36
sg18
S''
sg20
g27
sg19
S''
sg15
g36
sg28
Nsg22
g37
stRp1948
ag3
(g4
g5
(dp1949
g14
S''
sg40
S'name'
p1950
sg18
S''
sg42
S'Domain'
p1951
sg19
S''
sg15
g1950
sg28
Nsg44
S'Domain name'
p1952
stRp1953
ag3
(g4
g5
(dp1954
g14
S''
sg40
S'type'
p1955
sg18
S''
sg42
S'DomainType'
p1956
sg19
S''
sg15
g1955
sg28
Nsg44
S'Type of domain'
p1957
stRp1958
ag3
(g4
g5
(dp1959
g14
S''
sg40
S'extra'
p1960
sg18
S''
sg42
S'Text'
p1961
sg19
S''
sg15
g1960
sg28
Nsg44
S'Formerly "host". Associated host or, for labels, revision \n\t\t    number.'
p1962
stRp1963
ag3
(g4
g5
(dp1964
g14
S''
sg40
S'mount'
p1965
sg18
S''
sg42
S'Text'
p1966
sg19
S''
sg15
g1965
sg28
Nsg44
S'The client root'
p1967
stRp1968
ag3
(g4
g5
(dp1969
g14
S''
sg40
S'mount2'
p1970
sg18
S''
sg42
S'Text'
p1971
sg19
S''
sg15
g1970
sg28
Nsg44
S'Alternate client root'
p1972
stRp1973
ag3
(g4
g5
(dp1974
g14
S''
sg40
S'mount3'
p1975
sg18
S''
sg42
S'Text'
p1976
sg19
S''
sg15
g1975
sg28
Nsg44
S'Alternate client root'
p1977
stRp1978
ag3
(g4
g5
(dp1979
g14
S''
sg40
S'owner'
p1980
sg18
S''
sg42
S'User'
p1981
sg19
S''
sg15
g1980
sg28
Nsg44
S'Name of user who owns the domain.'
p1982
stRp1983
ag3
(g4
g5
(dp1984
g14
S''
sg40
S'updateDate'
p1985
sg18
S''
sg42
S'Date'
p1986
sg19
S''
sg15
g1985
sg28
Nsg44
S'Date of last update to domain specification.'
p1987
stRp1988
ag3
(g4
g5
(dp1989
g14
S''
sg40
S'accessDate'
p1990
sg18
S''
sg42
S'Date'
p1991
sg19
S''
sg15
g1990
sg28
Nsg44
S'Date of last access to domain specification.'
p1992
stRp1993
ag3
(g4
g5
(dp1994
g14
S''
sg40
S'options'
p1995
sg18
S''
sg42
S'DomainOpts'
p1996
sg19
S''
sg15
g1995
sg28
Nsg44
S'Options for client, label, and branch domains.'
p1997
stRp1998
ag3
(g4
g5
(dp1999
g14
S''
sg40
S'description'
p2000
sg18
S''
sg42
S'Text'
p2001
sg19
S''
sg15
g2000
sg28
Nsg44
S'Description of domain.'
p2002
stRp2003
ag3
(g4
g5
(dp2004
g14
S''
sg40
S'stream'
p2005
sg18
S''
sg42
S'Domain'
p2006
sg19
S''
sg15
g2005
sg28
Nsg44
S'Associated stream for client records'
p2007
stRp2008
ag3
(g4
g5
(dp2009
g14
S''
sg40
S'serverid'
p2010
sg18
S''
sg42
S'Text'
p2011
sg19
S''
sg15
g2010
sg28
Nsg44
S'Associated server ID for client records'
p2012
stRp2013
ag3
(g4
g5
(dp2014
g14
S''
sg40
S'contents'
p2015
sg18
S''
sg42
S'Int'
p2016
sg19
S''
sg15
g2015
sg28
Nsg44
S'Client domain contents. 1: Maps only classic depot files, 2: Maps only graph depot files, 3: Maps both classic and graph depot files'
p2017
stRp2018
atRp2019
sg68
g1937
sg69
S'7'
sg70
g71
sg44
S'Domains: depots, clients, labels, branches, streams, and typemap'
p2020
sg42
S'Domain'
p2021
sg74
S'17'
p2022
sg40
S'db.domain'
p2023
stRp2024
sS'stream'
p2025
g3
(g4
g5
(dp2026
g7
S'stream'
p2027
sg9
g3
(g10
g11
(lp2028
g3
(g4
g5
(dp2029
g14
S''
sg15
g16
sg17
g16
sg18
S''
sg19
S''
sg20
g21
sg22
g23
stRp2030
ag3
(g4
g5
(dp2031
g14
S''
sg17
g26
sg18
S''
sg20
g27
sg19
S''
sg15
g26
sg28
Nsg22
g29
stRp2032
ag3
(g4
g5
(dp2033
g14
S''
sg17
g32
sg18
S''
sg20
g21
sg19
S''
sg15
g32
sg28
Nsg22
g33
stRp2034
ag3
(g4
g5
(dp2035
g14
S''
sg17
g36
sg18
S''
sg20
g27
sg19
S''
sg15
g36
sg28
Nsg22
g37
stRp2036
ag3
(g4
g5
(dp2037
g14
S''
sg40
S'stream'
p2038
sg18
S''
sg42
S'Domain'
p2039
sg19
S''
sg15
g2038
sg28
Nsg44
S'Stream name'
p2040
stRp2041
ag3
(g4
g5
(dp2042
g14
S''
sg40
S'parent'
p2043
sg18
S''
sg42
S'Domain'
p2044
sg19
S''
sg15
g2043
sg28
Nsg44
S'Parent stream name'
p2045
stRp2046
ag3
(g4
g5
(dp2047
g14
S''
sg40
S'title'
p2048
sg18
S''
sg42
S'Text'
p2049
sg19
S''
sg15
g2048
sg28
Nsg44
S'Stream title (alias for the stream name)'
p2050
stRp2051
ag3
(g4
g5
(dp2052
g14
S''
sg40
S'type'
p2053
sg18
S''
sg42
S'StreamType'
p2054
sg19
S''
sg15
g2053
sg28
Nsg44
S'The type of stream'
p2055
stRp2056
ag3
(g4
g5
(dp2057
g14
S''
sg40
S'preview'
p2058
sg18
S''
sg42
S'Date'
p2059
sg19
S''
sg15
g2058
sg28
Nsg44
S'Stream template modification time'
p2060
stRp2061
ag3
(g4
g5
(dp2062
g14
S''
sg40
S'change'
p2063
sg18
S''
sg42
S'Change'
p2064
sg19
S''
sg15
g2063
sg28
Nsg44
S'Last submit to stream'
p2065
stRp2066
ag3
(g4
g5
(dp2067
g14
S''
sg40
S'copychg'
p2068
sg18
S''
sg42
S'Change'
p2069
sg19
S''
sg15
g2068
sg28
Nsg44
S'Parent change at last copy'
p2070
stRp2071
ag3
(g4
g5
(dp2072
g14
S''
sg40
S'mergechg'
p2073
sg18
S''
sg42
S'Change'
p2074
sg19
S''
sg15
g2073
sg28
Nsg44
S'Parent change at last merge'
p2075
stRp2076
ag3
(g4
g5
(dp2077
g14
S''
sg40
S'highchg'
p2078
sg18
S''
sg42
S'Change'
p2079
sg19
S''
sg15
g2078
sg28
Nsg44
S'Highest change at last merge'
p2080
stRp2081
ag3
(g4
g5
(dp2082
g14
S''
sg40
S'hash'
p2083
sg18
S''
sg42
S'Int'
p2084
sg19
S''
sg15
g2083
sg28
Nsg44
S'Hash value of dynamic branch'
p2085
stRp2086
ag3
(g4
g5
(dp2087
g14
S''
sg40
S'status'
p2088
sg18
S''
sg42
S'StreamStatus'
p2089
sg19
S''
sg15
g2088
sg28
Nsg44
S'Flow status'
p2090
stRp2091
atRp2092
sg68
g2025
sg69
S'1'
sg70
g71
sg44
S'Stream specifications'
p2093
sg42
S'Stream'
p2094
sg74
S'16'
p2095
sg40
S'db.stream'
p2096
stRp2097
sS'sendq'
p2098
g3
(g4
g5
(dp2099
g7
S'taskid, seq'
p2100
sg9
g3
(g10
g11
(lp2101
g3
(g4
g5
(dp2102
g14
S''
sg15
g16
sg17
g16
sg18
S''
sg19
S''
sg20
g21
sg22
g23
stRp2103
ag3
(g4
g5
(dp2104
g14
S''
sg17
g26
sg18
S''
sg20
g27
sg19
S''
sg15
g26
sg28
Nsg22
g29
stRp2105
ag3
(g4
g5
(dp2106
g14
S''
sg17
g32
sg18
S''
sg20
g21
sg19
S''
sg15
g32
sg28
Nsg22
g33
stRp2107
ag3
(g4
g5
(dp2108
g14
S''
sg17
g36
sg18
S''
sg20
g27
sg19
S''
sg15
g36
sg28
Nsg22
g37
stRp2109
ag3
(g4
g5
(dp2110
g14
S''
sg40
S'taskID'
p2111
sg18
S''
sg42
S'Int'
p2112
sg19
S''
sg15
g2111
sg28
Nsg44
S'The process id (PID) of the sync'
p2113
stRp2114
ag3
(g4
g5
(dp2115
g14
S''
sg40
S'seq'
p2116
sg18
S''
sg42
S'Int'
p2117
sg19
S''
sg15
g2116
sg28
Nsg44
S'Sequence number'
p2118
stRp2119
ag3
(g4
g5
(dp2120
g14
S''
sg40
S'handle'
p2121
sg18
S''
sg42
S'Text'
p2122
sg19
S''
sg15
g2121
sg28
Nsg44
S'Handle'
p2123
stRp2124
ag3
(g4
g5
(dp2125
g14
S''
sg40
S'depotFile'
p2126
sg18
S''
sg42
S'File'
p2127
sg19
S''
sg15
g2126
sg28
Nsg44
S'The file in the depot'
p2128
stRp2129
ag3
(g4
g5
(dp2130
g14
S''
sg40
S'clientFile'
p2131
sg18
S''
sg42
S'File'
p2132
sg19
S''
sg15
g2131
sg28
Nsg44
S'The file in its location on the client'
p2133
stRp2134
ag3
(g4
g5
(dp2135
g14
S''
sg40
S'haveRev'
p2136
sg18
S''
sg42
S'Rev'
p2137
sg19
S''
sg15
g2136
sg28
Nsg44
S'Have revision'
p2138
stRp2139
ag3
(g4
g5
(dp2140
g14
S''
sg40
S'type'
p2141
sg18
S''
sg42
S'FileType'
p2142
sg19
S''
sg15
g2141
sg28
Nsg44
S'File type'
p2143
stRp2144
ag3
(g4
g5
(dp2145
g14
S''
sg40
S'modtime'
p2146
sg18
S''
sg42
S'Date'
p2147
sg19
S''
sg15
g2146
sg28
Nsg44
S'Modification time'
p2148
stRp2149
ag3
(g4
g5
(dp2150
g14
S''
sg40
S'digest'
p2151
sg18
S''
sg42
S'Digest'
p2152
sg19
S''
sg15
g2151
sg28
Nsg44
S'The MD5 digest of the revision'
p2153
stRp2154
ag3
(g4
g5
(dp2155
g14
S''
sg40
S'size'
p2156
sg18
S''
sg42
S'FileSize'
p2157
sg19
S''
sg15
g2156
sg28
Nsg44
S'The size of the file in bytes'
p2158
stRp2159
ag3
(g4
g5
(dp2160
g14
S''
sg40
S'lbrFile'
p2161
sg18
S''
sg42
S'File'
p2162
sg19
S''
sg15
g2161
sg28
Nsg44
S'Librarian filename'
p2163
stRp2164
ag3
(g4
g5
(dp2165
g14
S''
sg40
S'lbrRev'
p2166
sg18
S''
sg42
S'LbrRev'
p2167
sg19
S''
sg15
g2166
sg28
Nsg44
S'The revision of lbrFile that contains the revision content'
p2168
stRp2169
ag3
(g4
g5
(dp2170
g14
S''
sg40
S'lbrType'
p2171
sg18
S''
sg42
S'FileType'
p2172
sg19
S''
sg15
g2171
sg28
Nsg44
S'The file type of the librarian revision'
p2173
stRp2174
ag3
(g4
g5
(dp2175
g14
S''
sg40
S'flags'
p2176
sg18
S''
sg42
S'Int'
p2177
sg19
S''
sg15
g2176
sg28
Nsg44
S'Flags'
p2178
stRp2179
ag3
(g4
g5
(dp2180
g14
S''
sg40
S'clientType'
p2181
sg18
S''
sg42
S'FileType'
p2182
sg19
S''
sg15
g2181
sg28
Nsg44
S'The client file type of the revision'
p2183
stRp2184
ag3
(g4
g5
(dp2185
g14
S''
sg40
S'bsha'
p2186
sg18
S''
sg42
S'SHA1'
p2187
sg19
S''
sg15
g2186
sg28
Nsg44
S'The Blob SHA'
p2188
stRp2189
atRp2190
sg68
g2098
sg69
S'3'
sg70
g71
sg44
S'Parallel file transmission work queue'
p2191
sg42
S'SendQ'
p2192
sg74
S'79'
p2193
sg40
S'db.sendq'
p2194
stRp2195
sS'userrp'
p2196
g3
(g4
g5
(dp2197
g7
S'user'
p2198
sg9
g3
(g10
g11
(lp2199
g3
(g4
g5
(dp2200
g14
S''
sg15
g16
sg17
g16
sg18
S''
sg19
S''
sg20
g21
sg22
g23
stRp2201
ag3
(g4
g5
(dp2202
g14
S''
sg17
g26
sg18
S''
sg20
g27
sg19
S''
sg15
g26
sg28
Nsg22
g29
stRp2203
ag3
(g4
g5
(dp2204
g14
S''
sg17
g32
sg18
S''
sg20
g21
sg19
S''
sg15
g32
sg28
Nsg22
g33
stRp2205
ag3
(g4
g5
(dp2206
g14
S''
sg17
g36
sg18
S''
sg20
g27
sg19
S''
sg15
g36
sg28
Nsg22
g37
stRp2207
ag3
(g4
g5
(dp2208
g14
S''
sg40
S'user'
p2209
sg18
S''
sg42
S'User'
p2210
sg19
S''
sg15
g2209
sg28
Nsg44
S'The username'
p2211
stRp2212
ag3
(g4
g5
(dp2213
g14
S''
sg40
S'email'
p2214
sg18
S''
sg42
S'Text'
p2215
sg19
S''
sg15
g2214
sg28
Nsg44
S"The user's email address"
p2216
stRp2217
ag3
(g4
g5
(dp2218
g14
S''
sg40
S'jobView'
p2219
sg18
S''
sg42
S'Text'
p2220
sg19
S''
sg15
g2219
sg28
Nsg44
S"The user's job view"
p2221
stRp2222
ag3
(g4
g5
(dp2223
g14
S''
sg40
S'updateDate'
p2224
sg18
S''
sg42
S'Date'
p2225
sg19
S''
sg15
g2224
sg28
Nsg44
S'The date/time the user record was last updated'
p2226
stRp2227
ag3
(g4
g5
(dp2228
g14
S''
sg40
S'accessDate'
p2229
sg18
S''
sg42
S'Date'
p2230
sg19
S''
sg15
g2229
sg28
Nsg44
S'The date/time the user record was last used'
p2231
stRp2232
ag3
(g4
g5
(dp2233
g14
S''
sg40
S'fullName'
p2234
sg18
S''
sg42
S'Text'
p2235
sg19
S''
sg15
g2234
sg28
Nsg44
S"The user's full name"
p2236
stRp2237
ag3
(g4
g5
(dp2238
g14
S''
sg40
S'password'
p2239
sg18
S''
sg42
S'Password'
p2240
sg19
S''
sg15
g2239
sg28
Nsg44
S'The MD5 hash of the users (encrypted) password'
p2241
stRp2242
ag3
(g4
g5
(dp2243
g14
S''
sg40
S'strength'
p2244
sg18
S''
sg42
S'Strength'
p2245
sg19
S''
sg15
g2244
sg28
Nsg44
S"Measure of the strength of the user's password"
p2246
stRp2247
ag3
(g4
g5
(dp2248
g14
S''
sg40
S'ticket'
p2249
sg18
S''
sg42
S'Password'
p2250
sg19
S''
sg15
g2249
sg28
Nsg44
S"'p4 login' ticket for this user"
p2251
stRp2252
ag3
(g4
g5
(dp2253
g14
S''
sg40
S'endDate'
p2254
sg18
S''
sg42
S'Date'
p2255
sg19
S''
sg15
g2254
sg28
Nsg44
S"Date/time the user's ticket expires"
p2256
stRp2257
ag3
(g4
g5
(dp2258
g14
S''
sg40
S'type'
p2259
sg18
S''
sg42
S'UserLevel'
p2260
sg19
S''
sg15
g2259
sg28
Nsg44
S'Type of user'
p2261
stRp2262
ag3
(g4
g5
(dp2263
g14
S''
sg40
S'passDate'
p2264
sg18
S''
sg42
S'Date'
p2265
sg19
S''
sg15
g2264
sg28
Nsg44
S'Date password was last changed'
p2266
stRp2267
ag3
(g4
g5
(dp2268
g14
S''
sg40
S'passExpire'
p2269
sg18
S''
sg42
S'Date'
p2270
sg19
S''
sg15
g2269
sg28
Nsg44
S'Date of password expiration'
p2271
stRp2272
ag3
(g4
g5
(dp2273
g14
S''
sg40
S'attempts'
p2274
sg18
S''
sg42
S'Date'
p2275
sg19
S''
sg15
g2274
sg28
Nsg44
S'Failed login attempts'
p2276
stRp2277
ag3
(g4
g5
(dp2278
g14
S''
sg40
S'auth'
p2279
sg18
S''
sg42
S'Int'
p2280
sg19
S''
sg15
g2279
sg28
Nsg44
S'Authentication method for user; 0=perforce, 1=ldap'
p2281
stRp2282
atRp2283
sg68
g2196
sg69
S'7'
sg70
g71
sg44
S"Used by replica server's to store login information"
p2284
sg42
S'User'
p2285
sg74
S'11'
p2286
sg40
S'db.user.rp'
p2287
stRp2288
sS'locks'
p2289
g3
(g4
g5
(dp2290
g7
S'depotFile, client'
p2291
sg9
g3
(g10
g11
(lp2292
g3
(g4
g5
(dp2293
g14
S''
sg15
g16
sg17
g16
sg18
S''
sg19
S''
sg20
g21
sg22
g23
stRp2294
ag3
(g4
g5
(dp2295
g14
S''
sg17
g26
sg18
S''
sg20
g27
sg19
S''
sg15
g26
sg28
Nsg22
g29
stRp2296
ag3
(g4
g5
(dp2297
g14
S''
sg17
g32
sg18
S''
sg20
g21
sg19
S''
sg15
g32
sg28
Nsg22
g33
stRp2298
ag3
(g4
g5
(dp2299
g14
S''
sg17
g36
sg18
S''
sg20
g27
sg19
S''
sg15
g36
sg28
Nsg22
g37
stRp2300
ag3
(g4
g5
(dp2301
g14
S''
sg40
S'depotFile'
p2302
sg18
S''
sg42
S'File'
p2303
sg19
S''
sg15
g2302
sg28
Nsg44
S'File in depot'
p2304
stRp2305
ag3
(g4
g5
(dp2306
g14
S''
sg40
S'client'
p2307
sg18
S''
sg42
S'Domain'
p2308
sg19
S''
sg15
g2307
sg28
Nsg44
S'Domain (client) in which file is open'
p2309
stRp2310
ag3
(g4
g5
(dp2311
g14
S''
sg40
S'user'
p2312
sg18
S''
sg42
S'User'
p2313
sg19
S''
sg15
g2312
sg28
Nsg44
S'User who presently has the file open'
p2314
stRp2315
ag3
(g4
g5
(dp2316
g14
S''
sg40
S'action'
p2317
sg18
S''
sg42
S'Action'
p2318
sg19
S''
sg15
g2317
sg28
Nsg44
S'Action file is open for: add, edit, delete, branch,\n\t\t    integrate, or import'
p2319
stRp2320
ag3
(g4
g5
(dp2321
g14
S''
sg40
S'isLocked'
p2322
sg18
S''
sg42
S'Int'
p2323
sg19
S''
sg15
g2322
sg28
Nsg44
S'Flag: 0 for unlocked, 1 for locked'
p2324
stRp2325
ag3
(g4
g5
(dp2326
g14
S''
sg40
S'change'
p2327
sg18
S''
sg42
S'Int'
p2328
sg19
S''
sg15
g2327
sg28
Nsg44
S'Changelist in which the revision is open: 0 for the\n\t\t    default changelist'
p2329
stRp2330
atRp2331
sg68
g2289
sg69
S'2'
sg70
g71
sg44
S'Locked/Unlocked files'
p2332
sg42
S'Locks'
p2333
sg74
S'45'
p2334
sg40
S'db.locks'
p2335
stRp2336
sS'have'
p2337
g3
(g4
g5
(dp2338
g7
S'clientFile'
p2339
sg9
g3
(g10
g11
(lp2340
g3
(g4
g5
(dp2341
g14
S''
sg15
g16
sg17
g16
sg18
S''
sg19
S''
sg20
g21
sg22
g23
stRp2342
ag3
(g4
g5
(dp2343
g14
S''
sg17
g26
sg18
S''
sg20
g27
sg19
S''
sg15
g26
sg28
Nsg22
g29
stRp2344
ag3
(g4
g5
(dp2345
g14
S''
sg17
g32
sg18
S''
sg20
g21
sg19
S''
sg15
g32
sg28
Nsg22
g33
stRp2346
ag3
(g4
g5
(dp2347
g14
S''
sg17
g36
sg18
S''
sg20
g27
sg19
S''
sg15
g36
sg28
Nsg22
g37
stRp2348
ag3
(g4
g5
(dp2349
g14
S''
sg40
g339
sg18
S''
sg42
g340
sg19
S''
sg15
g339
sg28
Nsg44
g341
stRp2350
ag3
(g4
g5
(dp2351
g14
S''
sg40
g344
sg18
S''
sg42
g345
sg19
S''
sg15
g344
sg28
Nsg44
g346
stRp2352
ag3
(g4
g5
(dp2353
g14
S''
sg40
g349
sg18
S''
sg42
g350
sg19
S''
sg15
g349
sg28
Nsg44
g351
stRp2354
ag3
(g4
g5
(dp2355
g14
S''
sg40
g354
sg18
S''
sg42
g355
sg19
S''
sg15
g354
sg28
Nsg44
g356
stRp2356
ag3
(g4
g5
(dp2357
g14
S''
sg40
g359
sg18
S''
sg42
g360
sg19
S''
sg15
g359
sg28
Nsg44
g361
stRp2358
atRp2359
sg68
g2337
sg69
S'3'
sg70
g71
sg44
S"Contains the 'have-list' for all clients"
p2360
sg42
S'Have'
p2361
sg74
S'28'
p2362
sg40
S'db.have'
p2363
stRp2364
sS'refhist'
p2365
g3
(g4
g5
(dp2366
g7
S'repo, name, type, action, date, user, ref'
p2367
sg9
g3
(g10
g11
(lp2368
g3
(g4
g5
(dp2369
g14
S''
sg15
g16
sg17
g16
sg18
S''
sg19
S''
sg20
g21
sg22
g23
stRp2370
ag3
(g4
g5
(dp2371
g14
S''
sg17
g26
sg18
S''
sg20
g27
sg19
S''
sg15
g26
sg28
Nsg22
g29
stRp2372
ag3
(g4
g5
(dp2373
g14
S''
sg17
g32
sg18
S''
sg20
g21
sg19
S''
sg15
g32
sg28
Nsg22
g33
stRp2374
ag3
(g4
g5
(dp2375
g14
S''
sg17
g36
sg18
S''
sg20
g27
sg19
S''
sg15
g36
sg28
Nsg22
g37
stRp2376
ag3
(g4
g5
(dp2377
g14
S''
sg40
S'repo'
p2378
sg18
S''
sg42
S'String'
p2379
sg19
S''
sg15
g2378
sg28
Nsg44
S'Repository name'
p2380
stRp2381
ag3
(g4
g5
(dp2382
g14
S''
sg40
S'name'
p2383
sg18
S''
sg42
S'String'
p2384
sg19
S''
sg15
g2383
sg28
Nsg44
S'Reference name'
p2385
stRp2386
ag3
(g4
g5
(dp2387
g14
S''
sg40
S'type'
p2388
sg18
S''
sg42
S'RefType'
p2389
sg19
S''
sg15
g2388
sg28
Nsg44
S'Reference type'
p2390
stRp2391
ag3
(g4
g5
(dp2392
g14
S''
sg40
S'action'
p2393
sg18
S''
sg42
S'RefAction'
p2394
sg19
S''
sg15
g2393
sg28
Nsg44
S'Reference action'
p2395
stRp2396
ag3
(g4
g5
(dp2397
g14
S''
sg40
S'date'
p2398
sg18
S''
sg42
S'Date'
p2399
sg19
S''
sg15
g2398
sg28
Nsg44
S'The date the reference was updated'
p2400
stRp2401
ag3
(g4
g5
(dp2402
g14
S''
sg40
S'user'
p2403
sg18
S''
sg42
S'User'
p2404
sg19
S''
sg15
g2403
sg28
Nsg44
S'The user who made the reference update'
p2405
stRp2406
ag3
(g4
g5
(dp2407
g14
S''
sg40
S'ref'
p2408
sg18
S''
sg42
S'SHA1'
p2409
sg19
S''
sg15
g2408
sg28
Nsg44
S'Encoded reference value'
p2410
stRp2411
ag3
(g4
g5
(dp2412
g14
S''
sg40
S'symref'
p2413
sg18
S''
sg42
S'String'
p2414
sg19
S''
sg15
g2413
sg28
Nsg44
S'Symbolic reference'
p2415
stRp2416
atRp2417
sg68
g2365
sg69
S'0'
sg70
g71
sg44
S'Reference history for graph depots'
p2418
sg42
S'RefHist'
p2419
sg74
S'58'
p2420
sg40
S'db.refhist'
p2421
stRp2422
sS'rdblbr'
p2423
g3
(g4
g5
(dp2424
g40
S'rdb.lbr'
p2425
sg68
g2423
sg9
g3
(g10
g11
(lp2426
g3
(g4
g5
(dp2427
g14
S''
sg15
g16
sg17
g16
sg18
S''
sg19
S''
sg20
g21
sg22
g23
stRp2428
ag3
(g4
g5
(dp2429
g14
S''
sg17
g26
sg18
S''
sg20
g27
sg19
S''
sg15
g26
sg28
Nsg22
g29
stRp2430
ag3
(g4
g5
(dp2431
g14
S''
sg17
g32
sg18
S''
sg20
g21
sg19
S''
sg15
g32
sg28
Nsg22
g33
stRp2432
ag3
(g4
g5
(dp2433
g14
S''
sg17
g36
sg18
S''
sg20
g27
sg19
S''
sg15
g36
sg28
Nsg22
g37
stRp2434
ag3
(g4
g5
(dp2435
g14
S''
sg40
S'depotFile'
p2436
sg18
S''
sg42
S'File'
p2437
sg19
S''
sg15
g2436
sg28
Nsg44
S'The file name'
p2438
stRp2439
ag3
(g4
g5
(dp2440
g14
S''
sg40
S'lbrRev'
p2441
sg18
S''
sg42
S'String'
p2442
sg19
S''
sg15
g2441
sg28
Nsg44
S'The librarian revision'
p2443
stRp2444
ag3
(g4
g5
(dp2445
g14
S''
sg40
S'type'
p2446
sg18
S''
sg42
S'String'
p2447
sg19
S''
sg15
g2446
sg28
Nsg44
S'The file type of the revision'
p2448
stRp2449
ag3
(g4
g5
(dp2450
g14
S''
sg40
S'status'
p2451
sg18
S''
sg42
S'PullStatus'
p2452
sg19
S''
sg15
g2451
sg28
Nsg44
S'The status of the archive transfer'
p2453
stRp2454
ag3
(g4
g5
(dp2455
g14
S''
sg40
S'action'
p2456
sg18
S''
sg42
S'Action'
p2457
sg19
S''
sg15
g2456
sg28
Nsg44
S'The action that created the revision'
p2458
stRp2459
ag3
(g4
g5
(dp2460
g14
S''
sg40
S'digest'
p2461
sg18
S''
sg42
S'Digest'
p2462
sg19
S''
sg15
g2461
sg28
Nsg44
S'The MD5 digest of the revision'
p2463
stRp2464
ag3
(g4
g5
(dp2465
g14
S''
sg40
S'size'
p2466
sg18
S''
sg42
S'FileSize'
p2467
sg19
S''
sg15
g2466
sg28
Nsg44
S'The size of the file in bytes'
p2468
stRp2469
ag3
(g4
g5
(dp2470
g14
S''
sg40
S'change'
p2471
sg18
S''
sg42
S'Change'
p2472
sg19
S''
sg15
g2471
sg28
Nsg44
S'The changelist that created the revision'
p2473
stRp2474
ag3
(g4
g5
(dp2475
g14
S''
sg40
S'lbrDate'
p2476
sg18
S''
sg42
S'Date'
p2477
sg19
S''
sg15
g2476
sg28
Nsg44
S'Librarian date'
p2478
stRp2479
ag3
(g4
g5
(dp2480
g14
S''
sg40
S'lbrModTime'
p2481
sg18
S''
sg42
S'Date'
p2482
sg19
S''
sg15
g2481
sg28
Nsg44
S'Librarian modtime'
p2483
stRp2484
ag3
(g4
g5
(dp2485
g14
S''
sg40
S'pid'
p2486
sg18
S''
sg42
S'Int'
p2487
sg19
S''
sg15
g2486
sg28
Nsg44
S'The process id (PID) of the pull process'
p2488
stRp2489
ag3
(g4
g5
(dp2490
g14
S''
sg40
S'requestTime'
p2491
sg18
S''
sg42
S'Date'
p2492
sg19
S''
sg15
g2491
sg28
Nsg44
S'Pull request time'
p2493
stRp2494
ag3
(g4
g5
(dp2495
g14
S''
sg40
S'retries'
p2496
sg18
S''
sg42
S'Int'
p2497
sg19
S''
sg15
g2496
sg28
Nsg44
S'The number of retries that have occurred after transfer error'
p2498
stRp2499
ag3
(g4
g5
(dp2500
g14
S''
sg40
S'transferError'
p2501
sg18
S''
sg42
S'String'
p2502
sg19
S''
sg15
g2501
sg28
Nsg44
S'The error message for a failed transfer'
p2503
stRp2504
atRp2505
sg70
g71
sg42
S'ReplicaArchiveTransfer'
p2506
sg44
S'Replica server pending archive transfer table'
p2507
stRp2508
sS'bodresolve'
p2509
g3
(g4
g5
(dp2510
g7
S'type, client, toKey, attr, fromKey, fromChange'
p2511
sg9
g3
(g10
g11
(lp2512
g3
(g4
g5
(dp2513
g14
S''
sg15
g16
sg17
g16
sg18
S''
sg19
S''
sg20
g21
sg22
g23
stRp2514
ag3
(g4
g5
(dp2515
g14
S''
sg17
g26
sg18
S''
sg20
g27
sg19
S''
sg15
g26
sg28
Nsg22
g29
stRp2516
ag3
(g4
g5
(dp2517
g14
S''
sg17
g32
sg18
S''
sg20
g21
sg19
S''
sg15
g32
sg28
Nsg22
g33
stRp2518
ag3
(g4
g5
(dp2519
g14
S''
sg17
g36
sg18
S''
sg20
g27
sg19
S''
sg15
g36
sg28
Nsg22
g37
stRp2520
ag3
(g4
g5
(dp2521
g14
S''
sg40
S'type'
p2522
sg18
S''
sg42
S'SpecType'
p2523
sg19
S''
sg15
g2522
sg28
Nsg44
S'The spec type'
p2524
stRp2525
ag3
(g4
g5
(dp2526
g14
S''
sg40
S'client'
p2527
sg18
S''
sg42
S'Domain'
p2528
sg19
S''
sg15
g2527
sg28
Nsg44
S'The client name'
p2529
stRp2530
ag3
(g4
g5
(dp2531
g14
S''
sg40
S'toKey'
p2532
sg18
S''
sg42
S'String'
p2533
sg19
S''
sg15
g2532
sg28
Nsg44
S'To Key'
p2534
stRp2535
ag3
(g4
g5
(dp2536
g14
S''
sg40
S'attr'
p2537
sg18
S''
sg42
S'Int'
p2538
sg19
S''
sg15
g2537
sg28
Nsg44
S'The attribute value'
p2539
stRp2540
ag3
(g4
g5
(dp2541
g14
S''
sg40
S'fromKey'
p2542
sg18
S''
sg42
S'String'
p2543
sg19
S''
sg15
g2542
sg28
Nsg44
S'From key'
p2544
stRp2545
ag3
(g4
g5
(dp2546
g14
S''
sg40
S'fromChange'
p2547
sg18
S''
sg42
S'Change'
p2548
sg19
S''
sg15
g2547
sg28
Nsg44
S'From change'
p2549
stRp2550
ag3
(g4
g5
(dp2551
g14
S''
sg40
S'baseKey'
p2552
sg18
S''
sg42
S'String'
p2553
sg19
S''
sg15
g2552
sg28
Nsg44
S'Base Key'
p2554
stRp2555
ag3
(g4
g5
(dp2556
g14
S''
sg40
S'baseChange'
p2557
sg18
S''
sg42
S'Change'
p2558
sg19
S''
sg15
g2557
sg28
Nsg44
S'Base change'
p2559
stRp2560
atRp2561
sg68
g2509
sg69
S'0'
sg70
g71
sg44
S'Resolve data for stream specifications'
p2562
sg42
S'BodyResolve'
p2563
sg74
S'67'
p2564
sg40
S'db.bodresolve'
p2565
stRp2566
sS'review'
p2567
g3
(g4
g5
(dp2568
g7
S'user, seq'
p2569
sg9
g3
(g10
g11
(lp2570
g3
(g4
g5
(dp2571
g14
S''
sg15
g16
sg17
g16
sg18
S''
sg19
S''
sg20
g21
sg22
g23
stRp2572
ag3
(g4
g5
(dp2573
g14
S''
sg17
g26
sg18
S''
sg20
g27
sg19
S''
sg15
g26
sg28
Nsg22
g29
stRp2574
ag3
(g4
g5
(dp2575
g14
S''
sg17
g32
sg18
S''
sg20
g21
sg19
S''
sg15
g32
sg28
Nsg22
g33
stRp2576
ag3
(g4
g5
(dp2577
g14
S''
sg17
g36
sg18
S''
sg20
g27
sg19
S''
sg15
g36
sg28
Nsg22
g37
stRp2578
ag3
(g4
g5
(dp2579
g14
S''
sg40
S'user'
p2580
sg18
S''
sg42
S'User'
p2581
sg19
S''
sg15
g2580
sg28
Nsg44
S'A user name'
p2582
stRp2583
ag3
(g4
g5
(dp2584
g14
S''
sg40
S'seq'
p2585
sg18
S''
sg42
S'Int'
p2586
sg19
S''
sg15
g2585
sg28
Nsg44
S'Sequence number: used for ordering multi-line views'
p2587
stRp2588
ag3
(g4
g5
(dp2589
g14
S''
sg40
S'mapFlag'
p2590
sg18
S''
sg42
S'MapFlag'
p2591
sg19
S''
sg15
g2590
sg28
Nsg44
S'Type of mapping'
p2592
stRp2593
ag3
(g4
g5
(dp2594
g14
S''
sg40
S'depotFile'
p2595
sg18
S''
sg42
S'Mapping'
p2596
sg19
S''
sg15
g2595
sg28
Nsg44
S'The files to be reviewed'
p2597
stRp2598
ag3
(g4
g5
(dp2599
g14
S''
sg40
S'type'
p2600
sg18
S''
sg42
S'Reviewer'
p2601
sg19
S''
sg15
g2600
sg28
Nsg44
S'Type of reviewer'
p2602
stRp2603
atRp2604
sg68
g2567
sg69
S'1'
sg70
g71
sg44
S"User's review mappings"
p2605
sg42
S'Review'
p2606
sg74
S'24'
p2607
sg40
S'db.review'
p2608
stRp2609
sS'rev'
p2610
g3
(g4
g5
(dp2611
g7
S'depotFile, depotRev'
p2612
sg9
g3
(g10
g11
(lp2613
g3
(g4
g5
(dp2614
g14
S''
sg15
g16
sg17
g16
sg18
S''
sg19
S''
sg20
g21
sg22
g23
stRp2615
ag3
(g4
g5
(dp2616
g14
S''
sg17
g26
sg18
S''
sg20
g27
sg19
S''
sg15
g26
sg28
Nsg22
g29
stRp2617
ag3
(g4
g5
(dp2618
g14
S''
sg17
g32
sg18
S''
sg20
g21
sg19
S''
sg15
g32
sg28
Nsg22
g33
stRp2619
ag3
(g4
g5
(dp2620
g14
S''
sg17
g36
sg18
S''
sg20
g27
sg19
S''
sg15
g36
sg28
Nsg22
g37
stRp2621
ag3
(g4
g5
(dp2622
g14
S''
sg40
g90
sg18
S''
sg42
g91
sg19
S''
sg15
g90
sg28
Nsg44
g92
stRp2623
ag3
(g4
g5
(dp2624
g14
S''
sg40
g95
sg18
S''
sg42
g96
sg19
S''
sg15
g95
sg28
Nsg44
g97
stRp2625
ag3
(g4
g5
(dp2626
g14
S''
sg40
g100
sg18
S''
sg42
g101
sg19
S''
sg15
g100
sg28
Nsg44
g102
stRp2627
ag3
(g4
g5
(dp2628
g14
S''
sg40
g105
sg18
S''
sg42
g106
sg19
S''
sg15
g105
sg28
Nsg44
g107
stRp2629
ag3
(g4
g5
(dp2630
g14
S''
sg40
g110
sg18
S''
sg42
g111
sg19
S''
sg15
g110
sg28
Nsg44
g112
stRp2631
ag3
(g4
g5
(dp2632
g14
S''
sg40
g115
sg18
S''
sg42
g116
sg19
S''
sg15
g115
sg28
Nsg44
g117
stRp2633
ag3
(g4
g5
(dp2634
g14
S''
sg40
g120
sg18
S''
sg42
g121
sg19
S''
sg15
g120
sg28
Nsg44
g122
stRp2635
ag3
(g4
g5
(dp2636
g14
S''
sg40
g125
sg18
S''
sg42
g126
sg19
S''
sg15
g125
sg28
Nsg44
g127
stRp2637
ag3
(g4
g5
(dp2638
g14
S''
sg40
g130
sg18
S''
sg42
g131
sg19
S''
sg15
g130
sg28
Nsg44
g132
stRp2639
ag3
(g4
g5
(dp2640
g14
S''
sg40
g135
sg18
S''
sg42
g136
sg19
S''
sg15
g135
sg28
Nsg44
g137
stRp2641
ag3
(g4
g5
(dp2642
g14
S''
sg40
g140
sg18
S''
sg42
g141
sg19
S''
sg15
g140
sg28
Nsg44
g142
stRp2643
ag3
(g4
g5
(dp2644
g14
S''
sg40
g145
sg18
S''
sg42
g146
sg19
S''
sg15
g145
sg28
Nsg44
g147
stRp2645
ag3
(g4
g5
(dp2646
g14
S''
sg40
g150
sg18
S''
sg42
g151
sg19
S''
sg15
g150
sg28
Nsg44
g152
stRp2647
ag3
(g4
g5
(dp2648
g14
S''
sg40
g155
sg18
S''
sg42
g156
sg19
S''
sg15
g155
sg28
Nsg44
g157
stRp2649
atRp2650
sg68
g2610
sg69
S'9'
sg70
g71
sg44
S'Revision records'
p2651
sg42
S'Rev'
p2652
sg74
S'43'
p2653
sg40
S'db.rev'
p2654
stRp2655
sS'bodtextcx'
p2656
g3
(g4
g5
(dp2657
g7
S'type, key, change, attr'
p2658
sg9
g3
(g10
g11
(lp2659
g3
(g4
g5
(dp2660
g14
S''
sg15
g16
sg17
g16
sg18
S''
sg19
S''
sg20
g21
sg22
g23
stRp2661
ag3
(g4
g5
(dp2662
g14
S''
sg17
g26
sg18
S''
sg20
g27
sg19
S''
sg15
g26
sg28
Nsg22
g29
stRp2663
ag3
(g4
g5
(dp2664
g14
S''
sg17
g32
sg18
S''
sg20
g21
sg19
S''
sg15
g32
sg28
Nsg22
g33
stRp2665
ag3
(g4
g5
(dp2666
g14
S''
sg17
g36
sg18
S''
sg20
g27
sg19
S''
sg15
g36
sg28
Nsg22
g37
stRp2667
ag3
(g4
g5
(dp2668
g14
S''
sg40
S'type'
p2669
sg18
S''
sg42
S'Int'
p2670
sg19
S''
sg15
g2669
sg28
Nsg44
S'The type of spec'
p2671
stRp2672
ag3
(g4
g5
(dp2673
g14
S''
sg40
S'key'
p2674
sg18
S''
sg42
S'String'
p2675
sg19
S''
sg15
g2674
sg28
Nsg44
S'The spec to which this attribute belongs'
p2676
stRp2677
ag3
(g4
g5
(dp2678
g14
S''
sg40
S'change'
p2679
sg18
S''
sg42
S'Change'
p2680
sg19
S''
sg15
g2679
sg28
Nsg44
S'The change to which this attribute belongs'
p2681
stRp2682
ag3
(g4
g5
(dp2683
g14
S''
sg40
S'attr'
p2684
sg18
S''
sg42
S'Int'
p2685
sg19
S''
sg15
g2684
sg28
Nsg44
S'The attribute number of this attribute'
p2686
stRp2687
ag3
(g4
g5
(dp2688
g14
S''
sg40
S'text'
p2689
sg18
S''
sg42
S'Text'
p2690
sg19
S''
sg15
g2689
sg28
Nsg44
S'The attribute value'
p2691
stRp2692
atRp2693
sg68
g2656
sg69
S'0'
sg70
g71
sg44
S'Versioned openable spec fields (for future use)'
p2694
sg42
S'BodyTextCx'
p2695
sg74
S'69'
p2696
sg40
S'db.bodtextcx'
p2697
stRp2698
sS'label'
p2699
g3
(g4
g5
(dp2700
g7
S'name, depotFile'
p2701
sg9
g3
(g10
g11
(lp2702
g3
(g4
g5
(dp2703
g14
S''
sg15
g16
sg17
g16
sg18
S''
sg19
S''
sg20
g21
sg22
g23
stRp2704
ag3
(g4
g5
(dp2705
g14
S''
sg17
g26
sg18
S''
sg20
g27
sg19
S''
sg15
g26
sg28
Nsg22
g29
stRp2706
ag3
(g4
g5
(dp2707
g14
S''
sg17
g32
sg18
S''
sg20
g21
sg19
S''
sg15
g32
sg28
Nsg22
g33
stRp2708
ag3
(g4
g5
(dp2709
g14
S''
sg17
g36
sg18
S''
sg20
g27
sg19
S''
sg15
g36
sg28
Nsg22
g37
stRp2710
ag3
(g4
g5
(dp2711
g14
S''
sg40
S'name'
p2712
sg18
S''
sg42
S'Domain'
p2713
sg19
S''
sg15
g2712
sg28
Nsg44
S'Name of the label'
p2714
stRp2715
ag3
(g4
g5
(dp2716
g14
S''
sg40
S'depotFile'
p2717
sg18
S''
sg42
S'File'
p2718
sg19
S''
sg15
g2717
sg28
Nsg44
S'File name'
p2719
stRp2720
ag3
(g4
g5
(dp2721
g14
S''
sg40
S'haveRev'
p2722
sg18
S''
sg42
S'Rev'
p2723
sg19
S''
sg15
g2722
sg28
Nsg44
S'The revision of the file in the label'
p2724
stRp2725
atRp2726
sg68
g2699
sg69
S'0'
sg70
g71
sg44
S'Revisions of files in labels'
p2727
sg42
S'Label'
p2728
sg74
S'25'
p2729
sg40
S'db.label'
p2730
stRp2731
sS'revbx'
p2732
g3
(g4
g5
(dp2733
g7
S'depotFile, depotRev'
p2734
sg9
g3
(g10
g11
(lp2735
g3
(g4
g5
(dp2736
g14
S''
sg15
g16
sg17
g16
sg18
S''
sg19
S''
sg20
g21
sg22
g23
stRp2737
ag3
(g4
g5
(dp2738
g14
S''
sg17
g26
sg18
S''
sg20
g27
sg19
S''
sg15
g26
sg28
Nsg22
g29
stRp2739
ag3
(g4
g5
(dp2740
g14
S''
sg17
g32
sg18
S''
sg20
g21
sg19
S''
sg15
g32
sg28
Nsg22
g33
stRp2741
ag3
(g4
g5
(dp2742
g14
S''
sg17
g36
sg18
S''
sg20
g27
sg19
S''
sg15
g36
sg28
Nsg22
g37
stRp2743
ag3
(g4
g5
(dp2744
g14
S''
sg40
g90
sg18
S''
sg42
g91
sg19
S''
sg15
g90
sg28
Nsg44
g92
stRp2745
ag3
(g4
g5
(dp2746
g14
S''
sg40
g95
sg18
S''
sg42
g96
sg19
S''
sg15
g95
sg28
Nsg44
g97
stRp2747
ag3
(g4
g5
(dp2748
g14
S''
sg40
g100
sg18
S''
sg42
g101
sg19
S''
sg15
g100
sg28
Nsg44
g102
stRp2749
ag3
(g4
g5
(dp2750
g14
S''
sg40
g105
sg18
S''
sg42
g106
sg19
S''
sg15
g105
sg28
Nsg44
g107
stRp2751
ag3
(g4
g5
(dp2752
g14
S''
sg40
g110
sg18
S''
sg42
g111
sg19
S''
sg15
g110
sg28
Nsg44
g112
stRp2753
ag3
(g4
g5
(dp2754
g14
S''
sg40
g115
sg18
S''
sg42
g116
sg19
S''
sg15
g115
sg28
Nsg44
g117
stRp2755
ag3
(g4
g5
(dp2756
g14
S''
sg40
g120
sg18
S''
sg42
g121
sg19
S''
sg15
g120
sg28
Nsg44
g122
stRp2757
ag3
(g4
g5
(dp2758
g14
S''
sg40
g125
sg18
S''
sg42
g126
sg19
S''
sg15
g125
sg28
Nsg44
g127
stRp2759
ag3
(g4
g5
(dp2760
g14
S''
sg40
g130
sg18
S''
sg42
g131
sg19
S''
sg15
g130
sg28
Nsg44
g132
stRp2761
ag3
(g4
g5
(dp2762
g14
S''
sg40
g135
sg18
S''
sg42
g136
sg19
S''
sg15
g135
sg28
Nsg44
g137
stRp2763
ag3
(g4
g5
(dp2764
g14
S''
sg40
g140
sg18
S''
sg42
g141
sg19
S''
sg15
g140
sg28
Nsg44
g142
stRp2765
ag3
(g4
g5
(dp2766
g14
S''
sg40
g145
sg18
S''
sg42
g146
sg19
S''
sg15
g145
sg28
Nsg44
g147
stRp2767
ag3
(g4
g5
(dp2768
g14
S''
sg40
g150
sg18
S''
sg42
g151
sg19
S''
sg15
g150
sg28
Nsg44
g152
stRp2769
ag3
(g4
g5
(dp2770
g14
S''
sg40
g155
sg18
S''
sg42
g156
sg19
S''
sg15
g155
sg28
Nsg44
g157
stRp2771
atRp2772
sg68
g2732
sg69
S'9'
sg70
g71
sg44
S'Revision records for archived files'
p2773
sg42
S'Rev'
p2774
sg74
S'40'
p2775
sg40
S'db.revbx'
p2776
stRp2777
sS'nameval'
p2778
g3
(g4
g5
(dp2779
g7
S'name'
p2780
sg9
g3
(g10
g11
(lp2781
g3
(g4
g5
(dp2782
g14
S''
sg15
g16
sg17
g16
sg18
S''
sg19
S''
sg20
g21
sg22
g23
stRp2783
ag3
(g4
g5
(dp2784
g14
S''
sg17
g26
sg18
S''
sg20
g27
sg19
S''
sg15
g26
sg28
Nsg22
g29
stRp2785
ag3
(g4
g5
(dp2786
g14
S''
sg17
g32
sg18
S''
sg20
g21
sg19
S''
sg15
g32
sg28
Nsg22
g33
stRp2787
ag3
(g4
g5
(dp2788
g14
S''
sg17
g36
sg18
S''
sg20
g27
sg19
S''
sg15
g36
sg28
Nsg22
g37
stRp2789
ag3
(g4
g5
(dp2790
g14
S''
sg40
S'name'
p2791
sg18
S''
sg42
S'Key'
p2792
sg19
S''
sg15
g2791
sg28
Nsg44
S'Key name'
p2793
stRp2794
ag3
(g4
g5
(dp2795
g14
S''
sg40
S'value'
p2796
sg18
S''
sg42
S'Value'
p2797
sg19
S''
sg15
g2796
sg28
Nsg44
S'Key value'
p2798
stRp2799
atRp2800
sg68
g2778
sg69
S'1'
sg70
g71
sg44
S'A table to store key/value pairs'
p2801
sg42
S'Keys'
p2802
sg74
S'3'
sg40
S'db.nameval'
p2803
stRp2804
sS'template'
p2805
g3
(g4
g5
(dp2806
g7
S'name, change, sequence'
p2807
sg9
g3
(g10
g11
(lp2808
g3
(g4
g5
(dp2809
g14
S''
sg15
g16
sg17
g16
sg18
S''
sg19
S''
sg20
g21
sg22
g23
stRp2810
ag3
(g4
g5
(dp2811
g14
S''
sg17
g26
sg18
S''
sg20
g27
sg19
S''
sg15
g26
sg28
Nsg22
g29
stRp2812
ag3
(g4
g5
(dp2813
g14
S''
sg17
g32
sg18
S''
sg20
g21
sg19
S''
sg15
g32
sg28
Nsg22
g33
stRp2814
ag3
(g4
g5
(dp2815
g14
S''
sg17
g36
sg18
S''
sg20
g27
sg19
S''
sg15
g36
sg28
Nsg22
g37
stRp2816
ag3
(g4
g5
(dp2817
g14
S''
sg40
S'name'
p2818
sg18
S''
sg42
S'Domain'
p2819
sg19
S''
sg15
g2818
sg28
Nsg44
S'Stream name'
p2820
stRp2821
ag3
(g4
g5
(dp2822
g14
S''
sg40
S'change'
p2823
sg18
S''
sg42
S'Change'
p2824
sg19
S''
sg15
g2823
sg28
Nsg44
S'Versioned at change'
p2825
stRp2826
ag3
(g4
g5
(dp2827
g14
S''
sg40
S'seq'
p2828
sg18
S''
sg42
S'Int'
p2829
sg19
S''
sg15
g2828
sg28
Nsg44
S'Sequence (line) number'
p2830
stRp2831
ag3
(g4
g5
(dp2832
g14
S''
sg40
S'parent'
p2833
sg18
S''
sg42
S'Domain'
p2834
sg19
S''
sg15
g2833
sg28
Nsg44
S'Parent stream name'
p2835
stRp2836
ag3
(g4
g5
(dp2837
g14
S''
sg40
S'type'
p2838
sg18
S''
sg42
S'StreamType'
p2839
sg19
S''
sg15
g2838
sg28
Nsg44
S'Type of stream'
p2840
stRp2841
ag3
(g4
g5
(dp2842
g14
S''
sg40
S'path'
p2843
sg18
S''
sg42
S'StreamPathType'
p2844
sg19
S''
sg15
g2843
sg28
Nsg44
S'Stream path type'
p2845
stRp2846
ag3
(g4
g5
(dp2847
g14
S''
sg40
S'viewFile'
p2848
sg18
S''
sg42
S'Mapping'
p2849
sg19
S''
sg15
g2848
sg28
Nsg44
S'View file (left hand side of path)'
p2850
stRp2851
ag3
(g4
g5
(dp2852
g14
S''
sg40
S'depotFile'
p2853
sg18
S''
sg42
S'Mapping'
p2854
sg19
S''
sg15
g2853
sg28
Nsg44
S'Depot file (right hand side of path)'
p2855
stRp2856
ag3
(g4
g5
(dp2857
g14
S''
sg40
S'changeMap'
p2858
sg18
S''
sg42
S'Value'
p2859
sg19
S''
sg15
g2858
sg28
Nsg44
S"Stream 'import' path changelist specifier. The changelist\n\t\t\tlimits in effect for a given client are displayed in a\n\t    \tread-only client spec field called 'ChangeView'"
p2860
stRp2861
atRp2862
sg68
g2805
sg69
S'2'
sg70
g71
sg44
S'Streams templates'
p2863
sg42
S'Template'
p2864
sg74
S'18'
p2865
sg40
S'db.template'
p2866
stRp2867
sS'haverp'
p2868
g3
(g4
g5
(dp2869
g7
S'clientFile depotFile haveRev'
p2870
sg9
g3
(g10
g11
(lp2871
g3
(g4
g5
(dp2872
g14
S''
sg15
g16
sg17
g16
sg18
S''
sg19
S''
sg20
g21
sg22
g23
stRp2873
ag3
(g4
g5
(dp2874
g14
S''
sg17
g26
sg18
S''
sg20
g27
sg19
S''
sg15
g26
sg28
Nsg22
g29
stRp2875
ag3
(g4
g5
(dp2876
g14
S''
sg17
g32
sg18
S''
sg20
g21
sg19
S''
sg15
g32
sg28
Nsg22
g33
stRp2877
ag3
(g4
g5
(dp2878
g14
S''
sg17
g36
sg18
S''
sg20
g27
sg19
S''
sg15
g36
sg28
Nsg22
g37
stRp2879
ag3
(g4
g5
(dp2880
g14
S''
sg40
g339
sg18
S''
sg42
g340
sg19
S''
sg15
g339
sg28
Nsg44
g341
stRp2881
ag3
(g4
g5
(dp2882
g14
S''
sg40
g344
sg18
S''
sg42
g345
sg19
S''
sg15
g344
sg28
Nsg44
g346
stRp2883
ag3
(g4
g5
(dp2884
g14
S''
sg40
g349
sg18
S''
sg42
g350
sg19
S''
sg15
g349
sg28
Nsg44
g351
stRp2885
ag3
(g4
g5
(dp2886
g14
S''
sg40
g354
sg18
S''
sg42
g355
sg19
S''
sg15
g354
sg28
Nsg44
g356
stRp2887
ag3
(g4
g5
(dp2888
g14
S''
sg40
g359
sg18
S''
sg42
g360
sg19
S''
sg15
g359
sg28
Nsg44
g361
stRp2889
atRp2890
sg68
g2868
sg69
S'3'
sg70
g71
sg44
S"Contains the 'have-list' for clients of build-server replicas"
p2891
sg42
S'Have'
p2892
sg74
S'26'
p2893
sg40
S'db.have.rp'
p2894
stRp2895
sS'depot'
p2896
g3
(g4
g5
(dp2897
g7
S'name'
p2898
sg9
g3
(g10
g11
(lp2899
g3
(g4
g5
(dp2900
g14
S''
sg15
g16
sg17
g16
sg18
S''
sg19
S''
sg20
g21
sg22
g23
stRp2901
ag3
(g4
g5
(dp2902
g14
S''
sg17
g26
sg18
S''
sg20
g27
sg19
S''
sg15
g26
sg28
Nsg22
g29
stRp2903
ag3
(g4
g5
(dp2904
g14
S''
sg17
g32
sg18
S''
sg20
g21
sg19
S''
sg15
g32
sg28
Nsg22
g33
stRp2905
ag3
(g4
g5
(dp2906
g14
S''
sg17
g36
sg18
S''
sg20
g27
sg19
S''
sg15
g36
sg28
Nsg22
g37
stRp2907
ag3
(g4
g5
(dp2908
g14
S''
sg40
S'name'
p2909
sg18
S''
sg42
S'Domain'
p2910
sg19
S''
sg15
g2909
sg28
Nsg44
S'Depot name'
p2911
stRp2912
ag3
(g4
g5
(dp2913
g14
S''
sg40
S'type'
p2914
sg18
S''
sg42
S'DepotType'
p2915
sg19
S''
sg15
g2914
sg28
Nsg44
S'Type of depot'
p2916
stRp2917
ag3
(g4
g5
(dp2918
g14
S''
sg40
S'extra'
p2919
sg18
S''
sg42
S'Text'
p2920
sg19
S''
sg15
g2919
sg28
Nsg44
S'For remote depots, the P4PORT address of the remote server.\n\t\t    For spec depots, the field contains a suffix to append to \n\t\t    the filename.'
p2921
stRp2922
ag3
(g4
g5
(dp2923
g14
S''
sg40
S'map'
p2924
sg18
S''
sg42
S'Text'
p2925
sg19
S''
sg15
g2924
sg28
Nsg44
S"The depot's map (path translation information).  For local \n\t\t    depots, this will be a path relative to the root directory.\n\t\t    For remote depots, this will be specified in terms of the \n\t\t    remote server's namespace."
p2926
stRp2927
atRp2928
sg68
g2896
sg69
S'1'
sg70
g71
sg44
S'Depot specifications'
p2929
sg42
S'Depot'
p2930
sg74
S'15'
p2931
sg40
S'db.depot'
p2932
stRp2933
sS'ref'
p2934
g3
(g4
g5
(dp2935
g7
S'repo, name, type'
p2936
sg9
g3
(g10
g11
(lp2937
g3
(g4
g5
(dp2938
g14
S''
sg15
g16
sg17
g16
sg18
S''
sg19
S''
sg20
g21
sg22
g23
stRp2939
ag3
(g4
g5
(dp2940
g14
S''
sg17
g26
sg18
S''
sg20
g27
sg19
S''
sg15
g26
sg28
Nsg22
g29
stRp2941
ag3
(g4
g5
(dp2942
g14
S''
sg17
g32
sg18
S''
sg20
g21
sg19
S''
sg15
g32
sg28
Nsg22
g33
stRp2943
ag3
(g4
g5
(dp2944
g14
S''
sg17
g36
sg18
S''
sg20
g27
sg19
S''
sg15
g36
sg28
Nsg22
g37
stRp2945
ag3
(g4
g5
(dp2946
g14
S''
sg40
S'repo'
p2947
sg18
S''
sg42
S'String'
p2948
sg19
S''
sg15
g2947
sg28
Nsg44
S'Repository name'
p2949
stRp2950
ag3
(g4
g5
(dp2951
g14
S''
sg40
S'name'
p2952
sg18
S''
sg42
S'String'
p2953
sg19
S''
sg15
g2952
sg28
Nsg44
S'Reference name'
p2954
stRp2955
ag3
(g4
g5
(dp2956
g14
S''
sg40
S'type'
p2957
sg18
S''
sg42
S'RefType'
p2958
sg19
S''
sg15
g2957
sg28
Nsg44
S'Reference type'
p2959
stRp2960
ag3
(g4
g5
(dp2961
g14
S''
sg40
S'ref'
p2962
sg18
S''
sg42
S'SHA1'
p2963
sg19
S''
sg15
g2962
sg28
Nsg44
S'Target of the reference'
p2964
stRp2965
ag3
(g4
g5
(dp2966
g14
S''
sg40
S'symref'
p2967
sg18
S''
sg42
S'String'
p2968
sg19
S''
sg15
g2967
sg28
Nsg44
S'Target of symbolic reference'
p2969
stRp2970
atRp2971
sg68
g2934
sg69
S'0'
sg70
g71
sg44
S'Reference content for graph depots'
p2972
sg42
S'Ref'
p2973
sg74
S'59'
p2974
sg40
S'db.ref'
p2975
stRp2976
sS'counters'
p2977
g3
(g4
g5
(dp2978
g7
S'name'
p2979
sg9
g3
(g10
g11
(lp2980
g3
(g4
g5
(dp2981
g14
S''
sg15
g16
sg17
g16
sg18
S''
sg19
S''
sg20
g21
sg22
g23
stRp2982
ag3
(g4
g5
(dp2983
g14
S''
sg17
g26
sg18
S''
sg20
g27
sg19
S''
sg15
g26
sg28
Nsg22
g29
stRp2984
ag3
(g4
g5
(dp2985
g14
S''
sg17
g32
sg18
S''
sg20
g21
sg19
S''
sg15
g32
sg28
Nsg22
g33
stRp2986
ag3
(g4
g5
(dp2987
g14
S''
sg17
g36
sg18
S''
sg20
g27
sg19
S''
sg15
g36
sg28
Nsg22
g37
stRp2988
ag3
(g4
g5
(dp2989
g14
S''
sg40
S'name'
p2990
sg18
S''
sg42
S'Counter'
p2991
sg19
S''
sg15
g2990
sg28
Nsg44
S'Counter name'
p2992
stRp2993
ag3
(g4
g5
(dp2994
g14
S''
sg40
S'value'
p2995
sg18
S''
sg42
S'Value'
p2996
sg19
S''
sg15
g2995
sg28
Nsg44
S'Counter value'
p2997
stRp2998
atRp2999
sg68
g2977
sg69
S'1'
sg70
g71
sg44
S'Counters table'
p3000
sg42
S'Counters'
p3001
sg74
S'2'
sg40
S'db.counters'
p3002
stRp3003
sS'revsx'
p3004
g3
(g4
g5
(dp3005
g7
S'depotFile, depotRev'
p3006
sg9
g3
(g10
g11
(lp3007
g3
(g4
g5
(dp3008
g14
S''
sg15
g16
sg17
g16
sg18
S''
sg19
S''
sg20
g21
sg22
g23
stRp3009
ag3
(g4
g5
(dp3010
g14
S''
sg17
g26
sg18
S''
sg20
g27
sg19
S''
sg15
g26
sg28
Nsg22
g29
stRp3011
ag3
(g4
g5
(dp3012
g14
S''
sg17
g32
sg18
S''
sg20
g21
sg19
S''
sg15
g32
sg28
Nsg22
g33
stRp3013
ag3
(g4
g5
(dp3014
g14
S''
sg17
g36
sg18
S''
sg20
g27
sg19
S''
sg15
g36
sg28
Nsg22
g37
stRp3015
ag3
(g4
g5
(dp3016
g14
S''
sg40
g90
sg18
S''
sg42
g91
sg19
S''
sg15
g90
sg28
Nsg44
g92
stRp3017
ag3
(g4
g5
(dp3018
g14
S''
sg40
g95
sg18
S''
sg42
g96
sg19
S''
sg15
g95
sg28
Nsg44
g97
stRp3019
ag3
(g4
g5
(dp3020
g14
S''
sg40
g100
sg18
S''
sg42
g101
sg19
S''
sg15
g100
sg28
Nsg44
g102
stRp3021
ag3
(g4
g5
(dp3022
g14
S''
sg40
g105
sg18
S''
sg42
g106
sg19
S''
sg15
g105
sg28
Nsg44
g107
stRp3023
ag3
(g4
g5
(dp3024
g14
S''
sg40
g110
sg18
S''
sg42
g111
sg19
S''
sg15
g110
sg28
Nsg44
g112
stRp3025
ag3
(g4
g5
(dp3026
g14
S''
sg40
g115
sg18
S''
sg42
g116
sg19
S''
sg15
g115
sg28
Nsg44
g117
stRp3027
ag3
(g4
g5
(dp3028
g14
S''
sg40
g120
sg18
S''
sg42
g121
sg19
S''
sg15
g120
sg28
Nsg44
g122
stRp3029
ag3
(g4
g5
(dp3030
g14
S''
sg40
g125
sg18
S''
sg42
g126
sg19
S''
sg15
g125
sg28
Nsg44
g127
stRp3031
ag3
(g4
g5
(dp3032
g14
S''
sg40
g130
sg18
S''
sg42
g131
sg19
S''
sg15
g130
sg28
Nsg44
g132
stRp3033
ag3
(g4
g5
(dp3034
g14
S''
sg40
g135
sg18
S''
sg42
g136
sg19
S''
sg15
g135
sg28
Nsg44
g137
stRp3035
ag3
(g4
g5
(dp3036
g14
S''
sg40
g140
sg18
S''
sg42
g141
sg19
S''
sg15
g140
sg28
Nsg44
g142
stRp3037
ag3
(g4
g5
(dp3038
g14
S''
sg40
g145
sg18
S''
sg42
g146
sg19
S''
sg15
g145
sg28
Nsg44
g147
stRp3039
ag3
(g4
g5
(dp3040
g14
S''
sg40
g150
sg18
S''
sg42
g151
sg19
S''
sg15
g150
sg28
Nsg44
g152
stRp3041
ag3
(g4
g5
(dp3042
g14
S''
sg40
g155
sg18
S''
sg42
g156
sg19
S''
sg15
g155
sg28
Nsg44
g157
stRp3043
atRp3044
sg68
g3004
sg69
S'9'
sg70
g71
sg44
S'Revision records for spec depot files'
p3045
sg42
S'Rev'
p3046
sg74
S'38'
p3047
sg40
S'db.revsx'
p3048
stRp3049
sS'object'
p3050
g3
(g4
g5
(dp3051
g7
S'sha'
p3052
sg9
g3
(g10
g11
(lp3053
g3
(g4
g5
(dp3054
g14
S''
sg15
g16
sg17
g16
sg18
S''
sg19
S''
sg20
g21
sg22
g23
stRp3055
ag3
(g4
g5
(dp3056
g14
S''
sg17
g26
sg18
S''
sg20
g27
sg19
S''
sg15
g26
sg28
Nsg22
g29
stRp3057
ag3
(g4
g5
(dp3058
g14
S''
sg17
g32
sg18
S''
sg20
g21
sg19
S''
sg15
g32
sg28
Nsg22
g33
stRp3059
ag3
(g4
g5
(dp3060
g14
S''
sg17
g36
sg18
S''
sg20
g27
sg19
S''
sg15
g36
sg28
Nsg22
g37
stRp3061
ag3
(g4
g5
(dp3062
g14
S''
sg40
S'sha'
p3063
sg18
S''
sg42
S'SHA1'
p3064
sg19
S''
sg15
g3063
sg28
Nsg44
S'SHA1'
p3065
stRp3066
ag3
(g4
g5
(dp3067
g14
S''
sg40
S'type'
p3068
sg18
S''
sg42
S'ObjectType'
p3069
sg19
S''
sg15
g3068
sg28
Nsg44
S'Type'
p3070
stRp3071
ag3
(g4
g5
(dp3072
g14
S''
sg40
S'data'
p3073
sg18
S''
sg42
S'Octet String'
p3074
sg19
S''
sg15
g3073
sg28
Nsg44
S'VersionData'
p3075
stRp3076
atRp3077
sg68
g3050
sg69
S'0'
sg70
g71
sg44
S'Object storage for graph depots'
p3078
sg42
S'Object'
p3079
sg74
S'60'
p3080
sg40
S'db.object'
p3081
stRp3082
sS'workingg'
p3083
g3
(g4
g5
(dp3084
g7
S'clientFile'
p3085
sg9
g3
(g10
g11
(lp3086
g3
(g4
g5
(dp3087
g14
S''
sg15
g16
sg17
g16
sg18
S''
sg19
S''
sg20
g21
sg22
g23
stRp3088
ag3
(g4
g5
(dp3089
g14
S''
sg17
g26
sg18
S''
sg20
g27
sg19
S''
sg15
g26
sg28
Nsg22
g29
stRp3090
ag3
(g4
g5
(dp3091
g14
S''
sg17
g32
sg18
S''
sg20
g21
sg19
S''
sg15
g32
sg28
Nsg22
g33
stRp3092
ag3
(g4
g5
(dp3093
g14
S''
sg17
g36
sg18
S''
sg20
g27
sg19
S''
sg15
g36
sg28
Nsg22
g37
stRp3094
ag3
(g4
g5
(dp3095
g14
S''
sg40
S'cfile'
p3096
sg18
S''
sg42
S'File'
p3097
sg19
S''
sg15
g3096
sg28
Nsg44
S'Client File'
p3098
stRp3099
ag3
(g4
g5
(dp3100
g14
S''
sg40
S'dfile'
p3101
sg18
S''
sg42
S'File'
p3102
sg19
S''
sg15
g3101
sg28
Nsg44
S'Depot File'
p3103
stRp3104
ag3
(g4
g5
(dp3105
g14
S''
sg40
S'client'
p3106
sg18
S''
sg42
S'Domain'
p3107
sg19
S''
sg15
g3106
sg28
Nsg44
S'Client'
p3108
stRp3109
ag3
(g4
g5
(dp3110
g14
S''
sg40
S'user'
p3111
sg18
S''
sg42
S'User'
p3112
sg19
S''
sg15
g3111
sg28
Nsg44
S'User'
p3113
stRp3114
ag3
(g4
g5
(dp3115
g14
S''
sg40
S'hrev'
p3116
sg18
S''
sg42
S'Rev'
p3117
sg19
S''
sg15
g3116
sg28
Nsg44
S'HaveRev'
p3118
stRp3119
ag3
(g4
g5
(dp3120
g14
S''
sg40
S'wrev'
p3121
sg18
S''
sg42
S'Rev'
p3122
sg19
S''
sg15
g3121
sg28
Nsg44
S'WoringRev'
p3123
stRp3124
ag3
(g4
g5
(dp3125
g14
S''
sg40
S'virtual'
p3126
sg18
S''
sg42
S'Int'
p3127
sg19
S''
sg15
g3126
sg28
Nsg44
S'Virtual'
p3128
stRp3129
ag3
(g4
g5
(dp3130
g14
S''
sg40
S'type'
p3131
sg18
S''
sg42
S'FileType'
p3132
sg19
S''
sg15
g3131
sg28
Nsg44
S'File type'
p3133
stRp3134
ag3
(g4
g5
(dp3135
g14
S''
sg40
S'action'
p3136
sg18
S''
sg42
S'Action'
p3137
sg19
S''
sg15
g3136
sg28
Nsg44
S'Action'
p3138
stRp3139
ag3
(g4
g5
(dp3140
g14
S''
sg40
S'change'
p3141
sg18
S''
sg42
S'Change'
p3142
sg19
S''
sg15
g3141
sg28
Nsg44
S'Change'
p3143
stRp3144
ag3
(g4
g5
(dp3145
g14
S''
sg40
S'modtime'
p3146
sg18
S''
sg42
S'Date'
p3147
sg19
S''
sg15
g3146
sg28
Nsg44
S'ModTime'
p3148
stRp3149
ag3
(g4
g5
(dp3150
g14
S''
sg40
S'islocked'
p3151
sg18
S''
sg42
S'Int'
p3152
sg19
S''
sg15
g3151
sg28
Nsg44
S'IsLocked'
p3153
stRp3154
ag3
(g4
g5
(dp3155
g14
S''
sg40
S'digest'
p3156
sg18
S''
sg42
S'Digest'
p3157
sg19
S''
sg15
g3156
sg28
Nsg44
S'MD5 digest'
p3158
stRp3159
ag3
(g4
g5
(dp3160
g14
S''
sg40
S'size'
p3161
sg18
S''
sg42
S'Int64'
p3162
sg19
S''
sg15
g3161
sg28
Nsg44
S'File size'
p3163
stRp3164
ag3
(g4
g5
(dp3165
g14
S''
sg40
S'traitlot'
p3166
sg18
S''
sg42
S'Int'
p3167
sg19
S''
sg15
g3166
sg28
Nsg44
S'TraitLot'
p3168
stRp3169
ag3
(g4
g5
(dp3170
g14
S''
sg40
S'tampered'
p3171
sg18
S''
sg42
S'TamperCheck'
p3172
sg19
S''
sg15
g3171
sg28
Nsg44
S'Tampered'
p3173
stRp3174
ag3
(g4
g5
(dp3175
g14
S''
sg40
S'ctype'
p3176
sg18
S''
sg42
S'FileType'
p3177
sg19
S''
sg15
g3176
sg28
Nsg44
S'ClientType'
p3178
stRp3179
ag3
(g4
g5
(dp3180
g14
S''
sg40
S'mfile'
p3181
sg18
S''
sg42
S'File'
p3182
sg19
S''
sg15
g3181
sg28
Nsg44
S'Moved filename'
p3183
stRp3184
ag3
(g4
g5
(dp3185
g14
S''
sg40
S'status'
p3186
sg18
S''
sg42
S'Int'
p3187
sg19
S''
sg15
g3186
sg28
Nsg44
S'Working status'
p3188
stRp3189
ag3
(g4
g5
(dp3190
g14
S''
sg40
S'sha'
p3191
sg18
S''
sg42
S'SHA1'
p3192
sg19
S''
sg15
g3191
sg28
Nsg44
S'Blob SHA'
p3193
stRp3194
ag3
(g4
g5
(dp3195
g14
S''
sg40
S'repo'
p3196
sg18
S''
sg42
S'String'
p3197
sg19
S''
sg15
g3196
sg28
Nsg44
S'Repository name'
p3198
stRp3199
atRp3200
sg68
g3083
sg69
S'0'
sg70
g71
sg44
S'Working records for clients of type graph'
p3201
sg42
S'WorkingG'
p3202
sg74
S'49'
p3203
sg40
S'db.workingg'
p3204
stRp3205
sS'job'
p3206
g3
(g4
g5
(dp3207
g7
S'job'
p3208
sg9
g3
(g10
g11
(lp3209
g3
(g4
g5
(dp3210
g14
S''
sg15
g16
sg17
g16
sg18
S''
sg19
S''
sg20
g21
sg22
g23
stRp3211
ag3
(g4
g5
(dp3212
g14
S''
sg17
g26
sg18
S''
sg20
g27
sg19
S''
sg15
g26
sg28
Nsg22
g29
stRp3213
ag3
(g4
g5
(dp3214
g14
S''
sg17
g32
sg18
S''
sg20
g21
sg19
S''
sg15
g32
sg28
Nsg22
g33
stRp3215
ag3
(g4
g5
(dp3216
g14
S''
sg17
g36
sg18
S''
sg20
g27
sg19
S''
sg15
g36
sg28
Nsg22
g37
stRp3217
ag3
(g4
g5
(dp3218
g14
S''
sg40
S'job'
p3219
sg18
S''
sg42
S'String'
p3220
sg19
S''
sg15
g3219
sg28
Nsg44
S'The job name'
p3221
stRp3222
ag3
(g4
g5
(dp3223
g14
S''
sg40
S'xuser'
p3224
sg18
S''
sg42
S'User'
p3225
sg19
S''
sg15
g3224
sg28
Nsg44
S'User name: defunct'
p3226
stRp3227
ag3
(g4
g5
(dp3228
g14
S''
sg40
S'xdate'
p3229
sg18
S''
sg42
S'Date'
p3230
sg19
S''
sg15
g3229
sg28
Nsg44
S'The date: defunct'
p3231
stRp3232
ag3
(g4
g5
(dp3233
g14
S''
sg40
S'xstatus'
p3234
sg18
S''
sg42
S'JobStat'
p3235
sg19
S''
sg15
g3234
sg28
Nsg44
S'Job status: defunct'
p3236
stRp3237
ag3
(g4
g5
(dp3238
g14
S''
sg40
S'description'
p3239
sg18
S''
sg42
S'DescShort'
p3240
sg19
S''
sg15
g3239
sg28
Nsg44
S'Short description'
p3241
stRp3242
atRp3243
sg68
g3206
sg40
S'db.job'
p3244
sg69
S'0'
sg70
g71
sg691
S'db.bodtext'
p3245
sg42
S'Job'
p3246
sg74
S'64'
p3247
sg44
S'Job records'
p3248
stRp3249
sS'workingx'
p3250
g3
(g4
g5
(dp3251
g7
S'clientFile'
p3252
sg9
g3
(g10
g11
(lp3253
g3
(g4
g5
(dp3254
g14
S''
sg15
g16
sg17
g16
sg18
S''
sg19
S''
sg20
g21
sg22
g23
stRp3255
ag3
(g4
g5
(dp3256
g14
S''
sg17
g26
sg18
S''
sg20
g27
sg19
S''
sg15
g26
sg28
Nsg22
g29
stRp3257
ag3
(g4
g5
(dp3258
g14
S''
sg17
g32
sg18
S''
sg20
g21
sg19
S''
sg15
g32
sg28
Nsg22
g33
stRp3259
ag3
(g4
g5
(dp3260
g14
S''
sg17
g36
sg18
S''
sg20
g27
sg19
S''
sg15
g36
sg28
Nsg22
g37
stRp3261
ag3
(g4
g5
(dp3262
g14
S''
sg40
g546
sg18
S''
sg42
g547
sg19
S''
sg15
g546
sg28
Nsg44
g548
stRp3263
ag3
(g4
g5
(dp3264
g14
S''
sg40
g551
sg18
S''
sg42
g552
sg19
S''
sg15
g551
sg28
Nsg44
g553
stRp3265
ag3
(g4
g5
(dp3266
g14
S''
sg40
g556
sg18
S''
sg42
g557
sg19
S''
sg15
g556
sg28
Nsg44
g558
stRp3267
ag3
(g4
g5
(dp3268
g14
S''
sg40
g561
sg18
S''
sg42
g562
sg19
S''
sg15
g561
sg28
Nsg44
g563
stRp3269
ag3
(g4
g5
(dp3270
g14
S''
sg40
g566
sg18
S''
sg42
g567
sg19
S''
sg15
g566
sg28
Nsg44
g568
stRp3271
ag3
(g4
g5
(dp3272
g14
S''
sg40
g571
sg18
S''
sg42
g572
sg19
S''
sg15
g571
sg28
Nsg44
g573
stRp3273
ag3
(g4
g5
(dp3274
g14
S''
sg40
g576
sg18
S''
sg42
g577
sg19
S''
sg15
g576
sg28
Nsg44
g578
stRp3275
ag3
(g4
g5
(dp3276
g14
S''
sg40
g581
sg18
S''
sg42
g582
sg19
S''
sg15
g581
sg28
Nsg44
g583
stRp3277
ag3
(g4
g5
(dp3278
g14
S''
sg40
g586
sg18
S''
sg42
g587
sg19
S''
sg15
g586
sg28
Nsg44
g588
stRp3279
ag3
(g4
g5
(dp3280
g14
S''
sg40
g591
sg18
S''
sg42
g592
sg19
S''
sg15
g591
sg28
Nsg44
g593
stRp3281
ag3
(g4
g5
(dp3282
g14
S''
sg40
g596
sg18
S''
sg42
g597
sg19
S''
sg15
g596
sg28
Nsg44
g598
stRp3283
ag3
(g4
g5
(dp3284
g14
S''
sg40
g601
sg18
S''
sg42
g602
sg19
S''
sg15
g601
sg28
Nsg44
g603
stRp3285
ag3
(g4
g5
(dp3286
g14
S''
sg40
g606
sg18
S''
sg42
g607
sg19
S''
sg15
g606
sg28
Nsg44
g608
stRp3287
ag3
(g4
g5
(dp3288
g14
S''
sg40
g611
sg18
S''
sg42
g612
sg19
S''
sg15
g611
sg28
Nsg44
g613
stRp3289
ag3
(g4
g5
(dp3290
g14
S''
sg40
g616
sg18
S''
sg42
g617
sg19
S''
sg15
g616
sg28
Nsg44
g618
stRp3291
ag3
(g4
g5
(dp3292
g14
S''
sg40
g621
sg18
S''
sg42
g622
sg19
S''
sg15
g621
sg28
Nsg44
g623
stRp3293
ag3
(g4
g5
(dp3294
g14
S''
sg40
g626
sg18
S''
sg42
g627
sg19
S''
sg15
g626
sg28
Nsg44
g628
stRp3295
ag3
(g4
g5
(dp3296
g14
S''
sg40
g631
sg18
S''
sg42
g632
sg19
S''
sg15
g631
sg28
Nsg44
g633
stRp3297
ag3
(g4
g5
(dp3298
g14
S''
sg40
g636
sg18
S''
sg42
g637
sg19
S''
sg15
g636
sg28
Nsg44
g638
stRp3299
atRp3300
sg68
g3250
sg69
S'10'
p3301
sg70
g71
sg44
S'Records for shelved open files'
p3302
sg42
S'Working'
p3303
sg74
S'48'
p3304
sg40
S'db.workingx'
p3305
stRp3306
sS'user'
p3307
g3
(g4
g5
(dp3308
g7
S'user'
p3309
sg9
g3
(g10
g11
(lp3310
g3
(g4
g5
(dp3311
g14
S''
sg15
g16
sg17
g16
sg18
S''
sg19
S''
sg20
g21
sg22
g23
stRp3312
ag3
(g4
g5
(dp3313
g14
S''
sg17
g26
sg18
S''
sg20
g27
sg19
S''
sg15
g26
sg28
Nsg22
g29
stRp3314
ag3
(g4
g5
(dp3315
g14
S''
sg17
g32
sg18
S''
sg20
g21
sg19
S''
sg15
g32
sg28
Nsg22
g33
stRp3316
ag3
(g4
g5
(dp3317
g14
S''
sg17
g36
sg18
S''
sg20
g27
sg19
S''
sg15
g36
sg28
Nsg22
g37
stRp3318
ag3
(g4
g5
(dp3319
g14
S''
sg40
g2209
sg18
S''
sg42
g2210
sg19
S''
sg15
g2209
sg28
Nsg44
g2211
stRp3320
ag3
(g4
g5
(dp3321
g14
S''
sg40
g2214
sg18
S''
sg42
g2215
sg19
S''
sg15
g2214
sg28
Nsg44
g2216
stRp3322
ag3
(g4
g5
(dp3323
g14
S''
sg40
g2219
sg18
S''
sg42
g2220
sg19
S''
sg15
g2219
sg28
Nsg44
g2221
stRp3324
ag3
(g4
g5
(dp3325
g14
S''
sg40
g2224
sg18
S''
sg42
g2225
sg19
S''
sg15
g2224
sg28
Nsg44
g2226
stRp3326
ag3
(g4
g5
(dp3327
g14
S''
sg40
g2229
sg18
S''
sg42
g2230
sg19
S''
sg15
g2229
sg28
Nsg44
g2231
stRp3328
ag3
(g4
g5
(dp3329
g14
S''
sg40
g2234
sg18
S''
sg42
g2235
sg19
S''
sg15
g2234
sg28
Nsg44
g2236
stRp3330
ag3
(g4
g5
(dp3331
g14
S''
sg40
g2239
sg18
S''
sg42
g2240
sg19
S''
sg15
g2239
sg28
Nsg44
g2241
stRp3332
ag3
(g4
g5
(dp3333
g14
S''
sg40
g2244
sg18
S''
sg42
g2245
sg19
S''
sg15
g2244
sg28
Nsg44
g2246
stRp3334
ag3
(g4
g5
(dp3335
g14
S''
sg40
g2249
sg18
S''
sg42
g2250
sg19
S''
sg15
g2249
sg28
Nsg44
g2251
stRp3336
ag3
(g4
g5
(dp3337
g14
S''
sg40
g2254
sg18
S''
sg42
g2255
sg19
S''
sg15
g2254
sg28
Nsg44
g2256
stRp3338
ag3
(g4
g5
(dp3339
g14
S''
sg40
g2259
sg18
S''
sg42
g2260
sg19
S''
sg15
g2259
sg28
Nsg44
g2261
stRp3340
ag3
(g4
g5
(dp3341
g14
S''
sg40
g2264
sg18
S''
sg42
g2265
sg19
S''
sg15
g2264
sg28
Nsg44
g2266
stRp3342
ag3
(g4
g5
(dp3343
g14
S''
sg40
g2269
sg18
S''
sg42
g2270
sg19
S''
sg15
g2269
sg28
Nsg44
g2271
stRp3344
ag3
(g4
g5
(dp3345
g14
S''
sg40
g2274
sg18
S''
sg42
g2275
sg19
S''
sg15
g2274
sg28
Nsg44
g2276
stRp3346
ag3
(g4
g5
(dp3347
g14
S''
sg40
g2279
sg18
S''
sg42
g2280
sg19
S''
sg15
g2279
sg28
Nsg44
g2281
stRp3348
atRp3349
sg68
g3307
sg69
S'7'
sg70
g71
sg44
S'User specifications'
p3350
sg42
S'User'
p3351
sg74
S'12'
p3352
sg40
S'db.user'
p3353
stRp3354
sS'revsh'
p3355
g3
(g4
g5
(dp3356
g7
S'depotFile, depotRev, type, action, change'
p3357
sg9
g3
(g10
g11
(lp3358
g3
(g4
g5
(dp3359
g14
S''
sg15
g16
sg17
g16
sg18
S''
sg19
S''
sg20
g21
sg22
g23
stRp3360
ag3
(g4
g5
(dp3361
g14
S''
sg17
g26
sg18
S''
sg20
g27
sg19
S''
sg15
g26
sg28
Nsg22
g29
stRp3362
ag3
(g4
g5
(dp3363
g14
S''
sg17
g32
sg18
S''
sg20
g21
sg19
S''
sg15
g32
sg28
Nsg22
g33
stRp3364
ag3
(g4
g5
(dp3365
g14
S''
sg17
g36
sg18
S''
sg20
g27
sg19
S''
sg15
g36
sg28
Nsg22
g37
stRp3366
ag3
(g4
g5
(dp3367
g14
S''
sg40
g90
sg18
S''
sg42
g91
sg19
S''
sg15
g90
sg28
Nsg44
g92
stRp3368
ag3
(g4
g5
(dp3369
g14
S''
sg40
g95
sg18
S''
sg42
g96
sg19
S''
sg15
g95
sg28
Nsg44
g97
stRp3370
ag3
(g4
g5
(dp3371
g14
S''
sg40
g100
sg18
S''
sg42
g101
sg19
S''
sg15
g100
sg28
Nsg44
g102
stRp3372
ag3
(g4
g5
(dp3373
g14
S''
sg40
g105
sg18
S''
sg42
g106
sg19
S''
sg15
g105
sg28
Nsg44
g107
stRp3374
ag3
(g4
g5
(dp3375
g14
S''
sg40
g110
sg18
S''
sg42
g111
sg19
S''
sg15
g110
sg28
Nsg44
g112
stRp3376
ag3
(g4
g5
(dp3377
g14
S''
sg40
g115
sg18
S''
sg42
g116
sg19
S''
sg15
g115
sg28
Nsg44
g117
stRp3378
ag3
(g4
g5
(dp3379
g14
S''
sg40
g120
sg18
S''
sg42
g121
sg19
S''
sg15
g120
sg28
Nsg44
g122
stRp3380
ag3
(g4
g5
(dp3381
g14
S''
sg40
g125
sg18
S''
sg42
g126
sg19
S''
sg15
g125
sg28
Nsg44
g127
stRp3382
ag3
(g4
g5
(dp3383
g14
S''
sg40
g130
sg18
S''
sg42
g131
sg19
S''
sg15
g130
sg28
Nsg44
g132
stRp3384
ag3
(g4
g5
(dp3385
g14
S''
sg40
g135
sg18
S''
sg42
g136
sg19
S''
sg15
g135
sg28
Nsg44
g137
stRp3386
ag3
(g4
g5
(dp3387
g14
S''
sg40
g140
sg18
S''
sg42
g141
sg19
S''
sg15
g140
sg28
Nsg44
g142
stRp3388
ag3
(g4
g5
(dp3389
g14
S''
sg40
g145
sg18
S''
sg42
g146
sg19
S''
sg15
g145
sg28
Nsg44
g147
stRp3390
ag3
(g4
g5
(dp3391
g14
S''
sg40
g150
sg18
S''
sg42
g151
sg19
S''
sg15
g150
sg28
Nsg44
g152
stRp3392
ag3
(g4
g5
(dp3393
g14
S''
sg40
g155
sg18
S''
sg42
g156
sg19
S''
sg15
g155
sg28
Nsg44
g157
stRp3394
atRp3395
sg68
g3355
sg69
S'9'
sg70
g71
sg44
S'Revision records for shelved files'
p3396
sg42
S'Rev'
p3397
sg74
S'39'
p3398
sg40
S'db.revsh'
p3399
stRp3400
sS'changeidx'
p3401
g3
(g4
g5
(dp3402
g7
S'identity'
p3403
sg9
g3
(g10
g11
(lp3404
g3
(g4
g5
(dp3405
g14
S''
sg15
g16
sg17
g16
sg18
S''
sg19
S''
sg20
g21
sg22
g23
stRp3406
ag3
(g4
g5
(dp3407
g14
S''
sg17
g26
sg18
S''
sg20
g27
sg19
S''
sg15
g26
sg28
Nsg22
g29
stRp3408
ag3
(g4
g5
(dp3409
g14
S''
sg17
g32
sg18
S''
sg20
g21
sg19
S''
sg15
g32
sg28
Nsg22
g33
stRp3410
ag3
(g4
g5
(dp3411
g14
S''
sg17
g36
sg18
S''
sg20
g27
sg19
S''
sg15
g36
sg28
Nsg22
g37
stRp3412
ag3
(g4
g5
(dp3413
g14
S''
sg40
S'identity'
p3414
sg18
S''
sg42
S'String'
p3415
sg19
S''
sg15
g3414
sg28
Nsg44
S'Identifier for this change'
p3416
stRp3417
ag3
(g4
g5
(dp3418
g14
S''
sg40
S'change'
p3419
sg18
S''
sg42
S'Change'
p3420
sg19
S''
sg15
g3419
sg28
Nsg44
S'Changelist'
p3421
stRp3422
atRp3423
sg68
g3401
sg69
S'1'
sg70
g71
sg44
S'Secondary index of db.change/db.changex'
p3424
sg42
S'ChangeIdx'
p3425
sg74
S'55'
p3426
sg40
S'db.changeidx'
p3427
stRp3428
sS'locksg'
p3429
g3
(g4
g5
(dp3430
g7
S'depotFile, client'
p3431
sg9
g3
(g10
g11
(lp3432
g3
(g4
g5
(dp3433
g14
S''
sg15
g16
sg17
g16
sg18
S''
sg19
S''
sg20
g21
sg22
g23
stRp3434
ag3
(g4
g5
(dp3435
g14
S''
sg17
g26
sg18
S''
sg20
g27
sg19
S''
sg15
g26
sg28
Nsg22
g29
stRp3436
ag3
(g4
g5
(dp3437
g14
S''
sg17
g32
sg18
S''
sg20
g21
sg19
S''
sg15
g32
sg28
Nsg22
g33
stRp3438
ag3
(g4
g5
(dp3439
g14
S''
sg17
g36
sg18
S''
sg20
g27
sg19
S''
sg15
g36
sg28
Nsg22
g37
stRp3440
ag3
(g4
g5
(dp3441
g14
S''
sg40
g2302
sg18
S''
sg42
g2303
sg19
S''
sg15
g2302
sg28
Nsg44
g2304
stRp3442
ag3
(g4
g5
(dp3443
g14
S''
sg40
g2307
sg18
S''
sg42
g2308
sg19
S''
sg15
g2307
sg28
Nsg44
g2309
stRp3444
ag3
(g4
g5
(dp3445
g14
S''
sg40
g2312
sg18
S''
sg42
g2313
sg19
S''
sg15
g2312
sg28
Nsg44
g2314
stRp3446
ag3
(g4
g5
(dp3447
g14
S''
sg40
g2317
sg18
S''
sg42
g2318
sg19
S''
sg15
g2317
sg28
Nsg44
g2319
stRp3448
ag3
(g4
g5
(dp3449
g14
S''
sg40
g2322
sg18
S''
sg42
g2323
sg19
S''
sg15
g2322
sg28
Nsg44
g2324
stRp3450
ag3
(g4
g5
(dp3451
g14
S''
sg40
g2327
sg18
S''
sg42
g2328
sg19
S''
sg15
g2327
sg28
Nsg44
g2329
stRp3452
atRp3453
sg68
g3429
sg69
S'2'
sg70
g71
sg44
S'Lock records for clients of type graph'
p3454
sg42
S'Locks'
p3455
sg74
S'46'
p3456
sg40
S'db.locksg'
p3457
stRp3458
sS'bodtextsx'
p3459
g3
(g4
g5
(dp3460
g7
S'type, shelf, key, attr'
p3461
sg9
g3
(g10
g11
(lp3462
g3
(g4
g5
(dp3463
g14
S''
sg15
g16
sg17
g16
sg18
S''
sg19
S''
sg20
g21
sg22
g23
stRp3464
ag3
(g4
g5
(dp3465
g14
S''
sg17
g26
sg18
S''
sg20
g27
sg19
S''
sg15
g26
sg28
Nsg22
g29
stRp3466
ag3
(g4
g5
(dp3467
g14
S''
sg17
g32
sg18
S''
sg20
g21
sg19
S''
sg15
g32
sg28
Nsg22
g33
stRp3468
ag3
(g4
g5
(dp3469
g14
S''
sg17
g36
sg18
S''
sg20
g27
sg19
S''
sg15
g36
sg28
Nsg22
g37
stRp3470
ag3
(g4
g5
(dp3471
g14
S''
sg40
S'type'
p3472
sg18
S''
sg42
S'Int'
p3473
sg19
S''
sg15
g3472
sg28
Nsg44
S'The type of spec'
p3474
stRp3475
ag3
(g4
g5
(dp3476
g14
S''
sg40
S'shelf'
p3477
sg18
S''
sg42
S'Change'
p3478
sg19
S''
sg15
g3477
sg28
Nsg44
S'The shelf to which this attribute belongs'
p3479
stRp3480
ag3
(g4
g5
(dp3481
g14
S''
sg40
S'key'
p3482
sg18
S''
sg42
S'String'
p3483
sg19
S''
sg15
g3482
sg28
Nsg44
S'The spec to which this attribute belongs'
p3484
stRp3485
ag3
(g4
g5
(dp3486
g14
S''
sg40
S'attr'
p3487
sg18
S''
sg42
S'Int'
p3488
sg19
S''
sg15
g3487
sg28
Nsg44
S'The attribute number of this attribute'
p3489
stRp3490
ag3
(g4
g5
(dp3491
g14
S''
sg40
S'text'
p3492
sg18
S''
sg42
S'Text'
p3493
sg19
S''
sg15
g3492
sg28
Nsg44
S'The attribute value'
p3494
stRp3495
ag3
(g4
g5
(dp3496
g14
S''
sg40
S'workChange'
p3497
sg18
S''
sg42
S'Change'
p3498
sg19
S''
sg15
g3497
sg28
Nsg44
S'The working change'
p3499
stRp3500
atRp3501
sg68
g3459
sg69
S'0'
sg70
g71
sg44
S'Shelved openable spec fields (for future use)'
p3502
sg42
S'BodyTextSx'
p3503
sg74
S'71'
p3504
sg40
S'db.bodtextsx'
p3505
stRp3506
sS'integtx'
p3507
g3
(g4
g5
(dp3508
g7
S'toFile, fromFile, startFromRev, endFromRev, \n\t\tstartToRev, endToRev'
p3509
sg9
g3
(g10
g11
(lp3510
g3
(g4
g5
(dp3511
g14
S''
sg15
g16
sg17
g16
sg18
S''
sg19
S''
sg20
g21
sg22
g23
stRp3512
ag3
(g4
g5
(dp3513
g14
S''
sg17
g26
sg18
S''
sg20
g27
sg19
S''
sg15
g26
sg28
Nsg22
g29
stRp3514
ag3
(g4
g5
(dp3515
g14
S''
sg17
g32
sg18
S''
sg20
g21
sg19
S''
sg15
g32
sg28
Nsg22
g33
stRp3516
ag3
(g4
g5
(dp3517
g14
S''
sg17
g36
sg18
S''
sg20
g27
sg19
S''
sg15
g36
sg28
Nsg22
g37
stRp3518
ag3
(g4
g5
(dp3519
g14
S''
sg40
g1262
sg18
S''
sg42
g1263
sg19
S''
sg15
g1262
sg28
Nsg44
g1264
stRp3520
ag3
(g4
g5
(dp3521
g14
S''
sg40
g1267
sg18
S''
sg42
g1268
sg19
S''
sg15
g1267
sg28
Nsg44
g1269
stRp3522
ag3
(g4
g5
(dp3523
g14
S''
sg40
g1272
sg18
S''
sg42
g1273
sg19
S''
sg15
g1272
sg28
Nsg44
g1274
stRp3524
ag3
(g4
g5
(dp3525
g14
S''
sg40
g1277
sg18
S''
sg42
g1278
sg19
S''
sg15
g1277
sg28
Nsg44
g1279
stRp3526
ag3
(g4
g5
(dp3527
g14
S''
sg40
g1282
sg18
S''
sg42
g1283
sg19
S''
sg15
g1282
sg28
Nsg44
g1284
stRp3528
ag3
(g4
g5
(dp3529
g14
S''
sg40
g1287
sg18
S''
sg42
g1288
sg19
S''
sg15
g1287
sg28
Nsg44
g1289
stRp3530
ag3
(g4
g5
(dp3531
g14
S''
sg40
g1292
sg18
S''
sg42
g1293
sg19
S''
sg15
g1292
sg28
Nsg44
g1294
stRp3532
ag3
(g4
g5
(dp3533
g14
S''
sg40
g1297
sg18
S''
sg42
g1298
sg19
S''
sg15
g1297
sg28
Nsg44
g1299
stRp3534
atRp3535
sg68
g3507
sg40
S'db.integtx'
p3536
sg69
S'0'
sg70
g71
sg691
S'db.resolve'
p3537
sg42
S'Integed'
p3538
sg74
S'30'
p3539
sg44
S'Temporary integration records used by task streams'
p3540
stRp3541
sS'protect'
p3542
g3
(g4
g5
(dp3543
g7
S'seq'
p3544
sg9
g3
(g10
g11
(lp3545
g3
(g4
g5
(dp3546
g14
S''
sg15
g16
sg17
g16
sg18
S''
sg19
S''
sg20
g21
sg22
g23
stRp3547
ag3
(g4
g5
(dp3548
g14
S''
sg17
g26
sg18
S''
sg20
g27
sg19
S''
sg15
g26
sg28
Nsg22
g29
stRp3549
ag3
(g4
g5
(dp3550
g14
S''
sg17
g32
sg18
S''
sg20
g21
sg19
S''
sg15
g32
sg28
Nsg22
g33
stRp3551
ag3
(g4
g5
(dp3552
g14
S''
sg17
g36
sg18
S''
sg20
g27
sg19
S''
sg15
g36
sg28
Nsg22
g37
stRp3553
ag3
(g4
g5
(dp3554
g14
S''
sg40
S'seq'
p3555
sg18
S''
sg42
S'Int'
p3556
sg19
S''
sg15
g3555
sg28
Nsg44
S'Sequence number: for ordering the protections table'
p3557
stRp3558
ag3
(g4
g5
(dp3559
g14
S''
sg40
S'isGroup'
p3560
sg18
S''
sg42
S'Int'
p3561
sg19
S''
sg15
g3560
sg28
Nsg44
S'Flag: 0 for a per-user setting, 1 for a per-group setting.'
p3562
stRp3563
ag3
(g4
g5
(dp3564
g14
S''
sg40
S'user'
p3565
sg18
S''
sg42
S'UserWild'
p3566
sg19
S''
sg15
g3565
sg28
Nsg44
S'User(s), or Group(s) for whom this record applies.'
p3567
stRp3568
ag3
(g4
g5
(dp3569
g14
S''
sg40
S'host'
p3570
sg18
S''
sg42
S'DomainWild'
p3571
sg19
S''
sg15
g3570
sg28
Nsg44
S'Domain(s) (IP addresses) for which this record applies.'
p3572
stRp3573
ag3
(g4
g5
(dp3574
g14
S''
sg40
S'perm'
p3575
sg18
S''
sg42
S'Perm'
p3576
sg19
S''
sg15
g3575
sg28
Nsg44
S'Permissions to be granted/revoked'
p3577
stRp3578
ag3
(g4
g5
(dp3579
g14
S''
sg40
S'mapFlag'
p3580
sg18
S''
sg42
S'MapFlag'
p3581
sg19
S''
sg15
g3580
sg28
Nsg44
S'Flag: Map the files in or out?'
p3582
stRp3583
ag3
(g4
g5
(dp3584
g14
S''
sg40
S'depotFile'
p3585
sg18
S''
sg42
S'Mapping'
p3586
sg19
S''
sg15
g3585
sg28
Nsg44
S'Files to be mapped in or out.'
p3587
stRp3588
ag3
(g4
g5
(dp3589
g14
S''
sg40
S'subPath'
p3590
sg18
S''
sg42
S'String'
p3591
sg19
S''
sg15
g3590
sg28
Nsg44
S'Root path of the sub-protections table'
p3592
stRp3593
ag3
(g4
g5
(dp3594
g14
S''
sg40
S'update'
p3595
sg18
S''
sg42
S'Date'
p3596
sg19
S''
sg15
g3595
sg28
Nsg44
S'Date this specification was last modified'
p3597
stRp3598
atRp3599
sg68
g3542
sg69
S'5'
sg70
g71
sg44
S'The protections table'
p3600
sg42
S'Protect'
p3601
sg74
S'76'
p3602
sg40
S'db.protect'
p3603
stRp3604
sS'remote'
p3605
g3
(g4
g5
(dp3606
g7
S'id'
p3607
sg9
g3
(g10
g11
(lp3608
g3
(g4
g5
(dp3609
g14
S''
sg15
g16
sg17
g16
sg18
S''
sg19
S''
sg20
g21
sg22
g23
stRp3610
ag3
(g4
g5
(dp3611
g14
S''
sg17
g26
sg18
S''
sg20
g27
sg19
S''
sg15
g26
sg28
Nsg22
g29
stRp3612
ag3
(g4
g5
(dp3613
g14
S''
sg17
g32
sg18
S''
sg20
g21
sg19
S''
sg15
g32
sg28
Nsg22
g33
stRp3614
ag3
(g4
g5
(dp3615
g14
S''
sg17
g36
sg18
S''
sg20
g27
sg19
S''
sg15
g36
sg28
Nsg22
g37
stRp3616
ag3
(g4
g5
(dp3617
g14
S''
sg40
S'id'
p3618
sg18
S''
sg42
S'RemoteID'
p3619
sg19
S''
sg15
g3618
sg28
Nsg44
S'The remote identifier'
p3620
stRp3621
ag3
(g4
g5
(dp3622
g14
S''
sg40
S'owner'
p3623
sg18
S''
sg42
S'User'
p3624
sg19
S''
sg15
g3623
sg28
Nsg44
S'The user who creatd this remote'
p3625
stRp3626
ag3
(g4
g5
(dp3627
g14
S''
sg40
S'options'
p3628
sg18
S''
sg42
S'Int'
p3629
sg19
S''
sg15
g3628
sg28
Nsg44
S'Remote options: 0: unlocked/nocompress, 1: locked/nocompress, 2: unlocked/compress, 4: locked/compress'
p3630
stRp3631
ag3
(g4
g5
(dp3632
g14
S''
sg40
S'address'
p3633
sg18
S''
sg42
S'Text'
p3634
sg19
S''
sg15
g3633
sg28
Nsg44
S'The P4PORT used by the remote server'
p3635
stRp3636
ag3
(g4
g5
(dp3637
g14
S''
sg40
S'desc'
p3638
sg18
S''
sg42
S'Text'
p3639
sg19
S''
sg15
g3638
sg28
Nsg44
S'Description of the remote server'
p3640
stRp3641
ag3
(g4
g5
(dp3642
g14
S''
sg40
S'update'
p3643
sg18
S''
sg42
S'Date'
p3644
sg19
S''
sg15
g3643
sg28
Nsg44
S'The date this specification was last modfied'
p3645
stRp3646
ag3
(g4
g5
(dp3647
g14
S''
sg40
S'access'
p3648
sg18
S''
sg42
S'Date'
p3649
sg19
S''
sg15
g3648
sg28
Nsg44
S'The date of the last push/fetch on this remote'
p3650
stRp3651
ag3
(g4
g5
(dp3652
g14
S''
sg40
S'fetch'
p3653
sg18
S''
sg42
S'Change'
p3654
sg19
S''
sg15
g3653
sg28
Nsg44
S'The last changelist that was fetched'
p3655
stRp3656
ag3
(g4
g5
(dp3657
g14
S''
sg40
S'push'
p3658
sg18
S''
sg42
S'Change'
p3659
sg19
S''
sg15
g3658
sg28
Nsg44
S'The last changelist that was pushed'
p3660
stRp3661
ag3
(g4
g5
(dp3662
g14
S''
sg40
S'rmtuser'
p3663
sg18
S''
sg42
S'User'
p3664
sg19
S''
sg15
g3663
sg28
Nsg44
S'The user to use when connecting to the remote server'
p3665
stRp3666
atRp3667
sg68
g3605
sg69
S'1'
sg70
g71
sg44
S'Remote specifications'
p3668
sg42
S'Remote'
p3669
sg74
S'8'
sg40
S'db.remote'
p3670
stRp3671
sS'haveview'
p3672
g3
(g4
g5
(dp3673
g7
S'name, domain'
p3674
sg9
g3
(g10
g11
(lp3675
g3
(g4
g5
(dp3676
g14
S''
sg15
g16
sg17
g16
sg18
S''
sg19
S''
sg20
g21
sg22
g23
stRp3677
ag3
(g4
g5
(dp3678
g14
S''
sg17
g26
sg18
S''
sg20
g27
sg19
S''
sg15
g26
sg28
Nsg22
g29
stRp3679
ag3
(g4
g5
(dp3680
g14
S''
sg17
g32
sg18
S''
sg20
g21
sg19
S''
sg15
g32
sg28
Nsg22
g33
stRp3681
ag3
(g4
g5
(dp3682
g14
S''
sg17
g36
sg18
S''
sg20
g27
sg19
S''
sg15
g36
sg28
Nsg22
g37
stRp3683
ag3
(g4
g5
(dp3684
g14
S''
sg40
g1907
sg18
S''
sg42
g1908
sg19
S''
sg15
g1907
sg28
Nsg44
g1909
stRp3685
ag3
(g4
g5
(dp3686
g14
S''
sg40
g1912
sg18
S''
sg42
g1913
sg19
S''
sg15
g1912
sg28
Nsg44
g1914
stRp3687
ag3
(g4
g5
(dp3688
g14
S''
sg40
g1917
sg18
S''
sg42
g1918
sg19
S''
sg15
g1917
sg28
Nsg44
g1919
stRp3689
ag3
(g4
g5
(dp3690
g14
S''
sg40
g1922
sg18
S''
sg42
g1923
sg19
S''
sg15
g1922
sg28
Nsg44
g1924
stRp3691
ag3
(g4
g5
(dp3692
g14
S''
sg40
g1927
sg18
S''
sg42
g1928
sg19
S''
sg15
g1927
sg28
Nsg44
g1929
stRp3693
atRp3694
sg68
g3672
sg69
S'1'
sg70
g71
sg44
S'Stores mapping changes for clients mapping graph depot content'
p3695
sg42
S'View'
p3696
sg74
S'23'
p3697
sg40
S'db.haveview'
p3698
stRp3699
sS'ixtexthx'
p3700
g3
(g4
g5
(dp3701
g7
S'type, word, attr, value'
p3702
sg9
g3
(g10
g11
(lp3703
g3
(g4
g5
(dp3704
g14
S''
sg15
g16
sg17
g16
sg18
S''
sg19
S''
sg20
g21
sg22
g23
stRp3705
ag3
(g4
g5
(dp3706
g14
S''
sg17
g26
sg18
S''
sg20
g27
sg19
S''
sg15
g26
sg28
Nsg22
g29
stRp3707
ag3
(g4
g5
(dp3708
g14
S''
sg17
g32
sg18
S''
sg20
g21
sg19
S''
sg15
g32
sg28
Nsg22
g33
stRp3709
ag3
(g4
g5
(dp3710
g14
S''
sg17
g36
sg18
S''
sg20
g27
sg19
S''
sg15
g36
sg28
Nsg22
g37
stRp3711
ag3
(g4
g5
(dp3712
g14
S''
sg40
S'type'
p3713
sg18
S''
sg42
S'String'
p3714
sg19
S''
sg15
g3713
sg28
Nsg44
S'The type'
p3715
stRp3716
ag3
(g4
g5
(dp3717
g14
S''
sg40
S'word'
p3718
sg18
S''
sg42
S'String'
p3719
sg19
S''
sg15
g3718
sg28
Nsg44
S'The word being indexed'
p3720
stRp3721
ag3
(g4
g5
(dp3722
g14
S''
sg40
S'attr'
p3723
sg18
S''
sg42
S'Int'
p3724
sg19
S''
sg15
g3723
sg28
Nsg44
S'The attribute number to which this word belongs.'
p3725
stRp3726
ag3
(g4
g5
(dp3727
g14
S''
sg40
S'value'
p3728
sg18
S''
sg42
S'String'
p3729
sg19
S''
sg15
g3728
sg28
Nsg44
S'The value of the index keyed by the word.'
p3730
stRp3731
atRp3732
sg68
g3700
sg69
S'0'
sg70
g71
sg44
S'Indexing data for head revsion of all spec fields (for future use)'
p3733
sg42
S'IndexTextHx'
p3734
sg74
S'74'
p3735
sg40
S'db.ixtexthx'
p3736
stRp3737
sS'templatesx'
p3738
g3
(g4
g5
(dp3739
g7
S'shelf, name, sequence'
p3740
sg9
g3
(g10
g11
(lp3741
g3
(g4
g5
(dp3742
g14
S''
sg15
g16
sg17
g16
sg18
S''
sg19
S''
sg20
g21
sg22
g23
stRp3743
ag3
(g4
g5
(dp3744
g14
S''
sg17
g26
sg18
S''
sg20
g27
sg19
S''
sg15
g26
sg28
Nsg22
g29
stRp3745
ag3
(g4
g5
(dp3746
g14
S''
sg17
g32
sg18
S''
sg20
g21
sg19
S''
sg15
g32
sg28
Nsg22
g33
stRp3747
ag3
(g4
g5
(dp3748
g14
S''
sg17
g36
sg18
S''
sg20
g27
sg19
S''
sg15
g36
sg28
Nsg22
g37
stRp3749
ag3
(g4
g5
(dp3750
g14
S''
sg40
S'shelf'
p3751
sg18
S''
sg42
S'Change'
p3752
sg19
S''
sg15
g3751
sg28
Nsg44
S'Shelf changelist number'
p3753
stRp3754
ag3
(g4
g5
(dp3755
g14
S''
sg40
S'name'
p3756
sg18
S''
sg42
S'Domain'
p3757
sg19
S''
sg15
g3756
sg28
Nsg44
S'Stream name'
p3758
stRp3759
ag3
(g4
g5
(dp3760
g14
S''
sg40
S'seq'
p3761
sg18
S''
sg42
S'Int'
p3762
sg19
S''
sg15
g3761
sg28
Nsg44
S'Sequence (line) number'
p3763
stRp3764
ag3
(g4
g5
(dp3765
g14
S''
sg40
S'change'
p3766
sg18
S''
sg42
S'Change'
p3767
sg19
S''
sg15
g3766
sg28
Nsg44
S'Versioned at change'
p3768
stRp3769
ag3
(g4
g5
(dp3770
g14
S''
sg40
S'parent'
p3771
sg18
S''
sg42
S'Domain'
p3772
sg19
S''
sg15
g3771
sg28
Nsg44
S'Parent stream name'
p3773
stRp3774
ag3
(g4
g5
(dp3775
g14
S''
sg40
S'type'
p3776
sg18
S''
sg42
S'StreamType'
p3777
sg19
S''
sg15
g3776
sg28
Nsg44
S'Type of stream'
p3778
stRp3779
ag3
(g4
g5
(dp3780
g14
S''
sg40
S'path'
p3781
sg18
S''
sg42
S'StreamPathType'
p3782
sg19
S''
sg15
g3781
sg28
Nsg44
S'Stream path type'
p3783
stRp3784
ag3
(g4
g5
(dp3785
g14
S''
sg40
S'viewFile'
p3786
sg18
S''
sg42
S'Mapping'
p3787
sg19
S''
sg15
g3786
sg28
Nsg44
S'View file (left hand side of path)'
p3788
stRp3789
ag3
(g4
g5
(dp3790
g14
S''
sg40
S'depotFile'
p3791
sg18
S''
sg42
S'Mapping'
p3792
sg19
S''
sg15
g3791
sg28
Nsg44
S'Depot file (right hand side of path)'
p3793
stRp3794
ag3
(g4
g5
(dp3795
g14
S''
sg40
S'changeMap'
p3796
sg18
S''
sg42
S'Value'
p3797
sg19
S''
sg15
g3796
sg28
Nsg44
S"Stream 'import' path changelist specifier. The changelist\n\t\t\tlimits in effect for a given client are displayed in a\n\t    \tread-only client spec field called 'ChangeView'"
p3798
stRp3799
atRp3800
sg68
g3738
sg69
S'0'
sg70
g71
sg44
S'Shelved stream templates'
p3801
sg42
S'TemplateSx'
p3802
sg74
S'19'
p3803
sg40
S'db.templatesx'
p3804
stRp3805
sS'uxtext'
p3806
g3
(g4
g5
(dp3807
g7
S'word, attr, value'
p3808
sg9
g3
(g10
g11
(lp3809
g3
(g4
g5
(dp3810
g14
S''
sg15
g16
sg17
g16
sg18
S''
sg19
S''
sg20
g21
sg22
g23
stRp3811
ag3
(g4
g5
(dp3812
g14
S''
sg17
g26
sg18
S''
sg20
g27
sg19
S''
sg15
g26
sg28
Nsg22
g29
stRp3813
ag3
(g4
g5
(dp3814
g14
S''
sg17
g32
sg18
S''
sg20
g21
sg19
S''
sg15
g32
sg28
Nsg22
g33
stRp3815
ag3
(g4
g5
(dp3816
g14
S''
sg17
g36
sg18
S''
sg20
g27
sg19
S''
sg15
g36
sg28
Nsg22
g37
stRp3817
ag3
(g4
g5
(dp3818
g14
S''
sg40
g226
sg18
S''
sg42
g227
sg19
S''
sg15
g226
sg28
Nsg44
g228
stRp3819
ag3
(g4
g5
(dp3820
g14
S''
sg40
g231
sg18
S''
sg42
g232
sg19
S''
sg15
g231
sg28
Nsg44
g233
stRp3821
ag3
(g4
g5
(dp3822
g14
S''
sg40
g236
sg18
S''
sg42
g237
sg19
S''
sg15
g236
sg28
Nsg44
g238
stRp3823
atRp3824
sg68
g3806
sg69
S'0'
sg70
g71
sg44
S'Indexing data for Swarm'
p3825
sg42
S'IndexText'
p3826
sg74
S'75'
p3827
sg40
S'db.uxtext'
p3828
stRp3829
sS'bodtextwx'
p3830
g3
(g4
g5
(dp3831
g7
S'type, client, key, attr'
p3832
sg9
g3
(g10
g11
(lp3833
g3
(g4
g5
(dp3834
g14
S''
sg15
g16
sg17
g16
sg18
S''
sg19
S''
sg20
g21
sg22
g23
stRp3835
ag3
(g4
g5
(dp3836
g14
S''
sg17
g26
sg18
S''
sg20
g27
sg19
S''
sg15
g26
sg28
Nsg22
g29
stRp3837
ag3
(g4
g5
(dp3838
g14
S''
sg17
g32
sg18
S''
sg20
g21
sg19
S''
sg15
g32
sg28
Nsg22
g33
stRp3839
ag3
(g4
g5
(dp3840
g14
S''
sg17
g36
sg18
S''
sg20
g27
sg19
S''
sg15
g36
sg28
Nsg22
g37
stRp3841
ag3
(g4
g5
(dp3842
g14
S''
sg40
S'type'
p3843
sg18
S''
sg42
S'Int'
p3844
sg19
S''
sg15
g3843
sg28
Nsg44
S'The type of spec'
p3845
stRp3846
ag3
(g4
g5
(dp3847
g14
S''
sg40
S'client'
p3848
sg18
S''
sg42
S'String'
p3849
sg19
S''
sg15
g3848
sg28
Nsg44
S'The client the spec is opened on'
p3850
stRp3851
ag3
(g4
g5
(dp3852
g14
S''
sg40
S'key'
p3853
sg18
S''
sg42
S'String'
p3854
sg19
S''
sg15
g3853
sg28
Nsg44
S'The spec to which this attribute belongs'
p3855
stRp3856
ag3
(g4
g5
(dp3857
g14
S''
sg40
S'attr'
p3858
sg18
S''
sg42
S'Int'
p3859
sg19
S''
sg15
g3858
sg28
Nsg44
S'The attribute number of this attribute'
p3860
stRp3861
ag3
(g4
g5
(dp3862
g14
S''
sg40
S'text'
p3863
sg18
S''
sg42
S'Text'
p3864
sg19
S''
sg15
g3863
sg28
Nsg44
S'The attribute value'
p3865
stRp3866
ag3
(g4
g5
(dp3867
g14
S''
sg40
S'workChange'
p3868
sg18
S''
sg42
S'Change'
p3869
sg19
S''
sg15
g3868
sg28
Nsg44
S'The working change'
p3870
stRp3871
atRp3872
sg68
g3830
sg69
S'0'
sg70
g71
sg44
S'Open openable spec fields (for future use)'
p3873
sg42
S'BodyTextWx'
p3874
sg74
S'72'
p3875
sg40
S'db.bodtextwx'
p3876
stRp3877
sS'stash'
p3878
g3
(g4
g5
(dp3879
g7
S'client, stream, type, seq'
p3880
sg9
g3
(g10
g11
(lp3881
g3
(g4
g5
(dp3882
g14
S''
sg15
g16
sg17
g16
sg18
S''
sg19
S''
sg20
g21
sg22
g23
stRp3883
ag3
(g4
g5
(dp3884
g14
S''
sg17
g26
sg18
S''
sg20
g27
sg19
S''
sg15
g26
sg28
Nsg22
g29
stRp3885
ag3
(g4
g5
(dp3886
g14
S''
sg17
g32
sg18
S''
sg20
g21
sg19
S''
sg15
g32
sg28
Nsg22
g33
stRp3887
ag3
(g4
g5
(dp3888
g14
S''
sg17
g36
sg18
S''
sg20
g27
sg19
S''
sg15
g36
sg28
Nsg22
g37
stRp3889
ag3
(g4
g5
(dp3890
g14
S''
sg40
S'client'
p3891
sg18
S''
sg42
S'Domain'
p3892
sg19
S''
sg15
g3891
sg28
Nsg44
S'Client the stash refers to'
p3893
stRp3894
ag3
(g4
g5
(dp3895
g14
S''
sg40
S'stream'
p3896
sg18
S''
sg42
S'Domain'
p3897
sg19
S''
sg15
g3896
sg28
Nsg44
S'Stream the stash refers to'
p3898
stRp3899
ag3
(g4
g5
(dp3900
g14
S''
sg40
S'type'
p3901
sg18
S''
sg42
S'StashType'
p3902
sg19
S''
sg15
g3901
sg28
Nsg44
S'Stash type'
p3903
stRp3904
ag3
(g4
g5
(dp3905
g14
S''
sg40
S'seq'
p3906
sg18
S''
sg42
S'Int'
p3907
sg19
S''
sg15
g3906
sg28
Nsg44
S'Sequence number'
p3908
stRp3909
ag3
(g4
g5
(dp3910
g14
S''
sg40
S'change'
p3911
sg18
S''
sg42
S'Change'
p3912
sg19
S''
sg15
g3911
sg28
Nsg44
S'Stash change number'
p3913
stRp3914
atRp3915
sg68
g3878
sg69
S'0'
sg70
g71
sg44
S'Stash data'
p3916
sg42
S'Stash'
p3917
sg74
S'10'
p3918
sg40
S'db.stash'
p3919
stRp3920
sS'graphperm'
p3921
g3
(g4
g5
(dp3922
g7
S'name, repo, ref, type, user, perm'
p3923
sg9
g3
(g10
g11
(lp3924
g3
(g4
g5
(dp3925
g14
S''
sg15
g16
sg17
g16
sg18
S''
sg19
S''
sg20
g21
sg22
g23
stRp3926
ag3
(g4
g5
(dp3927
g14
S''
sg17
g26
sg18
S''
sg20
g27
sg19
S''
sg15
g26
sg28
Nsg22
g29
stRp3928
ag3
(g4
g5
(dp3929
g14
S''
sg17
g32
sg18
S''
sg20
g21
sg19
S''
sg15
g32
sg28
Nsg22
g33
stRp3930
ag3
(g4
g5
(dp3931
g14
S''
sg17
g36
sg18
S''
sg20
g27
sg19
S''
sg15
g36
sg28
Nsg22
g37
stRp3932
ag3
(g4
g5
(dp3933
g14
S''
sg40
S'name'
p3934
sg18
S''
sg42
S'Domain'
p3935
sg19
S''
sg15
g3934
sg28
Nsg44
S'Graph depot name'
p3936
stRp3937
ag3
(g4
g5
(dp3938
g14
S''
sg40
S'repo'
p3939
sg18
S''
sg42
S'String'
p3940
sg19
S''
sg15
g3939
sg28
Nsg44
S'Repository name'
p3941
stRp3942
ag3
(g4
g5
(dp3943
g14
S''
sg40
S'ref'
p3944
sg18
S''
sg42
S'String'
p3945
sg19
S''
sg15
g3944
sg28
Nsg44
S'Reference'
p3946
stRp3947
ag3
(g4
g5
(dp3948
g14
S''
sg40
S'type'
p3949
sg18
S''
sg42
S'UserType'
p3950
sg19
S''
sg15
g3949
sg28
Nsg44
S'Type of user'
p3951
stRp3952
ag3
(g4
g5
(dp3953
g14
S''
sg40
S'user'
p3954
sg18
S''
sg42
S'User'
p3955
sg19
S''
sg15
g3954
sg28
Nsg44
S'User or Group for permission'
p3956
stRp3957
ag3
(g4
g5
(dp3958
g14
S''
sg40
S'perm'
p3959
sg18
S''
sg42
S'GraphPermType'
p3960
sg19
S''
sg15
g3959
sg28
Nsg44
S'Permission'
p3961
stRp3962
atRp3963
sg68
g3921
sg69
S'0'
sg70
g71
sg44
S'Graph depot permissions'
p3964
sg42
S'GraphPerm'
p3965
sg74
S'61'
p3966
sg40
S'db.graphperm'
p3967
stRp3968
sS'templatewx'
p3969
g3
(g4
g5
(dp3970
g7
S'client, name, sequence'
p3971
sg9
g3
(g10
g11
(lp3972
g3
(g4
g5
(dp3973
g14
S''
sg15
g16
sg17
g16
sg18
S''
sg19
S''
sg20
g21
sg22
g23
stRp3974
ag3
(g4
g5
(dp3975
g14
S''
sg17
g26
sg18
S''
sg20
g27
sg19
S''
sg15
g26
sg28
Nsg22
g29
stRp3976
ag3
(g4
g5
(dp3977
g14
S''
sg17
g32
sg18
S''
sg20
g21
sg19
S''
sg15
g32
sg28
Nsg22
g33
stRp3978
ag3
(g4
g5
(dp3979
g14
S''
sg17
g36
sg18
S''
sg20
g27
sg19
S''
sg15
g36
sg28
Nsg22
g37
stRp3980
ag3
(g4
g5
(dp3981
g14
S''
sg40
S'client'
p3982
sg18
S''
sg42
S'Domain'
p3983
sg19
S''
sg15
g3982
sg28
Nsg44
S'Stream client'
p3984
stRp3985
ag3
(g4
g5
(dp3986
g14
S''
sg40
S'name'
p3987
sg18
S''
sg42
S'Domain'
p3988
sg19
S''
sg15
g3987
sg28
Nsg44
S'Stream name'
p3989
stRp3990
ag3
(g4
g5
(dp3991
g14
S''
sg40
S'seq'
p3992
sg18
S''
sg42
S'Int'
p3993
sg19
S''
sg15
g3992
sg28
Nsg44
S'Sequence (line) number'
p3994
stRp3995
ag3
(g4
g5
(dp3996
g14
S''
sg40
S'change'
p3997
sg18
S''
sg42
S'Change'
p3998
sg19
S''
sg15
g3997
sg28
Nsg44
S'Versioned at change'
p3999
stRp4000
ag3
(g4
g5
(dp4001
g14
S''
sg40
S'parent'
p4002
sg18
S''
sg42
S'Domain'
p4003
sg19
S''
sg15
g4002
sg28
Nsg44
S'Parent stream name'
p4004
stRp4005
ag3
(g4
g5
(dp4006
g14
S''
sg40
S'type'
p4007
sg18
S''
sg42
S'StreamType'
p4008
sg19
S''
sg15
g4007
sg28
Nsg44
S'Type of stream'
p4009
stRp4010
ag3
(g4
g5
(dp4011
g14
S''
sg40
S'path'
p4012
sg18
S''
sg42
S'StreamPathType'
p4013
sg19
S''
sg15
g4012
sg28
Nsg44
S'Stream path type'
p4014
stRp4015
ag3
(g4
g5
(dp4016
g14
S''
sg40
S'viewFile'
p4017
sg18
S''
sg42
S'Mapping'
p4018
sg19
S''
sg15
g4017
sg28
Nsg44
S'View file (left hand side of path)'
p4019
stRp4020
ag3
(g4
g5
(dp4021
g14
S''
sg40
S'depotFile'
p4022
sg18
S''
sg42
S'Mapping'
p4023
sg19
S''
sg15
g4022
sg28
Nsg44
S'Depot file (right hand side of path)'
p4024
stRp4025
ag3
(g4
g5
(dp4026
g14
S''
sg40
S'changeMap'
p4027
sg18
S''
sg42
S'Value'
p4028
sg19
S''
sg15
g4027
sg28
Nsg44
S"Stream 'import' path changelist specifier. The changelist\n\t\t\tlimits in effect for a given client are displayed in a\n\t    \tread-only client spec field called 'ChangeView'"
p4029
stRp4030
atRp4031
sg68
g3969
sg69
S'0'
sg70
g71
sg44
S'Pending stream templates'
p4032
sg42
S'TemplateWx'
p4033
sg74
S'20'
p4034
sg40
S'db.templatewx'
p4035
stRp4036
sS'bodtext'
p4037
g3
(g4
g5
(dp4038
g7
S'key, attr'
p4039
sg9
g3
(g10
g11
(lp4040
g3
(g4
g5
(dp4041
g14
S''
sg15
g16
sg17
g16
sg18
S''
sg19
S''
sg20
g21
sg22
g23
stRp4042
ag3
(g4
g5
(dp4043
g14
S''
sg17
g26
sg18
S''
sg20
g27
sg19
S''
sg15
g26
sg28
Nsg22
g29
stRp4044
ag3
(g4
g5
(dp4045
g14
S''
sg17
g32
sg18
S''
sg20
g21
sg19
S''
sg15
g32
sg28
Nsg22
g33
stRp4046
ag3
(g4
g5
(dp4047
g14
S''
sg17
g36
sg18
S''
sg20
g27
sg19
S''
sg15
g36
sg28
Nsg22
g37
stRp4048
ag3
(g4
g5
(dp4049
g14
S''
sg40
S'key'
p4050
sg18
S''
sg42
S'String'
p4051
sg19
S''
sg15
g4050
sg28
Nsg44
S'The job to which this attribute belongs'
p4052
stRp4053
ag3
(g4
g5
(dp4054
g14
S''
sg40
S'attr'
p4055
sg18
S''
sg42
S'Int'
p4056
sg19
S''
sg15
g4055
sg28
Nsg44
S'The attribute number (from the jobspec) of this attribute'
p4057
stRp4058
ag3
(g4
g5
(dp4059
g14
S''
sg40
S'isBulk'
p4060
sg18
S''
sg42
S'Int'
p4061
sg19
S''
sg15
g4060
sg28
Nsg44
S'Indicates whether (1), or not (0) the field is a bulk\n\t\t    text field that should not be indexed.'
p4062
stRp4063
ag3
(g4
g5
(dp4064
g14
S''
sg40
S'text'
p4065
sg18
S''
sg42
S'Text'
p4066
sg19
S''
sg15
g4065
sg28
Nsg44
S'The attribute value'
p4067
stRp4068
atRp4069
sg68
g4037
sg69
S'1'
sg70
g71
sg44
S'Job data for job attributes'
p4070
sg42
S'BodyText'
p4071
sg74
S'68'
p4072
sg40
S'db.bodtext'
p4073
stRp4074
sS'revcx'
p4075
g3
(g4
g5
(dp4076
g7
S'change, depotFile'
p4077
sg9
g3
(g10
g11
(lp4078
g3
(g4
g5
(dp4079
g14
S''
sg15
g16
sg17
g16
sg18
S''
sg19
S''
sg20
g21
sg22
g23
stRp4080
ag3
(g4
g5
(dp4081
g14
S''
sg17
g26
sg18
S''
sg20
g27
sg19
S''
sg15
g26
sg28
Nsg22
g29
stRp4082
ag3
(g4
g5
(dp4083
g14
S''
sg17
g32
sg18
S''
sg20
g21
sg19
S''
sg15
g32
sg28
Nsg22
g33
stRp4084
ag3
(g4
g5
(dp4085
g14
S''
sg17
g36
sg18
S''
sg20
g27
sg19
S''
sg15
g36
sg28
Nsg22
g37
stRp4086
ag3
(g4
g5
(dp4087
g14
S''
sg40
S'change'
p4088
sg18
S''
sg42
S'Change'
p4089
sg19
S''
sg15
g4088
sg28
Nsg44
S'The changelist that created the revision'
p4090
stRp4091
ag3
(g4
g5
(dp4092
g14
S''
sg40
S'depotFile'
p4093
sg18
S''
sg42
S'File'
p4094
sg19
S''
sg15
g4093
sg28
Nsg44
S'The file name'
p4095
stRp4096
ag3
(g4
g5
(dp4097
g14
S''
sg40
S'depotRev'
p4098
sg18
S''
sg42
S'Rev'
p4099
sg19
S''
sg15
g4098
sg28
Nsg44
S'The revision number'
p4100
stRp4101
ag3
(g4
g5
(dp4102
g14
S''
sg40
S'action'
p4103
sg18
S''
sg42
S'Action'
p4104
sg19
S''
sg15
g4103
sg28
Nsg44
S'The action that created the revision'
p4105
stRp4106
atRp4107
sg68
g4075
sg69
S'0'
sg70
g71
sg44
S'Secondary index of db.rev'
p4108
sg42
S'RevCx'
p4109
sg74
S'42'
p4110
sg40
S'db.revcx'
p4111
stRp4112
sS'viewrp'
p4113
g3
(g4
g5
(dp4114
g7
S'name seq'
p4115
sg9
g3
(g10
g11
(lp4116
g3
(g4
g5
(dp4117
g14
S''
sg15
g16
sg17
g16
sg18
S''
sg19
S''
sg20
g21
sg22
g23
stRp4118
ag3
(g4
g5
(dp4119
g14
S''
sg17
g26
sg18
S''
sg20
g27
sg19
S''
sg15
g26
sg28
Nsg22
g29
stRp4120
ag3
(g4
g5
(dp4121
g14
S''
sg17
g32
sg18
S''
sg20
g21
sg19
S''
sg15
g32
sg28
Nsg22
g33
stRp4122
ag3
(g4
g5
(dp4123
g14
S''
sg17
g36
sg18
S''
sg20
g27
sg19
S''
sg15
g36
sg28
Nsg22
g37
stRp4124
ag3
(g4
g5
(dp4125
g14
S''
sg40
g1907
sg18
S''
sg42
g1908
sg19
S''
sg15
g1907
sg28
Nsg44
g1909
stRp4126
ag3
(g4
g5
(dp4127
g14
S''
sg40
g1912
sg18
S''
sg42
g1913
sg19
S''
sg15
g1912
sg28
Nsg44
g1914
stRp4128
ag3
(g4
g5
(dp4129
g14
S''
sg40
g1917
sg18
S''
sg42
g1918
sg19
S''
sg15
g1917
sg28
Nsg44
g1919
stRp4130
ag3
(g4
g5
(dp4131
g14
S''
sg40
g1922
sg18
S''
sg42
g1923
sg19
S''
sg15
g1922
sg28
Nsg44
g1924
stRp4132
ag3
(g4
g5
(dp4133
g14
S''
sg40
g1927
sg18
S''
sg42
g1928
sg19
S''
sg15
g1927
sg28
Nsg44
g1929
stRp4134
atRp4135
sg68
g4113
sg69
S'1'
sg70
g71
sg44
S'View data for clients of build-server replicas'
p4136
sg42
S'View'
p4137
sg74
S'21'
p4138
sg40
S'db.view.rp'
p4139
stRp4140
sS'changex'
p4141
g3
(g4
g5
(dp4142
g7
S'change'
p4143
sg9
g3
(g10
g11
(lp4144
g3
(g4
g5
(dp4145
g14
S''
sg15
g16
sg17
g16
sg18
S''
sg19
S''
sg20
g21
sg22
g23
stRp4146
ag3
(g4
g5
(dp4147
g14
S''
sg17
g26
sg18
S''
sg20
g27
sg19
S''
sg15
g26
sg28
Nsg22
g29
stRp4148
ag3
(g4
g5
(dp4149
g14
S''
sg17
g32
sg18
S''
sg20
g21
sg19
S''
sg15
g32
sg28
Nsg22
g33
stRp4150
ag3
(g4
g5
(dp4151
g14
S''
sg17
g36
sg18
S''
sg20
g27
sg19
S''
sg15
g36
sg28
Nsg22
g37
stRp4152
ag3
(g4
g5
(dp4153
g14
S''
sg40
g833
sg18
S''
sg42
g834
sg19
S''
sg15
g833
sg28
Nsg44
g835
stRp4154
ag3
(g4
g5
(dp4155
g14
S''
sg40
g838
sg18
S''
sg42
g839
sg19
S''
sg15
g838
sg28
Nsg44
g840
stRp4156
ag3
(g4
g5
(dp4157
g14
S''
sg40
g843
sg18
S''
sg42
g844
sg19
S''
sg15
g843
sg28
Nsg44
g845
stRp4158
ag3
(g4
g5
(dp4159
g14
S''
sg40
g848
sg18
S''
sg42
g849
sg19
S''
sg15
g848
sg28
Nsg44
g850
stRp4160
ag3
(g4
g5
(dp4161
g14
S''
sg40
g853
sg18
S''
sg42
g854
sg19
S''
sg15
g853
sg28
Nsg44
g855
stRp4162
ag3
(g4
g5
(dp4163
g14
S''
sg40
g858
sg18
S''
sg42
g859
sg19
S''
sg15
g858
sg28
Nsg44
g860
stRp4164
ag3
(g4
g5
(dp4165
g14
S''
sg40
g863
sg18
S''
sg42
g864
sg19
S''
sg15
g863
sg28
Nsg44
g865
stRp4166
ag3
(g4
g5
(dp4167
g14
S''
sg40
g868
sg18
S''
sg42
g869
sg19
S''
sg15
g868
sg28
Nsg44
g870
stRp4168
ag3
(g4
g5
(dp4169
g14
S''
sg40
g873
sg18
S''
sg42
g874
sg19
S''
sg15
g873
sg28
Nsg44
g875
stRp4170
ag3
(g4
g5
(dp4171
g14
S''
sg40
g878
sg18
S''
sg42
g879
sg19
S''
sg15
g878
sg28
Nsg44
g880
stRp4172
ag3
(g4
g5
(dp4173
g14
S''
sg40
g883
sg18
S''
sg42
g884
sg19
S''
sg15
g883
sg28
Nsg44
g885
stRp4174
atRp4175
sg68
g4141
sg160
S'contains records for pending changelists only.'
p4176
sg69
S'4'
sg70
g71
sg44
S'Subset of db.change - records for pending changelists only'
p4177
sg42
S'Change'
p4178
sg74
S'54'
p4179
sg40
S'db.changex'
p4180
stRp4181
s.