(dp1
S'domain'
p2
ccopy_reg
_reconstructor
p3
(clib.sqUtils
Storage
p4
c__builtin__
dict
p5
(dp6
S'keying'
p7
S'name'
p8
sS'fields'
p9
g3
(clib.sqUtils
Lst
p10
c__builtin__
list
p11
(lp12
g3
(g4
g5
(dp13
S'comment'
p14
S''
sS'fieldname'
p15
S'id'
p16
sS'name'
p17
g16
sS'default'
p18
S''
sS'label'
p19
S''
sS'type'
p20
S'integer'
p21
sS'desc'
p22
S'Record number as read in'
p23
stRp24
ag3
(g4
g5
(dp25
g14
S''
sg17
S'db_action'
p26
sg18
S''
sg20
S'string'
p27
sg19
S''
sg15
g26
sS'requires'
p28
Nsg22
S'Operation on table'
p29
stRp30
ag3
(g4
g5
(dp31
g14
S''
sg17
S'table_revision'
p32
sg18
S''
sg20
g21
sg19
S''
sg15
g32
sg28
Nsg22
S'Revision of the p4 schema table'
p33
stRp34
ag3
(g4
g5
(dp35
g14
S''
sg17
S'table_name'
p36
sg18
S''
sg20
g27
sg19
S''
sg15
g36
sg28
Nsg22
S'Redundant... but this is the table name'
p37
stRp38
ag3
(g4
g5
(dp39
g14
S''
sS'name'
p40
S'name'
p41
sg18
S''
sS'type'
p42
S'Domain'
p43
sg19
S''
sg15
g41
sg28
NsS'desc'
p44
S'Domain name'
p45
stRp46
ag3
(g4
g5
(dp47
g14
S''
sg40
S'type'
p48
sg18
S''
sg42
S'DomainType'
p49
sg19
S''
sg15
g48
sg28
Nsg44
S'Type of domain'
p50
stRp51
ag3
(g4
g5
(dp52
g14
S''
sg40
S'extra'
p53
sg18
S''
sg42
S'Text'
p54
sg19
S''
sg15
g53
sg28
Nsg44
S'Formerly "host". Associated host or, for labels, revision \n\t\t    number.'
p55
stRp56
ag3
(g4
g5
(dp57
g14
S''
sg40
S'mount'
p58
sg18
S''
sg42
S'Text'
p59
sg19
S''
sg15
g58
sg28
Nsg44
S'The client root'
p60
stRp61
ag3
(g4
g5
(dp62
g14
S''
sg40
S'mount2'
p63
sg18
S''
sg42
S'Text'
p64
sg19
S''
sg15
g63
sg28
Nsg44
S'Alternate client root'
p65
stRp66
ag3
(g4
g5
(dp67
g14
S''
sg40
S'mount3'
p68
sg18
S''
sg42
S'Text'
p69
sg19
S''
sg15
g68
sg28
Nsg44
S'Alternate client root'
p70
stRp71
ag3
(g4
g5
(dp72
g14
S''
sg40
S'owner'
p73
sg18
S''
sg42
S'User'
p74
sg19
S''
sg15
g73
sg28
Nsg44
S'Name of user who owns the domain.'
p75
stRp76
ag3
(g4
g5
(dp77
g14
S''
sg40
S'updateDate'
p78
sg18
S''
sg42
S'Date'
p79
sg19
S''
sg15
g78
sg28
Nsg44
S'Date of last update to domain specification.'
p80
stRp81
ag3
(g4
g5
(dp82
g14
S''
sg40
S'accessDate'
p83
sg18
S''
sg42
S'Date'
p84
sg19
S''
sg15
g83
sg28
Nsg44
S'Date of last access to domain specification.'
p85
stRp86
ag3
(g4
g5
(dp87
g14
S''
sg40
S'options'
p88
sg18
S''
sg42
S'DomainOpts'
p89
sg19
S''
sg15
g88
sg28
Nsg44
S'Options for client, label, and branch domains.'
p90
stRp91
ag3
(g4
g5
(dp92
g14
S''
sg40
S'description'
p93
sg18
S''
sg42
S'Text'
p94
sg19
S''
sg15
g93
sg28
Nsg44
S'Description of domain.'
p95
stRp96
atRp97
sS'tablename'
p98
g2
sS'version'
p99
S'4'
sS'schemaversion'
p100
S'2009.1'
p101
sg44
S'Domains: depots, clients, labels, branches and typemap'
p102
sg42
S'Domain'
p103
sS'lockseq'
p104
S'6'
sg40
S'db.domain'
p105
stRp106
sS'fixrev'
p107
g3
(g4
g5
(dp108
g7
S'change, job'
p109
sg9
g3
(g10
g11
(lp110
g3
(g4
g5
(dp111
g14
S''
sg15
g16
sg17
g16
sg18
S''
sg19
S''
sg20
g21
sg22
g23
stRp112
ag3
(g4
g5
(dp113
g14
S''
sg17
g26
sg18
S''
sg20
g27
sg19
S''
sg15
g26
sg28
Nsg22
g29
stRp114
ag3
(g4
g5
(dp115
g14
S''
sg17
g32
sg18
S''
sg20
g21
sg19
S''
sg15
g32
sg28
Nsg22
g33
stRp116
ag3
(g4
g5
(dp117
g14
S''
sg17
g36
sg18
S''
sg20
g27
sg19
S''
sg15
g36
sg28
Nsg22
g37
stRp118
ag3
(g4
g5
(dp119
g14
S''
sg40
S'job'
p120
sg18
S''
sg42
S'String'
p121
sg19
S''
sg15
g120
sg28
Nsg44
S'Job name'
p122
stRp123
ag3
(g4
g5
(dp124
g14
S''
sg40
S'change'
p125
sg18
S''
sg42
S'Change'
p126
sg19
S''
sg15
g125
sg28
Nsg44
S'Changelist number'
p127
stRp128
ag3
(g4
g5
(dp129
g14
S''
sg40
S'date'
p130
sg18
S''
sg42
S'Date'
p131
sg19
S''
sg15
g130
sg28
Nsg44
S'Date fix was recorded (may differ from date change was\n\t\t    submitted).'
p132
stRp133
ag3
(g4
g5
(dp134
g14
S''
sg40
S'status'
p135
sg18
S''
sg42
S'FixStatus'
p136
sg19
S''
sg15
g135
sg28
Nsg44
S'Status of the job'
p137
stRp138
ag3
(g4
g5
(dp139
g14
S''
sg40
S'client'
p140
sg18
S''
sg42
S'Domain'
p141
sg19
S''
sg15
g140
sg28
Nsg44
S'The client where the fix originated'
p142
stRp143
ag3
(g4
g5
(dp144
g14
S''
sg40
S'user'
p145
sg18
S''
sg42
S'User'
p146
sg19
S''
sg15
g145
sg28
Nsg44
S'The user who fixed the job'
p147
stRp148
atRp149
sg98
g107
sg40
S'db.fixrev'
p150
sg99
S'1'
sg100
g101
sS'seeAlso'
p151
S'db.fix'
p152
sg42
S'Fix'
p153
sg104
S'33'
p154
sg44
S'Fix records - indexed by change'
p155
stRp156
sS'traits'
p157
g3
(g4
g5
(dp158
g7
S'traitLot, name'
p159
sg9
g3
(g10
g11
(lp160
g3
(g4
g5
(dp161
g14
S''
sg15
g16
sg17
g16
sg18
S''
sg19
S''
sg20
g21
sg22
g23
stRp162
ag3
(g4
g5
(dp163
g14
S''
sg17
g26
sg18
S''
sg20
g27
sg19
S''
sg15
g26
sg28
Nsg22
g29
stRp164
ag3
(g4
g5
(dp165
g14
S''
sg17
g32
sg18
S''
sg20
g21
sg19
S''
sg15
g32
sg28
Nsg22
g33
stRp166
ag3
(g4
g5
(dp167
g14
S''
sg17
g36
sg18
S''
sg20
g27
sg19
S''
sg15
g36
sg28
Nsg22
g37
stRp168
ag3
(g4
g5
(dp169
g14
S''
sg40
S'traitLot'
p170
sg18
S''
sg42
S'Int'
p171
sg19
S''
sg15
g170
sg28
Nsg44
S'Indicates a specific collection of traits (referred to \n\t\t    externally as "attributes".)'
p172
stRp173
ag3
(g4
g5
(dp174
g14
S''
sg40
S'name'
p175
sg18
S''
sg42
S'String'
p176
sg19
S''
sg15
g175
sg28
Nsg44
S'Trait (attribute) name'
p177
stRp178
ag3
(g4
g5
(dp179
g14
S''
sg40
S'type'
p180
sg18
S''
sg42
S'TraitType'
p181
sg19
S''
sg15
g180
sg28
Nsg44
S'Type of trait'
p182
stRp183
ag3
(g4
g5
(dp184
g14
S''
sg40
S'value'
p185
sg18
S''
sg42
S'Octet String'
p186
sg19
S''
sg15
g185
sg28
Nsg44
S'The value'
p187
stRp188
atRp189
sg98
g157
sg99
S'0'
sg100
g101
sg44
S'Attributes associated with file revisions'
p190
sg42
S'Trait'
p191
sg104
S'24'
p192
sg40
S'db.traits'
p193
stRp194
sS'have'
p195
g3
(g4
g5
(dp196
g7
S'clientFile'
p197
sg9
g3
(g10
g11
(lp198
g3
(g4
g5
(dp199
g14
S''
sg15
g16
sg17
g16
sg18
S''
sg19
S''
sg20
g21
sg22
g23
stRp200
ag3
(g4
g5
(dp201
g14
S''
sg17
g26
sg18
S''
sg20
g27
sg19
S''
sg15
g26
sg28
Nsg22
g29
stRp202
ag3
(g4
g5
(dp203
g14
S''
sg17
g32
sg18
S''
sg20
g21
sg19
S''
sg15
g32
sg28
Nsg22
g33
stRp204
ag3
(g4
g5
(dp205
g14
S''
sg17
g36
sg18
S''
sg20
g27
sg19
S''
sg15
g36
sg28
Nsg22
g37
stRp206
ag3
(g4
g5
(dp207
g14
S''
sg40
S'clientFile'
p208
sg18
S''
sg42
S'File'
p209
sg19
S''
sg15
g208
sg28
Nsg44
S'The file in its location on the client'
p210
stRp211
ag3
(g4
g5
(dp212
g14
S''
sg40
S'depotFile'
p213
sg18
S''
sg42
S'File'
p214
sg19
S''
sg15
g213
sg28
Nsg44
S'The file in the depot'
p215
stRp216
ag3
(g4
g5
(dp217
g14
S''
sg40
S'haveRev'
p218
sg18
S''
sg42
S'Rev'
p219
sg19
S''
sg15
g218
sg28
Nsg44
S'The revision synced to the client'
p220
stRp221
ag3
(g4
g5
(dp222
g14
S''
sg40
S'type'
p223
sg18
S''
sg42
S'FileType'
p224
sg19
S''
sg15
g223
sg28
Nsg44
S'The filetype of the synced revision'
p225
stRp226
atRp227
sg98
g195
sg99
S'2'
sg100
g101
sg44
S"Contains the 'have-list' for all clients"
p228
sg42
S'Have'
p229
sg104
S'12'
p230
sg40
S'db.have'
p231
stRp232
sS'ixtext'
p233
g3
(g4
g5
(dp234
g7
S'word, attr, value'
p235
sg9
g3
(g10
g11
(lp236
g3
(g4
g5
(dp237
g14
S''
sg15
g16
sg17
g16
sg18
S''
sg19
S''
sg20
g21
sg22
g23
stRp238
ag3
(g4
g5
(dp239
g14
S''
sg17
g26
sg18
S''
sg20
g27
sg19
S''
sg15
g26
sg28
Nsg22
g29
stRp240
ag3
(g4
g5
(dp241
g14
S''
sg17
g32
sg18
S''
sg20
g21
sg19
S''
sg15
g32
sg28
Nsg22
g33
stRp242
ag3
(g4
g5
(dp243
g14
S''
sg17
g36
sg18
S''
sg20
g27
sg19
S''
sg15
g36
sg28
Nsg22
g37
stRp244
ag3
(g4
g5
(dp245
g14
S''
sg40
S'word'
p246
sg18
S''
sg42
S'String'
p247
sg19
S''
sg15
g246
sg28
Nsg44
S'The word being indexed'
p248
stRp249
ag3
(g4
g5
(dp250
g14
S''
sg40
S'attr'
p251
sg18
S''
sg42
S'Int'
p252
sg19
S''
sg15
g251
sg28
Nsg44
S'The attribute number (from the jobspec) to which this\n\t\t    word belongs'
p253
stRp254
ag3
(g4
g5
(dp255
g14
S''
sg40
S'value'
p256
sg18
S''
sg42
S'String'
p257
sg19
S''
sg15
g256
sg28
Nsg44
S'A job name'
p258
stRp259
atRp260
sg98
g233
sg40
S'db.ixtext'
p261
sg99
S'0'
sg100
g101
sg151
S'db.ixdate'
p262
sg42
S'IndexText'
p263
sg104
S'37'
p264
sg44
S'Indexing data for non-date-valued job attributes.'
p265
stRp266
sS'message'
p267
g3
(g4
g5
(dp268
g7
S'language, id'
p269
sg9
g3
(g10
g11
(lp270
g3
(g4
g5
(dp271
g14
S''
sg15
g16
sg17
g16
sg18
S''
sg19
S''
sg20
g21
sg22
g23
stRp272
ag3
(g4
g5
(dp273
g14
S''
sg17
g26
sg18
S''
sg20
g27
sg19
S''
sg15
g26
sg28
Nsg22
g29
stRp274
ag3
(g4
g5
(dp275
g14
S''
sg17
g32
sg18
S''
sg20
g21
sg19
S''
sg15
g32
sg28
Nsg22
g33
stRp276
ag3
(g4
g5
(dp277
g14
S''
sg17
g36
sg18
S''
sg20
g27
sg19
S''
sg15
g36
sg28
Nsg22
g37
stRp278
ag3
(g4
g5
(dp279
g14
S''
sg40
S'language'
p280
sg18
S''
sg42
S'String'
p281
sg19
S''
sg15
g280
sg28
Nsg44
S'The language for which this message applies'
p282
stRp283
ag3
(g4
g5
(dp284
g14
S''
sg40
S'id'
p285
sg18
S''
sg42
S'Int'
p286
sg19
S''
sg15
g285
sg28
Nsg44
S'The message number'
p287
stRp288
ag3
(g4
g5
(dp289
g14
S''
sg40
S'message'
p290
sg18
S''
sg42
S'String'
p291
sg19
S''
sg15
g290
sg28
Nsg44
S'The message text'
p292
stRp293
atRp294
sg98
g267
sg99
S'0'
sg100
g101
sg44
S'System messages'
p295
sg42
S'Message'
p296
sg104
S'39'
p297
sg40
S'db.message'
p298
stRp299
sS'label'
p300
g3
(g4
g5
(dp301
g7
S'name, depotFile'
p302
sg9
g3
(g10
g11
(lp303
g3
(g4
g5
(dp304
g14
S''
sg15
g16
sg17
g16
sg18
S''
sg19
S''
sg20
g21
sg22
g23
stRp305
ag3
(g4
g5
(dp306
g14
S''
sg17
g26
sg18
S''
sg20
g27
sg19
S''
sg15
g26
sg28
Nsg22
g29
stRp307
ag3
(g4
g5
(dp308
g14
S''
sg17
g32
sg18
S''
sg20
g21
sg19
S''
sg15
g32
sg28
Nsg22
g33
stRp309
ag3
(g4
g5
(dp310
g14
S''
sg17
g36
sg18
S''
sg20
g27
sg19
S''
sg15
g36
sg28
Nsg22
g37
stRp311
ag3
(g4
g5
(dp312
g14
S''
sg40
S'name'
p313
sg18
S''
sg42
S'Domain'
p314
sg19
S''
sg15
g313
sg28
Nsg44
S'Name of the label'
p315
stRp316
ag3
(g4
g5
(dp317
g14
S''
sg40
S'depotFile'
p318
sg18
S''
sg42
S'File'
p319
sg19
S''
sg15
g318
sg28
Nsg44
S'File name'
p320
stRp321
ag3
(g4
g5
(dp322
g14
S''
sg40
S'haveRev'
p323
sg18
S''
sg42
S'Rev'
p324
sg19
S''
sg15
g323
sg28
Nsg44
S'The revision of the file in the label'
p325
stRp326
atRp327
sg98
g300
sg99
S'0'
sg100
g101
sg44
S'Lists the revisions of files in labels.'
p328
sg42
S'Label'
p329
sg104
S'13'
p330
sg40
S'db.label'
p331
stRp332
sS'jobdesc'
p333
g3
(g4
g5
(dp334
g7
S'job'
p335
sg9
g3
(g10
g11
(lp336
g3
(g4
g5
(dp337
g14
S''
sg15
g16
sg17
g16
sg18
S''
sg19
S''
sg20
g21
sg22
g23
stRp338
ag3
(g4
g5
(dp339
g14
S''
sg17
g26
sg18
S''
sg20
g27
sg19
S''
sg15
g26
sg28
Nsg22
g29
stRp340
ag3
(g4
g5
(dp341
g14
S''
sg17
g32
sg18
S''
sg20
g21
sg19
S''
sg15
g32
sg28
Nsg22
g33
stRp342
ag3
(g4
g5
(dp343
g14
S''
sg17
g36
sg18
S''
sg20
g27
sg19
S''
sg15
g36
sg28
Nsg22
g37
stRp344
ag3
(g4
g5
(dp345
g14
S''
sg40
S'xjob'
p346
sg18
S''
sg42
S'String'
p347
sg19
S''
sg15
g346
sg28
Nsg44
S'The job name'
p348
stRp349
ag3
(g4
g5
(dp350
g14
S''
sg40
S'xdescription'
p351
sg18
S''
sg42
S'Text'
p352
sg19
S''
sg15
g351
sg28
Nsg44
S'Jobdescription'
p353
stRp354
atRp355
sg98
g333
sg40
S'db.jobdesc'
p356
sg99
S'0'
sg100
g101
sg151
g3
(g10
g11
(lp357
S'db.bodtext'
p358
aS'db.boddate'
p359
atRp360
sg42
S'JobDesc'
p361
sg104
S'31'
p362
sg44
S'Obsolete in 98.2'
p363
stRp364
sS'group'
p365
g3
(g4
g5
(dp366
g7
S'user, group'
p367
sg9
g3
(g10
g11
(lp368
g3
(g4
g5
(dp369
g14
S''
sg15
g16
sg17
g16
sg18
S''
sg19
S''
sg20
g21
sg22
g23
stRp370
ag3
(g4
g5
(dp371
g14
S''
sg17
g26
sg18
S''
sg20
g27
sg19
S''
sg15
g26
sg28
Nsg22
g29
stRp372
ag3
(g4
g5
(dp373
g14
S''
sg17
g32
sg18
S''
sg20
g21
sg19
S''
sg15
g32
sg28
Nsg22
g33
stRp374
ag3
(g4
g5
(dp375
g14
S''
sg17
g36
sg18
S''
sg20
g27
sg19
S''
sg15
g36
sg28
Nsg22
g37
stRp376
ag3
(g4
g5
(dp377
g14
S''
sg40
S'user'
p378
sg18
S''
sg42
S'User'
p379
sg19
S''
sg15
g378
sg28
Nsg44
S'User name'
p380
stRp381
ag3
(g4
g5
(dp382
g14
S''
sg40
S'group'
p383
sg18
S''
sg42
S'User'
p384
sg19
S''
sg15
g383
sg28
Nsg44
S'Group name'
p385
stRp386
ag3
(g4
g5
(dp387
g14
S''
sg40
S'type'
p388
sg18
S''
sg42
S'UserType'
p389
sg19
S''
sg15
g388
sg28
Nsg44
S'Type of user in this group.'
p390
stRp391
ag3
(g4
g5
(dp392
g14
S''
sg40
S'maxResults'
p393
sg18
S''
sg42
S'MaxResults'
p394
sg19
S''
sg15
g393
sg28
Nsg44
S'MaxResults setting for the group.'
p395
stRp396
ag3
(g4
g5
(dp397
g14
S''
sg40
S'maxScanRows'
p398
sg18
S''
sg42
S'MaxScanRows'
p399
sg19
S''
sg15
g398
sg28
Nsg44
S'MaxScanRows setting for the group.'
p400
stRp401
ag3
(g4
g5
(dp402
g14
S''
sg40
S'maxLockTime'
p403
sg18
S''
sg42
S'MaxLockTime'
p404
sg19
S''
sg15
g403
sg28
Nsg44
S'MaxLockTime setting for the group.'
p405
stRp406
ag3
(g4
g5
(dp407
g14
S''
sg40
S'timeout'
p408
sg18
S''
sg42
S'Int'
p409
sg19
S''
sg15
g408
sg28
Nsg44
S'Length of time (in seconds) a login ticket remains valid.'
p410
stRp411
atRp412
sg98
g365
sg99
S'6'
sg100
g101
sg44
S'Lists groups known to Perforce'
p413
sg42
S'Group'
p414
sg104
S'4'
sg40
S'db.group'
p415
stRp416
sS'monitor'
p417
g3
(g4
g5
(dp418
g7
S'id'
p419
sg9
g3
(g10
g11
(lp420
g3
(g4
g5
(dp421
g14
S''
sg15
g16
sg17
g16
sg18
S''
sg19
S''
sg20
g21
sg22
g23
stRp422
ag3
(g4
g5
(dp423
g14
S''
sg17
g26
sg18
S''
sg20
g27
sg19
S''
sg15
g26
sg28
Nsg22
g29
stRp424
ag3
(g4
g5
(dp425
g14
S''
sg17
g32
sg18
S''
sg20
g21
sg19
S''
sg15
g32
sg28
Nsg22
g33
stRp426
ag3
(g4
g5
(dp427
g14
S''
sg17
g36
sg18
S''
sg20
g27
sg19
S''
sg15
g36
sg28
Nsg22
g37
stRp428
ag3
(g4
g5
(dp429
g14
S''
sg40
S'id'
p430
sg18
S''
sg42
S'Int'
p431
sg19
S''
sg15
g430
sg28
Nsg44
S'Thread/process id'
p432
stRp433
ag3
(g4
g5
(dp434
g14
S''
sg40
S'user'
p435
sg18
S''
sg42
S'User'
p436
sg19
S''
sg15
g435
sg28
Nsg44
S'Username of the user running the command'
p437
stRp438
ag3
(g4
g5
(dp439
g14
S''
sg40
S'function'
p440
sg18
S''
sg42
S'String'
p441
sg19
S''
sg15
g440
sg28
Nsg44
S'The command being executed.'
p442
stRp443
ag3
(g4
g5
(dp444
g14
S''
sg40
S'args'
p445
sg18
S''
sg42
S'String'
p446
sg19
S''
sg15
g445
sg28
Nsg44
S'Arguments passed to the command'
p447
stRp448
ag3
(g4
g5
(dp449
g14
S''
sg40
S'startDate'
p450
sg18
S''
sg42
S'Date'
p451
sg19
S''
sg15
g450
sg28
Nsg44
S'The date and time the command started'
p452
stRp453
ag3
(g4
g5
(dp454
g14
S''
sg40
S'runstate'
p455
sg18
S''
sg42
S'Int'
p456
sg19
S''
sg15
g455
sg28
Nsg44
S'Flag: 0 for running, 1 for terminated'
p457
stRp458
ag3
(g4
g5
(dp459
g14
S''
sg40
S'client'
p460
sg18
S''
sg42
S'Domain'
p461
sg19
S''
sg15
g460
sg28
Nsg44
S'The client workspace'
p462
stRp463
ag3
(g4
g5
(dp464
g14
S''
sg40
S'host'
p465
sg18
S''
sg42
S'Text'
p466
sg19
S''
sg15
g465
sg28
Nsg44
S'The IP address of the client'
p467
stRp468
ag3
(g4
g5
(dp469
g14
S''
sg40
S'prog'
p470
sg18
S''
sg42
S'Text'
p471
sg19
S''
sg15
g470
sg28
Nsg44
S'The name (and version) of the client program'
p472
stRp473
atRp474
sg98
g417
sg99
S'1'
sg100
g101
sg44
S'System messages'
p475
sg42
S'Monitor'
p476
sg104
S'40'
p477
sg40
S'db.monitor'
p478
stRp479
sS'working'
p480
g3
(g4
g5
(dp481
g7
S'clientFile'
p482
sg9
g3
(g10
g11
(lp483
g3
(g4
g5
(dp484
g14
S''
sg15
g16
sg17
g16
sg18
S''
sg19
S''
sg20
g21
sg22
g23
stRp485
ag3
(g4
g5
(dp486
g14
S''
sg17
g26
sg18
S''
sg20
g27
sg19
S''
sg15
g26
sg28
Nsg22
g29
stRp487
ag3
(g4
g5
(dp488
g14
S''
sg17
g32
sg18
S''
sg20
g21
sg19
S''
sg15
g32
sg28
Nsg22
g33
stRp489
ag3
(g4
g5
(dp490
g14
S''
sg17
g36
sg18
S''
sg20
g27
sg19
S''
sg15
g36
sg28
Nsg22
g37
stRp491
ag3
(g4
g5
(dp492
g14
S''
sg40
S'clientFile'
p493
sg18
S''
sg42
S'File'
p494
sg19
S''
sg15
g493
sg28
Nsg44
S'File on the client'
p495
stRp496
ag3
(g4
g5
(dp497
g14
S''
sg40
S'depotFile'
p498
sg18
S''
sg42
S'File'
p499
sg19
S''
sg15
g498
sg28
Nsg44
S'File in the depot'
p500
stRp501
ag3
(g4
g5
(dp502
g14
S''
sg40
S'client'
p503
sg18
S''
sg42
S'Domain'
p504
sg19
S''
sg15
g503
sg28
Nsg44
S'The client the file is opened on'
p505
stRp506
ag3
(g4
g5
(dp507
g14
S''
sg40
S'user'
p508
sg18
S''
sg42
S'User'
p509
sg19
S''
sg15
g508
sg28
Nsg44
S'The user who has the file opened'
p510
stRp511
ag3
(g4
g5
(dp512
g14
S''
sg40
S'haveRev'
p513
sg18
S''
sg42
S'Rev'
p514
sg19
S''
sg15
g513
sg28
Nsg44
S"Revision presently in user's client workspace.  This is \n\t\t    normally identical to workRev except for the case in which \n\t\t    you've tried to submit a file where you no longer have the \n\t\t    head revision. Perforce schedules the integrate (moves \n\t\t    workRev to headRev, but doesn't change the haveRev, so that \n\t\t    a p4 revert will return the file originally checked-out \n\t\t    instead of the new head revision."
p515
stRp516
ag3
(g4
g5
(dp517
g14
S''
sg40
S'workRev'
p518
sg18
S''
sg42
S'Rev'
p519
sg19
S''
sg15
g518
sg28
Nsg44
S'Working revision; this is identical to the haveRev except \n\t\t    in the case described above.'
p520
stRp521
ag3
(g4
g5
(dp522
g14
S''
sg40
S'isVirtual'
p523
sg18
S''
sg42
S'Int'
p524
sg19
S''
sg15
g523
sg28
Nsg44
S'Flag: if 1, file was opened with "p4 integ -v".'
p525
stRp526
ag3
(g4
g5
(dp527
g14
S''
sg40
S'type'
p528
sg18
S''
sg42
S'FileType'
p529
sg19
S''
sg15
g528
sg28
Nsg44
S'File type'
p530
stRp531
ag3
(g4
g5
(dp532
g14
S''
sg40
S'action'
p533
sg18
S''
sg42
S'Action'
p534
sg19
S''
sg15
g533
sg28
Nsg44
S"What the user's doing with the file"
p535
stRp536
ag3
(g4
g5
(dp537
g14
S''
sg40
S'change'
p538
sg18
S''
sg42
S'Change'
p539
sg19
S''
sg15
g538
sg28
Nsg44
S'Associated changelist, or zero for the default changelist.'
p540
stRp541
ag3
(g4
g5
(dp542
g14
S''
sg40
S'modTime'
p543
sg18
S''
sg42
S'Date'
p544
sg19
S''
sg15
g543
sg28
Nsg44
S'Date when file was opened and added to the pending \n\t\t    changelist.'
p545
stRp546
ag3
(g4
g5
(dp547
g14
S''
sg40
S'isLocked'
p548
sg18
S''
sg42
S'Int'
p549
sg19
S''
sg15
g548
sg28
Nsg44
S'Flag: 0 for unlocked, 1 for locked.'
p550
stRp551
ag3
(g4
g5
(dp552
g14
S''
sg40
S'digest'
p553
sg18
S''
sg42
S'Digest'
p554
sg19
S''
sg15
g553
sg28
Nsg44
S'MD5 digest of working file.'
p555
stRp556
ag3
(g4
g5
(dp557
g14
S''
sg40
S'size'
p558
sg18
S''
sg42
S'Int64'
p559
sg19
S''
sg15
g558
sg28
Nsg44
S'File size'
p560
stRp561
ag3
(g4
g5
(dp562
g14
S''
sg40
S'traitLot'
p563
sg18
S''
sg42
S'int'
p564
sg19
S''
sg15
g563
sg28
Nsg44
S'Group of traits associated with file revision.'
p565
stRp566
ag3
(g4
g5
(dp567
g14
S''
sg40
S'tampered'
p568
sg18
S''
sg42
S'TamperCheck'
p569
sg19
S''
sg15
g568
sg28
Nsg44
S'Flag indicating the tamper-state of the file in the\n\t\t    workspace.'
p570
stRp571
ag3
(g4
g5
(dp572
g14
S''
sg40
S'clntType'
p573
sg18
S''
sg42
S'FileType'
p574
sg19
S''
sg15
g573
sg28
Nsg44
S'Type of the file in the client workspace.'
p575
stRp576
ag3
(g4
g5
(dp577
g14
S''
sg40
S'mFile'
p578
sg18
S''
sg42
S'File'
p579
sg19
S''
sg15
g578
sg28
Nsg44
S'Moved filename'
p580
stRp581
atRp582
sg98
g480
sg99
S'9'
sg100
g101
sg44
S'Records for work in progress'
p583
sg42
S'Working'
p584
sg104
S'23'
p585
sg40
S'db.working'
p586
stRp587
sS'fix'
p588
g3
(g4
g5
(dp589
g7
S'job, change'
p590
sg9
g3
(g10
g11
(lp591
g3
(g4
g5
(dp592
g14
S''
sg15
g16
sg17
g16
sg18
S''
sg19
S''
sg20
g21
sg22
g23
stRp593
ag3
(g4
g5
(dp594
g14
S''
sg17
g26
sg18
S''
sg20
g27
sg19
S''
sg15
g26
sg28
Nsg22
g29
stRp595
ag3
(g4
g5
(dp596
g14
S''
sg17
g32
sg18
S''
sg20
g21
sg19
S''
sg15
g32
sg28
Nsg22
g33
stRp597
ag3
(g4
g5
(dp598
g14
S''
sg17
g36
sg18
S''
sg20
g27
sg19
S''
sg15
g36
sg28
Nsg22
g37
stRp599
ag3
(g4
g5
(dp600
g14
S''
sg40
g120
sg18
S''
sg42
g121
sg19
S''
sg15
g120
sg28
Nsg44
g122
stRp601
ag3
(g4
g5
(dp602
g14
S''
sg40
g125
sg18
S''
sg42
g126
sg19
S''
sg15
g125
sg28
Nsg44
g127
stRp603
ag3
(g4
g5
(dp604
g14
S''
sg40
g130
sg18
S''
sg42
g131
sg19
S''
sg15
g130
sg28
Nsg44
g132
stRp605
ag3
(g4
g5
(dp606
g14
S''
sg40
g135
sg18
S''
sg42
g136
sg19
S''
sg15
g135
sg28
Nsg44
g137
stRp607
ag3
(g4
g5
(dp608
g14
S''
sg40
g140
sg18
S''
sg42
g141
sg19
S''
sg15
g140
sg28
Nsg44
g142
stRp609
ag3
(g4
g5
(dp610
g14
S''
sg40
g145
sg18
S''
sg42
g146
sg19
S''
sg15
g145
sg28
Nsg44
g147
stRp611
atRp612
sg98
g588
sg40
S'db.fix'
p613
sg99
S'1'
sg100
g101
sg151
S'db.fixrev'
p614
sg42
S'Fix'
p615
sg104
S'32'
p616
sg44
S'Fix records - indexed by job'
p617
stRp618
sS'rev'
p619
g3
(g4
g5
(dp620
g7
S'depotFile, depotRev'
p621
sg9
g3
(g10
g11
(lp622
g3
(g4
g5
(dp623
g14
S''
sg15
g16
sg17
g16
sg18
S''
sg19
S''
sg20
g21
sg22
g23
stRp624
ag3
(g4
g5
(dp625
g14
S''
sg17
g26
sg18
S''
sg20
g27
sg19
S''
sg15
g26
sg28
Nsg22
g29
stRp626
ag3
(g4
g5
(dp627
g14
S''
sg17
g32
sg18
S''
sg20
g21
sg19
S''
sg15
g32
sg28
Nsg22
g33
stRp628
ag3
(g4
g5
(dp629
g14
S''
sg17
g36
sg18
S''
sg20
g27
sg19
S''
sg15
g36
sg28
Nsg22
g37
stRp630
ag3
(g4
g5
(dp631
g14
S''
sg40
S'depotFile'
p632
sg18
S''
sg42
S'File'
p633
sg19
S''
sg15
g632
sg28
Nsg44
S'The file name'
p634
stRp635
ag3
(g4
g5
(dp636
g14
S''
sg40
S'depotRev'
p637
sg18
S''
sg42
S'Rev'
p638
sg19
S''
sg15
g637
sg28
Nsg44
S'The revision number'
p639
stRp640
ag3
(g4
g5
(dp641
g14
S''
sg40
S'type'
p642
sg18
S''
sg42
S'FileType'
p643
sg19
S''
sg15
g642
sg28
Nsg44
S'The file type of the revision'
p644
stRp645
ag3
(g4
g5
(dp646
g14
S''
sg40
S'action'
p647
sg18
S''
sg42
S'Action'
p648
sg19
S''
sg15
g647
sg28
Nsg44
S'The action that created the revision'
p649
stRp650
ag3
(g4
g5
(dp651
g14
S''
sg40
S'change'
p652
sg18
S''
sg42
S'Change'
p653
sg19
S''
sg15
g652
sg28
Nsg44
S'The changelist that created the revision'
p654
stRp655
ag3
(g4
g5
(dp656
g14
S''
sg40
S'date'
p657
sg18
S''
sg42
S'Date'
p658
sg19
S''
sg15
g657
sg28
Nsg44
S'The date/time the changelist that created the revision\n\t\t    was submitted'
p659
stRp660
ag3
(g4
g5
(dp661
g14
S''
sg40
S'modTime'
p662
sg18
S''
sg42
S'Date'
p663
sg19
S''
sg15
g662
sg28
Nsg44
S"The timestamp on the file in the user's workspace when\n\t\t    the revision was submitted."
p664
stRp665
ag3
(g4
g5
(dp666
g14
S''
sg40
S'digest'
p667
sg18
S''
sg42
S'Digest'
p668
sg19
S''
sg15
g667
sg28
Nsg44
S'The MD5 digest of the revision.'
p669
stRp670
ag3
(g4
g5
(dp671
g14
S''
sg40
S'size'
p672
sg18
S''
sg42
S'FileSize'
p673
sg19
S''
sg15
g672
sg28
Nsg44
S'The size of the file in bytes'
p674
stRp675
ag3
(g4
g5
(dp676
g14
S''
sg40
S'traitLot'
p677
sg18
S''
sg42
S'TraitLot'
p678
sg19
S''
sg15
g677
sg28
Nsg44
S'Group of traits (attributes) associated with the revision.'
p679
stRp680
ag3
(g4
g5
(dp681
g14
S''
sg40
S'lbrIsLazy'
p682
sg18
S''
sg42
S'Int'
p683
sg19
S''
sg15
g682
sg28
Nsg44
S'Flag specifying whether or not the revision gets its\n\t\t    content from another file (i.e. whether or not depotFile\n\t\t    and lbrFile differ)'
p684
stRp685
ag3
(g4
g5
(dp686
g14
S''
sg40
S'lbrFile'
p687
sg18
S''
sg42
S'File'
p688
sg19
S''
sg15
g687
sg28
Nsg44
S"Filename for librarian's purposes.  Specifies location in \n\t\t    the archives where the file containing the revision may\n\t\t    be found. Usually the same as depotFile, but differs in\n\t\t    the case of branched/copied revisions."
p689
stRp690
ag3
(g4
g5
(dp691
g14
S''
sg40
S'lbrRev'
p692
sg18
S''
sg42
S'Rev'
p693
sg19
S''
sg15
g692
sg28
Nsg44
S'The revision of lbrFile that contains the revision content.\n\t\t    Usually the same as depotRev, but differs in the case of\n\t\t    branched/copied revisions.'
p694
stRp695
ag3
(g4
g5
(dp696
g14
S''
sg40
S'lbrType'
p697
sg18
S''
sg42
S'FileType'
p698
sg19
S''
sg15
g697
sg28
Nsg44
S'The file type of the librarian revision. Usually the same\n\t\t    as type, but differs in the case of branched/copied \n\t\t    revisions.'
p699
stRp700
atRp701
sg98
g619
sg99
S'7'
sg100
g101
sg44
S'Revision records'
p702
sg42
S'Rev'
p703
sg104
S'17'
p704
sg40
S'db.rev'
p705
stRp706
sS'archive'
p707
g3
(g4
g5
(dp708
g7
S'lbrFile, lbrRev, depotFile, depotRev'
p709
sg9
g3
(g10
g11
(lp710
g3
(g4
g5
(dp711
g14
S''
sg15
g16
sg17
g16
sg18
S''
sg19
S''
sg20
g21
sg22
g23
stRp712
ag3
(g4
g5
(dp713
g14
S''
sg17
g26
sg18
S''
sg20
g27
sg19
S''
sg15
g26
sg28
Nsg22
g29
stRp714
ag3
(g4
g5
(dp715
g14
S''
sg17
g32
sg18
S''
sg20
g21
sg19
S''
sg15
g32
sg28
Nsg22
g33
stRp716
ag3
(g4
g5
(dp717
g14
S''
sg17
g36
sg18
S''
sg20
g27
sg19
S''
sg15
g36
sg28
Nsg22
g37
stRp718
ag3
(g4
g5
(dp719
g14
S''
sg40
S'lbrFile'
p720
sg18
S''
sg42
S'File'
p721
sg19
S''
sg15
g720
sg28
Nsg44
S"Specifies the location in the librarian's archives where\n\t\t    the revision may be found"
p722
stRp723
ag3
(g4
g5
(dp724
g14
S''
sg40
S'lbrRev'
p725
sg18
S''
sg42
S'Rev'
p726
sg19
S''
sg15
g725
sg28
Nsg44
S"Revision number in the librarian's archives"
p727
stRp728
ag3
(g4
g5
(dp729
g14
S''
sg40
S'depotFile'
p730
sg18
S''
sg42
S'File'
p731
sg19
S''
sg15
g730
sg28
Nsg44
S'Name of the file in the depot'
p732
stRp733
ag3
(g4
g5
(dp734
g14
S''
sg40
S'depotRev'
p735
sg18
S''
sg42
S'Rev'
p736
sg19
S''
sg15
g735
sg28
Nsg44
S'Name of the file in the depot'
p737
stRp738
ag3
(g4
g5
(dp739
g14
S''
sg40
S'lbrType'
p740
sg18
S''
sg42
S'FileType'
p741
sg19
S''
sg15
g740
sg28
Nsg44
S"File type for librarian's purposes"
p742
stRp743
atRp744
sg98
g707
sS'note'
p745
S'Obsoleted in 2006.2.'
p746
sg99
S'1'
sg100
g101
sg44
S'Archive information for each revision that is \n\t\tlazy-copied.'
p747
sg42
S'Archive'
p748
sg104
S'15'
p749
sg40
S'db.archive'
p750
stRp751
sS'trigger'
p752
g3
(g4
g5
(dp753
g7
S'seq'
p754
sg9
g3
(g10
g11
(lp755
g3
(g4
g5
(dp756
g14
S''
sg15
g16
sg17
g16
sg18
S''
sg19
S''
sg20
g21
sg22
g23
stRp757
ag3
(g4
g5
(dp758
g14
S''
sg17
g26
sg18
S''
sg20
g27
sg19
S''
sg15
g26
sg28
Nsg22
g29
stRp759
ag3
(g4
g5
(dp760
g14
S''
sg17
g32
sg18
S''
sg20
g21
sg19
S''
sg15
g32
sg28
Nsg22
g33
stRp761
ag3
(g4
g5
(dp762
g14
S''
sg17
g36
sg18
S''
sg20
g27
sg19
S''
sg15
g36
sg28
Nsg22
g37
stRp763
ag3
(g4
g5
(dp764
g14
S''
sg40
S'seq'
p765
sg18
S''
sg42
S'Int'
p766
sg19
S''
sg15
g765
sg28
Nsg44
S'Sequence number: for ordering the trigger list'
p767
stRp768
ag3
(g4
g5
(dp769
g14
S''
sg40
S'name'
p770
sg18
S''
sg42
S'String'
p771
sg19
S''
sg15
g770
sg28
Nsg44
S'Name of the trigger'
p772
stRp773
ag3
(g4
g5
(dp774
g14
S''
sg40
S'mapFlag'
p775
sg18
S''
sg42
S'MapFlag'
p776
sg19
S''
sg15
g775
sg28
Nsg44
S'Type of mapping: specifies whether the trigger applies \n\t\t    to the files or not.'
p777
stRp778
ag3
(g4
g5
(dp779
g14
S''
sg40
S'depotFile'
p780
sg18
S''
sg42
S'Mapping'
p781
sg19
S''
sg15
g780
sg28
Nsg44
S'The files to apply the trigger to'
p782
stRp783
ag3
(g4
g5
(dp784
g14
S''
sg40
S'trigger'
p785
sg18
S''
sg42
S'Trigger'
p786
sg19
S''
sg15
g785
sg28
Nsg44
S'Type of trigger'
p787
stRp788
ag3
(g4
g5
(dp789
g14
S''
sg40
S'action'
p790
sg18
S''
sg42
S'Text'
p791
sg19
S''
sg15
g790
sg28
Nsg44
S'Command to execute when trigger runs'
p792
stRp793
atRp794
sg98
g752
sg99
S'2'
sg100
g101
sg44
S'Trigger specifications'
p795
sg42
S'Trigger'
p796
sg104
S'25'
p797
sg40
S'db.trigger'
p798
stRp799
sS'logger'
p800
g3
(g4
g5
(dp801
g7
S'seq'
p802
sg9
g3
(g10
g11
(lp803
g3
(g4
g5
(dp804
g14
S''
sg15
g16
sg17
g16
sg18
S''
sg19
S''
sg20
g21
sg22
g23
stRp805
ag3
(g4
g5
(dp806
g14
S''
sg17
g26
sg18
S''
sg20
g27
sg19
S''
sg15
g26
sg28
Nsg22
g29
stRp807
ag3
(g4
g5
(dp808
g14
S''
sg17
g32
sg18
S''
sg20
g21
sg19
S''
sg15
g32
sg28
Nsg22
g33
stRp809
ag3
(g4
g5
(dp810
g14
S''
sg17
g36
sg18
S''
sg20
g27
sg19
S''
sg15
g36
sg28
Nsg22
g37
stRp811
ag3
(g4
g5
(dp812
g14
S''
sg40
S'seq'
p813
sg18
S''
sg42
S'Int'
p814
sg19
S''
sg15
g813
sg28
Nsg44
S'Sequence number of event'
p815
stRp816
ag3
(g4
g5
(dp817
g14
S''
sg40
S'key'
p818
sg18
S''
sg42
S'String'
p819
sg19
S''
sg15
g818
sg28
Nsg44
S"Either the word 'change' or the word 'job'"
p820
stRp821
ag3
(g4
g5
(dp822
g14
S''
sg40
S'attr'
p823
sg18
S''
sg42
S'String'
p824
sg19
S''
sg15
g823
sg28
Nsg44
S'The number of the change, or name of the job that was \n\t\t    altered.'
p825
stRp826
atRp827
sg98
g800
sg99
S'1'
sg100
g101
sg44
S"Support for 'p4 logger' command. Logs any changes to \n\t\tchangelists and jobs"
p828
sg42
S'Logger'
p829
sg104
S'2'
sg40
S'db.logger'
p830
stRp831
sS'depot'
p832
g3
(g4
g5
(dp833
g7
S'name'
p834
sg9
g3
(g10
g11
(lp835
g3
(g4
g5
(dp836
g14
S''
sg15
g16
sg17
g16
sg18
S''
sg19
S''
sg20
g21
sg22
g23
stRp837
ag3
(g4
g5
(dp838
g14
S''
sg17
g26
sg18
S''
sg20
g27
sg19
S''
sg15
g26
sg28
Nsg22
g29
stRp839
ag3
(g4
g5
(dp840
g14
S''
sg17
g32
sg18
S''
sg20
g21
sg19
S''
sg15
g32
sg28
Nsg22
g33
stRp841
ag3
(g4
g5
(dp842
g14
S''
sg17
g36
sg18
S''
sg20
g27
sg19
S''
sg15
g36
sg28
Nsg22
g37
stRp843
ag3
(g4
g5
(dp844
g14
S''
sg40
S'name'
p845
sg18
S''
sg42
S'Domain'
p846
sg19
S''
sg15
g845
sg28
Nsg44
S'Depot name'
p847
stRp848
ag3
(g4
g5
(dp849
g14
S''
sg40
S'type'
p850
sg18
S''
sg42
S'DepotType'
p851
sg19
S''
sg15
g850
sg28
Nsg44
S'Type of depot'
p852
stRp853
ag3
(g4
g5
(dp854
g14
S''
sg40
S'extra'
p855
sg18
S''
sg42
S'Text'
p856
sg19
S''
sg15
g855
sg28
Nsg44
S'For remote depots, the P4PORT address of the remote server.\n\t\t    For spec depots, the field contains a suffix to append to \n\t\t    the filename.'
p857
stRp858
ag3
(g4
g5
(dp859
g14
S''
sg40
S'map'
p860
sg18
S''
sg42
S'Text'
p861
sg19
S''
sg15
g860
sg28
Nsg44
S"The depot's map (path translation information).  For local \n\t\t    depots, this will be a path relative to the root directory.\n\t\t    For remote depots, this will be specified in terms of the \n\t\t    remote server's namespace."
p862
stRp863
atRp864
sg98
g832
sg99
S'1'
sg100
g101
sg44
S'Lists depots known to Perforce'
p865
sg42
S'Depot'
p866
sg104
S'5'
sg40
S'db.depot'
p867
stRp868
sS'revpx'
p869
g3
(g4
g5
(dp870
g7
S'depotFile, depotRev'
p871
sg9
g3
(g10
g11
(lp872
g3
(g4
g5
(dp873
g14
S''
sg15
g16
sg17
g16
sg18
S''
sg19
S''
sg20
g21
sg22
g23
stRp874
ag3
(g4
g5
(dp875
g14
S''
sg17
g26
sg18
S''
sg20
g27
sg19
S''
sg15
g26
sg28
Nsg22
g29
stRp876
ag3
(g4
g5
(dp877
g14
S''
sg17
g32
sg18
S''
sg20
g21
sg19
S''
sg15
g32
sg28
Nsg22
g33
stRp878
ag3
(g4
g5
(dp879
g14
S''
sg17
g36
sg18
S''
sg20
g27
sg19
S''
sg15
g36
sg28
Nsg22
g37
stRp880
ag3
(g4
g5
(dp881
g14
S''
sg40
g632
sg18
S''
sg42
g633
sg19
S''
sg15
g632
sg28
Nsg44
g634
stRp882
ag3
(g4
g5
(dp883
g14
S''
sg40
g637
sg18
S''
sg42
g638
sg19
S''
sg15
g637
sg28
Nsg44
g639
stRp884
ag3
(g4
g5
(dp885
g14
S''
sg40
g642
sg18
S''
sg42
g643
sg19
S''
sg15
g642
sg28
Nsg44
g644
stRp886
ag3
(g4
g5
(dp887
g14
S''
sg40
g647
sg18
S''
sg42
g648
sg19
S''
sg15
g647
sg28
Nsg44
g649
stRp888
ag3
(g4
g5
(dp889
g14
S''
sg40
g652
sg18
S''
sg42
g653
sg19
S''
sg15
g652
sg28
Nsg44
g654
stRp890
ag3
(g4
g5
(dp891
g14
S''
sg40
g657
sg18
S''
sg42
g658
sg19
S''
sg15
g657
sg28
Nsg44
g659
stRp892
ag3
(g4
g5
(dp893
g14
S''
sg40
g662
sg18
S''
sg42
g663
sg19
S''
sg15
g662
sg28
Nsg44
g664
stRp894
ag3
(g4
g5
(dp895
g14
S''
sg40
g667
sg18
S''
sg42
g668
sg19
S''
sg15
g667
sg28
Nsg44
g669
stRp896
ag3
(g4
g5
(dp897
g14
S''
sg40
g672
sg18
S''
sg42
g673
sg19
S''
sg15
g672
sg28
Nsg44
g674
stRp898
ag3
(g4
g5
(dp899
g14
S''
sg40
g677
sg18
S''
sg42
g678
sg19
S''
sg15
g677
sg28
Nsg44
g679
stRp900
ag3
(g4
g5
(dp901
g14
S''
sg40
g682
sg18
S''
sg42
g683
sg19
S''
sg15
g682
sg28
Nsg44
g684
stRp902
ag3
(g4
g5
(dp903
g14
S''
sg40
g687
sg18
S''
sg42
g688
sg19
S''
sg15
g687
sg28
Nsg44
g689
stRp904
ag3
(g4
g5
(dp905
g14
S''
sg40
g692
sg18
S''
sg42
g693
sg19
S''
sg15
g692
sg28
Nsg44
g694
stRp906
ag3
(g4
g5
(dp907
g14
S''
sg40
g697
sg18
S''
sg42
g698
sg19
S''
sg15
g697
sg28
Nsg44
g699
stRp908
atRp909
sg98
g869
sg745
S'Only populated during content trigger execution to allow \n\t\ttriggers access to the revisions being submitted.'
p910
sg99
S'7'
sg100
g101
sg44
S'Pending revision records.'
p911
sg42
S'Rev'
p912
sg104
S'21'
p913
sg40
S'db.revpx'
p914
stRp915
sS'counters'
p916
g3
(g4
g5
(dp917
g7
S'name'
p918
sg9
g3
(g10
g11
(lp919
g3
(g4
g5
(dp920
g14
S''
sg15
g16
sg17
g16
sg18
S''
sg19
S''
sg20
g21
sg22
g23
stRp921
ag3
(g4
g5
(dp922
g14
S''
sg17
g26
sg18
S''
sg20
g27
sg19
S''
sg15
g26
sg28
Nsg22
g29
stRp923
ag3
(g4
g5
(dp924
g14
S''
sg17
g32
sg18
S''
sg20
g21
sg19
S''
sg15
g32
sg28
Nsg22
g33
stRp925
ag3
(g4
g5
(dp926
g14
S''
sg17
g36
sg18
S''
sg20
g27
sg19
S''
sg15
g36
sg28
Nsg22
g37
stRp927
ag3
(g4
g5
(dp928
g14
S''
sg40
S'name'
p929
sg18
S''
sg42
S'Counter'
p930
sg19
S''
sg15
g929
sg28
Nsg44
S'Counter name'
p931
stRp932
ag3
(g4
g5
(dp933
g14
S''
sg40
S'value'
p934
sg18
S''
sg42
S'Value'
p935
sg19
S''
sg15
g934
sg28
Nsg44
S'Counter value'
p936
stRp937
atRp938
sg98
g916
sg99
S'1'
sg100
g101
sg44
S'Perforce counters table'
p939
sg42
S'Counters'
p940
sg104
S'1'
sg40
S'db.counters'
p941
stRp942
sS'revdx'
p943
g3
(g4
g5
(dp944
g7
S'depotFile'
p945
sg9
g3
(g10
g11
(lp946
g3
(g4
g5
(dp947
g14
S''
sg15
g16
sg17
g16
sg18
S''
sg19
S''
sg20
g21
sg22
g23
stRp948
ag3
(g4
g5
(dp949
g14
S''
sg17
g26
sg18
S''
sg20
g27
sg19
S''
sg15
g26
sg28
Nsg22
g29
stRp950
ag3
(g4
g5
(dp951
g14
S''
sg17
g32
sg18
S''
sg20
g21
sg19
S''
sg15
g32
sg28
Nsg22
g33
stRp952
ag3
(g4
g5
(dp953
g14
S''
sg17
g36
sg18
S''
sg20
g27
sg19
S''
sg15
g36
sg28
Nsg22
g37
stRp954
ag3
(g4
g5
(dp955
g14
S''
sg40
g632
sg18
S''
sg42
g633
sg19
S''
sg15
g632
sg28
Nsg44
g634
stRp956
ag3
(g4
g5
(dp957
g14
S''
sg40
g637
sg18
S''
sg42
g638
sg19
S''
sg15
g637
sg28
Nsg44
g639
stRp958
ag3
(g4
g5
(dp959
g14
S''
sg40
g642
sg18
S''
sg42
g643
sg19
S''
sg15
g642
sg28
Nsg44
g644
stRp960
ag3
(g4
g5
(dp961
g14
S''
sg40
g647
sg18
S''
sg42
g648
sg19
S''
sg15
g647
sg28
Nsg44
g649
stRp962
ag3
(g4
g5
(dp963
g14
S''
sg40
g652
sg18
S''
sg42
g653
sg19
S''
sg15
g652
sg28
Nsg44
g654
stRp964
ag3
(g4
g5
(dp965
g14
S''
sg40
g657
sg18
S''
sg42
g658
sg19
S''
sg15
g657
sg28
Nsg44
g659
stRp966
ag3
(g4
g5
(dp967
g14
S''
sg40
g662
sg18
S''
sg42
g663
sg19
S''
sg15
g662
sg28
Nsg44
g664
stRp968
ag3
(g4
g5
(dp969
g14
S''
sg40
g667
sg18
S''
sg42
g668
sg19
S''
sg15
g667
sg28
Nsg44
g669
stRp970
ag3
(g4
g5
(dp971
g14
S''
sg40
g672
sg18
S''
sg42
g673
sg19
S''
sg15
g672
sg28
Nsg44
g674
stRp972
ag3
(g4
g5
(dp973
g14
S''
sg40
g677
sg18
S''
sg42
g678
sg19
S''
sg15
g677
sg28
Nsg44
g679
stRp974
ag3
(g4
g5
(dp975
g14
S''
sg40
g682
sg18
S''
sg42
g683
sg19
S''
sg15
g682
sg28
Nsg44
g684
stRp976
ag3
(g4
g5
(dp977
g14
S''
sg40
g687
sg18
S''
sg42
g688
sg19
S''
sg15
g687
sg28
Nsg44
g689
stRp978
ag3
(g4
g5
(dp979
g14
S''
sg40
g692
sg18
S''
sg42
g693
sg19
S''
sg15
g692
sg28
Nsg44
g694
stRp980
ag3
(g4
g5
(dp981
g14
S''
sg40
g697
sg18
S''
sg42
g698
sg19
S''
sg15
g697
sg28
Nsg44
g699
stRp982
atRp983
sg98
g943
sg99
S'7'
sg100
g101
sg44
S'Revision records for revisions deleted at the head revision.'
p984
sg42
S'Rev'
p985
sg104
S'19'
p986
sg40
S'db.revdx'
p987
stRp988
sS'revsx'
p989
g3
(g4
g5
(dp990
g7
S'depotFile, depotRev'
p991
sg9
g3
(g10
g11
(lp992
g3
(g4
g5
(dp993
g14
S''
sg15
g16
sg17
g16
sg18
S''
sg19
S''
sg20
g21
sg22
g23
stRp994
ag3
(g4
g5
(dp995
g14
S''
sg17
g26
sg18
S''
sg20
g27
sg19
S''
sg15
g26
sg28
Nsg22
g29
stRp996
ag3
(g4
g5
(dp997
g14
S''
sg17
g32
sg18
S''
sg20
g21
sg19
S''
sg15
g32
sg28
Nsg22
g33
stRp998
ag3
(g4
g5
(dp999
g14
S''
sg17
g36
sg18
S''
sg20
g27
sg19
S''
sg15
g36
sg28
Nsg22
g37
stRp1000
ag3
(g4
g5
(dp1001
g14
S''
sg40
g632
sg18
S''
sg42
g633
sg19
S''
sg15
g632
sg28
Nsg44
g634
stRp1002
ag3
(g4
g5
(dp1003
g14
S''
sg40
g637
sg18
S''
sg42
g638
sg19
S''
sg15
g637
sg28
Nsg44
g639
stRp1004
ag3
(g4
g5
(dp1005
g14
S''
sg40
g642
sg18
S''
sg42
g643
sg19
S''
sg15
g642
sg28
Nsg44
g644
stRp1006
ag3
(g4
g5
(dp1007
g14
S''
sg40
g647
sg18
S''
sg42
g648
sg19
S''
sg15
g647
sg28
Nsg44
g649
stRp1008
ag3
(g4
g5
(dp1009
g14
S''
sg40
g652
sg18
S''
sg42
g653
sg19
S''
sg15
g652
sg28
Nsg44
g654
stRp1010
ag3
(g4
g5
(dp1011
g14
S''
sg40
g657
sg18
S''
sg42
g658
sg19
S''
sg15
g657
sg28
Nsg44
g659
stRp1012
ag3
(g4
g5
(dp1013
g14
S''
sg40
g662
sg18
S''
sg42
g663
sg19
S''
sg15
g662
sg28
Nsg44
g664
stRp1014
ag3
(g4
g5
(dp1015
g14
S''
sg40
g667
sg18
S''
sg42
g668
sg19
S''
sg15
g667
sg28
Nsg44
g669
stRp1016
ag3
(g4
g5
(dp1017
g14
S''
sg40
g672
sg18
S''
sg42
g673
sg19
S''
sg15
g672
sg28
Nsg44
g674
stRp1018
ag3
(g4
g5
(dp1019
g14
S''
sg40
g677
sg18
S''
sg42
g678
sg19
S''
sg15
g677
sg28
Nsg44
g679
stRp1020
ag3
(g4
g5
(dp1021
g14
S''
sg40
g682
sg18
S''
sg42
g683
sg19
S''
sg15
g682
sg28
Nsg44
g684
stRp1022
ag3
(g4
g5
(dp1023
g14
S''
sg40
g687
sg18
S''
sg42
g688
sg19
S''
sg15
g687
sg28
Nsg44
g689
stRp1024
ag3
(g4
g5
(dp1025
g14
S''
sg40
g692
sg18
S''
sg42
g693
sg19
S''
sg15
g692
sg28
Nsg44
g694
stRp1026
ag3
(g4
g5
(dp1027
g14
S''
sg40
g697
sg18
S''
sg42
g698
sg19
S''
sg15
g697
sg28
Nsg44
g699
stRp1028
atRp1029
sg98
g989
sg99
S'7'
sg100
g101
sg44
S'Revision records for spec depot files.'
p1030
sg42
S'Rev'
p1031
sg104
S'22'
p1032
sg40
S'db.revsx'
p1033
stRp1034
sS'revcx'
p1035
g3
(g4
g5
(dp1036
g7
S'change, depotFile'
p1037
sg9
g3
(g10
g11
(lp1038
g3
(g4
g5
(dp1039
g14
S''
sg15
g16
sg17
g16
sg18
S''
sg19
S''
sg20
g21
sg22
g23
stRp1040
ag3
(g4
g5
(dp1041
g14
S''
sg17
g26
sg18
S''
sg20
g27
sg19
S''
sg15
g26
sg28
Nsg22
g29
stRp1042
ag3
(g4
g5
(dp1043
g14
S''
sg17
g32
sg18
S''
sg20
g21
sg19
S''
sg15
g32
sg28
Nsg22
g33
stRp1044
ag3
(g4
g5
(dp1045
g14
S''
sg17
g36
sg18
S''
sg20
g27
sg19
S''
sg15
g36
sg28
Nsg22
g37
stRp1046
ag3
(g4
g5
(dp1047
g14
S''
sg40
S'change'
p1048
sg18
S''
sg42
S'Change'
p1049
sg19
S''
sg15
g1048
sg28
Nsg44
S'The changelist that created the revision'
p1050
stRp1051
ag3
(g4
g5
(dp1052
g14
S''
sg40
S'depotFile'
p1053
sg18
S''
sg42
S'File'
p1054
sg19
S''
sg15
g1053
sg28
Nsg44
S'The file name'
p1055
stRp1056
ag3
(g4
g5
(dp1057
g14
S''
sg40
S'depotRev'
p1058
sg18
S''
sg42
S'Rev'
p1059
sg19
S''
sg15
g1058
sg28
Nsg44
S'The revision number'
p1060
stRp1061
ag3
(g4
g5
(dp1062
g14
S''
sg40
S'action'
p1063
sg18
S''
sg42
S'Action'
p1064
sg19
S''
sg15
g1063
sg28
Nsg44
S'The action that created the revision'
p1065
stRp1066
atRp1067
sg98
g1035
sg99
S'0'
sg100
g101
sg44
S'Secondary index of db.rev'
p1068
sg42
S'RevCx'
p1069
sg104
S'18'
p1070
sg40
S'db.revcx'
p1071
stRp1072
sS'integed'
p1073
g3
(g4
g5
(dp1074
g7
S'toFile, fromFile, startFromRev, endFromRev, \n\t\tstartToRev, endToRev'
p1075
sg9
g3
(g10
g11
(lp1076
g3
(g4
g5
(dp1077
g14
S''
sg15
g16
sg17
g16
sg18
S''
sg19
S''
sg20
g21
sg22
g23
stRp1078
ag3
(g4
g5
(dp1079
g14
S''
sg17
g26
sg18
S''
sg20
g27
sg19
S''
sg15
g26
sg28
Nsg22
g29
stRp1080
ag3
(g4
g5
(dp1081
g14
S''
sg17
g32
sg18
S''
sg20
g21
sg19
S''
sg15
g32
sg28
Nsg22
g33
stRp1082
ag3
(g4
g5
(dp1083
g14
S''
sg17
g36
sg18
S''
sg20
g27
sg19
S''
sg15
g36
sg28
Nsg22
g37
stRp1084
ag3
(g4
g5
(dp1085
g14
S''
sg40
S'toFile'
p1086
sg18
S''
sg42
S'File'
p1087
sg19
S''
sg15
g1086
sg28
Nsg44
S'File to which integration is being performed (target).'
p1088
stRp1089
ag3
(g4
g5
(dp1090
g14
S''
sg40
S'fromFile'
p1091
sg18
S''
sg42
S'File'
p1092
sg19
S''
sg15
g1091
sg28
Nsg44
S'File from which integration is being performed (source).'
p1093
stRp1094
ag3
(g4
g5
(dp1095
g14
S''
sg40
S'startFromRev'
p1096
sg18
S''
sg42
S'Rev'
p1097
sg19
S''
sg15
g1096
sg28
Nsg44
S'Starting revision of fromFile'
p1098
stRp1099
ag3
(g4
g5
(dp1100
g14
S''
sg40
S'endFromRev'
p1101
sg18
S''
sg42
S'Rev'
p1102
sg19
S''
sg15
g1101
sg28
Nsg44
S'Ending revision of fromFile. If integrating from a single \n\t\t    revision (not a revision range), the startFromRev and \n\t\t    endFromRev fields will be identical.'
p1103
stRp1104
ag3
(g4
g5
(dp1105
g14
S''
sg40
S'startToRev'
p1106
sg18
S''
sg42
S'Rev'
p1107
sg19
S''
sg15
g1106
sg28
Nsg44
S'Start revision of toFile into which integration was \n\t\t    performed.'
p1108
stRp1109
ag3
(g4
g5
(dp1110
g14
S''
sg40
S'endToRev'
p1111
sg18
S''
sg42
S'Rev'
p1112
sg19
S''
sg15
g1111
sg28
Nsg44
S'End revision of toFile into which integration was \n\t\t    performed. Only varies from startToRev for reverse \n\t\t    integration records.'
p1113
stRp1114
ag3
(g4
g5
(dp1115
g14
S''
sg40
S'how'
p1116
sg18
S''
sg42
S'IntegHow'
p1117
sg19
S''
sg15
g1116
sg28
Nsg44
S'Integration method: variations on \n\t\t    merge/branch/copy/ignore/delete.'
p1118
stRp1119
ag3
(g4
g5
(dp1120
g14
S''
sg40
S'change'
p1121
sg18
S''
sg42
S'Change'
p1122
sg19
S''
sg15
g1121
sg28
Nsg44
S'Changelist associated with the integration.'
p1123
stRp1124
atRp1125
sg98
g1073
sg40
S'db.integed'
p1126
sg99
S'0'
sg100
g101
sg151
S'db.resolve'
p1127
sg42
S'Integed'
p1128
sg104
S'10'
p1129
sg44
S'Permanent integration records'
p1130
stRp1131
sS'job'
p1132
g3
(g4
g5
(dp1133
g7
S'job'
p1134
sg9
g3
(g10
g11
(lp1135
g3
(g4
g5
(dp1136
g14
S''
sg15
g16
sg17
g16
sg18
S''
sg19
S''
sg20
g21
sg22
g23
stRp1137
ag3
(g4
g5
(dp1138
g14
S''
sg17
g26
sg18
S''
sg20
g27
sg19
S''
sg15
g26
sg28
Nsg22
g29
stRp1139
ag3
(g4
g5
(dp1140
g14
S''
sg17
g32
sg18
S''
sg20
g21
sg19
S''
sg15
g32
sg28
Nsg22
g33
stRp1141
ag3
(g4
g5
(dp1142
g14
S''
sg17
g36
sg18
S''
sg20
g27
sg19
S''
sg15
g36
sg28
Nsg22
g37
stRp1143
ag3
(g4
g5
(dp1144
g14
S''
sg40
S'job'
p1145
sg18
S''
sg42
S'String'
p1146
sg19
S''
sg15
g1145
sg28
Nsg44
S'The job name'
p1147
stRp1148
ag3
(g4
g5
(dp1149
g14
S''
sg40
S'xuser'
p1150
sg18
S''
sg42
S'User'
p1151
sg19
S''
sg15
g1150
sg28
Nsg44
S'User name: defunct'
p1152
stRp1153
ag3
(g4
g5
(dp1154
g14
S''
sg40
S'xdate'
p1155
sg18
S''
sg42
S'Date'
p1156
sg19
S''
sg15
g1155
sg28
Nsg44
S'The date: defunct'
p1157
stRp1158
ag3
(g4
g5
(dp1159
g14
S''
sg40
S'xstatus'
p1160
sg18
S''
sg42
S'JobStat'
p1161
sg19
S''
sg15
g1160
sg28
Nsg44
S'Job status: defunct'
p1162
stRp1163
ag3
(g4
g5
(dp1164
g14
S''
sg40
S'description'
p1165
sg18
S''
sg42
S'DescShort'
p1166
sg19
S''
sg15
g1165
sg28
Nsg44
S'Short description'
p1167
stRp1168
atRp1169
sg98
g1132
sg40
S'db.job'
p1170
sg99
S'0'
sg100
g101
sg151
g3
(g10
g11
(lp1171
S'db.bodtext'
p1172
aS'db.boddate'
p1173
atRp1174
sg42
S'Job'
p1175
sg104
S'29'
p1176
sg44
S'Job records'
p1177
stRp1178
sS'user'
p1179
g3
(g4
g5
(dp1180
g7
S'user'
p1181
sg9
g3
(g10
g11
(lp1182
g3
(g4
g5
(dp1183
g14
S''
sg15
g16
sg17
g16
sg18
S''
sg19
S''
sg20
g21
sg22
g23
stRp1184
ag3
(g4
g5
(dp1185
g14
S''
sg17
g26
sg18
S''
sg20
g27
sg19
S''
sg15
g26
sg28
Nsg22
g29
stRp1186
ag3
(g4
g5
(dp1187
g14
S''
sg17
g32
sg18
S''
sg20
g21
sg19
S''
sg15
g32
sg28
Nsg22
g33
stRp1188
ag3
(g4
g5
(dp1189
g14
S''
sg17
g36
sg18
S''
sg20
g27
sg19
S''
sg15
g36
sg28
Nsg22
g37
stRp1190
ag3
(g4
g5
(dp1191
g14
S''
sg40
S'user'
p1192
sg18
S''
sg42
S'User'
p1193
sg19
S''
sg15
g1192
sg28
Nsg44
S'The username'
p1194
stRp1195
ag3
(g4
g5
(dp1196
g14
S''
sg40
S'email'
p1197
sg18
S''
sg42
S'Text'
p1198
sg19
S''
sg15
g1197
sg28
Nsg44
S"The user's email address"
p1199
stRp1200
ag3
(g4
g5
(dp1201
g14
S''
sg40
S'jobView'
p1202
sg18
S''
sg42
S'Text'
p1203
sg19
S''
sg15
g1202
sg28
Nsg44
S"The user's job view"
p1204
stRp1205
ag3
(g4
g5
(dp1206
g14
S''
sg40
S'updateDate'
p1207
sg18
S''
sg42
S'Date'
p1208
sg19
S''
sg15
g1207
sg28
Nsg44
S'The date/time the user record was last updated'
p1209
stRp1210
ag3
(g4
g5
(dp1211
g14
S''
sg40
S'accessDate'
p1212
sg18
S''
sg42
S'Date'
p1213
sg19
S''
sg15
g1212
sg28
Nsg44
S'The date/time the user record was last used'
p1214
stRp1215
ag3
(g4
g5
(dp1216
g14
S''
sg40
S'fullName'
p1217
sg18
S''
sg42
S'Text'
p1218
sg19
S''
sg15
g1217
sg28
Nsg44
S"The user's full name"
p1219
stRp1220
ag3
(g4
g5
(dp1221
g14
S''
sg40
S'password'
p1222
sg18
S''
sg42
S'Password'
p1223
sg19
S''
sg15
g1222
sg28
Nsg44
S'The MD5 hash of the users (encrypted) password'
p1224
stRp1225
ag3
(g4
g5
(dp1226
g14
S''
sg40
S'strength'
p1227
sg18
S''
sg42
S'Strength'
p1228
sg19
S''
sg15
g1227
sg28
Nsg44
S"Measure of the strength of the user's password"
p1229
stRp1230
ag3
(g4
g5
(dp1231
g14
S''
sg40
S'ticket'
p1232
sg18
S''
sg42
S'Password'
p1233
sg19
S''
sg15
g1232
sg28
Nsg44
S"'p4 login' ticket for this user"
p1234
stRp1235
ag3
(g4
g5
(dp1236
g14
S''
sg40
S'endDate'
p1237
sg18
S''
sg42
S'Date'
p1238
sg19
S''
sg15
g1237
sg28
Nsg44
S"Date/time the user's ticket expires"
p1239
stRp1240
atRp1241
sg98
g1179
sg99
S'3'
sg100
g101
sg44
S'Lists users known to Perforce'
p1242
sg42
S'User'
p1243
sg104
S'3'
sg40
S'db.user'
p1244
stRp1245
sS'archmap'
p1246
g3
(g4
g5
(dp1247
g7
S'lbrFile, depotFile'
p1248
sg9
g3
(g10
g11
(lp1249
g3
(g4
g5
(dp1250
g14
S''
sg15
g16
sg17
g16
sg18
S''
sg19
S''
sg20
g21
sg22
g23
stRp1251
ag3
(g4
g5
(dp1252
g14
S''
sg17
g26
sg18
S''
sg20
g27
sg19
S''
sg15
g26
sg28
Nsg22
g29
stRp1253
ag3
(g4
g5
(dp1254
g14
S''
sg17
g32
sg18
S''
sg20
g21
sg19
S''
sg15
g32
sg28
Nsg22
g33
stRp1255
ag3
(g4
g5
(dp1256
g14
S''
sg17
g36
sg18
S''
sg20
g27
sg19
S''
sg15
g36
sg28
Nsg22
g37
stRp1257
ag3
(g4
g5
(dp1258
g14
S''
sg40
S'lbrFile'
p1259
sg18
S''
sg42
S'File'
p1260
sg19
S''
sg15
g1259
sg28
Nsg44
S'Paths in the librarian namespace that provide lazy\n\t\t    copies.'
p1261
stRp1262
ag3
(g4
g5
(dp1263
g14
S''
sg40
S'depotFile'
p1264
sg18
S''
sg42
S'File'
p1265
sg19
S''
sg15
g1264
sg28
Nsg44
S'Paths in the depot namespace that receive lazy copies.'
p1266
stRp1267
atRp1268
sg98
g1246
sg745
S'Supercedes db.archive'
p1269
sg99
S'0'
sg100
g101
sg44
S'Mappings entries for lazy-copies.'
p1270
sg42
S'ArchMap'
p1271
sg104
S'16'
p1272
sg40
S'db.archmap'
p1273
stRp1274
sS'change'
p1275
g3
(g4
g5
(dp1276
g7
S'change'
p1277
sg9
g3
(g10
g11
(lp1278
g3
(g4
g5
(dp1279
g14
S''
sg15
g16
sg17
g16
sg18
S''
sg19
S''
sg20
g21
sg22
g23
stRp1280
ag3
(g4
g5
(dp1281
g14
S''
sg17
g26
sg18
S''
sg20
g27
sg19
S''
sg15
g26
sg28
Nsg22
g29
stRp1282
ag3
(g4
g5
(dp1283
g14
S''
sg17
g32
sg18
S''
sg20
g21
sg19
S''
sg15
g32
sg28
Nsg22
g33
stRp1284
ag3
(g4
g5
(dp1285
g14
S''
sg17
g36
sg18
S''
sg20
g27
sg19
S''
sg15
g36
sg28
Nsg22
g37
stRp1286
ag3
(g4
g5
(dp1287
g14
S''
sg40
S'change'
p1288
sg18
S''
sg42
S'Change'
p1289
sg19
S''
sg15
g1288
sg28
Nsg44
S'The change number'
p1290
stRp1291
ag3
(g4
g5
(dp1292
g14
S''
sg40
S'descKey'
p1293
sg18
S''
sg42
S'Change'
p1294
sg19
S''
sg15
g1293
sg28
Nsg44
S"The description key. Normally the same as 'change', but\n\t\t    may differ if a changelist was renumbered on submission."
p1295
stRp1296
ag3
(g4
g5
(dp1297
g14
S''
sg40
S'client'
p1298
sg18
S''
sg42
S'Domain'
p1299
sg19
S''
sg15
g1298
sg28
Nsg44
S'The client from which the change originates'
p1300
stRp1301
ag3
(g4
g5
(dp1302
g14
S''
sg40
S'user'
p1303
sg18
S''
sg42
S'User'
p1304
sg19
S''
sg15
g1303
sg28
Nsg44
S'The user who owns the change'
p1305
stRp1306
ag3
(g4
g5
(dp1307
g14
S''
sg40
S'date'
p1308
sg18
S''
sg42
S'Date'
p1309
sg19
S''
sg15
g1308
sg28
Nsg44
S'Date and time the changelist was submitted'
p1310
stRp1311
ag3
(g4
g5
(dp1312
g14
S''
sg40
S'status'
p1313
sg18
S''
sg42
S'Int'
p1314
sg19
S''
sg15
g1313
sg28
Nsg44
S'Flag: 0 for pending changes; 1 for committed changes.'
p1315
stRp1316
ag3
(g4
g5
(dp1317
g14
S''
sg40
S'description'
p1318
sg18
S''
sg42
S'DescShort'
p1319
sg19
S''
sg15
g1318
sg28
Nsg44
S'Short description of the change.'
p1320
stRp1321
ag3
(g4
g5
(dp1322
g14
S''
sg40
S'root'
p1323
sg18
S''
sg42
S'Mapping'
p1324
sg19
S''
sg15
g1323
sg28
Nsg44
S'Common path for all files in the changelist'
p1325
stRp1326
atRp1327
sg98
g1275
sg99
S'1'
sg100
g101
sg44
S'Changelists'
p1328
sg42
S'Change'
p1329
sg104
S'26'
p1330
sg40
S'db.change'
p1331
stRp1332
sS'desc'
p1333
g3
(g4
g5
(dp1334
g7
S'descKey'
p1335
sg9
g3
(g10
g11
(lp1336
g3
(g4
g5
(dp1337
g14
S''
sg15
g16
sg17
g16
sg18
S''
sg19
S''
sg20
g21
sg22
g23
stRp1338
ag3
(g4
g5
(dp1339
g14
S''
sg17
g26
sg18
S''
sg20
g27
sg19
S''
sg15
g26
sg28
Nsg22
g29
stRp1340
ag3
(g4
g5
(dp1341
g14
S''
sg17
g32
sg18
S''
sg20
g21
sg19
S''
sg15
g32
sg28
Nsg22
g33
stRp1342
ag3
(g4
g5
(dp1343
g14
S''
sg17
g36
sg18
S''
sg20
g27
sg19
S''
sg15
g36
sg28
Nsg22
g37
stRp1344
ag3
(g4
g5
(dp1345
g14
S''
sg40
S'descKey'
p1346
sg18
S''
sg42
S'Change'
p1347
sg19
S''
sg15
g1346
sg28
Nsg44
S'Original number of the change to which this description\n\t\t    applies. This may differ from the final change number if\n\t\t    the change is renumbered on submission.'
p1348
stRp1349
ag3
(g4
g5
(dp1350
g14
S''
sg40
S'description'
p1351
sg18
S''
sg42
S'Text'
p1352
sg19
S''
sg15
g1351
sg28
Nsg44
S'The change description itself'
p1353
stRp1354
atRp1355
sg98
g1333
sg99
S'0'
sg100
g101
sg44
S'Change descriptions'
p1356
sg42
S'Desc'
p1357
sg104
S'28'
p1358
sg40
S'db.desc'
p1359
stRp1360
sS'protect'
p1361
g3
(g4
g5
(dp1362
g7
S'seq'
p1363
sg9
g3
(g10
g11
(lp1364
g3
(g4
g5
(dp1365
g14
S''
sg15
g16
sg17
g16
sg18
S''
sg19
S''
sg20
g21
sg22
g23
stRp1366
ag3
(g4
g5
(dp1367
g14
S''
sg17
g26
sg18
S''
sg20
g27
sg19
S''
sg15
g26
sg28
Nsg22
g29
stRp1368
ag3
(g4
g5
(dp1369
g14
S''
sg17
g32
sg18
S''
sg20
g21
sg19
S''
sg15
g32
sg28
Nsg22
g33
stRp1370
ag3
(g4
g5
(dp1371
g14
S''
sg17
g36
sg18
S''
sg20
g27
sg19
S''
sg15
g36
sg28
Nsg22
g37
stRp1372
ag3
(g4
g5
(dp1373
g14
S''
sg40
S'seq'
p1374
sg18
S''
sg42
S'Int'
p1375
sg19
S''
sg15
g1374
sg28
Nsg44
S'Sequence number: for ordering the protections table'
p1376
stRp1377
ag3
(g4
g5
(dp1378
g14
S''
sg40
S'isGroup'
p1379
sg18
S''
sg42
S'Int'
p1380
sg19
S''
sg15
g1379
sg28
Nsg44
S'Flag: 0 for a per-user setting, 1 for a per-group setting.'
p1381
stRp1382
ag3
(g4
g5
(dp1383
g14
S''
sg40
S'user'
p1384
sg18
S''
sg42
S'UserWild'
p1385
sg19
S''
sg15
g1384
sg28
Nsg44
S'User(s), or Group(s) for whom this record applies.'
p1386
stRp1387
ag3
(g4
g5
(dp1388
g14
S''
sg40
S'host'
p1389
sg18
S''
sg42
S'DomainWild'
p1390
sg19
S''
sg15
g1389
sg28
Nsg44
S'Domain(s) (IP addresses) for which this record applies.'
p1391
stRp1392
ag3
(g4
g5
(dp1393
g14
S''
sg40
S'perm'
p1394
sg18
S''
sg42
S'Perm'
p1395
sg19
S''
sg15
g1394
sg28
Nsg44
S'Permissions to be granted/revoked'
p1396
stRp1397
ag3
(g4
g5
(dp1398
g14
S''
sg40
S'mapFlag'
p1399
sg18
S''
sg42
S'MapFlag'
p1400
sg19
S''
sg15
g1399
sg28
Nsg44
S'Flag: Map the files in or out?'
p1401
stRp1402
ag3
(g4
g5
(dp1403
g14
S''
sg40
S'depotFile'
p1404
sg18
S''
sg42
S'Mapping'
p1405
sg19
S''
sg15
g1404
sg28
Nsg44
S'Files to be mapped in or out.'
p1406
stRp1407
atRp1408
sg98
g1361
sg99
S'4'
sg100
g101
sg44
S'The protections table'
p1409
sg42
S'Protect'
p1410
sg104
S'38'
p1411
sg40
S'db.protect'
p1412
stRp1413
sS'resolve'
p1414
g3
(g4
g5
(dp1415
g7
S'toFile, fromFile, startFromRev'
p1416
sg9
g3
(g10
g11
(lp1417
g3
(g4
g5
(dp1418
g14
S''
sg15
g16
sg17
g16
sg18
S''
sg19
S''
sg20
g21
sg22
g23
stRp1419
ag3
(g4
g5
(dp1420
g14
S''
sg17
g26
sg18
S''
sg20
g27
sg19
S''
sg15
g26
sg28
Nsg22
g29
stRp1421
ag3
(g4
g5
(dp1422
g14
S''
sg17
g32
sg18
S''
sg20
g21
sg19
S''
sg15
g32
sg28
Nsg22
g33
stRp1423
ag3
(g4
g5
(dp1424
g14
S''
sg17
g36
sg18
S''
sg20
g27
sg19
S''
sg15
g36
sg28
Nsg22
g37
stRp1425
ag3
(g4
g5
(dp1426
g14
S''
sg40
S'toFile'
p1427
sg18
S''
sg42
S'File'
p1428
sg19
S''
sg15
g1427
sg28
Nsg44
S'File to which integration is being performed (target).'
p1429
stRp1430
ag3
(g4
g5
(dp1431
g14
S''
sg40
S'fromFile'
p1432
sg18
S''
sg42
S'File'
p1433
sg19
S''
sg15
g1432
sg28
Nsg44
S'File from which integration is being performed (source).'
p1434
stRp1435
ag3
(g4
g5
(dp1436
g14
S''
sg40
S'startFromRev'
p1437
sg18
S''
sg42
S'Rev'
p1438
sg19
S''
sg15
g1437
sg28
Nsg44
S'Starting revision of fromFile'
p1439
stRp1440
ag3
(g4
g5
(dp1441
g14
S''
sg40
S'endFromRev'
p1442
sg18
S''
sg42
S'Rev'
p1443
sg19
S''
sg15
g1442
sg28
Nsg44
S'Ending revision of fromFile. If integrating from a single \n\t\t    revision (not a revision range), the startFromRev and \n\t\t    endFromRev fields will be identical.'
p1444
stRp1445
ag3
(g4
g5
(dp1446
g14
S''
sg40
S'startToRev'
p1447
sg18
S''
sg42
S'Rev'
p1448
sg19
S''
sg15
g1447
sg28
Nsg44
S'Start revision of toFile into which integration was \n\t\t    performed.'
p1449
stRp1450
ag3
(g4
g5
(dp1451
g14
S''
sg40
S'endToRev'
p1452
sg18
S''
sg42
S'Rev'
p1453
sg19
S''
sg15
g1452
sg28
Nsg44
S'End revision of toFile into which integration was \n\t\t    performed. Only varies from startToRev for reverse \n\t\t    integration records.'
p1454
stRp1455
ag3
(g4
g5
(dp1456
g14
S''
sg40
S'how'
p1457
sg18
S''
sg42
S'IntegHow'
p1458
sg19
S''
sg15
g1457
sg28
Nsg44
S'Integration method: variations on \n\t\t    merge/branch/copy/ignore/delete.'
p1459
stRp1460
ag3
(g4
g5
(dp1461
g14
S''
sg40
S'resolved'
p1462
sg18
S''
sg42
S'ResolvedStatus'
p1463
sg19
S''
sg15
g1462
sg28
Nsg44
S'How the user performed the resolve.'
p1464
stRp1465
ag3
(g4
g5
(dp1466
g14
S''
sg40
S'baseFile'
p1467
sg18
S''
sg42
S'File'
p1468
sg19
S''
sg15
g1467
sg28
Nsg44
S'File used as the base for merging.'
p1469
stRp1470
ag3
(g4
g5
(dp1471
g14
S''
sg40
S'baseRev'
p1472
sg18
S''
sg42
S'Rev'
p1473
sg19
S''
sg15
g1472
sg28
Nsg44
S'Revision of baseFile used as the merge base.'
p1474
stRp1475
atRp1476
sg98
g1414
sg40
S'db.resolve'
p1477
sg99
S'0'
sg100
g101
sg151
S'db.integed'
p1478
sg42
S'Resolve'
p1479
sg104
S'11'
p1480
sg44
S'Pending integration records'
p1481
stRp1482
sS'locks'
p1483
g3
(g4
g5
(dp1484
g7
S'depotFile, client'
p1485
sg9
g3
(g10
g11
(lp1486
g3
(g4
g5
(dp1487
g14
S''
sg15
g16
sg17
g16
sg18
S''
sg19
S''
sg20
g21
sg22
g23
stRp1488
ag3
(g4
g5
(dp1489
g14
S''
sg17
g26
sg18
S''
sg20
g27
sg19
S''
sg15
g26
sg28
Nsg22
g29
stRp1490
ag3
(g4
g5
(dp1491
g14
S''
sg17
g32
sg18
S''
sg20
g21
sg19
S''
sg15
g32
sg28
Nsg22
g33
stRp1492
ag3
(g4
g5
(dp1493
g14
S''
sg17
g36
sg18
S''
sg20
g27
sg19
S''
sg15
g36
sg28
Nsg22
g37
stRp1494
ag3
(g4
g5
(dp1495
g14
S''
sg40
S'depotFile'
p1496
sg18
S''
sg42
S'File'
p1497
sg19
S''
sg15
g1496
sg28
Nsg44
S'File in depot'
p1498
stRp1499
ag3
(g4
g5
(dp1500
g14
S''
sg40
S'client'
p1501
sg18
S''
sg42
S'Domain'
p1502
sg19
S''
sg15
g1501
sg28
Nsg44
S'Domain (client) in which file is open'
p1503
stRp1504
ag3
(g4
g5
(dp1505
g14
S''
sg40
S'user'
p1506
sg18
S''
sg42
S'User'
p1507
sg19
S''
sg15
g1506
sg28
Nsg44
S'User who presently has the file open'
p1508
stRp1509
ag3
(g4
g5
(dp1510
g14
S''
sg40
S'action'
p1511
sg18
S''
sg42
S'Action'
p1512
sg19
S''
sg15
g1511
sg28
Nsg44
S'Action file is open for: add, edit, delete, branch,\n\t\t    integrate, or import'
p1513
stRp1514
ag3
(g4
g5
(dp1515
g14
S''
sg40
S'isLocked'
p1516
sg18
S''
sg42
S'Int'
p1517
sg19
S''
sg15
g1516
sg28
Nsg44
S'Flag: 0 for unlocked, 1 for locked'
p1518
stRp1519
ag3
(g4
g5
(dp1520
g14
S''
sg40
S'change'
p1521
sg18
S''
sg42
S'Int'
p1522
sg19
S''
sg15
g1521
sg28
Nsg44
S'Changelist in which the revision is open: 0 for the\n\t\t    default changelist'
p1523
stRp1524
atRp1525
sg98
g1483
sg99
S'2'
sg100
g101
sg44
S'Locked/Unlocked files'
p1526
sg42
S'Locks'
p1527
sg104
S'14'
p1528
sg40
S'db.locks'
p1529
stRp1530
sS'revhx'
p1531
g3
(g4
g5
(dp1532
g7
S'depotFile'
p1533
sg9
g3
(g10
g11
(lp1534
g3
(g4
g5
(dp1535
g14
S''
sg15
g16
sg17
g16
sg18
S''
sg19
S''
sg20
g21
sg22
g23
stRp1536
ag3
(g4
g5
(dp1537
g14
S''
sg17
g26
sg18
S''
sg20
g27
sg19
S''
sg15
g26
sg28
Nsg22
g29
stRp1538
ag3
(g4
g5
(dp1539
g14
S''
sg17
g32
sg18
S''
sg20
g21
sg19
S''
sg15
g32
sg28
Nsg22
g33
stRp1540
ag3
(g4
g5
(dp1541
g14
S''
sg17
g36
sg18
S''
sg20
g27
sg19
S''
sg15
g36
sg28
Nsg22
g37
stRp1542
ag3
(g4
g5
(dp1543
g14
S''
sg40
g632
sg18
S''
sg42
g633
sg19
S''
sg15
g632
sg28
Nsg44
g634
stRp1544
ag3
(g4
g5
(dp1545
g14
S''
sg40
g637
sg18
S''
sg42
g638
sg19
S''
sg15
g637
sg28
Nsg44
g639
stRp1546
ag3
(g4
g5
(dp1547
g14
S''
sg40
g642
sg18
S''
sg42
g643
sg19
S''
sg15
g642
sg28
Nsg44
g644
stRp1548
ag3
(g4
g5
(dp1549
g14
S''
sg40
g647
sg18
S''
sg42
g648
sg19
S''
sg15
g647
sg28
Nsg44
g649
stRp1550
ag3
(g4
g5
(dp1551
g14
S''
sg40
g652
sg18
S''
sg42
g653
sg19
S''
sg15
g652
sg28
Nsg44
g654
stRp1552
ag3
(g4
g5
(dp1553
g14
S''
sg40
g657
sg18
S''
sg42
g658
sg19
S''
sg15
g657
sg28
Nsg44
g659
stRp1554
ag3
(g4
g5
(dp1555
g14
S''
sg40
g662
sg18
S''
sg42
g663
sg19
S''
sg15
g662
sg28
Nsg44
g664
stRp1556
ag3
(g4
g5
(dp1557
g14
S''
sg40
g667
sg18
S''
sg42
g668
sg19
S''
sg15
g667
sg28
Nsg44
g669
stRp1558
ag3
(g4
g5
(dp1559
g14
S''
sg40
g672
sg18
S''
sg42
g673
sg19
S''
sg15
g672
sg28
Nsg44
g674
stRp1560
ag3
(g4
g5
(dp1561
g14
S''
sg40
g677
sg18
S''
sg42
g678
sg19
S''
sg15
g677
sg28
Nsg44
g679
stRp1562
ag3
(g4
g5
(dp1563
g14
S''
sg40
g682
sg18
S''
sg42
g683
sg19
S''
sg15
g682
sg28
Nsg44
g684
stRp1564
ag3
(g4
g5
(dp1565
g14
S''
sg40
g687
sg18
S''
sg42
g688
sg19
S''
sg15
g687
sg28
Nsg44
g689
stRp1566
ag3
(g4
g5
(dp1567
g14
S''
sg40
g692
sg18
S''
sg42
g693
sg19
S''
sg15
g692
sg28
Nsg44
g694
stRp1568
ag3
(g4
g5
(dp1569
g14
S''
sg40
g697
sg18
S''
sg42
g698
sg19
S''
sg15
g697
sg28
Nsg44
g699
stRp1570
atRp1571
sg98
g1531
sg99
S'7'
sg100
g101
sg44
S'Revision records for revisions NOT deleted at the head revision.'
p1572
sg42
S'Rev'
p1573
sg104
S'20'
p1574
sg40
S'db.revhx'
p1575
stRp1576
sS'integ'
p1577
g3
(g4
g5
(dp1578
g7
S'toFile, fromFile, startFromRev'
p1579
sg9
g3
(g10
g11
(lp1580
g3
(g4
g5
(dp1581
g14
S''
sg15
g16
sg17
g16
sg18
S''
sg19
S''
sg20
g21
sg22
g23
stRp1582
ag3
(g4
g5
(dp1583
g14
S''
sg17
g26
sg18
S''
sg20
g27
sg19
S''
sg15
g26
sg28
Nsg22
g29
stRp1584
ag3
(g4
g5
(dp1585
g14
S''
sg17
g32
sg18
S''
sg20
g21
sg19
S''
sg15
g32
sg28
Nsg22
g33
stRp1586
ag3
(g4
g5
(dp1587
g14
S''
sg17
g36
sg18
S''
sg20
g27
sg19
S''
sg15
g36
sg28
Nsg22
g37
stRp1588
ag3
(g4
g5
(dp1589
g14
S''
sg40
S'toFile'
p1590
sg18
S''
sg42
S'File'
p1591
sg19
S''
sg15
g1590
sg28
Nsg44
S'File to which integration is being performed (target).'
p1592
stRp1593
ag3
(g4
g5
(dp1594
g14
S''
sg40
S'fromFile'
p1595
sg18
S''
sg42
S'File'
p1596
sg19
S''
sg15
g1595
sg28
Nsg44
S'File from which integration is being performed (source).'
p1597
stRp1598
ag3
(g4
g5
(dp1599
g14
S''
sg40
S'startFromRev'
p1600
sg18
S''
sg42
S'Rev'
p1601
sg19
S''
sg15
g1600
sg28
Nsg44
S'Starting revision of fromFile'
p1602
stRp1603
ag3
(g4
g5
(dp1604
g14
S''
sg40
S'endFromRev'
p1605
sg18
S''
sg42
S'Rev'
p1606
sg19
S''
sg15
g1605
sg28
Nsg44
S'Ending revision of fromFile. If integrating from a single \n\t\t    revision (not a revision range), the startFromRev and \n\t\t    endFromRev fields will be identical.'
p1607
stRp1608
ag3
(g4
g5
(dp1609
g14
S''
sg40
S'toRev'
p1610
sg18
S''
sg42
S'Rev'
p1611
sg19
S''
sg15
g1610
sg28
Nsg44
S'Revision of toFile into which integration is being \n\t\t    performed.'
p1612
stRp1613
ag3
(g4
g5
(dp1614
g14
S''
sg40
S'how'
p1615
sg18
S''
sg42
S'IntegHow'
p1616
sg19
S''
sg15
g1615
sg28
Nsg44
S'Integration method: variations on \n\t\t    merge/branch/copy/ignore/delete.'
p1617
stRp1618
ag3
(g4
g5
(dp1619
g14
S''
sg40
S'committed'
p1620
sg18
S''
sg42
S'Int'
p1621
sg19
S''
sg15
g1620
sg28
Nsg44
S'Flag: 0 for pending, 1 for committed.'
p1622
stRp1623
ag3
(g4
g5
(dp1624
g14
S''
sg40
S'resolved'
p1625
sg18
S''
sg42
S'ResolvedStatus'
p1626
sg19
S''
sg15
g1625
sg28
Nsg44
S'Resolution method: unresolved, resolved manually, \n\t\t    or resolved as part of a branch or delete.'
p1627
stRp1628
ag3
(g4
g5
(dp1629
g14
S''
sg40
S'change'
p1630
sg18
S''
sg42
S'Change'
p1631
sg19
S''
sg15
g1630
sg28
Nsg44
S'Changelist associated with the integration.'
p1632
stRp1633
atRp1634
sg98
g1577
sg40
S'db.integ'
p1635
sg99
S'0'
sg100
g101
sg151
g3
(g10
g11
(lp1636
S'db.integed'
p1637
aS'db.resolve'
p1638
atRp1639
sg42
S'Integ'
p1640
sg104
S'9'
sg44
S'Integration records: obsolete since 2001.1'
p1641
stRp1642
sS'ixdate'
p1643
g3
(g4
g5
(dp1644
g7
S'date, attr, value'
p1645
sg9
g3
(g10
g11
(lp1646
g3
(g4
g5
(dp1647
g14
S''
sg15
g16
sg17
g16
sg18
S''
sg19
S''
sg20
g21
sg22
g23
stRp1648
ag3
(g4
g5
(dp1649
g14
S''
sg17
g26
sg18
S''
sg20
g27
sg19
S''
sg15
g26
sg28
Nsg22
g29
stRp1650
ag3
(g4
g5
(dp1651
g14
S''
sg17
g32
sg18
S''
sg20
g21
sg19
S''
sg15
g32
sg28
Nsg22
g33
stRp1652
ag3
(g4
g5
(dp1653
g14
S''
sg17
g36
sg18
S''
sg20
g27
sg19
S''
sg15
g36
sg28
Nsg22
g37
stRp1654
ag3
(g4
g5
(dp1655
g14
S''
sg40
S'date'
p1656
sg18
S''
sg42
S'Date'
p1657
sg19
S''
sg15
g1656
sg28
Nsg44
S'Date value'
p1658
stRp1659
ag3
(g4
g5
(dp1660
g14
S''
sg40
S'attr'
p1661
sg18
S''
sg42
S'Int'
p1662
sg19
S''
sg15
g1661
sg28
Nsg44
S'The attribute number (from the jobspec) to which this\n\t\t    date belongs'
p1663
stRp1664
ag3
(g4
g5
(dp1665
g14
S''
sg40
S'value'
p1666
sg18
S''
sg42
S'String'
p1667
sg19
S''
sg15
g1666
sg28
Nsg44
S'A job name'
p1668
stRp1669
atRp1670
sg98
g1643
sg40
S'db.ixdate'
p1671
sg99
S'0'
sg100
g101
sg151
S'db.ixtext'
p1672
sg42
S'IndexDate'
p1673
sg104
S'36'
p1674
sg44
S'Indexing data for date-valued job attributes.'
p1675
stRp1676
sS'bodtext'
p1677
g3
(g4
g5
(dp1678
g7
S'key, attr'
p1679
sg9
g3
(g10
g11
(lp1680
g3
(g4
g5
(dp1681
g14
S''
sg15
g16
sg17
g16
sg18
S''
sg19
S''
sg20
g21
sg22
g23
stRp1682
ag3
(g4
g5
(dp1683
g14
S''
sg17
g26
sg18
S''
sg20
g27
sg19
S''
sg15
g26
sg28
Nsg22
g29
stRp1684
ag3
(g4
g5
(dp1685
g14
S''
sg17
g32
sg18
S''
sg20
g21
sg19
S''
sg15
g32
sg28
Nsg22
g33
stRp1686
ag3
(g4
g5
(dp1687
g14
S''
sg17
g36
sg18
S''
sg20
g27
sg19
S''
sg15
g36
sg28
Nsg22
g37
stRp1688
ag3
(g4
g5
(dp1689
g14
S''
sg40
S'key'
p1690
sg18
S''
sg42
S'String'
p1691
sg19
S''
sg15
g1690
sg28
Nsg44
S'The job to which this attribute belongs'
p1692
stRp1693
ag3
(g4
g5
(dp1694
g14
S''
sg40
S'attr'
p1695
sg18
S''
sg42
S'Int'
p1696
sg19
S''
sg15
g1695
sg28
Nsg44
S'The attribute number (from the jobspec) of this attribute'
p1697
stRp1698
ag3
(g4
g5
(dp1699
g14
S''
sg40
S'text'
p1700
sg18
S''
sg42
S'Text'
p1701
sg19
S''
sg15
g1700
sg28
Nsg44
S'The attribute value'
p1702
stRp1703
atRp1704
sg98
g1677
sg99
S'0'
sg100
g101
sg44
S'Job data for non-date attributes.'
p1705
sg42
S'BodyText'
p1706
sg104
S'35'
p1707
sg40
S'db.bodtext'
p1708
stRp1709
sS'changex'
p1710
g3
(g4
g5
(dp1711
g7
S'change'
p1712
sg9
g3
(g10
g11
(lp1713
g3
(g4
g5
(dp1714
g14
S''
sg15
g16
sg17
g16
sg18
S''
sg19
S''
sg20
g21
sg22
g23
stRp1715
ag3
(g4
g5
(dp1716
g14
S''
sg17
g26
sg18
S''
sg20
g27
sg19
S''
sg15
g26
sg28
Nsg22
g29
stRp1717
ag3
(g4
g5
(dp1718
g14
S''
sg17
g32
sg18
S''
sg20
g21
sg19
S''
sg15
g32
sg28
Nsg22
g33
stRp1719
ag3
(g4
g5
(dp1720
g14
S''
sg17
g36
sg18
S''
sg20
g27
sg19
S''
sg15
g36
sg28
Nsg22
g37
stRp1721
ag3
(g4
g5
(dp1722
g14
S''
sg40
g1288
sg18
S''
sg42
g1289
sg19
S''
sg15
g1288
sg28
Nsg44
g1290
stRp1723
ag3
(g4
g5
(dp1724
g14
S''
sg40
g1293
sg18
S''
sg42
g1294
sg19
S''
sg15
g1293
sg28
Nsg44
g1295
stRp1725
ag3
(g4
g5
(dp1726
g14
S''
sg40
g1298
sg18
S''
sg42
g1299
sg19
S''
sg15
g1298
sg28
Nsg44
g1300
stRp1727
ag3
(g4
g5
(dp1728
g14
S''
sg40
g1303
sg18
S''
sg42
g1304
sg19
S''
sg15
g1303
sg28
Nsg44
g1305
stRp1729
ag3
(g4
g5
(dp1730
g14
S''
sg40
g1308
sg18
S''
sg42
g1309
sg19
S''
sg15
g1308
sg28
Nsg44
g1310
stRp1731
ag3
(g4
g5
(dp1732
g14
S''
sg40
g1313
sg18
S''
sg42
g1314
sg19
S''
sg15
g1313
sg28
Nsg44
g1315
stRp1733
ag3
(g4
g5
(dp1734
g14
S''
sg40
g1318
sg18
S''
sg42
g1319
sg19
S''
sg15
g1318
sg28
Nsg44
g1320
stRp1735
ag3
(g4
g5
(dp1736
g14
S''
sg40
g1323
sg18
S''
sg42
g1324
sg19
S''
sg15
g1323
sg28
Nsg44
g1325
stRp1737
atRp1738
sg98
g1710
sg745
S'contains records for pending changelists only.'
p1739
sg99
S'1'
sg100
g101
sg44
S'Subset of db.change'
p1740
sg42
S'Change'
p1741
sg104
S'27'
p1742
sg40
S'db.changex'
p1743
stRp1744
sS'boddate'
p1745
g3
(g4
g5
(dp1746
g7
S'key, attr'
p1747
sg9
g3
(g10
g11
(lp1748
g3
(g4
g5
(dp1749
g14
S''
sg15
g16
sg17
g16
sg18
S''
sg19
S''
sg20
g21
sg22
g23
stRp1750
ag3
(g4
g5
(dp1751
g14
S''
sg17
g26
sg18
S''
sg20
g27
sg19
S''
sg15
g26
sg28
Nsg22
g29
stRp1752
ag3
(g4
g5
(dp1753
g14
S''
sg17
g32
sg18
S''
sg20
g21
sg19
S''
sg15
g32
sg28
Nsg22
g33
stRp1754
ag3
(g4
g5
(dp1755
g14
S''
sg17
g36
sg18
S''
sg20
g27
sg19
S''
sg15
g36
sg28
Nsg22
g37
stRp1756
ag3
(g4
g5
(dp1757
g14
S''
sg40
S'key'
p1758
sg18
S''
sg42
S'String'
p1759
sg19
S''
sg15
g1758
sg28
Nsg44
S'The job to which this attribute belongs'
p1760
stRp1761
ag3
(g4
g5
(dp1762
g14
S''
sg40
S'attr'
p1763
sg18
S''
sg42
S'Int'
p1764
sg19
S''
sg15
g1763
sg28
Nsg44
S'The attribute number (from the jobspec) of this attribute'
p1765
stRp1766
ag3
(g4
g5
(dp1767
g14
S''
sg40
S'date'
p1768
sg18
S''
sg42
S'Date'
p1769
sg19
S''
sg15
g1768
sg28
Nsg44
S'The date value itself'
p1770
stRp1771
atRp1772
sg98
g1745
sg99
S'0'
sg100
g101
sg44
S'Job data for date-valued attributes'
p1773
sg42
S'BodyDate'
p1774
sg104
S'34'
p1775
sg40
S'db.boddate'
p1776
stRp1777
sS'review'
p1778
g3
(g4
g5
(dp1779
g7
S'user, seq'
p1780
sg9
g3
(g10
g11
(lp1781
g3
(g4
g5
(dp1782
g14
S''
sg15
g16
sg17
g16
sg18
S''
sg19
S''
sg20
g21
sg22
g23
stRp1783
ag3
(g4
g5
(dp1784
g14
S''
sg17
g26
sg18
S''
sg20
g27
sg19
S''
sg15
g26
sg28
Nsg22
g29
stRp1785
ag3
(g4
g5
(dp1786
g14
S''
sg17
g32
sg18
S''
sg20
g21
sg19
S''
sg15
g32
sg28
Nsg22
g33
stRp1787
ag3
(g4
g5
(dp1788
g14
S''
sg17
g36
sg18
S''
sg20
g27
sg19
S''
sg15
g36
sg28
Nsg22
g37
stRp1789
ag3
(g4
g5
(dp1790
g14
S''
sg40
S'user'
p1791
sg18
S''
sg42
S'User'
p1792
sg19
S''
sg15
g1791
sg28
Nsg44
S'A user name'
p1793
stRp1794
ag3
(g4
g5
(dp1795
g14
S''
sg40
S'seq'
p1796
sg18
S''
sg42
S'Int'
p1797
sg19
S''
sg15
g1796
sg28
Nsg44
S'Sequence number: used for ordering multi-line views'
p1798
stRp1799
ag3
(g4
g5
(dp1800
g14
S''
sg40
S'mapFlag'
p1801
sg18
S''
sg42
S'MapFlag'
p1802
sg19
S''
sg15
g1801
sg28
Nsg44
S'Type of mapping'
p1803
stRp1804
ag3
(g4
g5
(dp1805
g14
S''
sg40
S'depotFile'
p1806
sg18
S''
sg42
S'Mapping'
p1807
sg19
S''
sg15
g1806
sg28
Nsg44
S'The files to be reviewed'
p1808
stRp1809
ag3
(g4
g5
(dp1810
g14
S''
sg40
S'type'
p1811
sg18
S''
sg42
S'Reviewer'
p1812
sg19
S''
sg15
g1811
sg28
Nsg44
S'Type of reviewer'
p1813
stRp1814
atRp1815
sg98
g1778
sg99
S'1'
sg100
g101
sg44
S"Contains user's review mappings"
p1816
sg42
S'Review'
p1817
sg104
S'8'
sg40
S'db.review'
p1818
stRp1819
sS'view'
p1820
g3
(g4
g5
(dp1821
g7
S'name, seq'
p1822
sg9
g3
(g10
g11
(lp1823
g3
(g4
g5
(dp1824
g14
S''
sg15
g16
sg17
g16
sg18
S''
sg19
S''
sg20
g21
sg22
g23
stRp1825
ag3
(g4
g5
(dp1826
g14
S''
sg17
g26
sg18
S''
sg20
g27
sg19
S''
sg15
g26
sg28
Nsg22
g29
stRp1827
ag3
(g4
g5
(dp1828
g14
S''
sg17
g32
sg18
S''
sg20
g21
sg19
S''
sg15
g32
sg28
Nsg22
g33
stRp1829
ag3
(g4
g5
(dp1830
g14
S''
sg17
g36
sg18
S''
sg20
g27
sg19
S''
sg15
g36
sg28
Nsg22
g37
stRp1831
ag3
(g4
g5
(dp1832
g14
S''
sg40
S'name'
p1833
sg18
S''
sg42
S'Domain'
p1834
sg19
S''
sg15
g1833
sg28
Nsg44
S'Domain name to which this view applies'
p1835
stRp1836
ag3
(g4
g5
(dp1837
g14
S''
sg40
S'seq'
p1838
sg18
S''
sg42
S'Int'
p1839
sg19
S''
sg15
g1838
sg28
Nsg44
S'Sequence number: for ordering multi-line views'
p1840
stRp1841
ag3
(g4
g5
(dp1842
g14
S''
sg40
S'mapFlag'
p1843
sg18
S''
sg42
S'MapFlag'
p1844
sg19
S''
sg15
g1843
sg28
Nsg44
S'Type of mapping'
p1845
stRp1846
ag3
(g4
g5
(dp1847
g14
S''
sg40
S'viewFile'
p1848
sg18
S''
sg42
S'Mapping'
p1849
sg19
S''
sg15
g1848
sg28
Nsg44
S"The right-hand-side of the view. For clients, this is\n\t\t    the client-side, for labels it's the generated label \n\t\t    view. For branches, it's the target side of the branch\n\t\t    view."
p1850
stRp1851
ag3
(g4
g5
(dp1852
g14
S''
sg40
S'depotFile'
p1853
sg18
S''
sg42
S'Mapping'
p1854
sg19
S''
sg15
g1853
sg28
Nsg44
S'The left-hand-side of the view - a mapping to file(s)\n\t\t    in the depot.'
p1855
stRp1856
atRp1857
sg98
g1820
sg99
S'1'
sg100
g101
sg44
S'Contains views for domains'
p1858
sg42
S'View'
p1859
sg104
S'7'
sg40
S'db.view'
p1860
stRp1861
s.