(dp1
S'svrview'
p2
ccopy_reg
_reconstructor
p3
(clib.sqUtils
Storage
p4
c__builtin__
dict
p5
(dp6
S'keying'
p7
S'id, type, seq'
p8
sS'fields'
p9
g3
(clib.sqUtils
Lst
p10
c__builtin__
list
p11
(lp12
g3
(g4
g5
(dp13
S'comment'
p14
S''
sS'fieldname'
p15
S'id'
p16
sS'name'
p17
g16
sS'default'
p18
S''
sS'label'
p19
S''
sS'type'
p20
S'integer'
p21
sS'desc'
p22
S'Record number as read in'
p23
stRp24
ag3
(g4
g5
(dp25
g14
S''
sg17
S'db_action'
p26
sg18
S''
sg20
S'string'
p27
sg19
S''
sg15
g26
sS'requires'
p28
Nsg22
S'Operation on table'
p29
stRp30
ag3
(g4
g5
(dp31
g14
S''
sg17
S'table_revision'
p32
sg18
S''
sg20
g21
sg19
S''
sg15
g32
sg28
Nsg22
S'Revision of the p4 schema table'
p33
stRp34
ag3
(g4
g5
(dp35
g14
S''
sg17
S'table_name'
p36
sg18
S''
sg20
g27
sg19
S''
sg15
g36
sg28
Nsg22
S'Redundant... but this is the table name'
p37
stRp38
ag3
(g4
g5
(dp39
g14
S''
sS'name'
p40
S'id'
p41
sg18
S''
sS'type'
p42
S'Key'
p43
sg19
S''
sg15
g41
sg28
NsS'desc'
p44
S'Server name'
p45
stRp46
ag3
(g4
g5
(dp47
g14
S''
sg40
S'type'
p48
sg18
S''
sg42
S'SvrViewType'
p49
sg19
S''
sg15
g48
sg28
Nsg44
S'View type'
p50
stRp51
ag3
(g4
g5
(dp52
g14
S''
sg40
S'seq'
p53
sg18
S''
sg42
S'Int'
p54
sg19
S''
sg15
g53
sg28
Nsg44
S'Sequence (line) number'
p55
stRp56
ag3
(g4
g5
(dp57
g14
S''
sg40
S'mapFlag'
p58
sg18
S''
sg42
S'MapFlag'
p59
sg19
S''
sg15
g58
sg28
Nsg44
S'Type of mapping'
p60
stRp61
ag3
(g4
g5
(dp62
g14
S''
sg40
S'viewFile'
p63
sg18
S''
sg42
S'Mapping'
p64
sg19
S''
sg15
g63
sg28
Nsg44
S'View file'
p65
stRp66
atRp67
sS'tablename'
p68
g2
sS'version'
p69
S'0'
sS'schemaversion'
p70
S'2019.1'
p71
sg44
S'View data for servers specifications'
p72
sg42
S'SvrView'
p73
sS'lockseq'
p74
S'7'
sg40
S'db.svrview'
p75
stRp76
sS'rev'
p77
g3
(g4
g5
(dp78
g7
S'depotFile, depotRev'
p79
sg9
g3
(g10
g11
(lp80
g3
(g4
g5
(dp81
g14
S''
sg15
g16
sg17
g16
sg18
S''
sg19
S''
sg20
g21
sg22
g23
stRp82
ag3
(g4
g5
(dp83
g14
S''
sg17
g26
sg18
S''
sg20
g27
sg19
S''
sg15
g26
sg28
Nsg22
g29
stRp84
ag3
(g4
g5
(dp85
g14
S''
sg17
g32
sg18
S''
sg20
g21
sg19
S''
sg15
g32
sg28
Nsg22
g33
stRp86
ag3
(g4
g5
(dp87
g14
S''
sg17
g36
sg18
S''
sg20
g27
sg19
S''
sg15
g36
sg28
Nsg22
g37
stRp88
ag3
(g4
g5
(dp89
g14
S''
sg40
S'depotFile'
p90
sg18
S''
sg42
S'File'
p91
sg19
S''
sg15
g90
sg28
Nsg44
S'The file name'
p92
stRp93
ag3
(g4
g5
(dp94
g14
S''
sg40
S'depotRev'
p95
sg18
S''
sg42
S'Rev'
p96
sg19
S''
sg15
g95
sg28
Nsg44
S'The revision number'
p97
stRp98
ag3
(g4
g5
(dp99
g14
S''
sg40
S'type'
p100
sg18
S''
sg42
S'FileType'
p101
sg19
S''
sg15
g100
sg28
Nsg44
S'The file type of the revision'
p102
stRp103
ag3
(g4
g5
(dp104
g14
S''
sg40
S'action'
p105
sg18
S''
sg42
S'Action'
p106
sg19
S''
sg15
g105
sg28
Nsg44
S'The action that created the revision'
p107
stRp108
ag3
(g4
g5
(dp109
g14
S''
sg40
S'change'
p110
sg18
S''
sg42
S'Change'
p111
sg19
S''
sg15
g110
sg28
Nsg44
S'The changelist that created the revision'
p112
stRp113
ag3
(g4
g5
(dp114
g14
S''
sg40
S'date'
p115
sg18
S''
sg42
S'Date'
p116
sg19
S''
sg15
g115
sg28
Nsg44
S'The date/time the changelist that created the revision\n\t\t    was submitted'
p117
stRp118
ag3
(g4
g5
(dp119
g14
S''
sg40
S'modTime'
p120
sg18
S''
sg42
S'Date'
p121
sg19
S''
sg15
g120
sg28
Nsg44
S"The timestamp on the file in the user's workspace when\n\t\t    the revision was submitted."
p122
stRp123
ag3
(g4
g5
(dp124
g14
S''
sg40
S'digest'
p125
sg18
S''
sg42
S'Digest'
p126
sg19
S''
sg15
g125
sg28
Nsg44
S'The MD5 digest of the revision.'
p127
stRp128
ag3
(g4
g5
(dp129
g14
S''
sg40
S'size'
p130
sg18
S''
sg42
S'FileSize'
p131
sg19
S''
sg15
g130
sg28
Nsg44
S'The size of the file in bytes'
p132
stRp133
ag3
(g4
g5
(dp134
g14
S''
sg40
S'traitLot'
p135
sg18
S''
sg42
S'TraitLot'
p136
sg19
S''
sg15
g135
sg28
Nsg44
S'Group of traits (attributes) associated with the revision.'
p137
stRp138
ag3
(g4
g5
(dp139
g14
S''
sg40
S'lbrIsLazy'
p140
sg18
S''
sg42
S'RevStatus'
p141
sg19
S''
sg15
g140
sg28
Nsg44
S'Specifies whether or not the revision gets its content from \n\t  \t    another file (lazy copy), data about promotion of revision\n\t \t    content from task streams, and data about revision charset \n            information.'
p142
stRp143
ag3
(g4
g5
(dp144
g14
S''
sg40
S'lbrFile'
p145
sg18
S''
sg42
S'File'
p146
sg19
S''
sg15
g145
sg28
Nsg44
S"Filename for librarian's purposes.  Specifies location in \n\t\t    the archives where the file containing the revision may\n\t\t    be found. Usually the same as depotFile, but differs in\n\t\t    the case of branched/copied revisions."
p147
stRp148
ag3
(g4
g5
(dp149
g14
S''
sg40
S'lbrRev'
p150
sg18
S''
sg42
S'String'
p151
sg19
S''
sg15
g150
sg28
Nsg44
S'The revision of lbrFile that contains the revision content.'
p152
stRp153
ag3
(g4
g5
(dp154
g14
S''
sg40
S'lbrType'
p155
sg18
S''
sg42
S'FileType'
p156
sg19
S''
sg15
g155
sg28
Nsg44
S'The file type of the librarian revision. Usually the same\n\t\t    as type, but differs in the case of branched/copied \n\t\t    revisions.'
p157
stRp158
atRp159
sg68
g77
sg69
S'9'
sg70
g71
sg44
S'Revision records'
p160
sg42
S'Rev'
p161
sg74
S'51'
p162
sg40
S'db.rev'
p163
stRp164
sS'revpx'
p165
g3
(g4
g5
(dp166
g7
S'depotFile, depotRev'
p167
sg9
g3
(g10
g11
(lp168
g3
(g4
g5
(dp169
g14
S''
sg15
g16
sg17
g16
sg18
S''
sg19
S''
sg20
g21
sg22
g23
stRp170
ag3
(g4
g5
(dp171
g14
S''
sg17
g26
sg18
S''
sg20
g27
sg19
S''
sg15
g26
sg28
Nsg22
g29
stRp172
ag3
(g4
g5
(dp173
g14
S''
sg17
g32
sg18
S''
sg20
g21
sg19
S''
sg15
g32
sg28
Nsg22
g33
stRp174
ag3
(g4
g5
(dp175
g14
S''
sg17
g36
sg18
S''
sg20
g27
sg19
S''
sg15
g36
sg28
Nsg22
g37
stRp176
ag3
(g4
g5
(dp177
g14
S''
sg40
g90
sg18
S''
sg42
g91
sg19
S''
sg15
g90
sg28
Nsg44
g92
stRp178
ag3
(g4
g5
(dp179
g14
S''
sg40
g95
sg18
S''
sg42
g96
sg19
S''
sg15
g95
sg28
Nsg44
g97
stRp180
ag3
(g4
g5
(dp181
g14
S''
sg40
g100
sg18
S''
sg42
g101
sg19
S''
sg15
g100
sg28
Nsg44
g102
stRp182
ag3
(g4
g5
(dp183
g14
S''
sg40
g105
sg18
S''
sg42
g106
sg19
S''
sg15
g105
sg28
Nsg44
g107
stRp184
ag3
(g4
g5
(dp185
g14
S''
sg40
g110
sg18
S''
sg42
g111
sg19
S''
sg15
g110
sg28
Nsg44
g112
stRp186
ag3
(g4
g5
(dp187
g14
S''
sg40
g115
sg18
S''
sg42
g116
sg19
S''
sg15
g115
sg28
Nsg44
g117
stRp188
ag3
(g4
g5
(dp189
g14
S''
sg40
g120
sg18
S''
sg42
g121
sg19
S''
sg15
g120
sg28
Nsg44
g122
stRp190
ag3
(g4
g5
(dp191
g14
S''
sg40
g125
sg18
S''
sg42
g126
sg19
S''
sg15
g125
sg28
Nsg44
g127
stRp192
ag3
(g4
g5
(dp193
g14
S''
sg40
g130
sg18
S''
sg42
g131
sg19
S''
sg15
g130
sg28
Nsg44
g132
stRp194
ag3
(g4
g5
(dp195
g14
S''
sg40
g135
sg18
S''
sg42
g136
sg19
S''
sg15
g135
sg28
Nsg44
g137
stRp196
ag3
(g4
g5
(dp197
g14
S''
sg40
g140
sg18
S''
sg42
g141
sg19
S''
sg15
g140
sg28
Nsg44
g142
stRp198
ag3
(g4
g5
(dp199
g14
S''
sg40
g145
sg18
S''
sg42
g146
sg19
S''
sg15
g145
sg28
Nsg44
g147
stRp200
ag3
(g4
g5
(dp201
g14
S''
sg40
g150
sg18
S''
sg42
g151
sg19
S''
sg15
g150
sg28
Nsg44
g152
stRp202
ag3
(g4
g5
(dp203
g14
S''
sg40
g155
sg18
S''
sg42
g156
sg19
S''
sg15
g155
sg28
Nsg44
g157
stRp204
atRp205
sg68
g165
sS'note'
p206
S'Only populated during content trigger execution to allow\n\t\t\ttriggers access to the revisions being submitted.'
p207
sg69
S'9'
sg70
g71
sg44
S'Pending revision records'
p208
sg42
S'Rev'
p209
sg74
S'45'
p210
sg40
S'db.revpx'
p211
stRp212
sS'bodtextcx'
p213
g3
(g4
g5
(dp214
g7
S'type, key, change, attr'
p215
sg9
g3
(g10
g11
(lp216
g3
(g4
g5
(dp217
g14
S''
sg15
g16
sg17
g16
sg18
S''
sg19
S''
sg20
g21
sg22
g23
stRp218
ag3
(g4
g5
(dp219
g14
S''
sg17
g26
sg18
S''
sg20
g27
sg19
S''
sg15
g26
sg28
Nsg22
g29
stRp220
ag3
(g4
g5
(dp221
g14
S''
sg17
g32
sg18
S''
sg20
g21
sg19
S''
sg15
g32
sg28
Nsg22
g33
stRp222
ag3
(g4
g5
(dp223
g14
S''
sg17
g36
sg18
S''
sg20
g27
sg19
S''
sg15
g36
sg28
Nsg22
g37
stRp224
ag3
(g4
g5
(dp225
g14
S''
sg40
S'type'
p226
sg18
S''
sg42
S'Int'
p227
sg19
S''
sg15
g226
sg28
Nsg44
S'The type of spec'
p228
stRp229
ag3
(g4
g5
(dp230
g14
S''
sg40
S'key'
p231
sg18
S''
sg42
S'Key'
p232
sg19
S''
sg15
g231
sg28
Nsg44
S'The spec to which this attribute belongs'
p233
stRp234
ag3
(g4
g5
(dp235
g14
S''
sg40
S'change'
p236
sg18
S''
sg42
S'Change'
p237
sg19
S''
sg15
g236
sg28
Nsg44
S'The change to which this attribute belongs'
p238
stRp239
ag3
(g4
g5
(dp240
g14
S''
sg40
S'attr'
p241
sg18
S''
sg42
S'Int'
p242
sg19
S''
sg15
g241
sg28
Nsg44
S'The attribute number of this attribute'
p243
stRp244
ag3
(g4
g5
(dp245
g14
S''
sg40
S'text'
p246
sg18
S''
sg42
S'Text'
p247
sg19
S''
sg15
g246
sg28
Nsg44
S'The attribute value'
p248
stRp249
atRp250
sg68
g213
sg69
S'0'
sg70
g71
sg44
S'Versioned openable spec fields'
p251
sg42
S'BodyTextCx'
p252
sg74
S'85'
p253
sg40
S'db.bodtextcx'
p254
stRp255
sS'revtx'
p256
g3
(g4
g5
(dp257
g7
S'depotFile, depotRev'
p258
sg9
g3
(g10
g11
(lp259
g3
(g4
g5
(dp260
g14
S''
sg15
g16
sg17
g16
sg18
S''
sg19
S''
sg20
g21
sg22
g23
stRp261
ag3
(g4
g5
(dp262
g14
S''
sg17
g26
sg18
S''
sg20
g27
sg19
S''
sg15
g26
sg28
Nsg22
g29
stRp263
ag3
(g4
g5
(dp264
g14
S''
sg17
g32
sg18
S''
sg20
g21
sg19
S''
sg15
g32
sg28
Nsg22
g33
stRp265
ag3
(g4
g5
(dp266
g14
S''
sg17
g36
sg18
S''
sg20
g27
sg19
S''
sg15
g36
sg28
Nsg22
g37
stRp267
ag3
(g4
g5
(dp268
g14
S''
sg40
g90
sg18
S''
sg42
g91
sg19
S''
sg15
g90
sg28
Nsg44
g92
stRp269
ag3
(g4
g5
(dp270
g14
S''
sg40
g95
sg18
S''
sg42
g96
sg19
S''
sg15
g95
sg28
Nsg44
g97
stRp271
ag3
(g4
g5
(dp272
g14
S''
sg40
g100
sg18
S''
sg42
g101
sg19
S''
sg15
g100
sg28
Nsg44
g102
stRp273
ag3
(g4
g5
(dp274
g14
S''
sg40
g105
sg18
S''
sg42
g106
sg19
S''
sg15
g105
sg28
Nsg44
g107
stRp275
ag3
(g4
g5
(dp276
g14
S''
sg40
g110
sg18
S''
sg42
g111
sg19
S''
sg15
g110
sg28
Nsg44
g112
stRp277
ag3
(g4
g5
(dp278
g14
S''
sg40
g115
sg18
S''
sg42
g116
sg19
S''
sg15
g115
sg28
Nsg44
g117
stRp279
ag3
(g4
g5
(dp280
g14
S''
sg40
g120
sg18
S''
sg42
g121
sg19
S''
sg15
g120
sg28
Nsg44
g122
stRp281
ag3
(g4
g5
(dp282
g14
S''
sg40
g125
sg18
S''
sg42
g126
sg19
S''
sg15
g125
sg28
Nsg44
g127
stRp283
ag3
(g4
g5
(dp284
g14
S''
sg40
g130
sg18
S''
sg42
g131
sg19
S''
sg15
g130
sg28
Nsg44
g132
stRp285
ag3
(g4
g5
(dp286
g14
S''
sg40
g135
sg18
S''
sg42
g136
sg19
S''
sg15
g135
sg28
Nsg44
g137
stRp287
ag3
(g4
g5
(dp288
g14
S''
sg40
g140
sg18
S''
sg42
g141
sg19
S''
sg15
g140
sg28
Nsg44
g142
stRp289
ag3
(g4
g5
(dp290
g14
S''
sg40
g145
sg18
S''
sg42
g146
sg19
S''
sg15
g145
sg28
Nsg44
g147
stRp291
ag3
(g4
g5
(dp292
g14
S''
sg40
g150
sg18
S''
sg42
g151
sg19
S''
sg15
g150
sg28
Nsg44
g152
stRp293
ag3
(g4
g5
(dp294
g14
S''
sg40
g155
sg18
S''
sg42
g156
sg19
S''
sg15
g155
sg28
Nsg44
g157
stRp295
atRp296
sg68
g256
sg69
S'9'
sg70
g71
sg44
S'Task stream revision records'
p297
sg42
S'Rev'
p298
sg74
S'52'
p299
sg40
S'db.revtx'
p300
stRp301
sS'ixtext'
p302
g3
(g4
g5
(dp303
g7
S'word, attr, value'
p304
sg9
g3
(g10
g11
(lp305
g3
(g4
g5
(dp306
g14
S''
sg15
g16
sg17
g16
sg18
S''
sg19
S''
sg20
g21
sg22
g23
stRp307
ag3
(g4
g5
(dp308
g14
S''
sg17
g26
sg18
S''
sg20
g27
sg19
S''
sg15
g26
sg28
Nsg22
g29
stRp309
ag3
(g4
g5
(dp310
g14
S''
sg17
g32
sg18
S''
sg20
g21
sg19
S''
sg15
g32
sg28
Nsg22
g33
stRp311
ag3
(g4
g5
(dp312
g14
S''
sg17
g36
sg18
S''
sg20
g27
sg19
S''
sg15
g36
sg28
Nsg22
g37
stRp313
ag3
(g4
g5
(dp314
g14
S''
sg40
S'word'
p315
sg18
S''
sg42
S'Key'
p316
sg19
S''
sg15
g315
sg28
Nsg44
S'The word being indexed'
p317
stRp318
ag3
(g4
g5
(dp319
g14
S''
sg40
S'attr'
p320
sg18
S''
sg42
S'Int'
p321
sg19
S''
sg15
g320
sg28
Nsg44
S'The attribute number to which this word belongs. For\n\t\t    job data, the attribute number from the jobspec.'
p322
stRp323
ag3
(g4
g5
(dp324
g14
S''
sg40
S'value'
p325
sg18
S''
sg42
S'Key'
p326
sg19
S''
sg15
g325
sg28
Nsg44
S'For job data, a job name. For generic data, the value\n\t\t    of the index keyed by the word.'
p327
stRp328
atRp329
sg68
g302
sg69
S'0'
sg70
g71
sg44
S'Indexing data for generic and job attributes'
p330
sg42
S'IndexText'
p331
sg74
S'90'
p332
sg40
S'db.ixtext'
p333
stRp334
sS'rmtview'
p335
g3
(g4
g5
(dp336
g7
S'id, seq'
p337
sg9
g3
(g10
g11
(lp338
g3
(g4
g5
(dp339
g14
S''
sg15
g16
sg17
g16
sg18
S''
sg19
S''
sg20
g21
sg22
g23
stRp340
ag3
(g4
g5
(dp341
g14
S''
sg17
g26
sg18
S''
sg20
g27
sg19
S''
sg15
g26
sg28
Nsg22
g29
stRp342
ag3
(g4
g5
(dp343
g14
S''
sg17
g32
sg18
S''
sg20
g21
sg19
S''
sg15
g32
sg28
Nsg22
g33
stRp344
ag3
(g4
g5
(dp345
g14
S''
sg17
g36
sg18
S''
sg20
g27
sg19
S''
sg15
g36
sg28
Nsg22
g37
stRp346
ag3
(g4
g5
(dp347
g14
S''
sg40
S'id'
p348
sg18
S''
sg42
S'RemoteID'
p349
sg19
S''
sg15
g348
sg28
Nsg44
S'Remote name'
p350
stRp351
ag3
(g4
g5
(dp352
g14
S''
sg40
S'seq'
p353
sg18
S''
sg42
S'Int'
p354
sg19
S''
sg15
g353
sg28
Nsg44
S'Sequence number: for ordering multi-line views'
p355
stRp356
ag3
(g4
g5
(dp357
g14
S''
sg40
S'mapFlag'
p358
sg18
S''
sg42
S'MapFlag'
p359
sg19
S''
sg15
g358
sg28
Nsg44
S'Type of mapping'
p360
stRp361
ag3
(g4
g5
(dp362
g14
S''
sg40
S'localFile'
p363
sg18
S''
sg42
S'Mapping'
p364
sg19
S''
sg15
g363
sg28
Nsg44
S'Local file'
p365
stRp366
ag3
(g4
g5
(dp367
g14
S''
sg40
S'remoteFile'
p368
sg18
S''
sg42
S'Mapping'
p369
sg19
S''
sg15
g368
sg28
Nsg44
S'Remote file'
p370
stRp371
ag3
(g4
g5
(dp372
g14
S''
sg40
S'retain'
p373
sg18
S''
sg42
S'Int'
p374
sg19
S''
sg15
g373
sg28
Nsg44
S'ArchiveLimits'
p375
stRp376
atRp377
sg68
g335
sg69
S'1'
sg70
g71
sg44
S'View data for remote specifications'
p378
sg42
S'RmtView'
p379
sg74
S'9'
sg40
S'db.rmtview'
p380
stRp381
sS'message'
p382
g3
(g4
g5
(dp383
g7
S'language, id'
p384
sg9
g3
(g10
g11
(lp385
g3
(g4
g5
(dp386
g14
S''
sg15
g16
sg17
g16
sg18
S''
sg19
S''
sg20
g21
sg22
g23
stRp387
ag3
(g4
g5
(dp388
g14
S''
sg17
g26
sg18
S''
sg20
g27
sg19
S''
sg15
g26
sg28
Nsg22
g29
stRp389
ag3
(g4
g5
(dp390
g14
S''
sg17
g32
sg18
S''
sg20
g21
sg19
S''
sg15
g32
sg28
Nsg22
g33
stRp391
ag3
(g4
g5
(dp392
g14
S''
sg17
g36
sg18
S''
sg20
g27
sg19
S''
sg15
g36
sg28
Nsg22
g37
stRp393
ag3
(g4
g5
(dp394
g14
S''
sg40
S'language'
p395
sg18
S''
sg42
S'Key'
p396
sg19
S''
sg15
g395
sg28
Nsg44
S'The language for which this message applies'
p397
stRp398
ag3
(g4
g5
(dp399
g14
S''
sg40
S'id'
p400
sg18
S''
sg42
S'Int'
p401
sg19
S''
sg15
g400
sg28
Nsg44
S'The message number'
p402
stRp403
ag3
(g4
g5
(dp404
g14
S''
sg40
S'message'
p405
sg18
S''
sg42
S'String'
p406
sg19
S''
sg15
g405
sg28
Nsg44
S'The message text'
p407
stRp408
atRp409
sg68
g382
sg69
S'0'
sg70
g71
sg44
S'System messages'
p410
sg42
S'Message'
p411
sg74
S'95'
p412
sg40
S'db.message'
p413
stRp414
sS'ticket'
p415
g3
(g4
g5
(dp416
g7
S'user, host'
p417
sg9
g3
(g10
g11
(lp418
g3
(g4
g5
(dp419
g14
S''
sg15
g16
sg17
g16
sg18
S''
sg19
S''
sg20
g21
sg22
g23
stRp420
ag3
(g4
g5
(dp421
g14
S''
sg17
g26
sg18
S''
sg20
g27
sg19
S''
sg15
g26
sg28
Nsg22
g29
stRp422
ag3
(g4
g5
(dp423
g14
S''
sg17
g32
sg18
S''
sg20
g21
sg19
S''
sg15
g32
sg28
Nsg22
g33
stRp424
ag3
(g4
g5
(dp425
g14
S''
sg17
g36
sg18
S''
sg20
g27
sg19
S''
sg15
g36
sg28
Nsg22
g37
stRp426
ag3
(g4
g5
(dp427
g14
S''
sg40
S'user'
p428
sg18
S''
sg42
S'User'
p429
sg19
S''
sg15
g428
sg28
Nsg44
S'User the ticket was issued for'
p430
stRp431
ag3
(g4
g5
(dp432
g14
S''
sg40
S'host'
p433
sg18
S''
sg42
S'Key'
p434
sg19
S''
sg15
g433
sg28
Nsg44
S'Host the ticket was issued for'
p435
stRp436
ag3
(g4
g5
(dp437
g14
S''
sg40
S'ticket'
p438
sg18
S''
sg42
S'Password'
p439
sg19
S''
sg15
g438
sg28
Nsg44
S"The 'p4 login' ticket for this user"
p440
stRp441
ag3
(g4
g5
(dp442
g14
S''
sg40
S'state'
p443
sg18
S''
sg42
S'2FAState'
p444
sg19
S''
sg15
g443
sg28
Nsg44
S'The state of 2 Factor Authentication'
p445
stRp446
ag3
(g4
g5
(dp447
g14
S''
sg40
S'token'
p448
sg18
S''
sg42
S'String'
p449
sg19
S''
sg15
g448
sg28
Nsg44
S'The 2 Factor Authentication token'
p450
stRp451
ag3
(g4
g5
(dp452
g14
S''
sg40
S'updateDate'
p453
sg18
S''
sg42
S'Date'
p454
sg19
S''
sg15
g453
sg28
Nsg44
S'The date of the last ticket update'
p455
stRp456
atRp457
sg68
g415
sg69
S'0'
sg70
g71
sg44
S'Second factor authentication state on a per user/host basis'
p458
sg42
S'Ticket'
p459
sg74
S'14'
p460
sg40
S'db.ticket'
p461
stRp462
sS'bodtext'
p463
g3
(g4
g5
(dp464
g7
S'key, attr'
p465
sg9
g3
(g10
g11
(lp466
g3
(g4
g5
(dp467
g14
S''
sg15
g16
sg17
g16
sg18
S''
sg19
S''
sg20
g21
sg22
g23
stRp468
ag3
(g4
g5
(dp469
g14
S''
sg17
g26
sg18
S''
sg20
g27
sg19
S''
sg15
g26
sg28
Nsg22
g29
stRp470
ag3
(g4
g5
(dp471
g14
S''
sg17
g32
sg18
S''
sg20
g21
sg19
S''
sg15
g32
sg28
Nsg22
g33
stRp472
ag3
(g4
g5
(dp473
g14
S''
sg17
g36
sg18
S''
sg20
g27
sg19
S''
sg15
g36
sg28
Nsg22
g37
stRp474
ag3
(g4
g5
(dp475
g14
S''
sg40
S'key'
p476
sg18
S''
sg42
S'Key'
p477
sg19
S''
sg15
g476
sg28
Nsg44
S'The job to which this attribute belongs'
p478
stRp479
ag3
(g4
g5
(dp480
g14
S''
sg40
S'attr'
p481
sg18
S''
sg42
S'Int'
p482
sg19
S''
sg15
g481
sg28
Nsg44
S'The attribute number (from the jobspec) of this attribute'
p483
stRp484
ag3
(g4
g5
(dp485
g14
S''
sg40
S'isBulk'
p486
sg18
S''
sg42
S'Int'
p487
sg19
S''
sg15
g486
sg28
Nsg44
S'Indicates whether (1), or not (0) the field is a bulk\n\t\t    text field that should not be indexed.'
p488
stRp489
ag3
(g4
g5
(dp490
g14
S''
sg40
S'text'
p491
sg18
S''
sg42
S'Text'
p492
sg19
S''
sg15
g491
sg28
Nsg44
S'The attribute value'
p493
stRp494
atRp495
sg68
g463
sg69
S'1'
sg70
g71
sg44
S'Job data for job attributes'
p496
sg42
S'BodyText'
p497
sg74
S'84'
p498
sg40
S'db.bodtext'
p499
stRp500
sS'havept'
p501
g3
(g4
g5
(dp502
g7
S'clientFile'
p503
sg9
g3
(g10
g11
(lp504
g3
(g4
g5
(dp505
g14
S''
sg15
g16
sg17
g16
sg18
S''
sg19
S''
sg20
g21
sg22
g23
stRp506
ag3
(g4
g5
(dp507
g14
S''
sg17
g26
sg18
S''
sg20
g27
sg19
S''
sg15
g26
sg28
Nsg22
g29
stRp508
ag3
(g4
g5
(dp509
g14
S''
sg17
g32
sg18
S''
sg20
g21
sg19
S''
sg15
g32
sg28
Nsg22
g33
stRp510
ag3
(g4
g5
(dp511
g14
S''
sg17
g36
sg18
S''
sg20
g27
sg19
S''
sg15
g36
sg28
Nsg22
g37
stRp512
ag3
(g4
g5
(dp513
g14
S''
sg40
S'clientFile'
p514
sg18
S''
sg42
S'File'
p515
sg19
S''
sg15
g514
sg28
Nsg44
S'The file in its location on the client'
p516
stRp517
ag3
(g4
g5
(dp518
g14
S''
sg40
S'depotFile'
p519
sg18
S''
sg42
S'File'
p520
sg19
S''
sg15
g519
sg28
Nsg44
S'The file in the depot'
p521
stRp522
ag3
(g4
g5
(dp523
g14
S''
sg40
S'haveRev'
p524
sg18
S''
sg42
S'Rev'
p525
sg19
S''
sg15
g524
sg28
Nsg44
S'The revision synced to the client'
p526
stRp527
ag3
(g4
g5
(dp528
g14
S''
sg40
S'type'
p529
sg18
S''
sg42
S'FileType'
p530
sg19
S''
sg15
g529
sg28
Nsg44
S'The filetype of the synced file'
p531
stRp532
ag3
(g4
g5
(dp533
g14
S''
sg40
S'time'
p534
sg18
S''
sg42
S'Date'
p535
sg19
S''
sg15
g534
sg28
Nsg44
S'The sync time of the synced revision'
p536
stRp537
atRp538
sg68
g501
sg69
S'3'
sg70
g71
sg44
S'Placeholder for read-only clients'
p539
sg42
S'Have'
p540
sg74
S'30'
p541
sg40
S'db.have.pt'
p542
stRp543
sS'submodule'
p544
g3
(g4
g5
(dp545
g7
S'repo, path'
p546
sg9
g3
(g10
g11
(lp547
g3
(g4
g5
(dp548
g14
S''
sg15
g16
sg17
g16
sg18
S''
sg19
S''
sg20
g21
sg22
g23
stRp549
ag3
(g4
g5
(dp550
g14
S''
sg17
g26
sg18
S''
sg20
g27
sg19
S''
sg15
g26
sg28
Nsg22
g29
stRp551
ag3
(g4
g5
(dp552
g14
S''
sg17
g32
sg18
S''
sg20
g21
sg19
S''
sg15
g32
sg28
Nsg22
g33
stRp553
ag3
(g4
g5
(dp554
g14
S''
sg17
g36
sg18
S''
sg20
g27
sg19
S''
sg15
g36
sg28
Nsg22
g37
stRp555
ag3
(g4
g5
(dp556
g14
S''
sg40
S'repo'
p557
sg18
S''
sg42
S'Key'
p558
sg19
S''
sg15
g557
sg28
Nsg44
S'Repository name'
p559
stRp560
ag3
(g4
g5
(dp561
g14
S''
sg40
S'path'
p562
sg18
S''
sg42
S'Key'
p563
sg19
S''
sg15
g562
sg28
Nsg44
S'Path at which the submodule is linked'
p564
stRp565
ag3
(g4
g5
(dp566
g14
S''
sg40
S'subrepo'
p567
sg18
S''
sg42
S'Key'
p568
sg19
S''
sg15
g567
sg28
Nsg44
S'Submodule repository name'
p569
stRp570
atRp571
sg68
g544
sg69
S'0'
sg70
g71
sg44
S'Submodule configuration data'
p572
sg42
S'Submodule'
p573
sg74
S'75'
p574
sg40
S'db.submodule'
p575
stRp576
sS'group'
p577
g3
(g4
g5
(dp578
g7
S'user, group'
p579
sg9
g3
(g10
g11
(lp580
g3
(g4
g5
(dp581
g14
S''
sg15
g16
sg17
g16
sg18
S''
sg19
S''
sg20
g21
sg22
g23
stRp582
ag3
(g4
g5
(dp583
g14
S''
sg17
g26
sg18
S''
sg20
g27
sg19
S''
sg15
g26
sg28
Nsg22
g29
stRp584
ag3
(g4
g5
(dp585
g14
S''
sg17
g32
sg18
S''
sg20
g21
sg19
S''
sg15
g32
sg28
Nsg22
g33
stRp586
ag3
(g4
g5
(dp587
g14
S''
sg17
g36
sg18
S''
sg20
g27
sg19
S''
sg15
g36
sg28
Nsg22
g37
stRp588
ag3
(g4
g5
(dp589
g14
S''
sg40
S'user'
p590
sg18
S''
sg42
S'User'
p591
sg19
S''
sg15
g590
sg28
Nsg44
S'User name'
p592
stRp593
ag3
(g4
g5
(dp594
g14
S''
sg40
S'group'
p595
sg18
S''
sg42
S'User'
p596
sg19
S''
sg15
g595
sg28
Nsg44
S'Group name'
p597
stRp598
ag3
(g4
g5
(dp599
g14
S''
sg40
S'type'
p600
sg18
S''
sg42
S'UserType'
p601
sg19
S''
sg15
g600
sg28
Nsg44
S'Type of user in this group.'
p602
stRp603
ag3
(g4
g5
(dp604
g14
S''
sg40
S'maxResults'
p605
sg18
S''
sg42
S'MaxResults'
p606
sg19
S''
sg15
g605
sg28
Nsg44
S'MaxResults setting for the group.'
p607
stRp608
ag3
(g4
g5
(dp609
g14
S''
sg40
S'maxScanRows'
p610
sg18
S''
sg42
S'MaxScanRows'
p611
sg19
S''
sg15
g610
sg28
Nsg44
S'MaxScanRows setting for the group.'
p612
stRp613
ag3
(g4
g5
(dp614
g14
S''
sg40
S'maxLockTime'
p615
sg18
S''
sg42
S'MaxLockTime'
p616
sg19
S''
sg15
g615
sg28
Nsg44
S'MaxLockTime setting for the group.'
p617
stRp618
ag3
(g4
g5
(dp619
g14
S''
sg40
S'maxOpenFiles'
p620
sg18
S''
sg42
S'MaxOpenFiles'
p621
sg19
S''
sg15
g620
sg28
Nsg44
S'MaxOpenFiles setting for the group.'
p622
stRp623
ag3
(g4
g5
(dp624
g14
S''
sg40
S'timeout'
p625
sg18
S''
sg42
S'Int'
p626
sg19
S''
sg15
g625
sg28
Nsg44
S'Length of time (in seconds) a login ticket remains valid.'
p627
stRp628
ag3
(g4
g5
(dp629
g14
S''
sg40
S'passwordTimeout'
p630
sg18
S''
sg42
S'Int'
p631
sg19
S''
sg15
g630
sg28
Nsg44
S'Length of time (in seconds) a password remains valid for users in the group.'
p632
stRp633
atRp634
sg68
g577
sg69
S'9'
sg70
g71
sg44
S'Group specifications'
p635
sg42
S'Group'
p636
sg74
S'15'
p637
sg40
S'db.group'
p638
stRp639
sS'monitor'
p640
g3
(g4
g5
(dp641
g7
S'id'
p642
sg9
g3
(g10
g11
(lp643
g3
(g4
g5
(dp644
g14
S''
sg15
g16
sg17
g16
sg18
S''
sg19
S''
sg20
g21
sg22
g23
stRp645
ag3
(g4
g5
(dp646
g14
S''
sg17
g26
sg18
S''
sg20
g27
sg19
S''
sg15
g26
sg28
Nsg22
g29
stRp647
ag3
(g4
g5
(dp648
g14
S''
sg17
g32
sg18
S''
sg20
g21
sg19
S''
sg15
g32
sg28
Nsg22
g33
stRp649
ag3
(g4
g5
(dp650
g14
S''
sg17
g36
sg18
S''
sg20
g27
sg19
S''
sg15
g36
sg28
Nsg22
g37
stRp651
ag3
(g4
g5
(dp652
g14
S''
sg40
S'id'
p653
sg18
S''
sg42
S'Int'
p654
sg19
S''
sg15
g653
sg28
Nsg44
S'Thread/process id'
p655
stRp656
ag3
(g4
g5
(dp657
g14
S''
sg40
S'user'
p658
sg18
S''
sg42
S'User'
p659
sg19
S''
sg15
g658
sg28
Nsg44
S'Username of the user running the command'
p660
stRp661
ag3
(g4
g5
(dp662
g14
S''
sg40
S'function'
p663
sg18
S''
sg42
S'String'
p664
sg19
S''
sg15
g663
sg28
Nsg44
S'The command being executed.'
p665
stRp666
ag3
(g4
g5
(dp667
g14
S''
sg40
S'args'
p668
sg18
S''
sg42
S'String'
p669
sg19
S''
sg15
g668
sg28
Nsg44
S'Arguments passed to the command'
p670
stRp671
ag3
(g4
g5
(dp672
g14
S''
sg40
S'startDate'
p673
sg18
S''
sg42
S'Date'
p674
sg19
S''
sg15
g673
sg28
Nsg44
S'The date and time the command started'
p675
stRp676
ag3
(g4
g5
(dp677
g14
S''
sg40
S'runstate'
p678
sg18
S''
sg42
S'Int'
p679
sg19
S''
sg15
g678
sg28
Nsg44
S'Flag: 0 for running, 1 for terminated, 2 for paused'
p680
stRp681
ag3
(g4
g5
(dp682
g14
S''
sg40
S'client'
p683
sg18
S''
sg42
S'Domain'
p684
sg19
S''
sg15
g683
sg28
Nsg44
S'The client workspace'
p685
stRp686
ag3
(g4
g5
(dp687
g14
S''
sg40
S'host'
p688
sg18
S''
sg42
S'Text'
p689
sg19
S''
sg15
g688
sg28
Nsg44
S'The IP address of the client'
p690
stRp691
ag3
(g4
g5
(dp692
g14
S''
sg40
S'prog'
p693
sg18
S''
sg42
S'Text'
p694
sg19
S''
sg15
g693
sg28
Nsg44
S'The name (and version) of the client program'
p695
stRp696
ag3
(g4
g5
(dp697
g14
S''
sg40
S'lockInfo'
p698
sg18
S''
sg42
S'Text'
p699
sg19
S''
sg15
g698
sg28
Nsg44
S'Table locking information for command'
p700
stRp701
atRp702
sg68
g640
sg69
S'2'
sg70
g71
sg44
S'Helix Server process information'
p703
sg42
S'Monitor'
p704
sg74
S'99'
p705
sg40
S'db.monitor'
p706
stRp707
sS'working'
p708
g3
(g4
g5
(dp709
g7
S'clientFile'
p710
sg9
g3
(g10
g11
(lp711
g3
(g4
g5
(dp712
g14
S''
sg15
g16
sg17
g16
sg18
S''
sg19
S''
sg20
g21
sg22
g23
stRp713
ag3
(g4
g5
(dp714
g14
S''
sg17
g26
sg18
S''
sg20
g27
sg19
S''
sg15
g26
sg28
Nsg22
g29
stRp715
ag3
(g4
g5
(dp716
g14
S''
sg17
g32
sg18
S''
sg20
g21
sg19
S''
sg15
g32
sg28
Nsg22
g33
stRp717
ag3
(g4
g5
(dp718
g14
S''
sg17
g36
sg18
S''
sg20
g27
sg19
S''
sg15
g36
sg28
Nsg22
g37
stRp719
ag3
(g4
g5
(dp720
g14
S''
sg40
S'clientFile'
p721
sg18
S''
sg42
S'File'
p722
sg19
S''
sg15
g721
sg28
Nsg44
S'File on the client'
p723
stRp724
ag3
(g4
g5
(dp725
g14
S''
sg40
S'depotFile'
p726
sg18
S''
sg42
S'File'
p727
sg19
S''
sg15
g726
sg28
Nsg44
S'File in the depot'
p728
stRp729
ag3
(g4
g5
(dp730
g14
S''
sg40
S'client'
p731
sg18
S''
sg42
S'Domain'
p732
sg19
S''
sg15
g731
sg28
Nsg44
S'The client the file is opened on'
p733
stRp734
ag3
(g4
g5
(dp735
g14
S''
sg40
S'user'
p736
sg18
S''
sg42
S'User'
p737
sg19
S''
sg15
g736
sg28
Nsg44
S'The user who has the file opened'
p738
stRp739
ag3
(g4
g5
(dp740
g14
S''
sg40
S'haveRev'
p741
sg18
S''
sg42
S'Rev'
p742
sg19
S''
sg15
g741
sg28
Nsg44
S"Revision presently in user's client workspace"
p743
stRp744
ag3
(g4
g5
(dp745
g14
S''
sg40
S'workRev'
p746
sg18
S''
sg42
S'Rev'
p747
sg19
S''
sg15
g746
sg28
Nsg44
S'Working revision; normally identical to the haveRev'
p748
stRp749
ag3
(g4
g5
(dp750
g14
S''
sg40
S'isVirtual'
p751
sg18
S''
sg42
S'Int'
p752
sg19
S''
sg15
g751
sg28
Nsg44
S'Flag: if 1, file was opened with "p4 integ -v".'
p753
stRp754
ag3
(g4
g5
(dp755
g14
S''
sg40
S'type'
p756
sg18
S''
sg42
S'FileType'
p757
sg19
S''
sg15
g756
sg28
Nsg44
S'File type'
p758
stRp759
ag3
(g4
g5
(dp760
g14
S''
sg40
S'action'
p761
sg18
S''
sg42
S'Action'
p762
sg19
S''
sg15
g761
sg28
Nsg44
S"What the user's doing with the file"
p763
stRp764
ag3
(g4
g5
(dp765
g14
S''
sg40
S'change'
p766
sg18
S''
sg42
S'Change'
p767
sg19
S''
sg15
g766
sg28
Nsg44
S'Associated changelist, or zero for the default changelist.'
p768
stRp769
ag3
(g4
g5
(dp770
g14
S''
sg40
S'modTime'
p771
sg18
S''
sg42
S'Date'
p772
sg19
S''
sg15
g771
sg28
Nsg44
S"Modification timestamp on the file in the user's workspace."
p773
stRp774
ag3
(g4
g5
(dp775
g14
S''
sg40
S'isLocked'
p776
sg18
S''
sg42
S'Int'
p777
sg19
S''
sg15
g776
sg28
Nsg44
S'Flag: 0 for unlocked, 1 for locked.'
p778
stRp779
ag3
(g4
g5
(dp780
g14
S''
sg40
S'digest'
p781
sg18
S''
sg42
S'Digest'
p782
sg19
S''
sg15
g781
sg28
Nsg44
S'MD5 digest of working file.'
p783
stRp784
ag3
(g4
g5
(dp785
g14
S''
sg40
S'size'
p786
sg18
S''
sg42
S'FileSize'
p787
sg19
S''
sg15
g786
sg28
Nsg44
S'File size'
p788
stRp789
ag3
(g4
g5
(dp790
g14
S''
sg40
S'traitLot'
p791
sg18
S''
sg42
S'TraitLot'
p792
sg19
S''
sg15
g791
sg28
Nsg44
S'Group of traits associated with file revision.'
p793
stRp794
ag3
(g4
g5
(dp795
g14
S''
sg40
S'tampered'
p796
sg18
S''
sg42
S'TamperCheck'
p797
sg19
S''
sg15
g796
sg28
Nsg44
S'Flag indicating the tamper-state of the file in the\n\t\t    workspace.'
p798
stRp799
ag3
(g4
g5
(dp800
g14
S''
sg40
S'clientType'
p801
sg18
S''
sg42
S'FileType'
p802
sg19
S''
sg15
g801
sg28
Nsg44
S'Type of the file in the client workspace.'
p803
stRp804
ag3
(g4
g5
(dp805
g14
S''
sg40
S'movedFile'
p806
sg18
S''
sg42
S'File'
p807
sg19
S''
sg15
g806
sg28
Nsg44
S'Moved from filename'
p808
stRp809
ag3
(g4
g5
(dp810
g14
S''
sg40
S'status'
p811
sg18
S''
sg42
S'WorkStatus'
p812
sg19
S''
sg15
g811
sg28
Nsg44
S'Working status'
p813
stRp814
atRp815
sg68
g708
sg69
S'10'
p816
sg70
g71
sg44
S'Records for work in progress'
p817
sg42
S'Working'
p818
sg74
S'56'
p819
sg40
S'db.working'
p820
stRp821
sS'fix'
p822
g3
(g4
g5
(dp823
g7
S'job, change'
p824
sg9
g3
(g10
g11
(lp825
g3
(g4
g5
(dp826
g14
S''
sg15
g16
sg17
g16
sg18
S''
sg19
S''
sg20
g21
sg22
g23
stRp827
ag3
(g4
g5
(dp828
g14
S''
sg17
g26
sg18
S''
sg20
g27
sg19
S''
sg15
g26
sg28
Nsg22
g29
stRp829
ag3
(g4
g5
(dp830
g14
S''
sg17
g32
sg18
S''
sg20
g21
sg19
S''
sg15
g32
sg28
Nsg22
g33
stRp831
ag3
(g4
g5
(dp832
g14
S''
sg17
g36
sg18
S''
sg20
g27
sg19
S''
sg15
g36
sg28
Nsg22
g37
stRp833
ag3
(g4
g5
(dp834
g14
S''
sg40
S'job'
p835
sg18
S''
sg42
S'Key'
p836
sg19
S''
sg15
g835
sg28
Nsg44
S'Job name'
p837
stRp838
ag3
(g4
g5
(dp839
g14
S''
sg40
S'change'
p840
sg18
S''
sg42
S'Change'
p841
sg19
S''
sg15
g840
sg28
Nsg44
S'Changelist number'
p842
stRp843
ag3
(g4
g5
(dp844
g14
S''
sg40
S'date'
p845
sg18
S''
sg42
S'Date'
p846
sg19
S''
sg15
g845
sg28
Nsg44
S'Date fix was recorded (may differ from date change was\n\t\t    submitted).'
p847
stRp848
ag3
(g4
g5
(dp849
g14
S''
sg40
S'status'
p850
sg18
S''
sg42
S'FixStatus'
p851
sg19
S''
sg15
g850
sg28
Nsg44
S'Status of the job'
p852
stRp853
ag3
(g4
g5
(dp854
g14
S''
sg40
S'client'
p855
sg18
S''
sg42
S'Domain'
p856
sg19
S''
sg15
g855
sg28
Nsg44
S'The client where the fix originated'
p857
stRp858
ag3
(g4
g5
(dp859
g14
S''
sg40
S'user'
p860
sg18
S''
sg42
S'User'
p861
sg19
S''
sg15
g860
sg28
Nsg44
S'The user who fixed the job'
p862
stRp863
atRp864
sg68
g822
sg40
S'db.fix'
p865
sg69
S'1'
sg70
g71
sS'seeAlso'
p866
S'db.fixrev'
p867
sg42
S'Fix'
p868
sg74
S'80'
p869
sg44
S'Fix records - indexed by job'
p870
stRp871
sS'tiny'
p872
g3
(g4
g5
(dp873
g7
S'key'
p874
sg9
g3
(g10
g11
(lp875
g3
(g4
g5
(dp876
g14
S''
sg15
g16
sg17
g16
sg18
S''
sg19
S''
sg20
g21
sg22
g23
stRp877
ag3
(g4
g5
(dp878
g14
S''
sg17
g26
sg18
S''
sg20
g27
sg19
S''
sg15
g26
sg28
Nsg22
g29
stRp879
ag3
(g4
g5
(dp880
g14
S''
sg17
g32
sg18
S''
sg20
g21
sg19
S''
sg15
g32
sg28
Nsg22
g33
stRp881
ag3
(g4
g5
(dp882
g14
S''
sg17
g36
sg18
S''
sg20
g27
sg19
S''
sg15
g36
sg28
Nsg22
g37
stRp883
ag3
(g4
g5
(dp884
g14
S''
sg40
S'key'
p885
sg18
S''
sg42
S'Key'
p886
sg19
S''
sg15
g885
sg28
Nsg44
S'The file name and revision'
p887
stRp888
ag3
(g4
g5
(dp889
g14
S''
sg40
S'value'
p890
sg18
S''
sg42
S'Octet String'
p891
sg19
S''
sg15
g890
sg28
Nsg44
S'The (encoded) file content'
p892
stRp893
atRp894
sg68
g872
sg69
S'0'
sg70
g71
sg44
S'Records content data for tiny files using the +T file type modifier'
p895
sg42
S'TinyDb'
p896
sg40
S'tiny.db'
p897
stRp898
sS'groupx'
p899
g3
(g4
g5
(dp900
g7
S'group'
p901
sg9
g3
(g10
g11
(lp902
g3
(g4
g5
(dp903
g14
S''
sg15
g16
sg17
g16
sg18
S''
sg19
S''
sg20
g21
sg22
g23
stRp904
ag3
(g4
g5
(dp905
g14
S''
sg17
g26
sg18
S''
sg20
g27
sg19
S''
sg15
g26
sg28
Nsg22
g29
stRp906
ag3
(g4
g5
(dp907
g14
S''
sg17
g32
sg18
S''
sg20
g21
sg19
S''
sg15
g32
sg28
Nsg22
g33
stRp908
ag3
(g4
g5
(dp909
g14
S''
sg17
g36
sg18
S''
sg20
g27
sg19
S''
sg15
g36
sg28
Nsg22
g37
stRp910
ag3
(g4
g5
(dp911
g14
S''
sg40
S'group'
p912
sg18
S''
sg42
S'User'
p913
sg19
S''
sg15
g912
sg28
Nsg44
S'Group name'
p914
stRp915
ag3
(g4
g5
(dp916
g14
S''
sg40
S'ldapConf'
p917
sg18
S''
sg42
S'String'
p918
sg19
S''
sg15
g917
sg28
Nsg44
S"The LDAP configuration to use when populating the group's user list from an LDAP query"
p919
stRp920
ag3
(g4
g5
(dp921
g14
S''
sg40
S'ldapSearchQuery'
p922
sg18
S''
sg42
S'String'
p923
sg19
S''
sg15
g922
sg28
Nsg44
S'The LDAP query used to identify the members of the group'
p924
stRp925
ag3
(g4
g5
(dp926
g14
S''
sg40
S'ldapUserAttribute'
p927
sg18
S''
sg42
S'String'
p928
sg19
S''
sg15
g927
sg28
Nsg44
S"The LDAP attribute that represents the user's username"
p929
stRp930
ag3
(g4
g5
(dp931
g14
S''
sg40
S'ldapDNAttribute'
p932
sg18
S''
sg42
S'String'
p933
sg19
S''
sg15
g932
sg28
Nsg44
S"The LDAP attribute that represents the user's DN"
p934
stRp935
atRp936
sg68
g899
sg69
S'1'
sg70
g71
sg44
S'Per-group data to support group membership controlled by AD/LDAP group membership'
p937
sg42
S'GroupX'
p938
sg74
S'16'
p939
sg40
S'db.groupx'
p940
stRp941
sS'trigger'
p942
g3
(g4
g5
(dp943
g7
S'seq'
p944
sg9
g3
(g10
g11
(lp945
g3
(g4
g5
(dp946
g14
S''
sg15
g16
sg17
g16
sg18
S''
sg19
S''
sg20
g21
sg22
g23
stRp947
ag3
(g4
g5
(dp948
g14
S''
sg17
g26
sg18
S''
sg20
g27
sg19
S''
sg15
g26
sg28
Nsg22
g29
stRp949
ag3
(g4
g5
(dp950
g14
S''
sg17
g32
sg18
S''
sg20
g21
sg19
S''
sg15
g32
sg28
Nsg22
g33
stRp951
ag3
(g4
g5
(dp952
g14
S''
sg17
g36
sg18
S''
sg20
g27
sg19
S''
sg15
g36
sg28
Nsg22
g37
stRp953
ag3
(g4
g5
(dp954
g14
S''
sg40
S'seq'
p955
sg18
S''
sg42
S'Int'
p956
sg19
S''
sg15
g955
sg28
Nsg44
S'Sequence number: for ordering the trigger list'
p957
stRp958
ag3
(g4
g5
(dp959
g14
S''
sg40
S'name'
p960
sg18
S''
sg42
S'Key'
p961
sg19
S''
sg15
g960
sg28
Nsg44
S'Name of the trigger'
p962
stRp963
ag3
(g4
g5
(dp964
g14
S''
sg40
S'mapFlag'
p965
sg18
S''
sg42
S'MapFlag'
p966
sg19
S''
sg15
g965
sg28
Nsg44
S'Type of mapping: specifies whether the trigger applies \n\t\t    to the files or not.'
p967
stRp968
ag3
(g4
g5
(dp969
g14
S''
sg40
S'depotFile'
p970
sg18
S''
sg42
S'Mapping'
p971
sg19
S''
sg15
g970
sg28
Nsg44
S'The files to apply the trigger to'
p972
stRp973
ag3
(g4
g5
(dp974
g14
S''
sg40
S'triggerDepotFile'
p975
sg18
S''
sg42
S'File'
p976
sg19
S''
sg15
g975
sg28
Nsg44
S'Depot path to the trigger'
p977
stRp978
ag3
(g4
g5
(dp979
g14
S''
sg40
S'trigger'
p980
sg18
S''
sg42
S'Trigger'
p981
sg19
S''
sg15
g980
sg28
Nsg44
S'Type of trigger'
p982
stRp983
ag3
(g4
g5
(dp984
g14
S''
sg40
S'action'
p985
sg18
S''
sg42
S'Text'
p986
sg19
S''
sg15
g985
sg28
Nsg44
S'Command to execute when trigger runs'
p987
stRp988
atRp989
sg68
g942
sg69
S'3'
sg70
g71
sg44
S'Trigger specifications'
p990
sg42
S'Trigger'
p991
sg74
S'64'
p992
sg40
S'db.trigger'
p993
stRp994
sS'change'
p995
g3
(g4
g5
(dp996
g7
S'change'
p997
sg9
g3
(g10
g11
(lp998
g3
(g4
g5
(dp999
g14
S''
sg15
g16
sg17
g16
sg18
S''
sg19
S''
sg20
g21
sg22
g23
stRp1000
ag3
(g4
g5
(dp1001
g14
S''
sg17
g26
sg18
S''
sg20
g27
sg19
S''
sg15
g26
sg28
Nsg22
g29
stRp1002
ag3
(g4
g5
(dp1003
g14
S''
sg17
g32
sg18
S''
sg20
g21
sg19
S''
sg15
g32
sg28
Nsg22
g33
stRp1004
ag3
(g4
g5
(dp1005
g14
S''
sg17
g36
sg18
S''
sg20
g27
sg19
S''
sg15
g36
sg28
Nsg22
g37
stRp1006
ag3
(g4
g5
(dp1007
g14
S''
sg40
S'change'
p1008
sg18
S''
sg42
S'Change'
p1009
sg19
S''
sg15
g1008
sg28
Nsg44
S'The change number'
p1010
stRp1011
ag3
(g4
g5
(dp1012
g14
S''
sg40
S'descKey'
p1013
sg18
S''
sg42
S'Change'
p1014
sg19
S''
sg15
g1013
sg28
Nsg44
S"The description key. Normally the same as 'change', but\n\t\t    may differ if a changelist was renumbered on submission."
p1015
stRp1016
ag3
(g4
g5
(dp1017
g14
S''
sg40
S'client'
p1018
sg18
S''
sg42
S'Domain'
p1019
sg19
S''
sg15
g1018
sg28
Nsg44
S'The client from which the change originates'
p1020
stRp1021
ag3
(g4
g5
(dp1022
g14
S''
sg40
S'user'
p1023
sg18
S''
sg42
S'User'
p1024
sg19
S''
sg15
g1023
sg28
Nsg44
S'The user who owns the change'
p1025
stRp1026
ag3
(g4
g5
(dp1027
g14
S''
sg40
S'date'
p1028
sg18
S''
sg42
S'Date'
p1029
sg19
S''
sg15
g1028
sg28
Nsg44
S'Date and time the changelist was submitted'
p1030
stRp1031
ag3
(g4
g5
(dp1032
g14
S''
sg40
S'status'
p1033
sg18
S''
sg42
S'ChangeStatus'
p1034
sg19
S''
sg15
g1033
sg28
Nsg44
S'Status of the change'
p1035
stRp1036
ag3
(g4
g5
(dp1037
g14
S''
sg40
S'description'
p1038
sg18
S''
sg42
S'DescShort'
p1039
sg19
S''
sg15
g1038
sg28
Nsg44
S'Short description of the change.'
p1040
stRp1041
ag3
(g4
g5
(dp1042
g14
S''
sg40
S'root'
p1043
sg18
S''
sg42
S'Mapping'
p1044
sg19
S''
sg15
g1043
sg28
Nsg44
S'Common path for all files in the changelist'
p1045
stRp1046
ag3
(g4
g5
(dp1047
g14
S''
sg40
S'importer'
p1048
sg18
S''
sg42
S'User'
p1049
sg19
S''
sg15
g1048
sg28
Nsg44
S'The user who fetched or pushed this change to this server'
p1050
stRp1051
ag3
(g4
g5
(dp1052
g14
S''
sg40
S'identity'
p1053
sg18
S''
sg42
S'Key'
p1054
sg19
S''
sg15
g1053
sg28
Nsg44
S'Identifier for this change'
p1055
stRp1056
ag3
(g4
g5
(dp1057
g14
S''
sg40
S'access'
p1058
sg18
S''
sg42
S'Date'
p1059
sg19
S''
sg15
g1058
sg28
Nsg44
S'Shelve last access'
p1060
stRp1061
ag3
(g4
g5
(dp1062
g14
S''
sg40
S'update'
p1063
sg18
S''
sg42
S'Date'
p1064
sg19
S''
sg15
g1063
sg28
Nsg44
S'Shelve last update'
p1065
stRp1066
ag3
(g4
g5
(dp1067
g14
S''
sg40
S'stream'
p1068
sg18
S''
sg42
S'Domain'
p1069
sg19
S''
sg15
g1068
sg28
Nsg44
S'Stream spec name in changelist'
p1070
stRp1071
atRp1072
sg68
g995
sg69
S'6'
sg70
g71
sg44
S'Changelists'
p1073
sg42
S'Change'
p1074
sg74
S'65'
p1075
sg40
S'db.change'
p1076
stRp1077
sS'ldap'
p1078
g3
(g4
g5
(dp1079
g7
S'name'
p1080
sg9
g3
(g10
g11
(lp1081
g3
(g4
g5
(dp1082
g14
S''
sg15
g16
sg17
g16
sg18
S''
sg19
S''
sg20
g21
sg22
g23
stRp1083
ag3
(g4
g5
(dp1084
g14
S''
sg17
g26
sg18
S''
sg20
g27
sg19
S''
sg15
g26
sg28
Nsg22
g29
stRp1085
ag3
(g4
g5
(dp1086
g14
S''
sg17
g32
sg18
S''
sg20
g21
sg19
S''
sg15
g32
sg28
Nsg22
g33
stRp1087
ag3
(g4
g5
(dp1088
g14
S''
sg17
g36
sg18
S''
sg20
g27
sg19
S''
sg15
g36
sg28
Nsg22
g37
stRp1089
ag3
(g4
g5
(dp1090
g14
S''
sg40
S'name'
p1091
sg18
S''
sg42
S'Key'
p1092
sg19
S''
sg15
g1091
sg28
Nsg44
S'The LDAP configuration name'
p1093
stRp1094
ag3
(g4
g5
(dp1095
g14
S''
sg40
S'host'
p1096
sg18
S''
sg42
S'String'
p1097
sg19
S''
sg15
g1096
sg28
Nsg44
S'The FQDN of the directory server'
p1098
stRp1099
ag3
(g4
g5
(dp1100
g14
S''
sg40
S'port'
p1101
sg18
S''
sg42
S'Int'
p1102
sg19
S''
sg15
g1101
sg28
Nsg44
S'The port number on which to connect to the directory server'
p1103
stRp1104
ag3
(g4
g5
(dp1105
g14
S''
sg40
S'ssl'
p1106
sg18
S''
sg42
S'Int'
p1107
sg19
S''
sg15
g1106
sg28
Nsg44
S"The encryption method to use when connecting to the The FQDN of the directory server.\n\t\t\tOptions are: 0='none', 1='ssl' and 2='tls'"
p1108
stRp1109
ag3
(g4
g5
(dp1110
g14
S''
sg40
S'type'
p1111
sg18
S''
sg42
S'Int'
p1112
sg19
S''
sg15
g1111
sg28
Nsg44
S"The bind method to use with this directory.  Options are: 0='simple', 1='search' and 2='sasl'."
p1113
stRp1114
ag3
(g4
g5
(dp1115
g14
S''
sg40
S'pattern'
p1116
sg18
S''
sg42
S'Text'
p1117
sg19
S''
sg15
g1116
sg28
Nsg44
S"The DN used to bind against to validate the user's credentials."
p1118
stRp1119
ag3
(g4
g5
(dp1120
g14
S''
sg40
S'baseDN'
p1121
sg18
S''
sg42
S'Text'
p1122
sg19
S''
sg15
g1121
sg28
Nsg44
S'The DN from which to start the search for the user object'
p1123
stRp1124
ag3
(g4
g5
(dp1125
g14
S''
sg40
S'filter'
p1126
sg18
S''
sg42
S'Text'
p1127
sg19
S''
sg15
g1126
sg28
Nsg44
S'The LDAP query filter to use to identify the user object which will be used to bind against'
p1128
stRp1129
ag3
(g4
g5
(dp1130
g14
S''
sg40
S'scope'
p1131
sg18
S''
sg42
S'Int'
p1132
sg19
S''
sg15
g1131
sg28
Nsg44
S'The scope to use when searching for the user records. Options are:\n                 0 = baseonly - Just the BaseDN object\n                 1 = children - The BaseDN and its direct children\n                 2 = subtree - The BaseDN and all objects below it'
p1133
stRp1134
ag3
(g4
g5
(dp1135
g14
S''
sg40
S'bindDN'
p1136
sg18
S''
sg42
S'Text'
p1137
sg19
S''
sg15
g1136
sg28
Nsg44
S'The DN to bind against in order to search the directory'
p1138
stRp1139
ag3
(g4
g5
(dp1140
g14
S''
sg40
S'bindpass'
p1141
sg18
S''
sg42
S'Text'
p1142
sg19
S''
sg15
g1141
sg28
Nsg44
S'The password for the BindDN record'
p1143
stRp1144
ag3
(g4
g5
(dp1145
g14
S''
sg40
S'realm'
p1146
sg18
S''
sg42
S'Text'
p1147
sg19
S''
sg15
g1146
sg28
Nsg44
S'The optional realm to use when authenticating the user via SASL'
p1148
stRp1149
ag3
(g4
g5
(dp1150
g14
S''
sg40
S'groupBaseDN'
p1151
sg18
S''
sg42
S'Text'
p1152
sg19
S''
sg15
g1151
sg28
Nsg44
S'The search base for performing the group search. If unset this will default to the SearchBaseDN'
p1153
stRp1154
ag3
(g4
g5
(dp1155
g14
S''
sg40
S'groupFilter'
p1156
sg18
S''
sg42
S'Text'
p1157
sg19
S''
sg15
g1156
sg28
Nsg44
S'The filter to use for the group search'
p1158
stRp1159
ag3
(g4
g5
(dp1160
g14
S''
sg40
S'groupScope'
p1161
sg18
S''
sg42
S'Int'
p1162
sg19
S''
sg15
g1161
sg28
Nsg44
S'The scope to use when performing the group search.Options are:\n \t\t\t\t0 = baseonly - Just the BaseDN object\n\t\t\t\t1 = children - The BaseDN and its direct children\n\t\t\t\t2 = subtree - The BaseDN and all objects below it'
p1163
stRp1164
ag3
(g4
g5
(dp1165
g14
S''
sg40
S'options'
p1166
sg18
S''
sg42
S'Int'
p1167
sg19
S''
sg15
g1166
sg28
Nsg44
S'LDAP options bitmask: 1=[no]downcase, 2=[no]getattrs and 4=[no]realminusername'
p1168
stRp1169
ag3
(g4
g5
(dp1170
g14
S''
sg40
S'attrUid'
p1171
sg18
S''
sg42
S'Text'
p1172
sg19
S''
sg15
g1171
sg28
Nsg44
S"The name of the attribute in the directory's user records that contain the users' UIDs"
p1173
stRp1174
ag3
(g4
g5
(dp1175
g14
S''
sg40
S'attrEmail'
p1176
sg18
S''
sg42
S'Text'
p1177
sg19
S''
sg15
g1176
sg28
Nsg44
S"The name of the attribute in the directory's user records that contain the users' email addresses."
p1178
stRp1179
ag3
(g4
g5
(dp1180
g14
S''
sg40
S'attrName'
p1181
sg18
S''
sg42
S'Text'
p1182
sg19
S''
sg15
g1181
sg28
Nsg44
S"The name(s) of the attribute(s) in the directory's user records that contain the users' full names."
p1183
stRp1184
atRp1185
sg68
g1078
sg69
S'0'
sg70
g71
sg44
S'LDAP specifications'
p1186
sg42
S'Ldap'
p1187
sg74
S'5'
sg40
S'db.ldap'
p1188
stRp1189
sS'logger'
p1190
g3
(g4
g5
(dp1191
g7
S'seq'
p1192
sg9
g3
(g10
g11
(lp1193
g3
(g4
g5
(dp1194
g14
S''
sg15
g16
sg17
g16
sg18
S''
sg19
S''
sg20
g21
sg22
g23
stRp1195
ag3
(g4
g5
(dp1196
g14
S''
sg17
g26
sg18
S''
sg20
g27
sg19
S''
sg15
g26
sg28
Nsg22
g29
stRp1197
ag3
(g4
g5
(dp1198
g14
S''
sg17
g32
sg18
S''
sg20
g21
sg19
S''
sg15
g32
sg28
Nsg22
g33
stRp1199
ag3
(g4
g5
(dp1200
g14
S''
sg17
g36
sg18
S''
sg20
g27
sg19
S''
sg15
g36
sg28
Nsg22
g37
stRp1201
ag3
(g4
g5
(dp1202
g14
S''
sg40
S'seq'
p1203
sg18
S''
sg42
S'Int'
p1204
sg19
S''
sg15
g1203
sg28
Nsg44
S'Sequence number of event'
p1205
stRp1206
ag3
(g4
g5
(dp1207
g14
S''
sg40
S'key'
p1208
sg18
S''
sg42
S'Key'
p1209
sg19
S''
sg15
g1208
sg28
Nsg44
S"Either the word 'change' or the word 'job'"
p1210
stRp1211
ag3
(g4
g5
(dp1212
g14
S''
sg40
S'attr'
p1213
sg18
S''
sg42
S'Key'
p1214
sg19
S''
sg15
g1213
sg28
Nsg44
S'The number of the change, or name of the job that was \n\t\t    altered.'
p1215
stRp1216
atRp1217
sg68
g1190
sg69
S'0'
sg70
g71
sg44
S"Support for 'p4 logger' command. Logs any changes to \n\t\tchangelists and jobs"
p1218
sg42
S'Logger'
p1219
sg74
S'4'
sg40
S'db.logger'
p1220
stRp1221
sS'pubkey'
p1222
g3
(g4
g5
(dp1223
g7
S'user, scope'
p1224
sg9
g3
(g10
g11
(lp1225
g3
(g4
g5
(dp1226
g14
S''
sg15
g16
sg17
g16
sg18
S''
sg19
S''
sg20
g21
sg22
g23
stRp1227
ag3
(g4
g5
(dp1228
g14
S''
sg17
g26
sg18
S''
sg20
g27
sg19
S''
sg15
g26
sg28
Nsg22
g29
stRp1229
ag3
(g4
g5
(dp1230
g14
S''
sg17
g32
sg18
S''
sg20
g21
sg19
S''
sg15
g32
sg28
Nsg22
g33
stRp1231
ag3
(g4
g5
(dp1232
g14
S''
sg17
g36
sg18
S''
sg20
g27
sg19
S''
sg15
g36
sg28
Nsg22
g37
stRp1233
ag3
(g4
g5
(dp1234
g14
S''
sg40
S'user'
p1235
sg18
S''
sg42
S'User'
p1236
sg19
S''
sg15
g1235
sg28
Nsg44
S'User'
p1237
stRp1238
ag3
(g4
g5
(dp1239
g14
S''
sg40
S'scope'
p1240
sg18
S''
sg42
S'Key'
p1241
sg19
S''
sg15
g1240
sg28
Nsg44
S'Scope'
p1242
stRp1243
ag3
(g4
g5
(dp1244
g14
S''
sg40
S'key'
p1245
sg18
S''
sg42
S'Text'
p1246
sg19
S''
sg15
g1245
sg28
Nsg44
S'Key'
p1247
stRp1248
ag3
(g4
g5
(dp1249
g14
S''
sg40
S'digest'
p1250
sg18
S''
sg42
S'Digest'
p1251
sg19
S''
sg15
g1250
sg28
Nsg44
S'Digest'
p1252
stRp1253
ag3
(g4
g5
(dp1254
g14
S''
sg40
S'update'
p1255
sg18
S''
sg42
S'Date'
p1256
sg19
S''
sg15
g1255
sg28
Nsg44
S'Update date'
p1257
stRp1258
atRp1259
sg68
g1222
sg69
S'0'
sg70
g71
sg44
S'SSH Public keys'
p1260
sg42
S'PublicKey'
p1261
sg74
S'76'
p1262
sg40
S'db.pubkey'
p1263
stRp1264
sS'fixrev'
p1265
g3
(g4
g5
(dp1266
g7
S'change, job'
p1267
sg9
g3
(g10
g11
(lp1268
g3
(g4
g5
(dp1269
g14
S''
sg15
g16
sg17
g16
sg18
S''
sg19
S''
sg20
g21
sg22
g23
stRp1270
ag3
(g4
g5
(dp1271
g14
S''
sg17
g26
sg18
S''
sg20
g27
sg19
S''
sg15
g26
sg28
Nsg22
g29
stRp1272
ag3
(g4
g5
(dp1273
g14
S''
sg17
g32
sg18
S''
sg20
g21
sg19
S''
sg15
g32
sg28
Nsg22
g33
stRp1274
ag3
(g4
g5
(dp1275
g14
S''
sg17
g36
sg18
S''
sg20
g27
sg19
S''
sg15
g36
sg28
Nsg22
g37
stRp1276
ag3
(g4
g5
(dp1277
g14
S''
sg40
g835
sg18
S''
sg42
g836
sg19
S''
sg15
g835
sg28
Nsg44
g837
stRp1278
ag3
(g4
g5
(dp1279
g14
S''
sg40
g840
sg18
S''
sg42
g841
sg19
S''
sg15
g840
sg28
Nsg44
g842
stRp1280
ag3
(g4
g5
(dp1281
g14
S''
sg40
g845
sg18
S''
sg42
g846
sg19
S''
sg15
g845
sg28
Nsg44
g847
stRp1282
ag3
(g4
g5
(dp1283
g14
S''
sg40
g850
sg18
S''
sg42
g851
sg19
S''
sg15
g850
sg28
Nsg44
g852
stRp1284
ag3
(g4
g5
(dp1285
g14
S''
sg40
g855
sg18
S''
sg42
g856
sg19
S''
sg15
g855
sg28
Nsg44
g857
stRp1286
ag3
(g4
g5
(dp1287
g14
S''
sg40
g860
sg18
S''
sg42
g861
sg19
S''
sg15
g860
sg28
Nsg44
g862
stRp1288
atRp1289
sg68
g1265
sg40
S'db.fixrev'
p1290
sg69
S'1'
sg70
g71
sg866
S'db.fix'
p1291
sg42
S'Fix'
p1292
sg74
S'81'
p1293
sg44
S'Fix records - indexed by change'
p1294
stRp1295
sS'resolveg'
p1296
g3
(g4
g5
(dp1297
g7
S'toFile, fromFile, baseSha'
p1298
sg9
g3
(g10
g11
(lp1299
g3
(g4
g5
(dp1300
g14
S''
sg15
g16
sg17
g16
sg18
S''
sg19
S''
sg20
g21
sg22
g23
stRp1301
ag3
(g4
g5
(dp1302
g14
S''
sg17
g26
sg18
S''
sg20
g27
sg19
S''
sg15
g26
sg28
Nsg22
g29
stRp1303
ag3
(g4
g5
(dp1304
g14
S''
sg17
g32
sg18
S''
sg20
g21
sg19
S''
sg15
g32
sg28
Nsg22
g33
stRp1305
ag3
(g4
g5
(dp1306
g14
S''
sg17
g36
sg18
S''
sg20
g27
sg19
S''
sg15
g36
sg28
Nsg22
g37
stRp1307
ag3
(g4
g5
(dp1308
g14
S''
sg40
S'toFile'
p1309
sg18
S''
sg42
S'File'
p1310
sg19
S''
sg15
g1309
sg28
Nsg44
S'ToFile'
p1311
stRp1312
ag3
(g4
g5
(dp1313
g14
S''
sg40
S'fromFile'
p1314
sg18
S''
sg42
S'File'
p1315
sg19
S''
sg15
g1314
sg28
Nsg44
S'FromFile'
p1316
stRp1317
ag3
(g4
g5
(dp1318
g14
S''
sg40
S'baseSHA'
p1319
sg18
S''
sg42
S'SHA1'
p1320
sg19
S''
sg15
g1319
sg28
Nsg44
S'Base SHA'
p1321
stRp1322
ag3
(g4
g5
(dp1323
g14
S''
sg40
S'wantsSHA'
p1324
sg18
S''
sg42
S'SHA1'
p1325
sg19
S''
sg15
g1324
sg28
Nsg44
S'Wants SHA'
p1326
stRp1327
ag3
(g4
g5
(dp1328
g14
S''
sg40
S'how'
p1329
sg18
S''
sg42
S'IntegHow'
p1330
sg19
S''
sg15
g1329
sg28
Nsg44
S'How'
p1331
stRp1332
ag3
(g4
g5
(dp1333
g14
S''
sg40
S'state'
p1334
sg18
S''
sg42
S'ResolvedStatus'
p1335
sg19
S''
sg15
g1334
sg28
Nsg44
S'State'
p1336
stRp1337
atRp1338
sg68
g1296
sg69
S'0'
sg70
g71
sg44
S'Resolve records for clients of type graph'
p1339
sg42
S'ResolveG'
p1340
sg74
S'37'
p1341
sg40
S'db.resolveg'
p1342
stRp1343
sS'revdx'
p1344
g3
(g4
g5
(dp1345
g7
S'depotFile'
p1346
sg9
g3
(g10
g11
(lp1347
g3
(g4
g5
(dp1348
g14
S''
sg15
g16
sg17
g16
sg18
S''
sg19
S''
sg20
g21
sg22
g23
stRp1349
ag3
(g4
g5
(dp1350
g14
S''
sg17
g26
sg18
S''
sg20
g27
sg19
S''
sg15
g26
sg28
Nsg22
g29
stRp1351
ag3
(g4
g5
(dp1352
g14
S''
sg17
g32
sg18
S''
sg20
g21
sg19
S''
sg15
g32
sg28
Nsg22
g33
stRp1353
ag3
(g4
g5
(dp1354
g14
S''
sg17
g36
sg18
S''
sg20
g27
sg19
S''
sg15
g36
sg28
Nsg22
g37
stRp1355
ag3
(g4
g5
(dp1356
g14
S''
sg40
g90
sg18
S''
sg42
g91
sg19
S''
sg15
g90
sg28
Nsg44
g92
stRp1357
ag3
(g4
g5
(dp1358
g14
S''
sg40
g95
sg18
S''
sg42
g96
sg19
S''
sg15
g95
sg28
Nsg44
g97
stRp1359
ag3
(g4
g5
(dp1360
g14
S''
sg40
g100
sg18
S''
sg42
g101
sg19
S''
sg15
g100
sg28
Nsg44
g102
stRp1361
ag3
(g4
g5
(dp1362
g14
S''
sg40
g105
sg18
S''
sg42
g106
sg19
S''
sg15
g105
sg28
Nsg44
g107
stRp1363
ag3
(g4
g5
(dp1364
g14
S''
sg40
g110
sg18
S''
sg42
g111
sg19
S''
sg15
g110
sg28
Nsg44
g112
stRp1365
ag3
(g4
g5
(dp1366
g14
S''
sg40
g115
sg18
S''
sg42
g116
sg19
S''
sg15
g115
sg28
Nsg44
g117
stRp1367
ag3
(g4
g5
(dp1368
g14
S''
sg40
g120
sg18
S''
sg42
g121
sg19
S''
sg15
g120
sg28
Nsg44
g122
stRp1369
ag3
(g4
g5
(dp1370
g14
S''
sg40
g125
sg18
S''
sg42
g126
sg19
S''
sg15
g125
sg28
Nsg44
g127
stRp1371
ag3
(g4
g5
(dp1372
g14
S''
sg40
g130
sg18
S''
sg42
g131
sg19
S''
sg15
g130
sg28
Nsg44
g132
stRp1373
ag3
(g4
g5
(dp1374
g14
S''
sg40
g135
sg18
S''
sg42
g136
sg19
S''
sg15
g135
sg28
Nsg44
g137
stRp1375
ag3
(g4
g5
(dp1376
g14
S''
sg40
g140
sg18
S''
sg42
g141
sg19
S''
sg15
g140
sg28
Nsg44
g142
stRp1377
ag3
(g4
g5
(dp1378
g14
S''
sg40
g145
sg18
S''
sg42
g146
sg19
S''
sg15
g145
sg28
Nsg44
g147
stRp1379
ag3
(g4
g5
(dp1380
g14
S''
sg40
g150
sg18
S''
sg42
g151
sg19
S''
sg15
g150
sg28
Nsg44
g152
stRp1381
ag3
(g4
g5
(dp1382
g14
S''
sg40
g155
sg18
S''
sg42
g156
sg19
S''
sg15
g155
sg28
Nsg44
g157
stRp1383
atRp1384
sg68
g1344
sg69
S'9'
sg70
g71
sg44
S'Revision records for revisions deleted at the head revision'
p1385
sg42
S'Rev'
p1386
sg74
S'43'
p1387
sg40
S'db.revdx'
p1388
stRp1389
sS'exclgx'
p1390
g3
(g4
g5
(dp1391
g7
S'lockId'
p1392
sg9
g3
(g10
g11
(lp1393
g3
(g4
g5
(dp1394
g14
S''
sg15
g16
sg17
g16
sg18
S''
sg19
S''
sg20
g21
sg22
g23
stRp1395
ag3
(g4
g5
(dp1396
g14
S''
sg17
g26
sg18
S''
sg20
g27
sg19
S''
sg15
g26
sg28
Nsg22
g29
stRp1397
ag3
(g4
g5
(dp1398
g14
S''
sg17
g32
sg18
S''
sg20
g21
sg19
S''
sg15
g32
sg28
Nsg22
g33
stRp1399
ag3
(g4
g5
(dp1400
g14
S''
sg17
g36
sg18
S''
sg20
g27
sg19
S''
sg15
g36
sg28
Nsg22
g37
stRp1401
ag3
(g4
g5
(dp1402
g14
S''
sg40
S'lockId'
p1403
sg18
S''
sg42
S'String'
p1404
sg19
S''
sg15
g1403
sg28
Nsg44
S'The git LFS lock identifier'
p1405
stRp1406
ag3
(g4
g5
(dp1407
g14
S''
sg40
S'repo'
p1408
sg18
S''
sg42
S'Key'
p1409
sg19
S''
sg15
g1408
sg28
Nsg44
S'The name of the repository on which the lock is applied'
p1410
stRp1411
ag3
(g4
g5
(dp1412
g14
S''
sg40
S'ref'
p1413
sg18
S''
sg42
S'Text'
p1414
sg19
S''
sg15
g1413
sg28
Nsg44
S'The reference on which the lock is applied'
p1415
stRp1416
ag3
(g4
g5
(dp1417
g14
S''
sg40
S'file'
p1418
sg18
S''
sg42
S'File'
p1419
sg19
S''
sg15
g1418
sg28
Nsg44
S'The git file path'
p1420
stRp1421
ag3
(g4
g5
(dp1422
g14
S''
sg40
S'user'
p1423
sg18
S''
sg42
S'User'
p1424
sg19
S''
sg15
g1423
sg28
Nsg44
S'The user for which the file is locked'
p1425
stRp1426
ag3
(g4
g5
(dp1427
g14
S''
sg40
S'created'
p1428
sg18
S''
sg42
S'String'
p1429
sg19
S''
sg15
g1428
sg28
Nsg44
S'The lock creation date stored in git data format'
p1430
stRp1431
atRp1432
sg68
g1390
sg69
S'0'
sg70
g71
sg44
S'Graph depot LFS locks indexed by lockId'
p1433
sg42
S'ExclGX'
p1434
sg74
S'62'
p1435
sg40
S'db.exclgx'
p1436
stRp1437
sS'bodtexthx'
p1438
g3
(g4
g5
(dp1439
g7
S'type, key, attr'
p1440
sg9
g3
(g10
g11
(lp1441
g3
(g4
g5
(dp1442
g14
S''
sg15
g16
sg17
g16
sg18
S''
sg19
S''
sg20
g21
sg22
g23
stRp1443
ag3
(g4
g5
(dp1444
g14
S''
sg17
g26
sg18
S''
sg20
g27
sg19
S''
sg15
g26
sg28
Nsg22
g29
stRp1445
ag3
(g4
g5
(dp1446
g14
S''
sg17
g32
sg18
S''
sg20
g21
sg19
S''
sg15
g32
sg28
Nsg22
g33
stRp1447
ag3
(g4
g5
(dp1448
g14
S''
sg17
g36
sg18
S''
sg20
g27
sg19
S''
sg15
g36
sg28
Nsg22
g37
stRp1449
ag3
(g4
g5
(dp1450
g14
S''
sg40
S'type'
p1451
sg18
S''
sg42
S'Int'
p1452
sg19
S''
sg15
g1451
sg28
Nsg44
S'The type of spec'
p1453
stRp1454
ag3
(g4
g5
(dp1455
g14
S''
sg40
S'key'
p1456
sg18
S''
sg42
S'Key'
p1457
sg19
S''
sg15
g1456
sg28
Nsg44
S'The spec to which this attribute belongs'
p1458
stRp1459
ag3
(g4
g5
(dp1460
g14
S''
sg40
S'attr'
p1461
sg18
S''
sg42
S'Int'
p1462
sg19
S''
sg15
g1461
sg28
Nsg44
S'The attribute number of this attribute'
p1463
stRp1464
ag3
(g4
g5
(dp1465
g14
S''
sg40
S'bulk'
p1466
sg18
S''
sg42
S'Int'
p1467
sg19
S''
sg15
g1466
sg28
Nsg44
S'Indicates whether (1), or not (0) the field is a bulk\n\t\t    text field that should not be indexed.'
p1468
stRp1469
ag3
(g4
g5
(dp1470
g14
S''
sg40
S'text'
p1471
sg18
S''
sg42
S'Text'
p1472
sg19
S''
sg15
g1471
sg28
Nsg44
S'The attribute value'
p1473
stRp1474
atRp1475
sg68
g1438
sg69
S'0'
sg70
g71
sg44
S'Head revision of spec fields'
p1476
sg42
S'BodyTextHx'
p1477
sg74
S'86'
p1478
sg40
S'db.bodtexthx'
p1479
stRp1480
sS'integed'
p1481
g3
(g4
g5
(dp1482
g7
S'toFile, fromFile, startFromRev, endFromRev,\n\t\t\tstartToRev, endToRev'
p1483
sg9
g3
(g10
g11
(lp1484
g3
(g4
g5
(dp1485
g14
S''
sg15
g16
sg17
g16
sg18
S''
sg19
S''
sg20
g21
sg22
g23
stRp1486
ag3
(g4
g5
(dp1487
g14
S''
sg17
g26
sg18
S''
sg20
g27
sg19
S''
sg15
g26
sg28
Nsg22
g29
stRp1488
ag3
(g4
g5
(dp1489
g14
S''
sg17
g32
sg18
S''
sg20
g21
sg19
S''
sg15
g32
sg28
Nsg22
g33
stRp1490
ag3
(g4
g5
(dp1491
g14
S''
sg17
g36
sg18
S''
sg20
g27
sg19
S''
sg15
g36
sg28
Nsg22
g37
stRp1492
ag3
(g4
g5
(dp1493
g14
S''
sg40
S'toFile'
p1494
sg18
S''
sg42
S'File'
p1495
sg19
S''
sg15
g1494
sg28
Nsg44
S'File to which integration is being performed (target).'
p1496
stRp1497
ag3
(g4
g5
(dp1498
g14
S''
sg40
S'fromFile'
p1499
sg18
S''
sg42
S'File'
p1500
sg19
S''
sg15
g1499
sg28
Nsg44
S'File from which integration is being performed (source).'
p1501
stRp1502
ag3
(g4
g5
(dp1503
g14
S''
sg40
S'startFromRev'
p1504
sg18
S''
sg42
S'Rev'
p1505
sg19
S''
sg15
g1504
sg28
Nsg44
S'Starting revision of fromFile'
p1506
stRp1507
ag3
(g4
g5
(dp1508
g14
S''
sg40
S'endFromRev'
p1509
sg18
S''
sg42
S'Rev'
p1510
sg19
S''
sg15
g1509
sg28
Nsg44
S'Ending revision of fromFile'
p1511
stRp1512
ag3
(g4
g5
(dp1513
g14
S''
sg40
S'startToRev'
p1514
sg18
S''
sg42
S'Rev'
p1515
sg19
S''
sg15
g1514
sg28
Nsg44
S'Start revision of toFile into which integration was \n\t\t    performed.'
p1516
stRp1517
ag3
(g4
g5
(dp1518
g14
S''
sg40
S'endToRev'
p1519
sg18
S''
sg42
S'Rev'
p1520
sg19
S''
sg15
g1519
sg28
Nsg44
S'End revision of toFile into which integration was \n\t\t    performed. Only varies from startToRev for reverse \n\t\t    integration records.'
p1521
stRp1522
ag3
(g4
g5
(dp1523
g14
S''
sg40
S'how'
p1524
sg18
S''
sg42
S'IntegHow'
p1525
sg19
S''
sg15
g1524
sg28
Nsg44
S'Integration method: variations on \n\t\t    merge/branch/copy/ignore/delete.'
p1526
stRp1527
ag3
(g4
g5
(dp1528
g14
S''
sg40
S'change'
p1529
sg18
S''
sg42
S'Change'
p1530
sg19
S''
sg15
g1529
sg28
Nsg44
S'Changelist associated with the integration.'
p1531
stRp1532
atRp1533
sg68
g1481
sg40
S'db.integed'
p1534
sg69
S'0'
sg70
g71
sg866
S'db.resolve'
p1535
sg42
S'Integed'
p1536
sg74
S'33'
p1537
sg44
S'Permanent integration records'
p1538
stRp1539
sS'repo'
p1540
g3
(g4
g5
(dp1541
g7
S'repo'
p1542
sg9
g3
(g10
g11
(lp1543
g3
(g4
g5
(dp1544
g14
S''
sg15
g16
sg17
g16
sg18
S''
sg19
S''
sg20
g21
sg22
g23
stRp1545
ag3
(g4
g5
(dp1546
g14
S''
sg17
g26
sg18
S''
sg20
g27
sg19
S''
sg15
g26
sg28
Nsg22
g29
stRp1547
ag3
(g4
g5
(dp1548
g14
S''
sg17
g32
sg18
S''
sg20
g21
sg19
S''
sg15
g32
sg28
Nsg22
g33
stRp1549
ag3
(g4
g5
(dp1550
g14
S''
sg17
g36
sg18
S''
sg20
g27
sg19
S''
sg15
g36
sg28
Nsg22
g37
stRp1551
ag3
(g4
g5
(dp1552
g14
S''
sg40
S'repo'
p1553
sg18
S''
sg42
S'Key'
p1554
sg19
S''
sg15
g1553
sg28
Nsg44
S'Name of the repo'
p1555
stRp1556
ag3
(g4
g5
(dp1557
g14
S''
sg40
S'owner'
p1558
sg18
S''
sg42
S'User'
p1559
sg19
S''
sg15
g1558
sg28
Nsg44
S'Owner of the repo'
p1560
stRp1561
ag3
(g4
g5
(dp1562
g14
S''
sg40
S'created'
p1563
sg18
S''
sg42
S'Date'
p1564
sg19
S''
sg15
g1563
sg28
Nsg44
S'Date the repo specification was created'
p1565
stRp1566
ag3
(g4
g5
(dp1567
g14
S''
sg40
S'pushed'
p1568
sg18
S''
sg42
S'Date'
p1569
sg19
S''
sg15
g1568
sg28
Nsg44
S'Date of the last push to the repo'
p1570
stRp1571
ag3
(g4
g5
(dp1572
g14
S''
sg40
S'forked'
p1573
sg18
S''
sg42
S'Key'
p1574
sg19
S''
sg15
g1573
sg28
Nsg44
S'Name of the repo from which this repo was forked'
p1575
stRp1576
ag3
(g4
g5
(dp1577
g14
S''
sg40
S'desc'
p1578
sg18
S''
sg42
S'Text'
p1579
sg19
S''
sg15
g1578
sg28
Nsg44
S'Repo Description'
p1580
stRp1581
ag3
(g4
g5
(dp1582
g14
S''
sg40
S'branch'
p1583
sg18
S''
sg42
S'Text'
p1584
sg19
S''
sg15
g1583
sg28
Nsg44
S'Default branch to clone from the repo'
p1585
stRp1586
ag3
(g4
g5
(dp1587
g14
S''
sg40
S'mirror'
p1588
sg18
S''
sg42
S'Text'
p1589
sg19
S''
sg15
g1588
sg28
Nsg44
S'Upstream URL that this repo is mirrored (readonly) from'
p1590
stRp1591
ag3
(g4
g5
(dp1592
g14
S''
sg40
S'options'
p1593
sg18
S''
sg42
S'Int'
p1594
sg19
S''
sg15
g1593
sg28
Nsg44
S'Repo options: 0 = nolfs, 1 = lfs'
p1595
stRp1596
ag3
(g4
g5
(dp1597
g14
S''
sg40
S'id'
p1598
sg18
S''
sg42
S'Int'
p1599
sg19
S''
sg15
g1598
sg28
Nsg44
S'Repo index ID'
p1600
stRp1601
atRp1602
sg68
g1540
sg69
S'2'
sg70
g71
sg44
S'Repository specifications'
p1603
sg42
S'Repo'
p1604
sg74
S'69'
p1605
sg40
S'db.repo'
p1606
stRp1607
sS'revhx'
p1608
g3
(g4
g5
(dp1609
g7
S'depotFile'
p1610
sg9
g3
(g10
g11
(lp1611
g3
(g4
g5
(dp1612
g14
S''
sg15
g16
sg17
g16
sg18
S''
sg19
S''
sg20
g21
sg22
g23
stRp1613
ag3
(g4
g5
(dp1614
g14
S''
sg17
g26
sg18
S''
sg20
g27
sg19
S''
sg15
g26
sg28
Nsg22
g29
stRp1615
ag3
(g4
g5
(dp1616
g14
S''
sg17
g32
sg18
S''
sg20
g21
sg19
S''
sg15
g32
sg28
Nsg22
g33
stRp1617
ag3
(g4
g5
(dp1618
g14
S''
sg17
g36
sg18
S''
sg20
g27
sg19
S''
sg15
g36
sg28
Nsg22
g37
stRp1619
ag3
(g4
g5
(dp1620
g14
S''
sg40
g90
sg18
S''
sg42
g91
sg19
S''
sg15
g90
sg28
Nsg44
g92
stRp1621
ag3
(g4
g5
(dp1622
g14
S''
sg40
g95
sg18
S''
sg42
g96
sg19
S''
sg15
g95
sg28
Nsg44
g97
stRp1623
ag3
(g4
g5
(dp1624
g14
S''
sg40
g100
sg18
S''
sg42
g101
sg19
S''
sg15
g100
sg28
Nsg44
g102
stRp1625
ag3
(g4
g5
(dp1626
g14
S''
sg40
g105
sg18
S''
sg42
g106
sg19
S''
sg15
g105
sg28
Nsg44
g107
stRp1627
ag3
(g4
g5
(dp1628
g14
S''
sg40
g110
sg18
S''
sg42
g111
sg19
S''
sg15
g110
sg28
Nsg44
g112
stRp1629
ag3
(g4
g5
(dp1630
g14
S''
sg40
g115
sg18
S''
sg42
g116
sg19
S''
sg15
g115
sg28
Nsg44
g117
stRp1631
ag3
(g4
g5
(dp1632
g14
S''
sg40
g120
sg18
S''
sg42
g121
sg19
S''
sg15
g120
sg28
Nsg44
g122
stRp1633
ag3
(g4
g5
(dp1634
g14
S''
sg40
g125
sg18
S''
sg42
g126
sg19
S''
sg15
g125
sg28
Nsg44
g127
stRp1635
ag3
(g4
g5
(dp1636
g14
S''
sg40
g130
sg18
S''
sg42
g131
sg19
S''
sg15
g130
sg28
Nsg44
g132
stRp1637
ag3
(g4
g5
(dp1638
g14
S''
sg40
g135
sg18
S''
sg42
g136
sg19
S''
sg15
g135
sg28
Nsg44
g137
stRp1639
ag3
(g4
g5
(dp1640
g14
S''
sg40
g140
sg18
S''
sg42
g141
sg19
S''
sg15
g140
sg28
Nsg44
g142
stRp1641
ag3
(g4
g5
(dp1642
g14
S''
sg40
g145
sg18
S''
sg42
g146
sg19
S''
sg15
g145
sg28
Nsg44
g147
stRp1643
ag3
(g4
g5
(dp1644
g14
S''
sg40
g150
sg18
S''
sg42
g151
sg19
S''
sg15
g150
sg28
Nsg44
g152
stRp1645
ag3
(g4
g5
(dp1646
g14
S''
sg40
g155
sg18
S''
sg42
g156
sg19
S''
sg15
g155
sg28
Nsg44
g157
stRp1647
atRp1648
sg68
g1608
sg69
S'9'
sg70
g71
sg44
S'Revision records for revisions NOT deleted at the head revision'
p1649
sg42
S'Rev'
p1650
sg74
S'44'
p1651
sg40
S'db.revhx'
p1652
stRp1653
sS'haveg'
p1654
g3
(g4
g5
(dp1655
g7
S'repo, clientFile'
p1656
sg9
g3
(g10
g11
(lp1657
g3
(g4
g5
(dp1658
g14
S''
sg15
g16
sg17
g16
sg18
S''
sg19
S''
sg20
g21
sg22
g23
stRp1659
ag3
(g4
g5
(dp1660
g14
S''
sg17
g26
sg18
S''
sg20
g27
sg19
S''
sg15
g26
sg28
Nsg22
g29
stRp1661
ag3
(g4
g5
(dp1662
g14
S''
sg17
g32
sg18
S''
sg20
g21
sg19
S''
sg15
g32
sg28
Nsg22
g33
stRp1663
ag3
(g4
g5
(dp1664
g14
S''
sg17
g36
sg18
S''
sg20
g27
sg19
S''
sg15
g36
sg28
Nsg22
g37
stRp1665
ag3
(g4
g5
(dp1666
g14
S''
sg40
S'repo'
p1667
sg18
S''
sg42
S'Key'
p1668
sg19
S''
sg15
g1667
sg28
Nsg44
S'Repository name'
p1669
stRp1670
ag3
(g4
g5
(dp1671
g14
S''
sg40
S'clientFile'
p1672
sg18
S''
sg42
S'File'
p1673
sg19
S''
sg15
g1672
sg28
Nsg44
S'The file in its location on the client'
p1674
stRp1675
ag3
(g4
g5
(dp1676
g14
S''
sg40
S'depotFile'
p1677
sg18
S''
sg42
S'File'
p1678
sg19
S''
sg15
g1677
sg28
Nsg44
S'The git file path'
p1679
stRp1680
ag3
(g4
g5
(dp1681
g14
S''
sg40
S'client'
p1682
sg18
S''
sg42
S'Domain'
p1683
sg19
S''
sg15
g1682
sg28
Nsg44
S'Domain (client) in which file is synced'
p1684
stRp1685
ag3
(g4
g5
(dp1686
g14
S''
sg40
S'type'
p1687
sg18
S''
sg42
S'FileType'
p1688
sg19
S''
sg15
g1687
sg28
Nsg44
S'The filetype of the synced revision'
p1689
stRp1690
ag3
(g4
g5
(dp1691
g14
S''
sg40
S'action'
p1692
sg18
S''
sg42
S'Action'
p1693
sg19
S''
sg15
g1692
sg28
Nsg44
S'Action file is open for: add, edit, delete, branch, integrate, or import'
p1694
stRp1695
ag3
(g4
g5
(dp1696
g14
S''
sg40
S'blobSha'
p1697
sg18
S''
sg42
S'SHA1'
p1698
sg19
S''
sg15
g1697
sg28
Nsg44
S'SHA of blob'
p1699
stRp1700
ag3
(g4
g5
(dp1701
g14
S''
sg40
S'commitSha'
p1702
sg18
S''
sg42
S'SHA1'
p1703
sg19
S''
sg15
g1702
sg28
Nsg44
S'SHA of commit that added/edited this file'
p1704
stRp1705
ag3
(g4
g5
(dp1706
g14
S''
sg40
S'flags'
p1707
sg18
S''
sg42
S'Int'
p1708
sg19
S''
sg15
g1707
sg28
Nsg44
S'Miscellaneous flags'
p1709
stRp1710
atRp1711
sg68
g1654
sg69
S'0'
sg70
g71
sg44
S"Contains the 'have-list' for graph depot files that are not at the same revision as defined by the client's have reference."
p1712
sg42
S'Haveg'
p1713
sg74
S'59'
p1714
sg40
S'db.haveg'
p1715
stRp1716
sS'revux'
p1717
g3
(g4
g5
(dp1718
g7
S'depotFile, depotRev'
p1719
sg9
g3
(g10
g11
(lp1720
g3
(g4
g5
(dp1721
g14
S''
sg15
g16
sg17
g16
sg18
S''
sg19
S''
sg20
g21
sg22
g23
stRp1722
ag3
(g4
g5
(dp1723
g14
S''
sg17
g26
sg18
S''
sg20
g27
sg19
S''
sg15
g26
sg28
Nsg22
g29
stRp1724
ag3
(g4
g5
(dp1725
g14
S''
sg17
g32
sg18
S''
sg20
g21
sg19
S''
sg15
g32
sg28
Nsg22
g33
stRp1726
ag3
(g4
g5
(dp1727
g14
S''
sg17
g36
sg18
S''
sg20
g27
sg19
S''
sg15
g36
sg28
Nsg22
g37
stRp1728
ag3
(g4
g5
(dp1729
g14
S''
sg40
g90
sg18
S''
sg42
g91
sg19
S''
sg15
g90
sg28
Nsg44
g92
stRp1730
ag3
(g4
g5
(dp1731
g14
S''
sg40
g95
sg18
S''
sg42
g96
sg19
S''
sg15
g95
sg28
Nsg44
g97
stRp1732
ag3
(g4
g5
(dp1733
g14
S''
sg40
g100
sg18
S''
sg42
g101
sg19
S''
sg15
g100
sg28
Nsg44
g102
stRp1734
ag3
(g4
g5
(dp1735
g14
S''
sg40
g105
sg18
S''
sg42
g106
sg19
S''
sg15
g105
sg28
Nsg44
g107
stRp1736
ag3
(g4
g5
(dp1737
g14
S''
sg40
g110
sg18
S''
sg42
g111
sg19
S''
sg15
g110
sg28
Nsg44
g112
stRp1738
ag3
(g4
g5
(dp1739
g14
S''
sg40
g115
sg18
S''
sg42
g116
sg19
S''
sg15
g115
sg28
Nsg44
g117
stRp1740
ag3
(g4
g5
(dp1741
g14
S''
sg40
g120
sg18
S''
sg42
g121
sg19
S''
sg15
g120
sg28
Nsg44
g122
stRp1742
ag3
(g4
g5
(dp1743
g14
S''
sg40
g125
sg18
S''
sg42
g126
sg19
S''
sg15
g125
sg28
Nsg44
g127
stRp1744
ag3
(g4
g5
(dp1745
g14
S''
sg40
g130
sg18
S''
sg42
g131
sg19
S''
sg15
g130
sg28
Nsg44
g132
stRp1746
ag3
(g4
g5
(dp1747
g14
S''
sg40
g135
sg18
S''
sg42
g136
sg19
S''
sg15
g135
sg28
Nsg44
g137
stRp1748
ag3
(g4
g5
(dp1749
g14
S''
sg40
g140
sg18
S''
sg42
g141
sg19
S''
sg15
g140
sg28
Nsg44
g142
stRp1750
ag3
(g4
g5
(dp1751
g14
S''
sg40
g145
sg18
S''
sg42
g146
sg19
S''
sg15
g145
sg28
Nsg44
g147
stRp1752
ag3
(g4
g5
(dp1753
g14
S''
sg40
g150
sg18
S''
sg42
g151
sg19
S''
sg15
g150
sg28
Nsg44
g152
stRp1754
ag3
(g4
g5
(dp1755
g14
S''
sg40
g155
sg18
S''
sg42
g156
sg19
S''
sg15
g155
sg28
Nsg44
g157
stRp1756
atRp1757
sg68
g1717
sg69
S'9'
sg70
g71
sg44
S'Revision records for unload depot files'
p1758
sg42
S'Rev'
p1759
sg74
S'49'
p1760
sg40
S'db.revux'
p1761
stRp1762
sS'jnlack'
p1763
g3
(g4
g5
(dp1764
g7
S'serverId'
p1765
sg9
g3
(g10
g11
(lp1766
g3
(g4
g5
(dp1767
g14
S''
sg15
g16
sg17
g16
sg18
S''
sg19
S''
sg20
g21
sg22
g23
stRp1768
ag3
(g4
g5
(dp1769
g14
S''
sg17
g26
sg18
S''
sg20
g27
sg19
S''
sg15
g26
sg28
Nsg22
g29
stRp1770
ag3
(g4
g5
(dp1771
g14
S''
sg17
g32
sg18
S''
sg20
g21
sg19
S''
sg15
g32
sg28
Nsg22
g33
stRp1772
ag3
(g4
g5
(dp1773
g14
S''
sg17
g36
sg18
S''
sg20
g27
sg19
S''
sg15
g36
sg28
Nsg22
g37
stRp1774
ag3
(g4
g5
(dp1775
g14
S''
sg40
S'serverId'
p1776
sg18
S''
sg42
S'Key'
p1777
sg19
S''
sg15
g1776
sg28
Nsg44
S'The serverId of the replica for whom this record applies'
p1778
stRp1779
ag3
(g4
g5
(dp1780
g14
S''
sg40
S'lastUpdate'
p1781
sg18
S''
sg42
S'Date'
p1782
sg19
S''
sg15
g1781
sg28
Nsg44
S'The date and time of last update'
p1783
stRp1784
ag3
(g4
g5
(dp1785
g14
S''
sg40
S'serverType'
p1786
sg18
S''
sg42
S'ServerServiceType'
p1787
sg19
S''
sg15
g1786
sg28
Nsg44
S'The server services offered by this replica'
p1788
stRp1789
ag3
(g4
g5
(dp1790
g14
S''
sg40
S'persistedJnl'
p1791
sg18
S''
sg42
S'Int'
p1792
sg19
S''
sg15
g1791
sg28
Nsg44
S'The last journal number persisted by this replica'
p1793
stRp1794
ag3
(g4
g5
(dp1795
g14
S''
sg40
S'appliedJnl'
p1796
sg18
S''
sg42
S'Int'
p1797
sg19
S''
sg15
g1796
sg28
Nsg44
S'The last journal number applied by this replica'
p1798
stRp1799
ag3
(g4
g5
(dp1800
g14
S''
sg40
S'persistedPos'
p1801
sg18
S''
sg42
S'Int64'
p1802
sg19
S''
sg15
g1801
sg28
Nsg44
S'The last journal position persisted by this replica'
p1803
stRp1804
ag3
(g4
g5
(dp1805
g14
S''
sg40
S'appliedPos'
p1806
sg18
S''
sg42
S'Int64'
p1807
sg19
S''
sg15
g1806
sg28
Nsg44
S'The last journal position applied by this replica'
p1808
stRp1809
ag3
(g4
g5
(dp1810
g14
S''
sg40
S'jcflags'
p1811
sg18
S''
sg42
S'JournalCopyFlags'
p1812
sg19
S''
sg15
g1811
sg28
Nsg44
S'Journalcopy Flags'
p1813
stRp1814
ag3
(g4
g5
(dp1815
g14
S''
sg40
S'isAlive'
p1816
sg18
S''
sg42
S'Int'
p1817
sg19
S''
sg15
g1816
sg28
Nsg44
S'1 = alive'
p1818
stRp1819
ag3
(g4
g5
(dp1820
g14
S''
sg40
S'serverOptions'
p1821
sg18
S''
sg42
S'ServerOptionsType'
p1822
sg19
S''
sg15
g1821
sg28
Nsg44
S'Server Options'
p1823
stRp1824
ag3
(g4
g5
(dp1825
g14
S''
sg40
S'failoverSeen'
p1826
sg18
S''
sg42
S'Text'
p1827
sg19
S''
sg15
g1826
sg28
Nsg44
S'Failover was seen'
p1828
stRp1829
atRp1830
sg68
g1763
sg69
S'1'
sg70
g71
sg44
S'Tracks journal positions of all replicas'
p1831
sg42
S'JnlAck'
p1832
sg74
S'98'
p1833
sg40
S'db.jnlack'
p1834
stRp1835
sS'excl'
p1836
g3
(g4
g5
(dp1837
g7
S'depotFile'
p1838
sg9
g3
(g10
g11
(lp1839
g3
(g4
g5
(dp1840
g14
S''
sg15
g16
sg17
g16
sg18
S''
sg19
S''
sg20
g21
sg22
g23
stRp1841
ag3
(g4
g5
(dp1842
g14
S''
sg17
g26
sg18
S''
sg20
g27
sg19
S''
sg15
g26
sg28
Nsg22
g29
stRp1843
ag3
(g4
g5
(dp1844
g14
S''
sg17
g32
sg18
S''
sg20
g21
sg19
S''
sg15
g32
sg28
Nsg22
g33
stRp1845
ag3
(g4
g5
(dp1846
g14
S''
sg17
g36
sg18
S''
sg20
g27
sg19
S''
sg15
g36
sg28
Nsg22
g37
stRp1847
ag3
(g4
g5
(dp1848
g14
S''
sg40
S'depotFile'
p1849
sg18
S''
sg42
S'File'
p1850
sg19
S''
sg15
g1849
sg28
Nsg44
S'The file locked'
p1851
stRp1852
ag3
(g4
g5
(dp1853
g14
S''
sg40
S'client'
p1854
sg18
S''
sg42
S'Domain'
p1855
sg19
S''
sg15
g1854
sg28
Nsg44
S'The client for which the file is locked'
p1856
stRp1857
ag3
(g4
g5
(dp1858
g14
S''
sg40
S'user'
p1859
sg18
S''
sg42
S'User'
p1860
sg19
S''
sg15
g1859
sg28
Nsg44
S'The user for which the file is locked'
p1861
stRp1862
atRp1863
sg68
g1836
sg69
S'1'
sg70
g71
sg44
S'Exclusively locked (+l) files -  enables coordinated file locking in commit/edge server environments'
p1864
sg42
S'ExclusiveLock'
p1865
sg74
S'60'
p1866
sg40
S'db.excl'
p1867
stRp1868
sS'resolvex'
p1869
g3
(g4
g5
(dp1870
g7
S'toFile, fromFile, startFromRev'
p1871
sg9
g3
(g10
g11
(lp1872
g3
(g4
g5
(dp1873
g14
S''
sg15
g16
sg17
g16
sg18
S''
sg19
S''
sg20
g21
sg22
g23
stRp1874
ag3
(g4
g5
(dp1875
g14
S''
sg17
g26
sg18
S''
sg20
g27
sg19
S''
sg15
g26
sg28
Nsg22
g29
stRp1876
ag3
(g4
g5
(dp1877
g14
S''
sg17
g32
sg18
S''
sg20
g21
sg19
S''
sg15
g32
sg28
Nsg22
g33
stRp1878
ag3
(g4
g5
(dp1879
g14
S''
sg17
g36
sg18
S''
sg20
g27
sg19
S''
sg15
g36
sg28
Nsg22
g37
stRp1880
ag3
(g4
g5
(dp1881
g14
S''
sg40
S'toFile'
p1882
sg18
S''
sg42
S'File'
p1883
sg19
S''
sg15
g1882
sg28
Nsg44
S'File to which integration is being performed (target).'
p1884
stRp1885
ag3
(g4
g5
(dp1886
g14
S''
sg40
S'fromFile'
p1887
sg18
S''
sg42
S'File'
p1888
sg19
S''
sg15
g1887
sg28
Nsg44
S'File from which integration is being performed (source).'
p1889
stRp1890
ag3
(g4
g5
(dp1891
g14
S''
sg40
S'startFromRev'
p1892
sg18
S''
sg42
S'Rev'
p1893
sg19
S''
sg15
g1892
sg28
Nsg44
S'Starting revision of fromFile'
p1894
stRp1895
ag3
(g4
g5
(dp1896
g14
S''
sg40
S'endFromRev'
p1897
sg18
S''
sg42
S'Rev'
p1898
sg19
S''
sg15
g1897
sg28
Nsg44
S'Ending revision of fromFile'
p1899
stRp1900
ag3
(g4
g5
(dp1901
g14
S''
sg40
S'startToRev'
p1902
sg18
S''
sg42
S'Rev'
p1903
sg19
S''
sg15
g1902
sg28
Nsg44
S'Start revision of toFile into which integration was \n\t\t    performed.'
p1904
stRp1905
ag3
(g4
g5
(dp1906
g14
S''
sg40
S'endToRev'
p1907
sg18
S''
sg42
S'Rev'
p1908
sg19
S''
sg15
g1907
sg28
Nsg44
S'End revision of toFile into which integration was \n\t\t    performed. Only varies from startToRev for reverse \n\t\t    integration records.'
p1909
stRp1910
ag3
(g4
g5
(dp1911
g14
S''
sg40
S'how'
p1912
sg18
S''
sg42
S'IntegHow'
p1913
sg19
S''
sg15
g1912
sg28
Nsg44
S'Integration method: variations on \n\t\t    merge/branch/copy/ignore/delete.'
p1914
stRp1915
ag3
(g4
g5
(dp1916
g14
S''
sg40
S'state'
p1917
sg18
S''
sg42
S'ResolveState'
p1918
sg19
S''
sg15
g1917
sg28
Nsg44
S'How the user performed the resolve.'
p1919
stRp1920
ag3
(g4
g5
(dp1921
g14
S''
sg40
S'baseFile'
p1922
sg18
S''
sg42
S'File'
p1923
sg19
S''
sg15
g1922
sg28
Nsg44
S'File used as the base for merging.'
p1924
stRp1925
ag3
(g4
g5
(dp1926
g14
S''
sg40
S'baseRev'
p1927
sg18
S''
sg42
S'Rev'
p1928
sg19
S''
sg15
g1927
sg28
Nsg44
S'Revision of baseFile used as the merge base.'
p1929
stRp1930
atRp1931
sg68
g1869
sg40
S'db.resolvex'
p1932
sg69
S'1'
sg70
g71
sg866
S'db.integed'
p1933
sg42
S'Resolve'
p1934
sg74
S'36'
p1935
sg44
S'Pending integration records for shelved files'
p1936
stRp1937
sS'desc'
p1938
g3
(g4
g5
(dp1939
g7
S'descKey'
p1940
sg9
g3
(g10
g11
(lp1941
g3
(g4
g5
(dp1942
g14
S''
sg15
g16
sg17
g16
sg18
S''
sg19
S''
sg20
g21
sg22
g23
stRp1943
ag3
(g4
g5
(dp1944
g14
S''
sg17
g26
sg18
S''
sg20
g27
sg19
S''
sg15
g26
sg28
Nsg22
g29
stRp1945
ag3
(g4
g5
(dp1946
g14
S''
sg17
g32
sg18
S''
sg20
g21
sg19
S''
sg15
g32
sg28
Nsg22
g33
stRp1947
ag3
(g4
g5
(dp1948
g14
S''
sg17
g36
sg18
S''
sg20
g27
sg19
S''
sg15
g36
sg28
Nsg22
g37
stRp1949
ag3
(g4
g5
(dp1950
g14
S''
sg40
S'descKey'
p1951
sg18
S''
sg42
S'Change'
p1952
sg19
S''
sg15
g1951
sg28
Nsg44
S'Original number of the change to which this description\n\t\t    applies. This may differ from the final change number if\n\t\t    the change is renumbered on submission.'
p1953
stRp1954
ag3
(g4
g5
(dp1955
g14
S''
sg40
S'description'
p1956
sg18
S''
sg42
S'Text'
p1957
sg19
S''
sg15
g1956
sg28
Nsg44
S'The change description itself'
p1958
stRp1959
atRp1960
sg68
g1938
sg69
S'0'
sg70
g71
sg44
S'Change descriptions'
p1961
sg42
S'Desc'
p1962
sg74
S'68'
p1963
sg40
S'db.desc'
p1964
stRp1965
sS'resolve'
p1966
g3
(g4
g5
(dp1967
g7
S'toFile, fromFile, startFromRev'
p1968
sg9
g3
(g10
g11
(lp1969
g3
(g4
g5
(dp1970
g14
S''
sg15
g16
sg17
g16
sg18
S''
sg19
S''
sg20
g21
sg22
g23
stRp1971
ag3
(g4
g5
(dp1972
g14
S''
sg17
g26
sg18
S''
sg20
g27
sg19
S''
sg15
g26
sg28
Nsg22
g29
stRp1973
ag3
(g4
g5
(dp1974
g14
S''
sg17
g32
sg18
S''
sg20
g21
sg19
S''
sg15
g32
sg28
Nsg22
g33
stRp1975
ag3
(g4
g5
(dp1976
g14
S''
sg17
g36
sg18
S''
sg20
g27
sg19
S''
sg15
g36
sg28
Nsg22
g37
stRp1977
ag3
(g4
g5
(dp1978
g14
S''
sg40
g1882
sg18
S''
sg42
g1883
sg19
S''
sg15
g1882
sg28
Nsg44
g1884
stRp1979
ag3
(g4
g5
(dp1980
g14
S''
sg40
g1887
sg18
S''
sg42
g1888
sg19
S''
sg15
g1887
sg28
Nsg44
g1889
stRp1981
ag3
(g4
g5
(dp1982
g14
S''
sg40
g1892
sg18
S''
sg42
g1893
sg19
S''
sg15
g1892
sg28
Nsg44
g1894
stRp1983
ag3
(g4
g5
(dp1984
g14
S''
sg40
g1897
sg18
S''
sg42
g1898
sg19
S''
sg15
g1897
sg28
Nsg44
g1899
stRp1985
ag3
(g4
g5
(dp1986
g14
S''
sg40
g1902
sg18
S''
sg42
g1903
sg19
S''
sg15
g1902
sg28
Nsg44
g1904
stRp1987
ag3
(g4
g5
(dp1988
g14
S''
sg40
g1907
sg18
S''
sg42
g1908
sg19
S''
sg15
g1907
sg28
Nsg44
g1909
stRp1989
ag3
(g4
g5
(dp1990
g14
S''
sg40
g1912
sg18
S''
sg42
g1913
sg19
S''
sg15
g1912
sg28
Nsg44
g1914
stRp1991
ag3
(g4
g5
(dp1992
g14
S''
sg40
g1917
sg18
S''
sg42
g1918
sg19
S''
sg15
g1917
sg28
Nsg44
g1919
stRp1993
ag3
(g4
g5
(dp1994
g14
S''
sg40
g1922
sg18
S''
sg42
g1923
sg19
S''
sg15
g1922
sg28
Nsg44
g1924
stRp1995
ag3
(g4
g5
(dp1996
g14
S''
sg40
g1927
sg18
S''
sg42
g1928
sg19
S''
sg15
g1927
sg28
Nsg44
g1929
stRp1997
atRp1998
sg68
g1966
sg40
S'db.resolve'
p1999
sg69
S'1'
sg70
g71
sg866
S'db.integed'
p2000
sg42
S'Resolve'
p2001
sg74
S'35'
p2002
sg44
S'Pending integration records'
p2003
stRp2004
sS'traits'
p2005
g3
(g4
g5
(dp2006
g7
S'traitLot, name'
p2007
sg9
g3
(g10
g11
(lp2008
g3
(g4
g5
(dp2009
g14
S''
sg15
g16
sg17
g16
sg18
S''
sg19
S''
sg20
g21
sg22
g23
stRp2010
ag3
(g4
g5
(dp2011
g14
S''
sg17
g26
sg18
S''
sg20
g27
sg19
S''
sg15
g26
sg28
Nsg22
g29
stRp2012
ag3
(g4
g5
(dp2013
g14
S''
sg17
g32
sg18
S''
sg20
g21
sg19
S''
sg15
g32
sg28
Nsg22
g33
stRp2014
ag3
(g4
g5
(dp2015
g14
S''
sg17
g36
sg18
S''
sg20
g27
sg19
S''
sg15
g36
sg28
Nsg22
g37
stRp2016
ag3
(g4
g5
(dp2017
g14
S''
sg40
S'traitLot'
p2018
sg18
S''
sg42
S'Int'
p2019
sg19
S''
sg15
g2018
sg28
Nsg44
S'Indicates a specific collection of traits (referred to \n\t\t    externally as "attributes".)'
p2020
stRp2021
ag3
(g4
g5
(dp2022
g14
S''
sg40
S'name'
p2023
sg18
S''
sg42
S'Key'
p2024
sg19
S''
sg15
g2023
sg28
Nsg44
S'Trait (attribute) name'
p2025
stRp2026
ag3
(g4
g5
(dp2027
g14
S''
sg40
S'type'
p2028
sg18
S''
sg42
S'TraitType'
p2029
sg19
S''
sg15
g2028
sg28
Nsg44
S'Type of trait'
p2030
stRp2031
ag3
(g4
g5
(dp2032
g14
S''
sg40
S'value'
p2033
sg18
S''
sg42
S'Octet String'
p2034
sg19
S''
sg15
g2033
sg28
Nsg44
S'The value'
p2035
stRp2036
atRp2037
sg68
g2005
sg69
S'0'
sg70
g71
sg44
S'Attributes associated with file revisions'
p2038
sg42
S'Trait'
p2039
sg74
S'63'
p2040
sg40
S'db.traits'
p2041
stRp2042
sS'ref'
p2043
g3
(g4
g5
(dp2044
g7
S'repo, type, name'
p2045
sg9
g3
(g10
g11
(lp2046
g3
(g4
g5
(dp2047
g14
S''
sg15
g16
sg17
g16
sg18
S''
sg19
S''
sg20
g21
sg22
g23
stRp2048
ag3
(g4
g5
(dp2049
g14
S''
sg17
g26
sg18
S''
sg20
g27
sg19
S''
sg15
g26
sg28
Nsg22
g29
stRp2050
ag3
(g4
g5
(dp2051
g14
S''
sg17
g32
sg18
S''
sg20
g21
sg19
S''
sg15
g32
sg28
Nsg22
g33
stRp2052
ag3
(g4
g5
(dp2053
g14
S''
sg17
g36
sg18
S''
sg20
g27
sg19
S''
sg15
g36
sg28
Nsg22
g37
stRp2054
ag3
(g4
g5
(dp2055
g14
S''
sg40
S'repo'
p2056
sg18
S''
sg42
S'Key'
p2057
sg19
S''
sg15
g2056
sg28
Nsg44
S'Repository name'
p2058
stRp2059
ag3
(g4
g5
(dp2060
g14
S''
sg40
S'name'
p2061
sg18
S''
sg42
S'Key'
p2062
sg19
S''
sg15
g2061
sg28
Nsg44
S'Reference name'
p2063
stRp2064
ag3
(g4
g5
(dp2065
g14
S''
sg40
S'type'
p2066
sg18
S''
sg42
S'RefType'
p2067
sg19
S''
sg15
g2066
sg28
Nsg44
S'Reference type'
p2068
stRp2069
ag3
(g4
g5
(dp2070
g14
S''
sg40
S'ref'
p2071
sg18
S''
sg42
S'SHA1'
p2072
sg19
S''
sg15
g2071
sg28
Nsg44
S'Target of the reference'
p2073
stRp2074
ag3
(g4
g5
(dp2075
g14
S''
sg40
S'symref'
p2076
sg18
S''
sg42
S'Text'
p2077
sg19
S''
sg15
g2076
sg28
Nsg44
S'Target of symbolic reference'
p2078
stRp2079
atRp2080
sg68
g2043
sg69
S'0'
sg70
g71
sg44
S'Reference content for graph depots'
p2081
sg42
S'Ref'
p2082
sg74
S'71'
p2083
sg40
S'db.ref'
p2084
stRp2085
sS'server'
p2086
g3
(g4
g5
(dp2087
g7
S'id'
p2088
sg9
g3
(g10
g11
(lp2089
g3
(g4
g5
(dp2090
g14
S''
sg15
g16
sg17
g16
sg18
S''
sg19
S''
sg20
g21
sg22
g23
stRp2091
ag3
(g4
g5
(dp2092
g14
S''
sg17
g26
sg18
S''
sg20
g27
sg19
S''
sg15
g26
sg28
Nsg22
g29
stRp2093
ag3
(g4
g5
(dp2094
g14
S''
sg17
g32
sg18
S''
sg20
g21
sg19
S''
sg15
g32
sg28
Nsg22
g33
stRp2095
ag3
(g4
g5
(dp2096
g14
S''
sg17
g36
sg18
S''
sg20
g27
sg19
S''
sg15
g36
sg28
Nsg22
g37
stRp2097
ag3
(g4
g5
(dp2098
g14
S''
sg40
S'id'
p2099
sg18
S''
sg42
S'Key'
p2100
sg19
S''
sg15
g2099
sg28
Nsg44
S'The server identifier'
p2101
stRp2102
ag3
(g4
g5
(dp2103
g14
S''
sg40
S'type'
p2104
sg18
S''
sg42
S'ServerType'
p2105
sg19
S''
sg15
g2104
sg28
Nsg44
S'The server type: server/broker/proxy'
p2106
stRp2107
ag3
(g4
g5
(dp2108
g14
S''
sg40
S'name'
p2109
sg18
S''
sg42
S'Text'
p2110
sg19
S''
sg15
g2109
sg28
Nsg44
S'The P4NAME used by this server'
p2111
stRp2112
ag3
(g4
g5
(dp2113
g14
S''
sg40
S'address'
p2114
sg18
S''
sg42
S'Text'
p2115
sg19
S''
sg15
g2114
sg28
Nsg44
S'The P4PORT used by this server'
p2116
stRp2117
ag3
(g4
g5
(dp2118
g14
S''
sg40
S'externalAddress'
p2119
sg18
S''
sg42
S'Text'
p2120
sg19
S''
sg15
g2119
sg28
Nsg44
S'For an edge server, this optional field contains its external address for connections from the commit server. This field is required for federated parallel submit.'
p2121
stRp2122
ag3
(g4
g5
(dp2123
g14
S''
sg40
S'services'
p2124
sg18
S''
sg42
S'ServerServiceType'
p2125
sg19
S''
sg15
g2124
sg28
Nsg44
S'Service provided by this server'
p2126
stRp2127
ag3
(g4
g5
(dp2128
g14
S''
sg40
S'desc'
p2129
sg18
S''
sg42
S'Text'
p2130
sg19
S''
sg15
g2129
sg28
Nsg44
S'Server description'
p2131
stRp2132
ag3
(g4
g5
(dp2133
g14
S''
sg40
S'user'
p2134
sg18
S''
sg42
S'User'
p2135
sg19
S''
sg15
g2134
sg28
Nsg44
S'The service user used by this server'
p2136
stRp2137
ag3
(g4
g5
(dp2138
g14
S''
sg40
S'options'
p2139
sg18
S''
sg42
S'ServerOptionsType'
p2140
sg19
S''
sg15
g2139
sg28
Nsg44
S'Server options'
p2141
stRp2142
ag3
(g4
g5
(dp2143
g14
S''
sg40
S'rplFrom'
p2144
sg18
S''
sg42
S'Key'
p2145
sg19
S''
sg15
g2144
sg28
Nsg44
S'Replication from Server ID'
p2146
stRp2147
ag3
(g4
g5
(dp2148
g14
S''
sg40
S'failoverSeen'
p2149
sg18
S''
sg42
S'Text'
p2150
sg19
S''
sg15
g2149
sg28
Nsg44
S'Mark failover as seen'
p2151
stRp2152
atRp2153
sg68
g2086
sg69
S'3'
sg70
g71
sg44
S'Server specifications'
p2154
sg42
S'Server'
p2155
sg74
S'6'
sg40
S'db.server'
p2156
stRp2157
sS'property'
p2158
g3
(g4
g5
(dp2159
g7
S'name, seq, type, scope'
p2160
sg9
g3
(g10
g11
(lp2161
g3
(g4
g5
(dp2162
g14
S''
sg15
g16
sg17
g16
sg18
S''
sg19
S''
sg20
g21
sg22
g23
stRp2163
ag3
(g4
g5
(dp2164
g14
S''
sg17
g26
sg18
S''
sg20
g27
sg19
S''
sg15
g26
sg28
Nsg22
g29
stRp2165
ag3
(g4
g5
(dp2166
g14
S''
sg17
g32
sg18
S''
sg20
g21
sg19
S''
sg15
g32
sg28
Nsg22
g33
stRp2167
ag3
(g4
g5
(dp2168
g14
S''
sg17
g36
sg18
S''
sg20
g27
sg19
S''
sg15
g36
sg28
Nsg22
g37
stRp2169
ag3
(g4
g5
(dp2170
g14
S''
sg40
S'name'
p2171
sg18
S''
sg42
S'Key'
p2172
sg19
S''
sg15
g2171
sg28
Nsg44
S'The property name'
p2173
stRp2174
ag3
(g4
g5
(dp2175
g14
S''
sg40
S'seq'
p2176
sg18
S''
sg42
S'Int'
p2177
sg19
S''
sg15
g2176
sg28
Nsg44
S'Sequence number of property'
p2178
stRp2179
ag3
(g4
g5
(dp2180
g14
S''
sg40
S'type'
p2181
sg18
S''
sg42
S'UserType'
p2182
sg19
S''
sg15
g2181
sg28
Nsg44
S'Only uses 1=user or 2=group and only applies when scope is set'
p2183
stRp2184
ag3
(g4
g5
(dp2185
g14
S''
sg40
S'scope'
p2186
sg18
S''
sg42
S'User'
p2187
sg19
S''
sg15
g2186
sg28
Nsg44
S'The user or group the property applies to (may be empty)'
p2188
stRp2189
ag3
(g4
g5
(dp2190
g14
S''
sg40
S'value'
p2191
sg18
S''
sg42
S'Value'
p2192
sg19
S''
sg15
g2191
sg28
Nsg44
S'The property value'
p2193
stRp2194
ag3
(g4
g5
(dp2195
g14
S''
sg40
S'date'
p2196
sg18
S''
sg42
S'Date'
p2197
sg19
S''
sg15
g2196
sg28
Nsg44
S'The date/time the property was last updated'
p2198
stRp2199
ag3
(g4
g5
(dp2200
g14
S''
sg40
S'user'
p2201
sg18
S''
sg42
S'User'
p2202
sg19
S''
sg15
g2201
sg28
Nsg44
S'The user that last modified the property'
p2203
stRp2204
atRp2205
sg68
g2158
sg69
S'0'
sg70
g71
sg44
S'Properties'
p2206
sg42
S'Property'
p2207
sg74
S'94'
p2208
sg40
S'db.property'
p2209
stRp2210
sS'view'
p2211
g3
(g4
g5
(dp2212
g7
S'name, seq'
p2213
sg9
g3
(g10
g11
(lp2214
g3
(g4
g5
(dp2215
g14
S''
sg15
g16
sg17
g16
sg18
S''
sg19
S''
sg20
g21
sg22
g23
stRp2216
ag3
(g4
g5
(dp2217
g14
S''
sg17
g26
sg18
S''
sg20
g27
sg19
S''
sg15
g26
sg28
Nsg22
g29
stRp2218
ag3
(g4
g5
(dp2219
g14
S''
sg17
g32
sg18
S''
sg20
g21
sg19
S''
sg15
g32
sg28
Nsg22
g33
stRp2220
ag3
(g4
g5
(dp2221
g14
S''
sg17
g36
sg18
S''
sg20
g27
sg19
S''
sg15
g36
sg28
Nsg22
g37
stRp2222
ag3
(g4
g5
(dp2223
g14
S''
sg40
S'name'
p2224
sg18
S''
sg42
S'Domain'
p2225
sg19
S''
sg15
g2224
sg28
Nsg44
S'Domain name to which this view applies'
p2226
stRp2227
ag3
(g4
g5
(dp2228
g14
S''
sg40
S'seq'
p2229
sg18
S''
sg42
S'Int'
p2230
sg19
S''
sg15
g2229
sg28
Nsg44
S'Sequence number: for ordering multi-line views'
p2231
stRp2232
ag3
(g4
g5
(dp2233
g14
S''
sg40
S'mapFlag'
p2234
sg18
S''
sg42
S'MapFlag'
p2235
sg19
S''
sg15
g2234
sg28
Nsg44
S'Type of mapping'
p2236
stRp2237
ag3
(g4
g5
(dp2238
g14
S''
sg40
S'viewFile'
p2239
sg18
S''
sg42
S'Mapping'
p2240
sg19
S''
sg15
g2239
sg28
Nsg44
S"The right-hand-side of the view. For clients, this is\n\t\t    the client-side, for labels it's the generated label \n\t\t    view. For branches, it's the target side of the branch\n\t\t    view."
p2241
stRp2242
ag3
(g4
g5
(dp2243
g14
S''
sg40
S'depotFile'
p2244
sg18
S''
sg42
S'Mapping'
p2245
sg19
S''
sg15
g2244
sg28
Nsg44
S'The left-hand-side of the view - a mapping to file(s)\n\t\t    in the depot.'
p2246
stRp2247
atRp2248
sg68
g2211
sg69
S'1'
sg70
g71
sg44
S'View data for domain records'
p2249
sg42
S'View'
p2250
sg74
S'24'
p2251
sg40
S'db.view'
p2252
stRp2253
sS'user'
p2254
g3
(g4
g5
(dp2255
g7
S'user'
p2256
sg9
g3
(g10
g11
(lp2257
g3
(g4
g5
(dp2258
g14
S''
sg15
g16
sg17
g16
sg18
S''
sg19
S''
sg20
g21
sg22
g23
stRp2259
ag3
(g4
g5
(dp2260
g14
S''
sg17
g26
sg18
S''
sg20
g27
sg19
S''
sg15
g26
sg28
Nsg22
g29
stRp2261
ag3
(g4
g5
(dp2262
g14
S''
sg17
g32
sg18
S''
sg20
g21
sg19
S''
sg15
g32
sg28
Nsg22
g33
stRp2263
ag3
(g4
g5
(dp2264
g14
S''
sg17
g36
sg18
S''
sg20
g27
sg19
S''
sg15
g36
sg28
Nsg22
g37
stRp2265
ag3
(g4
g5
(dp2266
g14
S''
sg40
S'user'
p2267
sg18
S''
sg42
S'User'
p2268
sg19
S''
sg15
g2267
sg28
Nsg44
S'The username'
p2269
stRp2270
ag3
(g4
g5
(dp2271
g14
S''
sg40
S'email'
p2272
sg18
S''
sg42
S'Text'
p2273
sg19
S''
sg15
g2272
sg28
Nsg44
S"The user's email address"
p2274
stRp2275
ag3
(g4
g5
(dp2276
g14
S''
sg40
S'jobView'
p2277
sg18
S''
sg42
S'Text'
p2278
sg19
S''
sg15
g2277
sg28
Nsg44
S"The user's job view"
p2279
stRp2280
ag3
(g4
g5
(dp2281
g14
S''
sg40
S'updateDate'
p2282
sg18
S''
sg42
S'Date'
p2283
sg19
S''
sg15
g2282
sg28
Nsg44
S'The date/time the user record was last updated'
p2284
stRp2285
ag3
(g4
g5
(dp2286
g14
S''
sg40
S'accessDate'
p2287
sg18
S''
sg42
S'Date'
p2288
sg19
S''
sg15
g2287
sg28
Nsg44
S'The date/time the user record was last used'
p2289
stRp2290
ag3
(g4
g5
(dp2291
g14
S''
sg40
S'fullName'
p2292
sg18
S''
sg42
S'Text'
p2293
sg19
S''
sg15
g2292
sg28
Nsg44
S"The user's full name"
p2294
stRp2295
ag3
(g4
g5
(dp2296
g14
S''
sg40
S'password'
p2297
sg18
S''
sg42
S'Password'
p2298
sg19
S''
sg15
g2297
sg28
Nsg44
S'The MD5 hash of the users (encrypted) password'
p2299
stRp2300
ag3
(g4
g5
(dp2301
g14
S''
sg40
S'strength'
p2302
sg18
S''
sg42
S'Strength'
p2303
sg19
S''
sg15
g2302
sg28
Nsg44
S"Measure of the strength of the user's password"
p2304
stRp2305
ag3
(g4
g5
(dp2306
g14
S''
sg40
S'ticket'
p2307
sg18
S''
sg42
S'Password'
p2308
sg19
S''
sg15
g2307
sg28
Nsg44
S"'p4 login' ticket for this user"
p2309
stRp2310
ag3
(g4
g5
(dp2311
g14
S''
sg40
S'endDate'
p2312
sg18
S''
sg42
S'Date'
p2313
sg19
S''
sg15
g2312
sg28
Nsg44
S"Date/time the user's ticket expires"
p2314
stRp2315
ag3
(g4
g5
(dp2316
g14
S''
sg40
S'type'
p2317
sg18
S''
sg42
S'UserLevel'
p2318
sg19
S''
sg15
g2317
sg28
Nsg44
S'Type of user'
p2319
stRp2320
ag3
(g4
g5
(dp2321
g14
S''
sg40
S'passDate'
p2322
sg18
S''
sg42
S'Date'
p2323
sg19
S''
sg15
g2322
sg28
Nsg44
S'Date password was last changed'
p2324
stRp2325
ag3
(g4
g5
(dp2326
g14
S''
sg40
S'passExpire'
p2327
sg18
S''
sg42
S'Date'
p2328
sg19
S''
sg15
g2327
sg28
Nsg44
S'Date of password expiration'
p2329
stRp2330
ag3
(g4
g5
(dp2331
g14
S''
sg40
S'attempts'
p2332
sg18
S''
sg42
S'Date'
p2333
sg19
S''
sg15
g2332
sg28
Nsg44
S'Failed login attempts'
p2334
stRp2335
ag3
(g4
g5
(dp2336
g14
S''
sg40
S'auth'
p2337
sg18
S''
sg42
S'UserAuthType'
p2338
sg19
S''
sg15
g2337
sg28
Nsg44
S'Authentication method (AuthMethod) for the user'
p2339
stRp2340
atRp2341
sg68
g2254
sg69
S'7'
sg70
g71
sg44
S'User specifications'
p2342
sg42
S'User'
p2343
sg74
S'12'
p2344
sg40
S'db.user'
p2345
stRp2346
sS'domain'
p2347
g3
(g4
g5
(dp2348
g7
S'name'
p2349
sg9
g3
(g10
g11
(lp2350
g3
(g4
g5
(dp2351
g14
S''
sg15
g16
sg17
g16
sg18
S''
sg19
S''
sg20
g21
sg22
g23
stRp2352
ag3
(g4
g5
(dp2353
g14
S''
sg17
g26
sg18
S''
sg20
g27
sg19
S''
sg15
g26
sg28
Nsg22
g29
stRp2354
ag3
(g4
g5
(dp2355
g14
S''
sg17
g32
sg18
S''
sg20
g21
sg19
S''
sg15
g32
sg28
Nsg22
g33
stRp2356
ag3
(g4
g5
(dp2357
g14
S''
sg17
g36
sg18
S''
sg20
g27
sg19
S''
sg15
g36
sg28
Nsg22
g37
stRp2358
ag3
(g4
g5
(dp2359
g14
S''
sg40
S'name'
p2360
sg18
S''
sg42
S'Domain'
p2361
sg19
S''
sg15
g2360
sg28
Nsg44
S'Domain name'
p2362
stRp2363
ag3
(g4
g5
(dp2364
g14
S''
sg40
S'type'
p2365
sg18
S''
sg42
S'DomainType'
p2366
sg19
S''
sg15
g2365
sg28
Nsg44
S'Type of domain'
p2367
stRp2368
ag3
(g4
g5
(dp2369
g14
S''
sg40
S'extra'
p2370
sg18
S''
sg42
S'Text'
p2371
sg19
S''
sg15
g2370
sg28
Nsg44
S'Formerly "host". Associated host or, for labels, revision \n\t\t    number.'
p2372
stRp2373
ag3
(g4
g5
(dp2374
g14
S''
sg40
S'mount'
p2375
sg18
S''
sg42
S'Text'
p2376
sg19
S''
sg15
g2375
sg28
Nsg44
S'The client root'
p2377
stRp2378
ag3
(g4
g5
(dp2379
g14
S''
sg40
S'mount2'
p2380
sg18
S''
sg42
S'Text'
p2381
sg19
S''
sg15
g2380
sg28
Nsg44
S'Alternate client root'
p2382
stRp2383
ag3
(g4
g5
(dp2384
g14
S''
sg40
S'mount3'
p2385
sg18
S''
sg42
S'Text'
p2386
sg19
S''
sg15
g2385
sg28
Nsg44
S'Alternate client root'
p2387
stRp2388
ag3
(g4
g5
(dp2389
g14
S''
sg40
S'owner'
p2390
sg18
S''
sg42
S'User'
p2391
sg19
S''
sg15
g2390
sg28
Nsg44
S'Name of user who owns the domain.'
p2392
stRp2393
ag3
(g4
g5
(dp2394
g14
S''
sg40
S'updateDate'
p2395
sg18
S''
sg42
S'Date'
p2396
sg19
S''
sg15
g2395
sg28
Nsg44
S'Date of last update to domain specification.'
p2397
stRp2398
ag3
(g4
g5
(dp2399
g14
S''
sg40
S'accessDate'
p2400
sg18
S''
sg42
S'Date'
p2401
sg19
S''
sg15
g2400
sg28
Nsg44
S'Date of last access to domain specification.'
p2402
stRp2403
ag3
(g4
g5
(dp2404
g14
S''
sg40
S'options'
p2405
sg18
S''
sg42
S'DomainOpts'
p2406
sg19
S''
sg15
g2405
sg28
Nsg44
S'Options for client, label, and branch domains.'
p2407
stRp2408
ag3
(g4
g5
(dp2409
g14
S''
sg40
S'description'
p2410
sg18
S''
sg42
S'Text'
p2411
sg19
S''
sg15
g2410
sg28
Nsg44
S'Description of domain.'
p2412
stRp2413
ag3
(g4
g5
(dp2414
g14
S''
sg40
S'stream'
p2415
sg18
S''
sg42
S'Domain'
p2416
sg19
S''
sg15
g2415
sg28
Nsg44
S'Associated stream for client records'
p2417
stRp2418
ag3
(g4
g5
(dp2419
g14
S''
sg40
S'serverId'
p2420
sg18
S''
sg42
S'Key'
p2421
sg19
S''
sg15
g2420
sg28
Nsg44
S'Associated server ID for client records'
p2422
stRp2423
ag3
(g4
g5
(dp2424
g14
S''
sg40
S'contents'
p2425
sg18
S''
sg42
S'Int'
p2426
sg19
S''
sg15
g2425
sg28
Nsg44
S'Client domain contents. 1: Maps only classic depot files, 2: Maps only graph depot files, 3: Maps both classic and graph depot files'
p2427
stRp2428
atRp2429
sg68
g2347
sg69
S'7'
sg70
g71
sg44
S'Domains: depots, clients, labels, branches, streams, and typemap'
p2430
sg42
S'Domain'
p2431
sg74
S'19'
p2432
sg40
S'db.domain'
p2433
stRp2434
sS'stream'
p2435
g3
(g4
g5
(dp2436
g7
S'stream'
p2437
sg9
g3
(g10
g11
(lp2438
g3
(g4
g5
(dp2439
g14
S''
sg15
g16
sg17
g16
sg18
S''
sg19
S''
sg20
g21
sg22
g23
stRp2440
ag3
(g4
g5
(dp2441
g14
S''
sg17
g26
sg18
S''
sg20
g27
sg19
S''
sg15
g26
sg28
Nsg22
g29
stRp2442
ag3
(g4
g5
(dp2443
g14
S''
sg17
g32
sg18
S''
sg20
g21
sg19
S''
sg15
g32
sg28
Nsg22
g33
stRp2444
ag3
(g4
g5
(dp2445
g14
S''
sg17
g36
sg18
S''
sg20
g27
sg19
S''
sg15
g36
sg28
Nsg22
g37
stRp2446
ag3
(g4
g5
(dp2447
g14
S''
sg40
S'stream'
p2448
sg18
S''
sg42
S'Domain'
p2449
sg19
S''
sg15
g2448
sg28
Nsg44
S'Stream name'
p2450
stRp2451
ag3
(g4
g5
(dp2452
g14
S''
sg40
S'parent'
p2453
sg18
S''
sg42
S'Domain'
p2454
sg19
S''
sg15
g2453
sg28
Nsg44
S'Parent stream name'
p2455
stRp2456
ag3
(g4
g5
(dp2457
g14
S''
sg40
S'title'
p2458
sg18
S''
sg42
S'Text'
p2459
sg19
S''
sg15
g2458
sg28
Nsg44
S'Stream title (alias for the stream name)'
p2460
stRp2461
ag3
(g4
g5
(dp2462
g14
S''
sg40
S'type'
p2463
sg18
S''
sg42
S'StreamType'
p2464
sg19
S''
sg15
g2463
sg28
Nsg44
S'The type of stream'
p2465
stRp2466
ag3
(g4
g5
(dp2467
g14
S''
sg40
S'preview'
p2468
sg18
S''
sg42
S'Date'
p2469
sg19
S''
sg15
g2468
sg28
Nsg44
S'Stream template modification time'
p2470
stRp2471
ag3
(g4
g5
(dp2472
g14
S''
sg40
S'change'
p2473
sg18
S''
sg42
S'Change'
p2474
sg19
S''
sg15
g2473
sg28
Nsg44
S'Last submit to stream'
p2475
stRp2476
ag3
(g4
g5
(dp2477
g14
S''
sg40
S'copyChange'
p2478
sg18
S''
sg42
S'Change'
p2479
sg19
S''
sg15
g2478
sg28
Nsg44
S'Parent change at last copy'
p2480
stRp2481
ag3
(g4
g5
(dp2482
g14
S''
sg40
S'mergeChange'
p2483
sg18
S''
sg42
S'Change'
p2484
sg19
S''
sg15
g2483
sg28
Nsg44
S'Parent change at last merge'
p2485
stRp2486
ag3
(g4
g5
(dp2487
g14
S''
sg40
S'highChange'
p2488
sg18
S''
sg42
S'Change'
p2489
sg19
S''
sg15
g2488
sg28
Nsg44
S'Highest change at last merge'
p2490
stRp2491
ag3
(g4
g5
(dp2492
g14
S''
sg40
S'hash'
p2493
sg18
S''
sg42
S'Int'
p2494
sg19
S''
sg15
g2493
sg28
Nsg44
S'Hash value of dynamic branch'
p2495
stRp2496
ag3
(g4
g5
(dp2497
g14
S''
sg40
S'status'
p2498
sg18
S''
sg42
S'StreamStatus'
p2499
sg19
S''
sg15
g2498
sg28
Nsg44
S'Flow status'
p2500
stRp2501
atRp2502
sg68
g2435
sg69
S'1'
sg70
g71
sg44
S'Stream specifications'
p2503
sg42
S'Stream'
p2504
sg74
S'18'
p2505
sg40
S'db.stream'
p2506
stRp2507
sS'sendq'
p2508
g3
(g4
g5
(dp2509
g7
S'taskid, seq'
p2510
sg9
g3
(g10
g11
(lp2511
g3
(g4
g5
(dp2512
g14
S''
sg15
g16
sg17
g16
sg18
S''
sg19
S''
sg20
g21
sg22
g23
stRp2513
ag3
(g4
g5
(dp2514
g14
S''
sg17
g26
sg18
S''
sg20
g27
sg19
S''
sg15
g26
sg28
Nsg22
g29
stRp2515
ag3
(g4
g5
(dp2516
g14
S''
sg17
g32
sg18
S''
sg20
g21
sg19
S''
sg15
g32
sg28
Nsg22
g33
stRp2517
ag3
(g4
g5
(dp2518
g14
S''
sg17
g36
sg18
S''
sg20
g27
sg19
S''
sg15
g36
sg28
Nsg22
g37
stRp2519
ag3
(g4
g5
(dp2520
g14
S''
sg40
S'taskid'
p2521
sg18
S''
sg42
S'Int'
p2522
sg19
S''
sg15
g2521
sg28
Nsg44
S'The process id (PID) of the sync'
p2523
stRp2524
ag3
(g4
g5
(dp2525
g14
S''
sg40
S'seq'
p2526
sg18
S''
sg42
S'Int'
p2527
sg19
S''
sg15
g2526
sg28
Nsg44
S'Sequence number'
p2528
stRp2529
ag3
(g4
g5
(dp2530
g14
S''
sg40
S'handle'
p2531
sg18
S''
sg42
S'Text'
p2532
sg19
S''
sg15
g2531
sg28
Nsg44
S'Handle'
p2533
stRp2534
ag3
(g4
g5
(dp2535
g14
S''
sg40
S'depotFile'
p2536
sg18
S''
sg42
S'File'
p2537
sg19
S''
sg15
g2536
sg28
Nsg44
S'The file in the depot'
p2538
stRp2539
ag3
(g4
g5
(dp2540
g14
S''
sg40
S'clientFile'
p2541
sg18
S''
sg42
S'File'
p2542
sg19
S''
sg15
g2541
sg28
Nsg44
S'The file in its location on the client'
p2543
stRp2544
ag3
(g4
g5
(dp2545
g14
S''
sg40
S'haveRev'
p2546
sg18
S''
sg42
S'Rev'
p2547
sg19
S''
sg15
g2546
sg28
Nsg44
S'Have revision'
p2548
stRp2549
ag3
(g4
g5
(dp2550
g14
S''
sg40
S'type'
p2551
sg18
S''
sg42
S'FileType'
p2552
sg19
S''
sg15
g2551
sg28
Nsg44
S'File type'
p2553
stRp2554
ag3
(g4
g5
(dp2555
g14
S''
sg40
S'modtime'
p2556
sg18
S''
sg42
S'Date'
p2557
sg19
S''
sg15
g2556
sg28
Nsg44
S'Modification time'
p2558
stRp2559
ag3
(g4
g5
(dp2560
g14
S''
sg40
S'digest'
p2561
sg18
S''
sg42
S'Digest'
p2562
sg19
S''
sg15
g2561
sg28
Nsg44
S'The MD5 digest of the revision'
p2563
stRp2564
ag3
(g4
g5
(dp2565
g14
S''
sg40
S'size'
p2566
sg18
S''
sg42
S'FileSize'
p2567
sg19
S''
sg15
g2566
sg28
Nsg44
S'The size of the file in bytes'
p2568
stRp2569
ag3
(g4
g5
(dp2570
g14
S''
sg40
S'lbrFile'
p2571
sg18
S''
sg42
S'File'
p2572
sg19
S''
sg15
g2571
sg28
Nsg44
S'Librarian filename'
p2573
stRp2574
ag3
(g4
g5
(dp2575
g14
S''
sg40
S'lbrRev'
p2576
sg18
S''
sg42
S'String'
p2577
sg19
S''
sg15
g2576
sg28
Nsg44
S'The librarian revision number'
p2578
stRp2579
ag3
(g4
g5
(dp2580
g14
S''
sg40
S'lbrType'
p2581
sg18
S''
sg42
S'FileType'
p2582
sg19
S''
sg15
g2581
sg28
Nsg44
S'The file type of the librarian revision'
p2583
stRp2584
ag3
(g4
g5
(dp2585
g14
S''
sg40
S'flags'
p2586
sg18
S''
sg42
S'Int'
p2587
sg19
S''
sg15
g2586
sg28
Nsg44
S'Miscellaneous flags'
p2588
stRp2589
ag3
(g4
g5
(dp2590
g14
S''
sg40
S'clientType'
p2591
sg18
S''
sg42
S'FileType'
p2592
sg19
S''
sg15
g2591
sg28
Nsg44
S'The client file type of the revision'
p2593
stRp2594
ag3
(g4
g5
(dp2595
g14
S''
sg40
S'depotRev'
p2596
sg18
S''
sg42
S'Rev'
p2597
sg19
S''
sg15
g2596
sg28
Nsg44
S'The revision number of depotFile'
p2598
stRp2599
ag3
(g4
g5
(dp2600
g14
S''
sg40
S'change'
p2601
sg18
S''
sg42
S'Change'
p2602
sg19
S''
sg15
g2601
sg28
Nsg44
S'The changelist that created the depotRev of depotFile'
p2603
stRp2604
ag3
(g4
g5
(dp2605
g14
S''
sg40
S'date'
p2606
sg18
S''
sg42
S'Date'
p2607
sg19
S''
sg15
g2606
sg28
Nsg44
S'The date/time when the changelist that created depotRev of depotFile was submitted'
p2608
stRp2609
ag3
(g4
g5
(dp2610
g14
S''
sg40
S'blobSha'
p2611
sg18
S''
sg42
S'SHA1'
p2612
sg19
S''
sg15
g2611
sg28
Nsg44
S'The Blob SHA'
p2613
stRp2614
ag3
(g4
g5
(dp2615
g14
S''
sg40
S'repoSlot'
p2616
sg18
S''
sg42
S'Int'
p2617
sg19
S''
sg15
g2616
sg28
Nsg44
S'The repo slot (internal repo ordering)'
p2618
stRp2619
ag3
(g4
g5
(dp2620
g14
S''
sg40
S'shelveDigest'
p2621
sg18
S''
sg42
S'Digest'
p2622
sg19
S''
sg15
g2621
sg28
Nsg44
S'Digest of previous shelved revision'
p2623
stRp2624
atRp2625
sg68
g2508
sg69
S'4'
sg70
g71
sg44
S'Parallel file transmission work queue'
p2626
sg42
S'SendQ'
p2627
sg74
S'96'
p2628
sg40
S'db.sendq'
p2629
stRp2630
sS'revstg'
p2631
g3
(g4
g5
(dp2632
g7
S'depotFile, depotRev'
p2633
sg9
g3
(g10
g11
(lp2634
g3
(g4
g5
(dp2635
g14
S''
sg15
g16
sg17
g16
sg18
S''
sg19
S''
sg20
g21
sg22
g23
stRp2636
ag3
(g4
g5
(dp2637
g14
S''
sg17
g26
sg18
S''
sg20
g27
sg19
S''
sg15
g26
sg28
Nsg22
g29
stRp2638
ag3
(g4
g5
(dp2639
g14
S''
sg17
g32
sg18
S''
sg20
g21
sg19
S''
sg15
g32
sg28
Nsg22
g33
stRp2640
ag3
(g4
g5
(dp2641
g14
S''
sg17
g36
sg18
S''
sg20
g27
sg19
S''
sg15
g36
sg28
Nsg22
g37
stRp2642
ag3
(g4
g5
(dp2643
g14
S''
sg40
g90
sg18
S''
sg42
g91
sg19
S''
sg15
g90
sg28
Nsg44
g92
stRp2644
ag3
(g4
g5
(dp2645
g14
S''
sg40
g95
sg18
S''
sg42
g96
sg19
S''
sg15
g95
sg28
Nsg44
g97
stRp2646
ag3
(g4
g5
(dp2647
g14
S''
sg40
g100
sg18
S''
sg42
g101
sg19
S''
sg15
g100
sg28
Nsg44
g102
stRp2648
ag3
(g4
g5
(dp2649
g14
S''
sg40
g105
sg18
S''
sg42
g106
sg19
S''
sg15
g105
sg28
Nsg44
g107
stRp2650
ag3
(g4
g5
(dp2651
g14
S''
sg40
g110
sg18
S''
sg42
g111
sg19
S''
sg15
g110
sg28
Nsg44
g112
stRp2652
ag3
(g4
g5
(dp2653
g14
S''
sg40
g115
sg18
S''
sg42
g116
sg19
S''
sg15
g115
sg28
Nsg44
g117
stRp2654
ag3
(g4
g5
(dp2655
g14
S''
sg40
g120
sg18
S''
sg42
g121
sg19
S''
sg15
g120
sg28
Nsg44
g122
stRp2656
ag3
(g4
g5
(dp2657
g14
S''
sg40
g125
sg18
S''
sg42
g126
sg19
S''
sg15
g125
sg28
Nsg44
g127
stRp2658
ag3
(g4
g5
(dp2659
g14
S''
sg40
g130
sg18
S''
sg42
g131
sg19
S''
sg15
g130
sg28
Nsg44
g132
stRp2660
ag3
(g4
g5
(dp2661
g14
S''
sg40
g135
sg18
S''
sg42
g136
sg19
S''
sg15
g135
sg28
Nsg44
g137
stRp2662
ag3
(g4
g5
(dp2663
g14
S''
sg40
g140
sg18
S''
sg42
g141
sg19
S''
sg15
g140
sg28
Nsg44
g142
stRp2664
ag3
(g4
g5
(dp2665
g14
S''
sg40
g145
sg18
S''
sg42
g146
sg19
S''
sg15
g145
sg28
Nsg44
g147
stRp2666
ag3
(g4
g5
(dp2667
g14
S''
sg40
g150
sg18
S''
sg42
g151
sg19
S''
sg15
g150
sg28
Nsg44
g152
stRp2668
ag3
(g4
g5
(dp2669
g14
S''
sg40
g155
sg18
S''
sg42
g156
sg19
S''
sg15
g155
sg28
Nsg44
g157
stRp2670
atRp2671
sg68
g2631
sg69
S'9'
sg70
g71
sg44
S'Temporary revision records for storage upgrade process'
p2672
sg42
S'Rev'
p2673
sg74
S'53'
p2674
sg40
S'db.revstg'
p2675
stRp2676
sS'locks'
p2677
g3
(g4
g5
(dp2678
g7
S'depotFile, client'
p2679
sg9
g3
(g10
g11
(lp2680
g3
(g4
g5
(dp2681
g14
S''
sg15
g16
sg17
g16
sg18
S''
sg19
S''
sg20
g21
sg22
g23
stRp2682
ag3
(g4
g5
(dp2683
g14
S''
sg17
g26
sg18
S''
sg20
g27
sg19
S''
sg15
g26
sg28
Nsg22
g29
stRp2684
ag3
(g4
g5
(dp2685
g14
S''
sg17
g32
sg18
S''
sg20
g21
sg19
S''
sg15
g32
sg28
Nsg22
g33
stRp2686
ag3
(g4
g5
(dp2687
g14
S''
sg17
g36
sg18
S''
sg20
g27
sg19
S''
sg15
g36
sg28
Nsg22
g37
stRp2688
ag3
(g4
g5
(dp2689
g14
S''
sg40
S'depotFile'
p2690
sg18
S''
sg42
S'File'
p2691
sg19
S''
sg15
g2690
sg28
Nsg44
S'File in depot'
p2692
stRp2693
ag3
(g4
g5
(dp2694
g14
S''
sg40
S'client'
p2695
sg18
S''
sg42
S'Domain'
p2696
sg19
S''
sg15
g2695
sg28
Nsg44
S'Domain (client) in which file is open'
p2697
stRp2698
ag3
(g4
g5
(dp2699
g14
S''
sg40
S'user'
p2700
sg18
S''
sg42
S'User'
p2701
sg19
S''
sg15
g2700
sg28
Nsg44
S'User who presently has the file open'
p2702
stRp2703
ag3
(g4
g5
(dp2704
g14
S''
sg40
S'action'
p2705
sg18
S''
sg42
S'Action'
p2706
sg19
S''
sg15
g2705
sg28
Nsg44
S'Action file is open for: add, edit, delete, branch,\n\t\t    integrate, or import'
p2707
stRp2708
ag3
(g4
g5
(dp2709
g14
S''
sg40
S'isLocked'
p2710
sg18
S''
sg42
S'Int'
p2711
sg19
S''
sg15
g2710
sg28
Nsg44
S'Flag: 0 for unlocked, 1 for locked'
p2712
stRp2713
ag3
(g4
g5
(dp2714
g14
S''
sg40
S'change'
p2715
sg18
S''
sg42
S'Change'
p2716
sg19
S''
sg15
g2715
sg28
Nsg44
S'Changelist in which the revision is open: 0 for the\n\t\t    default changelist'
p2717
stRp2718
atRp2719
sg68
g2677
sg69
S'2'
sg70
g71
sg44
S'Locked/Unlocked files'
p2720
sg42
S'Locks'
p2721
sg74
S'54'
p2722
sg40
S'db.locks'
p2723
stRp2724
sS'pdblbr'
p2725
g3
(g4
g5
(dp2726
g7
S'file, rev'
p2727
sg9
g3
(g10
g11
(lp2728
g3
(g4
g5
(dp2729
g14
S''
sg15
g16
sg17
g16
sg18
S''
sg19
S''
sg20
g21
sg22
g23
stRp2730
ag3
(g4
g5
(dp2731
g14
S''
sg17
g26
sg18
S''
sg20
g27
sg19
S''
sg15
g26
sg28
Nsg22
g29
stRp2732
ag3
(g4
g5
(dp2733
g14
S''
sg17
g32
sg18
S''
sg20
g21
sg19
S''
sg15
g32
sg28
Nsg22
g33
stRp2734
ag3
(g4
g5
(dp2735
g14
S''
sg17
g36
sg18
S''
sg20
g27
sg19
S''
sg15
g36
sg28
Nsg22
g37
stRp2736
ag3
(g4
g5
(dp2737
g14
S''
sg40
S'file'
p2738
sg18
S''
sg42
S'File'
p2739
sg19
S''
sg15
g2738
sg28
Nsg44
S'The file name'
p2740
stRp2741
ag3
(g4
g5
(dp2742
g14
S''
sg40
S'rev'
p2743
sg18
S''
sg42
S'String'
p2744
sg19
S''
sg15
g2743
sg28
Nsg44
S'The librarian revision'
p2745
stRp2746
ag3
(g4
g5
(dp2747
g14
S''
sg40
S'type'
p2748
sg18
S''
sg42
S'FileType'
p2749
sg19
S''
sg15
g2748
sg28
Nsg44
S'The file type of the revision'
p2750
stRp2751
ag3
(g4
g5
(dp2752
g14
S''
sg40
S'status'
p2753
sg18
S''
sg42
S'PullStatus'
p2754
sg19
S''
sg15
g2753
sg28
Nsg44
S'The status of the archive transfer'
p2755
stRp2756
ag3
(g4
g5
(dp2757
g14
S''
sg40
S'who'
p2758
sg18
S''
sg42
S'Int'
p2759
sg19
S''
sg15
g2758
sg28
Nsg44
S'The process / thread id ID of the pull process'
p2760
stRp2761
ag3
(g4
g5
(dp2762
g14
S''
sg40
S'when'
p2763
sg18
S''
sg42
S'Int'
p2764
sg19
S''
sg15
g2763
sg28
Nsg44
S'The timestamp from when the transfer was scheduled'
p2765
stRp2766
ag3
(g4
g5
(dp2767
g14
S''
sg40
S'action'
p2768
sg18
S''
sg42
S'Action'
p2769
sg19
S''
sg15
g2768
sg28
Nsg44
S'The action that created the revision'
p2770
stRp2771
ag3
(g4
g5
(dp2772
g14
S''
sg40
S'digest'
p2773
sg18
S''
sg42
S'Digest'
p2774
sg19
S''
sg15
g2773
sg28
Nsg44
S'The MD5 digest of the revision'
p2775
stRp2776
ag3
(g4
g5
(dp2777
g14
S''
sg40
S'size'
p2778
sg18
S''
sg42
S'FileSize'
p2779
sg19
S''
sg15
g2778
sg28
Nsg44
S'The size of the file in bytes'
p2780
stRp2781
ag3
(g4
g5
(dp2782
g14
S''
sg40
S'retries'
p2783
sg18
S''
sg42
S'Int'
p2784
sg19
S''
sg15
g2783
sg28
Nsg44
S'Error retry count'
p2785
stRp2786
ag3
(g4
g5
(dp2787
g14
S''
sg40
S'errmsg'
p2788
sg18
S''
sg42
S'Octet String'
p2789
sg19
S''
sg15
g2788
sg28
Nsg44
S'Last Error Message'
p2790
stRp2791
ag3
(g4
g5
(dp2792
g14
S''
sg40
S'change'
p2793
sg18
S''
sg42
S'Change'
p2794
sg19
S''
sg15
g2793
sg28
Nsg44
S'The changelist that created the revision'
p2795
stRp2796
ag3
(g4
g5
(dp2797
g14
S''
sg40
S'date'
p2798
sg18
S''
sg42
S'Date'
p2799
sg19
S''
sg15
g2798
sg28
Nsg44
S'Librarian date'
p2800
stRp2801
ag3
(g4
g5
(dp2802
g14
S''
sg40
S'modTime'
p2803
sg18
S''
sg42
S'Date'
p2804
sg19
S''
sg15
g2803
sg28
Nsg44
S'Librarian modtime'
p2805
stRp2806
ag3
(g4
g5
(dp2807
g14
S''
sg40
S'origin'
p2808
sg18
S''
sg42
S'Int'
p2809
sg19
S''
sg15
g2808
sg28
Nsg44
S'The revision type that this transfer originates from:\n\t\t      1 = db.rev\n\t\t      2 = db.revsh\n\t\t      3 = db.revsx\n\t\t      4 = db.revux\n\t\t      5 = db.object'
p2810
stRp2811
ag3
(g4
g5
(dp2812
g14
S''
sg40
S'target'
p2813
sg18
S''
sg42
S'Text'
p2814
sg19
S''
sg15
g2813
sg28
Nsg44
S'Edge server to transfer from (reverse replication only)'
p2815
stRp2816
atRp2817
sg68
g2725
sg69
S'3'
sg70
g71
sg44
S'Proxy server pending archive transfer table'
p2818
sg42
S'ReplicaArchiveTransfer'
p2819
sg40
S'pdb.lbr'
p2820
stRp2821
sS'have'
p2822
g3
(g4
g5
(dp2823
g7
S'clientFile'
p2824
sg9
g3
(g10
g11
(lp2825
g3
(g4
g5
(dp2826
g14
S''
sg15
g16
sg17
g16
sg18
S''
sg19
S''
sg20
g21
sg22
g23
stRp2827
ag3
(g4
g5
(dp2828
g14
S''
sg17
g26
sg18
S''
sg20
g27
sg19
S''
sg15
g26
sg28
Nsg22
g29
stRp2829
ag3
(g4
g5
(dp2830
g14
S''
sg17
g32
sg18
S''
sg20
g21
sg19
S''
sg15
g32
sg28
Nsg22
g33
stRp2831
ag3
(g4
g5
(dp2832
g14
S''
sg17
g36
sg18
S''
sg20
g27
sg19
S''
sg15
g36
sg28
Nsg22
g37
stRp2833
ag3
(g4
g5
(dp2834
g14
S''
sg40
g514
sg18
S''
sg42
g515
sg19
S''
sg15
g514
sg28
Nsg44
g516
stRp2835
ag3
(g4
g5
(dp2836
g14
S''
sg40
g519
sg18
S''
sg42
g520
sg19
S''
sg15
g519
sg28
Nsg44
g521
stRp2837
ag3
(g4
g5
(dp2838
g14
S''
sg40
g524
sg18
S''
sg42
g525
sg19
S''
sg15
g524
sg28
Nsg44
g526
stRp2839
ag3
(g4
g5
(dp2840
g14
S''
sg40
g529
sg18
S''
sg42
g530
sg19
S''
sg15
g529
sg28
Nsg44
g531
stRp2841
ag3
(g4
g5
(dp2842
g14
S''
sg40
g534
sg18
S''
sg42
g535
sg19
S''
sg15
g534
sg28
Nsg44
g536
stRp2843
atRp2844
sg68
g2822
sg69
S'3'
sg70
g71
sg44
S"Contains the 'have-list' for all clients"
p2845
sg42
S'Have'
p2846
sg74
S'31'
p2847
sg40
S'db.have'
p2848
stRp2849
sS'graphindex'
p2850
g3
(g4
g5
(dp2851
g7
S'id, name, date, blobSha, commitSha'
p2852
sg9
g3
(g10
g11
(lp2853
g3
(g4
g5
(dp2854
g14
S''
sg15
g16
sg17
g16
sg18
S''
sg19
S''
sg20
g21
sg22
g23
stRp2855
ag3
(g4
g5
(dp2856
g14
S''
sg17
g26
sg18
S''
sg20
g27
sg19
S''
sg15
g26
sg28
Nsg22
g29
stRp2857
ag3
(g4
g5
(dp2858
g14
S''
sg17
g32
sg18
S''
sg20
g21
sg19
S''
sg15
g32
sg28
Nsg22
g33
stRp2859
ag3
(g4
g5
(dp2860
g14
S''
sg17
g36
sg18
S''
sg20
g27
sg19
S''
sg15
g36
sg28
Nsg22
g37
stRp2861
ag3
(g4
g5
(dp2862
g14
S''
sg40
S'id'
p2863
sg18
S''
sg42
S'Int'
p2864
sg19
S''
sg15
g2863
sg28
Nsg44
S'ID of repo index belongs to'
p2865
stRp2866
ag3
(g4
g5
(dp2867
g14
S''
sg40
S'name'
p2868
sg18
S''
sg42
S'File'
p2869
sg19
S''
sg15
g2868
sg28
Nsg44
S'File name (minus the repo name)'
p2870
stRp2871
ag3
(g4
g5
(dp2872
g14
S''
sg40
S'date'
p2873
sg18
S''
sg42
S'Date'
p2874
sg19
S''
sg15
g2873
sg28
Nsg44
S'Descending historical commit sequence'
p2875
stRp2876
ag3
(g4
g5
(dp2877
g14
S''
sg40
S'blobSha'
p2878
sg18
S''
sg42
S'SHA1'
p2879
sg19
S''
sg15
g2878
sg28
Nsg44
S'SHA of blob'
p2880
stRp2881
ag3
(g4
g5
(dp2882
g14
S''
sg40
S'commitSha'
p2883
sg18
S''
sg42
S'SHA1'
p2884
sg19
S''
sg15
g2883
sg28
Nsg44
S'SHA of commit that added/edited this file'
p2885
stRp2886
ag3
(g4
g5
(dp2887
g14
S''
sg40
S'flags'
p2888
sg18
S''
sg42
S'Int'
p2889
sg19
S''
sg15
g2888
sg28
Nsg44
S'Miscellaneous flags'
p2890
stRp2891
ag3
(g4
g5
(dp2892
g14
S''
sg40
S'size'
p2893
sg18
S''
sg42
S'FileSize'
p2894
sg19
S''
sg15
g2893
sg28
Nsg44
S'The size of the file (or target LFS file)'
p2895
stRp2896
ag3
(g4
g5
(dp2897
g14
S''
sg40
S'type'
p2898
sg18
S''
sg42
S'FileType'
p2899
sg19
S''
sg15
g2898
sg28
Nsg44
S'The filetype of the graph file'
p2900
stRp2901
ag3
(g4
g5
(dp2902
g14
S''
sg40
S'lfsoid'
p2903
sg18
S''
sg42
S'Text'
p2904
sg19
S''
sg15
g2903
sg28
Nsg44
S'LFS Object ID'
p2905
stRp2906
atRp2907
sg68
g2850
sg69
S'1'
sg70
g71
sg44
S'Graph depot repository index data'
p2908
sg42
S'GraphIndex'
p2909
sg74
S'73'
p2910
sg40
S'db.graphindex'
p2911
stRp2912
sS'revcx'
p2913
g3
(g4
g5
(dp2914
g7
S'change, depotFile'
p2915
sg9
g3
(g10
g11
(lp2916
g3
(g4
g5
(dp2917
g14
S''
sg15
g16
sg17
g16
sg18
S''
sg19
S''
sg20
g21
sg22
g23
stRp2918
ag3
(g4
g5
(dp2919
g14
S''
sg17
g26
sg18
S''
sg20
g27
sg19
S''
sg15
g26
sg28
Nsg22
g29
stRp2920
ag3
(g4
g5
(dp2921
g14
S''
sg17
g32
sg18
S''
sg20
g21
sg19
S''
sg15
g32
sg28
Nsg22
g33
stRp2922
ag3
(g4
g5
(dp2923
g14
S''
sg17
g36
sg18
S''
sg20
g27
sg19
S''
sg15
g36
sg28
Nsg22
g37
stRp2924
ag3
(g4
g5
(dp2925
g14
S''
sg40
S'change'
p2926
sg18
S''
sg42
S'Change'
p2927
sg19
S''
sg15
g2926
sg28
Nsg44
S'The changelist that created the revision'
p2928
stRp2929
ag3
(g4
g5
(dp2930
g14
S''
sg40
S'depotFile'
p2931
sg18
S''
sg42
S'File'
p2932
sg19
S''
sg15
g2931
sg28
Nsg44
S'The file name'
p2933
stRp2934
ag3
(g4
g5
(dp2935
g14
S''
sg40
S'depotRev'
p2936
sg18
S''
sg42
S'Rev'
p2937
sg19
S''
sg15
g2936
sg28
Nsg44
S'The revision number'
p2938
stRp2939
ag3
(g4
g5
(dp2940
g14
S''
sg40
S'action'
p2941
sg18
S''
sg42
S'Action'
p2942
sg19
S''
sg15
g2941
sg28
Nsg44
S'The action that created the revision'
p2943
stRp2944
atRp2945
sg68
g2913
sg69
S'0'
sg70
g71
sg44
S'Secondary index of db.rev'
p2946
sg42
S'RevCx'
p2947
sg74
S'50'
p2948
sg40
S'db.revcx'
p2949
stRp2950
sS'refhist'
p2951
g3
(g4
g5
(dp2952
g7
S'repo, type, name, date, action, user, ref'
p2953
sg9
g3
(g10
g11
(lp2954
g3
(g4
g5
(dp2955
g14
S''
sg15
g16
sg17
g16
sg18
S''
sg19
S''
sg20
g21
sg22
g23
stRp2956
ag3
(g4
g5
(dp2957
g14
S''
sg17
g26
sg18
S''
sg20
g27
sg19
S''
sg15
g26
sg28
Nsg22
g29
stRp2958
ag3
(g4
g5
(dp2959
g14
S''
sg17
g32
sg18
S''
sg20
g21
sg19
S''
sg15
g32
sg28
Nsg22
g33
stRp2960
ag3
(g4
g5
(dp2961
g14
S''
sg17
g36
sg18
S''
sg20
g27
sg19
S''
sg15
g36
sg28
Nsg22
g37
stRp2962
ag3
(g4
g5
(dp2963
g14
S''
sg40
S'repo'
p2964
sg18
S''
sg42
S'Key'
p2965
sg19
S''
sg15
g2964
sg28
Nsg44
S'Repository name'
p2966
stRp2967
ag3
(g4
g5
(dp2968
g14
S''
sg40
S'name'
p2969
sg18
S''
sg42
S'Key'
p2970
sg19
S''
sg15
g2969
sg28
Nsg44
S'Reference name'
p2971
stRp2972
ag3
(g4
g5
(dp2973
g14
S''
sg40
S'type'
p2974
sg18
S''
sg42
S'RefType'
p2975
sg19
S''
sg15
g2974
sg28
Nsg44
S'Reference type'
p2976
stRp2977
ag3
(g4
g5
(dp2978
g14
S''
sg40
S'action'
p2979
sg18
S''
sg42
S'RefAction'
p2980
sg19
S''
sg15
g2979
sg28
Nsg44
S'Reference action'
p2981
stRp2982
ag3
(g4
g5
(dp2983
g14
S''
sg40
S'date'
p2984
sg18
S''
sg42
S'Date'
p2985
sg19
S''
sg15
g2984
sg28
Nsg44
S'The date the reference was updated'
p2986
stRp2987
ag3
(g4
g5
(dp2988
g14
S''
sg40
S'user'
p2989
sg18
S''
sg42
S'User'
p2990
sg19
S''
sg15
g2989
sg28
Nsg44
S'The user who made the reference update'
p2991
stRp2992
ag3
(g4
g5
(dp2993
g14
S''
sg40
S'ref'
p2994
sg18
S''
sg42
S'SHA1'
p2995
sg19
S''
sg15
g2994
sg28
Nsg44
S'Encoded reference value'
p2996
stRp2997
ag3
(g4
g5
(dp2998
g14
S''
sg40
S'symref'
p2999
sg18
S''
sg42
S'Text'
p3000
sg19
S''
sg15
g2999
sg28
Nsg44
S'Symbolic reference'
p3001
stRp3002
atRp3003
sg68
g2951
sg69
S'0'
sg70
g71
sg44
S'Reference history for graph depots'
p3004
sg42
S'RefHist'
p3005
sg74
S'70'
p3006
sg40
S'db.refhist'
p3007
stRp3008
sS'rdblbr'
p3009
g3
(g4
g5
(dp3010
g7
S'file, rev'
p3011
sg9
g3
(g10
g11
(lp3012
g3
(g4
g5
(dp3013
g14
S''
sg15
g16
sg17
g16
sg18
S''
sg19
S''
sg20
g21
sg22
g23
stRp3014
ag3
(g4
g5
(dp3015
g14
S''
sg17
g26
sg18
S''
sg20
g27
sg19
S''
sg15
g26
sg28
Nsg22
g29
stRp3016
ag3
(g4
g5
(dp3017
g14
S''
sg17
g32
sg18
S''
sg20
g21
sg19
S''
sg15
g32
sg28
Nsg22
g33
stRp3018
ag3
(g4
g5
(dp3019
g14
S''
sg17
g36
sg18
S''
sg20
g27
sg19
S''
sg15
g36
sg28
Nsg22
g37
stRp3020
ag3
(g4
g5
(dp3021
g14
S''
sg40
g2738
sg18
S''
sg42
g2739
sg19
S''
sg15
g2738
sg28
Nsg44
g2740
stRp3022
ag3
(g4
g5
(dp3023
g14
S''
sg40
g2743
sg18
S''
sg42
g2744
sg19
S''
sg15
g2743
sg28
Nsg44
g2745
stRp3024
ag3
(g4
g5
(dp3025
g14
S''
sg40
g2748
sg18
S''
sg42
g2749
sg19
S''
sg15
g2748
sg28
Nsg44
g2750
stRp3026
ag3
(g4
g5
(dp3027
g14
S''
sg40
g2753
sg18
S''
sg42
g2754
sg19
S''
sg15
g2753
sg28
Nsg44
g2755
stRp3028
ag3
(g4
g5
(dp3029
g14
S''
sg40
g2758
sg18
S''
sg42
g2759
sg19
S''
sg15
g2758
sg28
Nsg44
g2760
stRp3030
ag3
(g4
g5
(dp3031
g14
S''
sg40
g2763
sg18
S''
sg42
g2764
sg19
S''
sg15
g2763
sg28
Nsg44
g2765
stRp3032
ag3
(g4
g5
(dp3033
g14
S''
sg40
g2768
sg18
S''
sg42
g2769
sg19
S''
sg15
g2768
sg28
Nsg44
g2770
stRp3034
ag3
(g4
g5
(dp3035
g14
S''
sg40
g2773
sg18
S''
sg42
g2774
sg19
S''
sg15
g2773
sg28
Nsg44
g2775
stRp3036
ag3
(g4
g5
(dp3037
g14
S''
sg40
g2778
sg18
S''
sg42
g2779
sg19
S''
sg15
g2778
sg28
Nsg44
g2780
stRp3038
ag3
(g4
g5
(dp3039
g14
S''
sg40
g2783
sg18
S''
sg42
g2784
sg19
S''
sg15
g2783
sg28
Nsg44
g2785
stRp3040
ag3
(g4
g5
(dp3041
g14
S''
sg40
g2788
sg18
S''
sg42
g2789
sg19
S''
sg15
g2788
sg28
Nsg44
g2790
stRp3042
ag3
(g4
g5
(dp3043
g14
S''
sg40
g2793
sg18
S''
sg42
g2794
sg19
S''
sg15
g2793
sg28
Nsg44
g2795
stRp3044
ag3
(g4
g5
(dp3045
g14
S''
sg40
g2798
sg18
S''
sg42
g2799
sg19
S''
sg15
g2798
sg28
Nsg44
g2800
stRp3046
ag3
(g4
g5
(dp3047
g14
S''
sg40
g2803
sg18
S''
sg42
g2804
sg19
S''
sg15
g2803
sg28
Nsg44
g2805
stRp3048
ag3
(g4
g5
(dp3049
g14
S''
sg40
g2808
sg18
S''
sg42
g2809
sg19
S''
sg15
g2808
sg28
Nsg44
g2810
stRp3050
ag3
(g4
g5
(dp3051
g14
S''
sg40
g2813
sg18
S''
sg42
g2814
sg19
S''
sg15
g2813
sg28
Nsg44
g2815
stRp3052
atRp3053
sg68
g3009
sg69
S'3'
sg70
g71
sg44
S'Replica server pending archive transfer table'
p3054
sg42
S'ReplicaArchiveTransfer'
p3055
sg40
S'rdb.lbr'
p3056
stRp3057
sS'bodresolve'
p3058
g3
(g4
g5
(dp3059
g7
S'type, client, toKey, attr, fromKey, fromChange'
p3060
sg9
g3
(g10
g11
(lp3061
g3
(g4
g5
(dp3062
g14
S''
sg15
g16
sg17
g16
sg18
S''
sg19
S''
sg20
g21
sg22
g23
stRp3063
ag3
(g4
g5
(dp3064
g14
S''
sg17
g26
sg18
S''
sg20
g27
sg19
S''
sg15
g26
sg28
Nsg22
g29
stRp3065
ag3
(g4
g5
(dp3066
g14
S''
sg17
g32
sg18
S''
sg20
g21
sg19
S''
sg15
g32
sg28
Nsg22
g33
stRp3067
ag3
(g4
g5
(dp3068
g14
S''
sg17
g36
sg18
S''
sg20
g27
sg19
S''
sg15
g36
sg28
Nsg22
g37
stRp3069
ag3
(g4
g5
(dp3070
g14
S''
sg40
S'type'
p3071
sg18
S''
sg42
S'SpecType'
p3072
sg19
S''
sg15
g3071
sg28
Nsg44
S'The spec type'
p3073
stRp3074
ag3
(g4
g5
(dp3075
g14
S''
sg40
S'client'
p3076
sg18
S''
sg42
S'Domain'
p3077
sg19
S''
sg15
g3076
sg28
Nsg44
S'The client name'
p3078
stRp3079
ag3
(g4
g5
(dp3080
g14
S''
sg40
S'toKey'
p3081
sg18
S''
sg42
S'Key'
p3082
sg19
S''
sg15
g3081
sg28
Nsg44
S'To Key'
p3083
stRp3084
ag3
(g4
g5
(dp3085
g14
S''
sg40
S'attr'
p3086
sg18
S''
sg42
S'Int'
p3087
sg19
S''
sg15
g3086
sg28
Nsg44
S'The attribute value'
p3088
stRp3089
ag3
(g4
g5
(dp3090
g14
S''
sg40
S'fromKey'
p3091
sg18
S''
sg42
S'Key'
p3092
sg19
S''
sg15
g3091
sg28
Nsg44
S'From key'
p3093
stRp3094
ag3
(g4
g5
(dp3095
g14
S''
sg40
S'fromChange'
p3096
sg18
S''
sg42
S'Change'
p3097
sg19
S''
sg15
g3096
sg28
Nsg44
S'From change'
p3098
stRp3099
ag3
(g4
g5
(dp3100
g14
S''
sg40
S'baseKey'
p3101
sg18
S''
sg42
S'Key'
p3102
sg19
S''
sg15
g3101
sg28
Nsg44
S'Base Key'
p3103
stRp3104
ag3
(g4
g5
(dp3105
g14
S''
sg40
S'baseChange'
p3106
sg18
S''
sg42
S'Change'
p3107
sg19
S''
sg15
g3106
sg28
Nsg44
S'Base change'
p3108
stRp3109
atRp3110
sg68
g3058
sg69
S'0'
sg70
g71
sg44
S'Resolve data for stream specifications'
p3111
sg42
S'BodyResolve'
p3112
sg74
S'83'
p3113
sg40
S'db.bodresolve'
p3114
stRp3115
sS'review'
p3116
g3
(g4
g5
(dp3117
g7
S'user, seq'
p3118
sg9
g3
(g10
g11
(lp3119
g3
(g4
g5
(dp3120
g14
S''
sg15
g16
sg17
g16
sg18
S''
sg19
S''
sg20
g21
sg22
g23
stRp3121
ag3
(g4
g5
(dp3122
g14
S''
sg17
g26
sg18
S''
sg20
g27
sg19
S''
sg15
g26
sg28
Nsg22
g29
stRp3123
ag3
(g4
g5
(dp3124
g14
S''
sg17
g32
sg18
S''
sg20
g21
sg19
S''
sg15
g32
sg28
Nsg22
g33
stRp3125
ag3
(g4
g5
(dp3126
g14
S''
sg17
g36
sg18
S''
sg20
g27
sg19
S''
sg15
g36
sg28
Nsg22
g37
stRp3127
ag3
(g4
g5
(dp3128
g14
S''
sg40
S'user'
p3129
sg18
S''
sg42
S'User'
p3130
sg19
S''
sg15
g3129
sg28
Nsg44
S'A user name'
p3131
stRp3132
ag3
(g4
g5
(dp3133
g14
S''
sg40
S'seq'
p3134
sg18
S''
sg42
S'Int'
p3135
sg19
S''
sg15
g3134
sg28
Nsg44
S'Sequence number: used for ordering multi-line views'
p3136
stRp3137
ag3
(g4
g5
(dp3138
g14
S''
sg40
S'mapFlag'
p3139
sg18
S''
sg42
S'MapFlag'
p3140
sg19
S''
sg15
g3139
sg28
Nsg44
S'Type of mapping'
p3141
stRp3142
ag3
(g4
g5
(dp3143
g14
S''
sg40
S'depotFile'
p3144
sg18
S''
sg42
S'Mapping'
p3145
sg19
S''
sg15
g3144
sg28
Nsg44
S'The files to be reviewed'
p3146
stRp3147
ag3
(g4
g5
(dp3148
g14
S''
sg40
S'type'
p3149
sg18
S''
sg42
S'Reviewer'
p3150
sg19
S''
sg15
g3149
sg28
Nsg44
S'Type of reviewer'
p3151
stRp3152
atRp3153
sg68
g3116
sg69
S'1'
sg70
g71
sg44
S"User's review mappings"
p3154
sg42
S'Review'
p3155
sg74
S'27'
p3156
sg40
S'db.review'
p3157
stRp3158
sS'storage'
p3159
g3
(g4
g5
(dp3160
g7
S'file, rev, type'
p3161
sg9
g3
(g10
g11
(lp3162
g3
(g4
g5
(dp3163
g14
S''
sg15
g16
sg17
g16
sg18
S''
sg19
S''
sg20
g21
sg22
g23
stRp3164
ag3
(g4
g5
(dp3165
g14
S''
sg17
g26
sg18
S''
sg20
g27
sg19
S''
sg15
g26
sg28
Nsg22
g29
stRp3166
ag3
(g4
g5
(dp3167
g14
S''
sg17
g32
sg18
S''
sg20
g21
sg19
S''
sg15
g32
sg28
Nsg22
g33
stRp3168
ag3
(g4
g5
(dp3169
g14
S''
sg17
g36
sg18
S''
sg20
g27
sg19
S''
sg15
g36
sg28
Nsg22
g37
stRp3170
ag3
(g4
g5
(dp3171
g14
S''
sg40
S'file'
p3172
sg18
S''
sg42
S'File'
p3173
sg19
S''
sg15
g3172
sg28
Nsg44
S'Librarian file'
p3174
stRp3175
ag3
(g4
g5
(dp3176
g14
S''
sg40
S'rev'
p3177
sg18
S''
sg42
S'String'
p3178
sg19
S''
sg15
g3177
sg28
Nsg44
S'Librarian revision'
p3179
stRp3180
ag3
(g4
g5
(dp3181
g14
S''
sg40
S'type'
p3182
sg18
S''
sg42
S'FileType'
p3183
sg19
S''
sg15
g3182
sg28
Nsg44
S'The file type of the librarian revision'
p3184
stRp3185
ag3
(g4
g5
(dp3186
g14
S''
sg40
S'refCount'
p3187
sg18
S''
sg42
S'Int'
p3188
sg19
S''
sg15
g3187
sg28
Nsg44
S'Reference count'
p3189
stRp3190
ag3
(g4
g5
(dp3191
g14
S''
sg40
S'digest'
p3192
sg18
S''
sg42
S'Digest'
p3193
sg19
S''
sg15
g3192
sg28
Nsg44
S'MD5 of librarian file (ktext collapsed)'
p3194
stRp3195
ag3
(g4
g5
(dp3196
g14
S''
sg40
S'size'
p3197
sg18
S''
sg42
S'FileSize'
p3198
sg19
S''
sg15
g3197
sg28
Nsg44
S'Size of file'
p3199
stRp3200
ag3
(g4
g5
(dp3201
g14
S''
sg40
S'serverSize'
p3202
sg18
S''
sg42
S'FileSize'
p3203
sg19
S''
sg15
g3202
sg28
Nsg44
S'Size of librarian file (for future use)'
p3204
stRp3205
ag3
(g4
g5
(dp3206
g14
S''
sg40
S'compCksum'
p3207
sg18
S''
sg42
S'FileSize'
p3208
sg19
S''
sg15
g3207
sg28
Nsg44
S'MD5 of compressed librarian file (for future use)'
p3209
stRp3210
ag3
(g4
g5
(dp3211
g14
S''
sg40
S'date'
p3212
sg18
S''
sg42
S'Date'
p3213
sg19
S''
sg15
g3212
sg28
Nsg44
S'Date of last update to the storage record'
p3214
stRp3215
atRp3216
sg68
g3159
sg206
S'Supersedes db.archmap in 2019.1'
p3217
sg69
S'0'
sg70
g71
sg44
S'Track references to archive files'
p3218
sg42
S'Storage'
p3219
sg74
S'41'
p3220
sg40
S'db.storage'
p3221
stRp3222
sS'storageg'
p3223
g3
(g4
g5
(dp3224
g7
S'repo, sha, type'
p3225
sg9
g3
(g10
g11
(lp3226
g3
(g4
g5
(dp3227
g14
S''
sg15
g16
sg17
g16
sg18
S''
sg19
S''
sg20
g21
sg22
g23
stRp3228
ag3
(g4
g5
(dp3229
g14
S''
sg17
g26
sg18
S''
sg20
g27
sg19
S''
sg15
g26
sg28
Nsg22
g29
stRp3230
ag3
(g4
g5
(dp3231
g14
S''
sg17
g32
sg18
S''
sg20
g21
sg19
S''
sg15
g32
sg28
Nsg22
g33
stRp3232
ag3
(g4
g5
(dp3233
g14
S''
sg17
g36
sg18
S''
sg20
g27
sg19
S''
sg15
g36
sg28
Nsg22
g37
stRp3234
ag3
(g4
g5
(dp3235
g14
S''
sg40
S'repo'
p3236
sg18
S''
sg42
S'Key'
p3237
sg19
S''
sg15
g3236
sg28
Nsg44
S'Repository name'
p3238
stRp3239
ag3
(g4
g5
(dp3240
g14
S''
sg40
S'sha'
p3241
sg18
S''
sg42
S'Key'
p3242
sg19
S''
sg15
g3241
sg28
Nsg44
S'Digest of the file in type appropriate format'
p3243
stRp3244
ag3
(g4
g5
(dp3245
g14
S''
sg40
S'type'
p3246
sg18
S''
sg42
S'ObjectType'
p3247
sg19
S''
sg15
g3246
sg28
Nsg44
S'Type of graph object'
p3248
stRp3249
ag3
(g4
g5
(dp3250
g14
S''
sg40
S'refCount'
p3251
sg18
S''
sg42
S'Int'
p3252
sg19
S''
sg15
g3251
sg28
Nsg44
S'Reference count'
p3253
stRp3254
ag3
(g4
g5
(dp3255
g14
S''
sg40
S'date'
p3256
sg18
S''
sg42
S'Date'
p3257
sg19
S''
sg15
g3256
sg28
Nsg44
S'Date of last update to the storage record'
p3258
stRp3259
atRp3260
sg68
g3223
sg69
S'0'
sg70
g71
sg44
S'Track references to Graph Depot archive files (for future use)'
p3261
sg42
S'StorageG'
p3262
sg74
S'42'
p3263
sg40
S'db.storageg'
p3264
stRp3265
sS'label'
p3266
g3
(g4
g5
(dp3267
g7
S'name, depotFile'
p3268
sg9
g3
(g10
g11
(lp3269
g3
(g4
g5
(dp3270
g14
S''
sg15
g16
sg17
g16
sg18
S''
sg19
S''
sg20
g21
sg22
g23
stRp3271
ag3
(g4
g5
(dp3272
g14
S''
sg17
g26
sg18
S''
sg20
g27
sg19
S''
sg15
g26
sg28
Nsg22
g29
stRp3273
ag3
(g4
g5
(dp3274
g14
S''
sg17
g32
sg18
S''
sg20
g21
sg19
S''
sg15
g32
sg28
Nsg22
g33
stRp3275
ag3
(g4
g5
(dp3276
g14
S''
sg17
g36
sg18
S''
sg20
g27
sg19
S''
sg15
g36
sg28
Nsg22
g37
stRp3277
ag3
(g4
g5
(dp3278
g14
S''
sg40
S'name'
p3279
sg18
S''
sg42
S'Domain'
p3280
sg19
S''
sg15
g3279
sg28
Nsg44
S'Name of the label'
p3281
stRp3282
ag3
(g4
g5
(dp3283
g14
S''
sg40
S'depotFile'
p3284
sg18
S''
sg42
S'File'
p3285
sg19
S''
sg15
g3284
sg28
Nsg44
S'File name'
p3286
stRp3287
ag3
(g4
g5
(dp3288
g14
S''
sg40
S'haveRev'
p3289
sg18
S''
sg42
S'Rev'
p3290
sg19
S''
sg15
g3289
sg28
Nsg44
S'The revision of the file in the label'
p3291
stRp3292
atRp3293
sg68
g3266
sg69
S'0'
sg70
g71
sg44
S'Revisions of files in labels'
p3294
sg42
S'Label'
p3295
sg74
S'28'
p3296
sg40
S'db.label'
p3297
stRp3298
sS'revbx'
p3299
g3
(g4
g5
(dp3300
g7
S'depotFile, depotRev'
p3301
sg9
g3
(g10
g11
(lp3302
g3
(g4
g5
(dp3303
g14
S''
sg15
g16
sg17
g16
sg18
S''
sg19
S''
sg20
g21
sg22
g23
stRp3304
ag3
(g4
g5
(dp3305
g14
S''
sg17
g26
sg18
S''
sg20
g27
sg19
S''
sg15
g26
sg28
Nsg22
g29
stRp3306
ag3
(g4
g5
(dp3307
g14
S''
sg17
g32
sg18
S''
sg20
g21
sg19
S''
sg15
g32
sg28
Nsg22
g33
stRp3308
ag3
(g4
g5
(dp3309
g14
S''
sg17
g36
sg18
S''
sg20
g27
sg19
S''
sg15
g36
sg28
Nsg22
g37
stRp3310
ag3
(g4
g5
(dp3311
g14
S''
sg40
g90
sg18
S''
sg42
g91
sg19
S''
sg15
g90
sg28
Nsg44
g92
stRp3312
ag3
(g4
g5
(dp3313
g14
S''
sg40
g95
sg18
S''
sg42
g96
sg19
S''
sg15
g95
sg28
Nsg44
g97
stRp3314
ag3
(g4
g5
(dp3315
g14
S''
sg40
g100
sg18
S''
sg42
g101
sg19
S''
sg15
g100
sg28
Nsg44
g102
stRp3316
ag3
(g4
g5
(dp3317
g14
S''
sg40
g105
sg18
S''
sg42
g106
sg19
S''
sg15
g105
sg28
Nsg44
g107
stRp3318
ag3
(g4
g5
(dp3319
g14
S''
sg40
g110
sg18
S''
sg42
g111
sg19
S''
sg15
g110
sg28
Nsg44
g112
stRp3320
ag3
(g4
g5
(dp3321
g14
S''
sg40
g115
sg18
S''
sg42
g116
sg19
S''
sg15
g115
sg28
Nsg44
g117
stRp3322
ag3
(g4
g5
(dp3323
g14
S''
sg40
g120
sg18
S''
sg42
g121
sg19
S''
sg15
g120
sg28
Nsg44
g122
stRp3324
ag3
(g4
g5
(dp3325
g14
S''
sg40
g125
sg18
S''
sg42
g126
sg19
S''
sg15
g125
sg28
Nsg44
g127
stRp3326
ag3
(g4
g5
(dp3327
g14
S''
sg40
g130
sg18
S''
sg42
g131
sg19
S''
sg15
g130
sg28
Nsg44
g132
stRp3328
ag3
(g4
g5
(dp3329
g14
S''
sg40
g135
sg18
S''
sg42
g136
sg19
S''
sg15
g135
sg28
Nsg44
g137
stRp3330
ag3
(g4
g5
(dp3331
g14
S''
sg40
g140
sg18
S''
sg42
g141
sg19
S''
sg15
g140
sg28
Nsg44
g142
stRp3332
ag3
(g4
g5
(dp3333
g14
S''
sg40
g145
sg18
S''
sg42
g146
sg19
S''
sg15
g145
sg28
Nsg44
g147
stRp3334
ag3
(g4
g5
(dp3335
g14
S''
sg40
g150
sg18
S''
sg42
g151
sg19
S''
sg15
g150
sg28
Nsg44
g152
stRp3336
ag3
(g4
g5
(dp3337
g14
S''
sg40
g155
sg18
S''
sg42
g156
sg19
S''
sg15
g155
sg28
Nsg44
g157
stRp3338
atRp3339
sg68
g3299
sg69
S'9'
sg70
g71
sg44
S'Revision records for archived files'
p3340
sg42
S'Rev'
p3341
sg74
S'48'
p3342
sg40
S'db.revbx'
p3343
stRp3344
sS'nameval'
p3345
g3
(g4
g5
(dp3346
g7
S'name'
p3347
sg9
g3
(g10
g11
(lp3348
g3
(g4
g5
(dp3349
g14
S''
sg15
g16
sg17
g16
sg18
S''
sg19
S''
sg20
g21
sg22
g23
stRp3350
ag3
(g4
g5
(dp3351
g14
S''
sg17
g26
sg18
S''
sg20
g27
sg19
S''
sg15
g26
sg28
Nsg22
g29
stRp3352
ag3
(g4
g5
(dp3353
g14
S''
sg17
g32
sg18
S''
sg20
g21
sg19
S''
sg15
g32
sg28
Nsg22
g33
stRp3354
ag3
(g4
g5
(dp3355
g14
S''
sg17
g36
sg18
S''
sg20
g27
sg19
S''
sg15
g36
sg28
Nsg22
g37
stRp3356
ag3
(g4
g5
(dp3357
g14
S''
sg40
S'name'
p3358
sg18
S''
sg42
S'Key'
p3359
sg19
S''
sg15
g3358
sg28
Nsg44
S'Key name'
p3360
stRp3361
ag3
(g4
g5
(dp3362
g14
S''
sg40
S'value'
p3363
sg18
S''
sg42
S'Value'
p3364
sg19
S''
sg15
g3363
sg28
Nsg44
S'Key value'
p3365
stRp3366
atRp3367
sg68
g3345
sg69
S'1'
sg70
g71
sg44
S'A table to store key/value pairs'
p3368
sg42
S'Keys'
p3369
sg74
S'3'
sg40
S'db.nameval'
p3370
stRp3371
sS'template'
p3372
g3
(g4
g5
(dp3373
g7
S'name, change, seq'
p3374
sg9
g3
(g10
g11
(lp3375
g3
(g4
g5
(dp3376
g14
S''
sg15
g16
sg17
g16
sg18
S''
sg19
S''
sg20
g21
sg22
g23
stRp3377
ag3
(g4
g5
(dp3378
g14
S''
sg17
g26
sg18
S''
sg20
g27
sg19
S''
sg15
g26
sg28
Nsg22
g29
stRp3379
ag3
(g4
g5
(dp3380
g14
S''
sg17
g32
sg18
S''
sg20
g21
sg19
S''
sg15
g32
sg28
Nsg22
g33
stRp3381
ag3
(g4
g5
(dp3382
g14
S''
sg17
g36
sg18
S''
sg20
g27
sg19
S''
sg15
g36
sg28
Nsg22
g37
stRp3383
ag3
(g4
g5
(dp3384
g14
S''
sg40
S'name'
p3385
sg18
S''
sg42
S'Domain'
p3386
sg19
S''
sg15
g3385
sg28
Nsg44
S'Stream name'
p3387
stRp3388
ag3
(g4
g5
(dp3389
g14
S''
sg40
S'change'
p3390
sg18
S''
sg42
S'Change'
p3391
sg19
S''
sg15
g3390
sg28
Nsg44
S'Versioned at change'
p3392
stRp3393
ag3
(g4
g5
(dp3394
g14
S''
sg40
S'seq'
p3395
sg18
S''
sg42
S'Int'
p3396
sg19
S''
sg15
g3395
sg28
Nsg44
S'Sequence (line) number'
p3397
stRp3398
ag3
(g4
g5
(dp3399
g14
S''
sg40
S'parent'
p3400
sg18
S''
sg42
S'Domain'
p3401
sg19
S''
sg15
g3400
sg28
Nsg44
S'Parent stream name'
p3402
stRp3403
ag3
(g4
g5
(dp3404
g14
S''
sg40
S'type'
p3405
sg18
S''
sg42
S'StreamType'
p3406
sg19
S''
sg15
g3405
sg28
Nsg44
S'Type of stream'
p3407
stRp3408
ag3
(g4
g5
(dp3409
g14
S''
sg40
S'path'
p3410
sg18
S''
sg42
S'StreamPathType'
p3411
sg19
S''
sg15
g3410
sg28
Nsg44
S'Stream path type'
p3412
stRp3413
ag3
(g4
g5
(dp3414
g14
S''
sg40
S'viewFile'
p3415
sg18
S''
sg42
S'Mapping'
p3416
sg19
S''
sg15
g3415
sg28
Nsg44
S'View file (left hand side of path)'
p3417
stRp3418
ag3
(g4
g5
(dp3419
g14
S''
sg40
S'depotFile'
p3420
sg18
S''
sg42
S'Mapping'
p3421
sg19
S''
sg15
g3420
sg28
Nsg44
S'Depot file (right hand side of path)'
p3422
stRp3423
ag3
(g4
g5
(dp3424
g14
S''
sg40
S'changeMap'
p3425
sg18
S''
sg42
S'Value'
p3426
sg19
S''
sg15
g3425
sg28
Nsg44
S"Stream 'import' path changelist specifier. The changelist\n\t\t\tlimits in effect for a given client are displayed in a\n\t    \tread-only client spec field called 'ChangeView'"
p3427
stRp3428
atRp3429
sg68
g3372
sg69
S'2'
sg70
g71
sg44
S'Streams templates'
p3430
sg42
S'Template'
p3431
sg74
S'20'
p3432
sg40
S'db.template'
p3433
stRp3434
sS'haverp'
p3435
g3
(g4
g5
(dp3436
g7
S'clientFile'
p3437
sg9
g3
(g10
g11
(lp3438
g3
(g4
g5
(dp3439
g14
S''
sg15
g16
sg17
g16
sg18
S''
sg19
S''
sg20
g21
sg22
g23
stRp3440
ag3
(g4
g5
(dp3441
g14
S''
sg17
g26
sg18
S''
sg20
g27
sg19
S''
sg15
g26
sg28
Nsg22
g29
stRp3442
ag3
(g4
g5
(dp3443
g14
S''
sg17
g32
sg18
S''
sg20
g21
sg19
S''
sg15
g32
sg28
Nsg22
g33
stRp3444
ag3
(g4
g5
(dp3445
g14
S''
sg17
g36
sg18
S''
sg20
g27
sg19
S''
sg15
g36
sg28
Nsg22
g37
stRp3446
ag3
(g4
g5
(dp3447
g14
S''
sg40
g514
sg18
S''
sg42
g515
sg19
S''
sg15
g514
sg28
Nsg44
g516
stRp3448
ag3
(g4
g5
(dp3449
g14
S''
sg40
g519
sg18
S''
sg42
g520
sg19
S''
sg15
g519
sg28
Nsg44
g521
stRp3450
ag3
(g4
g5
(dp3451
g14
S''
sg40
g524
sg18
S''
sg42
g525
sg19
S''
sg15
g524
sg28
Nsg44
g526
stRp3452
ag3
(g4
g5
(dp3453
g14
S''
sg40
g529
sg18
S''
sg42
g530
sg19
S''
sg15
g529
sg28
Nsg44
g531
stRp3454
ag3
(g4
g5
(dp3455
g14
S''
sg40
g534
sg18
S''
sg42
g535
sg19
S''
sg15
g534
sg28
Nsg44
g536
stRp3456
atRp3457
sg68
g3435
sg69
S'3'
sg70
g71
sg44
S"Contains the 'have-list' for clients of build-server replicas"
p3458
sg42
S'Have'
p3459
sg74
S'29'
p3460
sg40
S'db.have.rp'
p3461
stRp3462
sS'depot'
p3463
g3
(g4
g5
(dp3464
g7
S'name'
p3465
sg9
g3
(g10
g11
(lp3466
g3
(g4
g5
(dp3467
g14
S''
sg15
g16
sg17
g16
sg18
S''
sg19
S''
sg20
g21
sg22
g23
stRp3468
ag3
(g4
g5
(dp3469
g14
S''
sg17
g26
sg18
S''
sg20
g27
sg19
S''
sg15
g26
sg28
Nsg22
g29
stRp3470
ag3
(g4
g5
(dp3471
g14
S''
sg17
g32
sg18
S''
sg20
g21
sg19
S''
sg15
g32
sg28
Nsg22
g33
stRp3472
ag3
(g4
g5
(dp3473
g14
S''
sg17
g36
sg18
S''
sg20
g27
sg19
S''
sg15
g36
sg28
Nsg22
g37
stRp3474
ag3
(g4
g5
(dp3475
g14
S''
sg40
S'name'
p3476
sg18
S''
sg42
S'Domain'
p3477
sg19
S''
sg15
g3476
sg28
Nsg44
S'Depot name'
p3478
stRp3479
ag3
(g4
g5
(dp3480
g14
S''
sg40
S'type'
p3481
sg18
S''
sg42
S'DepotType'
p3482
sg19
S''
sg15
g3481
sg28
Nsg44
S'Type of depot'
p3483
stRp3484
ag3
(g4
g5
(dp3485
g14
S''
sg40
S'extra'
p3486
sg18
S''
sg42
S'Text'
p3487
sg19
S''
sg15
g3486
sg28
Nsg44
S'For remote depots, the P4PORT address of the remote server.\n\t\t    For spec depots, a suffix to append to the filename.\n                   For stream depots, stream depth'
p3488
stRp3489
ag3
(g4
g5
(dp3490
g14
S''
sg40
S'map'
p3491
sg18
S''
sg42
S'Text'
p3492
sg19
S''
sg15
g3491
sg28
Nsg44
S"The depot's map (path translation information).  For local \n\t\t    depots, this will be a path relative to the root directory.\n\t\t    For remote depots, this will be specified in terms of the \n\t\t    remote server's namespace."
p3493
stRp3494
atRp3495
sg68
g3463
sg69
S'1'
sg70
g71
sg44
S'Depot specifications'
p3496
sg42
S'Depot'
p3497
sg74
S'17'
p3498
sg40
S'db.depot'
p3499
stRp3500
sS'config'
p3501
g3
(g4
g5
(dp3502
g7
S'serverName, name'
p3503
sg9
g3
(g10
g11
(lp3504
g3
(g4
g5
(dp3505
g14
S''
sg15
g16
sg17
g16
sg18
S''
sg19
S''
sg20
g21
sg22
g23
stRp3506
ag3
(g4
g5
(dp3507
g14
S''
sg17
g26
sg18
S''
sg20
g27
sg19
S''
sg15
g26
sg28
Nsg22
g29
stRp3508
ag3
(g4
g5
(dp3509
g14
S''
sg17
g32
sg18
S''
sg20
g21
sg19
S''
sg15
g32
sg28
Nsg22
g33
stRp3510
ag3
(g4
g5
(dp3511
g14
S''
sg17
g36
sg18
S''
sg20
g27
sg19
S''
sg15
g36
sg28
Nsg22
g37
stRp3512
ag3
(g4
g5
(dp3513
g14
S''
sg40
S'serverName'
p3514
sg18
S''
sg42
S'Key'
p3515
sg19
S''
sg15
g3514
sg28
Nsg44
S'Server name'
p3516
stRp3517
ag3
(g4
g5
(dp3518
g14
S''
sg40
S'name'
p3519
sg18
S''
sg42
S'Key'
p3520
sg19
S''
sg15
g3519
sg28
Nsg44
S'Configuration variable name'
p3521
stRp3522
ag3
(g4
g5
(dp3523
g14
S''
sg40
S'value'
p3524
sg18
S''
sg42
S'Value'
p3525
sg19
S''
sg15
g3524
sg28
Nsg44
S'Configuration variable value'
p3526
stRp3527
atRp3528
sg68
g3501
sg69
S'1'
sg70
g71
sg44
S'Server configurations table'
p3529
sg42
S'Config'
p3530
sg74
S'1'
sg40
S'db.config'
p3531
stRp3532
sS'counters'
p3533
g3
(g4
g5
(dp3534
g7
S'name'
p3535
sg9
g3
(g10
g11
(lp3536
g3
(g4
g5
(dp3537
g14
S''
sg15
g16
sg17
g16
sg18
S''
sg19
S''
sg20
g21
sg22
g23
stRp3538
ag3
(g4
g5
(dp3539
g14
S''
sg17
g26
sg18
S''
sg20
g27
sg19
S''
sg15
g26
sg28
Nsg22
g29
stRp3540
ag3
(g4
g5
(dp3541
g14
S''
sg17
g32
sg18
S''
sg20
g21
sg19
S''
sg15
g32
sg28
Nsg22
g33
stRp3542
ag3
(g4
g5
(dp3543
g14
S''
sg17
g36
sg18
S''
sg20
g27
sg19
S''
sg15
g36
sg28
Nsg22
g37
stRp3544
ag3
(g4
g5
(dp3545
g14
S''
sg40
S'name'
p3546
sg18
S''
sg42
S'Counter'
p3547
sg19
S''
sg15
g3546
sg28
Nsg44
S'Counter name'
p3548
stRp3549
ag3
(g4
g5
(dp3550
g14
S''
sg40
S'value'
p3551
sg18
S''
sg42
S'Value'
p3552
sg19
S''
sg15
g3551
sg28
Nsg44
S'Counter value'
p3553
stRp3554
atRp3555
sg68
g3533
sg69
S'1'
sg70
g71
sg44
S'Counters table'
p3556
sg42
S'Counters'
p3557
sg74
S'2'
sg40
S'db.counters'
p3558
stRp3559
sS'sendqpt'
p3560
g3
(g4
g5
(dp3561
g7
S'taskid, seq'
p3562
sg9
g3
(g10
g11
(lp3563
g3
(g4
g5
(dp3564
g14
S''
sg15
g16
sg17
g16
sg18
S''
sg19
S''
sg20
g21
sg22
g23
stRp3565
ag3
(g4
g5
(dp3566
g14
S''
sg17
g26
sg18
S''
sg20
g27
sg19
S''
sg15
g26
sg28
Nsg22
g29
stRp3567
ag3
(g4
g5
(dp3568
g14
S''
sg17
g32
sg18
S''
sg20
g21
sg19
S''
sg15
g32
sg28
Nsg22
g33
stRp3569
ag3
(g4
g5
(dp3570
g14
S''
sg17
g36
sg18
S''
sg20
g27
sg19
S''
sg15
g36
sg28
Nsg22
g37
stRp3571
ag3
(g4
g5
(dp3572
g14
S''
sg40
g2521
sg18
S''
sg42
g2522
sg19
S''
sg15
g2521
sg28
Nsg44
g2523
stRp3573
ag3
(g4
g5
(dp3574
g14
S''
sg40
g2526
sg18
S''
sg42
g2527
sg19
S''
sg15
g2526
sg28
Nsg44
g2528
stRp3575
ag3
(g4
g5
(dp3576
g14
S''
sg40
g2531
sg18
S''
sg42
g2532
sg19
S''
sg15
g2531
sg28
Nsg44
g2533
stRp3577
ag3
(g4
g5
(dp3578
g14
S''
sg40
g2536
sg18
S''
sg42
g2537
sg19
S''
sg15
g2536
sg28
Nsg44
g2538
stRp3579
ag3
(g4
g5
(dp3580
g14
S''
sg40
g2541
sg18
S''
sg42
g2542
sg19
S''
sg15
g2541
sg28
Nsg44
g2543
stRp3581
ag3
(g4
g5
(dp3582
g14
S''
sg40
g2546
sg18
S''
sg42
g2547
sg19
S''
sg15
g2546
sg28
Nsg44
g2548
stRp3583
ag3
(g4
g5
(dp3584
g14
S''
sg40
g2551
sg18
S''
sg42
g2552
sg19
S''
sg15
g2551
sg28
Nsg44
g2553
stRp3585
ag3
(g4
g5
(dp3586
g14
S''
sg40
g2556
sg18
S''
sg42
g2557
sg19
S''
sg15
g2556
sg28
Nsg44
g2558
stRp3587
ag3
(g4
g5
(dp3588
g14
S''
sg40
g2561
sg18
S''
sg42
g2562
sg19
S''
sg15
g2561
sg28
Nsg44
g2563
stRp3589
ag3
(g4
g5
(dp3590
g14
S''
sg40
g2566
sg18
S''
sg42
g2567
sg19
S''
sg15
g2566
sg28
Nsg44
g2568
stRp3591
ag3
(g4
g5
(dp3592
g14
S''
sg40
g2571
sg18
S''
sg42
g2572
sg19
S''
sg15
g2571
sg28
Nsg44
g2573
stRp3593
ag3
(g4
g5
(dp3594
g14
S''
sg40
g2576
sg18
S''
sg42
g2577
sg19
S''
sg15
g2576
sg28
Nsg44
g2578
stRp3595
ag3
(g4
g5
(dp3596
g14
S''
sg40
g2581
sg18
S''
sg42
g2582
sg19
S''
sg15
g2581
sg28
Nsg44
g2583
stRp3597
ag3
(g4
g5
(dp3598
g14
S''
sg40
g2586
sg18
S''
sg42
g2587
sg19
S''
sg15
g2586
sg28
Nsg44
g2588
stRp3599
ag3
(g4
g5
(dp3600
g14
S''
sg40
g2591
sg18
S''
sg42
g2592
sg19
S''
sg15
g2591
sg28
Nsg44
g2593
stRp3601
ag3
(g4
g5
(dp3602
g14
S''
sg40
g2596
sg18
S''
sg42
g2597
sg19
S''
sg15
g2596
sg28
Nsg44
g2598
stRp3603
ag3
(g4
g5
(dp3604
g14
S''
sg40
g2601
sg18
S''
sg42
g2602
sg19
S''
sg15
g2601
sg28
Nsg44
g2603
stRp3605
ag3
(g4
g5
(dp3606
g14
S''
sg40
g2606
sg18
S''
sg42
g2607
sg19
S''
sg15
g2606
sg28
Nsg44
g2608
stRp3607
ag3
(g4
g5
(dp3608
g14
S''
sg40
g2611
sg18
S''
sg42
g2612
sg19
S''
sg15
g2611
sg28
Nsg44
g2613
stRp3609
ag3
(g4
g5
(dp3610
g14
S''
sg40
g2616
sg18
S''
sg42
g2617
sg19
S''
sg15
g2616
sg28
Nsg44
g2618
stRp3611
ag3
(g4
g5
(dp3612
g14
S''
sg40
g2621
sg18
S''
sg42
g2622
sg19
S''
sg15
g2621
sg28
Nsg44
g2623
stRp3613
atRp3614
sg68
g3560
sg69
S'4'
sg70
g71
sg44
S'Per Client transmission work queue'
p3615
sg42
S'SendQ'
p3616
sg74
S'97'
p3617
sg40
S'db.sendq.pt'
p3618
stRp3619
sS'revsx'
p3620
g3
(g4
g5
(dp3621
g7
S'depotFile, depotRev'
p3622
sg9
g3
(g10
g11
(lp3623
g3
(g4
g5
(dp3624
g14
S''
sg15
g16
sg17
g16
sg18
S''
sg19
S''
sg20
g21
sg22
g23
stRp3625
ag3
(g4
g5
(dp3626
g14
S''
sg17
g26
sg18
S''
sg20
g27
sg19
S''
sg15
g26
sg28
Nsg22
g29
stRp3627
ag3
(g4
g5
(dp3628
g14
S''
sg17
g32
sg18
S''
sg20
g21
sg19
S''
sg15
g32
sg28
Nsg22
g33
stRp3629
ag3
(g4
g5
(dp3630
g14
S''
sg17
g36
sg18
S''
sg20
g27
sg19
S''
sg15
g36
sg28
Nsg22
g37
stRp3631
ag3
(g4
g5
(dp3632
g14
S''
sg40
g90
sg18
S''
sg42
g91
sg19
S''
sg15
g90
sg28
Nsg44
g92
stRp3633
ag3
(g4
g5
(dp3634
g14
S''
sg40
g95
sg18
S''
sg42
g96
sg19
S''
sg15
g95
sg28
Nsg44
g97
stRp3635
ag3
(g4
g5
(dp3636
g14
S''
sg40
g100
sg18
S''
sg42
g101
sg19
S''
sg15
g100
sg28
Nsg44
g102
stRp3637
ag3
(g4
g5
(dp3638
g14
S''
sg40
g105
sg18
S''
sg42
g106
sg19
S''
sg15
g105
sg28
Nsg44
g107
stRp3639
ag3
(g4
g5
(dp3640
g14
S''
sg40
g110
sg18
S''
sg42
g111
sg19
S''
sg15
g110
sg28
Nsg44
g112
stRp3641
ag3
(g4
g5
(dp3642
g14
S''
sg40
g115
sg18
S''
sg42
g116
sg19
S''
sg15
g115
sg28
Nsg44
g117
stRp3643
ag3
(g4
g5
(dp3644
g14
S''
sg40
g120
sg18
S''
sg42
g121
sg19
S''
sg15
g120
sg28
Nsg44
g122
stRp3645
ag3
(g4
g5
(dp3646
g14
S''
sg40
g125
sg18
S''
sg42
g126
sg19
S''
sg15
g125
sg28
Nsg44
g127
stRp3647
ag3
(g4
g5
(dp3648
g14
S''
sg40
g130
sg18
S''
sg42
g131
sg19
S''
sg15
g130
sg28
Nsg44
g132
stRp3649
ag3
(g4
g5
(dp3650
g14
S''
sg40
g135
sg18
S''
sg42
g136
sg19
S''
sg15
g135
sg28
Nsg44
g137
stRp3651
ag3
(g4
g5
(dp3652
g14
S''
sg40
g140
sg18
S''
sg42
g141
sg19
S''
sg15
g140
sg28
Nsg44
g142
stRp3653
ag3
(g4
g5
(dp3654
g14
S''
sg40
g145
sg18
S''
sg42
g146
sg19
S''
sg15
g145
sg28
Nsg44
g147
stRp3655
ag3
(g4
g5
(dp3656
g14
S''
sg40
g150
sg18
S''
sg42
g151
sg19
S''
sg15
g150
sg28
Nsg44
g152
stRp3657
ag3
(g4
g5
(dp3658
g14
S''
sg40
g155
sg18
S''
sg42
g156
sg19
S''
sg15
g155
sg28
Nsg44
g157
stRp3659
atRp3660
sg68
g3620
sg69
S'9'
sg70
g71
sg44
S'Revision records for spec depot files'
p3661
sg42
S'Rev'
p3662
sg74
S'46'
p3663
sg40
S'db.revsx'
p3664
stRp3665
sS'ticketrp'
p3666
g3
(g4
g5
(dp3667
g7
S'user, host'
p3668
sg9
g3
(g10
g11
(lp3669
g3
(g4
g5
(dp3670
g14
S''
sg15
g16
sg17
g16
sg18
S''
sg19
S''
sg20
g21
sg22
g23
stRp3671
ag3
(g4
g5
(dp3672
g14
S''
sg17
g26
sg18
S''
sg20
g27
sg19
S''
sg15
g26
sg28
Nsg22
g29
stRp3673
ag3
(g4
g5
(dp3674
g14
S''
sg17
g32
sg18
S''
sg20
g21
sg19
S''
sg15
g32
sg28
Nsg22
g33
stRp3675
ag3
(g4
g5
(dp3676
g14
S''
sg17
g36
sg18
S''
sg20
g27
sg19
S''
sg15
g36
sg28
Nsg22
g37
stRp3677
ag3
(g4
g5
(dp3678
g14
S''
sg40
g428
sg18
S''
sg42
g429
sg19
S''
sg15
g428
sg28
Nsg44
g430
stRp3679
ag3
(g4
g5
(dp3680
g14
S''
sg40
g433
sg18
S''
sg42
g434
sg19
S''
sg15
g433
sg28
Nsg44
g435
stRp3681
ag3
(g4
g5
(dp3682
g14
S''
sg40
g438
sg18
S''
sg42
g439
sg19
S''
sg15
g438
sg28
Nsg44
g440
stRp3683
ag3
(g4
g5
(dp3684
g14
S''
sg40
g443
sg18
S''
sg42
g444
sg19
S''
sg15
g443
sg28
Nsg44
g445
stRp3685
ag3
(g4
g5
(dp3686
g14
S''
sg40
g448
sg18
S''
sg42
g449
sg19
S''
sg15
g448
sg28
Nsg44
g450
stRp3687
ag3
(g4
g5
(dp3688
g14
S''
sg40
g453
sg18
S''
sg42
g454
sg19
S''
sg15
g453
sg28
Nsg44
g455
stRp3689
atRp3690
sg68
g3666
sg69
S'0'
sg70
g71
sg44
S'Second factor authentication state on a per user/host basis (replica)'
p3691
sg42
S'Ticket'
p3692
sg74
S'13'
p3693
sg40
S'db.ticket.rp'
p3694
stRp3695
sS'object'
p3696
g3
(g4
g5
(dp3697
g7
S'sha'
p3698
sg9
g3
(g10
g11
(lp3699
g3
(g4
g5
(dp3700
g14
S''
sg15
g16
sg17
g16
sg18
S''
sg19
S''
sg20
g21
sg22
g23
stRp3701
ag3
(g4
g5
(dp3702
g14
S''
sg17
g26
sg18
S''
sg20
g27
sg19
S''
sg15
g26
sg28
Nsg22
g29
stRp3703
ag3
(g4
g5
(dp3704
g14
S''
sg17
g32
sg18
S''
sg20
g21
sg19
S''
sg15
g32
sg28
Nsg22
g33
stRp3705
ag3
(g4
g5
(dp3706
g14
S''
sg17
g36
sg18
S''
sg20
g27
sg19
S''
sg15
g36
sg28
Nsg22
g37
stRp3707
ag3
(g4
g5
(dp3708
g14
S''
sg40
S'sha'
p3709
sg18
S''
sg42
S'SHA1'
p3710
sg19
S''
sg15
g3709
sg28
Nsg44
S'The SHA1 of the object'
p3711
stRp3712
ag3
(g4
g5
(dp3713
g14
S''
sg40
S'type'
p3714
sg18
S''
sg42
S'ObjectType'
p3715
sg19
S''
sg15
g3714
sg28
Nsg44
S'The object type'
p3716
stRp3717
ag3
(g4
g5
(dp3718
g14
S''
sg40
S'data'
p3719
sg18
S''
sg42
S'Octet String'
p3720
sg19
S''
sg15
g3719
sg28
Nsg44
S'The object content'
p3721
stRp3722
atRp3723
sg68
g3696
sg69
S'0'
sg70
g71
sg44
S'Object storage for graph depots'
p3724
sg42
S'Object'
p3725
sg74
S'72'
p3726
sg40
S'db.object'
p3727
stRp3728
sS'workingg'
p3729
g3
(g4
g5
(dp3730
g7
S'clientFile'
p3731
sg9
g3
(g10
g11
(lp3732
g3
(g4
g5
(dp3733
g14
S''
sg15
g16
sg17
g16
sg18
S''
sg19
S''
sg20
g21
sg22
g23
stRp3734
ag3
(g4
g5
(dp3735
g14
S''
sg17
g26
sg18
S''
sg20
g27
sg19
S''
sg15
g26
sg28
Nsg22
g29
stRp3736
ag3
(g4
g5
(dp3737
g14
S''
sg17
g32
sg18
S''
sg20
g21
sg19
S''
sg15
g32
sg28
Nsg22
g33
stRp3738
ag3
(g4
g5
(dp3739
g14
S''
sg17
g36
sg18
S''
sg20
g27
sg19
S''
sg15
g36
sg28
Nsg22
g37
stRp3740
ag3
(g4
g5
(dp3741
g14
S''
sg40
S'clientFile'
p3742
sg18
S''
sg42
S'File'
p3743
sg19
S''
sg15
g3742
sg28
Nsg44
S'File on the client'
p3744
stRp3745
ag3
(g4
g5
(dp3746
g14
S''
sg40
S'depotFile'
p3747
sg18
S''
sg42
S'File'
p3748
sg19
S''
sg15
g3747
sg28
Nsg44
S'File in the depot'
p3749
stRp3750
ag3
(g4
g5
(dp3751
g14
S''
sg40
S'client'
p3752
sg18
S''
sg42
S'Domain'
p3753
sg19
S''
sg15
g3752
sg28
Nsg44
S'The client on which the file is opened'
p3754
stRp3755
ag3
(g4
g5
(dp3756
g14
S''
sg40
S'user'
p3757
sg18
S''
sg42
S'User'
p3758
sg19
S''
sg15
g3757
sg28
Nsg44
S'The user who has the file opened'
p3759
stRp3760
ag3
(g4
g5
(dp3761
g14
S''
sg40
S'haveRev'
p3762
sg18
S''
sg42
S'Rev'
p3763
sg19
S''
sg15
g3762
sg28
Nsg44
S"Revision presently in user's client workspace"
p3764
stRp3765
ag3
(g4
g5
(dp3766
g14
S''
sg40
S'workRev'
p3767
sg18
S''
sg42
S'Rev'
p3768
sg19
S''
sg15
g3767
sg28
Nsg44
S'Working revision; normally identical to the haveRev'
p3769
stRp3770
ag3
(g4
g5
(dp3771
g14
S''
sg40
S'isVirtual'
p3772
sg18
S''
sg42
S'Int'
p3773
sg19
S''
sg15
g3772
sg28
Nsg44
S'Flag: if 1, file was opened with "p4 integ -v".'
p3774
stRp3775
ag3
(g4
g5
(dp3776
g14
S''
sg40
S'type'
p3777
sg18
S''
sg42
S'FileType'
p3778
sg19
S''
sg15
g3777
sg28
Nsg44
S'File type'
p3779
stRp3780
ag3
(g4
g5
(dp3781
g14
S''
sg40
S'action'
p3782
sg18
S''
sg42
S'Action'
p3783
sg19
S''
sg15
g3782
sg28
Nsg44
S"What the user's doing with the file"
p3784
stRp3785
ag3
(g4
g5
(dp3786
g14
S''
sg40
S'change'
p3787
sg18
S''
sg42
S'Change'
p3788
sg19
S''
sg15
g3787
sg28
Nsg44
S'Associated changelist, or zero for the default changelist.'
p3789
stRp3790
ag3
(g4
g5
(dp3791
g14
S''
sg40
S'modTime'
p3792
sg18
S''
sg42
S'Date'
p3793
sg19
S''
sg15
g3792
sg28
Nsg44
S"Modification timestamp on the file in the user's workspace."
p3794
stRp3795
ag3
(g4
g5
(dp3796
g14
S''
sg40
S'isLocked'
p3797
sg18
S''
sg42
S'Int'
p3798
sg19
S''
sg15
g3797
sg28
Nsg44
S'Flag: 0 for unlocked, 1 for locked.'
p3799
stRp3800
ag3
(g4
g5
(dp3801
g14
S''
sg40
S'digest'
p3802
sg18
S''
sg42
S'Digest'
p3803
sg19
S''
sg15
g3802
sg28
Nsg44
S'MD5 digest of working file.'
p3804
stRp3805
ag3
(g4
g5
(dp3806
g14
S''
sg40
S'size'
p3807
sg18
S''
sg42
S'FileSize'
p3808
sg19
S''
sg15
g3807
sg28
Nsg44
S'File size'
p3809
stRp3810
ag3
(g4
g5
(dp3811
g14
S''
sg40
S'traitLot'
p3812
sg18
S''
sg42
S'TraitLot'
p3813
sg19
S''
sg15
g3812
sg28
Nsg44
S'Group of traits associated with file revision.'
p3814
stRp3815
ag3
(g4
g5
(dp3816
g14
S''
sg40
S'tampered'
p3817
sg18
S''
sg42
S'TamperCheck'
p3818
sg19
S''
sg15
g3817
sg28
Nsg44
S'Flag indicating the tamper-state of the file in the\n\t\t    workspace.'
p3819
stRp3820
ag3
(g4
g5
(dp3821
g14
S''
sg40
S'clientType'
p3822
sg18
S''
sg42
S'FileType'
p3823
sg19
S''
sg15
g3822
sg28
Nsg44
S'Type of the file in the client workspace.'
p3824
stRp3825
ag3
(g4
g5
(dp3826
g14
S''
sg40
S'movedFile'
p3827
sg18
S''
sg42
S'File'
p3828
sg19
S''
sg15
g3827
sg28
Nsg44
S'Moved from filename'
p3829
stRp3830
ag3
(g4
g5
(dp3831
g14
S''
sg40
S'status'
p3832
sg18
S''
sg42
S'WorkStatus'
p3833
sg19
S''
sg15
g3832
sg28
Nsg44
S'Working status'
p3834
stRp3835
ag3
(g4
g5
(dp3836
g14
S''
sg40
S'blobSha'
p3837
sg18
S''
sg42
S'SHA1'
p3838
sg19
S''
sg15
g3837
sg28
Nsg44
S'Blob SHA'
p3839
stRp3840
ag3
(g4
g5
(dp3841
g14
S''
sg40
S'repo'
p3842
sg18
S''
sg42
S'Key'
p3843
sg19
S''
sg15
g3842
sg28
Nsg44
S'Repository name'
p3844
stRp3845
atRp3846
sg68
g3729
sg69
S'0'
sg70
g71
sg44
S'Working records for clients of type graph'
p3847
sg42
S'WorkingG'
p3848
sg74
S'58'
p3849
sg40
S'db.workingg'
p3850
stRp3851
sS'job'
p3852
g3
(g4
g5
(dp3853
g7
S'job'
p3854
sg9
g3
(g10
g11
(lp3855
g3
(g4
g5
(dp3856
g14
S''
sg15
g16
sg17
g16
sg18
S''
sg19
S''
sg20
g21
sg22
g23
stRp3857
ag3
(g4
g5
(dp3858
g14
S''
sg17
g26
sg18
S''
sg20
g27
sg19
S''
sg15
g26
sg28
Nsg22
g29
stRp3859
ag3
(g4
g5
(dp3860
g14
S''
sg17
g32
sg18
S''
sg20
g21
sg19
S''
sg15
g32
sg28
Nsg22
g33
stRp3861
ag3
(g4
g5
(dp3862
g14
S''
sg17
g36
sg18
S''
sg20
g27
sg19
S''
sg15
g36
sg28
Nsg22
g37
stRp3863
ag3
(g4
g5
(dp3864
g14
S''
sg40
S'job'
p3865
sg18
S''
sg42
S'Key'
p3866
sg19
S''
sg15
g3865
sg28
Nsg44
S'The job name'
p3867
stRp3868
ag3
(g4
g5
(dp3869
g14
S''
sg40
S'xuser'
p3870
sg18
S''
sg42
S'User'
p3871
sg19
S''
sg15
g3870
sg28
Nsg44
S'User name: defunct'
p3872
stRp3873
ag3
(g4
g5
(dp3874
g14
S''
sg40
S'xdate'
p3875
sg18
S''
sg42
S'Date'
p3876
sg19
S''
sg15
g3875
sg28
Nsg44
S'The date: defunct'
p3877
stRp3878
ag3
(g4
g5
(dp3879
g14
S''
sg40
S'xstatus'
p3880
sg18
S''
sg42
S'JobStat'
p3881
sg19
S''
sg15
g3880
sg28
Nsg44
S'Job status: defunct'
p3882
stRp3883
ag3
(g4
g5
(dp3884
g14
S''
sg40
S'description'
p3885
sg18
S''
sg42
S'DescShort'
p3886
sg19
S''
sg15
g3885
sg28
Nsg44
S'Short description'
p3887
stRp3888
atRp3889
sg68
g3852
sg40
S'db.job'
p3890
sg69
S'0'
sg70
g71
sg866
S'db.bodtext'
p3891
sg42
S'Job'
p3892
sg74
S'77'
p3893
sg44
S'Job records'
p3894
stRp3895
sS'workingx'
p3896
g3
(g4
g5
(dp3897
g7
S'clientFile'
p3898
sg9
g3
(g10
g11
(lp3899
g3
(g4
g5
(dp3900
g14
S''
sg15
g16
sg17
g16
sg18
S''
sg19
S''
sg20
g21
sg22
g23
stRp3901
ag3
(g4
g5
(dp3902
g14
S''
sg17
g26
sg18
S''
sg20
g27
sg19
S''
sg15
g26
sg28
Nsg22
g29
stRp3903
ag3
(g4
g5
(dp3904
g14
S''
sg17
g32
sg18
S''
sg20
g21
sg19
S''
sg15
g32
sg28
Nsg22
g33
stRp3905
ag3
(g4
g5
(dp3906
g14
S''
sg17
g36
sg18
S''
sg20
g27
sg19
S''
sg15
g36
sg28
Nsg22
g37
stRp3907
ag3
(g4
g5
(dp3908
g14
S''
sg40
g721
sg18
S''
sg42
g722
sg19
S''
sg15
g721
sg28
Nsg44
g723
stRp3909
ag3
(g4
g5
(dp3910
g14
S''
sg40
g726
sg18
S''
sg42
g727
sg19
S''
sg15
g726
sg28
Nsg44
g728
stRp3911
ag3
(g4
g5
(dp3912
g14
S''
sg40
g731
sg18
S''
sg42
g732
sg19
S''
sg15
g731
sg28
Nsg44
g733
stRp3913
ag3
(g4
g5
(dp3914
g14
S''
sg40
g736
sg18
S''
sg42
g737
sg19
S''
sg15
g736
sg28
Nsg44
g738
stRp3915
ag3
(g4
g5
(dp3916
g14
S''
sg40
g741
sg18
S''
sg42
g742
sg19
S''
sg15
g741
sg28
Nsg44
g743
stRp3917
ag3
(g4
g5
(dp3918
g14
S''
sg40
g746
sg18
S''
sg42
g747
sg19
S''
sg15
g746
sg28
Nsg44
g748
stRp3919
ag3
(g4
g5
(dp3920
g14
S''
sg40
g751
sg18
S''
sg42
g752
sg19
S''
sg15
g751
sg28
Nsg44
g753
stRp3921
ag3
(g4
g5
(dp3922
g14
S''
sg40
g756
sg18
S''
sg42
g757
sg19
S''
sg15
g756
sg28
Nsg44
g758
stRp3923
ag3
(g4
g5
(dp3924
g14
S''
sg40
g761
sg18
S''
sg42
g762
sg19
S''
sg15
g761
sg28
Nsg44
g763
stRp3925
ag3
(g4
g5
(dp3926
g14
S''
sg40
g766
sg18
S''
sg42
g767
sg19
S''
sg15
g766
sg28
Nsg44
g768
stRp3927
ag3
(g4
g5
(dp3928
g14
S''
sg40
g771
sg18
S''
sg42
g772
sg19
S''
sg15
g771
sg28
Nsg44
g773
stRp3929
ag3
(g4
g5
(dp3930
g14
S''
sg40
g776
sg18
S''
sg42
g777
sg19
S''
sg15
g776
sg28
Nsg44
g778
stRp3931
ag3
(g4
g5
(dp3932
g14
S''
sg40
g781
sg18
S''
sg42
g782
sg19
S''
sg15
g781
sg28
Nsg44
g783
stRp3933
ag3
(g4
g5
(dp3934
g14
S''
sg40
g786
sg18
S''
sg42
g787
sg19
S''
sg15
g786
sg28
Nsg44
g788
stRp3935
ag3
(g4
g5
(dp3936
g14
S''
sg40
g791
sg18
S''
sg42
g792
sg19
S''
sg15
g791
sg28
Nsg44
g793
stRp3937
ag3
(g4
g5
(dp3938
g14
S''
sg40
g796
sg18
S''
sg42
g797
sg19
S''
sg15
g796
sg28
Nsg44
g798
stRp3939
ag3
(g4
g5
(dp3940
g14
S''
sg40
g801
sg18
S''
sg42
g802
sg19
S''
sg15
g801
sg28
Nsg44
g803
stRp3941
ag3
(g4
g5
(dp3942
g14
S''
sg40
g806
sg18
S''
sg42
g807
sg19
S''
sg15
g806
sg28
Nsg44
g808
stRp3943
ag3
(g4
g5
(dp3944
g14
S''
sg40
g811
sg18
S''
sg42
g812
sg19
S''
sg15
g811
sg28
Nsg44
g813
stRp3945
atRp3946
sg68
g3896
sg69
S'10'
p3947
sg70
g71
sg44
S'Records for shelved open files'
p3948
sg42
S'Working'
p3949
sg74
S'57'
p3950
sg40
S'db.workingx'
p3951
stRp3952
sS'templatewx'
p3953
g3
(g4
g5
(dp3954
g7
S'client, name, seq'
p3955
sg9
g3
(g10
g11
(lp3956
g3
(g4
g5
(dp3957
g14
S''
sg15
g16
sg17
g16
sg18
S''
sg19
S''
sg20
g21
sg22
g23
stRp3958
ag3
(g4
g5
(dp3959
g14
S''
sg17
g26
sg18
S''
sg20
g27
sg19
S''
sg15
g26
sg28
Nsg22
g29
stRp3960
ag3
(g4
g5
(dp3961
g14
S''
sg17
g32
sg18
S''
sg20
g21
sg19
S''
sg15
g32
sg28
Nsg22
g33
stRp3962
ag3
(g4
g5
(dp3963
g14
S''
sg17
g36
sg18
S''
sg20
g27
sg19
S''
sg15
g36
sg28
Nsg22
g37
stRp3964
ag3
(g4
g5
(dp3965
g14
S''
sg40
S'client'
p3966
sg18
S''
sg42
S'Domain'
p3967
sg19
S''
sg15
g3966
sg28
Nsg44
S'Stream client'
p3968
stRp3969
ag3
(g4
g5
(dp3970
g14
S''
sg40
S'name'
p3971
sg18
S''
sg42
S'Domain'
p3972
sg19
S''
sg15
g3971
sg28
Nsg44
S'Stream name'
p3973
stRp3974
ag3
(g4
g5
(dp3975
g14
S''
sg40
S'seq'
p3976
sg18
S''
sg42
S'Int'
p3977
sg19
S''
sg15
g3976
sg28
Nsg44
S'Sequence (line) number'
p3978
stRp3979
ag3
(g4
g5
(dp3980
g14
S''
sg40
S'change'
p3981
sg18
S''
sg42
S'Change'
p3982
sg19
S''
sg15
g3981
sg28
Nsg44
S'Versioned at change'
p3983
stRp3984
ag3
(g4
g5
(dp3985
g14
S''
sg40
S'parent'
p3986
sg18
S''
sg42
S'Domain'
p3987
sg19
S''
sg15
g3986
sg28
Nsg44
S'Parent stream name'
p3988
stRp3989
ag3
(g4
g5
(dp3990
g14
S''
sg40
S'type'
p3991
sg18
S''
sg42
S'StreamType'
p3992
sg19
S''
sg15
g3991
sg28
Nsg44
S'Type of stream'
p3993
stRp3994
ag3
(g4
g5
(dp3995
g14
S''
sg40
S'path'
p3996
sg18
S''
sg42
S'StreamPathType'
p3997
sg19
S''
sg15
g3996
sg28
Nsg44
S'Stream path type'
p3998
stRp3999
ag3
(g4
g5
(dp4000
g14
S''
sg40
S'viewFile'
p4001
sg18
S''
sg42
S'Mapping'
p4002
sg19
S''
sg15
g4001
sg28
Nsg44
S'View file (left hand side of path)'
p4003
stRp4004
ag3
(g4
g5
(dp4005
g14
S''
sg40
S'depotFile'
p4006
sg18
S''
sg42
S'Mapping'
p4007
sg19
S''
sg15
g4006
sg28
Nsg44
S'Depot file (right hand side of path)'
p4008
stRp4009
ag3
(g4
g5
(dp4010
g14
S''
sg40
S'changeMap'
p4011
sg18
S''
sg42
S'Value'
p4012
sg19
S''
sg15
g4011
sg28
Nsg44
S"Stream 'import' path changelist specifier. The changelist\n\t\t\tlimits in effect for a given client are displayed in a\n\t    \tread-only client spec field called 'ChangeView'"
p4013
stRp4014
ag3
(g4
g5
(dp4015
g14
S''
sg40
S'changeAtOpen'
p4016
sg18
S''
sg42
S'Change'
p4017
sg19
S''
sg15
g4016
sg28
Nsg44
S'Base change at time of opening'
p4018
stRp4019
atRp4020
sg68
g3953
sg69
S'1'
sg70
g71
sg44
S'Pending stream templates'
p4021
sg42
S'TemplateWx'
p4022
sg74
S'22'
p4023
sg40
S'db.templatewx'
p4024
stRp4025
sS'revsh'
p4026
g3
(g4
g5
(dp4027
g7
S'depotFile, depotRev, type, action, change'
p4028
sg9
g3
(g10
g11
(lp4029
g3
(g4
g5
(dp4030
g14
S''
sg15
g16
sg17
g16
sg18
S''
sg19
S''
sg20
g21
sg22
g23
stRp4031
ag3
(g4
g5
(dp4032
g14
S''
sg17
g26
sg18
S''
sg20
g27
sg19
S''
sg15
g26
sg28
Nsg22
g29
stRp4033
ag3
(g4
g5
(dp4034
g14
S''
sg17
g32
sg18
S''
sg20
g21
sg19
S''
sg15
g32
sg28
Nsg22
g33
stRp4035
ag3
(g4
g5
(dp4036
g14
S''
sg17
g36
sg18
S''
sg20
g27
sg19
S''
sg15
g36
sg28
Nsg22
g37
stRp4037
ag3
(g4
g5
(dp4038
g14
S''
sg40
g90
sg18
S''
sg42
g91
sg19
S''
sg15
g90
sg28
Nsg44
g92
stRp4039
ag3
(g4
g5
(dp4040
g14
S''
sg40
g95
sg18
S''
sg42
g96
sg19
S''
sg15
g95
sg28
Nsg44
g97
stRp4041
ag3
(g4
g5
(dp4042
g14
S''
sg40
g100
sg18
S''
sg42
g101
sg19
S''
sg15
g100
sg28
Nsg44
g102
stRp4043
ag3
(g4
g5
(dp4044
g14
S''
sg40
g105
sg18
S''
sg42
g106
sg19
S''
sg15
g105
sg28
Nsg44
g107
stRp4045
ag3
(g4
g5
(dp4046
g14
S''
sg40
g110
sg18
S''
sg42
g111
sg19
S''
sg15
g110
sg28
Nsg44
g112
stRp4047
ag3
(g4
g5
(dp4048
g14
S''
sg40
g115
sg18
S''
sg42
g116
sg19
S''
sg15
g115
sg28
Nsg44
g117
stRp4049
ag3
(g4
g5
(dp4050
g14
S''
sg40
g120
sg18
S''
sg42
g121
sg19
S''
sg15
g120
sg28
Nsg44
g122
stRp4051
ag3
(g4
g5
(dp4052
g14
S''
sg40
g125
sg18
S''
sg42
g126
sg19
S''
sg15
g125
sg28
Nsg44
g127
stRp4053
ag3
(g4
g5
(dp4054
g14
S''
sg40
g130
sg18
S''
sg42
g131
sg19
S''
sg15
g130
sg28
Nsg44
g132
stRp4055
ag3
(g4
g5
(dp4056
g14
S''
sg40
g135
sg18
S''
sg42
g136
sg19
S''
sg15
g135
sg28
Nsg44
g137
stRp4057
ag3
(g4
g5
(dp4058
g14
S''
sg40
g140
sg18
S''
sg42
g141
sg19
S''
sg15
g140
sg28
Nsg44
g142
stRp4059
ag3
(g4
g5
(dp4060
g14
S''
sg40
g145
sg18
S''
sg42
g146
sg19
S''
sg15
g145
sg28
Nsg44
g147
stRp4061
ag3
(g4
g5
(dp4062
g14
S''
sg40
g150
sg18
S''
sg42
g151
sg19
S''
sg15
g150
sg28
Nsg44
g152
stRp4063
ag3
(g4
g5
(dp4064
g14
S''
sg40
g155
sg18
S''
sg42
g156
sg19
S''
sg15
g155
sg28
Nsg44
g157
stRp4065
atRp4066
sg68
g4026
sg69
S'9'
sg70
g71
sg44
S'Revision records for shelved files'
p4067
sg42
S'Rev'
p4068
sg74
S'47'
p4069
sg40
S'db.revsh'
p4070
stRp4071
sS'changeidx'
p4072
g3
(g4
g5
(dp4073
g7
S'identity'
p4074
sg9
g3
(g10
g11
(lp4075
g3
(g4
g5
(dp4076
g14
S''
sg15
g16
sg17
g16
sg18
S''
sg19
S''
sg20
g21
sg22
g23
stRp4077
ag3
(g4
g5
(dp4078
g14
S''
sg17
g26
sg18
S''
sg20
g27
sg19
S''
sg15
g26
sg28
Nsg22
g29
stRp4079
ag3
(g4
g5
(dp4080
g14
S''
sg17
g32
sg18
S''
sg20
g21
sg19
S''
sg15
g32
sg28
Nsg22
g33
stRp4081
ag3
(g4
g5
(dp4082
g14
S''
sg17
g36
sg18
S''
sg20
g27
sg19
S''
sg15
g36
sg28
Nsg22
g37
stRp4083
ag3
(g4
g5
(dp4084
g14
S''
sg40
S'identity'
p4085
sg18
S''
sg42
S'Key'
p4086
sg19
S''
sg15
g4085
sg28
Nsg44
S'Identifier for this change'
p4087
stRp4088
ag3
(g4
g5
(dp4089
g14
S''
sg40
S'change'
p4090
sg18
S''
sg42
S'Change'
p4091
sg19
S''
sg15
g4090
sg28
Nsg44
S'Changelist'
p4092
stRp4093
atRp4094
sg68
g4072
sg69
S'1'
sg70
g71
sg44
S'Secondary index of db.change/db.changex'
p4095
sg42
S'ChangeIdx'
p4096
sg74
S'67'
p4097
sg40
S'db.changeidx'
p4098
stRp4099
sS'locksg'
p4100
g3
(g4
g5
(dp4101
g7
S'depotFile, client'
p4102
sg9
g3
(g10
g11
(lp4103
g3
(g4
g5
(dp4104
g14
S''
sg15
g16
sg17
g16
sg18
S''
sg19
S''
sg20
g21
sg22
g23
stRp4105
ag3
(g4
g5
(dp4106
g14
S''
sg17
g26
sg18
S''
sg20
g27
sg19
S''
sg15
g26
sg28
Nsg22
g29
stRp4107
ag3
(g4
g5
(dp4108
g14
S''
sg17
g32
sg18
S''
sg20
g21
sg19
S''
sg15
g32
sg28
Nsg22
g33
stRp4109
ag3
(g4
g5
(dp4110
g14
S''
sg17
g36
sg18
S''
sg20
g27
sg19
S''
sg15
g36
sg28
Nsg22
g37
stRp4111
ag3
(g4
g5
(dp4112
g14
S''
sg40
g2690
sg18
S''
sg42
g2691
sg19
S''
sg15
g2690
sg28
Nsg44
g2692
stRp4113
ag3
(g4
g5
(dp4114
g14
S''
sg40
g2695
sg18
S''
sg42
g2696
sg19
S''
sg15
g2695
sg28
Nsg44
g2697
stRp4115
ag3
(g4
g5
(dp4116
g14
S''
sg40
g2700
sg18
S''
sg42
g2701
sg19
S''
sg15
g2700
sg28
Nsg44
g2702
stRp4117
ag3
(g4
g5
(dp4118
g14
S''
sg40
g2705
sg18
S''
sg42
g2706
sg19
S''
sg15
g2705
sg28
Nsg44
g2707
stRp4119
ag3
(g4
g5
(dp4120
g14
S''
sg40
g2710
sg18
S''
sg42
g2711
sg19
S''
sg15
g2710
sg28
Nsg44
g2712
stRp4121
ag3
(g4
g5
(dp4122
g14
S''
sg40
g2715
sg18
S''
sg42
g2716
sg19
S''
sg15
g2715
sg28
Nsg44
g2717
stRp4123
atRp4124
sg68
g4100
sg69
S'2'
sg70
g71
sg44
S'Lock records for clients of type graph'
p4125
sg42
S'Locks'
p4126
sg74
S'55'
p4127
sg40
S'db.locksg'
p4128
stRp4129
sS'bodtextsx'
p4130
g3
(g4
g5
(dp4131
g7
S'type, shelf, key, attr'
p4132
sg9
g3
(g10
g11
(lp4133
g3
(g4
g5
(dp4134
g14
S''
sg15
g16
sg17
g16
sg18
S''
sg19
S''
sg20
g21
sg22
g23
stRp4135
ag3
(g4
g5
(dp4136
g14
S''
sg17
g26
sg18
S''
sg20
g27
sg19
S''
sg15
g26
sg28
Nsg22
g29
stRp4137
ag3
(g4
g5
(dp4138
g14
S''
sg17
g32
sg18
S''
sg20
g21
sg19
S''
sg15
g32
sg28
Nsg22
g33
stRp4139
ag3
(g4
g5
(dp4140
g14
S''
sg17
g36
sg18
S''
sg20
g27
sg19
S''
sg15
g36
sg28
Nsg22
g37
stRp4141
ag3
(g4
g5
(dp4142
g14
S''
sg40
S'type'
p4143
sg18
S''
sg42
S'Int'
p4144
sg19
S''
sg15
g4143
sg28
Nsg44
S'The type of spec'
p4145
stRp4146
ag3
(g4
g5
(dp4147
g14
S''
sg40
S'shelf'
p4148
sg18
S''
sg42
S'Change'
p4149
sg19
S''
sg15
g4148
sg28
Nsg44
S'The shelf to which this attribute belongs'
p4150
stRp4151
ag3
(g4
g5
(dp4152
g14
S''
sg40
S'key'
p4153
sg18
S''
sg42
S'Key'
p4154
sg19
S''
sg15
g4153
sg28
Nsg44
S'The spec to which this attribute belongs'
p4155
stRp4156
ag3
(g4
g5
(dp4157
g14
S''
sg40
S'attr'
p4158
sg18
S''
sg42
S'Int'
p4159
sg19
S''
sg15
g4158
sg28
Nsg44
S'The attribute number of this attribute'
p4160
stRp4161
ag3
(g4
g5
(dp4162
g14
S''
sg40
S'text'
p4163
sg18
S''
sg42
S'Text'
p4164
sg19
S''
sg15
g4163
sg28
Nsg44
S'The attribute value'
p4165
stRp4166
ag3
(g4
g5
(dp4167
g14
S''
sg40
S'workChange'
p4168
sg18
S''
sg42
S'Change'
p4169
sg19
S''
sg15
g4168
sg28
Nsg44
S'The working change'
p4170
stRp4171
atRp4172
sg68
g4130
sg69
S'0'
sg70
g71
sg44
S'Shelved openable spec fields'
p4173
sg42
S'BodyTextSx'
p4174
sg74
S'87'
p4175
sg40
S'db.bodtextsx'
p4176
stRp4177
sS'integtx'
p4178
g3
(g4
g5
(dp4179
g7
S'toFile, fromFile, startFromRev, endFromRev,\n\t\t\tstartToRev, endToRev'
p4180
sg9
g3
(g10
g11
(lp4181
g3
(g4
g5
(dp4182
g14
S''
sg15
g16
sg17
g16
sg18
S''
sg19
S''
sg20
g21
sg22
g23
stRp4183
ag3
(g4
g5
(dp4184
g14
S''
sg17
g26
sg18
S''
sg20
g27
sg19
S''
sg15
g26
sg28
Nsg22
g29
stRp4185
ag3
(g4
g5
(dp4186
g14
S''
sg17
g32
sg18
S''
sg20
g21
sg19
S''
sg15
g32
sg28
Nsg22
g33
stRp4187
ag3
(g4
g5
(dp4188
g14
S''
sg17
g36
sg18
S''
sg20
g27
sg19
S''
sg15
g36
sg28
Nsg22
g37
stRp4189
ag3
(g4
g5
(dp4190
g14
S''
sg40
g1494
sg18
S''
sg42
g1495
sg19
S''
sg15
g1494
sg28
Nsg44
g1496
stRp4191
ag3
(g4
g5
(dp4192
g14
S''
sg40
g1499
sg18
S''
sg42
g1500
sg19
S''
sg15
g1499
sg28
Nsg44
g1501
stRp4193
ag3
(g4
g5
(dp4194
g14
S''
sg40
g1504
sg18
S''
sg42
g1505
sg19
S''
sg15
g1504
sg28
Nsg44
g1506
stRp4195
ag3
(g4
g5
(dp4196
g14
S''
sg40
g1509
sg18
S''
sg42
g1510
sg19
S''
sg15
g1509
sg28
Nsg44
g1511
stRp4197
ag3
(g4
g5
(dp4198
g14
S''
sg40
g1514
sg18
S''
sg42
g1515
sg19
S''
sg15
g1514
sg28
Nsg44
g1516
stRp4199
ag3
(g4
g5
(dp4200
g14
S''
sg40
g1519
sg18
S''
sg42
g1520
sg19
S''
sg15
g1519
sg28
Nsg44
g1521
stRp4201
ag3
(g4
g5
(dp4202
g14
S''
sg40
g1524
sg18
S''
sg42
g1525
sg19
S''
sg15
g1524
sg28
Nsg44
g1526
stRp4203
ag3
(g4
g5
(dp4204
g14
S''
sg40
g1529
sg18
S''
sg42
g1530
sg19
S''
sg15
g1529
sg28
Nsg44
g1531
stRp4205
atRp4206
sg68
g4178
sg40
S'db.integtx'
p4207
sg69
S'0'
sg70
g71
sg866
S'db.resolve'
p4208
sg42
S'Integed'
p4209
sg74
S'34'
p4210
sg44
S'Temporary integration records used by task streams'
p4211
stRp4212
sS'protect'
p4213
g3
(g4
g5
(dp4214
g7
S'seq'
p4215
sg9
g3
(g10
g11
(lp4216
g3
(g4
g5
(dp4217
g14
S''
sg15
g16
sg17
g16
sg18
S''
sg19
S''
sg20
g21
sg22
g23
stRp4218
ag3
(g4
g5
(dp4219
g14
S''
sg17
g26
sg18
S''
sg20
g27
sg19
S''
sg15
g26
sg28
Nsg22
g29
stRp4220
ag3
(g4
g5
(dp4221
g14
S''
sg17
g32
sg18
S''
sg20
g21
sg19
S''
sg15
g32
sg28
Nsg22
g33
stRp4222
ag3
(g4
g5
(dp4223
g14
S''
sg17
g36
sg18
S''
sg20
g27
sg19
S''
sg15
g36
sg28
Nsg22
g37
stRp4224
ag3
(g4
g5
(dp4225
g14
S''
sg40
S'seq'
p4226
sg18
S''
sg42
S'Int'
p4227
sg19
S''
sg15
g4226
sg28
Nsg44
S'Sequence number: for ordering the protections table'
p4228
stRp4229
ag3
(g4
g5
(dp4230
g14
S''
sg40
S'isGroup'
p4231
sg18
S''
sg42
S'Int'
p4232
sg19
S''
sg15
g4231
sg28
Nsg44
S'Flag: 0 for a per-user setting, 1 for a per-group setting.'
p4233
stRp4234
ag3
(g4
g5
(dp4235
g14
S''
sg40
S'user'
p4236
sg18
S''
sg42
S'UserWild'
p4237
sg19
S''
sg15
g4236
sg28
Nsg44
S'User(s), or Group(s) for whom this record applies.'
p4238
stRp4239
ag3
(g4
g5
(dp4240
g14
S''
sg40
S'host'
p4241
sg18
S''
sg42
S'DomainWild'
p4242
sg19
S''
sg15
g4241
sg28
Nsg44
S'Domain(s) (IP addresses) for which this record applies.'
p4243
stRp4244
ag3
(g4
g5
(dp4245
g14
S''
sg40
S'perm'
p4246
sg18
S''
sg42
S'Perm'
p4247
sg19
S''
sg15
g4246
sg28
Nsg44
S'Permissions to be granted/revoked'
p4248
stRp4249
ag3
(g4
g5
(dp4250
g14
S''
sg40
S'mapFlag'
p4251
sg18
S''
sg42
S'MapFlag'
p4252
sg19
S''
sg15
g4251
sg28
Nsg44
S'Flag: Map the files in or out?'
p4253
stRp4254
ag3
(g4
g5
(dp4255
g14
S''
sg40
S'depotFile'
p4256
sg18
S''
sg42
S'Mapping'
p4257
sg19
S''
sg15
g4256
sg28
Nsg44
S'Files to be mapped in or out.'
p4258
stRp4259
ag3
(g4
g5
(dp4260
g14
S''
sg40
S'subPath'
p4261
sg18
S''
sg42
S'Mapping'
p4262
sg19
S''
sg15
g4261
sg28
Nsg44
S'Root path of the sub-protections table'
p4263
stRp4264
ag3
(g4
g5
(dp4265
g14
S''
sg40
S'update'
p4266
sg18
S''
sg42
S'Date'
p4267
sg19
S''
sg15
g4266
sg28
Nsg44
S'Date this specification was last modified'
p4268
stRp4269
atRp4270
sg68
g4213
sg69
S'5'
sg70
g71
sg44
S'The protections table'
p4271
sg42
S'Protect'
p4272
sg74
S'93'
p4273
sg40
S'db.protect'
p4274
stRp4275
sS'remote'
p4276
g3
(g4
g5
(dp4277
g7
S'id'
p4278
sg9
g3
(g10
g11
(lp4279
g3
(g4
g5
(dp4280
g14
S''
sg15
g16
sg17
g16
sg18
S''
sg19
S''
sg20
g21
sg22
g23
stRp4281
ag3
(g4
g5
(dp4282
g14
S''
sg17
g26
sg18
S''
sg20
g27
sg19
S''
sg15
g26
sg28
Nsg22
g29
stRp4283
ag3
(g4
g5
(dp4284
g14
S''
sg17
g32
sg18
S''
sg20
g21
sg19
S''
sg15
g32
sg28
Nsg22
g33
stRp4285
ag3
(g4
g5
(dp4286
g14
S''
sg17
g36
sg18
S''
sg20
g27
sg19
S''
sg15
g36
sg28
Nsg22
g37
stRp4287
ag3
(g4
g5
(dp4288
g14
S''
sg40
S'id'
p4289
sg18
S''
sg42
S'RemoteID'
p4290
sg19
S''
sg15
g4289
sg28
Nsg44
S'The remote identifier'
p4291
stRp4292
ag3
(g4
g5
(dp4293
g14
S''
sg40
S'owner'
p4294
sg18
S''
sg42
S'User'
p4295
sg19
S''
sg15
g4294
sg28
Nsg44
S'The user who created this remote'
p4296
stRp4297
ag3
(g4
g5
(dp4298
g14
S''
sg40
S'options'
p4299
sg18
S''
sg42
S'Int'
p4300
sg19
S''
sg15
g4299
sg28
Nsg44
S'Remote options bitmask: 0: unlocked/nocompress, 1: locked/nocompress, 2: unlocked/compress, 4: locked/compress'
p4301
stRp4302
ag3
(g4
g5
(dp4303
g14
S''
sg40
S'address'
p4304
sg18
S''
sg42
S'Text'
p4305
sg19
S''
sg15
g4304
sg28
Nsg44
S'The P4PORT used by the remote server'
p4306
stRp4307
ag3
(g4
g5
(dp4308
g14
S''
sg40
S'desc'
p4309
sg18
S''
sg42
S'Text'
p4310
sg19
S''
sg15
g4309
sg28
Nsg44
S'Description of the remote server'
p4311
stRp4312
ag3
(g4
g5
(dp4313
g14
S''
sg40
S'update'
p4314
sg18
S''
sg42
S'Date'
p4315
sg19
S''
sg15
g4314
sg28
Nsg44
S'The date this specification was last modified'
p4316
stRp4317
ag3
(g4
g5
(dp4318
g14
S''
sg40
S'access'
p4319
sg18
S''
sg42
S'Date'
p4320
sg19
S''
sg15
g4319
sg28
Nsg44
S'The date of the last push/fetch on this remote'
p4321
stRp4322
ag3
(g4
g5
(dp4323
g14
S''
sg40
S'fetch'
p4324
sg18
S''
sg42
S'Change'
p4325
sg19
S''
sg15
g4324
sg28
Nsg44
S'The last changelist that was fetched'
p4326
stRp4327
ag3
(g4
g5
(dp4328
g14
S''
sg40
S'push'
p4329
sg18
S''
sg42
S'Change'
p4330
sg19
S''
sg15
g4329
sg28
Nsg44
S'The last changelist that was pushed'
p4331
stRp4332
ag3
(g4
g5
(dp4333
g14
S''
sg40
S'rmtuser'
p4334
sg18
S''
sg42
S'User'
p4335
sg19
S''
sg15
g4334
sg28
Nsg44
S'The user to use when connecting to the remote server'
p4336
stRp4337
atRp4338
sg68
g4276
sg69
S'1'
sg70
g71
sg44
S'Remote specifications'
p4339
sg42
S'Remote'
p4340
sg74
S'8'
sg40
S'db.remote'
p4341
stRp4342
sS'haveview'
p4343
g3
(g4
g5
(dp4344
g7
S'name, seq'
p4345
sg9
g3
(g10
g11
(lp4346
g3
(g4
g5
(dp4347
g14
S''
sg15
g16
sg17
g16
sg18
S''
sg19
S''
sg20
g21
sg22
g23
stRp4348
ag3
(g4
g5
(dp4349
g14
S''
sg17
g26
sg18
S''
sg20
g27
sg19
S''
sg15
g26
sg28
Nsg22
g29
stRp4350
ag3
(g4
g5
(dp4351
g14
S''
sg17
g32
sg18
S''
sg20
g21
sg19
S''
sg15
g32
sg28
Nsg22
g33
stRp4352
ag3
(g4
g5
(dp4353
g14
S''
sg17
g36
sg18
S''
sg20
g27
sg19
S''
sg15
g36
sg28
Nsg22
g37
stRp4354
ag3
(g4
g5
(dp4355
g14
S''
sg40
g2224
sg18
S''
sg42
g2225
sg19
S''
sg15
g2224
sg28
Nsg44
g2226
stRp4356
ag3
(g4
g5
(dp4357
g14
S''
sg40
g2229
sg18
S''
sg42
g2230
sg19
S''
sg15
g2229
sg28
Nsg44
g2231
stRp4358
ag3
(g4
g5
(dp4359
g14
S''
sg40
g2234
sg18
S''
sg42
g2235
sg19
S''
sg15
g2234
sg28
Nsg44
g2236
stRp4360
ag3
(g4
g5
(dp4361
g14
S''
sg40
g2239
sg18
S''
sg42
g2240
sg19
S''
sg15
g2239
sg28
Nsg44
g2241
stRp4362
ag3
(g4
g5
(dp4363
g14
S''
sg40
g2244
sg18
S''
sg42
g2245
sg19
S''
sg15
g2244
sg28
Nsg44
g2246
stRp4364
atRp4365
sg68
g4343
sg69
S'1'
sg70
g71
sg44
S'Stores mapping changes for clients mapping graph depot content'
p4366
sg42
S'View'
p4367
sg74
S'26'
p4368
sg40
S'db.haveview'
p4369
stRp4370
sS'ixtexthx'
p4371
g3
(g4
g5
(dp4372
g7
S'type, word, attr, value'
p4373
sg9
g3
(g10
g11
(lp4374
g3
(g4
g5
(dp4375
g14
S''
sg15
g16
sg17
g16
sg18
S''
sg19
S''
sg20
g21
sg22
g23
stRp4376
ag3
(g4
g5
(dp4377
g14
S''
sg17
g26
sg18
S''
sg20
g27
sg19
S''
sg15
g26
sg28
Nsg22
g29
stRp4378
ag3
(g4
g5
(dp4379
g14
S''
sg17
g32
sg18
S''
sg20
g21
sg19
S''
sg15
g32
sg28
Nsg22
g33
stRp4380
ag3
(g4
g5
(dp4381
g14
S''
sg17
g36
sg18
S''
sg20
g27
sg19
S''
sg15
g36
sg28
Nsg22
g37
stRp4382
ag3
(g4
g5
(dp4383
g14
S''
sg40
S'type'
p4384
sg18
S''
sg42
S'SpecType'
p4385
sg19
S''
sg15
g4384
sg28
Nsg44
S'The type'
p4386
stRp4387
ag3
(g4
g5
(dp4388
g14
S''
sg40
S'word'
p4389
sg18
S''
sg42
S'Key'
p4390
sg19
S''
sg15
g4389
sg28
Nsg44
S'The word being indexed'
p4391
stRp4392
ag3
(g4
g5
(dp4393
g14
S''
sg40
S'attr'
p4394
sg18
S''
sg42
S'Int'
p4395
sg19
S''
sg15
g4394
sg28
Nsg44
S'The attribute number to which this word belongs.'
p4396
stRp4397
ag3
(g4
g5
(dp4398
g14
S''
sg40
S'value'
p4399
sg18
S''
sg42
S'Key'
p4400
sg19
S''
sg15
g4399
sg28
Nsg44
S'The value of the index keyed by the word.'
p4401
stRp4402
atRp4403
sg68
g4371
sg69
S'0'
sg70
g71
sg44
S'Indexing data for head revision of all spec fields'
p4404
sg42
S'IndexTextHx'
p4405
sg74
S'91'
p4406
sg40
S'db.ixtexthx'
p4407
stRp4408
sS'templatesx'
p4409
g3
(g4
g5
(dp4410
g7
S'shelf, name, seq'
p4411
sg9
g3
(g10
g11
(lp4412
g3
(g4
g5
(dp4413
g14
S''
sg15
g16
sg17
g16
sg18
S''
sg19
S''
sg20
g21
sg22
g23
stRp4414
ag3
(g4
g5
(dp4415
g14
S''
sg17
g26
sg18
S''
sg20
g27
sg19
S''
sg15
g26
sg28
Nsg22
g29
stRp4416
ag3
(g4
g5
(dp4417
g14
S''
sg17
g32
sg18
S''
sg20
g21
sg19
S''
sg15
g32
sg28
Nsg22
g33
stRp4418
ag3
(g4
g5
(dp4419
g14
S''
sg17
g36
sg18
S''
sg20
g27
sg19
S''
sg15
g36
sg28
Nsg22
g37
stRp4420
ag3
(g4
g5
(dp4421
g14
S''
sg40
S'shelf'
p4422
sg18
S''
sg42
S'Change'
p4423
sg19
S''
sg15
g4422
sg28
Nsg44
S'Shelf changelist number'
p4424
stRp4425
ag3
(g4
g5
(dp4426
g14
S''
sg40
S'name'
p4427
sg18
S''
sg42
S'Domain'
p4428
sg19
S''
sg15
g4427
sg28
Nsg44
S'Stream name'
p4429
stRp4430
ag3
(g4
g5
(dp4431
g14
S''
sg40
S'seq'
p4432
sg18
S''
sg42
S'Int'
p4433
sg19
S''
sg15
g4432
sg28
Nsg44
S'Sequence (line) number'
p4434
stRp4435
ag3
(g4
g5
(dp4436
g14
S''
sg40
S'change'
p4437
sg18
S''
sg42
S'Change'
p4438
sg19
S''
sg15
g4437
sg28
Nsg44
S'Versioned at change'
p4439
stRp4440
ag3
(g4
g5
(dp4441
g14
S''
sg40
S'parent'
p4442
sg18
S''
sg42
S'Domain'
p4443
sg19
S''
sg15
g4442
sg28
Nsg44
S'Parent stream name'
p4444
stRp4445
ag3
(g4
g5
(dp4446
g14
S''
sg40
S'type'
p4447
sg18
S''
sg42
S'StreamType'
p4448
sg19
S''
sg15
g4447
sg28
Nsg44
S'Type of stream'
p4449
stRp4450
ag3
(g4
g5
(dp4451
g14
S''
sg40
S'path'
p4452
sg18
S''
sg42
S'StreamPathType'
p4453
sg19
S''
sg15
g4452
sg28
Nsg44
S'Stream path type'
p4454
stRp4455
ag3
(g4
g5
(dp4456
g14
S''
sg40
S'viewFile'
p4457
sg18
S''
sg42
S'Mapping'
p4458
sg19
S''
sg15
g4457
sg28
Nsg44
S'View file (left hand side of path)'
p4459
stRp4460
ag3
(g4
g5
(dp4461
g14
S''
sg40
S'depotFile'
p4462
sg18
S''
sg42
S'Mapping'
p4463
sg19
S''
sg15
g4462
sg28
Nsg44
S'Depot file (right hand side of path)'
p4464
stRp4465
ag3
(g4
g5
(dp4466
g14
S''
sg40
S'changeMap'
p4467
sg18
S''
sg42
S'Value'
p4468
sg19
S''
sg15
g4467
sg28
Nsg44
S"Stream 'import' path changelist specifier. The changelist\n\t\t\tlimits in effect for a given client are displayed in a\n\t    \tread-only client spec field called 'ChangeView'"
p4469
stRp4470
ag3
(g4
g5
(dp4471
g14
S''
sg40
S'changeAtOpen'
p4472
sg18
S''
sg42
S'Change'
p4473
sg19
S''
sg15
g4472
sg28
Nsg44
S'Base change at time of opening'
p4474
stRp4475
atRp4476
sg68
g4409
sg69
S'1'
sg70
g71
sg44
S'Shelved stream templates'
p4477
sg42
S'TemplateSx'
p4478
sg74
S'21'
p4479
sg40
S'db.templatesx'
p4480
stRp4481
sS'uxtext'
p4482
g3
(g4
g5
(dp4483
g7
S'word, attr, value'
p4484
sg9
g3
(g10
g11
(lp4485
g3
(g4
g5
(dp4486
g14
S''
sg15
g16
sg17
g16
sg18
S''
sg19
S''
sg20
g21
sg22
g23
stRp4487
ag3
(g4
g5
(dp4488
g14
S''
sg17
g26
sg18
S''
sg20
g27
sg19
S''
sg15
g26
sg28
Nsg22
g29
stRp4489
ag3
(g4
g5
(dp4490
g14
S''
sg17
g32
sg18
S''
sg20
g21
sg19
S''
sg15
g32
sg28
Nsg22
g33
stRp4491
ag3
(g4
g5
(dp4492
g14
S''
sg17
g36
sg18
S''
sg20
g27
sg19
S''
sg15
g36
sg28
Nsg22
g37
stRp4493
ag3
(g4
g5
(dp4494
g14
S''
sg40
g315
sg18
S''
sg42
g316
sg19
S''
sg15
g315
sg28
Nsg44
g317
stRp4495
ag3
(g4
g5
(dp4496
g14
S''
sg40
g320
sg18
S''
sg42
g321
sg19
S''
sg15
g320
sg28
Nsg44
g322
stRp4497
ag3
(g4
g5
(dp4498
g14
S''
sg40
g325
sg18
S''
sg42
g326
sg19
S''
sg15
g325
sg28
Nsg44
g327
stRp4499
atRp4500
sg68
g4482
sg69
S'0'
sg70
g71
sg44
S'Indexing data for Swarm'
p4501
sg42
S'IndexText'
p4502
sg74
S'92'
p4503
sg40
S'db.uxtext'
p4504
stRp4505
sS'bodtextwx'
p4506
g3
(g4
g5
(dp4507
g7
S'type, client, key, attr'
p4508
sg9
g3
(g10
g11
(lp4509
g3
(g4
g5
(dp4510
g14
S''
sg15
g16
sg17
g16
sg18
S''
sg19
S''
sg20
g21
sg22
g23
stRp4511
ag3
(g4
g5
(dp4512
g14
S''
sg17
g26
sg18
S''
sg20
g27
sg19
S''
sg15
g26
sg28
Nsg22
g29
stRp4513
ag3
(g4
g5
(dp4514
g14
S''
sg17
g32
sg18
S''
sg20
g21
sg19
S''
sg15
g32
sg28
Nsg22
g33
stRp4515
ag3
(g4
g5
(dp4516
g14
S''
sg17
g36
sg18
S''
sg20
g27
sg19
S''
sg15
g36
sg28
Nsg22
g37
stRp4517
ag3
(g4
g5
(dp4518
g14
S''
sg40
S'type'
p4519
sg18
S''
sg42
S'Int'
p4520
sg19
S''
sg15
g4519
sg28
Nsg44
S'The type of spec'
p4521
stRp4522
ag3
(g4
g5
(dp4523
g14
S''
sg40
S'client'
p4524
sg18
S''
sg42
S'Domain'
p4525
sg19
S''
sg15
g4524
sg28
Nsg44
S'The client the spec is opened on'
p4526
stRp4527
ag3
(g4
g5
(dp4528
g14
S''
sg40
S'key'
p4529
sg18
S''
sg42
S'Key'
p4530
sg19
S''
sg15
g4529
sg28
Nsg44
S'The spec to which this attribute belongs'
p4531
stRp4532
ag3
(g4
g5
(dp4533
g14
S''
sg40
S'attr'
p4534
sg18
S''
sg42
S'Int'
p4535
sg19
S''
sg15
g4534
sg28
Nsg44
S'The attribute number of this attribute'
p4536
stRp4537
ag3
(g4
g5
(dp4538
g14
S''
sg40
S'text'
p4539
sg18
S''
sg42
S'Text'
p4540
sg19
S''
sg15
g4539
sg28
Nsg44
S'The attribute value'
p4541
stRp4542
ag3
(g4
g5
(dp4543
g14
S''
sg40
S'workChange'
p4544
sg18
S''
sg42
S'Change'
p4545
sg19
S''
sg15
g4544
sg28
Nsg44
S'The working change'
p4546
stRp4547
atRp4548
sg68
g4506
sg69
S'0'
sg70
g71
sg44
S'Open openable spec fields'
p4549
sg42
S'BodyTextWx'
p4550
sg74
S'88'
p4551
sg40
S'db.bodtextwx'
p4552
stRp4553
sS'stash'
p4554
g3
(g4
g5
(dp4555
g7
S'client, stream, type, seq'
p4556
sg9
g3
(g10
g11
(lp4557
g3
(g4
g5
(dp4558
g14
S''
sg15
g16
sg17
g16
sg18
S''
sg19
S''
sg20
g21
sg22
g23
stRp4559
ag3
(g4
g5
(dp4560
g14
S''
sg17
g26
sg18
S''
sg20
g27
sg19
S''
sg15
g26
sg28
Nsg22
g29
stRp4561
ag3
(g4
g5
(dp4562
g14
S''
sg17
g32
sg18
S''
sg20
g21
sg19
S''
sg15
g32
sg28
Nsg22
g33
stRp4563
ag3
(g4
g5
(dp4564
g14
S''
sg17
g36
sg18
S''
sg20
g27
sg19
S''
sg15
g36
sg28
Nsg22
g37
stRp4565
ag3
(g4
g5
(dp4566
g14
S''
sg40
S'client'
p4567
sg18
S''
sg42
S'Domain'
p4568
sg19
S''
sg15
g4567
sg28
Nsg44
S'Client the stash refers to'
p4569
stRp4570
ag3
(g4
g5
(dp4571
g14
S''
sg40
S'stream'
p4572
sg18
S''
sg42
S'Domain'
p4573
sg19
S''
sg15
g4572
sg28
Nsg44
S'Stream the stash refers to'
p4574
stRp4575
ag3
(g4
g5
(dp4576
g14
S''
sg40
S'type'
p4577
sg18
S''
sg42
S'StashType'
p4578
sg19
S''
sg15
g4577
sg28
Nsg44
S'Stash type'
p4579
stRp4580
ag3
(g4
g5
(dp4581
g14
S''
sg40
S'seq'
p4582
sg18
S''
sg42
S'Int'
p4583
sg19
S''
sg15
g4582
sg28
Nsg44
S'Sequence number'
p4584
stRp4585
ag3
(g4
g5
(dp4586
g14
S''
sg40
S'change'
p4587
sg18
S''
sg42
S'Change'
p4588
sg19
S''
sg15
g4587
sg28
Nsg44
S'Stash change number'
p4589
stRp4590
atRp4591
sg68
g4554
sg69
S'0'
sg70
g71
sg44
S'Stash data'
p4592
sg42
S'Stash'
p4593
sg74
S'10'
p4594
sg40
S'db.stash'
p4595
stRp4596
sS'graphperm'
p4597
g3
(g4
g5
(dp4598
g7
S'name, repo, ref, type, user, perm'
p4599
sg9
g3
(g10
g11
(lp4600
g3
(g4
g5
(dp4601
g14
S''
sg15
g16
sg17
g16
sg18
S''
sg19
S''
sg20
g21
sg22
g23
stRp4602
ag3
(g4
g5
(dp4603
g14
S''
sg17
g26
sg18
S''
sg20
g27
sg19
S''
sg15
g26
sg28
Nsg22
g29
stRp4604
ag3
(g4
g5
(dp4605
g14
S''
sg17
g32
sg18
S''
sg20
g21
sg19
S''
sg15
g32
sg28
Nsg22
g33
stRp4606
ag3
(g4
g5
(dp4607
g14
S''
sg17
g36
sg18
S''
sg20
g27
sg19
S''
sg15
g36
sg28
Nsg22
g37
stRp4608
ag3
(g4
g5
(dp4609
g14
S''
sg40
S'name'
p4610
sg18
S''
sg42
S'Domain'
p4611
sg19
S''
sg15
g4610
sg28
Nsg44
S'Graph depot name'
p4612
stRp4613
ag3
(g4
g5
(dp4614
g14
S''
sg40
S'repo'
p4615
sg18
S''
sg42
S'Mapping'
p4616
sg19
S''
sg15
g4615
sg28
Nsg44
S'Repository name'
p4617
stRp4618
ag3
(g4
g5
(dp4619
g14
S''
sg40
S'ref'
p4620
sg18
S''
sg42
S'Mapping'
p4621
sg19
S''
sg15
g4620
sg28
Nsg44
S'Reference'
p4622
stRp4623
ag3
(g4
g5
(dp4624
g14
S''
sg40
S'type'
p4625
sg18
S''
sg42
S'UserType'
p4626
sg19
S''
sg15
g4625
sg28
Nsg44
S'Type of user'
p4627
stRp4628
ag3
(g4
g5
(dp4629
g14
S''
sg40
S'user'
p4630
sg18
S''
sg42
S'UserWild'
p4631
sg19
S''
sg15
g4630
sg28
Nsg44
S'User or Group for permission'
p4632
stRp4633
ag3
(g4
g5
(dp4634
g14
S''
sg40
S'perm'
p4635
sg18
S''
sg42
S'GraphPermType'
p4636
sg19
S''
sg15
g4635
sg28
Nsg44
S'Permission'
p4637
stRp4638
atRp4639
sg68
g4597
sg69
S'0'
sg70
g71
sg44
S'Graph depot permissions'
p4640
sg42
S'GraphPerm'
p4641
sg74
S'74'
p4642
sg40
S'db.graphperm'
p4643
stRp4644
sS'userrp'
p4645
g3
(g4
g5
(dp4646
g7
S'user'
p4647
sg9
g3
(g10
g11
(lp4648
g3
(g4
g5
(dp4649
g14
S''
sg15
g16
sg17
g16
sg18
S''
sg19
S''
sg20
g21
sg22
g23
stRp4650
ag3
(g4
g5
(dp4651
g14
S''
sg17
g26
sg18
S''
sg20
g27
sg19
S''
sg15
g26
sg28
Nsg22
g29
stRp4652
ag3
(g4
g5
(dp4653
g14
S''
sg17
g32
sg18
S''
sg20
g21
sg19
S''
sg15
g32
sg28
Nsg22
g33
stRp4654
ag3
(g4
g5
(dp4655
g14
S''
sg17
g36
sg18
S''
sg20
g27
sg19
S''
sg15
g36
sg28
Nsg22
g37
stRp4656
ag3
(g4
g5
(dp4657
g14
S''
sg40
g2267
sg18
S''
sg42
g2268
sg19
S''
sg15
g2267
sg28
Nsg44
g2269
stRp4658
ag3
(g4
g5
(dp4659
g14
S''
sg40
g2272
sg18
S''
sg42
g2273
sg19
S''
sg15
g2272
sg28
Nsg44
g2274
stRp4660
ag3
(g4
g5
(dp4661
g14
S''
sg40
g2277
sg18
S''
sg42
g2278
sg19
S''
sg15
g2277
sg28
Nsg44
g2279
stRp4662
ag3
(g4
g5
(dp4663
g14
S''
sg40
g2282
sg18
S''
sg42
g2283
sg19
S''
sg15
g2282
sg28
Nsg44
g2284
stRp4664
ag3
(g4
g5
(dp4665
g14
S''
sg40
g2287
sg18
S''
sg42
g2288
sg19
S''
sg15
g2287
sg28
Nsg44
g2289
stRp4666
ag3
(g4
g5
(dp4667
g14
S''
sg40
g2292
sg18
S''
sg42
g2293
sg19
S''
sg15
g2292
sg28
Nsg44
g2294
stRp4668
ag3
(g4
g5
(dp4669
g14
S''
sg40
g2297
sg18
S''
sg42
g2298
sg19
S''
sg15
g2297
sg28
Nsg44
g2299
stRp4670
ag3
(g4
g5
(dp4671
g14
S''
sg40
g2302
sg18
S''
sg42
g2303
sg19
S''
sg15
g2302
sg28
Nsg44
g2304
stRp4672
ag3
(g4
g5
(dp4673
g14
S''
sg40
g2307
sg18
S''
sg42
g2308
sg19
S''
sg15
g2307
sg28
Nsg44
g2309
stRp4674
ag3
(g4
g5
(dp4675
g14
S''
sg40
g2312
sg18
S''
sg42
g2313
sg19
S''
sg15
g2312
sg28
Nsg44
g2314
stRp4676
ag3
(g4
g5
(dp4677
g14
S''
sg40
g2317
sg18
S''
sg42
g2318
sg19
S''
sg15
g2317
sg28
Nsg44
g2319
stRp4678
ag3
(g4
g5
(dp4679
g14
S''
sg40
g2322
sg18
S''
sg42
g2323
sg19
S''
sg15
g2322
sg28
Nsg44
g2324
stRp4680
ag3
(g4
g5
(dp4681
g14
S''
sg40
g2327
sg18
S''
sg42
g2328
sg19
S''
sg15
g2327
sg28
Nsg44
g2329
stRp4682
ag3
(g4
g5
(dp4683
g14
S''
sg40
g2332
sg18
S''
sg42
g2333
sg19
S''
sg15
g2332
sg28
Nsg44
g2334
stRp4684
ag3
(g4
g5
(dp4685
g14
S''
sg40
g2337
sg18
S''
sg42
g2338
sg19
S''
sg15
g2337
sg28
Nsg44
g2339
stRp4686
atRp4687
sg68
g4645
sg69
S'7'
sg70
g71
sg44
S"Used by replica server's to store login information"
p4688
sg42
S'User'
p4689
sg74
S'11'
p4690
sg40
S'db.user.rp'
p4691
stRp4692
sS'storagesh'
p4693
g3
(g4
g5
(dp4694
g7
S'file, rev, type'
p4695
sg9
g3
(g10
g11
(lp4696
g3
(g4
g5
(dp4697
g14
S''
sg15
g16
sg17
g16
sg18
S''
sg19
S''
sg20
g21
sg22
g23
stRp4698
ag3
(g4
g5
(dp4699
g14
S''
sg17
g26
sg18
S''
sg20
g27
sg19
S''
sg15
g26
sg28
Nsg22
g29
stRp4700
ag3
(g4
g5
(dp4701
g14
S''
sg17
g32
sg18
S''
sg20
g21
sg19
S''
sg15
g32
sg28
Nsg22
g33
stRp4702
ag3
(g4
g5
(dp4703
g14
S''
sg17
g36
sg18
S''
sg20
g27
sg19
S''
sg15
g36
sg28
Nsg22
g37
stRp4704
ag3
(g4
g5
(dp4705
g14
S''
sg40
g3172
sg18
S''
sg42
g3173
sg19
S''
sg15
g3172
sg28
Nsg44
g3174
stRp4706
ag3
(g4
g5
(dp4707
g14
S''
sg40
g3177
sg18
S''
sg42
g3178
sg19
S''
sg15
g3177
sg28
Nsg44
g3179
stRp4708
ag3
(g4
g5
(dp4709
g14
S''
sg40
g3182
sg18
S''
sg42
g3183
sg19
S''
sg15
g3182
sg28
Nsg44
g3184
stRp4710
ag3
(g4
g5
(dp4711
g14
S''
sg40
g3187
sg18
S''
sg42
g3188
sg19
S''
sg15
g3187
sg28
Nsg44
g3189
stRp4712
ag3
(g4
g5
(dp4713
g14
S''
sg40
g3192
sg18
S''
sg42
g3193
sg19
S''
sg15
g3192
sg28
Nsg44
g3194
stRp4714
ag3
(g4
g5
(dp4715
g14
S''
sg40
g3197
sg18
S''
sg42
g3198
sg19
S''
sg15
g3197
sg28
Nsg44
g3199
stRp4716
ag3
(g4
g5
(dp4717
g14
S''
sg40
g3202
sg18
S''
sg42
g3203
sg19
S''
sg15
g3202
sg28
Nsg44
g3204
stRp4718
ag3
(g4
g5
(dp4719
g14
S''
sg40
g3207
sg18
S''
sg42
g3208
sg19
S''
sg15
g3207
sg28
Nsg44
g3209
stRp4720
ag3
(g4
g5
(dp4721
g14
S''
sg40
g3212
sg18
S''
sg42
g3213
sg19
S''
sg15
g3212
sg28
Nsg44
g3214
stRp4722
atRp4723
sg68
g4693
sg69
S'0'
sg70
g71
sg44
S'Track references to shelved archive files'
p4724
sg42
S'Storage'
p4725
sg74
S'40'
p4726
sg40
S'db.storagesh'
p4727
stRp4728
sS'exclg'
p4729
g3
(g4
g5
(dp4730
g7
S'repo, ref, file'
p4731
sg9
g3
(g10
g11
(lp4732
g3
(g4
g5
(dp4733
g14
S''
sg15
g16
sg17
g16
sg18
S''
sg19
S''
sg20
g21
sg22
g23
stRp4734
ag3
(g4
g5
(dp4735
g14
S''
sg17
g26
sg18
S''
sg20
g27
sg19
S''
sg15
g26
sg28
Nsg22
g29
stRp4736
ag3
(g4
g5
(dp4737
g14
S''
sg17
g32
sg18
S''
sg20
g21
sg19
S''
sg15
g32
sg28
Nsg22
g33
stRp4738
ag3
(g4
g5
(dp4739
g14
S''
sg17
g36
sg18
S''
sg20
g27
sg19
S''
sg15
g36
sg28
Nsg22
g37
stRp4740
ag3
(g4
g5
(dp4741
g14
S''
sg40
S'repo'
p4742
sg18
S''
sg42
S'Key'
p4743
sg19
S''
sg15
g4742
sg28
Nsg44
S'The name of the repository on which the lock is applied'
p4744
stRp4745
ag3
(g4
g5
(dp4746
g14
S''
sg40
S'ref'
p4747
sg18
S''
sg42
S'Text'
p4748
sg19
S''
sg15
g4747
sg28
Nsg44
S'The reference on which the lock is applied'
p4749
stRp4750
ag3
(g4
g5
(dp4751
g14
S''
sg40
S'file'
p4752
sg18
S''
sg42
S'File'
p4753
sg19
S''
sg15
g4752
sg28
Nsg44
S'The git file path'
p4754
stRp4755
ag3
(g4
g5
(dp4756
g14
S''
sg40
S'lockId'
p4757
sg18
S''
sg42
S'String'
p4758
sg19
S''
sg15
g4757
sg28
Nsg44
S'The git LFS lock identifier'
p4759
stRp4760
ag3
(g4
g5
(dp4761
g14
S''
sg40
S'user'
p4762
sg18
S''
sg42
S'User'
p4763
sg19
S''
sg15
g4762
sg28
Nsg44
S'The user for which the file is locked'
p4764
stRp4765
ag3
(g4
g5
(dp4766
g14
S''
sg40
S'created'
p4767
sg18
S''
sg42
S'String'
p4768
sg19
S''
sg15
g4767
sg28
Nsg44
S'The lock creation date stored in git data format'
p4769
stRp4770
atRp4771
sg68
g4729
sg69
S'0'
sg70
g71
sg44
S'Graph depot LFS locks'
p4772
sg42
S'ExclG'
p4773
sg74
S'61'
p4774
sg40
S'db.exclg'
p4775
stRp4776
sS'viewrp'
p4777
g3
(g4
g5
(dp4778
g7
S'name, seq'
p4779
sg9
g3
(g10
g11
(lp4780
g3
(g4
g5
(dp4781
g14
S''
sg15
g16
sg17
g16
sg18
S''
sg19
S''
sg20
g21
sg22
g23
stRp4782
ag3
(g4
g5
(dp4783
g14
S''
sg17
g26
sg18
S''
sg20
g27
sg19
S''
sg15
g26
sg28
Nsg22
g29
stRp4784
ag3
(g4
g5
(dp4785
g14
S''
sg17
g32
sg18
S''
sg20
g21
sg19
S''
sg15
g32
sg28
Nsg22
g33
stRp4786
ag3
(g4
g5
(dp4787
g14
S''
sg17
g36
sg18
S''
sg20
g27
sg19
S''
sg15
g36
sg28
Nsg22
g37
stRp4788
ag3
(g4
g5
(dp4789
g14
S''
sg40
g2224
sg18
S''
sg42
g2225
sg19
S''
sg15
g2224
sg28
Nsg44
g2226
stRp4790
ag3
(g4
g5
(dp4791
g14
S''
sg40
g2229
sg18
S''
sg42
g2230
sg19
S''
sg15
g2229
sg28
Nsg44
g2231
stRp4792
ag3
(g4
g5
(dp4793
g14
S''
sg40
g2234
sg18
S''
sg42
g2235
sg19
S''
sg15
g2234
sg28
Nsg44
g2236
stRp4794
ag3
(g4
g5
(dp4795
g14
S''
sg40
g2239
sg18
S''
sg42
g2240
sg19
S''
sg15
g2239
sg28
Nsg44
g2241
stRp4796
ag3
(g4
g5
(dp4797
g14
S''
sg40
g2244
sg18
S''
sg42
g2245
sg19
S''
sg15
g2244
sg28
Nsg44
g2246
stRp4798
atRp4799
sg68
g4777
sg69
S'1'
sg70
g71
sg44
S'View data for clients of build-server replicas'
p4800
sg42
S'View'
p4801
sg74
S'23'
p4802
sg40
S'db.view.rp'
p4803
stRp4804
sS'changex'
p4805
g3
(g4
g5
(dp4806
g7
S'change'
p4807
sg9
g3
(g10
g11
(lp4808
g3
(g4
g5
(dp4809
g14
S''
sg15
g16
sg17
g16
sg18
S''
sg19
S''
sg20
g21
sg22
g23
stRp4810
ag3
(g4
g5
(dp4811
g14
S''
sg17
g26
sg18
S''
sg20
g27
sg19
S''
sg15
g26
sg28
Nsg22
g29
stRp4812
ag3
(g4
g5
(dp4813
g14
S''
sg17
g32
sg18
S''
sg20
g21
sg19
S''
sg15
g32
sg28
Nsg22
g33
stRp4814
ag3
(g4
g5
(dp4815
g14
S''
sg17
g36
sg18
S''
sg20
g27
sg19
S''
sg15
g36
sg28
Nsg22
g37
stRp4816
ag3
(g4
g5
(dp4817
g14
S''
sg40
g1008
sg18
S''
sg42
g1009
sg19
S''
sg15
g1008
sg28
Nsg44
g1010
stRp4818
ag3
(g4
g5
(dp4819
g14
S''
sg40
g1013
sg18
S''
sg42
g1014
sg19
S''
sg15
g1013
sg28
Nsg44
g1015
stRp4820
ag3
(g4
g5
(dp4821
g14
S''
sg40
g1018
sg18
S''
sg42
g1019
sg19
S''
sg15
g1018
sg28
Nsg44
g1020
stRp4822
ag3
(g4
g5
(dp4823
g14
S''
sg40
g1023
sg18
S''
sg42
g1024
sg19
S''
sg15
g1023
sg28
Nsg44
g1025
stRp4824
ag3
(g4
g5
(dp4825
g14
S''
sg40
g1028
sg18
S''
sg42
g1029
sg19
S''
sg15
g1028
sg28
Nsg44
g1030
stRp4826
ag3
(g4
g5
(dp4827
g14
S''
sg40
g1033
sg18
S''
sg42
g1034
sg19
S''
sg15
g1033
sg28
Nsg44
g1035
stRp4828
ag3
(g4
g5
(dp4829
g14
S''
sg40
g1038
sg18
S''
sg42
g1039
sg19
S''
sg15
g1038
sg28
Nsg44
g1040
stRp4830
ag3
(g4
g5
(dp4831
g14
S''
sg40
g1043
sg18
S''
sg42
g1044
sg19
S''
sg15
g1043
sg28
Nsg44
g1045
stRp4832
ag3
(g4
g5
(dp4833
g14
S''
sg40
g1048
sg18
S''
sg42
g1049
sg19
S''
sg15
g1048
sg28
Nsg44
g1050
stRp4834
ag3
(g4
g5
(dp4835
g14
S''
sg40
g1053
sg18
S''
sg42
g1054
sg19
S''
sg15
g1053
sg28
Nsg44
g1055
stRp4836
ag3
(g4
g5
(dp4837
g14
S''
sg40
g1058
sg18
S''
sg42
g1059
sg19
S''
sg15
g1058
sg28
Nsg44
g1060
stRp4838
ag3
(g4
g5
(dp4839
g14
S''
sg40
g1063
sg18
S''
sg42
g1064
sg19
S''
sg15
g1063
sg28
Nsg44
g1065
stRp4840
ag3
(g4
g5
(dp4841
g14
S''
sg40
g1068
sg18
S''
sg42
g1069
sg19
S''
sg15
g1068
sg28
Nsg44
g1070
stRp4842
atRp4843
sg68
g4805
sg206
S'contains records for pending changelists only.'
p4844
sg69
S'6'
sg70
g71
sg44
S'Subset of db.change - records for pending changelists only'
p4845
sg42
S'Change'
p4846
sg74
S'66'
p4847
sg40
S'db.changex'
p4848
stRp4849
s.