(dp1
S'domain'
p2
ccopy_reg
_reconstructor
p3
(clib.sqUtils
Storage
p4
c__builtin__
dict
p5
(dp6
S'keying'
p7
S'name'
p8
sS'peek_lockseq'
p9
S'16'
p10
sS'fields'
p11
g3
(clib.sqUtils
Lst
p12
c__builtin__
list
p13
(lp14
g3
(g4
g5
(dp15
S'comment'
p16
S''
sS'fieldname'
p17
S'id'
p18
sS'name'
p19
g18
sS'default'
p20
S''
sS'label'
p21
S''
sS'type'
p22
S'integer'
p23
sS'desc'
p24
S'Record number as read in'
p25
stRp26
ag3
(g4
g5
(dp27
g16
S''
sg19
S'db_action'
p28
sg20
S''
sg22
S'string'
p29
sg21
S''
sg17
g28
sS'requires'
p30
Nsg24
S'Operation on table'
p31
stRp32
ag3
(g4
g5
(dp33
g16
S''
sg19
S'table_revision'
p34
sg20
S''
sg22
g23
sg21
S''
sg17
g34
sg30
Nsg24
S'Revision of the p4 schema table'
p35
stRp36
ag3
(g4
g5
(dp37
g16
S''
sg19
S'table_name'
p38
sg20
S''
sg22
g29
sg21
S''
sg17
g38
sg30
Nsg24
S'Redundant... but this is the table name'
p39
stRp40
ag3
(g4
g5
(dp41
g16
S''
sS'name'
p42
S'name'
p43
sg20
S''
sS'type'
p44
S'Domain'
p45
sg21
S''
sg17
g43
sg30
NsS'desc'
p46
S'Domain name'
p47
stRp48
ag3
(g4
g5
(dp49
g16
S''
sg42
S'type'
p50
sg20
S''
sg44
S'DomainType'
p51
sg21
S''
sg17
g50
sg30
Nsg46
S'Type of domain'
p52
stRp53
ag3
(g4
g5
(dp54
g16
S''
sg42
S'extra'
p55
sg20
S''
sg44
S'Text'
p56
sg21
S''
sg17
g55
sg30
Nsg46
S'Formerly "host". Associated host or, for labels, revision \n\t\t    number.'
p57
stRp58
ag3
(g4
g5
(dp59
g16
S''
sg42
S'mount'
p60
sg20
S''
sg44
S'Text'
p61
sg21
S''
sg17
g60
sg30
Nsg46
S'The client root'
p62
stRp63
ag3
(g4
g5
(dp64
g16
S''
sg42
S'mount2'
p65
sg20
S''
sg44
S'Text'
p66
sg21
S''
sg17
g65
sg30
Nsg46
S'Alternate client root'
p67
stRp68
ag3
(g4
g5
(dp69
g16
S''
sg42
S'mount3'
p70
sg20
S''
sg44
S'Text'
p71
sg21
S''
sg17
g70
sg30
Nsg46
S'Alternate client root'
p72
stRp73
ag3
(g4
g5
(dp74
g16
S''
sg42
S'owner'
p75
sg20
S''
sg44
S'User'
p76
sg21
S''
sg17
g75
sg30
Nsg46
S'Name of user who owns the domain.'
p77
stRp78
ag3
(g4
g5
(dp79
g16
S''
sg42
S'updateDate'
p80
sg20
S''
sg44
S'Date'
p81
sg21
S''
sg17
g80
sg30
Nsg46
S'Date of last update to domain specification.'
p82
stRp83
ag3
(g4
g5
(dp84
g16
S''
sg42
S'accessDate'
p85
sg20
S''
sg44
S'Date'
p86
sg21
S''
sg17
g85
sg30
Nsg46
S'Date of last access to domain specification.'
p87
stRp88
ag3
(g4
g5
(dp89
g16
S''
sg42
S'options'
p90
sg20
S''
sg44
S'DomainOpts'
p91
sg21
S''
sg17
g90
sg30
Nsg46
S'Options for client, label, and branch domains.'
p92
stRp93
ag3
(g4
g5
(dp94
g16
S''
sg42
S'description'
p95
sg20
S''
sg44
S'Text'
p96
sg21
S''
sg17
g95
sg30
Nsg46
S'Description of domain.'
p97
stRp98
ag3
(g4
g5
(dp99
g16
S''
sg42
S'stream'
p100
sg20
S''
sg44
S'Text'
p101
sg21
S''
sg17
g100
sg30
Nsg46
S'Associated stream for client records'
p102
stRp103
ag3
(g4
g5
(dp104
g16
S''
sg42
S'serverid'
p105
sg20
S''
sg44
S'Text'
p106
sg21
S''
sg17
g105
sg30
Nsg46
S'Associated server ID for client records'
p107
stRp108
ag3
(g4
g5
(dp109
g16
S''
sg42
S'partition'
p110
sg20
S''
sg44
S'Int'
p111
sg21
S''
sg17
g110
sg30
Nsg46
S'Currently unused. Reserved for future use'
p112
stRp113
atRp114
sS'tablename'
p115
g2
sg42
S'db.domain'
p116
sS'version'
p117
S'6'
sS'classic_lockseq'
p118
S'16'
p119
sS'schemaversion'
p120
S'2015.1'
p121
sg44
S'Domain'
p122
sg46
S'Domains: depots, clients, labels, branches, streams, and typemap'
p123
stRp124
sS'have'
p125
g3
(g4
g5
(dp126
g7
S'clientFile'
p127
sg9
S'23'
p128
sg11
g3
(g12
g13
(lp129
g3
(g4
g5
(dp130
g16
S''
sg17
g18
sg19
g18
sg20
S''
sg21
S''
sg22
g23
sg24
g25
stRp131
ag3
(g4
g5
(dp132
g16
S''
sg19
g28
sg20
S''
sg22
g29
sg21
S''
sg17
g28
sg30
Nsg24
g31
stRp133
ag3
(g4
g5
(dp134
g16
S''
sg19
g34
sg20
S''
sg22
g23
sg21
S''
sg17
g34
sg30
Nsg24
g35
stRp135
ag3
(g4
g5
(dp136
g16
S''
sg19
g38
sg20
S''
sg22
g29
sg21
S''
sg17
g38
sg30
Nsg24
g39
stRp137
ag3
(g4
g5
(dp138
g16
S''
sg42
S'clientFile'
p139
sg20
S''
sg44
S'File'
p140
sg21
S''
sg17
g139
sg30
Nsg46
S'The file in its location on the client'
p141
stRp142
ag3
(g4
g5
(dp143
g16
S''
sg42
S'depotFile'
p144
sg20
S''
sg44
S'File'
p145
sg21
S''
sg17
g144
sg30
Nsg46
S'The file in the depot'
p146
stRp147
ag3
(g4
g5
(dp148
g16
S''
sg42
S'haveRev'
p149
sg20
S''
sg44
S'Rev'
p150
sg21
S''
sg17
g149
sg30
Nsg46
S'The revision synced to the client'
p151
stRp152
ag3
(g4
g5
(dp153
g16
S''
sg42
S'type'
p154
sg20
S''
sg44
S'FileType'
p155
sg21
S''
sg17
g154
sg30
Nsg46
S'The filetype of the synced revision'
p156
stRp157
ag3
(g4
g5
(dp158
g16
S''
sg42
S'time'
p159
sg20
S''
sg44
S'Date'
p160
sg21
S''
sg17
g159
sg30
Nsg46
S'The sync time of the synced revision'
p161
stRp162
atRp163
sg115
g125
sg42
S'db.have'
p164
sg117
S'3'
sg118
S'26'
p165
sg120
g121
sg44
S'Have'
p166
sg46
S"Contains the 'have-list' for all clients"
p167
stRp168
sS'stream'
p169
g3
(g4
g5
(dp170
g7
S'stream'
p171
sg9
S'15'
p172
sg11
g3
(g12
g13
(lp173
g3
(g4
g5
(dp174
g16
S''
sg17
g18
sg19
g18
sg20
S''
sg21
S''
sg22
g23
sg24
g25
stRp175
ag3
(g4
g5
(dp176
g16
S''
sg19
g28
sg20
S''
sg22
g29
sg21
S''
sg17
g28
sg30
Nsg24
g31
stRp177
ag3
(g4
g5
(dp178
g16
S''
sg19
g34
sg20
S''
sg22
g23
sg21
S''
sg17
g34
sg30
Nsg24
g35
stRp179
ag3
(g4
g5
(dp180
g16
S''
sg19
g38
sg20
S''
sg22
g29
sg21
S''
sg17
g38
sg30
Nsg24
g39
stRp181
ag3
(g4
g5
(dp182
g16
S''
sg42
S'stream'
p183
sg20
S''
sg44
S'Domain'
p184
sg21
S''
sg17
g183
sg30
Nsg46
S'Stream name'
p185
stRp186
ag3
(g4
g5
(dp187
g16
S''
sg42
S'parent'
p188
sg20
S''
sg44
S'Domain'
p189
sg21
S''
sg17
g188
sg30
Nsg46
S'Parent stream name'
p190
stRp191
ag3
(g4
g5
(dp192
g16
S''
sg42
S'title'
p193
sg20
S''
sg44
S'Text'
p194
sg21
S''
sg17
g193
sg30
Nsg46
S'Stream title (alias for the stream name)'
p195
stRp196
ag3
(g4
g5
(dp197
g16
S''
sg42
S'type'
p198
sg20
S''
sg44
S'StreamType'
p199
sg21
S''
sg17
g198
sg30
Nsg46
S'The type of stream'
p200
stRp201
ag3
(g4
g5
(dp202
g16
S''
sg42
S'preview'
p203
sg20
S''
sg44
S'Date'
p204
sg21
S''
sg17
g203
sg30
Nsg46
S'Stream template modification time'
p205
stRp206
ag3
(g4
g5
(dp207
g16
S''
sg42
S'change'
p208
sg20
S''
sg44
S'Change'
p209
sg21
S''
sg17
g208
sg30
Nsg46
S'Last submit to stream'
p210
stRp211
ag3
(g4
g5
(dp212
g16
S''
sg42
S'copychg'
p213
sg20
S''
sg44
S'Change'
p214
sg21
S''
sg17
g213
sg30
Nsg46
S'Parent change at last copy'
p215
stRp216
ag3
(g4
g5
(dp217
g16
S''
sg42
S'mergechg'
p218
sg20
S''
sg44
S'Change'
p219
sg21
S''
sg17
g218
sg30
Nsg46
S'Parent change at last merge'
p220
stRp221
ag3
(g4
g5
(dp222
g16
S''
sg42
S'highchg'
p223
sg20
S''
sg44
S'Change'
p224
sg21
S''
sg17
g223
sg30
Nsg46
S'Highest change at last merge'
p225
stRp226
ag3
(g4
g5
(dp227
g16
S''
sg42
S'hash'
p228
sg20
S''
sg44
S'Int'
p229
sg21
S''
sg17
g228
sg30
Nsg46
S'Hash value of dynamic branch'
p230
stRp231
ag3
(g4
g5
(dp232
g16
S''
sg42
S'status'
p233
sg20
S''
sg44
S'StreamStatus'
p234
sg21
S''
sg17
g233
sg30
Nsg46
S'Flow status'
p235
stRp236
atRp237
sg115
g169
sg42
S'db.stream'
p238
sg117
S'1'
sg118
S'15'
p239
sg120
g121
sg44
S'Stream'
p240
sg46
S'Perforce streams'
p241
stRp242
sS'svrview'
p243
g3
(g4
g5
(dp244
g7
S'id, type, seq'
p245
sg9
S'6'
sg11
g3
(g12
g13
(lp246
g3
(g4
g5
(dp247
g16
S''
sg17
g18
sg19
g18
sg20
S''
sg21
S''
sg22
g23
sg24
g25
stRp248
ag3
(g4
g5
(dp249
g16
S''
sg19
g28
sg20
S''
sg22
g29
sg21
S''
sg17
g28
sg30
Nsg24
g31
stRp250
ag3
(g4
g5
(dp251
g16
S''
sg19
g34
sg20
S''
sg22
g23
sg21
S''
sg17
g34
sg30
Nsg24
g35
stRp252
ag3
(g4
g5
(dp253
g16
S''
sg19
g38
sg20
S''
sg22
g29
sg21
S''
sg17
g38
sg30
Nsg24
g39
stRp254
ag3
(g4
g5
(dp255
g16
S''
sg42
S'id'
p256
sg20
S''
sg44
S'Text'
p257
sg21
S''
sg17
g256
sg30
Nsg46
S'Server name'
p258
stRp259
ag3
(g4
g5
(dp260
g16
S''
sg42
S'type'
p261
sg20
S''
sg44
S'SvrViewType'
p262
sg21
S''
sg17
g261
sg30
Nsg46
S'View type'
p263
stRp264
ag3
(g4
g5
(dp265
g16
S''
sg42
S'seq'
p266
sg20
S''
sg44
S'Int'
p267
sg21
S''
sg17
g266
sg30
Nsg46
S'Sequence (line) number'
p268
stRp269
ag3
(g4
g5
(dp270
g16
S''
sg42
S'mapFlag'
p271
sg20
S''
sg44
S'MapFlag'
p272
sg21
S''
sg17
g271
sg30
Nsg46
S'Type of mapping'
p273
stRp274
ag3
(g4
g5
(dp275
g16
S''
sg42
S'viewFile'
p276
sg20
S''
sg44
S'Mapping'
p277
sg21
S''
sg17
g276
sg30
Nsg46
S'View file'
p278
stRp279
atRp280
sg115
g243
sg42
S'db.svrview'
p281
sg117
S'0'
sg118
S'6'
sg120
g121
sg44
S'SvrView'
p282
sg46
S'View data for servers specifications'
p283
stRp284
sS'revpx'
p285
g3
(g4
g5
(dp286
g7
S'depotFile, depotRev'
p287
sg9
S'31'
p288
sg11
g3
(g12
g13
(lp289
g3
(g4
g5
(dp290
g16
S''
sg17
g18
sg19
g18
sg20
S''
sg21
S''
sg22
g23
sg24
g25
stRp291
ag3
(g4
g5
(dp292
g16
S''
sg19
g28
sg20
S''
sg22
g29
sg21
S''
sg17
g28
sg30
Nsg24
g31
stRp293
ag3
(g4
g5
(dp294
g16
S''
sg19
g34
sg20
S''
sg22
g23
sg21
S''
sg17
g34
sg30
Nsg24
g35
stRp295
ag3
(g4
g5
(dp296
g16
S''
sg19
g38
sg20
S''
sg22
g29
sg21
S''
sg17
g38
sg30
Nsg24
g39
stRp297
ag3
(g4
g5
(dp298
g16
S''
sg42
S'depotFile'
p299
sg20
S''
sg44
S'File'
p300
sg21
S''
sg17
g299
sg30
Nsg46
S'The file name'
p301
stRp302
ag3
(g4
g5
(dp303
g16
S''
sg42
S'depotRev'
p304
sg20
S''
sg44
S'Rev'
p305
sg21
S''
sg17
g304
sg30
Nsg46
S'The revision number'
p306
stRp307
ag3
(g4
g5
(dp308
g16
S''
sg42
S'type'
p309
sg20
S''
sg44
S'FileType'
p310
sg21
S''
sg17
g309
sg30
Nsg46
S'The file type of the revision'
p311
stRp312
ag3
(g4
g5
(dp313
g16
S''
sg42
S'action'
p314
sg20
S''
sg44
S'Action'
p315
sg21
S''
sg17
g314
sg30
Nsg46
S'The action that created the revision'
p316
stRp317
ag3
(g4
g5
(dp318
g16
S''
sg42
S'change'
p319
sg20
S''
sg44
S'Change'
p320
sg21
S''
sg17
g319
sg30
Nsg46
S'The changelist that created the revision'
p321
stRp322
ag3
(g4
g5
(dp323
g16
S''
sg42
S'date'
p324
sg20
S''
sg44
S'Date'
p325
sg21
S''
sg17
g324
sg30
Nsg46
S'The date/time the changelist that created the revision\n\t\t    was submitted'
p326
stRp327
ag3
(g4
g5
(dp328
g16
S''
sg42
S'modTime'
p329
sg20
S''
sg44
S'Date'
p330
sg21
S''
sg17
g329
sg30
Nsg46
S"The timestamp on the file in the user's workspace when\n\t\t    the revision was submitted."
p331
stRp332
ag3
(g4
g5
(dp333
g16
S''
sg42
S'digest'
p334
sg20
S''
sg44
S'Digest'
p335
sg21
S''
sg17
g334
sg30
Nsg46
S'The MD5 digest of the revision.'
p336
stRp337
ag3
(g4
g5
(dp338
g16
S''
sg42
S'size'
p339
sg20
S''
sg44
S'FileSize'
p340
sg21
S''
sg17
g339
sg30
Nsg46
S'The size of the file in bytes'
p341
stRp342
ag3
(g4
g5
(dp343
g16
S''
sg42
S'traitLot'
p344
sg20
S''
sg44
S'TraitLot'
p345
sg21
S''
sg17
g344
sg30
Nsg46
S'Group of traits (attributes) associated with the revision.'
p346
stRp347
ag3
(g4
g5
(dp348
g16
S''
sg42
S'lbrIsLazy'
p349
sg20
S''
sg44
S'RevStatus'
p350
sg21
S''
sg17
g349
sg30
Nsg46
S'Specifies whether or not the revision gets its content from \n\t  \t    another file (lazy copy), data about promotion of revision\n\t \t    content from task streams, and data about revision charset \n            information.'
p351
stRp352
ag3
(g4
g5
(dp353
g16
S''
sg42
S'lbrFile'
p354
sg20
S''
sg44
S'File'
p355
sg21
S''
sg17
g354
sg30
Nsg46
S"Filename for librarian's purposes.  Specifies location in \n\t\t    the archives where the file containing the revision may\n\t\t    be found. Usually the same as depotFile, but differs in\n\t\t    the case of branched/copied revisions."
p356
stRp357
ag3
(g4
g5
(dp358
g16
S''
sg42
S'lbrRev'
p359
sg20
S''
sg44
S'String'
p360
sg21
S''
sg17
g359
sg30
Nsg46
S'The revision of lbrFile that contains the revision content.'
p361
stRp362
ag3
(g4
g5
(dp363
g16
S''
sg42
S'lbrType'
p364
sg20
S''
sg44
S'FileType'
p365
sg21
S''
sg17
g364
sg30
Nsg46
S'The file type of the librarian revision. Usually the same\n\t\t    as type, but differs in the case of branched/copied \n\t\t    revisions.'
p366
stRp367
atRp368
sg115
g285
sg42
S'db.revpx'
p369
sS'note'
p370
S'Only populated during content trigger execution to allow \n\t\ttriggers access to the revisions being submitted.'
p371
sg117
S'9'
sg118
S'36'
p372
sg120
g121
sg44
S'Rev'
p373
sg46
S'Pending revision records'
p374
stRp375
sS'traits'
p376
g3
(g4
g5
(dp377
g7
S'traitLot, name'
p378
sg9
S'43'
p379
sg11
g3
(g12
g13
(lp380
g3
(g4
g5
(dp381
g16
S''
sg17
g18
sg19
g18
sg20
S''
sg21
S''
sg22
g23
sg24
g25
stRp382
ag3
(g4
g5
(dp383
g16
S''
sg19
g28
sg20
S''
sg22
g29
sg21
S''
sg17
g28
sg30
Nsg24
g31
stRp384
ag3
(g4
g5
(dp385
g16
S''
sg19
g34
sg20
S''
sg22
g23
sg21
S''
sg17
g34
sg30
Nsg24
g35
stRp386
ag3
(g4
g5
(dp387
g16
S''
sg19
g38
sg20
S''
sg22
g29
sg21
S''
sg17
g38
sg30
Nsg24
g39
stRp388
ag3
(g4
g5
(dp389
g16
S''
sg42
S'traitLot'
p390
sg20
S''
sg44
S'Int'
p391
sg21
S''
sg17
g390
sg30
Nsg46
S'Indicates a specific collection of traits (referred to \n\t\t    externally as "attributes".)'
p392
stRp393
ag3
(g4
g5
(dp394
g16
S''
sg42
S'name'
p395
sg20
S''
sg44
S'String'
p396
sg21
S''
sg17
g395
sg30
Nsg46
S'Trait (attribute) name'
p397
stRp398
ag3
(g4
g5
(dp399
g16
S''
sg42
S'type'
p400
sg20
S''
sg44
S'TraitType'
p401
sg21
S''
sg17
g400
sg30
Nsg46
S'Type of trait'
p402
stRp403
ag3
(g4
g5
(dp404
g16
S''
sg42
S'value'
p405
sg20
S''
sg44
S'Octet String'
p406
sg21
S''
sg17
g405
sg30
Nsg46
S'The value'
p407
stRp408
atRp409
sg115
g376
sg42
S'db.traits'
p410
sg117
S'0'
sg118
S'43'
p411
sg120
g121
sg44
S'Trait'
p412
sg46
S'Attributes associated with file revisions'
p413
stRp414
sS'revtx'
p415
g3
(g4
g5
(dp416
g7
S'depotFile, depotRev'
p417
sg9
S'38'
p418
sg11
g3
(g12
g13
(lp419
g3
(g4
g5
(dp420
g16
S''
sg17
g18
sg19
g18
sg20
S''
sg21
S''
sg22
g23
sg24
g25
stRp421
ag3
(g4
g5
(dp422
g16
S''
sg19
g28
sg20
S''
sg22
g29
sg21
S''
sg17
g28
sg30
Nsg24
g31
stRp423
ag3
(g4
g5
(dp424
g16
S''
sg19
g34
sg20
S''
sg22
g23
sg21
S''
sg17
g34
sg30
Nsg24
g35
stRp425
ag3
(g4
g5
(dp426
g16
S''
sg19
g38
sg20
S''
sg22
g29
sg21
S''
sg17
g38
sg30
Nsg24
g39
stRp427
ag3
(g4
g5
(dp428
g16
S''
sg42
g299
sg20
S''
sg44
g300
sg21
S''
sg17
g299
sg30
Nsg46
g301
stRp429
ag3
(g4
g5
(dp430
g16
S''
sg42
g304
sg20
S''
sg44
g305
sg21
S''
sg17
g304
sg30
Nsg46
g306
stRp431
ag3
(g4
g5
(dp432
g16
S''
sg42
g309
sg20
S''
sg44
g310
sg21
S''
sg17
g309
sg30
Nsg46
g311
stRp433
ag3
(g4
g5
(dp434
g16
S''
sg42
g314
sg20
S''
sg44
g315
sg21
S''
sg17
g314
sg30
Nsg46
g316
stRp435
ag3
(g4
g5
(dp436
g16
S''
sg42
g319
sg20
S''
sg44
g320
sg21
S''
sg17
g319
sg30
Nsg46
g321
stRp437
ag3
(g4
g5
(dp438
g16
S''
sg42
g324
sg20
S''
sg44
g325
sg21
S''
sg17
g324
sg30
Nsg46
g326
stRp439
ag3
(g4
g5
(dp440
g16
S''
sg42
g329
sg20
S''
sg44
g330
sg21
S''
sg17
g329
sg30
Nsg46
g331
stRp441
ag3
(g4
g5
(dp442
g16
S''
sg42
g334
sg20
S''
sg44
g335
sg21
S''
sg17
g334
sg30
Nsg46
g336
stRp443
ag3
(g4
g5
(dp444
g16
S''
sg42
g339
sg20
S''
sg44
g340
sg21
S''
sg17
g339
sg30
Nsg46
g341
stRp445
ag3
(g4
g5
(dp446
g16
S''
sg42
g344
sg20
S''
sg44
g345
sg21
S''
sg17
g344
sg30
Nsg46
g346
stRp447
ag3
(g4
g5
(dp448
g16
S''
sg42
g349
sg20
S''
sg44
g350
sg21
S''
sg17
g349
sg30
Nsg46
g351
stRp449
ag3
(g4
g5
(dp450
g16
S''
sg42
g354
sg20
S''
sg44
g355
sg21
S''
sg17
g354
sg30
Nsg46
g356
stRp451
ag3
(g4
g5
(dp452
g16
S''
sg42
g359
sg20
S''
sg44
g360
sg21
S''
sg17
g359
sg30
Nsg46
g361
stRp453
ag3
(g4
g5
(dp454
g16
S''
sg42
g364
sg20
S''
sg44
g365
sg21
S''
sg17
g364
sg30
Nsg46
g366
stRp455
atRp456
sg115
g415
sg42
S'db.revtx'
p457
sg117
S'9'
sg118
S'32'
p458
sg120
g121
sg44
S'Rev'
p459
sg46
S'Task stream revision records'
p460
stRp461
sS'viewrp'
p462
g3
(g4
g5
(dp463
g7
S'name seq'
p464
sg9
S'18'
p465
sg11
g3
(g12
g13
(lp466
g3
(g4
g5
(dp467
g16
S''
sg17
g18
sg19
g18
sg20
S''
sg21
S''
sg22
g23
sg24
g25
stRp468
ag3
(g4
g5
(dp469
g16
S''
sg19
g28
sg20
S''
sg22
g29
sg21
S''
sg17
g28
sg30
Nsg24
g31
stRp470
ag3
(g4
g5
(dp471
g16
S''
sg19
g34
sg20
S''
sg22
g23
sg21
S''
sg17
g34
sg30
Nsg24
g35
stRp472
ag3
(g4
g5
(dp473
g16
S''
sg19
g38
sg20
S''
sg22
g29
sg21
S''
sg17
g38
sg30
Nsg24
g39
stRp474
ag3
(g4
g5
(dp475
g16
S''
sg42
S'name'
p476
sg20
S''
sg44
S'Domain'
p477
sg21
S''
sg17
g476
sg30
Nsg46
S'Domain name to which this view applies'
p478
stRp479
ag3
(g4
g5
(dp480
g16
S''
sg42
S'seq'
p481
sg20
S''
sg44
S'Int'
p482
sg21
S''
sg17
g481
sg30
Nsg46
S'Sequence number: for ordering multi-line views'
p483
stRp484
ag3
(g4
g5
(dp485
g16
S''
sg42
S'mapFlag'
p486
sg20
S''
sg44
S'MapFlag'
p487
sg21
S''
sg17
g486
sg30
Nsg46
S'Type of mapping'
p488
stRp489
ag3
(g4
g5
(dp490
g16
S''
sg42
S'viewFile'
p491
sg20
S''
sg44
S'Mapping'
p492
sg21
S''
sg17
g491
sg30
Nsg46
S"The right-hand-side of the view. For clients, this is\n\t\t    the client-side, for labels it's the generated label \n\t\t    view. For branches, it's the target side of the branch\n\t\t    view."
p493
stRp494
ag3
(g4
g5
(dp495
g16
S''
sg42
S'depotFile'
p496
sg20
S''
sg44
S'Mapping'
p497
sg21
S''
sg17
g496
sg30
Nsg46
S'The left-hand-side of the view - a mapping to file(s)\n\t\t    in the depot.'
p498
stRp499
atRp500
sg115
g462
sg42
S'db.view.rp'
p501
sg117
S'1'
sg118
S'18'
p502
sg120
g121
sg44
S'View'
p503
sg46
S'Contains views for clients of build-server replicas'
p504
stRp505
sS'ixtext'
p506
g3
(g4
g5
(dp507
g7
S'word, attr, value'
p508
sg9
S'52'
p509
sg11
g3
(g12
g13
(lp510
g3
(g4
g5
(dp511
g16
S''
sg17
g18
sg19
g18
sg20
S''
sg21
S''
sg22
g23
sg24
g25
stRp512
ag3
(g4
g5
(dp513
g16
S''
sg19
g28
sg20
S''
sg22
g29
sg21
S''
sg17
g28
sg30
Nsg24
g31
stRp514
ag3
(g4
g5
(dp515
g16
S''
sg19
g34
sg20
S''
sg22
g23
sg21
S''
sg17
g34
sg30
Nsg24
g35
stRp516
ag3
(g4
g5
(dp517
g16
S''
sg19
g38
sg20
S''
sg22
g29
sg21
S''
sg17
g38
sg30
Nsg24
g39
stRp518
ag3
(g4
g5
(dp519
g16
S''
sg42
S'word'
p520
sg20
S''
sg44
S'String'
p521
sg21
S''
sg17
g520
sg30
Nsg46
S'The word being indexed'
p522
stRp523
ag3
(g4
g5
(dp524
g16
S''
sg42
S'attr'
p525
sg20
S''
sg44
S'Int'
p526
sg21
S''
sg17
g525
sg30
Nsg46
S'The attribute number to which this word belongs. For\n\t\t    job data, the attribute number from the jobspec.'
p527
stRp528
ag3
(g4
g5
(dp529
g16
S''
sg42
S'value'
p530
sg20
S''
sg44
S'String'
p531
sg21
S''
sg17
g530
sg30
Nsg46
S'For job data, a job name. For generic data, the value\n\t\t    of the index keyed by the word.'
p532
stRp533
atRp534
sg115
g506
sg42
S'db.ixtext'
p535
sg117
S'0'
sg118
S'52'
p536
sg120
g121
sg44
S'IndexText'
p537
sg46
S'Indexing data for generic and job attributes'
p538
stRp539
sS'rmtview'
p540
g3
(g4
g5
(dp541
g7
S'id, seq'
p542
sg9
S'8'
sg11
g3
(g12
g13
(lp543
g3
(g4
g5
(dp544
g16
S''
sg17
g18
sg19
g18
sg20
S''
sg21
S''
sg22
g23
sg24
g25
stRp545
ag3
(g4
g5
(dp546
g16
S''
sg19
g28
sg20
S''
sg22
g29
sg21
S''
sg17
g28
sg30
Nsg24
g31
stRp547
ag3
(g4
g5
(dp548
g16
S''
sg19
g34
sg20
S''
sg22
g23
sg21
S''
sg17
g34
sg30
Nsg24
g35
stRp549
ag3
(g4
g5
(dp550
g16
S''
sg19
g38
sg20
S''
sg22
g29
sg21
S''
sg17
g38
sg30
Nsg24
g39
stRp551
ag3
(g4
g5
(dp552
g16
S''
sg42
S'id'
p553
sg20
S''
sg44
S'RemoteID'
p554
sg21
S''
sg17
g553
sg30
Nsg46
S'Remote name'
p555
stRp556
ag3
(g4
g5
(dp557
g16
S''
sg42
S'seq'
p558
sg20
S''
sg44
S'Int'
p559
sg21
S''
sg17
g558
sg30
Nsg46
S'Sequence number: for ordering multi-line views'
p560
stRp561
ag3
(g4
g5
(dp562
g16
S''
sg42
S'mapFlag'
p563
sg20
S''
sg44
S'MapFlag'
p564
sg21
S''
sg17
g563
sg30
Nsg46
S'Type of mapping'
p565
stRp566
ag3
(g4
g5
(dp567
g16
S''
sg42
S'localFile'
p568
sg20
S''
sg44
S'Mapping'
p569
sg21
S''
sg17
g568
sg30
Nsg46
S'Local file'
p570
stRp571
ag3
(g4
g5
(dp572
g16
S''
sg42
S'remoteFile'
p573
sg20
S''
sg44
S'Mapping'
p574
sg21
S''
sg17
g573
sg30
Nsg46
S'Remote file'
p575
stRp576
atRp577
sg115
g540
sg42
S'db.rmtview'
p578
sg117
S'0'
sg118
S'8'
sg120
g121
sg44
S'RmtView'
p579
sg46
S'View data for remote specifications'
p580
stRp581
sS'message'
p582
g3
(g4
g5
(dp583
g7
S'language, id'
p584
sg9
S'56'
p585
sg11
g3
(g12
g13
(lp586
g3
(g4
g5
(dp587
g16
S''
sg17
g18
sg19
g18
sg20
S''
sg21
S''
sg22
g23
sg24
g25
stRp588
ag3
(g4
g5
(dp589
g16
S''
sg19
g28
sg20
S''
sg22
g29
sg21
S''
sg17
g28
sg30
Nsg24
g31
stRp590
ag3
(g4
g5
(dp591
g16
S''
sg19
g34
sg20
S''
sg22
g23
sg21
S''
sg17
g34
sg30
Nsg24
g35
stRp592
ag3
(g4
g5
(dp593
g16
S''
sg19
g38
sg20
S''
sg22
g29
sg21
S''
sg17
g38
sg30
Nsg24
g39
stRp594
ag3
(g4
g5
(dp595
g16
S''
sg42
S'language'
p596
sg20
S''
sg44
S'String'
p597
sg21
S''
sg17
g596
sg30
Nsg46
S'The language for which this message applies'
p598
stRp599
ag3
(g4
g5
(dp600
g16
S''
sg42
S'id'
p601
sg20
S''
sg44
S'Int'
p602
sg21
S''
sg17
g601
sg30
Nsg46
S'The message number'
p603
stRp604
ag3
(g4
g5
(dp605
g16
S''
sg42
S'message'
p606
sg20
S''
sg44
S'String'
p607
sg21
S''
sg17
g606
sg30
Nsg46
S'The message text'
p608
stRp609
atRp610
sg115
g582
sg42
S'db.message'
p611
sg117
S'0'
sg118
S'56'
p612
sg120
g121
sg44
S'Message'
p613
sg46
S'System messages'
p614
stRp615
sS'rdblbr'
p616
g3
(g4
g5
(dp617
g42
S'rdb.lbr'
p618
sg115
g616
sg11
g3
(g12
g13
(lp619
g3
(g4
g5
(dp620
g16
S''
sg17
g18
sg19
g18
sg20
S''
sg21
S''
sg22
g23
sg24
g25
stRp621
ag3
(g4
g5
(dp622
g16
S''
sg19
g28
sg20
S''
sg22
g29
sg21
S''
sg17
g28
sg30
Nsg24
g31
stRp623
ag3
(g4
g5
(dp624
g16
S''
sg19
g34
sg20
S''
sg22
g23
sg21
S''
sg17
g34
sg30
Nsg24
g35
stRp625
ag3
(g4
g5
(dp626
g16
S''
sg19
g38
sg20
S''
sg22
g29
sg21
S''
sg17
g38
sg30
Nsg24
g39
stRp627
ag3
(g4
g5
(dp628
g16
S''
sg42
S'depotFile'
p629
sg20
S''
sg44
S'File'
p630
sg21
S''
sg17
g629
sg30
Nsg46
S'The file name'
p631
stRp632
ag3
(g4
g5
(dp633
g16
S''
sg42
S'lbrRev'
p634
sg20
S''
sg44
S'String'
p635
sg21
S''
sg17
g634
sg30
Nsg46
S'The librarian revision'
p636
stRp637
ag3
(g4
g5
(dp638
g16
S''
sg42
S'type'
p639
sg20
S''
sg44
S'String'
p640
sg21
S''
sg17
g639
sg30
Nsg46
S'The file type of the revision'
p641
stRp642
ag3
(g4
g5
(dp643
g16
S''
sg42
S'status'
p644
sg20
S''
sg44
S'PullStatus'
p645
sg21
S''
sg17
g644
sg30
Nsg46
S'The status of the archive transfer'
p646
stRp647
ag3
(g4
g5
(dp648
g16
S''
sg42
S'action'
p649
sg20
S''
sg44
S'Action'
p650
sg21
S''
sg17
g649
sg30
Nsg46
S'The action that created the revision'
p651
stRp652
ag3
(g4
g5
(dp653
g16
S''
sg42
S'digest'
p654
sg20
S''
sg44
S'Digest'
p655
sg21
S''
sg17
g654
sg30
Nsg46
S'The MD5 digest of the revision'
p656
stRp657
ag3
(g4
g5
(dp658
g16
S''
sg42
S'size'
p659
sg20
S''
sg44
S'FileSize'
p660
sg21
S''
sg17
g659
sg30
Nsg46
S'The size of the file in bytes'
p661
stRp662
ag3
(g4
g5
(dp663
g16
S''
sg42
S'change'
p664
sg20
S''
sg44
S'Change'
p665
sg21
S''
sg17
g664
sg30
Nsg46
S'The changelist that created the revision'
p666
stRp667
ag3
(g4
g5
(dp668
g16
S''
sg42
S'lbrDate'
p669
sg20
S''
sg44
S'Date'
p670
sg21
S''
sg17
g669
sg30
Nsg46
S'Librarian date'
p671
stRp672
ag3
(g4
g5
(dp673
g16
S''
sg42
S'lbrModTime'
p674
sg20
S''
sg44
S'Date'
p675
sg21
S''
sg17
g674
sg30
Nsg46
S'Librarian modtime'
p676
stRp677
ag3
(g4
g5
(dp678
g16
S''
sg42
S'pid'
p679
sg20
S''
sg44
S'Int'
p680
sg21
S''
sg17
g679
sg30
Nsg46
S'The process id (PID) of the pull process'
p681
stRp682
ag3
(g4
g5
(dp683
g16
S''
sg42
S'requestTime'
p684
sg20
S''
sg44
S'Date'
p685
sg21
S''
sg17
g684
sg30
Nsg46
S'Pull request time'
p686
stRp687
ag3
(g4
g5
(dp688
g16
S''
sg42
S'retries'
p689
sg20
S''
sg44
S'Int'
p690
sg21
S''
sg17
g689
sg30
Nsg46
S'The number of retries that have occurred after transfer error'
p691
stRp692
ag3
(g4
g5
(dp693
g16
S''
sg42
S'transferError'
p694
sg20
S''
sg44
S'String'
p695
sg21
S''
sg17
g694
sg30
Nsg46
S'The error message for a failed transfer'
p696
stRp697
atRp698
sg120
g121
sg44
S'ReplicaArchiveTransfer'
p699
sg46
S'Replica server pending archive transfer table'
p700
stRp701
sS'bodtext'
p702
g3
(g4
g5
(dp703
g7
S'key, attr'
p704
sg9
S'51'
p705
sg11
g3
(g12
g13
(lp706
g3
(g4
g5
(dp707
g16
S''
sg17
g18
sg19
g18
sg20
S''
sg21
S''
sg22
g23
sg24
g25
stRp708
ag3
(g4
g5
(dp709
g16
S''
sg19
g28
sg20
S''
sg22
g29
sg21
S''
sg17
g28
sg30
Nsg24
g31
stRp710
ag3
(g4
g5
(dp711
g16
S''
sg19
g34
sg20
S''
sg22
g23
sg21
S''
sg17
g34
sg30
Nsg24
g35
stRp712
ag3
(g4
g5
(dp713
g16
S''
sg19
g38
sg20
S''
sg22
g29
sg21
S''
sg17
g38
sg30
Nsg24
g39
stRp714
ag3
(g4
g5
(dp715
g16
S''
sg42
S'key'
p716
sg20
S''
sg44
S'String'
p717
sg21
S''
sg17
g716
sg30
Nsg46
S'The job to which this attribute belongs'
p718
stRp719
ag3
(g4
g5
(dp720
g16
S''
sg42
S'attr'
p721
sg20
S''
sg44
S'Int'
p722
sg21
S''
sg17
g721
sg30
Nsg46
S'The attribute number (from the jobspec) of this attribute'
p723
stRp724
ag3
(g4
g5
(dp725
g16
S''
sg42
S'isBulk'
p726
sg20
S''
sg44
S'Int'
p727
sg21
S''
sg17
g726
sg30
Nsg46
S'Indicates whether (1), or not (0) the field is a bulk\n\t\t    text field that should not be indexed.'
p728
stRp729
ag3
(g4
g5
(dp730
g16
S''
sg42
S'text'
p731
sg20
S''
sg44
S'Text'
p732
sg21
S''
sg17
g731
sg30
Nsg46
S'The attribute value'
p733
stRp734
atRp735
sg115
g702
sg42
S'db.bodtext'
p736
sg117
S'1'
sg118
S'51'
p737
sg120
g121
sg44
S'BodyText'
p738
sg46
S'Job data for job attributes'
p739
stRp740
sS'group'
p741
g3
(g4
g5
(dp742
g7
S'user, group'
p743
sg9
S'12'
p744
sg11
g3
(g12
g13
(lp745
g3
(g4
g5
(dp746
g16
S''
sg17
g18
sg19
g18
sg20
S''
sg21
S''
sg22
g23
sg24
g25
stRp747
ag3
(g4
g5
(dp748
g16
S''
sg19
g28
sg20
S''
sg22
g29
sg21
S''
sg17
g28
sg30
Nsg24
g31
stRp749
ag3
(g4
g5
(dp750
g16
S''
sg19
g34
sg20
S''
sg22
g23
sg21
S''
sg17
g34
sg30
Nsg24
g35
stRp751
ag3
(g4
g5
(dp752
g16
S''
sg19
g38
sg20
S''
sg22
g29
sg21
S''
sg17
g38
sg30
Nsg24
g39
stRp753
ag3
(g4
g5
(dp754
g16
S''
sg42
S'user'
p755
sg20
S''
sg44
S'User'
p756
sg21
S''
sg17
g755
sg30
Nsg46
S'User name'
p757
stRp758
ag3
(g4
g5
(dp759
g16
S''
sg42
S'group'
p760
sg20
S''
sg44
S'User'
p761
sg21
S''
sg17
g760
sg30
Nsg46
S'Group name'
p762
stRp763
ag3
(g4
g5
(dp764
g16
S''
sg42
S'type'
p765
sg20
S''
sg44
S'UserType'
p766
sg21
S''
sg17
g765
sg30
Nsg46
S'Type of user in this group.'
p767
stRp768
ag3
(g4
g5
(dp769
g16
S''
sg42
S'maxResults'
p770
sg20
S''
sg44
S'MaxResults'
p771
sg21
S''
sg17
g770
sg30
Nsg46
S'MaxResults setting for the group.'
p772
stRp773
ag3
(g4
g5
(dp774
g16
S''
sg42
S'maxScanRows'
p775
sg20
S''
sg44
S'MaxScanRows'
p776
sg21
S''
sg17
g775
sg30
Nsg46
S'MaxScanRows setting for the group.'
p777
stRp778
ag3
(g4
g5
(dp779
g16
S''
sg42
S'maxLockTime'
p780
sg20
S''
sg44
S'MaxLockTime'
p781
sg21
S''
sg17
g780
sg30
Nsg46
S'MaxLockTime setting for the group.'
p782
stRp783
ag3
(g4
g5
(dp784
g16
S''
sg42
S'timeout'
p785
sg20
S''
sg44
S'Int'
p786
sg21
S''
sg17
g785
sg30
Nsg46
S'Length of time (in seconds) a login ticket remains valid.'
p787
stRp788
ag3
(g4
g5
(dp789
g16
S''
sg42
S'passwordTimeout'
p790
sg20
S''
sg44
S'Int'
p791
sg21
S''
sg17
g790
sg30
Nsg46
S'Length of time (in seconds) a password remains valid for users in the group.'
p792
stRp793
atRp794
sg115
g741
sg42
S'db.group'
p795
sg117
S'8'
sg118
S'12'
p796
sg120
g121
sg44
S'Group'
p797
sg46
S'Groups of Perforce users'
p798
stRp799
sS'monitor'
p800
g3
(g4
g5
(dp801
g7
S'id'
p802
sg9
S'59'
p803
sg11
g3
(g12
g13
(lp804
g3
(g4
g5
(dp805
g16
S''
sg17
g18
sg19
g18
sg20
S''
sg21
S''
sg22
g23
sg24
g25
stRp806
ag3
(g4
g5
(dp807
g16
S''
sg19
g28
sg20
S''
sg22
g29
sg21
S''
sg17
g28
sg30
Nsg24
g31
stRp808
ag3
(g4
g5
(dp809
g16
S''
sg19
g34
sg20
S''
sg22
g23
sg21
S''
sg17
g34
sg30
Nsg24
g35
stRp810
ag3
(g4
g5
(dp811
g16
S''
sg19
g38
sg20
S''
sg22
g29
sg21
S''
sg17
g38
sg30
Nsg24
g39
stRp812
ag3
(g4
g5
(dp813
g16
S''
sg42
S'id'
p814
sg20
S''
sg44
S'Int'
p815
sg21
S''
sg17
g814
sg30
Nsg46
S'Thread/process id'
p816
stRp817
ag3
(g4
g5
(dp818
g16
S''
sg42
S'user'
p819
sg20
S''
sg44
S'User'
p820
sg21
S''
sg17
g819
sg30
Nsg46
S'Username of the user running the command'
p821
stRp822
ag3
(g4
g5
(dp823
g16
S''
sg42
S'function'
p824
sg20
S''
sg44
S'String'
p825
sg21
S''
sg17
g824
sg30
Nsg46
S'The command being executed.'
p826
stRp827
ag3
(g4
g5
(dp828
g16
S''
sg42
S'args'
p829
sg20
S''
sg44
S'String'
p830
sg21
S''
sg17
g829
sg30
Nsg46
S'Arguments passed to the command'
p831
stRp832
ag3
(g4
g5
(dp833
g16
S''
sg42
S'startDate'
p834
sg20
S''
sg44
S'Date'
p835
sg21
S''
sg17
g834
sg30
Nsg46
S'The date and time the command started'
p836
stRp837
ag3
(g4
g5
(dp838
g16
S''
sg42
S'runstate'
p839
sg20
S''
sg44
S'Int'
p840
sg21
S''
sg17
g839
sg30
Nsg46
S'Flag: 0 for running, 1 for terminated, 2 for paused'
p841
stRp842
ag3
(g4
g5
(dp843
g16
S''
sg42
S'client'
p844
sg20
S''
sg44
S'Domain'
p845
sg21
S''
sg17
g844
sg30
Nsg46
S'The client workspace'
p846
stRp847
ag3
(g4
g5
(dp848
g16
S''
sg42
S'host'
p849
sg20
S''
sg44
S'Text'
p850
sg21
S''
sg17
g849
sg30
Nsg46
S'The IP address of the client'
p851
stRp852
ag3
(g4
g5
(dp853
g16
S''
sg42
S'prog'
p854
sg20
S''
sg44
S'Text'
p855
sg21
S''
sg17
g854
sg30
Nsg46
S'The name (and version) of the client program'
p856
stRp857
ag3
(g4
g5
(dp858
g16
S''
sg42
S'lockInfo'
p859
sg20
S''
sg44
S'Text'
p860
sg21
S''
sg17
g859
sg30
Nsg46
S'Table locking information for command'
p861
stRp862
atRp863
sg115
g800
sg42
S'db.monitor'
p864
sg117
S'2'
sg118
S'59'
p865
sg120
g121
sg44
S'Monitor'
p866
sg46
S'Perforce process information'
p867
stRp868
sS'working'
p869
g3
(g4
g5
(dp870
g7
S'clientFile'
p871
sg9
S'40'
p872
sg11
g3
(g12
g13
(lp873
g3
(g4
g5
(dp874
g16
S''
sg17
g18
sg19
g18
sg20
S''
sg21
S''
sg22
g23
sg24
g25
stRp875
ag3
(g4
g5
(dp876
g16
S''
sg19
g28
sg20
S''
sg22
g29
sg21
S''
sg17
g28
sg30
Nsg24
g31
stRp877
ag3
(g4
g5
(dp878
g16
S''
sg19
g34
sg20
S''
sg22
g23
sg21
S''
sg17
g34
sg30
Nsg24
g35
stRp879
ag3
(g4
g5
(dp880
g16
S''
sg19
g38
sg20
S''
sg22
g29
sg21
S''
sg17
g38
sg30
Nsg24
g39
stRp881
ag3
(g4
g5
(dp882
g16
S''
sg42
S'clientFile'
p883
sg20
S''
sg44
S'File'
p884
sg21
S''
sg17
g883
sg30
Nsg46
S'File on the client'
p885
stRp886
ag3
(g4
g5
(dp887
g16
S''
sg42
S'depotFile'
p888
sg20
S''
sg44
S'File'
p889
sg21
S''
sg17
g888
sg30
Nsg46
S'File in the depot'
p890
stRp891
ag3
(g4
g5
(dp892
g16
S''
sg42
S'client'
p893
sg20
S''
sg44
S'Domain'
p894
sg21
S''
sg17
g893
sg30
Nsg46
S'The client the file is opened on'
p895
stRp896
ag3
(g4
g5
(dp897
g16
S''
sg42
S'user'
p898
sg20
S''
sg44
S'User'
p899
sg21
S''
sg17
g898
sg30
Nsg46
S'The user who has the file opened'
p900
stRp901
ag3
(g4
g5
(dp902
g16
S''
sg42
S'haveRev'
p903
sg20
S''
sg44
S'Rev'
p904
sg21
S''
sg17
g903
sg30
Nsg46
S"Revision presently in user's client workspace"
p905
stRp906
ag3
(g4
g5
(dp907
g16
S''
sg42
S'workRev'
p908
sg20
S''
sg44
S'Rev'
p909
sg21
S''
sg17
g908
sg30
Nsg46
S'Working revision; normally identical to the haveRev'
p910
stRp911
ag3
(g4
g5
(dp912
g16
S''
sg42
S'isVirtual'
p913
sg20
S''
sg44
S'Int'
p914
sg21
S''
sg17
g913
sg30
Nsg46
S'Flag: if 1, file was opened with "p4 integ -v".'
p915
stRp916
ag3
(g4
g5
(dp917
g16
S''
sg42
S'type'
p918
sg20
S''
sg44
S'FileType'
p919
sg21
S''
sg17
g918
sg30
Nsg46
S'File type'
p920
stRp921
ag3
(g4
g5
(dp922
g16
S''
sg42
S'action'
p923
sg20
S''
sg44
S'Action'
p924
sg21
S''
sg17
g923
sg30
Nsg46
S"What the user's doing with the file"
p925
stRp926
ag3
(g4
g5
(dp927
g16
S''
sg42
S'change'
p928
sg20
S''
sg44
S'Change'
p929
sg21
S''
sg17
g928
sg30
Nsg46
S'Associated changelist, or zero for the default changelist.'
p930
stRp931
ag3
(g4
g5
(dp932
g16
S''
sg42
S'modTime'
p933
sg20
S''
sg44
S'Date'
p934
sg21
S''
sg17
g933
sg30
Nsg46
S"Modification timestamp on the file in the user's workspace."
p935
stRp936
ag3
(g4
g5
(dp937
g16
S''
sg42
S'isLocked'
p938
sg20
S''
sg44
S'Int'
p939
sg21
S''
sg17
g938
sg30
Nsg46
S'Flag: 0 for unlocked, 1 for locked.'
p940
stRp941
ag3
(g4
g5
(dp942
g16
S''
sg42
S'digest'
p943
sg20
S''
sg44
S'Digest'
p944
sg21
S''
sg17
g943
sg30
Nsg46
S'MD5 digest of working file.'
p945
stRp946
ag3
(g4
g5
(dp947
g16
S''
sg42
S'size'
p948
sg20
S''
sg44
S'Int64'
p949
sg21
S''
sg17
g948
sg30
Nsg46
S'File size'
p950
stRp951
ag3
(g4
g5
(dp952
g16
S''
sg42
S'traitLot'
p953
sg20
S''
sg44
S'Int'
p954
sg21
S''
sg17
g953
sg30
Nsg46
S'Group of traits associated with file revision.'
p955
stRp956
ag3
(g4
g5
(dp957
g16
S''
sg42
S'tampered'
p958
sg20
S''
sg44
S'TamperCheck'
p959
sg21
S''
sg17
g958
sg30
Nsg46
S'Flag indicating the tamper-state of the file in the\n\t\t    workspace.'
p960
stRp961
ag3
(g4
g5
(dp962
g16
S''
sg42
S'clntType'
p963
sg20
S''
sg44
S'FileType'
p964
sg21
S''
sg17
g963
sg30
Nsg46
S'Type of the file in the client workspace.'
p965
stRp966
ag3
(g4
g5
(dp967
g16
S''
sg42
S'mFile'
p968
sg20
S''
sg44
S'File'
p969
sg21
S''
sg17
g968
sg30
Nsg46
S'Moved filename'
p970
stRp971
ag3
(g4
g5
(dp972
g16
S''
sg42
S'status'
p973
sg20
S''
sg44
S'Int'
p974
sg21
S''
sg17
g973
sg30
Nsg46
S'Working status'
p975
stRp976
atRp977
sg115
g869
sg42
S'db.working'
p978
sg117
S'10'
p979
sg118
S'41'
p980
sg120
g121
sg44
S'Working'
p981
sg46
S'Records for work in progress'
p982
stRp983
sS'fix'
p984
g3
(g4
g5
(dp985
g7
S'job, change'
p986
sg9
S'49'
p987
sg11
g3
(g12
g13
(lp988
g3
(g4
g5
(dp989
g16
S''
sg17
g18
sg19
g18
sg20
S''
sg21
S''
sg22
g23
sg24
g25
stRp990
ag3
(g4
g5
(dp991
g16
S''
sg19
g28
sg20
S''
sg22
g29
sg21
S''
sg17
g28
sg30
Nsg24
g31
stRp992
ag3
(g4
g5
(dp993
g16
S''
sg19
g34
sg20
S''
sg22
g23
sg21
S''
sg17
g34
sg30
Nsg24
g35
stRp994
ag3
(g4
g5
(dp995
g16
S''
sg19
g38
sg20
S''
sg22
g29
sg21
S''
sg17
g38
sg30
Nsg24
g39
stRp996
ag3
(g4
g5
(dp997
g16
S''
sg42
S'job'
p998
sg20
S''
sg44
S'String'
p999
sg21
S''
sg17
g998
sg30
Nsg46
S'Job name'
p1000
stRp1001
ag3
(g4
g5
(dp1002
g16
S''
sg42
S'change'
p1003
sg20
S''
sg44
S'Change'
p1004
sg21
S''
sg17
g1003
sg30
Nsg46
S'Changelist number'
p1005
stRp1006
ag3
(g4
g5
(dp1007
g16
S''
sg42
S'date'
p1008
sg20
S''
sg44
S'Date'
p1009
sg21
S''
sg17
g1008
sg30
Nsg46
S'Date fix was recorded (may differ from date change was\n\t\t    submitted).'
p1010
stRp1011
ag3
(g4
g5
(dp1012
g16
S''
sg42
S'status'
p1013
sg20
S''
sg44
S'FixStatus'
p1014
sg21
S''
sg17
g1013
sg30
Nsg46
S'Status of the job'
p1015
stRp1016
ag3
(g4
g5
(dp1017
g16
S''
sg42
S'client'
p1018
sg20
S''
sg44
S'Domain'
p1019
sg21
S''
sg17
g1018
sg30
Nsg46
S'The client where the fix originated'
p1020
stRp1021
ag3
(g4
g5
(dp1022
g16
S''
sg42
S'user'
p1023
sg20
S''
sg44
S'User'
p1024
sg21
S''
sg17
g1023
sg30
Nsg46
S'The user who fixed the job'
p1025
stRp1026
atRp1027
sg115
g984
sg42
S'db.fix'
p1028
sg117
S'1'
sg118
S'49'
p1029
sg120
g121
sg46
S'Fix records - indexed by job'
p1030
sg44
S'Fix'
p1031
sS'seeAlso'
p1032
S'db.fixrev'
p1033
stRp1034
sS'archmap'
p1035
g3
(g4
g5
(dp1036
g7
S'lbrFile, depotFile'
p1037
sg9
S'28'
p1038
sg11
g3
(g12
g13
(lp1039
g3
(g4
g5
(dp1040
g16
S''
sg17
g18
sg19
g18
sg20
S''
sg21
S''
sg22
g23
sg24
g25
stRp1041
ag3
(g4
g5
(dp1042
g16
S''
sg19
g28
sg20
S''
sg22
g29
sg21
S''
sg17
g28
sg30
Nsg24
g31
stRp1043
ag3
(g4
g5
(dp1044
g16
S''
sg19
g34
sg20
S''
sg22
g23
sg21
S''
sg17
g34
sg30
Nsg24
g35
stRp1045
ag3
(g4
g5
(dp1046
g16
S''
sg19
g38
sg20
S''
sg22
g29
sg21
S''
sg17
g38
sg30
Nsg24
g39
stRp1047
ag3
(g4
g5
(dp1048
g16
S''
sg42
S'lbrFile'
p1049
sg20
S''
sg44
S'File'
p1050
sg21
S''
sg17
g1049
sg30
Nsg46
S'Paths in the librarian namespace that recieve lazy\n\t\t    copies.'
p1051
stRp1052
ag3
(g4
g5
(dp1053
g16
S''
sg42
S'depotFile'
p1054
sg20
S''
sg44
S'File'
p1055
sg21
S''
sg17
g1054
sg30
Nsg46
S'Paths in the depot namespace that provide lazy copies.'
p1056
stRp1057
atRp1058
sg115
g1035
sg42
S'db.archmap'
p1059
sg370
S'Supercedes db.archive'
p1060
sg117
S'0'
sg118
S'30'
p1061
sg120
g121
sg44
S'ArchMap'
p1062
sg46
S'Mappings entries for lazy-copies'
p1063
stRp1064
sS'rev'
p1065
g3
(g4
g5
(dp1066
g7
S'depotFile, depotRev'
p1067
sg9
S'37'
p1068
sg11
g3
(g12
g13
(lp1069
g3
(g4
g5
(dp1070
g16
S''
sg17
g18
sg19
g18
sg20
S''
sg21
S''
sg22
g23
sg24
g25
stRp1071
ag3
(g4
g5
(dp1072
g16
S''
sg19
g28
sg20
S''
sg22
g29
sg21
S''
sg17
g28
sg30
Nsg24
g31
stRp1073
ag3
(g4
g5
(dp1074
g16
S''
sg19
g34
sg20
S''
sg22
g23
sg21
S''
sg17
g34
sg30
Nsg24
g35
stRp1075
ag3
(g4
g5
(dp1076
g16
S''
sg19
g38
sg20
S''
sg22
g29
sg21
S''
sg17
g38
sg30
Nsg24
g39
stRp1077
ag3
(g4
g5
(dp1078
g16
S''
sg42
g299
sg20
S''
sg44
g300
sg21
S''
sg17
g299
sg30
Nsg46
g301
stRp1079
ag3
(g4
g5
(dp1080
g16
S''
sg42
g304
sg20
S''
sg44
g305
sg21
S''
sg17
g304
sg30
Nsg46
g306
stRp1081
ag3
(g4
g5
(dp1082
g16
S''
sg42
g309
sg20
S''
sg44
g310
sg21
S''
sg17
g309
sg30
Nsg46
g311
stRp1083
ag3
(g4
g5
(dp1084
g16
S''
sg42
g314
sg20
S''
sg44
g315
sg21
S''
sg17
g314
sg30
Nsg46
g316
stRp1085
ag3
(g4
g5
(dp1086
g16
S''
sg42
g319
sg20
S''
sg44
g320
sg21
S''
sg17
g319
sg30
Nsg46
g321
stRp1087
ag3
(g4
g5
(dp1088
g16
S''
sg42
g324
sg20
S''
sg44
g325
sg21
S''
sg17
g324
sg30
Nsg46
g326
stRp1089
ag3
(g4
g5
(dp1090
g16
S''
sg42
g329
sg20
S''
sg44
g330
sg21
S''
sg17
g329
sg30
Nsg46
g331
stRp1091
ag3
(g4
g5
(dp1092
g16
S''
sg42
g334
sg20
S''
sg44
g335
sg21
S''
sg17
g334
sg30
Nsg46
g336
stRp1093
ag3
(g4
g5
(dp1094
g16
S''
sg42
g339
sg20
S''
sg44
g340
sg21
S''
sg17
g339
sg30
Nsg46
g341
stRp1095
ag3
(g4
g5
(dp1096
g16
S''
sg42
g344
sg20
S''
sg44
g345
sg21
S''
sg17
g344
sg30
Nsg46
g346
stRp1097
ag3
(g4
g5
(dp1098
g16
S''
sg42
g349
sg20
S''
sg44
g350
sg21
S''
sg17
g349
sg30
Nsg46
g351
stRp1099
ag3
(g4
g5
(dp1100
g16
S''
sg42
g354
sg20
S''
sg44
g355
sg21
S''
sg17
g354
sg30
Nsg46
g356
stRp1101
ag3
(g4
g5
(dp1102
g16
S''
sg42
g359
sg20
S''
sg44
g360
sg21
S''
sg17
g359
sg30
Nsg46
g361
stRp1103
ag3
(g4
g5
(dp1104
g16
S''
sg42
g364
sg20
S''
sg44
g365
sg21
S''
sg17
g364
sg30
Nsg46
g366
stRp1105
atRp1106
sg115
g1065
sg42
S'db.rev'
p1107
sg117
S'9'
sg118
S'31'
p1108
sg120
g121
sg44
S'Rev'
p1109
sg46
S'Revision records'
p1110
stRp1111
sS'tiny'
p1112
g3
(g4
g5
(dp1113
g7
S'fileAndRev'
p1114
sg115
g1112
sg11
g3
(g12
g13
(lp1115
g3
(g4
g5
(dp1116
g16
S''
sg17
g18
sg19
g18
sg20
S''
sg21
S''
sg22
g23
sg24
g25
stRp1117
ag3
(g4
g5
(dp1118
g16
S''
sg19
g28
sg20
S''
sg22
g29
sg21
S''
sg17
g28
sg30
Nsg24
g31
stRp1119
ag3
(g4
g5
(dp1120
g16
S''
sg19
g34
sg20
S''
sg22
g23
sg21
S''
sg17
g34
sg30
Nsg24
g35
stRp1121
ag3
(g4
g5
(dp1122
g16
S''
sg19
g38
sg20
S''
sg22
g29
sg21
S''
sg17
g38
sg30
Nsg24
g39
stRp1123
ag3
(g4
g5
(dp1124
g16
S''
sg42
S'fileAndRev'
p1125
sg20
S''
sg44
S'String'
p1126
sg21
S''
sg17
g1125
sg30
Nsg46
S'The file name and revision'
p1127
stRp1128
ag3
(g4
g5
(dp1129
g16
S''
sg42
S'fileContent'
p1130
sg20
S''
sg44
S'Octet String'
p1131
sg21
S''
sg17
g1130
sg30
Nsg46
S'The (encoded) file content'
p1132
stRp1133
atRp1134
sg120
g121
sg46
S'Records revision and content data for files using the +T file type modifier'
p1135
sg44
S'TinyDb'
p1136
sg42
S'tiny.db'
p1137
stRp1138
sS'label'
p1139
g3
(g4
g5
(dp1140
g7
S'name, depotFile'
p1141
sg9
S'21'
p1142
sg11
g3
(g12
g13
(lp1143
g3
(g4
g5
(dp1144
g16
S''
sg17
g18
sg19
g18
sg20
S''
sg21
S''
sg22
g23
sg24
g25
stRp1145
ag3
(g4
g5
(dp1146
g16
S''
sg19
g28
sg20
S''
sg22
g29
sg21
S''
sg17
g28
sg30
Nsg24
g31
stRp1147
ag3
(g4
g5
(dp1148
g16
S''
sg19
g34
sg20
S''
sg22
g23
sg21
S''
sg17
g34
sg30
Nsg24
g35
stRp1149
ag3
(g4
g5
(dp1150
g16
S''
sg19
g38
sg20
S''
sg22
g29
sg21
S''
sg17
g38
sg30
Nsg24
g39
stRp1151
ag3
(g4
g5
(dp1152
g16
S''
sg42
S'name'
p1153
sg20
S''
sg44
S'Domain'
p1154
sg21
S''
sg17
g1153
sg30
Nsg46
S'Name of the label'
p1155
stRp1156
ag3
(g4
g5
(dp1157
g16
S''
sg42
S'depotFile'
p1158
sg20
S''
sg44
S'File'
p1159
sg21
S''
sg17
g1158
sg30
Nsg46
S'File name'
p1160
stRp1161
ag3
(g4
g5
(dp1162
g16
S''
sg42
S'haveRev'
p1163
sg20
S''
sg44
S'Rev'
p1164
sg21
S''
sg17
g1163
sg30
Nsg46
S'The revision of the file in the label'
p1165
stRp1166
atRp1167
sg115
g1139
sg42
S'db.label'
p1168
sg117
S'0'
sg118
S'27'
p1169
sg120
g121
sg44
S'Label'
p1170
sg46
S'Lists the revisions of files in labels'
p1171
stRp1172
sS'revbx'
p1173
g3
(g4
g5
(dp1174
g7
S'depotFile, depotRev'
p1175
sg9
S'34'
p1176
sg11
g3
(g12
g13
(lp1177
g3
(g4
g5
(dp1178
g16
S''
sg17
g18
sg19
g18
sg20
S''
sg21
S''
sg22
g23
sg24
g25
stRp1179
ag3
(g4
g5
(dp1180
g16
S''
sg19
g28
sg20
S''
sg22
g29
sg21
S''
sg17
g28
sg30
Nsg24
g31
stRp1181
ag3
(g4
g5
(dp1182
g16
S''
sg19
g34
sg20
S''
sg22
g23
sg21
S''
sg17
g34
sg30
Nsg24
g35
stRp1183
ag3
(g4
g5
(dp1184
g16
S''
sg19
g38
sg20
S''
sg22
g29
sg21
S''
sg17
g38
sg30
Nsg24
g39
stRp1185
ag3
(g4
g5
(dp1186
g16
S''
sg42
g299
sg20
S''
sg44
g300
sg21
S''
sg17
g299
sg30
Nsg46
g301
stRp1187
ag3
(g4
g5
(dp1188
g16
S''
sg42
g304
sg20
S''
sg44
g305
sg21
S''
sg17
g304
sg30
Nsg46
g306
stRp1189
ag3
(g4
g5
(dp1190
g16
S''
sg42
g309
sg20
S''
sg44
g310
sg21
S''
sg17
g309
sg30
Nsg46
g311
stRp1191
ag3
(g4
g5
(dp1192
g16
S''
sg42
g314
sg20
S''
sg44
g315
sg21
S''
sg17
g314
sg30
Nsg46
g316
stRp1193
ag3
(g4
g5
(dp1194
g16
S''
sg42
g319
sg20
S''
sg44
g320
sg21
S''
sg17
g319
sg30
Nsg46
g321
stRp1195
ag3
(g4
g5
(dp1196
g16
S''
sg42
g324
sg20
S''
sg44
g325
sg21
S''
sg17
g324
sg30
Nsg46
g326
stRp1197
ag3
(g4
g5
(dp1198
g16
S''
sg42
g329
sg20
S''
sg44
g330
sg21
S''
sg17
g329
sg30
Nsg46
g331
stRp1199
ag3
(g4
g5
(dp1200
g16
S''
sg42
g334
sg20
S''
sg44
g335
sg21
S''
sg17
g334
sg30
Nsg46
g336
stRp1201
ag3
(g4
g5
(dp1202
g16
S''
sg42
g339
sg20
S''
sg44
g340
sg21
S''
sg17
g339
sg30
Nsg46
g341
stRp1203
ag3
(g4
g5
(dp1204
g16
S''
sg42
g344
sg20
S''
sg44
g345
sg21
S''
sg17
g344
sg30
Nsg46
g346
stRp1205
ag3
(g4
g5
(dp1206
g16
S''
sg42
g349
sg20
S''
sg44
g350
sg21
S''
sg17
g349
sg30
Nsg46
g351
stRp1207
ag3
(g4
g5
(dp1208
g16
S''
sg42
g354
sg20
S''
sg44
g355
sg21
S''
sg17
g354
sg30
Nsg46
g356
stRp1209
ag3
(g4
g5
(dp1210
g16
S''
sg42
g359
sg20
S''
sg44
g360
sg21
S''
sg17
g359
sg30
Nsg46
g361
stRp1211
ag3
(g4
g5
(dp1212
g16
S''
sg42
g364
sg20
S''
sg44
g365
sg21
S''
sg17
g364
sg30
Nsg46
g366
stRp1213
atRp1214
sg115
g1173
sg42
S'db.revbx'
p1215
sg117
S'9'
sg118
S'39'
p1216
sg120
g121
sg44
S'Rev'
p1217
sg46
S'Revision records for archived files'
p1218
stRp1219
sS'nameval'
p1220
g3
(g4
g5
(dp1221
g7
S'name'
p1222
sg9
S'3'
sg11
g3
(g12
g13
(lp1223
g3
(g4
g5
(dp1224
g16
S''
sg17
g18
sg19
g18
sg20
S''
sg21
S''
sg22
g23
sg24
g25
stRp1225
ag3
(g4
g5
(dp1226
g16
S''
sg19
g28
sg20
S''
sg22
g29
sg21
S''
sg17
g28
sg30
Nsg24
g31
stRp1227
ag3
(g4
g5
(dp1228
g16
S''
sg19
g34
sg20
S''
sg22
g23
sg21
S''
sg17
g34
sg30
Nsg24
g35
stRp1229
ag3
(g4
g5
(dp1230
g16
S''
sg19
g38
sg20
S''
sg22
g29
sg21
S''
sg17
g38
sg30
Nsg24
g39
stRp1231
ag3
(g4
g5
(dp1232
g16
S''
sg42
S'name'
p1233
sg20
S''
sg44
S'Key'
p1234
sg21
S''
sg17
g1233
sg30
Nsg46
S'Key name'
p1235
stRp1236
ag3
(g4
g5
(dp1237
g16
S''
sg42
S'value'
p1238
sg20
S''
sg44
S'Value'
p1239
sg21
S''
sg17
g1238
sg30
Nsg46
S'Key value'
p1240
stRp1241
atRp1242
sg115
g1220
sg42
S'db.nameval'
p1243
sg117
S'1'
sg118
S'3'
sg120
g121
sg44
S'Keys'
p1244
sg46
S'A table to store key/value pairs'
p1245
stRp1246
sS'trigger'
p1247
g3
(g4
g5
(dp1248
g7
S'seq'
p1249
sg9
S'44'
p1250
sg11
g3
(g12
g13
(lp1251
g3
(g4
g5
(dp1252
g16
S''
sg17
g18
sg19
g18
sg20
S''
sg21
S''
sg22
g23
sg24
g25
stRp1253
ag3
(g4
g5
(dp1254
g16
S''
sg19
g28
sg20
S''
sg22
g29
sg21
S''
sg17
g28
sg30
Nsg24
g31
stRp1255
ag3
(g4
g5
(dp1256
g16
S''
sg19
g34
sg20
S''
sg22
g23
sg21
S''
sg17
g34
sg30
Nsg24
g35
stRp1257
ag3
(g4
g5
(dp1258
g16
S''
sg19
g38
sg20
S''
sg22
g29
sg21
S''
sg17
g38
sg30
Nsg24
g39
stRp1259
ag3
(g4
g5
(dp1260
g16
S''
sg42
S'seq'
p1261
sg20
S''
sg44
S'Int'
p1262
sg21
S''
sg17
g1261
sg30
Nsg46
S'Sequence number: for ordering the trigger list'
p1263
stRp1264
ag3
(g4
g5
(dp1265
g16
S''
sg42
S'name'
p1266
sg20
S''
sg44
S'String'
p1267
sg21
S''
sg17
g1266
sg30
Nsg46
S'Name of the trigger'
p1268
stRp1269
ag3
(g4
g5
(dp1270
g16
S''
sg42
S'mapFlag'
p1271
sg20
S''
sg44
S'MapFlag'
p1272
sg21
S''
sg17
g1271
sg30
Nsg46
S'Type of mapping: specifies whether the trigger applies \n\t\t    to the files or not.'
p1273
stRp1274
ag3
(g4
g5
(dp1275
g16
S''
sg42
S'depotFile'
p1276
sg20
S''
sg44
S'Mapping'
p1277
sg21
S''
sg17
g1276
sg30
Nsg46
S'The files to apply the trigger to'
p1278
stRp1279
ag3
(g4
g5
(dp1280
g16
S''
sg42
S'triggerDepotFile'
p1281
sg20
S''
sg44
S'File'
p1282
sg21
S''
sg17
g1281
sg30
Nsg46
S'Depot path to the trigger'
p1283
stRp1284
ag3
(g4
g5
(dp1285
g16
S''
sg42
S'trigger'
p1286
sg20
S''
sg44
S'Trigger'
p1287
sg21
S''
sg17
g1286
sg30
Nsg46
S'Type of trigger'
p1288
stRp1289
ag3
(g4
g5
(dp1290
g16
S''
sg42
S'action'
p1291
sg20
S''
sg44
S'Text'
p1292
sg21
S''
sg17
g1291
sg30
Nsg46
S'Command to execute when trigger runs'
p1293
stRp1294
atRp1295
sg115
g1247
sg42
S'db.trigger'
p1296
sg117
S'3'
sg118
S'44'
p1297
sg120
g121
sg44
S'Trigger'
p1298
sg46
S'Trigger specifications'
p1299
stRp1300
sS'template'
p1301
g3
(g4
g5
(dp1302
g7
S'name, change, sequence'
p1303
sg9
S'17'
p1304
sg11
g3
(g12
g13
(lp1305
g3
(g4
g5
(dp1306
g16
S''
sg17
g18
sg19
g18
sg20
S''
sg21
S''
sg22
g23
sg24
g25
stRp1307
ag3
(g4
g5
(dp1308
g16
S''
sg19
g28
sg20
S''
sg22
g29
sg21
S''
sg17
g28
sg30
Nsg24
g31
stRp1309
ag3
(g4
g5
(dp1310
g16
S''
sg19
g34
sg20
S''
sg22
g23
sg21
S''
sg17
g34
sg30
Nsg24
g35
stRp1311
ag3
(g4
g5
(dp1312
g16
S''
sg19
g38
sg20
S''
sg22
g29
sg21
S''
sg17
g38
sg30
Nsg24
g39
stRp1313
ag3
(g4
g5
(dp1314
g16
S''
sg42
S'name'
p1315
sg20
S''
sg44
S'Domain'
p1316
sg21
S''
sg17
g1315
sg30
Nsg46
S'Stream name'
p1317
stRp1318
ag3
(g4
g5
(dp1319
g16
S''
sg42
S'change'
p1320
sg20
S''
sg44
S'Change'
p1321
sg21
S''
sg17
g1320
sg30
Nsg46
S'Versioned at change'
p1322
stRp1323
ag3
(g4
g5
(dp1324
g16
S''
sg42
S'seq'
p1325
sg20
S''
sg44
S'Int'
p1326
sg21
S''
sg17
g1325
sg30
Nsg46
S'Sequence (line) number'
p1327
stRp1328
ag3
(g4
g5
(dp1329
g16
S''
sg42
S'parent'
p1330
sg20
S''
sg44
S'Domain'
p1331
sg21
S''
sg17
g1330
sg30
Nsg46
S'Parent stream name'
p1332
stRp1333
ag3
(g4
g5
(dp1334
g16
S''
sg42
S'type'
p1335
sg20
S''
sg44
S'StreamType'
p1336
sg21
S''
sg17
g1335
sg30
Nsg46
S'Type of stream'
p1337
stRp1338
ag3
(g4
g5
(dp1339
g16
S''
sg42
S'path'
p1340
sg20
S''
sg44
S'StreamPathType'
p1341
sg21
S''
sg17
g1340
sg30
Nsg46
S'Stream path type'
p1342
stRp1343
ag3
(g4
g5
(dp1344
g16
S''
sg42
S'viewFile'
p1345
sg20
S''
sg44
S'Mapping'
p1346
sg21
S''
sg17
g1345
sg30
Nsg46
S'View file (left hand side of path)'
p1347
stRp1348
ag3
(g4
g5
(dp1349
g16
S''
sg42
S'depotFile'
p1350
sg20
S''
sg44
S'Mapping'
p1351
sg21
S''
sg17
g1350
sg30
Nsg46
S'Depot file (right hand side of path)'
p1352
stRp1353
ag3
(g4
g5
(dp1354
g16
S''
sg42
S'changeMap'
p1355
sg20
S''
sg44
S'Change'
p1356
sg21
S''
sg17
g1355
sg30
Nsg46
S"Stream 'import' path changelist specifier. The changelist\n\t\t\tlimits in effect for a given client are displayed in a\n\t    \tread-only client spec field called 'ChangeView'"
p1357
stRp1358
atRp1359
sg115
g1301
sg42
S'db.template'
p1360
sg117
S'1'
sg118
S'17'
p1361
sg120
g121
sg44
S'Template'
p1362
sg46
S'Streams templates'
p1363
stRp1364
sS'haverp'
p1365
g3
(g4
g5
(dp1366
g7
S'clientFile depotFile haveRev'
p1367
sg9
S'22'
p1368
sg11
g3
(g12
g13
(lp1369
g3
(g4
g5
(dp1370
g16
S''
sg17
g18
sg19
g18
sg20
S''
sg21
S''
sg22
g23
sg24
g25
stRp1371
ag3
(g4
g5
(dp1372
g16
S''
sg19
g28
sg20
S''
sg22
g29
sg21
S''
sg17
g28
sg30
Nsg24
g31
stRp1373
ag3
(g4
g5
(dp1374
g16
S''
sg19
g34
sg20
S''
sg22
g23
sg21
S''
sg17
g34
sg30
Nsg24
g35
stRp1375
ag3
(g4
g5
(dp1376
g16
S''
sg19
g38
sg20
S''
sg22
g29
sg21
S''
sg17
g38
sg30
Nsg24
g39
stRp1377
ag3
(g4
g5
(dp1378
g16
S''
sg42
g139
sg20
S''
sg44
g140
sg21
S''
sg17
g139
sg30
Nsg46
g141
stRp1379
ag3
(g4
g5
(dp1380
g16
S''
sg42
g144
sg20
S''
sg44
g145
sg21
S''
sg17
g144
sg30
Nsg46
g146
stRp1381
ag3
(g4
g5
(dp1382
g16
S''
sg42
g149
sg20
S''
sg44
g150
sg21
S''
sg17
g149
sg30
Nsg46
g151
stRp1383
ag3
(g4
g5
(dp1384
g16
S''
sg42
g154
sg20
S''
sg44
g155
sg21
S''
sg17
g154
sg30
Nsg46
g156
stRp1385
ag3
(g4
g5
(dp1386
g16
S''
sg42
g159
sg20
S''
sg44
g160
sg21
S''
sg17
g159
sg30
Nsg46
g161
stRp1387
atRp1388
sg115
g1365
sg42
S'db.have.rp'
p1389
sg117
S'3'
sg118
S'25'
p1390
sg120
g121
sg44
S'Have'
p1391
sg46
S"Contains the 'have-list' for clients of build-server replicas"
p1392
stRp1393
sS'depot'
p1394
g3
(g4
g5
(dp1395
g7
S'name'
p1396
sg9
S'14'
p1397
sg11
g3
(g12
g13
(lp1398
g3
(g4
g5
(dp1399
g16
S''
sg17
g18
sg19
g18
sg20
S''
sg21
S''
sg22
g23
sg24
g25
stRp1400
ag3
(g4
g5
(dp1401
g16
S''
sg19
g28
sg20
S''
sg22
g29
sg21
S''
sg17
g28
sg30
Nsg24
g31
stRp1402
ag3
(g4
g5
(dp1403
g16
S''
sg19
g34
sg20
S''
sg22
g23
sg21
S''
sg17
g34
sg30
Nsg24
g35
stRp1404
ag3
(g4
g5
(dp1405
g16
S''
sg19
g38
sg20
S''
sg22
g29
sg21
S''
sg17
g38
sg30
Nsg24
g39
stRp1406
ag3
(g4
g5
(dp1407
g16
S''
sg42
S'name'
p1408
sg20
S''
sg44
S'Domain'
p1409
sg21
S''
sg17
g1408
sg30
Nsg46
S'Depot name'
p1410
stRp1411
ag3
(g4
g5
(dp1412
g16
S''
sg42
S'type'
p1413
sg20
S''
sg44
S'DepotType'
p1414
sg21
S''
sg17
g1413
sg30
Nsg46
S'Type of depot'
p1415
stRp1416
ag3
(g4
g5
(dp1417
g16
S''
sg42
S'extra'
p1418
sg20
S''
sg44
S'Text'
p1419
sg21
S''
sg17
g1418
sg30
Nsg46
S'For remote depots, the P4PORT address of the remote server.\n\t\t    For spec depots, the field contains a suffix to append to \n\t\t    the filename.'
p1420
stRp1421
ag3
(g4
g5
(dp1422
g16
S''
sg42
S'map'
p1423
sg20
S''
sg44
S'Text'
p1424
sg21
S''
sg17
g1423
sg30
Nsg46
S"The depot's map (path translation information).  For local \n\t\t    depots, this will be a path relative to the root directory.\n\t\t    For remote depots, this will be specified in terms of the \n\t\t    remote server's namespace."
p1425
stRp1426
atRp1427
sg115
g1394
sg42
S'db.depot'
p1428
sg117
S'1'
sg118
S'14'
p1429
sg120
g121
sg44
S'Depot'
p1430
sg46
S'Perforce depots'
p1431
stRp1432
sS'config'
p1433
g3
(g4
g5
(dp1434
g7
S'serverName, name'
p1435
sg9
S'1'
sg11
g3
(g12
g13
(lp1436
g3
(g4
g5
(dp1437
g16
S''
sg17
g18
sg19
g18
sg20
S''
sg21
S''
sg22
g23
sg24
g25
stRp1438
ag3
(g4
g5
(dp1439
g16
S''
sg19
g28
sg20
S''
sg22
g29
sg21
S''
sg17
g28
sg30
Nsg24
g31
stRp1440
ag3
(g4
g5
(dp1441
g16
S''
sg19
g34
sg20
S''
sg22
g23
sg21
S''
sg17
g34
sg30
Nsg24
g35
stRp1442
ag3
(g4
g5
(dp1443
g16
S''
sg19
g38
sg20
S''
sg22
g29
sg21
S''
sg17
g38
sg30
Nsg24
g39
stRp1444
ag3
(g4
g5
(dp1445
g16
S''
sg42
S'sname'
p1446
sg20
S''
sg44
S'String'
p1447
sg21
S''
sg17
g1446
sg30
Nsg46
S'Server name'
p1448
stRp1449
ag3
(g4
g5
(dp1450
g16
S''
sg42
S'name'
p1451
sg20
S''
sg44
S'String'
p1452
sg21
S''
sg17
g1451
sg30
Nsg46
S'Configuration variable name'
p1453
stRp1454
ag3
(g4
g5
(dp1455
g16
S''
sg42
S'value'
p1456
sg20
S''
sg44
S'Value'
p1457
sg21
S''
sg17
g1456
sg30
Nsg46
S'Configuration variable value'
p1458
stRp1459
atRp1460
sg115
g1433
sg42
S'db.config'
p1461
sg117
S'1'
sg118
S'1'
sg120
g121
sg44
S'Config'
p1462
sg46
S'Perforce server configurations table'
p1463
stRp1464
sS'fixrev'
p1465
g3
(g4
g5
(dp1466
g7
S'change, job'
p1467
sg9
S'50'
p1468
sg11
g3
(g12
g13
(lp1469
g3
(g4
g5
(dp1470
g16
S''
sg17
g18
sg19
g18
sg20
S''
sg21
S''
sg22
g23
sg24
g25
stRp1471
ag3
(g4
g5
(dp1472
g16
S''
sg19
g28
sg20
S''
sg22
g29
sg21
S''
sg17
g28
sg30
Nsg24
g31
stRp1473
ag3
(g4
g5
(dp1474
g16
S''
sg19
g34
sg20
S''
sg22
g23
sg21
S''
sg17
g34
sg30
Nsg24
g35
stRp1475
ag3
(g4
g5
(dp1476
g16
S''
sg19
g38
sg20
S''
sg22
g29
sg21
S''
sg17
g38
sg30
Nsg24
g39
stRp1477
ag3
(g4
g5
(dp1478
g16
S''
sg42
g998
sg20
S''
sg44
g999
sg21
S''
sg17
g998
sg30
Nsg46
g1000
stRp1479
ag3
(g4
g5
(dp1480
g16
S''
sg42
g1003
sg20
S''
sg44
g1004
sg21
S''
sg17
g1003
sg30
Nsg46
g1005
stRp1481
ag3
(g4
g5
(dp1482
g16
S''
sg42
g1008
sg20
S''
sg44
g1009
sg21
S''
sg17
g1008
sg30
Nsg46
g1010
stRp1483
ag3
(g4
g5
(dp1484
g16
S''
sg42
g1013
sg20
S''
sg44
g1014
sg21
S''
sg17
g1013
sg30
Nsg46
g1015
stRp1485
ag3
(g4
g5
(dp1486
g16
S''
sg42
g1018
sg20
S''
sg44
g1019
sg21
S''
sg17
g1018
sg30
Nsg46
g1020
stRp1487
ag3
(g4
g5
(dp1488
g16
S''
sg42
g1023
sg20
S''
sg44
g1024
sg21
S''
sg17
g1023
sg30
Nsg46
g1025
stRp1489
atRp1490
sg115
g1465
sg42
S'db.fixrev'
p1491
sg117
S'1'
sg118
S'50'
p1492
sg120
g121
sg46
S'Fix records - indexed by change'
p1493
sg44
S'Fix'
p1494
sg1032
S'db.fix'
p1495
stRp1496
sS'counters'
p1497
g3
(g4
g5
(dp1498
g7
S'name'
p1499
sg9
S'2'
sg11
g3
(g12
g13
(lp1500
g3
(g4
g5
(dp1501
g16
S''
sg17
g18
sg19
g18
sg20
S''
sg21
S''
sg22
g23
sg24
g25
stRp1502
ag3
(g4
g5
(dp1503
g16
S''
sg19
g28
sg20
S''
sg22
g29
sg21
S''
sg17
g28
sg30
Nsg24
g31
stRp1504
ag3
(g4
g5
(dp1505
g16
S''
sg19
g34
sg20
S''
sg22
g23
sg21
S''
sg17
g34
sg30
Nsg24
g35
stRp1506
ag3
(g4
g5
(dp1507
g16
S''
sg19
g38
sg20
S''
sg22
g29
sg21
S''
sg17
g38
sg30
Nsg24
g39
stRp1508
ag3
(g4
g5
(dp1509
g16
S''
sg42
S'name'
p1510
sg20
S''
sg44
S'Counter'
p1511
sg21
S''
sg17
g1510
sg30
Nsg46
S'Counter name'
p1512
stRp1513
ag3
(g4
g5
(dp1514
g16
S''
sg42
S'value'
p1515
sg20
S''
sg44
S'Value'
p1516
sg21
S''
sg17
g1515
sg30
Nsg46
S'Counter value'
p1517
stRp1518
atRp1519
sg115
g1497
sg42
S'db.counters'
p1520
sg117
S'1'
sg118
S'2'
sg120
g121
sg44
S'Counters'
p1521
sg46
S'Perforce counters table'
p1522
stRp1523
sS'logger'
p1524
g3
(g4
g5
(dp1525
g7
S'seq'
p1526
sg9
S'4'
sg11
g3
(g12
g13
(lp1527
g3
(g4
g5
(dp1528
g16
S''
sg17
g18
sg19
g18
sg20
S''
sg21
S''
sg22
g23
sg24
g25
stRp1529
ag3
(g4
g5
(dp1530
g16
S''
sg19
g28
sg20
S''
sg22
g29
sg21
S''
sg17
g28
sg30
Nsg24
g31
stRp1531
ag3
(g4
g5
(dp1532
g16
S''
sg19
g34
sg20
S''
sg22
g23
sg21
S''
sg17
g34
sg30
Nsg24
g35
stRp1533
ag3
(g4
g5
(dp1534
g16
S''
sg19
g38
sg20
S''
sg22
g29
sg21
S''
sg17
g38
sg30
Nsg24
g39
stRp1535
ag3
(g4
g5
(dp1536
g16
S''
sg42
S'seq'
p1537
sg20
S''
sg44
S'Int'
p1538
sg21
S''
sg17
g1537
sg30
Nsg46
S'Sequence number of event'
p1539
stRp1540
ag3
(g4
g5
(dp1541
g16
S''
sg42
S'key'
p1542
sg20
S''
sg44
S'String'
p1543
sg21
S''
sg17
g1542
sg30
Nsg46
S"Either the word 'change' or the word 'job'"
p1544
stRp1545
ag3
(g4
g5
(dp1546
g16
S''
sg42
S'attr'
p1547
sg20
S''
sg44
S'String'
p1548
sg21
S''
sg17
g1547
sg30
Nsg46
S'The number of the change, or name of the job that was \n\t\t    altered.'
p1549
stRp1550
atRp1551
sg115
g1524
sg42
S'db.logger'
p1552
sg117
S'0'
sg118
S'4'
sg120
g121
sg44
S'Logger'
p1553
sg46
S"Support for 'p4 logger' command. Logs any changes to \n\t\tchangelists and jobs"
p1554
stRp1555
sS'revdx'
p1556
g3
(g4
g5
(dp1557
g7
S'depotFile'
p1558
sg9
S'29'
p1559
sg11
g3
(g12
g13
(lp1560
g3
(g4
g5
(dp1561
g16
S''
sg17
g18
sg19
g18
sg20
S''
sg21
S''
sg22
g23
sg24
g25
stRp1562
ag3
(g4
g5
(dp1563
g16
S''
sg19
g28
sg20
S''
sg22
g29
sg21
S''
sg17
g28
sg30
Nsg24
g31
stRp1564
ag3
(g4
g5
(dp1565
g16
S''
sg19
g34
sg20
S''
sg22
g23
sg21
S''
sg17
g34
sg30
Nsg24
g35
stRp1566
ag3
(g4
g5
(dp1567
g16
S''
sg19
g38
sg20
S''
sg22
g29
sg21
S''
sg17
g38
sg30
Nsg24
g39
stRp1568
ag3
(g4
g5
(dp1569
g16
S''
sg42
g299
sg20
S''
sg44
g300
sg21
S''
sg17
g299
sg30
Nsg46
g301
stRp1570
ag3
(g4
g5
(dp1571
g16
S''
sg42
g304
sg20
S''
sg44
g305
sg21
S''
sg17
g304
sg30
Nsg46
g306
stRp1572
ag3
(g4
g5
(dp1573
g16
S''
sg42
g309
sg20
S''
sg44
g310
sg21
S''
sg17
g309
sg30
Nsg46
g311
stRp1574
ag3
(g4
g5
(dp1575
g16
S''
sg42
g314
sg20
S''
sg44
g315
sg21
S''
sg17
g314
sg30
Nsg46
g316
stRp1576
ag3
(g4
g5
(dp1577
g16
S''
sg42
g319
sg20
S''
sg44
g320
sg21
S''
sg17
g319
sg30
Nsg46
g321
stRp1578
ag3
(g4
g5
(dp1579
g16
S''
sg42
g324
sg20
S''
sg44
g325
sg21
S''
sg17
g324
sg30
Nsg46
g326
stRp1580
ag3
(g4
g5
(dp1581
g16
S''
sg42
g329
sg20
S''
sg44
g330
sg21
S''
sg17
g329
sg30
Nsg46
g331
stRp1582
ag3
(g4
g5
(dp1583
g16
S''
sg42
g334
sg20
S''
sg44
g335
sg21
S''
sg17
g334
sg30
Nsg46
g336
stRp1584
ag3
(g4
g5
(dp1585
g16
S''
sg42
g339
sg20
S''
sg44
g340
sg21
S''
sg17
g339
sg30
Nsg46
g341
stRp1586
ag3
(g4
g5
(dp1587
g16
S''
sg42
g344
sg20
S''
sg44
g345
sg21
S''
sg17
g344
sg30
Nsg46
g346
stRp1588
ag3
(g4
g5
(dp1589
g16
S''
sg42
g349
sg20
S''
sg44
g350
sg21
S''
sg17
g349
sg30
Nsg46
g351
stRp1590
ag3
(g4
g5
(dp1591
g16
S''
sg42
g354
sg20
S''
sg44
g355
sg21
S''
sg17
g354
sg30
Nsg46
g356
stRp1592
ag3
(g4
g5
(dp1593
g16
S''
sg42
g359
sg20
S''
sg44
g360
sg21
S''
sg17
g359
sg30
Nsg46
g361
stRp1594
ag3
(g4
g5
(dp1595
g16
S''
sg42
g364
sg20
S''
sg44
g365
sg21
S''
sg17
g364
sg30
Nsg46
g366
stRp1596
atRp1597
sg115
g1556
sg42
S'db.revdx'
p1598
sg117
S'9'
sg118
S'34'
p1599
sg120
g121
sg44
S'Rev'
p1600
sg46
S'Revision records for revisions deleted at the head revision'
p1601
stRp1602
sS'revsx'
p1603
g3
(g4
g5
(dp1604
g7
S'depotFile, depotRev'
p1605
sg9
S'32'
p1606
sg11
g3
(g12
g13
(lp1607
g3
(g4
g5
(dp1608
g16
S''
sg17
g18
sg19
g18
sg20
S''
sg21
S''
sg22
g23
sg24
g25
stRp1609
ag3
(g4
g5
(dp1610
g16
S''
sg19
g28
sg20
S''
sg22
g29
sg21
S''
sg17
g28
sg30
Nsg24
g31
stRp1611
ag3
(g4
g5
(dp1612
g16
S''
sg19
g34
sg20
S''
sg22
g23
sg21
S''
sg17
g34
sg30
Nsg24
g35
stRp1613
ag3
(g4
g5
(dp1614
g16
S''
sg19
g38
sg20
S''
sg22
g29
sg21
S''
sg17
g38
sg30
Nsg24
g39
stRp1615
ag3
(g4
g5
(dp1616
g16
S''
sg42
g299
sg20
S''
sg44
g300
sg21
S''
sg17
g299
sg30
Nsg46
g301
stRp1617
ag3
(g4
g5
(dp1618
g16
S''
sg42
g304
sg20
S''
sg44
g305
sg21
S''
sg17
g304
sg30
Nsg46
g306
stRp1619
ag3
(g4
g5
(dp1620
g16
S''
sg42
g309
sg20
S''
sg44
g310
sg21
S''
sg17
g309
sg30
Nsg46
g311
stRp1621
ag3
(g4
g5
(dp1622
g16
S''
sg42
g314
sg20
S''
sg44
g315
sg21
S''
sg17
g314
sg30
Nsg46
g316
stRp1623
ag3
(g4
g5
(dp1624
g16
S''
sg42
g319
sg20
S''
sg44
g320
sg21
S''
sg17
g319
sg30
Nsg46
g321
stRp1625
ag3
(g4
g5
(dp1626
g16
S''
sg42
g324
sg20
S''
sg44
g325
sg21
S''
sg17
g324
sg30
Nsg46
g326
stRp1627
ag3
(g4
g5
(dp1628
g16
S''
sg42
g329
sg20
S''
sg44
g330
sg21
S''
sg17
g329
sg30
Nsg46
g331
stRp1629
ag3
(g4
g5
(dp1630
g16
S''
sg42
g334
sg20
S''
sg44
g335
sg21
S''
sg17
g334
sg30
Nsg46
g336
stRp1631
ag3
(g4
g5
(dp1632
g16
S''
sg42
g339
sg20
S''
sg44
g340
sg21
S''
sg17
g339
sg30
Nsg46
g341
stRp1633
ag3
(g4
g5
(dp1634
g16
S''
sg42
g344
sg20
S''
sg44
g345
sg21
S''
sg17
g344
sg30
Nsg46
g346
stRp1635
ag3
(g4
g5
(dp1636
g16
S''
sg42
g349
sg20
S''
sg44
g350
sg21
S''
sg17
g349
sg30
Nsg46
g351
stRp1637
ag3
(g4
g5
(dp1638
g16
S''
sg42
g354
sg20
S''
sg44
g355
sg21
S''
sg17
g354
sg30
Nsg46
g356
stRp1639
ag3
(g4
g5
(dp1640
g16
S''
sg42
g359
sg20
S''
sg44
g360
sg21
S''
sg17
g359
sg30
Nsg46
g361
stRp1641
ag3
(g4
g5
(dp1642
g16
S''
sg42
g364
sg20
S''
sg44
g365
sg21
S''
sg17
g364
sg30
Nsg46
g366
stRp1643
atRp1644
sg115
g1603
sg42
S'db.revsx'
p1645
sg117
S'9'
sg118
S'37'
p1646
sg120
g121
sg44
S'Rev'
p1647
sg46
S'Revision records for spec depot files'
p1648
stRp1649
sS'changex'
p1650
g3
(g4
g5
(dp1651
g7
S'change'
p1652
sg9
S'46'
p1653
sg11
g3
(g12
g13
(lp1654
g3
(g4
g5
(dp1655
g16
S''
sg17
g18
sg19
g18
sg20
S''
sg21
S''
sg22
g23
sg24
g25
stRp1656
ag3
(g4
g5
(dp1657
g16
S''
sg19
g28
sg20
S''
sg22
g29
sg21
S''
sg17
g28
sg30
Nsg24
g31
stRp1658
ag3
(g4
g5
(dp1659
g16
S''
sg19
g34
sg20
S''
sg22
g23
sg21
S''
sg17
g34
sg30
Nsg24
g35
stRp1660
ag3
(g4
g5
(dp1661
g16
S''
sg19
g38
sg20
S''
sg22
g29
sg21
S''
sg17
g38
sg30
Nsg24
g39
stRp1662
ag3
(g4
g5
(dp1663
g16
S''
sg42
S'change'
p1664
sg20
S''
sg44
S'Change'
p1665
sg21
S''
sg17
g1664
sg30
Nsg46
S'The change number'
p1666
stRp1667
ag3
(g4
g5
(dp1668
g16
S''
sg42
S'descKey'
p1669
sg20
S''
sg44
S'Change'
p1670
sg21
S''
sg17
g1669
sg30
Nsg46
S"The description key. Normally the same as 'change', but\n\t\t    may differ if a changelist was renumbered on submission."
p1671
stRp1672
ag3
(g4
g5
(dp1673
g16
S''
sg42
S'client'
p1674
sg20
S''
sg44
S'Domain'
p1675
sg21
S''
sg17
g1674
sg30
Nsg46
S'The client from which the change originates'
p1676
stRp1677
ag3
(g4
g5
(dp1678
g16
S''
sg42
S'user'
p1679
sg20
S''
sg44
S'User'
p1680
sg21
S''
sg17
g1679
sg30
Nsg46
S'The user who owns the change'
p1681
stRp1682
ag3
(g4
g5
(dp1683
g16
S''
sg42
S'date'
p1684
sg20
S''
sg44
S'Date'
p1685
sg21
S''
sg17
g1684
sg30
Nsg46
S'Date and time the changelist was submitted'
p1686
stRp1687
ag3
(g4
g5
(dp1688
g16
S''
sg42
S'status'
p1689
sg20
S''
sg44
S'ChangeStatus'
p1690
sg21
S''
sg17
g1689
sg30
Nsg46
S'Status of the change'
p1691
stRp1692
ag3
(g4
g5
(dp1693
g16
S''
sg42
S'description'
p1694
sg20
S''
sg44
S'DescShort'
p1695
sg21
S''
sg17
g1694
sg30
Nsg46
S'Short description of the change.'
p1696
stRp1697
ag3
(g4
g5
(dp1698
g16
S''
sg42
S'root'
p1699
sg20
S''
sg44
S'Mapping'
p1700
sg21
S''
sg17
g1699
sg30
Nsg46
S'Common path for all files in the changelist'
p1701
stRp1702
atRp1703
sg115
g1650
sg42
S'db.changex'
p1704
sg370
S'contains records for pending changelists only.'
p1705
sg117
S'2'
sg118
S'46'
p1706
sg120
g121
sg44
S'Change'
p1707
sg46
S'Subset of db.change - records for pending changelists only'
p1708
stRp1709
sS'integed'
p1710
g3
(g4
g5
(dp1711
g7
S'toFile, fromFile, startFromRev, endFromRev, \n\t\tstartToRev, endToRev'
p1712
sg9
S'24'
p1713
sg11
g3
(g12
g13
(lp1714
g3
(g4
g5
(dp1715
g16
S''
sg17
g18
sg19
g18
sg20
S''
sg21
S''
sg22
g23
sg24
g25
stRp1716
ag3
(g4
g5
(dp1717
g16
S''
sg19
g28
sg20
S''
sg22
g29
sg21
S''
sg17
g28
sg30
Nsg24
g31
stRp1718
ag3
(g4
g5
(dp1719
g16
S''
sg19
g34
sg20
S''
sg22
g23
sg21
S''
sg17
g34
sg30
Nsg24
g35
stRp1720
ag3
(g4
g5
(dp1721
g16
S''
sg19
g38
sg20
S''
sg22
g29
sg21
S''
sg17
g38
sg30
Nsg24
g39
stRp1722
ag3
(g4
g5
(dp1723
g16
S''
sg42
S'toFile'
p1724
sg20
S''
sg44
S'File'
p1725
sg21
S''
sg17
g1724
sg30
Nsg46
S'File to which integration is being performed (target).'
p1726
stRp1727
ag3
(g4
g5
(dp1728
g16
S''
sg42
S'fromFile'
p1729
sg20
S''
sg44
S'File'
p1730
sg21
S''
sg17
g1729
sg30
Nsg46
S'File from which integration is being performed (source).'
p1731
stRp1732
ag3
(g4
g5
(dp1733
g16
S''
sg42
S'startFromRev'
p1734
sg20
S''
sg44
S'Rev'
p1735
sg21
S''
sg17
g1734
sg30
Nsg46
S'Starting revision of fromFile'
p1736
stRp1737
ag3
(g4
g5
(dp1738
g16
S''
sg42
S'endFromRev'
p1739
sg20
S''
sg44
S'Rev'
p1740
sg21
S''
sg17
g1739
sg30
Nsg46
S'Ending revision of fromFile'
p1741
stRp1742
ag3
(g4
g5
(dp1743
g16
S''
sg42
S'startToRev'
p1744
sg20
S''
sg44
S'Rev'
p1745
sg21
S''
sg17
g1744
sg30
Nsg46
S'Start revision of toFile into which integration was \n\t\t    performed.'
p1746
stRp1747
ag3
(g4
g5
(dp1748
g16
S''
sg42
S'endToRev'
p1749
sg20
S''
sg44
S'Rev'
p1750
sg21
S''
sg17
g1749
sg30
Nsg46
S'End revision of toFile into which integration was \n\t\t    performed. Only varies from startToRev for reverse \n\t\t    integration records.'
p1751
stRp1752
ag3
(g4
g5
(dp1753
g16
S''
sg42
S'how'
p1754
sg20
S''
sg44
S'IntegHow'
p1755
sg21
S''
sg17
g1754
sg30
Nsg46
S'Integration method: variations on \n\t\t    merge/branch/copy/ignore/delete.'
p1756
stRp1757
ag3
(g4
g5
(dp1758
g16
S''
sg42
S'change'
p1759
sg20
S''
sg44
S'Change'
p1760
sg21
S''
sg17
g1759
sg30
Nsg46
S'Changelist associated with the integration.'
p1761
stRp1762
atRp1763
sg115
g1710
sg42
S'db.integed'
p1764
sg117
S'0'
sg118
S'21'
p1765
sg120
g121
sg46
S'Permanent integration records'
p1766
sg44
S'Integed'
p1767
sg1032
S'db.resolve'
p1768
stRp1769
sS'job'
p1770
g3
(g4
g5
(dp1771
g7
S'job'
p1772
sg9
S'48'
p1773
sg11
g3
(g12
g13
(lp1774
g3
(g4
g5
(dp1775
g16
S''
sg17
g18
sg19
g18
sg20
S''
sg21
S''
sg22
g23
sg24
g25
stRp1776
ag3
(g4
g5
(dp1777
g16
S''
sg19
g28
sg20
S''
sg22
g29
sg21
S''
sg17
g28
sg30
Nsg24
g31
stRp1778
ag3
(g4
g5
(dp1779
g16
S''
sg19
g34
sg20
S''
sg22
g23
sg21
S''
sg17
g34
sg30
Nsg24
g35
stRp1780
ag3
(g4
g5
(dp1781
g16
S''
sg19
g38
sg20
S''
sg22
g29
sg21
S''
sg17
g38
sg30
Nsg24
g39
stRp1782
ag3
(g4
g5
(dp1783
g16
S''
sg42
S'job'
p1784
sg20
S''
sg44
S'String'
p1785
sg21
S''
sg17
g1784
sg30
Nsg46
S'The job name'
p1786
stRp1787
ag3
(g4
g5
(dp1788
g16
S''
sg42
S'xuser'
p1789
sg20
S''
sg44
S'User'
p1790
sg21
S''
sg17
g1789
sg30
Nsg46
S'User name: defunct'
p1791
stRp1792
ag3
(g4
g5
(dp1793
g16
S''
sg42
S'xdate'
p1794
sg20
S''
sg44
S'Date'
p1795
sg21
S''
sg17
g1794
sg30
Nsg46
S'The date: defunct'
p1796
stRp1797
ag3
(g4
g5
(dp1798
g16
S''
sg42
S'xstatus'
p1799
sg20
S''
sg44
S'JobStat'
p1800
sg21
S''
sg17
g1799
sg30
Nsg46
S'Job status: defunct'
p1801
stRp1802
ag3
(g4
g5
(dp1803
g16
S''
sg42
S'description'
p1804
sg20
S''
sg44
S'DescShort'
p1805
sg21
S''
sg17
g1804
sg30
Nsg46
S'Short description'
p1806
stRp1807
atRp1808
sg115
g1770
sg42
S'db.job'
p1809
sg117
S'0'
sg118
S'48'
p1810
sg120
g121
sg46
S'Job records'
p1811
sg44
S'Job'
p1812
sg1032
S'db.bodtext'
p1813
stRp1814
sS'workingx'
p1815
g3
(g4
g5
(dp1816
g7
S'clientFile'
p1817
sg9
S'41'
p1818
sg11
g3
(g12
g13
(lp1819
g3
(g4
g5
(dp1820
g16
S''
sg17
g18
sg19
g18
sg20
S''
sg21
S''
sg22
g23
sg24
g25
stRp1821
ag3
(g4
g5
(dp1822
g16
S''
sg19
g28
sg20
S''
sg22
g29
sg21
S''
sg17
g28
sg30
Nsg24
g31
stRp1823
ag3
(g4
g5
(dp1824
g16
S''
sg19
g34
sg20
S''
sg22
g23
sg21
S''
sg17
g34
sg30
Nsg24
g35
stRp1825
ag3
(g4
g5
(dp1826
g16
S''
sg19
g38
sg20
S''
sg22
g29
sg21
S''
sg17
g38
sg30
Nsg24
g39
stRp1827
ag3
(g4
g5
(dp1828
g16
S''
sg42
g883
sg20
S''
sg44
g884
sg21
S''
sg17
g883
sg30
Nsg46
g885
stRp1829
ag3
(g4
g5
(dp1830
g16
S''
sg42
g888
sg20
S''
sg44
g889
sg21
S''
sg17
g888
sg30
Nsg46
g890
stRp1831
ag3
(g4
g5
(dp1832
g16
S''
sg42
g893
sg20
S''
sg44
g894
sg21
S''
sg17
g893
sg30
Nsg46
g895
stRp1833
ag3
(g4
g5
(dp1834
g16
S''
sg42
g898
sg20
S''
sg44
g899
sg21
S''
sg17
g898
sg30
Nsg46
g900
stRp1835
ag3
(g4
g5
(dp1836
g16
S''
sg42
g903
sg20
S''
sg44
g904
sg21
S''
sg17
g903
sg30
Nsg46
g905
stRp1837
ag3
(g4
g5
(dp1838
g16
S''
sg42
g908
sg20
S''
sg44
g909
sg21
S''
sg17
g908
sg30
Nsg46
g910
stRp1839
ag3
(g4
g5
(dp1840
g16
S''
sg42
g913
sg20
S''
sg44
g914
sg21
S''
sg17
g913
sg30
Nsg46
g915
stRp1841
ag3
(g4
g5
(dp1842
g16
S''
sg42
g918
sg20
S''
sg44
g919
sg21
S''
sg17
g918
sg30
Nsg46
g920
stRp1843
ag3
(g4
g5
(dp1844
g16
S''
sg42
g923
sg20
S''
sg44
g924
sg21
S''
sg17
g923
sg30
Nsg46
g925
stRp1845
ag3
(g4
g5
(dp1846
g16
S''
sg42
g928
sg20
S''
sg44
g929
sg21
S''
sg17
g928
sg30
Nsg46
g930
stRp1847
ag3
(g4
g5
(dp1848
g16
S''
sg42
g933
sg20
S''
sg44
g934
sg21
S''
sg17
g933
sg30
Nsg46
g935
stRp1849
ag3
(g4
g5
(dp1850
g16
S''
sg42
g938
sg20
S''
sg44
g939
sg21
S''
sg17
g938
sg30
Nsg46
g940
stRp1851
ag3
(g4
g5
(dp1852
g16
S''
sg42
g943
sg20
S''
sg44
g944
sg21
S''
sg17
g943
sg30
Nsg46
g945
stRp1853
ag3
(g4
g5
(dp1854
g16
S''
sg42
g948
sg20
S''
sg44
g949
sg21
S''
sg17
g948
sg30
Nsg46
g950
stRp1855
ag3
(g4
g5
(dp1856
g16
S''
sg42
g953
sg20
S''
sg44
g954
sg21
S''
sg17
g953
sg30
Nsg46
g955
stRp1857
ag3
(g4
g5
(dp1858
g16
S''
sg42
g958
sg20
S''
sg44
g959
sg21
S''
sg17
g958
sg30
Nsg46
g960
stRp1859
ag3
(g4
g5
(dp1860
g16
S''
sg42
g963
sg20
S''
sg44
g964
sg21
S''
sg17
g963
sg30
Nsg46
g965
stRp1861
ag3
(g4
g5
(dp1862
g16
S''
sg42
g968
sg20
S''
sg44
g969
sg21
S''
sg17
g968
sg30
Nsg46
g970
stRp1863
ag3
(g4
g5
(dp1864
g16
S''
sg42
g973
sg20
S''
sg44
g974
sg21
S''
sg17
g973
sg30
Nsg46
g975
stRp1865
atRp1866
sg115
g1815
sg42
S'db.workingx'
p1867
sg117
S'10'
p1868
sg118
S'42'
p1869
sg120
g121
sg44
S'Working'
p1870
sg46
S'Records for shelved open files'
p1871
stRp1872
sS'user'
p1873
g3
(g4
g5
(dp1874
g7
S'user'
p1875
sg9
S'11'
p1876
sg11
g3
(g12
g13
(lp1877
g3
(g4
g5
(dp1878
g16
S''
sg17
g18
sg19
g18
sg20
S''
sg21
S''
sg22
g23
sg24
g25
stRp1879
ag3
(g4
g5
(dp1880
g16
S''
sg19
g28
sg20
S''
sg22
g29
sg21
S''
sg17
g28
sg30
Nsg24
g31
stRp1881
ag3
(g4
g5
(dp1882
g16
S''
sg19
g34
sg20
S''
sg22
g23
sg21
S''
sg17
g34
sg30
Nsg24
g35
stRp1883
ag3
(g4
g5
(dp1884
g16
S''
sg19
g38
sg20
S''
sg22
g29
sg21
S''
sg17
g38
sg30
Nsg24
g39
stRp1885
ag3
(g4
g5
(dp1886
g16
S''
sg42
S'user'
p1887
sg20
S''
sg44
S'User'
p1888
sg21
S''
sg17
g1887
sg30
Nsg46
S'The username'
p1889
stRp1890
ag3
(g4
g5
(dp1891
g16
S''
sg42
S'email'
p1892
sg20
S''
sg44
S'Text'
p1893
sg21
S''
sg17
g1892
sg30
Nsg46
S"The user's email address"
p1894
stRp1895
ag3
(g4
g5
(dp1896
g16
S''
sg42
S'jobView'
p1897
sg20
S''
sg44
S'Text'
p1898
sg21
S''
sg17
g1897
sg30
Nsg46
S"The user's job view"
p1899
stRp1900
ag3
(g4
g5
(dp1901
g16
S''
sg42
S'updateDate'
p1902
sg20
S''
sg44
S'Date'
p1903
sg21
S''
sg17
g1902
sg30
Nsg46
S'The date/time the user record was last updated'
p1904
stRp1905
ag3
(g4
g5
(dp1906
g16
S''
sg42
S'accessDate'
p1907
sg20
S''
sg44
S'Date'
p1908
sg21
S''
sg17
g1907
sg30
Nsg46
S'The date/time the user record was last used'
p1909
stRp1910
ag3
(g4
g5
(dp1911
g16
S''
sg42
S'fullName'
p1912
sg20
S''
sg44
S'Text'
p1913
sg21
S''
sg17
g1912
sg30
Nsg46
S"The user's full name"
p1914
stRp1915
ag3
(g4
g5
(dp1916
g16
S''
sg42
S'password'
p1917
sg20
S''
sg44
S'Password'
p1918
sg21
S''
sg17
g1917
sg30
Nsg46
S'The MD5 hash of the users (encrypted) password'
p1919
stRp1920
ag3
(g4
g5
(dp1921
g16
S''
sg42
S'strength'
p1922
sg20
S''
sg44
S'Strength'
p1923
sg21
S''
sg17
g1922
sg30
Nsg46
S"Measure of the strength of the user's password"
p1924
stRp1925
ag3
(g4
g5
(dp1926
g16
S''
sg42
S'ticket'
p1927
sg20
S''
sg44
S'Password'
p1928
sg21
S''
sg17
g1927
sg30
Nsg46
S"'p4 login' ticket for this user"
p1929
stRp1930
ag3
(g4
g5
(dp1931
g16
S''
sg42
S'endDate'
p1932
sg20
S''
sg44
S'Date'
p1933
sg21
S''
sg17
g1932
sg30
Nsg46
S"Date/time the user's ticket expires"
p1934
stRp1935
ag3
(g4
g5
(dp1936
g16
S''
sg42
S'type'
p1937
sg20
S''
sg44
S'UserLevel'
p1938
sg21
S''
sg17
g1937
sg30
Nsg46
S'Type of user'
p1939
stRp1940
ag3
(g4
g5
(dp1941
g16
S''
sg42
S'passDate'
p1942
sg20
S''
sg44
S'Date'
p1943
sg21
S''
sg17
g1942
sg30
Nsg46
S'Date password was last changed'
p1944
stRp1945
ag3
(g4
g5
(dp1946
g16
S''
sg42
S'passExpire'
p1947
sg20
S''
sg44
S'Date'
p1948
sg21
S''
sg17
g1947
sg30
Nsg46
S'Date of password expiration'
p1949
stRp1950
ag3
(g4
g5
(dp1951
g16
S''
sg42
S'attempts'
p1952
sg20
S''
sg44
S'Date'
p1953
sg21
S''
sg17
g1952
sg30
Nsg46
S'Failed login attempts'
p1954
stRp1955
ag3
(g4
g5
(dp1956
g16
S''
sg42
S'auth'
p1957
sg20
S''
sg44
S'Int'
p1958
sg21
S''
sg17
g1957
sg30
Nsg46
S'Authentication method for user; 0=perforce, 1=ldap'
p1959
stRp1960
atRp1961
sg115
g1873
sg42
S'db.user'
p1962
sg117
S'7'
sg118
S'11'
p1963
sg120
g121
sg44
S'User'
p1964
sg46
S'Perforce users'
p1965
stRp1966
sS'revux'
p1967
g3
(g4
g5
(dp1968
g7
S'depotFile'
p1969
sg9
S'35'
p1970
sg11
g3
(g12
g13
(lp1971
g3
(g4
g5
(dp1972
g16
S''
sg17
g18
sg19
g18
sg20
S''
sg21
S''
sg22
g23
sg24
g25
stRp1973
ag3
(g4
g5
(dp1974
g16
S''
sg19
g28
sg20
S''
sg22
g29
sg21
S''
sg17
g28
sg30
Nsg24
g31
stRp1975
ag3
(g4
g5
(dp1976
g16
S''
sg19
g34
sg20
S''
sg22
g23
sg21
S''
sg17
g34
sg30
Nsg24
g35
stRp1977
ag3
(g4
g5
(dp1978
g16
S''
sg19
g38
sg20
S''
sg22
g29
sg21
S''
sg17
g38
sg30
Nsg24
g39
stRp1979
ag3
(g4
g5
(dp1980
g16
S''
sg42
g299
sg20
S''
sg44
g300
sg21
S''
sg17
g299
sg30
Nsg46
g301
stRp1981
ag3
(g4
g5
(dp1982
g16
S''
sg42
g304
sg20
S''
sg44
g305
sg21
S''
sg17
g304
sg30
Nsg46
g306
stRp1983
ag3
(g4
g5
(dp1984
g16
S''
sg42
g309
sg20
S''
sg44
g310
sg21
S''
sg17
g309
sg30
Nsg46
g311
stRp1985
ag3
(g4
g5
(dp1986
g16
S''
sg42
g314
sg20
S''
sg44
g315
sg21
S''
sg17
g314
sg30
Nsg46
g316
stRp1987
ag3
(g4
g5
(dp1988
g16
S''
sg42
g319
sg20
S''
sg44
g320
sg21
S''
sg17
g319
sg30
Nsg46
g321
stRp1989
ag3
(g4
g5
(dp1990
g16
S''
sg42
g324
sg20
S''
sg44
g325
sg21
S''
sg17
g324
sg30
Nsg46
g326
stRp1991
ag3
(g4
g5
(dp1992
g16
S''
sg42
g329
sg20
S''
sg44
g330
sg21
S''
sg17
g329
sg30
Nsg46
g331
stRp1993
ag3
(g4
g5
(dp1994
g16
S''
sg42
g334
sg20
S''
sg44
g335
sg21
S''
sg17
g334
sg30
Nsg46
g336
stRp1995
ag3
(g4
g5
(dp1996
g16
S''
sg42
g339
sg20
S''
sg44
g340
sg21
S''
sg17
g339
sg30
Nsg46
g341
stRp1997
ag3
(g4
g5
(dp1998
g16
S''
sg42
g344
sg20
S''
sg44
g345
sg21
S''
sg17
g344
sg30
Nsg46
g346
stRp1999
ag3
(g4
g5
(dp2000
g16
S''
sg42
g349
sg20
S''
sg44
g350
sg21
S''
sg17
g349
sg30
Nsg46
g351
stRp2001
ag3
(g4
g5
(dp2002
g16
S''
sg42
g354
sg20
S''
sg44
g355
sg21
S''
sg17
g354
sg30
Nsg46
g356
stRp2003
ag3
(g4
g5
(dp2004
g16
S''
sg42
g359
sg20
S''
sg44
g360
sg21
S''
sg17
g359
sg30
Nsg46
g361
stRp2005
ag3
(g4
g5
(dp2006
g16
S''
sg42
g364
sg20
S''
sg44
g365
sg21
S''
sg17
g364
sg30
Nsg46
g366
stRp2007
atRp2008
sg115
g1967
sg42
S'db.revux'
p2009
sg117
S'9'
sg118
S'40'
p2010
sg120
g121
sg44
S'Rev'
p2011
sg46
S'Revision records for unload depot files'
p2012
stRp2013
sS'revsh'
p2014
g3
(g4
g5
(dp2015
g7
S'depotFile, depotRev, type, action, change'
p2016
sg9
S'33'
p2017
sg11
g3
(g12
g13
(lp2018
g3
(g4
g5
(dp2019
g16
S''
sg17
g18
sg19
g18
sg20
S''
sg21
S''
sg22
g23
sg24
g25
stRp2020
ag3
(g4
g5
(dp2021
g16
S''
sg19
g28
sg20
S''
sg22
g29
sg21
S''
sg17
g28
sg30
Nsg24
g31
stRp2022
ag3
(g4
g5
(dp2023
g16
S''
sg19
g34
sg20
S''
sg22
g23
sg21
S''
sg17
g34
sg30
Nsg24
g35
stRp2024
ag3
(g4
g5
(dp2025
g16
S''
sg19
g38
sg20
S''
sg22
g29
sg21
S''
sg17
g38
sg30
Nsg24
g39
stRp2026
ag3
(g4
g5
(dp2027
g16
S''
sg42
g299
sg20
S''
sg44
g300
sg21
S''
sg17
g299
sg30
Nsg46
g301
stRp2028
ag3
(g4
g5
(dp2029
g16
S''
sg42
g304
sg20
S''
sg44
g305
sg21
S''
sg17
g304
sg30
Nsg46
g306
stRp2030
ag3
(g4
g5
(dp2031
g16
S''
sg42
g309
sg20
S''
sg44
g310
sg21
S''
sg17
g309
sg30
Nsg46
g311
stRp2032
ag3
(g4
g5
(dp2033
g16
S''
sg42
g314
sg20
S''
sg44
g315
sg21
S''
sg17
g314
sg30
Nsg46
g316
stRp2034
ag3
(g4
g5
(dp2035
g16
S''
sg42
g319
sg20
S''
sg44
g320
sg21
S''
sg17
g319
sg30
Nsg46
g321
stRp2036
ag3
(g4
g5
(dp2037
g16
S''
sg42
g324
sg20
S''
sg44
g325
sg21
S''
sg17
g324
sg30
Nsg46
g326
stRp2038
ag3
(g4
g5
(dp2039
g16
S''
sg42
g329
sg20
S''
sg44
g330
sg21
S''
sg17
g329
sg30
Nsg46
g331
stRp2040
ag3
(g4
g5
(dp2041
g16
S''
sg42
g334
sg20
S''
sg44
g335
sg21
S''
sg17
g334
sg30
Nsg46
g336
stRp2042
ag3
(g4
g5
(dp2043
g16
S''
sg42
g339
sg20
S''
sg44
g340
sg21
S''
sg17
g339
sg30
Nsg46
g341
stRp2044
ag3
(g4
g5
(dp2045
g16
S''
sg42
g344
sg20
S''
sg44
g345
sg21
S''
sg17
g344
sg30
Nsg46
g346
stRp2046
ag3
(g4
g5
(dp2047
g16
S''
sg42
g349
sg20
S''
sg44
g350
sg21
S''
sg17
g349
sg30
Nsg46
g351
stRp2048
ag3
(g4
g5
(dp2049
g16
S''
sg42
g354
sg20
S''
sg44
g355
sg21
S''
sg17
g354
sg30
Nsg46
g356
stRp2050
ag3
(g4
g5
(dp2051
g16
S''
sg42
g359
sg20
S''
sg44
g360
sg21
S''
sg17
g359
sg30
Nsg46
g361
stRp2052
ag3
(g4
g5
(dp2053
g16
S''
sg42
g364
sg20
S''
sg44
g365
sg21
S''
sg17
g364
sg30
Nsg46
g366
stRp2054
atRp2055
sg115
g2014
sg42
S'db.revsh'
p2056
sg117
S'9'
sg118
S'38'
p2057
sg120
g121
sg44
S'Rev'
p2058
sg46
S'Revision records for shelved files'
p2059
stRp2060
sS'jnlack'
p2061
g3
(g4
g5
(dp2062
g7
S'id'
p2063
sg9
S'58'
p2064
sg11
g3
(g12
g13
(lp2065
g3
(g4
g5
(dp2066
g16
S''
sg17
g18
sg19
g18
sg20
S''
sg21
S''
sg22
g23
sg24
g25
stRp2067
ag3
(g4
g5
(dp2068
g16
S''
sg19
g28
sg20
S''
sg22
g29
sg21
S''
sg17
g28
sg30
Nsg24
g31
stRp2069
ag3
(g4
g5
(dp2070
g16
S''
sg19
g34
sg20
S''
sg22
g23
sg21
S''
sg17
g34
sg30
Nsg24
g35
stRp2071
ag3
(g4
g5
(dp2072
g16
S''
sg19
g38
sg20
S''
sg22
g29
sg21
S''
sg17
g38
sg30
Nsg24
g39
stRp2073
ag3
(g4
g5
(dp2074
g16
S''
sg42
S'serverId'
p2075
sg20
S''
sg44
S'Domain'
p2076
sg21
S''
sg17
g2075
sg30
Nsg46
S'The serverId of the standby for whom this record applies'
p2077
stRp2078
ag3
(g4
g5
(dp2079
g16
S''
sg42
S'lastUpdate'
p2080
sg20
S''
sg44
S'Date'
p2081
sg21
S''
sg17
g2080
sg30
Nsg46
S'The date and time of last update'
p2082
stRp2083
ag3
(g4
g5
(dp2084
g16
S''
sg42
S'serverType'
p2085
sg20
S''
sg44
S'ServerServiceType'
p2086
sg21
S''
sg17
g2085
sg30
Nsg46
S'The server services offered by this standby'
p2087
stRp2088
ag3
(g4
g5
(dp2089
g16
S''
sg42
S'persistedJnl'
p2090
sg20
S''
sg44
S'Int'
p2091
sg21
S''
sg17
g2090
sg30
Nsg46
S'The last journal number persisted by this standby'
p2092
stRp2093
ag3
(g4
g5
(dp2094
g16
S''
sg42
S'persistedPos'
p2095
sg20
S''
sg44
S'Int64'
p2096
sg21
S''
sg17
g2095
sg30
Nsg46
S'The last journal position persisted by this standby'
p2097
stRp2098
ag3
(g4
g5
(dp2099
g16
S''
sg42
S'isAlive'
p2100
sg20
S''
sg44
S'Int'
p2101
sg21
S''
sg17
g2100
sg30
Nsg46
S'1 = alive'
p2102
stRp2103
ag3
(g4
g5
(dp2104
g16
S''
sg42
S'appliedJnl'
p2105
sg20
S''
sg44
S'Int'
p2106
sg21
S''
sg17
g2105
sg30
Nsg46
S'The last journal number applied to this standby'
p2107
stRp2108
ag3
(g4
g5
(dp2109
g16
S''
sg42
S'appliedPos'
p2110
sg20
S''
sg44
S'Int64'
p2111
sg21
S''
sg17
g2110
sg30
Nsg46
S'The last journal position applied to this standby'
p2112
stRp2113
atRp2114
sg115
g2061
sg42
S'db.jnlack'
p2115
sg117
S'0'
sg118
S'58'
p2116
sg120
g121
sg44
S'JnlAck'
p2117
sg46
S'Tracks journal positions of all standby servers'
p2118
stRp2119
sS'excl'
p2120
g3
(g4
g5
(dp2121
g7
S'depotFile'
p2122
sg9
S'42'
p2123
sg11
g3
(g12
g13
(lp2124
g3
(g4
g5
(dp2125
g16
S''
sg17
g18
sg19
g18
sg20
S''
sg21
S''
sg22
g23
sg24
g25
stRp2126
ag3
(g4
g5
(dp2127
g16
S''
sg19
g28
sg20
S''
sg22
g29
sg21
S''
sg17
g28
sg30
Nsg24
g31
stRp2128
ag3
(g4
g5
(dp2129
g16
S''
sg19
g34
sg20
S''
sg22
g23
sg21
S''
sg17
g34
sg30
Nsg24
g35
stRp2130
ag3
(g4
g5
(dp2131
g16
S''
sg19
g38
sg20
S''
sg22
g29
sg21
S''
sg17
g38
sg30
Nsg24
g39
stRp2132
ag3
(g4
g5
(dp2133
g16
S''
sg42
S'depotFile'
p2134
sg20
S''
sg44
S'File'
p2135
sg21
S''
sg17
g2134
sg30
Nsg46
S'The file locked'
p2136
stRp2137
ag3
(g4
g5
(dp2138
g16
S''
sg42
S'client'
p2139
sg20
S''
sg44
S'Domain'
p2140
sg21
S''
sg17
g2139
sg30
Nsg46
S'The client for which the file is locked'
p2141
stRp2142
ag3
(g4
g5
(dp2143
g16
S''
sg42
S'user'
p2144
sg20
S''
sg44
S'User'
p2145
sg21
S''
sg17
g2144
sg30
Nsg46
S'The user for which the file is locked'
p2146
stRp2147
atRp2148
sg115
g2120
sg42
S'db.excl'
p2149
sg117
S'1'
sg118
S'29'
p2150
sg120
g121
sg44
S'ExclusiveLock'
p2151
sg46
S'Exclusively locked files -  enables coordinated file locking in commit/edge server environments'
p2152
stRp2153
sS'resolvex'
p2154
g3
(g4
g5
(dp2155
g7
S'toFile, fromFile, startFromRev'
p2156
sg9
S'27'
p2157
sg11
g3
(g12
g13
(lp2158
g3
(g4
g5
(dp2159
g16
S''
sg17
g18
sg19
g18
sg20
S''
sg21
S''
sg22
g23
sg24
g25
stRp2160
ag3
(g4
g5
(dp2161
g16
S''
sg19
g28
sg20
S''
sg22
g29
sg21
S''
sg17
g28
sg30
Nsg24
g31
stRp2162
ag3
(g4
g5
(dp2163
g16
S''
sg19
g34
sg20
S''
sg22
g23
sg21
S''
sg17
g34
sg30
Nsg24
g35
stRp2164
ag3
(g4
g5
(dp2165
g16
S''
sg19
g38
sg20
S''
sg22
g29
sg21
S''
sg17
g38
sg30
Nsg24
g39
stRp2166
ag3
(g4
g5
(dp2167
g16
S''
sg42
S'toFile'
p2168
sg20
S''
sg44
S'File'
p2169
sg21
S''
sg17
g2168
sg30
Nsg46
S'File to which integration is being performed (target).'
p2170
stRp2171
ag3
(g4
g5
(dp2172
g16
S''
sg42
S'fromFile'
p2173
sg20
S''
sg44
S'File'
p2174
sg21
S''
sg17
g2173
sg30
Nsg46
S'File from which integration is being performed (source).'
p2175
stRp2176
ag3
(g4
g5
(dp2177
g16
S''
sg42
S'startFromRev'
p2178
sg20
S''
sg44
S'Rev'
p2179
sg21
S''
sg17
g2178
sg30
Nsg46
S'Starting revision of fromFile'
p2180
stRp2181
ag3
(g4
g5
(dp2182
g16
S''
sg42
S'endFromRev'
p2183
sg20
S''
sg44
S'Rev'
p2184
sg21
S''
sg17
g2183
sg30
Nsg46
S'Ending revision of fromFile'
p2185
stRp2186
ag3
(g4
g5
(dp2187
g16
S''
sg42
S'startToRev'
p2188
sg20
S''
sg44
S'Rev'
p2189
sg21
S''
sg17
g2188
sg30
Nsg46
S'Start revision of toFile into which integration was \n\t\t    performed.'
p2190
stRp2191
ag3
(g4
g5
(dp2192
g16
S''
sg42
S'endToRev'
p2193
sg20
S''
sg44
S'Rev'
p2194
sg21
S''
sg17
g2193
sg30
Nsg46
S'End revision of toFile into which integration was \n\t\t    performed. Only varies from startToRev for reverse \n\t\t    integration records.'
p2195
stRp2196
ag3
(g4
g5
(dp2197
g16
S''
sg42
S'how'
p2198
sg20
S''
sg44
S'IntegHow'
p2199
sg21
S''
sg17
g2198
sg30
Nsg46
S'Integration method: variations on \n\t\t    merge/branch/copy/ignore/delete.'
p2200
stRp2201
ag3
(g4
g5
(dp2202
g16
S''
sg42
S'state'
p2203
sg20
S''
sg44
S'ResolveState'
p2204
sg21
S''
sg17
g2203
sg30
Nsg46
S'How the user performed the resolve.'
p2205
stRp2206
ag3
(g4
g5
(dp2207
g16
S''
sg42
S'baseFile'
p2208
sg20
S''
sg44
S'File'
p2209
sg21
S''
sg17
g2208
sg30
Nsg46
S'File used as the base for merging.'
p2210
stRp2211
ag3
(g4
g5
(dp2212
g16
S''
sg42
S'baseRev'
p2213
sg20
S''
sg44
S'Rev'
p2214
sg21
S''
sg17
g2213
sg30
Nsg46
S'Revision of baseFile used as the merge base.'
p2215
stRp2216
atRp2217
sg115
g2154
sg42
S'db.resolvex'
p2218
sg117
S'1'
sg118
S'24'
p2219
sg120
g121
sg46
S'Pending integration records for shelved files'
p2220
sg44
S'Resolve'
p2221
sg1032
S'db.integed'
p2222
stRp2223
sS'groupx'
p2224
g3
(g4
g5
(dp2225
g7
S'group'
p2226
sg9
S'13'
p2227
sg11
g3
(g12
g13
(lp2228
g3
(g4
g5
(dp2229
g16
S''
sg17
g18
sg19
g18
sg20
S''
sg21
S''
sg22
g23
sg24
g25
stRp2230
ag3
(g4
g5
(dp2231
g16
S''
sg19
g28
sg20
S''
sg22
g29
sg21
S''
sg17
g28
sg30
Nsg24
g31
stRp2232
ag3
(g4
g5
(dp2233
g16
S''
sg19
g34
sg20
S''
sg22
g23
sg21
S''
sg17
g34
sg30
Nsg24
g35
stRp2234
ag3
(g4
g5
(dp2235
g16
S''
sg19
g38
sg20
S''
sg22
g29
sg21
S''
sg17
g38
sg30
Nsg24
g39
stRp2236
ag3
(g4
g5
(dp2237
g16
S''
sg42
S'group'
p2238
sg20
S''
sg44
S'User'
p2239
sg21
S''
sg17
g2238
sg30
Nsg46
S'Group name'
p2240
stRp2241
ag3
(g4
g5
(dp2242
g16
S''
sg42
S'ldapConf'
p2243
sg20
S''
sg44
S'String'
p2244
sg21
S''
sg17
g2243
sg30
Nsg46
S"The LDAP configuration to use when populating the group's user list from an LDAP query"
p2245
stRp2246
ag3
(g4
g5
(dp2247
g16
S''
sg42
S'ldapSearchQuery'
p2248
sg20
S''
sg44
S'String'
p2249
sg21
S''
sg17
g2248
sg30
Nsg46
S'The LDAP query used to identify the members of the group'
p2250
stRp2251
ag3
(g4
g5
(dp2252
g16
S''
sg42
S'ldapUserAttribute'
p2253
sg20
S''
sg44
S'String'
p2254
sg21
S''
sg17
g2253
sg30
Nsg46
S"The LDAP attribute that represents the user's username"
p2255
stRp2256
atRp2257
sg115
g2224
sg42
S'db.groupx'
p2258
sg117
S'0'
sg118
S'13'
p2259
sg120
g121
sg44
S'GroupX'
p2260
sg46
S'Contains per-group data to support Perforce group membership controlled by AD/LDAP group membership'
p2261
stRp2262
sS'change'
p2263
g3
(g4
g5
(dp2264
g7
S'change'
p2265
sg9
S'45'
p2266
sg11
g3
(g12
g13
(lp2267
g3
(g4
g5
(dp2268
g16
S''
sg17
g18
sg19
g18
sg20
S''
sg21
S''
sg22
g23
sg24
g25
stRp2269
ag3
(g4
g5
(dp2270
g16
S''
sg19
g28
sg20
S''
sg22
g29
sg21
S''
sg17
g28
sg30
Nsg24
g31
stRp2271
ag3
(g4
g5
(dp2272
g16
S''
sg19
g34
sg20
S''
sg22
g23
sg21
S''
sg17
g34
sg30
Nsg24
g35
stRp2273
ag3
(g4
g5
(dp2274
g16
S''
sg19
g38
sg20
S''
sg22
g29
sg21
S''
sg17
g38
sg30
Nsg24
g39
stRp2275
ag3
(g4
g5
(dp2276
g16
S''
sg42
g1664
sg20
S''
sg44
g1665
sg21
S''
sg17
g1664
sg30
Nsg46
g1666
stRp2277
ag3
(g4
g5
(dp2278
g16
S''
sg42
g1669
sg20
S''
sg44
g1670
sg21
S''
sg17
g1669
sg30
Nsg46
g1671
stRp2279
ag3
(g4
g5
(dp2280
g16
S''
sg42
g1674
sg20
S''
sg44
g1675
sg21
S''
sg17
g1674
sg30
Nsg46
g1676
stRp2281
ag3
(g4
g5
(dp2282
g16
S''
sg42
g1679
sg20
S''
sg44
g1680
sg21
S''
sg17
g1679
sg30
Nsg46
g1681
stRp2283
ag3
(g4
g5
(dp2284
g16
S''
sg42
g1684
sg20
S''
sg44
g1685
sg21
S''
sg17
g1684
sg30
Nsg46
g1686
stRp2285
ag3
(g4
g5
(dp2286
g16
S''
sg42
g1689
sg20
S''
sg44
g1690
sg21
S''
sg17
g1689
sg30
Nsg46
g1691
stRp2287
ag3
(g4
g5
(dp2288
g16
S''
sg42
g1694
sg20
S''
sg44
g1695
sg21
S''
sg17
g1694
sg30
Nsg46
g1696
stRp2289
ag3
(g4
g5
(dp2290
g16
S''
sg42
g1699
sg20
S''
sg44
g1700
sg21
S''
sg17
g1699
sg30
Nsg46
g1701
stRp2291
atRp2292
sg115
g2263
sg42
S'db.change'
p2293
sg117
S'2'
sg118
S'45'
p2294
sg120
g121
sg44
S'Change'
p2295
sg46
S'Changelists'
p2296
stRp2297
sS'desc'
p2298
g3
(g4
g5
(dp2299
g7
S'descKey'
p2300
sg9
S'47'
p2301
sg11
g3
(g12
g13
(lp2302
g3
(g4
g5
(dp2303
g16
S''
sg17
g18
sg19
g18
sg20
S''
sg21
S''
sg22
g23
sg24
g25
stRp2304
ag3
(g4
g5
(dp2305
g16
S''
sg19
g28
sg20
S''
sg22
g29
sg21
S''
sg17
g28
sg30
Nsg24
g31
stRp2306
ag3
(g4
g5
(dp2307
g16
S''
sg19
g34
sg20
S''
sg22
g23
sg21
S''
sg17
g34
sg30
Nsg24
g35
stRp2308
ag3
(g4
g5
(dp2309
g16
S''
sg19
g38
sg20
S''
sg22
g29
sg21
S''
sg17
g38
sg30
Nsg24
g39
stRp2310
ag3
(g4
g5
(dp2311
g16
S''
sg42
S'descKey'
p2312
sg20
S''
sg44
S'Change'
p2313
sg21
S''
sg17
g2312
sg30
Nsg46
S'Original number of the change to which this description\n\t\t    applies. This may differ from the final change number if\n\t\t    the change is renumbered on submission.'
p2314
stRp2315
ag3
(g4
g5
(dp2316
g16
S''
sg42
S'description'
p2317
sg20
S''
sg44
S'Text'
p2318
sg21
S''
sg17
g2317
sg30
Nsg46
S'The change description itself'
p2319
stRp2320
atRp2321
sg115
g2298
sg42
S'db.desc'
p2322
sg117
S'0'
sg118
S'47'
p2323
sg120
g121
sg44
S'Desc'
p2324
sg46
S'Change descriptions'
p2325
stRp2326
sS'integtx'
p2327
g3
(g4
g5
(dp2328
g7
S'toFile, fromFile, startFromRev, endFromRev, \n\t\tstartToRev, endToRev'
p2329
sg9
S'25'
p2330
sg11
g3
(g12
g13
(lp2331
g3
(g4
g5
(dp2332
g16
S''
sg17
g18
sg19
g18
sg20
S''
sg21
S''
sg22
g23
sg24
g25
stRp2333
ag3
(g4
g5
(dp2334
g16
S''
sg19
g28
sg20
S''
sg22
g29
sg21
S''
sg17
g28
sg30
Nsg24
g31
stRp2335
ag3
(g4
g5
(dp2336
g16
S''
sg19
g34
sg20
S''
sg22
g23
sg21
S''
sg17
g34
sg30
Nsg24
g35
stRp2337
ag3
(g4
g5
(dp2338
g16
S''
sg19
g38
sg20
S''
sg22
g29
sg21
S''
sg17
g38
sg30
Nsg24
g39
stRp2339
ag3
(g4
g5
(dp2340
g16
S''
sg42
g1724
sg20
S''
sg44
g1725
sg21
S''
sg17
g1724
sg30
Nsg46
g1726
stRp2341
ag3
(g4
g5
(dp2342
g16
S''
sg42
g1729
sg20
S''
sg44
g1730
sg21
S''
sg17
g1729
sg30
Nsg46
g1731
stRp2343
ag3
(g4
g5
(dp2344
g16
S''
sg42
g1734
sg20
S''
sg44
g1735
sg21
S''
sg17
g1734
sg30
Nsg46
g1736
stRp2345
ag3
(g4
g5
(dp2346
g16
S''
sg42
g1739
sg20
S''
sg44
g1740
sg21
S''
sg17
g1739
sg30
Nsg46
g1741
stRp2347
ag3
(g4
g5
(dp2348
g16
S''
sg42
g1744
sg20
S''
sg44
g1745
sg21
S''
sg17
g1744
sg30
Nsg46
g1746
stRp2349
ag3
(g4
g5
(dp2350
g16
S''
sg42
g1749
sg20
S''
sg44
g1750
sg21
S''
sg17
g1749
sg30
Nsg46
g1751
stRp2351
ag3
(g4
g5
(dp2352
g16
S''
sg42
g1754
sg20
S''
sg44
g1755
sg21
S''
sg17
g1754
sg30
Nsg46
g1756
stRp2353
ag3
(g4
g5
(dp2354
g16
S''
sg42
g1759
sg20
S''
sg44
g1760
sg21
S''
sg17
g1759
sg30
Nsg46
g1761
stRp2355
atRp2356
sg115
g2327
sg42
S'db.integtx'
p2357
sg117
S'0'
sg118
S'22'
p2358
sg120
g121
sg46
S'Task stream integration records'
p2359
sg44
S'Integed'
p2360
sg1032
S'db.resolve'
p2361
stRp2362
sS'protect'
p2363
g3
(g4
g5
(dp2364
g7
S'seq'
p2365
sg9
S'54'
p2366
sg11
g3
(g12
g13
(lp2367
g3
(g4
g5
(dp2368
g16
S''
sg17
g18
sg19
g18
sg20
S''
sg21
S''
sg22
g23
sg24
g25
stRp2369
ag3
(g4
g5
(dp2370
g16
S''
sg19
g28
sg20
S''
sg22
g29
sg21
S''
sg17
g28
sg30
Nsg24
g31
stRp2371
ag3
(g4
g5
(dp2372
g16
S''
sg19
g34
sg20
S''
sg22
g23
sg21
S''
sg17
g34
sg30
Nsg24
g35
stRp2373
ag3
(g4
g5
(dp2374
g16
S''
sg19
g38
sg20
S''
sg22
g29
sg21
S''
sg17
g38
sg30
Nsg24
g39
stRp2375
ag3
(g4
g5
(dp2376
g16
S''
sg42
S'seq'
p2377
sg20
S''
sg44
S'Int'
p2378
sg21
S''
sg17
g2377
sg30
Nsg46
S'Sequence number: for ordering the protections table'
p2379
stRp2380
ag3
(g4
g5
(dp2381
g16
S''
sg42
S'isGroup'
p2382
sg20
S''
sg44
S'Int'
p2383
sg21
S''
sg17
g2382
sg30
Nsg46
S'Flag: 0 for a per-user setting, 1 for a per-group setting.'
p2384
stRp2385
ag3
(g4
g5
(dp2386
g16
S''
sg42
S'user'
p2387
sg20
S''
sg44
S'UserWild'
p2388
sg21
S''
sg17
g2387
sg30
Nsg46
S'User(s), or Group(s) for whom this record applies.'
p2389
stRp2390
ag3
(g4
g5
(dp2391
g16
S''
sg42
S'host'
p2392
sg20
S''
sg44
S'DomainWild'
p2393
sg21
S''
sg17
g2392
sg30
Nsg46
S'Domain(s) (IP addresses) for which this record applies.'
p2394
stRp2395
ag3
(g4
g5
(dp2396
g16
S''
sg42
S'perm'
p2397
sg20
S''
sg44
S'Perm'
p2398
sg21
S''
sg17
g2397
sg30
Nsg46
S'Permissions to be granted/revoked'
p2399
stRp2400
ag3
(g4
g5
(dp2401
g16
S''
sg42
S'mapFlag'
p2402
sg20
S''
sg44
S'MapFlag'
p2403
sg21
S''
sg17
g2402
sg30
Nsg46
S'Flag: Map the files in or out?'
p2404
stRp2405
ag3
(g4
g5
(dp2406
g16
S''
sg42
S'depotFile'
p2407
sg20
S''
sg44
S'Mapping'
p2408
sg21
S''
sg17
g2407
sg30
Nsg46
S'Files to be mapped in or out.'
p2409
stRp2410
atRp2411
sg115
g2363
sg42
S'db.protect'
p2412
sg117
S'4'
sg118
S'54'
p2413
sg120
g121
sg44
S'Protect'
p2414
sg46
S'The protections table'
p2415
stRp2416
sS'resolve'
p2417
g3
(g4
g5
(dp2418
g7
S'toFile, fromFile, startFromRev'
p2419
sg9
S'26'
p2420
sg11
g3
(g12
g13
(lp2421
g3
(g4
g5
(dp2422
g16
S''
sg17
g18
sg19
g18
sg20
S''
sg21
S''
sg22
g23
sg24
g25
stRp2423
ag3
(g4
g5
(dp2424
g16
S''
sg19
g28
sg20
S''
sg22
g29
sg21
S''
sg17
g28
sg30
Nsg24
g31
stRp2425
ag3
(g4
g5
(dp2426
g16
S''
sg19
g34
sg20
S''
sg22
g23
sg21
S''
sg17
g34
sg30
Nsg24
g35
stRp2427
ag3
(g4
g5
(dp2428
g16
S''
sg19
g38
sg20
S''
sg22
g29
sg21
S''
sg17
g38
sg30
Nsg24
g39
stRp2429
ag3
(g4
g5
(dp2430
g16
S''
sg42
g2168
sg20
S''
sg44
g2169
sg21
S''
sg17
g2168
sg30
Nsg46
g2170
stRp2431
ag3
(g4
g5
(dp2432
g16
S''
sg42
g2173
sg20
S''
sg44
g2174
sg21
S''
sg17
g2173
sg30
Nsg46
g2175
stRp2433
ag3
(g4
g5
(dp2434
g16
S''
sg42
g2178
sg20
S''
sg44
g2179
sg21
S''
sg17
g2178
sg30
Nsg46
g2180
stRp2435
ag3
(g4
g5
(dp2436
g16
S''
sg42
g2183
sg20
S''
sg44
g2184
sg21
S''
sg17
g2183
sg30
Nsg46
g2185
stRp2437
ag3
(g4
g5
(dp2438
g16
S''
sg42
g2188
sg20
S''
sg44
g2189
sg21
S''
sg17
g2188
sg30
Nsg46
g2190
stRp2439
ag3
(g4
g5
(dp2440
g16
S''
sg42
g2193
sg20
S''
sg44
g2194
sg21
S''
sg17
g2193
sg30
Nsg46
g2195
stRp2441
ag3
(g4
g5
(dp2442
g16
S''
sg42
g2198
sg20
S''
sg44
g2199
sg21
S''
sg17
g2198
sg30
Nsg46
g2200
stRp2443
ag3
(g4
g5
(dp2444
g16
S''
sg42
g2203
sg20
S''
sg44
g2204
sg21
S''
sg17
g2203
sg30
Nsg46
g2205
stRp2445
ag3
(g4
g5
(dp2446
g16
S''
sg42
g2208
sg20
S''
sg44
g2209
sg21
S''
sg17
g2208
sg30
Nsg46
g2210
stRp2447
ag3
(g4
g5
(dp2448
g16
S''
sg42
g2213
sg20
S''
sg44
g2214
sg21
S''
sg17
g2213
sg30
Nsg46
g2215
stRp2449
atRp2450
sg115
g2417
sg42
S'db.resolve'
p2451
sg117
S'1'
sg118
S'23'
p2452
sg120
g121
sg46
S'Pending integration records'
p2453
sg44
S'Resolve'
p2454
sg1032
S'db.integed'
p2455
stRp2456
sS'remote'
p2457
g3
(g4
g5
(dp2458
g7
S'id'
p2459
sg9
S'7'
sg11
g3
(g12
g13
(lp2460
g3
(g4
g5
(dp2461
g16
S''
sg17
g18
sg19
g18
sg20
S''
sg21
S''
sg22
g23
sg24
g25
stRp2462
ag3
(g4
g5
(dp2463
g16
S''
sg19
g28
sg20
S''
sg22
g29
sg21
S''
sg17
g28
sg30
Nsg24
g31
stRp2464
ag3
(g4
g5
(dp2465
g16
S''
sg19
g34
sg20
S''
sg22
g23
sg21
S''
sg17
g34
sg30
Nsg24
g35
stRp2466
ag3
(g4
g5
(dp2467
g16
S''
sg19
g38
sg20
S''
sg22
g29
sg21
S''
sg17
g38
sg30
Nsg24
g39
stRp2468
ag3
(g4
g5
(dp2469
g16
S''
sg42
S'id'
p2470
sg20
S''
sg44
S'RemoteID'
p2471
sg21
S''
sg17
g2470
sg30
Nsg46
S'The remote identifier'
p2472
stRp2473
ag3
(g4
g5
(dp2474
g16
S''
sg42
S'owner'
p2475
sg20
S''
sg44
S'User'
p2476
sg21
S''
sg17
g2475
sg30
Nsg46
S'The user who creatd this remote'
p2477
stRp2478
ag3
(g4
g5
(dp2479
g16
S''
sg42
S'options'
p2480
sg20
S''
sg44
S'Int'
p2481
sg21
S''
sg17
g2480
sg30
Nsg46
S'Remote options: 0: unlocked/nocompress, 1: locked/nocompress, 2: unlocked/compress, 4: locked/compress'
p2482
stRp2483
ag3
(g4
g5
(dp2484
g16
S''
sg42
S'address'
p2485
sg20
S''
sg44
S'Text'
p2486
sg21
S''
sg17
g2485
sg30
Nsg46
S'The P4PORT used by the remote server'
p2487
stRp2488
ag3
(g4
g5
(dp2489
g16
S''
sg42
S'desc'
p2490
sg20
S''
sg44
S'Text'
p2491
sg21
S''
sg17
g2490
sg30
Nsg46
S'Description of the remote server'
p2492
stRp2493
ag3
(g4
g5
(dp2494
g16
S''
sg42
S'update'
p2495
sg20
S''
sg44
S'Date'
p2496
sg21
S''
sg17
g2495
sg30
Nsg46
S'The date this specification was last modfied'
p2497
stRp2498
ag3
(g4
g5
(dp2499
g16
S''
sg42
S'access'
p2500
sg20
S''
sg44
S'Date'
p2501
sg21
S''
sg17
g2500
sg30
Nsg46
S'The date of the last push/fetch on this remote'
p2502
stRp2503
ag3
(g4
g5
(dp2504
g16
S''
sg42
S'fetch'
p2505
sg20
S''
sg44
S'Change'
p2506
sg21
S''
sg17
g2505
sg30
Nsg46
S'The last changelist that was fetched'
p2507
stRp2508
ag3
(g4
g5
(dp2509
g16
S''
sg42
S'push'
p2510
sg20
S''
sg44
S'Change'
p2511
sg21
S''
sg17
g2510
sg30
Nsg46
S'The last changelist that was pushed'
p2512
stRp2513
atRp2514
sg115
g2457
sg42
S'db.remote'
p2515
sg117
S'0'
sg118
S'7'
sg120
g121
sg44
S'Remote'
p2516
sg46
S'Perforce remote specifications'
p2517
stRp2518
sS'sendq'
p2519
g3
(g4
g5
(dp2520
g7
S'taskid, seq'
p2521
sg9
S'57'
p2522
sg11
g3
(g12
g13
(lp2523
g3
(g4
g5
(dp2524
g16
S''
sg17
g18
sg19
g18
sg20
S''
sg21
S''
sg22
g23
sg24
g25
stRp2525
ag3
(g4
g5
(dp2526
g16
S''
sg19
g28
sg20
S''
sg22
g29
sg21
S''
sg17
g28
sg30
Nsg24
g31
stRp2527
ag3
(g4
g5
(dp2528
g16
S''
sg19
g34
sg20
S''
sg22
g23
sg21
S''
sg17
g34
sg30
Nsg24
g35
stRp2529
ag3
(g4
g5
(dp2530
g16
S''
sg19
g38
sg20
S''
sg22
g29
sg21
S''
sg17
g38
sg30
Nsg24
g39
stRp2531
ag3
(g4
g5
(dp2532
g16
S''
sg42
S'taskID'
p2533
sg20
S''
sg44
S'Int'
p2534
sg21
S''
sg17
g2533
sg30
Nsg46
S'The process id (PID) of the sync'
p2535
stRp2536
ag3
(g4
g5
(dp2537
g16
S''
sg42
S'seq'
p2538
sg20
S''
sg44
S'Int'
p2539
sg21
S''
sg17
g2538
sg30
Nsg46
S'Sequence number'
p2540
stRp2541
ag3
(g4
g5
(dp2542
g16
S''
sg42
S'handle'
p2543
sg20
S''
sg44
S'Text'
p2544
sg21
S''
sg17
g2543
sg30
Nsg46
S'Handle'
p2545
stRp2546
ag3
(g4
g5
(dp2547
g16
S''
sg42
S'depotFile'
p2548
sg20
S''
sg44
S'File'
p2549
sg21
S''
sg17
g2548
sg30
Nsg46
S'The file in the depot'
p2550
stRp2551
ag3
(g4
g5
(dp2552
g16
S''
sg42
S'clientFile'
p2553
sg20
S''
sg44
S'File'
p2554
sg21
S''
sg17
g2553
sg30
Nsg46
S'The file in its location on the client'
p2555
stRp2556
ag3
(g4
g5
(dp2557
g16
S''
sg42
S'haveRev'
p2558
sg20
S''
sg44
S'Rev'
p2559
sg21
S''
sg17
g2558
sg30
Nsg46
S'Have revision'
p2560
stRp2561
ag3
(g4
g5
(dp2562
g16
S''
sg42
S'type'
p2563
sg20
S''
sg44
S'FileType'
p2564
sg21
S''
sg17
g2563
sg30
Nsg46
S'File type'
p2565
stRp2566
ag3
(g4
g5
(dp2567
g16
S''
sg42
S'modtime'
p2568
sg20
S''
sg44
S'Date'
p2569
sg21
S''
sg17
g2568
sg30
Nsg46
S'Modification time'
p2570
stRp2571
ag3
(g4
g5
(dp2572
g16
S''
sg42
S'digest'
p2573
sg20
S''
sg44
S'Digest'
p2574
sg21
S''
sg17
g2573
sg30
Nsg46
S'The MD5 digest of the revision'
p2575
stRp2576
ag3
(g4
g5
(dp2577
g16
S''
sg42
S'size'
p2578
sg20
S''
sg44
S'FileSize'
p2579
sg21
S''
sg17
g2578
sg30
Nsg46
S'The size of the file in bytes'
p2580
stRp2581
ag3
(g4
g5
(dp2582
g16
S''
sg42
S'lbrFile'
p2583
sg20
S''
sg44
S'File'
p2584
sg21
S''
sg17
g2583
sg30
Nsg46
S'Librarian filename'
p2585
stRp2586
ag3
(g4
g5
(dp2587
g16
S''
sg42
S'lbrRev'
p2588
sg20
S''
sg44
S'LbrRev'
p2589
sg21
S''
sg17
g2588
sg30
Nsg46
S'The revision of lbrFile that contains the revision content'
p2590
stRp2591
ag3
(g4
g5
(dp2592
g16
S''
sg42
S'lbrType'
p2593
sg20
S''
sg44
S'FileType'
p2594
sg21
S''
sg17
g2593
sg30
Nsg46
S'The file type of the librarian revision'
p2595
stRp2596
ag3
(g4
g5
(dp2597
g16
S''
sg42
S'flags'
p2598
sg20
S''
sg44
S'Int'
p2599
sg21
S''
sg17
g2598
sg30
Nsg46
S'Flags'
p2600
stRp2601
ag3
(g4
g5
(dp2602
g16
S''
sg42
S'clientType'
p2603
sg20
S''
sg44
S'FileType'
p2604
sg21
S''
sg17
g2603
sg30
Nsg46
S'The client file type of the revision'
p2605
stRp2606
atRp2607
sg115
g2519
sg42
S'db.sendq'
p2608
sg117
S'1'
sg118
S'57'
p2609
sg120
g121
sg44
S'SendQ'
p2610
sg46
S'Parallel file transmission work queue'
p2611
stRp2612
sS'locks'
p2613
g3
(g4
g5
(dp2614
g7
S'depotFile, client'
p2615
sg9
S'39'
p2616
sg11
g3
(g12
g13
(lp2617
g3
(g4
g5
(dp2618
g16
S''
sg17
g18
sg19
g18
sg20
S''
sg21
S''
sg22
g23
sg24
g25
stRp2619
ag3
(g4
g5
(dp2620
g16
S''
sg19
g28
sg20
S''
sg22
g29
sg21
S''
sg17
g28
sg30
Nsg24
g31
stRp2621
ag3
(g4
g5
(dp2622
g16
S''
sg19
g34
sg20
S''
sg22
g23
sg21
S''
sg17
g34
sg30
Nsg24
g35
stRp2623
ag3
(g4
g5
(dp2624
g16
S''
sg19
g38
sg20
S''
sg22
g29
sg21
S''
sg17
g38
sg30
Nsg24
g39
stRp2625
ag3
(g4
g5
(dp2626
g16
S''
sg42
S'depotFile'
p2627
sg20
S''
sg44
S'File'
p2628
sg21
S''
sg17
g2627
sg30
Nsg46
S'File in depot'
p2629
stRp2630
ag3
(g4
g5
(dp2631
g16
S''
sg42
S'client'
p2632
sg20
S''
sg44
S'Domain'
p2633
sg21
S''
sg17
g2632
sg30
Nsg46
S'Domain (client) in which file is open'
p2634
stRp2635
ag3
(g4
g5
(dp2636
g16
S''
sg42
S'user'
p2637
sg20
S''
sg44
S'User'
p2638
sg21
S''
sg17
g2637
sg30
Nsg46
S'User who presently has the file open'
p2639
stRp2640
ag3
(g4
g5
(dp2641
g16
S''
sg42
S'action'
p2642
sg20
S''
sg44
S'Action'
p2643
sg21
S''
sg17
g2642
sg30
Nsg46
S'Action file is open for: add, edit, delete, branch,\n\t\t    integrate, or import'
p2644
stRp2645
ag3
(g4
g5
(dp2646
g16
S''
sg42
S'isLocked'
p2647
sg20
S''
sg44
S'Int'
p2648
sg21
S''
sg17
g2647
sg30
Nsg46
S'Flag: 0 for unlocked, 1 for locked'
p2649
stRp2650
ag3
(g4
g5
(dp2651
g16
S''
sg42
S'change'
p2652
sg20
S''
sg44
S'Int'
p2653
sg21
S''
sg17
g2652
sg30
Nsg46
S'Changelist in which the revision is open: 0 for the\n\t\t    default changelist'
p2654
stRp2655
atRp2656
sg115
g2613
sg42
S'db.locks'
p2657
sg117
S'2'
sg118
S'28'
p2658
sg120
g121
sg44
S'Locks'
p2659
sg46
S'Locked/Unlocked files'
p2660
stRp2661
sS'uxtext'
p2662
g3
(g4
g5
(dp2663
g7
S'word, attr, value'
p2664
sg9
S'53'
p2665
sg11
g3
(g12
g13
(lp2666
g3
(g4
g5
(dp2667
g16
S''
sg17
g18
sg19
g18
sg20
S''
sg21
S''
sg22
g23
sg24
g25
stRp2668
ag3
(g4
g5
(dp2669
g16
S''
sg19
g28
sg20
S''
sg22
g29
sg21
S''
sg17
g28
sg30
Nsg24
g31
stRp2670
ag3
(g4
g5
(dp2671
g16
S''
sg19
g34
sg20
S''
sg22
g23
sg21
S''
sg17
g34
sg30
Nsg24
g35
stRp2672
ag3
(g4
g5
(dp2673
g16
S''
sg19
g38
sg20
S''
sg22
g29
sg21
S''
sg17
g38
sg30
Nsg24
g39
stRp2674
ag3
(g4
g5
(dp2675
g16
S''
sg42
g520
sg20
S''
sg44
g521
sg21
S''
sg17
g520
sg30
Nsg46
g522
stRp2676
ag3
(g4
g5
(dp2677
g16
S''
sg42
g525
sg20
S''
sg44
g526
sg21
S''
sg17
g525
sg30
Nsg46
g527
stRp2678
ag3
(g4
g5
(dp2679
g16
S''
sg42
g530
sg20
S''
sg44
g531
sg21
S''
sg17
g530
sg30
Nsg46
g532
stRp2680
atRp2681
sg115
g2662
sg42
S'db.uxtext'
p2682
sg117
S'0'
sg118
S'53'
p2683
sg120
g121
sg44
S'IndexText'
p2684
sg46
S'Indexing data for Swarm'
p2685
stRp2686
sS'revhx'
p2687
g3
(g4
g5
(dp2688
g7
S'depotFile'
p2689
sg9
S'30'
p2690
sg11
g3
(g12
g13
(lp2691
g3
(g4
g5
(dp2692
g16
S''
sg17
g18
sg19
g18
sg20
S''
sg21
S''
sg22
g23
sg24
g25
stRp2693
ag3
(g4
g5
(dp2694
g16
S''
sg19
g28
sg20
S''
sg22
g29
sg21
S''
sg17
g28
sg30
Nsg24
g31
stRp2695
ag3
(g4
g5
(dp2696
g16
S''
sg19
g34
sg20
S''
sg22
g23
sg21
S''
sg17
g34
sg30
Nsg24
g35
stRp2697
ag3
(g4
g5
(dp2698
g16
S''
sg19
g38
sg20
S''
sg22
g29
sg21
S''
sg17
g38
sg30
Nsg24
g39
stRp2699
ag3
(g4
g5
(dp2700
g16
S''
sg42
g299
sg20
S''
sg44
g300
sg21
S''
sg17
g299
sg30
Nsg46
g301
stRp2701
ag3
(g4
g5
(dp2702
g16
S''
sg42
g304
sg20
S''
sg44
g305
sg21
S''
sg17
g304
sg30
Nsg46
g306
stRp2703
ag3
(g4
g5
(dp2704
g16
S''
sg42
g309
sg20
S''
sg44
g310
sg21
S''
sg17
g309
sg30
Nsg46
g311
stRp2705
ag3
(g4
g5
(dp2706
g16
S''
sg42
g314
sg20
S''
sg44
g315
sg21
S''
sg17
g314
sg30
Nsg46
g316
stRp2707
ag3
(g4
g5
(dp2708
g16
S''
sg42
g319
sg20
S''
sg44
g320
sg21
S''
sg17
g319
sg30
Nsg46
g321
stRp2709
ag3
(g4
g5
(dp2710
g16
S''
sg42
g324
sg20
S''
sg44
g325
sg21
S''
sg17
g324
sg30
Nsg46
g326
stRp2711
ag3
(g4
g5
(dp2712
g16
S''
sg42
g329
sg20
S''
sg44
g330
sg21
S''
sg17
g329
sg30
Nsg46
g331
stRp2713
ag3
(g4
g5
(dp2714
g16
S''
sg42
g334
sg20
S''
sg44
g335
sg21
S''
sg17
g334
sg30
Nsg46
g336
stRp2715
ag3
(g4
g5
(dp2716
g16
S''
sg42
g339
sg20
S''
sg44
g340
sg21
S''
sg17
g339
sg30
Nsg46
g341
stRp2717
ag3
(g4
g5
(dp2718
g16
S''
sg42
g344
sg20
S''
sg44
g345
sg21
S''
sg17
g344
sg30
Nsg46
g346
stRp2719
ag3
(g4
g5
(dp2720
g16
S''
sg42
g349
sg20
S''
sg44
g350
sg21
S''
sg17
g349
sg30
Nsg46
g351
stRp2721
ag3
(g4
g5
(dp2722
g16
S''
sg42
g354
sg20
S''
sg44
g355
sg21
S''
sg17
g354
sg30
Nsg46
g356
stRp2723
ag3
(g4
g5
(dp2724
g16
S''
sg42
g359
sg20
S''
sg44
g360
sg21
S''
sg17
g359
sg30
Nsg46
g361
stRp2725
ag3
(g4
g5
(dp2726
g16
S''
sg42
g364
sg20
S''
sg44
g365
sg21
S''
sg17
g364
sg30
Nsg46
g366
stRp2727
atRp2728
sg115
g2687
sg42
S'db.revhx'
p2729
sg117
S'9'
sg118
S'35'
p2730
sg120
g121
sg44
S'Rev'
p2731
sg46
S'Revision records for revisions NOT deleted at the head revision'
p2732
stRp2733
sS'stash'
p2734
g3
(g4
g5
(dp2735
g7
S'client, stream, type, seq'
p2736
sg9
S'9'
sg11
g3
(g12
g13
(lp2737
g3
(g4
g5
(dp2738
g16
S''
sg17
g18
sg19
g18
sg20
S''
sg21
S''
sg22
g23
sg24
g25
stRp2739
ag3
(g4
g5
(dp2740
g16
S''
sg19
g28
sg20
S''
sg22
g29
sg21
S''
sg17
g28
sg30
Nsg24
g31
stRp2741
ag3
(g4
g5
(dp2742
g16
S''
sg19
g34
sg20
S''
sg22
g23
sg21
S''
sg17
g34
sg30
Nsg24
g35
stRp2743
ag3
(g4
g5
(dp2744
g16
S''
sg19
g38
sg20
S''
sg22
g29
sg21
S''
sg17
g38
sg30
Nsg24
g39
stRp2745
ag3
(g4
g5
(dp2746
g16
S''
sg42
S'client'
p2747
sg20
S''
sg44
S'Domain'
p2748
sg21
S''
sg17
g2747
sg30
Nsg46
S'Client the stash refers to'
p2749
stRp2750
ag3
(g4
g5
(dp2751
g16
S''
sg42
S'stream'
p2752
sg20
S''
sg44
S'Domain'
p2753
sg21
S''
sg17
g2752
sg30
Nsg46
S'Stream the stash refers to'
p2754
stRp2755
ag3
(g4
g5
(dp2756
g16
S''
sg42
S'type'
p2757
sg20
S''
sg44
S'StashType'
p2758
sg21
S''
sg17
g2757
sg30
Nsg46
S'Stash type'
p2759
stRp2760
ag3
(g4
g5
(dp2761
g16
S''
sg42
S'seq'
p2762
sg20
S''
sg44
S'Int'
p2763
sg21
S''
sg17
g2762
sg30
Nsg46
S'Sequence number'
p2764
stRp2765
ag3
(g4
g5
(dp2766
g16
S''
sg42
S'change'
p2767
sg20
S''
sg44
S'Change'
p2768
sg21
S''
sg17
g2767
sg30
Nsg46
S'Stash change number'
p2769
stRp2770
atRp2771
sg115
g2734
sg42
S'db.stash'
p2772
sg117
S'0'
sg118
S'9'
sg120
g121
sg44
S'Stash'
p2773
sg46
S'Perforce stash data'
p2774
stRp2775
sS'server'
p2776
g3
(g4
g5
(dp2777
g7
S'id'
p2778
sg9
S'5'
sg11
g3
(g12
g13
(lp2779
g3
(g4
g5
(dp2780
g16
S''
sg17
g18
sg19
g18
sg20
S''
sg21
S''
sg22
g23
sg24
g25
stRp2781
ag3
(g4
g5
(dp2782
g16
S''
sg19
g28
sg20
S''
sg22
g29
sg21
S''
sg17
g28
sg30
Nsg24
g31
stRp2783
ag3
(g4
g5
(dp2784
g16
S''
sg19
g34
sg20
S''
sg22
g23
sg21
S''
sg17
g34
sg30
Nsg24
g35
stRp2785
ag3
(g4
g5
(dp2786
g16
S''
sg19
g38
sg20
S''
sg22
g29
sg21
S''
sg17
g38
sg30
Nsg24
g39
stRp2787
ag3
(g4
g5
(dp2788
g16
S''
sg42
S'id'
p2789
sg20
S''
sg44
S'Text'
p2790
sg21
S''
sg17
g2789
sg30
Nsg46
S'The server identifier'
p2791
stRp2792
ag3
(g4
g5
(dp2793
g16
S''
sg42
S'type'
p2794
sg20
S''
sg44
S'ServerType'
p2795
sg21
S''
sg17
g2794
sg30
Nsg46
S'The server type: server/broker/proxy'
p2796
stRp2797
ag3
(g4
g5
(dp2798
g16
S''
sg42
S'name'
p2799
sg20
S''
sg44
S'Text'
p2800
sg21
S''
sg17
g2799
sg30
Nsg46
S'The P4NAME used by this server'
p2801
stRp2802
ag3
(g4
g5
(dp2803
g16
S''
sg42
S'address'
p2804
sg20
S''
sg44
S'Text'
p2805
sg21
S''
sg17
g2804
sg30
Nsg46
S'The P4PORT used by this server'
p2806
stRp2807
ag3
(g4
g5
(dp2808
g16
S''
sg42
S'externalAddress'
p2809
sg20
S''
sg44
S'Text'
p2810
sg21
S''
sg17
g2809
sg30
Nsg46
S'For an edge server, this optional field contains its external address for connections from the commit server. This field is required for federated parallel submit.'
p2811
stRp2812
ag3
(g4
g5
(dp2813
g16
S''
sg42
S'services'
p2814
sg20
S''
sg44
S'ServerServiceType'
p2815
sg21
S''
sg17
g2814
sg30
Nsg46
S'Service provided by this server'
p2816
stRp2817
ag3
(g4
g5
(dp2818
g16
S''
sg42
S'desc'
p2819
sg20
S''
sg44
S'Text'
p2820
sg21
S''
sg17
g2819
sg30
Nsg46
S'Server description'
p2821
stRp2822
ag3
(g4
g5
(dp2823
g16
S''
sg42
S'user'
p2824
sg20
S''
sg44
S'User'
p2825
sg21
S''
sg17
g2824
sg30
Nsg46
S'The service user used by this server'
p2826
stRp2827
atRp2828
sg115
g2776
sg42
S'db.server'
p2829
sg117
S'1'
sg118
S'5'
sg120
g121
sg44
S'Server'
p2830
sg46
S'Perforce server specifications'
p2831
stRp2832
sS'userrp'
p2833
g3
(g4
g5
(dp2834
g7
S'user'
p2835
sg9
S'10'
p2836
sg11
g3
(g12
g13
(lp2837
g3
(g4
g5
(dp2838
g16
S''
sg17
g18
sg19
g18
sg20
S''
sg21
S''
sg22
g23
sg24
g25
stRp2839
ag3
(g4
g5
(dp2840
g16
S''
sg19
g28
sg20
S''
sg22
g29
sg21
S''
sg17
g28
sg30
Nsg24
g31
stRp2841
ag3
(g4
g5
(dp2842
g16
S''
sg19
g34
sg20
S''
sg22
g23
sg21
S''
sg17
g34
sg30
Nsg24
g35
stRp2843
ag3
(g4
g5
(dp2844
g16
S''
sg19
g38
sg20
S''
sg22
g29
sg21
S''
sg17
g38
sg30
Nsg24
g39
stRp2845
ag3
(g4
g5
(dp2846
g16
S''
sg42
g1887
sg20
S''
sg44
g1888
sg21
S''
sg17
g1887
sg30
Nsg46
g1889
stRp2847
ag3
(g4
g5
(dp2848
g16
S''
sg42
g1892
sg20
S''
sg44
g1893
sg21
S''
sg17
g1892
sg30
Nsg46
g1894
stRp2849
ag3
(g4
g5
(dp2850
g16
S''
sg42
g1897
sg20
S''
sg44
g1898
sg21
S''
sg17
g1897
sg30
Nsg46
g1899
stRp2851
ag3
(g4
g5
(dp2852
g16
S''
sg42
g1902
sg20
S''
sg44
g1903
sg21
S''
sg17
g1902
sg30
Nsg46
g1904
stRp2853
ag3
(g4
g5
(dp2854
g16
S''
sg42
g1907
sg20
S''
sg44
g1908
sg21
S''
sg17
g1907
sg30
Nsg46
g1909
stRp2855
ag3
(g4
g5
(dp2856
g16
S''
sg42
g1912
sg20
S''
sg44
g1913
sg21
S''
sg17
g1912
sg30
Nsg46
g1914
stRp2857
ag3
(g4
g5
(dp2858
g16
S''
sg42
g1917
sg20
S''
sg44
g1918
sg21
S''
sg17
g1917
sg30
Nsg46
g1919
stRp2859
ag3
(g4
g5
(dp2860
g16
S''
sg42
g1922
sg20
S''
sg44
g1923
sg21
S''
sg17
g1922
sg30
Nsg46
g1924
stRp2861
ag3
(g4
g5
(dp2862
g16
S''
sg42
g1927
sg20
S''
sg44
g1928
sg21
S''
sg17
g1927
sg30
Nsg46
g1929
stRp2863
ag3
(g4
g5
(dp2864
g16
S''
sg42
g1932
sg20
S''
sg44
g1933
sg21
S''
sg17
g1932
sg30
Nsg46
g1934
stRp2865
ag3
(g4
g5
(dp2866
g16
S''
sg42
g1937
sg20
S''
sg44
g1938
sg21
S''
sg17
g1937
sg30
Nsg46
g1939
stRp2867
ag3
(g4
g5
(dp2868
g16
S''
sg42
g1942
sg20
S''
sg44
g1943
sg21
S''
sg17
g1942
sg30
Nsg46
g1944
stRp2869
ag3
(g4
g5
(dp2870
g16
S''
sg42
g1947
sg20
S''
sg44
g1948
sg21
S''
sg17
g1947
sg30
Nsg46
g1949
stRp2871
ag3
(g4
g5
(dp2872
g16
S''
sg42
g1952
sg20
S''
sg44
g1953
sg21
S''
sg17
g1952
sg30
Nsg46
g1954
stRp2873
ag3
(g4
g5
(dp2874
g16
S''
sg42
g1957
sg20
S''
sg44
g1958
sg21
S''
sg17
g1957
sg30
Nsg46
g1959
stRp2875
atRp2876
sg115
g2833
sg42
S'db.user.rp'
p2877
sg117
S'7'
sg118
S'10'
p2878
sg120
g121
sg44
S'User'
p2879
sg46
S"Used by replica server's to store login information"
p2880
stRp2881
sS'revcx'
p2882
g3
(g4
g5
(dp2883
g7
S'change, depotFile'
p2884
sg9
S'36'
p2885
sg11
g3
(g12
g13
(lp2886
g3
(g4
g5
(dp2887
g16
S''
sg17
g18
sg19
g18
sg20
S''
sg21
S''
sg22
g23
sg24
g25
stRp2888
ag3
(g4
g5
(dp2889
g16
S''
sg19
g28
sg20
S''
sg22
g29
sg21
S''
sg17
g28
sg30
Nsg24
g31
stRp2890
ag3
(g4
g5
(dp2891
g16
S''
sg19
g34
sg20
S''
sg22
g23
sg21
S''
sg17
g34
sg30
Nsg24
g35
stRp2892
ag3
(g4
g5
(dp2893
g16
S''
sg19
g38
sg20
S''
sg22
g29
sg21
S''
sg17
g38
sg30
Nsg24
g39
stRp2894
ag3
(g4
g5
(dp2895
g16
S''
sg42
S'change'
p2896
sg20
S''
sg44
S'Change'
p2897
sg21
S''
sg17
g2896
sg30
Nsg46
S'The changelist that created the revision'
p2898
stRp2899
ag3
(g4
g5
(dp2900
g16
S''
sg42
S'depotFile'
p2901
sg20
S''
sg44
S'File'
p2902
sg21
S''
sg17
g2901
sg30
Nsg46
S'The file name'
p2903
stRp2904
ag3
(g4
g5
(dp2905
g16
S''
sg42
S'depotRev'
p2906
sg20
S''
sg44
S'Rev'
p2907
sg21
S''
sg17
g2906
sg30
Nsg46
S'The revision number'
p2908
stRp2909
ag3
(g4
g5
(dp2910
g16
S''
sg42
S'action'
p2911
sg20
S''
sg44
S'Action'
p2912
sg21
S''
sg17
g2911
sg30
Nsg46
S'The action that created the revision'
p2913
stRp2914
atRp2915
sg115
g2882
sg42
S'db.revcx'
p2916
sg117
S'0'
sg118
S'33'
p2917
sg120
g121
sg44
S'RevCx'
p2918
sg46
S'Secondary index of db.rev'
p2919
stRp2920
sS'property'
p2921
g3
(g4
g5
(dp2922
g7
S'name, seq, type, scope'
p2923
sg9
S'55'
p2924
sg11
g3
(g12
g13
(lp2925
g3
(g4
g5
(dp2926
g16
S''
sg17
g18
sg19
g18
sg20
S''
sg21
S''
sg22
g23
sg24
g25
stRp2927
ag3
(g4
g5
(dp2928
g16
S''
sg19
g28
sg20
S''
sg22
g29
sg21
S''
sg17
g28
sg30
Nsg24
g31
stRp2929
ag3
(g4
g5
(dp2930
g16
S''
sg19
g34
sg20
S''
sg22
g23
sg21
S''
sg17
g34
sg30
Nsg24
g35
stRp2931
ag3
(g4
g5
(dp2932
g16
S''
sg19
g38
sg20
S''
sg22
g29
sg21
S''
sg17
g38
sg30
Nsg24
g39
stRp2933
ag3
(g4
g5
(dp2934
g16
S''
sg42
S'name'
p2935
sg20
S''
sg44
S'String'
p2936
sg21
S''
sg17
g2935
sg30
Nsg46
S'The property name'
p2937
stRp2938
ag3
(g4
g5
(dp2939
g16
S''
sg42
S'sequence'
p2940
sg20
S''
sg44
S'String'
p2941
sg21
S''
sg17
g2940
sg30
Nsg46
S'Sequence number of property'
p2942
stRp2943
ag3
(g4
g5
(dp2944
g16
S''
sg42
S'type'
p2945
sg20
S''
sg44
S'Int'
p2946
sg21
S''
sg17
g2945
sg30
Nsg46
S"1=user, 2=group; set if '-u | -g' option used with 'p4 property'"
p2947
stRp2948
ag3
(g4
g5
(dp2949
g16
S''
sg42
S'scope'
p2950
sg20
S''
sg44
S'String'
p2951
sg21
S''
sg17
g2950
sg30
Nsg46
S'The user or group the property applies to'
p2952
stRp2953
ag3
(g4
g5
(dp2954
g16
S''
sg42
S'value'
p2955
sg20
S''
sg44
S'String'
p2956
sg21
S''
sg17
g2955
sg30
Nsg46
S'The property value'
p2957
stRp2958
ag3
(g4
g5
(dp2959
g16
S''
sg42
S'date'
p2960
sg20
S''
sg44
S'String'
p2961
sg21
S''
sg17
g2960
sg30
Nsg46
S'The date/time the property was last updated'
p2962
stRp2963
ag3
(g4
g5
(dp2964
g16
S''
sg42
S'user'
p2965
sg20
S''
sg44
S'String'
p2966
sg21
S''
sg17
g2965
sg30
Nsg46
S'The user that last modified the property'
p2967
stRp2968
atRp2969
sg115
g2921
sg42
S'db.property'
p2970
sg117
S'0'
sg118
S'55'
p2971
sg120
g121
sg44
S'Property'
p2972
sg46
S'Properties'
p2973
stRp2974
sS'review'
p2975
g3
(g4
g5
(dp2976
g7
S'user, seq'
p2977
sg9
S'20'
p2978
sg11
g3
(g12
g13
(lp2979
g3
(g4
g5
(dp2980
g16
S''
sg17
g18
sg19
g18
sg20
S''
sg21
S''
sg22
g23
sg24
g25
stRp2981
ag3
(g4
g5
(dp2982
g16
S''
sg19
g28
sg20
S''
sg22
g29
sg21
S''
sg17
g28
sg30
Nsg24
g31
stRp2983
ag3
(g4
g5
(dp2984
g16
S''
sg19
g34
sg20
S''
sg22
g23
sg21
S''
sg17
g34
sg30
Nsg24
g35
stRp2985
ag3
(g4
g5
(dp2986
g16
S''
sg19
g38
sg20
S''
sg22
g29
sg21
S''
sg17
g38
sg30
Nsg24
g39
stRp2987
ag3
(g4
g5
(dp2988
g16
S''
sg42
S'user'
p2989
sg20
S''
sg44
S'User'
p2990
sg21
S''
sg17
g2989
sg30
Nsg46
S'A user name'
p2991
stRp2992
ag3
(g4
g5
(dp2993
g16
S''
sg42
S'seq'
p2994
sg20
S''
sg44
S'Int'
p2995
sg21
S''
sg17
g2994
sg30
Nsg46
S'Sequence number: used for ordering multi-line views'
p2996
stRp2997
ag3
(g4
g5
(dp2998
g16
S''
sg42
S'mapFlag'
p2999
sg20
S''
sg44
S'MapFlag'
p3000
sg21
S''
sg17
g2999
sg30
Nsg46
S'Type of mapping'
p3001
stRp3002
ag3
(g4
g5
(dp3003
g16
S''
sg42
S'depotFile'
p3004
sg20
S''
sg44
S'Mapping'
p3005
sg21
S''
sg17
g3004
sg30
Nsg46
S'The files to be reviewed'
p3006
stRp3007
ag3
(g4
g5
(dp3008
g16
S''
sg42
S'type'
p3009
sg20
S''
sg44
S'Reviewer'
p3010
sg21
S''
sg17
g3009
sg30
Nsg46
S'Type of reviewer'
p3011
stRp3012
atRp3013
sg115
g2975
sg42
S'db.review'
p3014
sg117
S'1'
sg118
S'20'
p3015
sg120
g121
sg44
S'Review'
p3016
sg46
S"Contains user's review mappings"
p3017
stRp3018
sS'view'
p3019
g3
(g4
g5
(dp3020
g7
S'name, seq'
p3021
sg9
S'19'
p3022
sg11
g3
(g12
g13
(lp3023
g3
(g4
g5
(dp3024
g16
S''
sg17
g18
sg19
g18
sg20
S''
sg21
S''
sg22
g23
sg24
g25
stRp3025
ag3
(g4
g5
(dp3026
g16
S''
sg19
g28
sg20
S''
sg22
g29
sg21
S''
sg17
g28
sg30
Nsg24
g31
stRp3027
ag3
(g4
g5
(dp3028
g16
S''
sg19
g34
sg20
S''
sg22
g23
sg21
S''
sg17
g34
sg30
Nsg24
g35
stRp3029
ag3
(g4
g5
(dp3030
g16
S''
sg19
g38
sg20
S''
sg22
g29
sg21
S''
sg17
g38
sg30
Nsg24
g39
stRp3031
ag3
(g4
g5
(dp3032
g16
S''
sg42
g476
sg20
S''
sg44
g477
sg21
S''
sg17
g476
sg30
Nsg46
g478
stRp3033
ag3
(g4
g5
(dp3034
g16
S''
sg42
g481
sg20
S''
sg44
g482
sg21
S''
sg17
g481
sg30
Nsg46
g483
stRp3035
ag3
(g4
g5
(dp3036
g16
S''
sg42
g486
sg20
S''
sg44
g487
sg21
S''
sg17
g486
sg30
Nsg46
g488
stRp3037
ag3
(g4
g5
(dp3038
g16
S''
sg42
g491
sg20
S''
sg44
g492
sg21
S''
sg17
g491
sg30
Nsg46
g493
stRp3039
ag3
(g4
g5
(dp3040
g16
S''
sg42
g496
sg20
S''
sg44
g497
sg21
S''
sg17
g496
sg30
Nsg46
g498
stRp3041
atRp3042
sg115
g3019
sg42
S'db.view'
p3043
sg117
S'1'
sg118
S'19'
p3044
sg120
g121
sg44
S'View'
p3045
sg46
S'Contains views for domains'
p3046
stRp3047
s.