(dp1
S'domain'
p2
ccopy_reg
_reconstructor
p3
(clib.sqUtils
Storage
p4
c__builtin__
dict
p5
(dp6
S'keying'
p7
S'name'
p8
sS'fields'
p9
g3
(clib.sqUtils
Lst
p10
c__builtin__
list
p11
(lp12
g3
(g4
g5
(dp13
S'comment'
p14
S''
sS'fieldname'
p15
S'id'
p16
sS'name'
p17
g16
sS'default'
p18
S''
sS'label'
p19
S''
sS'type'
p20
S'integer'
p21
sS'desc'
p22
S'Record number as read in'
p23
stRp24
ag3
(g4
g5
(dp25
g14
S''
sg17
S'db_action'
p26
sg18
S''
sg20
S'string'
p27
sg19
S''
sg15
g26
sS'requires'
p28
Nsg22
S'Operation on table'
p29
stRp30
ag3
(g4
g5
(dp31
g14
S''
sg17
S'table_revision'
p32
sg18
S''
sg20
g21
sg19
S''
sg15
g32
sg28
Nsg22
S'Revision of the p4 schema table'
p33
stRp34
ag3
(g4
g5
(dp35
g14
S''
sg17
S'table_name'
p36
sg18
S''
sg20
g27
sg19
S''
sg15
g36
sg28
Nsg22
S'Redundant... but this is the table name'
p37
stRp38
ag3
(g4
g5
(dp39
g14
S''
sS'name'
p40
S'name'
p41
sg18
S''
sS'type'
p42
S'Domain'
p43
sg19
S''
sg15
g41
sg28
NsS'desc'
p44
S'Domain name'
p45
stRp46
ag3
(g4
g5
(dp47
g14
S''
sg40
S'type'
p48
sg18
S''
sg42
S'DomainType'
p49
sg19
S''
sg15
g48
sg28
Nsg44
S'Type of domain'
p50
stRp51
ag3
(g4
g5
(dp52
g14
S''
sg40
S'extra'
p53
sg18
S''
sg42
S'Text'
p54
sg19
S''
sg15
g53
sg28
Nsg44
S'Formerly "host". Associated host or, for labels, revision \n\t\t    number.'
p55
stRp56
ag3
(g4
g5
(dp57
g14
S''
sg40
S'mount'
p58
sg18
S''
sg42
S'Text'
p59
sg19
S''
sg15
g58
sg28
Nsg44
S'The client root'
p60
stRp61
ag3
(g4
g5
(dp62
g14
S''
sg40
S'mount2'
p63
sg18
S''
sg42
S'Text'
p64
sg19
S''
sg15
g63
sg28
Nsg44
S'Alternate client root'
p65
stRp66
ag3
(g4
g5
(dp67
g14
S''
sg40
S'mount3'
p68
sg18
S''
sg42
S'Text'
p69
sg19
S''
sg15
g68
sg28
Nsg44
S'Alternate client root'
p70
stRp71
ag3
(g4
g5
(dp72
g14
S''
sg40
S'owner'
p73
sg18
S''
sg42
S'User'
p74
sg19
S''
sg15
g73
sg28
Nsg44
S'Name of user who owns the domain.'
p75
stRp76
ag3
(g4
g5
(dp77
g14
S''
sg40
S'updateDate'
p78
sg18
S''
sg42
S'Date'
p79
sg19
S''
sg15
g78
sg28
Nsg44
S'Date of last update to domain specification.'
p80
stRp81
ag3
(g4
g5
(dp82
g14
S''
sg40
S'accessDate'
p83
sg18
S''
sg42
S'Date'
p84
sg19
S''
sg15
g83
sg28
Nsg44
S'Date of last access to domain specification.'
p85
stRp86
ag3
(g4
g5
(dp87
g14
S''
sg40
S'options'
p88
sg18
S''
sg42
S'DomainOpts'
p89
sg19
S''
sg15
g88
sg28
Nsg44
S'Options for client, label, and branch domains.'
p90
stRp91
ag3
(g4
g5
(dp92
g14
S''
sg40
S'description'
p93
sg18
S''
sg42
S'Text'
p94
sg19
S''
sg15
g93
sg28
Nsg44
S'Description of domain.'
p95
stRp96
atRp97
sS'tablename'
p98
g2
sS'version'
p99
S'5'
sS'schemaversion'
p100
S'2010.2'
p101
sg44
S'Domains: depots, clients, labels, branches and typemap'
p102
sg42
S'Domain'
p103
sS'lockseq'
p104
S'8'
sg40
S'db.domain'
p105
stRp106
sS'revpx'
p107
g3
(g4
g5
(dp108
g7
S'depotFile, depotRev'
p109
sg9
g3
(g10
g11
(lp110
g3
(g4
g5
(dp111
g14
S''
sg15
g16
sg17
g16
sg18
S''
sg19
S''
sg20
g21
sg22
g23
stRp112
ag3
(g4
g5
(dp113
g14
S''
sg17
g26
sg18
S''
sg20
g27
sg19
S''
sg15
g26
sg28
Nsg22
g29
stRp114
ag3
(g4
g5
(dp115
g14
S''
sg17
g32
sg18
S''
sg20
g21
sg19
S''
sg15
g32
sg28
Nsg22
g33
stRp116
ag3
(g4
g5
(dp117
g14
S''
sg17
g36
sg18
S''
sg20
g27
sg19
S''
sg15
g36
sg28
Nsg22
g37
stRp118
ag3
(g4
g5
(dp119
g14
S''
sg40
S'depotFile'
p120
sg18
S''
sg42
S'File'
p121
sg19
S''
sg15
g120
sg28
Nsg44
S'The file name'
p122
stRp123
ag3
(g4
g5
(dp124
g14
S''
sg40
S'depotRev'
p125
sg18
S''
sg42
S'Rev'
p126
sg19
S''
sg15
g125
sg28
Nsg44
S'The revision number'
p127
stRp128
ag3
(g4
g5
(dp129
g14
S''
sg40
S'type'
p130
sg18
S''
sg42
S'FileType'
p131
sg19
S''
sg15
g130
sg28
Nsg44
S'The file type of the revision'
p132
stRp133
ag3
(g4
g5
(dp134
g14
S''
sg40
S'action'
p135
sg18
S''
sg42
S'Action'
p136
sg19
S''
sg15
g135
sg28
Nsg44
S'The action that created the revision'
p137
stRp138
ag3
(g4
g5
(dp139
g14
S''
sg40
S'change'
p140
sg18
S''
sg42
S'Change'
p141
sg19
S''
sg15
g140
sg28
Nsg44
S'The changelist that created the revision'
p142
stRp143
ag3
(g4
g5
(dp144
g14
S''
sg40
S'date'
p145
sg18
S''
sg42
S'Date'
p146
sg19
S''
sg15
g145
sg28
Nsg44
S'The date/time the changelist that created the revision\n\t\t    was submitted'
p147
stRp148
ag3
(g4
g5
(dp149
g14
S''
sg40
S'modTime'
p150
sg18
S''
sg42
S'Date'
p151
sg19
S''
sg15
g150
sg28
Nsg44
S"The timestamp on the file in the user's workspace when\n\t\t    the revision was submitted."
p152
stRp153
ag3
(g4
g5
(dp154
g14
S''
sg40
S'digest'
p155
sg18
S''
sg42
S'Digest'
p156
sg19
S''
sg15
g155
sg28
Nsg44
S'The MD5 digest of the revision.'
p157
stRp158
ag3
(g4
g5
(dp159
g14
S''
sg40
S'size'
p160
sg18
S''
sg42
S'FileSize'
p161
sg19
S''
sg15
g160
sg28
Nsg44
S'The size of the file in bytes'
p162
stRp163
ag3
(g4
g5
(dp164
g14
S''
sg40
S'traitLot'
p165
sg18
S''
sg42
S'TraitLot'
p166
sg19
S''
sg15
g165
sg28
Nsg44
S'Group of traits (attributes) associated with the revision.'
p167
stRp168
ag3
(g4
g5
(dp169
g14
S''
sg40
S'lbrIsLazy'
p170
sg18
S''
sg42
S'Int'
p171
sg19
S''
sg15
g170
sg28
Nsg44
S'Flag specifying whether or not the revision gets its\n\t\t    content from another file (i.e. whether or not depotFile\n\t\t    and lbrFile differ)'
p172
stRp173
ag3
(g4
g5
(dp174
g14
S''
sg40
S'lbrFile'
p175
sg18
S''
sg42
S'File'
p176
sg19
S''
sg15
g175
sg28
Nsg44
S"Filename for librarian's purposes.  Specifies location in \n\t\t    the archives where the file containing the revision may\n\t\t    be found. Usually the same as depotFile, but differs in\n\t\t    the case of branched/copied revisions."
p177
stRp178
ag3
(g4
g5
(dp179
g14
S''
sg40
S'lbrRev'
p180
sg18
S''
sg42
S'String'
p181
sg19
S''
sg15
g180
sg28
Nsg44
S'The revision of lbrFile that contains the revision content.'
p182
stRp183
ag3
(g4
g5
(dp184
g14
S''
sg40
S'lbrType'
p185
sg18
S''
sg42
S'FileType'
p186
sg19
S''
sg15
g185
sg28
Nsg44
S'The file type of the librarian revision. Usually the same\n\t\t    as type, but differs in the case of branched/copied \n\t\t    revisions.'
p187
stRp188
atRp189
sg98
g107
sS'note'
p190
S'Only populated during content trigger execution to allow \n\t\ttriggers access to the revisions being submitted.'
p191
sg99
S'9'
sg100
g101
sg44
S'Pending revision records.'
p192
sg42
S'Rev'
p193
sg104
S'25'
p194
sg40
S'db.revpx'
p195
stRp196
sS'traits'
p197
g3
(g4
g5
(dp198
g7
S'traitLot, name'
p199
sg9
g3
(g10
g11
(lp200
g3
(g4
g5
(dp201
g14
S''
sg15
g16
sg17
g16
sg18
S''
sg19
S''
sg20
g21
sg22
g23
stRp202
ag3
(g4
g5
(dp203
g14
S''
sg17
g26
sg18
S''
sg20
g27
sg19
S''
sg15
g26
sg28
Nsg22
g29
stRp204
ag3
(g4
g5
(dp205
g14
S''
sg17
g32
sg18
S''
sg20
g21
sg19
S''
sg15
g32
sg28
Nsg22
g33
stRp206
ag3
(g4
g5
(dp207
g14
S''
sg17
g36
sg18
S''
sg20
g27
sg19
S''
sg15
g36
sg28
Nsg22
g37
stRp208
ag3
(g4
g5
(dp209
g14
S''
sg40
S'traitLot'
p210
sg18
S''
sg42
S'Int'
p211
sg19
S''
sg15
g210
sg28
Nsg44
S'Indicates a specific collection of traits (referred to \n\t\t    externally as "attributes".)'
p212
stRp213
ag3
(g4
g5
(dp214
g14
S''
sg40
S'name'
p215
sg18
S''
sg42
S'String'
p216
sg19
S''
sg15
g215
sg28
Nsg44
S'Trait (attribute) name'
p217
stRp218
ag3
(g4
g5
(dp219
g14
S''
sg40
S'type'
p220
sg18
S''
sg42
S'TraitType'
p221
sg19
S''
sg15
g220
sg28
Nsg44
S'Type of trait'
p222
stRp223
ag3
(g4
g5
(dp224
g14
S''
sg40
S'value'
p225
sg18
S''
sg42
S'Octet String'
p226
sg19
S''
sg15
g225
sg28
Nsg44
S'The value'
p227
stRp228
atRp229
sg98
g197
sg99
S'0'
sg100
g101
sg44
S'Attributes associated with file revisions'
p230
sg42
S'Trait'
p231
sg104
S'31'
p232
sg40
S'db.traits'
p233
stRp234
sS'have'
p235
g3
(g4
g5
(dp236
g7
S'clientFile'
p237
sg9
g3
(g10
g11
(lp238
g3
(g4
g5
(dp239
g14
S''
sg15
g16
sg17
g16
sg18
S''
sg19
S''
sg20
g21
sg22
g23
stRp240
ag3
(g4
g5
(dp241
g14
S''
sg17
g26
sg18
S''
sg20
g27
sg19
S''
sg15
g26
sg28
Nsg22
g29
stRp242
ag3
(g4
g5
(dp243
g14
S''
sg17
g32
sg18
S''
sg20
g21
sg19
S''
sg15
g32
sg28
Nsg22
g33
stRp244
ag3
(g4
g5
(dp245
g14
S''
sg17
g36
sg18
S''
sg20
g27
sg19
S''
sg15
g36
sg28
Nsg22
g37
stRp246
ag3
(g4
g5
(dp247
g14
S''
sg40
S'clientFile'
p248
sg18
S''
sg42
S'File'
p249
sg19
S''
sg15
g248
sg28
Nsg44
S'The file in its location on the client'
p250
stRp251
ag3
(g4
g5
(dp252
g14
S''
sg40
S'depotFile'
p253
sg18
S''
sg42
S'File'
p254
sg19
S''
sg15
g253
sg28
Nsg44
S'The file in the depot'
p255
stRp256
ag3
(g4
g5
(dp257
g14
S''
sg40
S'haveRev'
p258
sg18
S''
sg42
S'Rev'
p259
sg19
S''
sg15
g258
sg28
Nsg44
S'The revision synced to the client'
p260
stRp261
ag3
(g4
g5
(dp262
g14
S''
sg40
S'type'
p263
sg18
S''
sg42
S'FileType'
p264
sg19
S''
sg15
g263
sg28
Nsg44
S'The filetype of the synced revision'
p265
stRp266
atRp267
sg98
g235
sg99
S'2'
sg100
g101
sg44
S"Contains the 'have-list' for all clients"
p268
sg42
S'Have'
p269
sg104
S'16'
p270
sg40
S'db.have'
p271
stRp272
sS'ixtext'
p273
g3
(g4
g5
(dp274
g7
S'word, attr, value'
p275
sg9
g3
(g10
g11
(lp276
g3
(g4
g5
(dp277
g14
S''
sg15
g16
sg17
g16
sg18
S''
sg19
S''
sg20
g21
sg22
g23
stRp278
ag3
(g4
g5
(dp279
g14
S''
sg17
g26
sg18
S''
sg20
g27
sg19
S''
sg15
g26
sg28
Nsg22
g29
stRp280
ag3
(g4
g5
(dp281
g14
S''
sg17
g32
sg18
S''
sg20
g21
sg19
S''
sg15
g32
sg28
Nsg22
g33
stRp282
ag3
(g4
g5
(dp283
g14
S''
sg17
g36
sg18
S''
sg20
g27
sg19
S''
sg15
g36
sg28
Nsg22
g37
stRp284
ag3
(g4
g5
(dp285
g14
S''
sg40
S'word'
p286
sg18
S''
sg42
S'String'
p287
sg19
S''
sg15
g286
sg28
Nsg44
S'The word being indexed'
p288
stRp289
ag3
(g4
g5
(dp290
g14
S''
sg40
S'attr'
p291
sg18
S''
sg42
S'Int'
p292
sg19
S''
sg15
g291
sg28
Nsg44
S'The attribute number (from the jobspec) to which this\n\t\t    word belongs'
p293
stRp294
ag3
(g4
g5
(dp295
g14
S''
sg40
S'value'
p296
sg18
S''
sg42
S'String'
p297
sg19
S''
sg15
g296
sg28
Nsg44
S'A job name'
p298
stRp299
atRp300
sg98
g273
sg99
S'0'
sg100
g101
sg44
S'Indexing data for job attributes.'
p301
sg42
S'IndexText'
p302
sg104
S'44'
p303
sg40
S'db.ixtext'
p304
stRp305
sS'message'
p306
g3
(g4
g5
(dp307
g7
S'language, id'
p308
sg9
g3
(g10
g11
(lp309
g3
(g4
g5
(dp310
g14
S''
sg15
g16
sg17
g16
sg18
S''
sg19
S''
sg20
g21
sg22
g23
stRp311
ag3
(g4
g5
(dp312
g14
S''
sg17
g26
sg18
S''
sg20
g27
sg19
S''
sg15
g26
sg28
Nsg22
g29
stRp313
ag3
(g4
g5
(dp314
g14
S''
sg17
g32
sg18
S''
sg20
g21
sg19
S''
sg15
g32
sg28
Nsg22
g33
stRp315
ag3
(g4
g5
(dp316
g14
S''
sg17
g36
sg18
S''
sg20
g27
sg19
S''
sg15
g36
sg28
Nsg22
g37
stRp317
ag3
(g4
g5
(dp318
g14
S''
sg40
S'language'
p319
sg18
S''
sg42
S'String'
p320
sg19
S''
sg15
g319
sg28
Nsg44
S'The language for which this message applies'
p321
stRp322
ag3
(g4
g5
(dp323
g14
S''
sg40
S'id'
p324
sg18
S''
sg42
S'Int'
p325
sg19
S''
sg15
g324
sg28
Nsg44
S'The message number'
p326
stRp327
ag3
(g4
g5
(dp328
g14
S''
sg40
S'message'
p329
sg18
S''
sg42
S'String'
p330
sg19
S''
sg15
g329
sg28
Nsg44
S'The message text'
p331
stRp332
atRp333
sg98
g306
sg99
S'0'
sg100
g101
sg44
S'System messages'
p334
sg42
S'Message'
p335
sg104
S'46'
p336
sg40
S'db.message'
p337
stRp338
sS'archive'
p339
g3
(g4
g5
(dp340
g7
S'lbrFile, lbrRev, depotFile, depotRev'
p341
sg9
g3
(g10
g11
(lp342
g3
(g4
g5
(dp343
g14
S''
sg15
g16
sg17
g16
sg18
S''
sg19
S''
sg20
g21
sg22
g23
stRp344
ag3
(g4
g5
(dp345
g14
S''
sg17
g26
sg18
S''
sg20
g27
sg19
S''
sg15
g26
sg28
Nsg22
g29
stRp346
ag3
(g4
g5
(dp347
g14
S''
sg17
g32
sg18
S''
sg20
g21
sg19
S''
sg15
g32
sg28
Nsg22
g33
stRp348
ag3
(g4
g5
(dp349
g14
S''
sg17
g36
sg18
S''
sg20
g27
sg19
S''
sg15
g36
sg28
Nsg22
g37
stRp350
ag3
(g4
g5
(dp351
g14
S''
sg40
S'lbrFile'
p352
sg18
S''
sg42
S'File'
p353
sg19
S''
sg15
g352
sg28
Nsg44
S"Specifies the location in the librarian's archives where\n\t\t    the revision may be found"
p354
stRp355
ag3
(g4
g5
(dp356
g14
S''
sg40
S'lbrRev'
p357
sg18
S''
sg42
S'String'
p358
sg19
S''
sg15
g357
sg28
Nsg44
S"Revision in the librarian's archives"
p359
stRp360
ag3
(g4
g5
(dp361
g14
S''
sg40
S'depotFile'
p362
sg18
S''
sg42
S'File'
p363
sg19
S''
sg15
g362
sg28
Nsg44
S'Name of the file in the depot'
p364
stRp365
ag3
(g4
g5
(dp366
g14
S''
sg40
S'depotRev'
p367
sg18
S''
sg42
S'Rev'
p368
sg19
S''
sg15
g367
sg28
Nsg44
S'Name of the file in the depot'
p369
stRp370
ag3
(g4
g5
(dp371
g14
S''
sg40
S'lbrType'
p372
sg18
S''
sg42
S'FileType'
p373
sg19
S''
sg15
g372
sg28
Nsg44
S"File type for librarian's purposes"
p374
stRp375
atRp376
sg98
g339
sg190
S'Obsoleted in 2006.2.'
p377
sg99
S'1'
sg100
g101
sg44
S'Archive information for each revision that is lazy-copied: obsolete since 2006.2'
p378
sg42
S'Archive'
p379
sg104
S'19'
p380
sg40
S'db.archive'
p381
stRp382
sS'group'
p383
g3
(g4
g5
(dp384
g7
S'user, group'
p385
sg9
g3
(g10
g11
(lp386
g3
(g4
g5
(dp387
g14
S''
sg15
g16
sg17
g16
sg18
S''
sg19
S''
sg20
g21
sg22
g23
stRp388
ag3
(g4
g5
(dp389
g14
S''
sg17
g26
sg18
S''
sg20
g27
sg19
S''
sg15
g26
sg28
Nsg22
g29
stRp390
ag3
(g4
g5
(dp391
g14
S''
sg17
g32
sg18
S''
sg20
g21
sg19
S''
sg15
g32
sg28
Nsg22
g33
stRp392
ag3
(g4
g5
(dp393
g14
S''
sg17
g36
sg18
S''
sg20
g27
sg19
S''
sg15
g36
sg28
Nsg22
g37
stRp394
ag3
(g4
g5
(dp395
g14
S''
sg40
S'user'
p396
sg18
S''
sg42
S'User'
p397
sg19
S''
sg15
g396
sg28
Nsg44
S'User name'
p398
stRp399
ag3
(g4
g5
(dp400
g14
S''
sg40
S'group'
p401
sg18
S''
sg42
S'User'
p402
sg19
S''
sg15
g401
sg28
Nsg44
S'Group name'
p403
stRp404
ag3
(g4
g5
(dp405
g14
S''
sg40
S'type'
p406
sg18
S''
sg42
S'UserType'
p407
sg19
S''
sg15
g406
sg28
Nsg44
S'Type of user in this group.'
p408
stRp409
ag3
(g4
g5
(dp410
g14
S''
sg40
S'maxResults'
p411
sg18
S''
sg42
S'MaxResults'
p412
sg19
S''
sg15
g411
sg28
Nsg44
S'MaxResults setting for the group.'
p413
stRp414
ag3
(g4
g5
(dp415
g14
S''
sg40
S'maxScanRows'
p416
sg18
S''
sg42
S'MaxScanRows'
p417
sg19
S''
sg15
g416
sg28
Nsg44
S'MaxScanRows setting for the group.'
p418
stRp419
ag3
(g4
g5
(dp420
g14
S''
sg40
S'maxLockTime'
p421
sg18
S''
sg42
S'MaxLockTime'
p422
sg19
S''
sg15
g421
sg28
Nsg44
S'MaxLockTime setting for the group.'
p423
stRp424
ag3
(g4
g5
(dp425
g14
S''
sg40
S'timeout'
p426
sg18
S''
sg42
S'Int'
p427
sg19
S''
sg15
g426
sg28
Nsg44
S'Length of time (in seconds) a login ticket remains valid.'
p428
stRp429
ag3
(g4
g5
(dp430
g14
S''
sg40
S'passwordTimeout'
p431
sg18
S''
sg42
S'Int'
p432
sg19
S''
sg15
g431
sg28
Nsg44
S'Length of time (in seconds) a password remains valid for users in the group.'
p433
stRp434
atRp435
sg98
g383
sg99
S'8'
sg100
g101
sg44
S'Lists groups known to Perforce'
p436
sg42
S'Group'
p437
sg104
S'5'
sg40
S'db.group'
p438
stRp439
sS'monitor'
p440
g3
(g4
g5
(dp441
g7
S'id'
p442
sg9
g3
(g10
g11
(lp443
g3
(g4
g5
(dp444
g14
S''
sg15
g16
sg17
g16
sg18
S''
sg19
S''
sg20
g21
sg22
g23
stRp445
ag3
(g4
g5
(dp446
g14
S''
sg17
g26
sg18
S''
sg20
g27
sg19
S''
sg15
g26
sg28
Nsg22
g29
stRp447
ag3
(g4
g5
(dp448
g14
S''
sg17
g32
sg18
S''
sg20
g21
sg19
S''
sg15
g32
sg28
Nsg22
g33
stRp449
ag3
(g4
g5
(dp450
g14
S''
sg17
g36
sg18
S''
sg20
g27
sg19
S''
sg15
g36
sg28
Nsg22
g37
stRp451
ag3
(g4
g5
(dp452
g14
S''
sg40
S'id'
p453
sg18
S''
sg42
S'Int'
p454
sg19
S''
sg15
g453
sg28
Nsg44
S'Thread/process id'
p455
stRp456
ag3
(g4
g5
(dp457
g14
S''
sg40
S'user'
p458
sg18
S''
sg42
S'User'
p459
sg19
S''
sg15
g458
sg28
Nsg44
S'Username of the user running the command'
p460
stRp461
ag3
(g4
g5
(dp462
g14
S''
sg40
S'function'
p463
sg18
S''
sg42
S'String'
p464
sg19
S''
sg15
g463
sg28
Nsg44
S'The command being executed.'
p465
stRp466
ag3
(g4
g5
(dp467
g14
S''
sg40
S'args'
p468
sg18
S''
sg42
S'String'
p469
sg19
S''
sg15
g468
sg28
Nsg44
S'Arguments passed to the command'
p470
stRp471
ag3
(g4
g5
(dp472
g14
S''
sg40
S'startDate'
p473
sg18
S''
sg42
S'Date'
p474
sg19
S''
sg15
g473
sg28
Nsg44
S'The date and time the command started'
p475
stRp476
ag3
(g4
g5
(dp477
g14
S''
sg40
S'runstate'
p478
sg18
S''
sg42
S'Int'
p479
sg19
S''
sg15
g478
sg28
Nsg44
S'Flag: 0 for running, 1 for terminated'
p480
stRp481
ag3
(g4
g5
(dp482
g14
S''
sg40
S'client'
p483
sg18
S''
sg42
S'Domain'
p484
sg19
S''
sg15
g483
sg28
Nsg44
S'The client workspace'
p485
stRp486
ag3
(g4
g5
(dp487
g14
S''
sg40
S'host'
p488
sg18
S''
sg42
S'Text'
p489
sg19
S''
sg15
g488
sg28
Nsg44
S'The IP address of the client'
p490
stRp491
ag3
(g4
g5
(dp492
g14
S''
sg40
S'prog'
p493
sg18
S''
sg42
S'Text'
p494
sg19
S''
sg15
g493
sg28
Nsg44
S'The name (and version) of the client program'
p495
stRp496
atRp497
sg98
g440
sg99
S'1'
sg100
g101
sg44
S'System messages'
p498
sg42
S'Monitor'
p499
sg104
S'47'
p500
sg40
S'db.monitor'
p501
stRp502
sS'working'
p503
g3
(g4
g5
(dp504
g7
S'clientFile'
p505
sg9
g3
(g10
g11
(lp506
g3
(g4
g5
(dp507
g14
S''
sg15
g16
sg17
g16
sg18
S''
sg19
S''
sg20
g21
sg22
g23
stRp508
ag3
(g4
g5
(dp509
g14
S''
sg17
g26
sg18
S''
sg20
g27
sg19
S''
sg15
g26
sg28
Nsg22
g29
stRp510
ag3
(g4
g5
(dp511
g14
S''
sg17
g32
sg18
S''
sg20
g21
sg19
S''
sg15
g32
sg28
Nsg22
g33
stRp512
ag3
(g4
g5
(dp513
g14
S''
sg17
g36
sg18
S''
sg20
g27
sg19
S''
sg15
g36
sg28
Nsg22
g37
stRp514
ag3
(g4
g5
(dp515
g14
S''
sg40
S'clientFile'
p516
sg18
S''
sg42
S'File'
p517
sg19
S''
sg15
g516
sg28
Nsg44
S'File on the client'
p518
stRp519
ag3
(g4
g5
(dp520
g14
S''
sg40
S'depotFile'
p521
sg18
S''
sg42
S'File'
p522
sg19
S''
sg15
g521
sg28
Nsg44
S'File in the depot'
p523
stRp524
ag3
(g4
g5
(dp525
g14
S''
sg40
S'client'
p526
sg18
S''
sg42
S'Domain'
p527
sg19
S''
sg15
g526
sg28
Nsg44
S'The client the file is opened on'
p528
stRp529
ag3
(g4
g5
(dp530
g14
S''
sg40
S'user'
p531
sg18
S''
sg42
S'User'
p532
sg19
S''
sg15
g531
sg28
Nsg44
S'The user who has the file opened'
p533
stRp534
ag3
(g4
g5
(dp535
g14
S''
sg40
S'haveRev'
p536
sg18
S''
sg42
S'Rev'
p537
sg19
S''
sg15
g536
sg28
Nsg44
S"Revision presently in user's client workspace.  This is \n\t\t    normally identical to workRev except for the case in which \n\t\t    you've tried to submit a file where you no longer have the \n\t\t    head revision. Perforce schedules the integrate (moves \n\t\t    workRev to headRev, but doesn't change the haveRev, so that \n\t\t    a p4 revert will return the file originally checked-out \n\t\t    instead of the new head revision."
p538
stRp539
ag3
(g4
g5
(dp540
g14
S''
sg40
S'workRev'
p541
sg18
S''
sg42
S'Rev'
p542
sg19
S''
sg15
g541
sg28
Nsg44
S'Working revision; this is identical to the haveRev except \n\t\t    in the case described above.'
p543
stRp544
ag3
(g4
g5
(dp545
g14
S''
sg40
S'isVirtual'
p546
sg18
S''
sg42
S'Int'
p547
sg19
S''
sg15
g546
sg28
Nsg44
S'Flag: if 1, file was opened with "p4 integ -v".'
p548
stRp549
ag3
(g4
g5
(dp550
g14
S''
sg40
S'type'
p551
sg18
S''
sg42
S'FileType'
p552
sg19
S''
sg15
g551
sg28
Nsg44
S'File type'
p553
stRp554
ag3
(g4
g5
(dp555
g14
S''
sg40
S'action'
p556
sg18
S''
sg42
S'Action'
p557
sg19
S''
sg15
g556
sg28
Nsg44
S"What the user's doing with the file"
p558
stRp559
ag3
(g4
g5
(dp560
g14
S''
sg40
S'change'
p561
sg18
S''
sg42
S'Change'
p562
sg19
S''
sg15
g561
sg28
Nsg44
S'Associated changelist, or zero for the default changelist.'
p563
stRp564
ag3
(g4
g5
(dp565
g14
S''
sg40
S'modTime'
p566
sg18
S''
sg42
S'Date'
p567
sg19
S''
sg15
g566
sg28
Nsg44
S"Modification timestamp on the file in the user's workspace."
p568
stRp569
ag3
(g4
g5
(dp570
g14
S''
sg40
S'isLocked'
p571
sg18
S''
sg42
S'Int'
p572
sg19
S''
sg15
g571
sg28
Nsg44
S'Flag: 0 for unlocked, 1 for locked.'
p573
stRp574
ag3
(g4
g5
(dp575
g14
S''
sg40
S'digest'
p576
sg18
S''
sg42
S'Digest'
p577
sg19
S''
sg15
g576
sg28
Nsg44
S'MD5 digest of working file.'
p578
stRp579
ag3
(g4
g5
(dp580
g14
S''
sg40
S'size'
p581
sg18
S''
sg42
S'Int64'
p582
sg19
S''
sg15
g581
sg28
Nsg44
S'File size'
p583
stRp584
ag3
(g4
g5
(dp585
g14
S''
sg40
S'traitLot'
p586
sg18
S''
sg42
S'int'
p587
sg19
S''
sg15
g586
sg28
Nsg44
S'Group of traits associated with file revision.'
p588
stRp589
ag3
(g4
g5
(dp590
g14
S''
sg40
S'tampered'
p591
sg18
S''
sg42
S'TamperCheck'
p592
sg19
S''
sg15
g591
sg28
Nsg44
S'Flag indicating the tamper-state of the file in the\n\t\t    workspace.'
p593
stRp594
ag3
(g4
g5
(dp595
g14
S''
sg40
S'clntType'
p596
sg18
S''
sg42
S'FileType'
p597
sg19
S''
sg15
g596
sg28
Nsg44
S'Type of the file in the client workspace.'
p598
stRp599
ag3
(g4
g5
(dp600
g14
S''
sg40
S'mFile'
p601
sg18
S''
sg42
S'File'
p602
sg19
S''
sg15
g601
sg28
Nsg44
S'Moved filename'
p603
stRp604
atRp605
sg98
g503
sg99
S'9'
sg100
g101
sg44
S'Records for work in progress'
p606
sg42
S'Working'
p607
sg104
S'29'
p608
sg40
S'db.working'
p609
stRp610
sS'review'
p611
g3
(g4
g5
(dp612
g7
S'user, seq'
p613
sg9
g3
(g10
g11
(lp614
g3
(g4
g5
(dp615
g14
S''
sg15
g16
sg17
g16
sg18
S''
sg19
S''
sg20
g21
sg22
g23
stRp616
ag3
(g4
g5
(dp617
g14
S''
sg17
g26
sg18
S''
sg20
g27
sg19
S''
sg15
g26
sg28
Nsg22
g29
stRp618
ag3
(g4
g5
(dp619
g14
S''
sg17
g32
sg18
S''
sg20
g21
sg19
S''
sg15
g32
sg28
Nsg22
g33
stRp620
ag3
(g4
g5
(dp621
g14
S''
sg17
g36
sg18
S''
sg20
g27
sg19
S''
sg15
g36
sg28
Nsg22
g37
stRp622
ag3
(g4
g5
(dp623
g14
S''
sg40
S'user'
p624
sg18
S''
sg42
S'User'
p625
sg19
S''
sg15
g624
sg28
Nsg44
S'A user name'
p626
stRp627
ag3
(g4
g5
(dp628
g14
S''
sg40
S'seq'
p629
sg18
S''
sg42
S'Int'
p630
sg19
S''
sg15
g629
sg28
Nsg44
S'Sequence number: used for ordering multi-line views'
p631
stRp632
ag3
(g4
g5
(dp633
g14
S''
sg40
S'mapFlag'
p634
sg18
S''
sg42
S'MapFlag'
p635
sg19
S''
sg15
g634
sg28
Nsg44
S'Type of mapping'
p636
stRp637
ag3
(g4
g5
(dp638
g14
S''
sg40
S'depotFile'
p639
sg18
S''
sg42
S'Mapping'
p640
sg19
S''
sg15
g639
sg28
Nsg44
S'The files to be reviewed'
p641
stRp642
ag3
(g4
g5
(dp643
g14
S''
sg40
S'type'
p644
sg18
S''
sg42
S'Reviewer'
p645
sg19
S''
sg15
g644
sg28
Nsg44
S'Type of reviewer'
p646
stRp647
atRp648
sg98
g611
sg99
S'1'
sg100
g101
sg44
S"Contains user's review mappings"
p649
sg42
S'Review'
p650
sg104
S'11'
p651
sg40
S'db.review'
p652
stRp653
sS'rev'
p654
g3
(g4
g5
(dp655
g7
S'depotFile, depotRev'
p656
sg9
g3
(g10
g11
(lp657
g3
(g4
g5
(dp658
g14
S''
sg15
g16
sg17
g16
sg18
S''
sg19
S''
sg20
g21
sg22
g23
stRp659
ag3
(g4
g5
(dp660
g14
S''
sg17
g26
sg18
S''
sg20
g27
sg19
S''
sg15
g26
sg28
Nsg22
g29
stRp661
ag3
(g4
g5
(dp662
g14
S''
sg17
g32
sg18
S''
sg20
g21
sg19
S''
sg15
g32
sg28
Nsg22
g33
stRp663
ag3
(g4
g5
(dp664
g14
S''
sg17
g36
sg18
S''
sg20
g27
sg19
S''
sg15
g36
sg28
Nsg22
g37
stRp665
ag3
(g4
g5
(dp666
g14
S''
sg40
g120
sg18
S''
sg42
g121
sg19
S''
sg15
g120
sg28
Nsg44
g122
stRp667
ag3
(g4
g5
(dp668
g14
S''
sg40
g125
sg18
S''
sg42
g126
sg19
S''
sg15
g125
sg28
Nsg44
g127
stRp669
ag3
(g4
g5
(dp670
g14
S''
sg40
g130
sg18
S''
sg42
g131
sg19
S''
sg15
g130
sg28
Nsg44
g132
stRp671
ag3
(g4
g5
(dp672
g14
S''
sg40
g135
sg18
S''
sg42
g136
sg19
S''
sg15
g135
sg28
Nsg44
g137
stRp673
ag3
(g4
g5
(dp674
g14
S''
sg40
g140
sg18
S''
sg42
g141
sg19
S''
sg15
g140
sg28
Nsg44
g142
stRp675
ag3
(g4
g5
(dp676
g14
S''
sg40
g145
sg18
S''
sg42
g146
sg19
S''
sg15
g145
sg28
Nsg44
g147
stRp677
ag3
(g4
g5
(dp678
g14
S''
sg40
g150
sg18
S''
sg42
g151
sg19
S''
sg15
g150
sg28
Nsg44
g152
stRp679
ag3
(g4
g5
(dp680
g14
S''
sg40
g155
sg18
S''
sg42
g156
sg19
S''
sg15
g155
sg28
Nsg44
g157
stRp681
ag3
(g4
g5
(dp682
g14
S''
sg40
g160
sg18
S''
sg42
g161
sg19
S''
sg15
g160
sg28
Nsg44
g162
stRp683
ag3
(g4
g5
(dp684
g14
S''
sg40
g165
sg18
S''
sg42
g166
sg19
S''
sg15
g165
sg28
Nsg44
g167
stRp685
ag3
(g4
g5
(dp686
g14
S''
sg40
g170
sg18
S''
sg42
g171
sg19
S''
sg15
g170
sg28
Nsg44
g172
stRp687
ag3
(g4
g5
(dp688
g14
S''
sg40
g175
sg18
S''
sg42
g176
sg19
S''
sg15
g175
sg28
Nsg44
g177
stRp689
ag3
(g4
g5
(dp690
g14
S''
sg40
g180
sg18
S''
sg42
g181
sg19
S''
sg15
g180
sg28
Nsg44
g182
stRp691
ag3
(g4
g5
(dp692
g14
S''
sg40
g185
sg18
S''
sg42
g186
sg19
S''
sg15
g185
sg28
Nsg44
g187
stRp693
atRp694
sg98
g654
sg99
S'9'
sg100
g101
sg44
S'Revision records'
p695
sg42
S'Rev'
p696
sg104
S'21'
p697
sg40
S'db.rev'
p698
stRp699
sS'label'
p700
g3
(g4
g5
(dp701
g7
S'name, depotFile'
p702
sg9
g3
(g10
g11
(lp703
g3
(g4
g5
(dp704
g14
S''
sg15
g16
sg17
g16
sg18
S''
sg19
S''
sg20
g21
sg22
g23
stRp705
ag3
(g4
g5
(dp706
g14
S''
sg17
g26
sg18
S''
sg20
g27
sg19
S''
sg15
g26
sg28
Nsg22
g29
stRp707
ag3
(g4
g5
(dp708
g14
S''
sg17
g32
sg18
S''
sg20
g21
sg19
S''
sg15
g32
sg28
Nsg22
g33
stRp709
ag3
(g4
g5
(dp710
g14
S''
sg17
g36
sg18
S''
sg20
g27
sg19
S''
sg15
g36
sg28
Nsg22
g37
stRp711
ag3
(g4
g5
(dp712
g14
S''
sg40
S'name'
p713
sg18
S''
sg42
S'Domain'
p714
sg19
S''
sg15
g713
sg28
Nsg44
S'Name of the label'
p715
stRp716
ag3
(g4
g5
(dp717
g14
S''
sg40
S'depotFile'
p718
sg18
S''
sg42
S'File'
p719
sg19
S''
sg15
g718
sg28
Nsg44
S'File name'
p720
stRp721
ag3
(g4
g5
(dp722
g14
S''
sg40
S'haveRev'
p723
sg18
S''
sg42
S'Rev'
p724
sg19
S''
sg15
g723
sg28
Nsg44
S'The revision of the file in the label'
p725
stRp726
atRp727
sg98
g700
sg99
S'0'
sg100
g101
sg44
S'Lists the revisions of files in labels.'
p728
sg42
S'Label'
p729
sg104
S'17'
p730
sg40
S'db.label'
p731
stRp732
sS'revbx'
p733
g3
(g4
g5
(dp734
g7
S'depotFile, depotRev'
p735
sg9
g3
(g10
g11
(lp736
g3
(g4
g5
(dp737
g14
S''
sg15
g16
sg17
g16
sg18
S''
sg19
S''
sg20
g21
sg22
g23
stRp738
ag3
(g4
g5
(dp739
g14
S''
sg17
g26
sg18
S''
sg20
g27
sg19
S''
sg15
g26
sg28
Nsg22
g29
stRp740
ag3
(g4
g5
(dp741
g14
S''
sg17
g32
sg18
S''
sg20
g21
sg19
S''
sg15
g32
sg28
Nsg22
g33
stRp742
ag3
(g4
g5
(dp743
g14
S''
sg17
g36
sg18
S''
sg20
g27
sg19
S''
sg15
g36
sg28
Nsg22
g37
stRp744
ag3
(g4
g5
(dp745
g14
S''
sg40
g120
sg18
S''
sg42
g121
sg19
S''
sg15
g120
sg28
Nsg44
g122
stRp746
ag3
(g4
g5
(dp747
g14
S''
sg40
g125
sg18
S''
sg42
g126
sg19
S''
sg15
g125
sg28
Nsg44
g127
stRp748
ag3
(g4
g5
(dp749
g14
S''
sg40
g130
sg18
S''
sg42
g131
sg19
S''
sg15
g130
sg28
Nsg44
g132
stRp750
ag3
(g4
g5
(dp751
g14
S''
sg40
g135
sg18
S''
sg42
g136
sg19
S''
sg15
g135
sg28
Nsg44
g137
stRp752
ag3
(g4
g5
(dp753
g14
S''
sg40
g140
sg18
S''
sg42
g141
sg19
S''
sg15
g140
sg28
Nsg44
g142
stRp754
ag3
(g4
g5
(dp755
g14
S''
sg40
g145
sg18
S''
sg42
g146
sg19
S''
sg15
g145
sg28
Nsg44
g147
stRp756
ag3
(g4
g5
(dp757
g14
S''
sg40
g150
sg18
S''
sg42
g151
sg19
S''
sg15
g150
sg28
Nsg44
g152
stRp758
ag3
(g4
g5
(dp759
g14
S''
sg40
g155
sg18
S''
sg42
g156
sg19
S''
sg15
g155
sg28
Nsg44
g157
stRp760
ag3
(g4
g5
(dp761
g14
S''
sg40
g160
sg18
S''
sg42
g161
sg19
S''
sg15
g160
sg28
Nsg44
g162
stRp762
ag3
(g4
g5
(dp763
g14
S''
sg40
g165
sg18
S''
sg42
g166
sg19
S''
sg15
g165
sg28
Nsg44
g167
stRp764
ag3
(g4
g5
(dp765
g14
S''
sg40
g170
sg18
S''
sg42
g171
sg19
S''
sg15
g170
sg28
Nsg44
g172
stRp766
ag3
(g4
g5
(dp767
g14
S''
sg40
g175
sg18
S''
sg42
g176
sg19
S''
sg15
g175
sg28
Nsg44
g177
stRp768
ag3
(g4
g5
(dp769
g14
S''
sg40
g180
sg18
S''
sg42
g181
sg19
S''
sg15
g180
sg28
Nsg44
g182
stRp770
ag3
(g4
g5
(dp771
g14
S''
sg40
g185
sg18
S''
sg42
g186
sg19
S''
sg15
g185
sg28
Nsg44
g187
stRp772
atRp773
sg98
g733
sg99
S'9'
sg100
g101
sg44
S'Revision records for archived files.'
p774
sg42
S'Rev'
p775
sg104
S'28'
p776
sg40
S'db.revbx'
p777
stRp778
sS'trigger'
p779
g3
(g4
g5
(dp780
g7
S'seq'
p781
sg9
g3
(g10
g11
(lp782
g3
(g4
g5
(dp783
g14
S''
sg15
g16
sg17
g16
sg18
S''
sg19
S''
sg20
g21
sg22
g23
stRp784
ag3
(g4
g5
(dp785
g14
S''
sg17
g26
sg18
S''
sg20
g27
sg19
S''
sg15
g26
sg28
Nsg22
g29
stRp786
ag3
(g4
g5
(dp787
g14
S''
sg17
g32
sg18
S''
sg20
g21
sg19
S''
sg15
g32
sg28
Nsg22
g33
stRp788
ag3
(g4
g5
(dp789
g14
S''
sg17
g36
sg18
S''
sg20
g27
sg19
S''
sg15
g36
sg28
Nsg22
g37
stRp790
ag3
(g4
g5
(dp791
g14
S''
sg40
S'seq'
p792
sg18
S''
sg42
S'Int'
p793
sg19
S''
sg15
g792
sg28
Nsg44
S'Sequence number: for ordering the trigger list'
p794
stRp795
ag3
(g4
g5
(dp796
g14
S''
sg40
S'name'
p797
sg18
S''
sg42
S'String'
p798
sg19
S''
sg15
g797
sg28
Nsg44
S'Name of the trigger'
p799
stRp800
ag3
(g4
g5
(dp801
g14
S''
sg40
S'mapFlag'
p802
sg18
S''
sg42
S'MapFlag'
p803
sg19
S''
sg15
g802
sg28
Nsg44
S'Type of mapping: specifies whether the trigger applies \n\t\t    to the files or not.'
p804
stRp805
ag3
(g4
g5
(dp806
g14
S''
sg40
S'depotFile'
p807
sg18
S''
sg42
S'Mapping'
p808
sg19
S''
sg15
g807
sg28
Nsg44
S'The files to apply the trigger to'
p809
stRp810
ag3
(g4
g5
(dp811
g14
S''
sg40
S'trigger'
p812
sg18
S''
sg42
S'Trigger'
p813
sg19
S''
sg15
g812
sg28
Nsg44
S'Type of trigger'
p814
stRp815
ag3
(g4
g5
(dp816
g14
S''
sg40
S'action'
p817
sg18
S''
sg42
S'Text'
p818
sg19
S''
sg15
g817
sg28
Nsg44
S'Command to execute when trigger runs'
p819
stRp820
atRp821
sg98
g779
sg99
S'2'
sg100
g101
sg44
S'Trigger specifications'
p822
sg42
S'Trigger'
p823
sg104
S'32'
p824
sg40
S'db.trigger'
p825
stRp826
sS'logger'
p827
g3
(g4
g5
(dp828
g7
S'seq'
p829
sg9
g3
(g10
g11
(lp830
g3
(g4
g5
(dp831
g14
S''
sg15
g16
sg17
g16
sg18
S''
sg19
S''
sg20
g21
sg22
g23
stRp832
ag3
(g4
g5
(dp833
g14
S''
sg17
g26
sg18
S''
sg20
g27
sg19
S''
sg15
g26
sg28
Nsg22
g29
stRp834
ag3
(g4
g5
(dp835
g14
S''
sg17
g32
sg18
S''
sg20
g21
sg19
S''
sg15
g32
sg28
Nsg22
g33
stRp836
ag3
(g4
g5
(dp837
g14
S''
sg17
g36
sg18
S''
sg20
g27
sg19
S''
sg15
g36
sg28
Nsg22
g37
stRp838
ag3
(g4
g5
(dp839
g14
S''
sg40
S'seq'
p840
sg18
S''
sg42
S'Int'
p841
sg19
S''
sg15
g840
sg28
Nsg44
S'Sequence number of event'
p842
stRp843
ag3
(g4
g5
(dp844
g14
S''
sg40
S'key'
p845
sg18
S''
sg42
S'String'
p846
sg19
S''
sg15
g845
sg28
Nsg44
S"Either the word 'change' or the word 'job'"
p847
stRp848
ag3
(g4
g5
(dp849
g14
S''
sg40
S'attr'
p850
sg18
S''
sg42
S'String'
p851
sg19
S''
sg15
g850
sg28
Nsg44
S'The number of the change, or name of the job that was \n\t\t    altered.'
p852
stRp853
atRp854
sg98
g827
sg99
S'1'
sg100
g101
sg44
S"Support for 'p4 logger' command. Logs any changes to \n\t\tchangelists and jobs"
p855
sg42
S'Logger'
p856
sg104
S'3'
sg40
S'db.logger'
p857
stRp858
sS'depot'
p859
g3
(g4
g5
(dp860
g7
S'name'
p861
sg9
g3
(g10
g11
(lp862
g3
(g4
g5
(dp863
g14
S''
sg15
g16
sg17
g16
sg18
S''
sg19
S''
sg20
g21
sg22
g23
stRp864
ag3
(g4
g5
(dp865
g14
S''
sg17
g26
sg18
S''
sg20
g27
sg19
S''
sg15
g26
sg28
Nsg22
g29
stRp866
ag3
(g4
g5
(dp867
g14
S''
sg17
g32
sg18
S''
sg20
g21
sg19
S''
sg15
g32
sg28
Nsg22
g33
stRp868
ag3
(g4
g5
(dp869
g14
S''
sg17
g36
sg18
S''
sg20
g27
sg19
S''
sg15
g36
sg28
Nsg22
g37
stRp870
ag3
(g4
g5
(dp871
g14
S''
sg40
S'name'
p872
sg18
S''
sg42
S'Domain'
p873
sg19
S''
sg15
g872
sg28
Nsg44
S'Depot name'
p874
stRp875
ag3
(g4
g5
(dp876
g14
S''
sg40
S'type'
p877
sg18
S''
sg42
S'DepotType'
p878
sg19
S''
sg15
g877
sg28
Nsg44
S'Type of depot'
p879
stRp880
ag3
(g4
g5
(dp881
g14
S''
sg40
S'extra'
p882
sg18
S''
sg42
S'Text'
p883
sg19
S''
sg15
g882
sg28
Nsg44
S'For remote depots, the P4PORT address of the remote server.\n\t\t    For spec depots, the field contains a suffix to append to \n\t\t    the filename.'
p884
stRp885
ag3
(g4
g5
(dp886
g14
S''
sg40
S'map'
p887
sg18
S''
sg42
S'Text'
p888
sg19
S''
sg15
g887
sg28
Nsg44
S"The depot's map (path translation information).  For local \n\t\t    depots, this will be a path relative to the root directory.\n\t\t    For remote depots, this will be specified in terms of the \n\t\t    remote server's namespace."
p889
stRp890
atRp891
sg98
g859
sg99
S'1'
sg100
g101
sg44
S'Lists depots known to Perforce'
p892
sg42
S'Depot'
p893
sg104
S'6'
sg40
S'db.depot'
p894
stRp895
sS'config'
p896
g3
(g4
g5
(dp897
g7
S'serverName, name'
p898
sg9
g3
(g10
g11
(lp899
g3
(g4
g5
(dp900
g14
S''
sg15
g16
sg17
g16
sg18
S''
sg19
S''
sg20
g21
sg22
g23
stRp901
ag3
(g4
g5
(dp902
g14
S''
sg17
g26
sg18
S''
sg20
g27
sg19
S''
sg15
g26
sg28
Nsg22
g29
stRp903
ag3
(g4
g5
(dp904
g14
S''
sg17
g32
sg18
S''
sg20
g21
sg19
S''
sg15
g32
sg28
Nsg22
g33
stRp905
ag3
(g4
g5
(dp906
g14
S''
sg17
g36
sg18
S''
sg20
g27
sg19
S''
sg15
g36
sg28
Nsg22
g37
stRp907
ag3
(g4
g5
(dp908
g14
S''
sg40
S'serverName'
p909
sg18
S''
sg42
S'String'
p910
sg19
S''
sg15
g909
sg28
Nsg44
S'Server name'
p911
stRp912
ag3
(g4
g5
(dp913
g14
S''
sg40
S'name'
p914
sg18
S''
sg42
S'String'
p915
sg19
S''
sg15
g914
sg28
Nsg44
S'Configuration variable name'
p916
stRp917
ag3
(g4
g5
(dp918
g14
S''
sg40
S'value'
p919
sg18
S''
sg42
S'Value'
p920
sg19
S''
sg15
g919
sg28
Nsg44
S'Configuration variable value'
p921
stRp922
atRp923
sg98
g896
sg99
S'1'
sg100
g101
sg44
S'Perforce server configurations table'
p924
sg42
S'Config'
p925
sg104
S'1'
sg40
S'db.config'
p926
stRp927
sS'fixrev'
p928
g3
(g4
g5
(dp929
g7
S'change, job'
p930
sg9
g3
(g10
g11
(lp931
g3
(g4
g5
(dp932
g14
S''
sg15
g16
sg17
g16
sg18
S''
sg19
S''
sg20
g21
sg22
g23
stRp933
ag3
(g4
g5
(dp934
g14
S''
sg17
g26
sg18
S''
sg20
g27
sg19
S''
sg15
g26
sg28
Nsg22
g29
stRp935
ag3
(g4
g5
(dp936
g14
S''
sg17
g32
sg18
S''
sg20
g21
sg19
S''
sg15
g32
sg28
Nsg22
g33
stRp937
ag3
(g4
g5
(dp938
g14
S''
sg17
g36
sg18
S''
sg20
g27
sg19
S''
sg15
g36
sg28
Nsg22
g37
stRp939
ag3
(g4
g5
(dp940
g14
S''
sg40
S'job'
p941
sg18
S''
sg42
S'String'
p942
sg19
S''
sg15
g941
sg28
Nsg44
S'Job name'
p943
stRp944
ag3
(g4
g5
(dp945
g14
S''
sg40
S'change'
p946
sg18
S''
sg42
S'Change'
p947
sg19
S''
sg15
g946
sg28
Nsg44
S'Changelist number'
p948
stRp949
ag3
(g4
g5
(dp950
g14
S''
sg40
S'date'
p951
sg18
S''
sg42
S'Date'
p952
sg19
S''
sg15
g951
sg28
Nsg44
S'Date fix was recorded (may differ from date change was\n\t\t    submitted).'
p953
stRp954
ag3
(g4
g5
(dp955
g14
S''
sg40
S'status'
p956
sg18
S''
sg42
S'FixStatus'
p957
sg19
S''
sg15
g956
sg28
Nsg44
S'Status of the job'
p958
stRp959
ag3
(g4
g5
(dp960
g14
S''
sg40
S'client'
p961
sg18
S''
sg42
S'Domain'
p962
sg19
S''
sg15
g961
sg28
Nsg44
S'The client where the fix originated'
p963
stRp964
ag3
(g4
g5
(dp965
g14
S''
sg40
S'user'
p966
sg18
S''
sg42
S'User'
p967
sg19
S''
sg15
g966
sg28
Nsg44
S'The user who fixed the job'
p968
stRp969
atRp970
sg98
g928
sg40
S'db.fixrev'
p971
sg99
S'1'
sg100
g101
sS'seeAlso'
p972
S'db.fix'
p973
sg42
S'Fix'
p974
sg104
S'40'
p975
sg44
S'Fix records - indexed by change'
p976
stRp977
sS'counters'
p978
g3
(g4
g5
(dp979
g7
S'name'
p980
sg9
g3
(g10
g11
(lp981
g3
(g4
g5
(dp982
g14
S''
sg15
g16
sg17
g16
sg18
S''
sg19
S''
sg20
g21
sg22
g23
stRp983
ag3
(g4
g5
(dp984
g14
S''
sg17
g26
sg18
S''
sg20
g27
sg19
S''
sg15
g26
sg28
Nsg22
g29
stRp985
ag3
(g4
g5
(dp986
g14
S''
sg17
g32
sg18
S''
sg20
g21
sg19
S''
sg15
g32
sg28
Nsg22
g33
stRp987
ag3
(g4
g5
(dp988
g14
S''
sg17
g36
sg18
S''
sg20
g27
sg19
S''
sg15
g36
sg28
Nsg22
g37
stRp989
ag3
(g4
g5
(dp990
g14
S''
sg40
S'name'
p991
sg18
S''
sg42
S'Counter'
p992
sg19
S''
sg15
g991
sg28
Nsg44
S'Counter name'
p993
stRp994
ag3
(g4
g5
(dp995
g14
S''
sg40
S'value'
p996
sg18
S''
sg42
S'Value'
p997
sg19
S''
sg15
g996
sg28
Nsg44
S'Counter value'
p998
stRp999
atRp1000
sg98
g978
sg99
S'1'
sg100
g101
sg44
S'Perforce counters table'
p1001
sg42
S'Counters'
p1002
sg104
S'2'
sg40
S'db.counters'
p1003
stRp1004
sS'revdx'
p1005
g3
(g4
g5
(dp1006
g7
S'depotFile'
p1007
sg9
g3
(g10
g11
(lp1008
g3
(g4
g5
(dp1009
g14
S''
sg15
g16
sg17
g16
sg18
S''
sg19
S''
sg20
g21
sg22
g23
stRp1010
ag3
(g4
g5
(dp1011
g14
S''
sg17
g26
sg18
S''
sg20
g27
sg19
S''
sg15
g26
sg28
Nsg22
g29
stRp1012
ag3
(g4
g5
(dp1013
g14
S''
sg17
g32
sg18
S''
sg20
g21
sg19
S''
sg15
g32
sg28
Nsg22
g33
stRp1014
ag3
(g4
g5
(dp1015
g14
S''
sg17
g36
sg18
S''
sg20
g27
sg19
S''
sg15
g36
sg28
Nsg22
g37
stRp1016
ag3
(g4
g5
(dp1017
g14
S''
sg40
g120
sg18
S''
sg42
g121
sg19
S''
sg15
g120
sg28
Nsg44
g122
stRp1018
ag3
(g4
g5
(dp1019
g14
S''
sg40
g125
sg18
S''
sg42
g126
sg19
S''
sg15
g125
sg28
Nsg44
g127
stRp1020
ag3
(g4
g5
(dp1021
g14
S''
sg40
g130
sg18
S''
sg42
g131
sg19
S''
sg15
g130
sg28
Nsg44
g132
stRp1022
ag3
(g4
g5
(dp1023
g14
S''
sg40
g135
sg18
S''
sg42
g136
sg19
S''
sg15
g135
sg28
Nsg44
g137
stRp1024
ag3
(g4
g5
(dp1025
g14
S''
sg40
g140
sg18
S''
sg42
g141
sg19
S''
sg15
g140
sg28
Nsg44
g142
stRp1026
ag3
(g4
g5
(dp1027
g14
S''
sg40
g145
sg18
S''
sg42
g146
sg19
S''
sg15
g145
sg28
Nsg44
g147
stRp1028
ag3
(g4
g5
(dp1029
g14
S''
sg40
g150
sg18
S''
sg42
g151
sg19
S''
sg15
g150
sg28
Nsg44
g152
stRp1030
ag3
(g4
g5
(dp1031
g14
S''
sg40
g155
sg18
S''
sg42
g156
sg19
S''
sg15
g155
sg28
Nsg44
g157
stRp1032
ag3
(g4
g5
(dp1033
g14
S''
sg40
g160
sg18
S''
sg42
g161
sg19
S''
sg15
g160
sg28
Nsg44
g162
stRp1034
ag3
(g4
g5
(dp1035
g14
S''
sg40
g165
sg18
S''
sg42
g166
sg19
S''
sg15
g165
sg28
Nsg44
g167
stRp1036
ag3
(g4
g5
(dp1037
g14
S''
sg40
g170
sg18
S''
sg42
g171
sg19
S''
sg15
g170
sg28
Nsg44
g172
stRp1038
ag3
(g4
g5
(dp1039
g14
S''
sg40
g175
sg18
S''
sg42
g176
sg19
S''
sg15
g175
sg28
Nsg44
g177
stRp1040
ag3
(g4
g5
(dp1041
g14
S''
sg40
g180
sg18
S''
sg42
g181
sg19
S''
sg15
g180
sg28
Nsg44
g182
stRp1042
ag3
(g4
g5
(dp1043
g14
S''
sg40
g185
sg18
S''
sg42
g186
sg19
S''
sg15
g185
sg28
Nsg44
g187
stRp1044
atRp1045
sg98
g1005
sg99
S'9'
sg100
g101
sg44
S'Revision records for revisions deleted at the head revision.'
p1046
sg42
S'Rev'
p1047
sg104
S'23'
p1048
sg40
S'db.revdx'
p1049
stRp1050
sS'revsx'
p1051
g3
(g4
g5
(dp1052
g7
S'depotFile, depotRev'
p1053
sg9
g3
(g10
g11
(lp1054
g3
(g4
g5
(dp1055
g14
S''
sg15
g16
sg17
g16
sg18
S''
sg19
S''
sg20
g21
sg22
g23
stRp1056
ag3
(g4
g5
(dp1057
g14
S''
sg17
g26
sg18
S''
sg20
g27
sg19
S''
sg15
g26
sg28
Nsg22
g29
stRp1058
ag3
(g4
g5
(dp1059
g14
S''
sg17
g32
sg18
S''
sg20
g21
sg19
S''
sg15
g32
sg28
Nsg22
g33
stRp1060
ag3
(g4
g5
(dp1061
g14
S''
sg17
g36
sg18
S''
sg20
g27
sg19
S''
sg15
g36
sg28
Nsg22
g37
stRp1062
ag3
(g4
g5
(dp1063
g14
S''
sg40
g120
sg18
S''
sg42
g121
sg19
S''
sg15
g120
sg28
Nsg44
g122
stRp1064
ag3
(g4
g5
(dp1065
g14
S''
sg40
g125
sg18
S''
sg42
g126
sg19
S''
sg15
g125
sg28
Nsg44
g127
stRp1066
ag3
(g4
g5
(dp1067
g14
S''
sg40
g130
sg18
S''
sg42
g131
sg19
S''
sg15
g130
sg28
Nsg44
g132
stRp1068
ag3
(g4
g5
(dp1069
g14
S''
sg40
g135
sg18
S''
sg42
g136
sg19
S''
sg15
g135
sg28
Nsg44
g137
stRp1070
ag3
(g4
g5
(dp1071
g14
S''
sg40
g140
sg18
S''
sg42
g141
sg19
S''
sg15
g140
sg28
Nsg44
g142
stRp1072
ag3
(g4
g5
(dp1073
g14
S''
sg40
g145
sg18
S''
sg42
g146
sg19
S''
sg15
g145
sg28
Nsg44
g147
stRp1074
ag3
(g4
g5
(dp1075
g14
S''
sg40
g150
sg18
S''
sg42
g151
sg19
S''
sg15
g150
sg28
Nsg44
g152
stRp1076
ag3
(g4
g5
(dp1077
g14
S''
sg40
g155
sg18
S''
sg42
g156
sg19
S''
sg15
g155
sg28
Nsg44
g157
stRp1078
ag3
(g4
g5
(dp1079
g14
S''
sg40
g160
sg18
S''
sg42
g161
sg19
S''
sg15
g160
sg28
Nsg44
g162
stRp1080
ag3
(g4
g5
(dp1081
g14
S''
sg40
g165
sg18
S''
sg42
g166
sg19
S''
sg15
g165
sg28
Nsg44
g167
stRp1082
ag3
(g4
g5
(dp1083
g14
S''
sg40
g170
sg18
S''
sg42
g171
sg19
S''
sg15
g170
sg28
Nsg44
g172
stRp1084
ag3
(g4
g5
(dp1085
g14
S''
sg40
g175
sg18
S''
sg42
g176
sg19
S''
sg15
g175
sg28
Nsg44
g177
stRp1086
ag3
(g4
g5
(dp1087
g14
S''
sg40
g180
sg18
S''
sg42
g181
sg19
S''
sg15
g180
sg28
Nsg44
g182
stRp1088
ag3
(g4
g5
(dp1089
g14
S''
sg40
g185
sg18
S''
sg42
g186
sg19
S''
sg15
g185
sg28
Nsg44
g187
stRp1090
atRp1091
sg98
g1051
sg99
S'9'
sg100
g101
sg44
S'Revision records for spec depot files.'
p1092
sg42
S'Rev'
p1093
sg104
S'26'
p1094
sg40
S'db.revsx'
p1095
stRp1096
sS'changex'
p1097
g3
(g4
g5
(dp1098
g7
S'change'
p1099
sg9
g3
(g10
g11
(lp1100
g3
(g4
g5
(dp1101
g14
S''
sg15
g16
sg17
g16
sg18
S''
sg19
S''
sg20
g21
sg22
g23
stRp1102
ag3
(g4
g5
(dp1103
g14
S''
sg17
g26
sg18
S''
sg20
g27
sg19
S''
sg15
g26
sg28
Nsg22
g29
stRp1104
ag3
(g4
g5
(dp1105
g14
S''
sg17
g32
sg18
S''
sg20
g21
sg19
S''
sg15
g32
sg28
Nsg22
g33
stRp1106
ag3
(g4
g5
(dp1107
g14
S''
sg17
g36
sg18
S''
sg20
g27
sg19
S''
sg15
g36
sg28
Nsg22
g37
stRp1108
ag3
(g4
g5
(dp1109
g14
S''
sg40
S'change'
p1110
sg18
S''
sg42
S'Change'
p1111
sg19
S''
sg15
g1110
sg28
Nsg44
S'The change number'
p1112
stRp1113
ag3
(g4
g5
(dp1114
g14
S''
sg40
S'descKey'
p1115
sg18
S''
sg42
S'Change'
p1116
sg19
S''
sg15
g1115
sg28
Nsg44
S"The description key. Normally the same as 'change', but\n\t\t    may differ if a changelist was renumbered on submission."
p1117
stRp1118
ag3
(g4
g5
(dp1119
g14
S''
sg40
S'client'
p1120
sg18
S''
sg42
S'Domain'
p1121
sg19
S''
sg15
g1120
sg28
Nsg44
S'The client from which the change originates'
p1122
stRp1123
ag3
(g4
g5
(dp1124
g14
S''
sg40
S'user'
p1125
sg18
S''
sg42
S'User'
p1126
sg19
S''
sg15
g1125
sg28
Nsg44
S'The user who owns the change'
p1127
stRp1128
ag3
(g4
g5
(dp1129
g14
S''
sg40
S'date'
p1130
sg18
S''
sg42
S'Date'
p1131
sg19
S''
sg15
g1130
sg28
Nsg44
S'Date and time the changelist was submitted'
p1132
stRp1133
ag3
(g4
g5
(dp1134
g14
S''
sg40
S'status'
p1135
sg18
S''
sg42
S'ChangeStatus'
p1136
sg19
S''
sg15
g1135
sg28
Nsg44
S'Status of the change'
p1137
stRp1138
ag3
(g4
g5
(dp1139
g14
S''
sg40
S'description'
p1140
sg18
S''
sg42
S'DescShort'
p1141
sg19
S''
sg15
g1140
sg28
Nsg44
S'Short description of the change.'
p1142
stRp1143
ag3
(g4
g5
(dp1144
g14
S''
sg40
S'root'
p1145
sg18
S''
sg42
S'Mapping'
p1146
sg19
S''
sg15
g1145
sg28
Nsg44
S'Common path for all files in the changelist'
p1147
stRp1148
atRp1149
sg98
g1097
sg190
S'contains records for pending changelists only.'
p1150
sg99
S'2'
sg100
g101
sg44
S'Subset of db.change'
p1151
sg42
S'Change'
p1152
sg104
S'34'
p1153
sg40
S'db.changex'
p1154
stRp1155
sS'integed'
p1156
g3
(g4
g5
(dp1157
g7
S'toFile, fromFile, startFromRev, endFromRev, \n\t\tstartToRev, endToRev'
p1158
sg9
g3
(g10
g11
(lp1159
g3
(g4
g5
(dp1160
g14
S''
sg15
g16
sg17
g16
sg18
S''
sg19
S''
sg20
g21
sg22
g23
stRp1161
ag3
(g4
g5
(dp1162
g14
S''
sg17
g26
sg18
S''
sg20
g27
sg19
S''
sg15
g26
sg28
Nsg22
g29
stRp1163
ag3
(g4
g5
(dp1164
g14
S''
sg17
g32
sg18
S''
sg20
g21
sg19
S''
sg15
g32
sg28
Nsg22
g33
stRp1165
ag3
(g4
g5
(dp1166
g14
S''
sg17
g36
sg18
S''
sg20
g27
sg19
S''
sg15
g36
sg28
Nsg22
g37
stRp1167
ag3
(g4
g5
(dp1168
g14
S''
sg40
S'toFile'
p1169
sg18
S''
sg42
S'File'
p1170
sg19
S''
sg15
g1169
sg28
Nsg44
S'File to which integration is being performed (target).'
p1171
stRp1172
ag3
(g4
g5
(dp1173
g14
S''
sg40
S'fromFile'
p1174
sg18
S''
sg42
S'File'
p1175
sg19
S''
sg15
g1174
sg28
Nsg44
S'File from which integration is being performed (source).'
p1176
stRp1177
ag3
(g4
g5
(dp1178
g14
S''
sg40
S'startFromRev'
p1179
sg18
S''
sg42
S'Rev'
p1180
sg19
S''
sg15
g1179
sg28
Nsg44
S'Starting revision of fromFile'
p1181
stRp1182
ag3
(g4
g5
(dp1183
g14
S''
sg40
S'endFromRev'
p1184
sg18
S''
sg42
S'Rev'
p1185
sg19
S''
sg15
g1184
sg28
Nsg44
S'Ending revision of fromFile. If integrating from a single \n\t\t    revision (not a revision range), the startFromRev and \n\t\t    endFromRev fields will be identical.'
p1186
stRp1187
ag3
(g4
g5
(dp1188
g14
S''
sg40
S'startToRev'
p1189
sg18
S''
sg42
S'Rev'
p1190
sg19
S''
sg15
g1189
sg28
Nsg44
S'Start revision of toFile into which integration was \n\t\t    performed.'
p1191
stRp1192
ag3
(g4
g5
(dp1193
g14
S''
sg40
S'endToRev'
p1194
sg18
S''
sg42
S'Rev'
p1195
sg19
S''
sg15
g1194
sg28
Nsg44
S'End revision of toFile into which integration was \n\t\t    performed. Only varies from startToRev for reverse \n\t\t    integration records.'
p1196
stRp1197
ag3
(g4
g5
(dp1198
g14
S''
sg40
S'how'
p1199
sg18
S''
sg42
S'IntegHow'
p1200
sg19
S''
sg15
g1199
sg28
Nsg44
S'Integration method: variations on \n\t\t    merge/branch/copy/ignore/delete.'
p1201
stRp1202
ag3
(g4
g5
(dp1203
g14
S''
sg40
S'change'
p1204
sg18
S''
sg42
S'Change'
p1205
sg19
S''
sg15
g1204
sg28
Nsg44
S'Changelist associated with the integration.'
p1206
stRp1207
atRp1208
sg98
g1156
sg40
S'db.integed'
p1209
sg99
S'0'
sg100
g101
sg972
S'db.resolve'
p1210
sg42
S'Integed'
p1211
sg104
S'13'
p1212
sg44
S'Permanent integration records'
p1213
stRp1214
sS'jobdesc'
p1215
g3
(g4
g5
(dp1216
g7
S'job'
p1217
sg9
g3
(g10
g11
(lp1218
g3
(g4
g5
(dp1219
g14
S''
sg15
g16
sg17
g16
sg18
S''
sg19
S''
sg20
g21
sg22
g23
stRp1220
ag3
(g4
g5
(dp1221
g14
S''
sg17
g26
sg18
S''
sg20
g27
sg19
S''
sg15
g26
sg28
Nsg22
g29
stRp1222
ag3
(g4
g5
(dp1223
g14
S''
sg17
g32
sg18
S''
sg20
g21
sg19
S''
sg15
g32
sg28
Nsg22
g33
stRp1224
ag3
(g4
g5
(dp1225
g14
S''
sg17
g36
sg18
S''
sg20
g27
sg19
S''
sg15
g36
sg28
Nsg22
g37
stRp1226
ag3
(g4
g5
(dp1227
g14
S''
sg40
S'xjob'
p1228
sg18
S''
sg42
S'String'
p1229
sg19
S''
sg15
g1228
sg28
Nsg44
S'The job name'
p1230
stRp1231
ag3
(g4
g5
(dp1232
g14
S''
sg40
S'xdescription'
p1233
sg18
S''
sg42
S'Text'
p1234
sg19
S''
sg15
g1233
sg28
Nsg44
S'Jobdescription'
p1235
stRp1236
atRp1237
sg98
g1215
sg40
S'db.jobdesc'
p1238
sg99
S'0'
sg100
g101
sg972
S'db.bodtext'
p1239
sg42
S'JobDesc'
p1240
sg104
S'38'
p1241
sg44
S'Obsolete in 98.2'
p1242
stRp1243
sS'job'
p1244
g3
(g4
g5
(dp1245
g7
S'job'
p1246
sg9
g3
(g10
g11
(lp1247
g3
(g4
g5
(dp1248
g14
S''
sg15
g16
sg17
g16
sg18
S''
sg19
S''
sg20
g21
sg22
g23
stRp1249
ag3
(g4
g5
(dp1250
g14
S''
sg17
g26
sg18
S''
sg20
g27
sg19
S''
sg15
g26
sg28
Nsg22
g29
stRp1251
ag3
(g4
g5
(dp1252
g14
S''
sg17
g32
sg18
S''
sg20
g21
sg19
S''
sg15
g32
sg28
Nsg22
g33
stRp1253
ag3
(g4
g5
(dp1254
g14
S''
sg17
g36
sg18
S''
sg20
g27
sg19
S''
sg15
g36
sg28
Nsg22
g37
stRp1255
ag3
(g4
g5
(dp1256
g14
S''
sg40
S'job'
p1257
sg18
S''
sg42
S'String'
p1258
sg19
S''
sg15
g1257
sg28
Nsg44
S'The job name'
p1259
stRp1260
ag3
(g4
g5
(dp1261
g14
S''
sg40
S'xuser'
p1262
sg18
S''
sg42
S'User'
p1263
sg19
S''
sg15
g1262
sg28
Nsg44
S'User name: defunct'
p1264
stRp1265
ag3
(g4
g5
(dp1266
g14
S''
sg40
S'xdate'
p1267
sg18
S''
sg42
S'Date'
p1268
sg19
S''
sg15
g1267
sg28
Nsg44
S'The date: defunct'
p1269
stRp1270
ag3
(g4
g5
(dp1271
g14
S''
sg40
S'xstatus'
p1272
sg18
S''
sg42
S'JobStat'
p1273
sg19
S''
sg15
g1272
sg28
Nsg44
S'Job status: defunct'
p1274
stRp1275
ag3
(g4
g5
(dp1276
g14
S''
sg40
S'description'
p1277
sg18
S''
sg42
S'DescShort'
p1278
sg19
S''
sg15
g1277
sg28
Nsg44
S'Short description'
p1279
stRp1280
atRp1281
sg98
g1244
sg40
S'db.job'
p1282
sg99
S'0'
sg100
g101
sg972
S'db.bodtext'
p1283
sg42
S'Job'
p1284
sg104
S'36'
p1285
sg44
S'Job records'
p1286
stRp1287
sS'workingx'
p1288
g3
(g4
g5
(dp1289
g7
S'clientFile'
p1290
sg9
g3
(g10
g11
(lp1291
g3
(g4
g5
(dp1292
g14
S''
sg15
g16
sg17
g16
sg18
S''
sg19
S''
sg20
g21
sg22
g23
stRp1293
ag3
(g4
g5
(dp1294
g14
S''
sg17
g26
sg18
S''
sg20
g27
sg19
S''
sg15
g26
sg28
Nsg22
g29
stRp1295
ag3
(g4
g5
(dp1296
g14
S''
sg17
g32
sg18
S''
sg20
g21
sg19
S''
sg15
g32
sg28
Nsg22
g33
stRp1297
ag3
(g4
g5
(dp1298
g14
S''
sg17
g36
sg18
S''
sg20
g27
sg19
S''
sg15
g36
sg28
Nsg22
g37
stRp1299
ag3
(g4
g5
(dp1300
g14
S''
sg40
g516
sg18
S''
sg42
g517
sg19
S''
sg15
g516
sg28
Nsg44
g518
stRp1301
ag3
(g4
g5
(dp1302
g14
S''
sg40
g521
sg18
S''
sg42
g522
sg19
S''
sg15
g521
sg28
Nsg44
g523
stRp1303
ag3
(g4
g5
(dp1304
g14
S''
sg40
g526
sg18
S''
sg42
g527
sg19
S''
sg15
g526
sg28
Nsg44
g528
stRp1305
ag3
(g4
g5
(dp1306
g14
S''
sg40
g531
sg18
S''
sg42
g532
sg19
S''
sg15
g531
sg28
Nsg44
g533
stRp1307
ag3
(g4
g5
(dp1308
g14
S''
sg40
g536
sg18
S''
sg42
g537
sg19
S''
sg15
g536
sg28
Nsg44
g538
stRp1309
ag3
(g4
g5
(dp1310
g14
S''
sg40
g541
sg18
S''
sg42
g542
sg19
S''
sg15
g541
sg28
Nsg44
g543
stRp1311
ag3
(g4
g5
(dp1312
g14
S''
sg40
g546
sg18
S''
sg42
g547
sg19
S''
sg15
g546
sg28
Nsg44
g548
stRp1313
ag3
(g4
g5
(dp1314
g14
S''
sg40
g551
sg18
S''
sg42
g552
sg19
S''
sg15
g551
sg28
Nsg44
g553
stRp1315
ag3
(g4
g5
(dp1316
g14
S''
sg40
g556
sg18
S''
sg42
g557
sg19
S''
sg15
g556
sg28
Nsg44
g558
stRp1317
ag3
(g4
g5
(dp1318
g14
S''
sg40
g561
sg18
S''
sg42
g562
sg19
S''
sg15
g561
sg28
Nsg44
g563
stRp1319
ag3
(g4
g5
(dp1320
g14
S''
sg40
g566
sg18
S''
sg42
g567
sg19
S''
sg15
g566
sg28
Nsg44
g568
stRp1321
ag3
(g4
g5
(dp1322
g14
S''
sg40
g571
sg18
S''
sg42
g572
sg19
S''
sg15
g571
sg28
Nsg44
g573
stRp1323
ag3
(g4
g5
(dp1324
g14
S''
sg40
g576
sg18
S''
sg42
g577
sg19
S''
sg15
g576
sg28
Nsg44
g578
stRp1325
ag3
(g4
g5
(dp1326
g14
S''
sg40
g581
sg18
S''
sg42
g582
sg19
S''
sg15
g581
sg28
Nsg44
g583
stRp1327
ag3
(g4
g5
(dp1328
g14
S''
sg40
g586
sg18
S''
sg42
g587
sg19
S''
sg15
g586
sg28
Nsg44
g588
stRp1329
ag3
(g4
g5
(dp1330
g14
S''
sg40
g591
sg18
S''
sg42
g592
sg19
S''
sg15
g591
sg28
Nsg44
g593
stRp1331
ag3
(g4
g5
(dp1332
g14
S''
sg40
g596
sg18
S''
sg42
g597
sg19
S''
sg15
g596
sg28
Nsg44
g598
stRp1333
ag3
(g4
g5
(dp1334
g14
S''
sg40
g601
sg18
S''
sg42
g602
sg19
S''
sg15
g601
sg28
Nsg44
g603
stRp1335
atRp1336
sg98
g1288
sg99
S'9'
sg100
g101
sg44
S'Records for shelved open files'
p1337
sg42
S'Working'
p1338
sg104
S'30'
p1339
sg40
S'db.workingx'
p1340
stRp1341
sS'user'
p1342
g3
(g4
g5
(dp1343
g7
S'user'
p1344
sg9
g3
(g10
g11
(lp1345
g3
(g4
g5
(dp1346
g14
S''
sg15
g16
sg17
g16
sg18
S''
sg19
S''
sg20
g21
sg22
g23
stRp1347
ag3
(g4
g5
(dp1348
g14
S''
sg17
g26
sg18
S''
sg20
g27
sg19
S''
sg15
g26
sg28
Nsg22
g29
stRp1349
ag3
(g4
g5
(dp1350
g14
S''
sg17
g32
sg18
S''
sg20
g21
sg19
S''
sg15
g32
sg28
Nsg22
g33
stRp1351
ag3
(g4
g5
(dp1352
g14
S''
sg17
g36
sg18
S''
sg20
g27
sg19
S''
sg15
g36
sg28
Nsg22
g37
stRp1353
ag3
(g4
g5
(dp1354
g14
S''
sg40
S'user'
p1355
sg18
S''
sg42
S'User'
p1356
sg19
S''
sg15
g1355
sg28
Nsg44
S'The username'
p1357
stRp1358
ag3
(g4
g5
(dp1359
g14
S''
sg40
S'email'
p1360
sg18
S''
sg42
S'Text'
p1361
sg19
S''
sg15
g1360
sg28
Nsg44
S"The user's email address"
p1362
stRp1363
ag3
(g4
g5
(dp1364
g14
S''
sg40
S'jobView'
p1365
sg18
S''
sg42
S'Text'
p1366
sg19
S''
sg15
g1365
sg28
Nsg44
S"The user's job view"
p1367
stRp1368
ag3
(g4
g5
(dp1369
g14
S''
sg40
S'updateDate'
p1370
sg18
S''
sg42
S'Date'
p1371
sg19
S''
sg15
g1370
sg28
Nsg44
S'The date/time the user record was last updated'
p1372
stRp1373
ag3
(g4
g5
(dp1374
g14
S''
sg40
S'accessDate'
p1375
sg18
S''
sg42
S'Date'
p1376
sg19
S''
sg15
g1375
sg28
Nsg44
S'The date/time the user record was last used'
p1377
stRp1378
ag3
(g4
g5
(dp1379
g14
S''
sg40
S'fullName'
p1380
sg18
S''
sg42
S'Text'
p1381
sg19
S''
sg15
g1380
sg28
Nsg44
S"The user's full name"
p1382
stRp1383
ag3
(g4
g5
(dp1384
g14
S''
sg40
S'password'
p1385
sg18
S''
sg42
S'Password'
p1386
sg19
S''
sg15
g1385
sg28
Nsg44
S'The MD5 hash of the users (encrypted) password'
p1387
stRp1388
ag3
(g4
g5
(dp1389
g14
S''
sg40
S'strength'
p1390
sg18
S''
sg42
S'Strength'
p1391
sg19
S''
sg15
g1390
sg28
Nsg44
S"Measure of the strength of the user's password"
p1392
stRp1393
ag3
(g4
g5
(dp1394
g14
S''
sg40
S'ticket'
p1395
sg18
S''
sg42
S'Password'
p1396
sg19
S''
sg15
g1395
sg28
Nsg44
S"'p4 login' ticket for this user"
p1397
stRp1398
ag3
(g4
g5
(dp1399
g14
S''
sg40
S'endDate'
p1400
sg18
S''
sg42
S'Date'
p1401
sg19
S''
sg15
g1400
sg28
Nsg44
S"Date/time the user's ticket expires"
p1402
stRp1403
ag3
(g4
g5
(dp1404
g14
S''
sg40
S'type'
p1405
sg18
S''
sg42
S'UserLevel'
p1406
sg19
S''
sg15
g1405
sg28
Nsg44
S'Type of user'
p1407
stRp1408
ag3
(g4
g5
(dp1409
g14
S''
sg40
S'passwordChangeDate'
p1410
sg18
S''
sg42
S'Date'
p1411
sg19
S''
sg15
g1410
sg28
Nsg44
S'Date password was last changed'
p1412
stRp1413
atRp1414
sg98
g1342
sg99
S'4'
sg100
g101
sg44
S'Lists users known to Perforce'
p1415
sg42
S'User'
p1416
sg104
S'4'
sg40
S'db.user'
p1417
stRp1418
sS'revsh'
p1419
g3
(g4
g5
(dp1420
g7
S'depotFile, depotRev, type, action, change'
p1421
sg9
g3
(g10
g11
(lp1422
g3
(g4
g5
(dp1423
g14
S''
sg15
g16
sg17
g16
sg18
S''
sg19
S''
sg20
g21
sg22
g23
stRp1424
ag3
(g4
g5
(dp1425
g14
S''
sg17
g26
sg18
S''
sg20
g27
sg19
S''
sg15
g26
sg28
Nsg22
g29
stRp1426
ag3
(g4
g5
(dp1427
g14
S''
sg17
g32
sg18
S''
sg20
g21
sg19
S''
sg15
g32
sg28
Nsg22
g33
stRp1428
ag3
(g4
g5
(dp1429
g14
S''
sg17
g36
sg18
S''
sg20
g27
sg19
S''
sg15
g36
sg28
Nsg22
g37
stRp1430
ag3
(g4
g5
(dp1431
g14
S''
sg40
g120
sg18
S''
sg42
g121
sg19
S''
sg15
g120
sg28
Nsg44
g122
stRp1432
ag3
(g4
g5
(dp1433
g14
S''
sg40
g125
sg18
S''
sg42
g126
sg19
S''
sg15
g125
sg28
Nsg44
g127
stRp1434
ag3
(g4
g5
(dp1435
g14
S''
sg40
g130
sg18
S''
sg42
g131
sg19
S''
sg15
g130
sg28
Nsg44
g132
stRp1436
ag3
(g4
g5
(dp1437
g14
S''
sg40
g135
sg18
S''
sg42
g136
sg19
S''
sg15
g135
sg28
Nsg44
g137
stRp1438
ag3
(g4
g5
(dp1439
g14
S''
sg40
g140
sg18
S''
sg42
g141
sg19
S''
sg15
g140
sg28
Nsg44
g142
stRp1440
ag3
(g4
g5
(dp1441
g14
S''
sg40
g145
sg18
S''
sg42
g146
sg19
S''
sg15
g145
sg28
Nsg44
g147
stRp1442
ag3
(g4
g5
(dp1443
g14
S''
sg40
g150
sg18
S''
sg42
g151
sg19
S''
sg15
g150
sg28
Nsg44
g152
stRp1444
ag3
(g4
g5
(dp1445
g14
S''
sg40
g155
sg18
S''
sg42
g156
sg19
S''
sg15
g155
sg28
Nsg44
g157
stRp1446
ag3
(g4
g5
(dp1447
g14
S''
sg40
g160
sg18
S''
sg42
g161
sg19
S''
sg15
g160
sg28
Nsg44
g162
stRp1448
ag3
(g4
g5
(dp1449
g14
S''
sg40
g165
sg18
S''
sg42
g166
sg19
S''
sg15
g165
sg28
Nsg44
g167
stRp1450
ag3
(g4
g5
(dp1451
g14
S''
sg40
g170
sg18
S''
sg42
g171
sg19
S''
sg15
g170
sg28
Nsg44
g172
stRp1452
ag3
(g4
g5
(dp1453
g14
S''
sg40
g175
sg18
S''
sg42
g176
sg19
S''
sg15
g175
sg28
Nsg44
g177
stRp1454
ag3
(g4
g5
(dp1455
g14
S''
sg40
g180
sg18
S''
sg42
g181
sg19
S''
sg15
g180
sg28
Nsg44
g182
stRp1456
ag3
(g4
g5
(dp1457
g14
S''
sg40
g185
sg18
S''
sg42
g186
sg19
S''
sg15
g185
sg28
Nsg44
g187
stRp1458
atRp1459
sg98
g1419
sg99
S'9'
sg100
g101
sg44
S'Revision records for shelved files.'
p1460
sg42
S'Rev'
p1461
sg104
S'27'
p1462
sg40
S'db.revsh'
p1463
stRp1464
sS'resolvex'
p1465
g3
(g4
g5
(dp1466
g7
S'toFile, fromFile, startFromRev'
p1467
sg9
g3
(g10
g11
(lp1468
g3
(g4
g5
(dp1469
g14
S''
sg15
g16
sg17
g16
sg18
S''
sg19
S''
sg20
g21
sg22
g23
stRp1470
ag3
(g4
g5
(dp1471
g14
S''
sg17
g26
sg18
S''
sg20
g27
sg19
S''
sg15
g26
sg28
Nsg22
g29
stRp1472
ag3
(g4
g5
(dp1473
g14
S''
sg17
g32
sg18
S''
sg20
g21
sg19
S''
sg15
g32
sg28
Nsg22
g33
stRp1474
ag3
(g4
g5
(dp1475
g14
S''
sg17
g36
sg18
S''
sg20
g27
sg19
S''
sg15
g36
sg28
Nsg22
g37
stRp1476
ag3
(g4
g5
(dp1477
g14
S''
sg40
S'toFile'
p1478
sg18
S''
sg42
S'File'
p1479
sg19
S''
sg15
g1478
sg28
Nsg44
S'File to which integration is being performed (target).'
p1480
stRp1481
ag3
(g4
g5
(dp1482
g14
S''
sg40
S'fromFile'
p1483
sg18
S''
sg42
S'File'
p1484
sg19
S''
sg15
g1483
sg28
Nsg44
S'File from which integration is being performed (source).'
p1485
stRp1486
ag3
(g4
g5
(dp1487
g14
S''
sg40
S'startFromRev'
p1488
sg18
S''
sg42
S'Rev'
p1489
sg19
S''
sg15
g1488
sg28
Nsg44
S'Starting revision of fromFile'
p1490
stRp1491
ag3
(g4
g5
(dp1492
g14
S''
sg40
S'endFromRev'
p1493
sg18
S''
sg42
S'Rev'
p1494
sg19
S''
sg15
g1493
sg28
Nsg44
S'Ending revision of fromFile. If integrating from a single \n\t\t    revision (not a revision range), the startFromRev and \n\t\t    endFromRev fields will be identical.'
p1495
stRp1496
ag3
(g4
g5
(dp1497
g14
S''
sg40
S'startToRev'
p1498
sg18
S''
sg42
S'Rev'
p1499
sg19
S''
sg15
g1498
sg28
Nsg44
S'Start revision of toFile into which integration was \n\t\t    performed.'
p1500
stRp1501
ag3
(g4
g5
(dp1502
g14
S''
sg40
S'endToRev'
p1503
sg18
S''
sg42
S'Rev'
p1504
sg19
S''
sg15
g1503
sg28
Nsg44
S'End revision of toFile into which integration was \n\t\t    performed. Only varies from startToRev for reverse \n\t\t    integration records.'
p1505
stRp1506
ag3
(g4
g5
(dp1507
g14
S''
sg40
S'how'
p1508
sg18
S''
sg42
S'IntegHow'
p1509
sg19
S''
sg15
g1508
sg28
Nsg44
S'Integration method: variations on \n\t\t    merge/branch/copy/ignore/delete.'
p1510
stRp1511
ag3
(g4
g5
(dp1512
g14
S''
sg40
S'resolved'
p1513
sg18
S''
sg42
S'ResolvedStatus'
p1514
sg19
S''
sg15
g1513
sg28
Nsg44
S'How the user performed the resolve.'
p1515
stRp1516
ag3
(g4
g5
(dp1517
g14
S''
sg40
S'baseFile'
p1518
sg18
S''
sg42
S'File'
p1519
sg19
S''
sg15
g1518
sg28
Nsg44
S'File used as the base for merging.'
p1520
stRp1521
ag3
(g4
g5
(dp1522
g14
S''
sg40
S'baseRev'
p1523
sg18
S''
sg42
S'Rev'
p1524
sg19
S''
sg15
g1523
sg28
Nsg44
S'Revision of baseFile used as the merge base.'
p1525
stRp1526
atRp1527
sg98
g1465
sg40
S'db.resolvex'
p1528
sg99
S'0'
sg100
g101
sg972
S'db.integed'
p1529
sg42
S'Resolve'
p1530
sg104
S'15'
p1531
sg44
S'Pending integration records'
p1532
stRp1533
sS'archmap'
p1534
g3
(g4
g5
(dp1535
g7
S'lbrFile, depotFile'
p1536
sg9
g3
(g10
g11
(lp1537
g3
(g4
g5
(dp1538
g14
S''
sg15
g16
sg17
g16
sg18
S''
sg19
S''
sg20
g21
sg22
g23
stRp1539
ag3
(g4
g5
(dp1540
g14
S''
sg17
g26
sg18
S''
sg20
g27
sg19
S''
sg15
g26
sg28
Nsg22
g29
stRp1541
ag3
(g4
g5
(dp1542
g14
S''
sg17
g32
sg18
S''
sg20
g21
sg19
S''
sg15
g32
sg28
Nsg22
g33
stRp1543
ag3
(g4
g5
(dp1544
g14
S''
sg17
g36
sg18
S''
sg20
g27
sg19
S''
sg15
g36
sg28
Nsg22
g37
stRp1545
ag3
(g4
g5
(dp1546
g14
S''
sg40
S'lbrFile'
p1547
sg18
S''
sg42
S'File'
p1548
sg19
S''
sg15
g1547
sg28
Nsg44
S'Paths in the librarian namespace that recieve lazy\n\t\t    copies.'
p1549
stRp1550
ag3
(g4
g5
(dp1551
g14
S''
sg40
S'depotFile'
p1552
sg18
S''
sg42
S'File'
p1553
sg19
S''
sg15
g1552
sg28
Nsg44
S'Paths in the depot namespace that provide lazy copies.'
p1554
stRp1555
atRp1556
sg98
g1534
sg190
S'Supercedes db.archive'
p1557
sg99
S'0'
sg100
g101
sg44
S'Mappings entries for lazy-copies.'
p1558
sg42
S'ArchMap'
p1559
sg104
S'20'
p1560
sg40
S'db.archmap'
p1561
stRp1562
sS'change'
p1563
g3
(g4
g5
(dp1564
g7
S'change'
p1565
sg9
g3
(g10
g11
(lp1566
g3
(g4
g5
(dp1567
g14
S''
sg15
g16
sg17
g16
sg18
S''
sg19
S''
sg20
g21
sg22
g23
stRp1568
ag3
(g4
g5
(dp1569
g14
S''
sg17
g26
sg18
S''
sg20
g27
sg19
S''
sg15
g26
sg28
Nsg22
g29
stRp1570
ag3
(g4
g5
(dp1571
g14
S''
sg17
g32
sg18
S''
sg20
g21
sg19
S''
sg15
g32
sg28
Nsg22
g33
stRp1572
ag3
(g4
g5
(dp1573
g14
S''
sg17
g36
sg18
S''
sg20
g27
sg19
S''
sg15
g36
sg28
Nsg22
g37
stRp1574
ag3
(g4
g5
(dp1575
g14
S''
sg40
g1110
sg18
S''
sg42
g1111
sg19
S''
sg15
g1110
sg28
Nsg44
g1112
stRp1576
ag3
(g4
g5
(dp1577
g14
S''
sg40
g1115
sg18
S''
sg42
g1116
sg19
S''
sg15
g1115
sg28
Nsg44
g1117
stRp1578
ag3
(g4
g5
(dp1579
g14
S''
sg40
g1120
sg18
S''
sg42
g1121
sg19
S''
sg15
g1120
sg28
Nsg44
g1122
stRp1580
ag3
(g4
g5
(dp1581
g14
S''
sg40
g1125
sg18
S''
sg42
g1126
sg19
S''
sg15
g1125
sg28
Nsg44
g1127
stRp1582
ag3
(g4
g5
(dp1583
g14
S''
sg40
g1130
sg18
S''
sg42
g1131
sg19
S''
sg15
g1130
sg28
Nsg44
g1132
stRp1584
ag3
(g4
g5
(dp1585
g14
S''
sg40
g1135
sg18
S''
sg42
g1136
sg19
S''
sg15
g1135
sg28
Nsg44
g1137
stRp1586
ag3
(g4
g5
(dp1587
g14
S''
sg40
g1140
sg18
S''
sg42
g1141
sg19
S''
sg15
g1140
sg28
Nsg44
g1142
stRp1588
ag3
(g4
g5
(dp1589
g14
S''
sg40
g1145
sg18
S''
sg42
g1146
sg19
S''
sg15
g1145
sg28
Nsg44
g1147
stRp1590
atRp1591
sg98
g1563
sg99
S'2'
sg100
g101
sg44
S'Changelists'
p1592
sg42
S'Change'
p1593
sg104
S'33'
p1594
sg40
S'db.change'
p1595
stRp1596
sS'desc'
p1597
g3
(g4
g5
(dp1598
g7
S'descKey'
p1599
sg9
g3
(g10
g11
(lp1600
g3
(g4
g5
(dp1601
g14
S''
sg15
g16
sg17
g16
sg18
S''
sg19
S''
sg20
g21
sg22
g23
stRp1602
ag3
(g4
g5
(dp1603
g14
S''
sg17
g26
sg18
S''
sg20
g27
sg19
S''
sg15
g26
sg28
Nsg22
g29
stRp1604
ag3
(g4
g5
(dp1605
g14
S''
sg17
g32
sg18
S''
sg20
g21
sg19
S''
sg15
g32
sg28
Nsg22
g33
stRp1606
ag3
(g4
g5
(dp1607
g14
S''
sg17
g36
sg18
S''
sg20
g27
sg19
S''
sg15
g36
sg28
Nsg22
g37
stRp1608
ag3
(g4
g5
(dp1609
g14
S''
sg40
S'descKey'
p1610
sg18
S''
sg42
S'Change'
p1611
sg19
S''
sg15
g1610
sg28
Nsg44
S'Original number of the change to which this description\n\t\t    applies. This may differ from the final change number if\n\t\t    the change is renumbered on submission.'
p1612
stRp1613
ag3
(g4
g5
(dp1614
g14
S''
sg40
S'description'
p1615
sg18
S''
sg42
S'Text'
p1616
sg19
S''
sg15
g1615
sg28
Nsg44
S'The change description itself'
p1617
stRp1618
atRp1619
sg98
g1597
sg99
S'0'
sg100
g101
sg44
S'Change descriptions'
p1620
sg42
S'Desc'
p1621
sg104
S'35'
p1622
sg40
S'db.desc'
p1623
stRp1624
sS'protect'
p1625
g3
(g4
g5
(dp1626
g7
S'seq'
p1627
sg9
g3
(g10
g11
(lp1628
g3
(g4
g5
(dp1629
g14
S''
sg15
g16
sg17
g16
sg18
S''
sg19
S''
sg20
g21
sg22
g23
stRp1630
ag3
(g4
g5
(dp1631
g14
S''
sg17
g26
sg18
S''
sg20
g27
sg19
S''
sg15
g26
sg28
Nsg22
g29
stRp1632
ag3
(g4
g5
(dp1633
g14
S''
sg17
g32
sg18
S''
sg20
g21
sg19
S''
sg15
g32
sg28
Nsg22
g33
stRp1634
ag3
(g4
g5
(dp1635
g14
S''
sg17
g36
sg18
S''
sg20
g27
sg19
S''
sg15
g36
sg28
Nsg22
g37
stRp1636
ag3
(g4
g5
(dp1637
g14
S''
sg40
S'seq'
p1638
sg18
S''
sg42
S'Int'
p1639
sg19
S''
sg15
g1638
sg28
Nsg44
S'Sequence number: for ordering the protections table'
p1640
stRp1641
ag3
(g4
g5
(dp1642
g14
S''
sg40
S'isGroup'
p1643
sg18
S''
sg42
S'Int'
p1644
sg19
S''
sg15
g1643
sg28
Nsg44
S'Flag: 0 for a per-user setting, 1 for a per-group setting.'
p1645
stRp1646
ag3
(g4
g5
(dp1647
g14
S''
sg40
S'user'
p1648
sg18
S''
sg42
S'UserWild'
p1649
sg19
S''
sg15
g1648
sg28
Nsg44
S'User(s), or Group(s) for whom this record applies.'
p1650
stRp1651
ag3
(g4
g5
(dp1652
g14
S''
sg40
S'host'
p1653
sg18
S''
sg42
S'DomainWild'
p1654
sg19
S''
sg15
g1653
sg28
Nsg44
S'Domain(s) (IP addresses) for which this record applies.'
p1655
stRp1656
ag3
(g4
g5
(dp1657
g14
S''
sg40
S'perm'
p1658
sg18
S''
sg42
S'Perm'
p1659
sg19
S''
sg15
g1658
sg28
Nsg44
S'Permissions to be granted/revoked'
p1660
stRp1661
ag3
(g4
g5
(dp1662
g14
S''
sg40
S'mapFlag'
p1663
sg18
S''
sg42
S'MapFlag'
p1664
sg19
S''
sg15
g1663
sg28
Nsg44
S'Flag: Map the files in or out?'
p1665
stRp1666
ag3
(g4
g5
(dp1667
g14
S''
sg40
S'depotFile'
p1668
sg18
S''
sg42
S'Mapping'
p1669
sg19
S''
sg15
g1668
sg28
Nsg44
S'Files to be mapped in or out.'
p1670
stRp1671
atRp1672
sg98
g1625
sg99
S'4'
sg100
g101
sg44
S'The protections table'
p1673
sg42
S'Protect'
p1674
sg104
S'45'
p1675
sg40
S'db.protect'
p1676
stRp1677
sS'resolve'
p1678
g3
(g4
g5
(dp1679
g7
S'toFile, fromFile, startFromRev'
p1680
sg9
g3
(g10
g11
(lp1681
g3
(g4
g5
(dp1682
g14
S''
sg15
g16
sg17
g16
sg18
S''
sg19
S''
sg20
g21
sg22
g23
stRp1683
ag3
(g4
g5
(dp1684
g14
S''
sg17
g26
sg18
S''
sg20
g27
sg19
S''
sg15
g26
sg28
Nsg22
g29
stRp1685
ag3
(g4
g5
(dp1686
g14
S''
sg17
g32
sg18
S''
sg20
g21
sg19
S''
sg15
g32
sg28
Nsg22
g33
stRp1687
ag3
(g4
g5
(dp1688
g14
S''
sg17
g36
sg18
S''
sg20
g27
sg19
S''
sg15
g36
sg28
Nsg22
g37
stRp1689
ag3
(g4
g5
(dp1690
g14
S''
sg40
g1478
sg18
S''
sg42
g1479
sg19
S''
sg15
g1478
sg28
Nsg44
g1480
stRp1691
ag3
(g4
g5
(dp1692
g14
S''
sg40
g1483
sg18
S''
sg42
g1484
sg19
S''
sg15
g1483
sg28
Nsg44
g1485
stRp1693
ag3
(g4
g5
(dp1694
g14
S''
sg40
g1488
sg18
S''
sg42
g1489
sg19
S''
sg15
g1488
sg28
Nsg44
g1490
stRp1695
ag3
(g4
g5
(dp1696
g14
S''
sg40
g1493
sg18
S''
sg42
g1494
sg19
S''
sg15
g1493
sg28
Nsg44
g1495
stRp1697
ag3
(g4
g5
(dp1698
g14
S''
sg40
g1498
sg18
S''
sg42
g1499
sg19
S''
sg15
g1498
sg28
Nsg44
g1500
stRp1699
ag3
(g4
g5
(dp1700
g14
S''
sg40
g1503
sg18
S''
sg42
g1504
sg19
S''
sg15
g1503
sg28
Nsg44
g1505
stRp1701
ag3
(g4
g5
(dp1702
g14
S''
sg40
g1508
sg18
S''
sg42
g1509
sg19
S''
sg15
g1508
sg28
Nsg44
g1510
stRp1703
ag3
(g4
g5
(dp1704
g14
S''
sg40
g1513
sg18
S''
sg42
g1514
sg19
S''
sg15
g1513
sg28
Nsg44
g1515
stRp1705
ag3
(g4
g5
(dp1706
g14
S''
sg40
g1518
sg18
S''
sg42
g1519
sg19
S''
sg15
g1518
sg28
Nsg44
g1520
stRp1707
ag3
(g4
g5
(dp1708
g14
S''
sg40
g1523
sg18
S''
sg42
g1524
sg19
S''
sg15
g1523
sg28
Nsg44
g1525
stRp1709
atRp1710
sg98
g1678
sg40
S'db.resolve'
p1711
sg99
S'0'
sg100
g101
sg972
S'db.integed'
p1712
sg42
S'Resolve'
p1713
sg104
S'14'
p1714
sg44
S'Pending integration records'
p1715
stRp1716
sS'locks'
p1717
g3
(g4
g5
(dp1718
g7
S'depotFile, client'
p1719
sg9
g3
(g10
g11
(lp1720
g3
(g4
g5
(dp1721
g14
S''
sg15
g16
sg17
g16
sg18
S''
sg19
S''
sg20
g21
sg22
g23
stRp1722
ag3
(g4
g5
(dp1723
g14
S''
sg17
g26
sg18
S''
sg20
g27
sg19
S''
sg15
g26
sg28
Nsg22
g29
stRp1724
ag3
(g4
g5
(dp1725
g14
S''
sg17
g32
sg18
S''
sg20
g21
sg19
S''
sg15
g32
sg28
Nsg22
g33
stRp1726
ag3
(g4
g5
(dp1727
g14
S''
sg17
g36
sg18
S''
sg20
g27
sg19
S''
sg15
g36
sg28
Nsg22
g37
stRp1728
ag3
(g4
g5
(dp1729
g14
S''
sg40
S'depotFile'
p1730
sg18
S''
sg42
S'File'
p1731
sg19
S''
sg15
g1730
sg28
Nsg44
S'File in depot'
p1732
stRp1733
ag3
(g4
g5
(dp1734
g14
S''
sg40
S'client'
p1735
sg18
S''
sg42
S'Domain'
p1736
sg19
S''
sg15
g1735
sg28
Nsg44
S'Domain (client) in which file is open'
p1737
stRp1738
ag3
(g4
g5
(dp1739
g14
S''
sg40
S'user'
p1740
sg18
S''
sg42
S'User'
p1741
sg19
S''
sg15
g1740
sg28
Nsg44
S'User who presently has the file open'
p1742
stRp1743
ag3
(g4
g5
(dp1744
g14
S''
sg40
S'action'
p1745
sg18
S''
sg42
S'Action'
p1746
sg19
S''
sg15
g1745
sg28
Nsg44
S'Action file is open for: add, edit, delete, branch,\n\t\t    integrate, or import'
p1747
stRp1748
ag3
(g4
g5
(dp1749
g14
S''
sg40
S'isLocked'
p1750
sg18
S''
sg42
S'Int'
p1751
sg19
S''
sg15
g1750
sg28
Nsg44
S'Flag: 0 for unlocked, 1 for locked'
p1752
stRp1753
ag3
(g4
g5
(dp1754
g14
S''
sg40
S'change'
p1755
sg18
S''
sg42
S'Int'
p1756
sg19
S''
sg15
g1755
sg28
Nsg44
S'Changelist in which the revision is open: 0 for the\n\t\t    default changelist'
p1757
stRp1758
atRp1759
sg98
g1717
sg99
S'2'
sg100
g101
sg44
S'Locked/Unlocked files'
p1760
sg42
S'Locks'
p1761
sg104
S'18'
p1762
sg40
S'db.locks'
p1763
stRp1764
sS'revhx'
p1765
g3
(g4
g5
(dp1766
g7
S'depotFile'
p1767
sg9
g3
(g10
g11
(lp1768
g3
(g4
g5
(dp1769
g14
S''
sg15
g16
sg17
g16
sg18
S''
sg19
S''
sg20
g21
sg22
g23
stRp1770
ag3
(g4
g5
(dp1771
g14
S''
sg17
g26
sg18
S''
sg20
g27
sg19
S''
sg15
g26
sg28
Nsg22
g29
stRp1772
ag3
(g4
g5
(dp1773
g14
S''
sg17
g32
sg18
S''
sg20
g21
sg19
S''
sg15
g32
sg28
Nsg22
g33
stRp1774
ag3
(g4
g5
(dp1775
g14
S''
sg17
g36
sg18
S''
sg20
g27
sg19
S''
sg15
g36
sg28
Nsg22
g37
stRp1776
ag3
(g4
g5
(dp1777
g14
S''
sg40
g120
sg18
S''
sg42
g121
sg19
S''
sg15
g120
sg28
Nsg44
g122
stRp1778
ag3
(g4
g5
(dp1779
g14
S''
sg40
g125
sg18
S''
sg42
g126
sg19
S''
sg15
g125
sg28
Nsg44
g127
stRp1780
ag3
(g4
g5
(dp1781
g14
S''
sg40
g130
sg18
S''
sg42
g131
sg19
S''
sg15
g130
sg28
Nsg44
g132
stRp1782
ag3
(g4
g5
(dp1783
g14
S''
sg40
g135
sg18
S''
sg42
g136
sg19
S''
sg15
g135
sg28
Nsg44
g137
stRp1784
ag3
(g4
g5
(dp1785
g14
S''
sg40
g140
sg18
S''
sg42
g141
sg19
S''
sg15
g140
sg28
Nsg44
g142
stRp1786
ag3
(g4
g5
(dp1787
g14
S''
sg40
g145
sg18
S''
sg42
g146
sg19
S''
sg15
g145
sg28
Nsg44
g147
stRp1788
ag3
(g4
g5
(dp1789
g14
S''
sg40
g150
sg18
S''
sg42
g151
sg19
S''
sg15
g150
sg28
Nsg44
g152
stRp1790
ag3
(g4
g5
(dp1791
g14
S''
sg40
g155
sg18
S''
sg42
g156
sg19
S''
sg15
g155
sg28
Nsg44
g157
stRp1792
ag3
(g4
g5
(dp1793
g14
S''
sg40
g160
sg18
S''
sg42
g161
sg19
S''
sg15
g160
sg28
Nsg44
g162
stRp1794
ag3
(g4
g5
(dp1795
g14
S''
sg40
g165
sg18
S''
sg42
g166
sg19
S''
sg15
g165
sg28
Nsg44
g167
stRp1796
ag3
(g4
g5
(dp1797
g14
S''
sg40
g170
sg18
S''
sg42
g171
sg19
S''
sg15
g170
sg28
Nsg44
g172
stRp1798
ag3
(g4
g5
(dp1799
g14
S''
sg40
g175
sg18
S''
sg42
g176
sg19
S''
sg15
g175
sg28
Nsg44
g177
stRp1800
ag3
(g4
g5
(dp1801
g14
S''
sg40
g180
sg18
S''
sg42
g181
sg19
S''
sg15
g180
sg28
Nsg44
g182
stRp1802
ag3
(g4
g5
(dp1803
g14
S''
sg40
g185
sg18
S''
sg42
g186
sg19
S''
sg15
g185
sg28
Nsg44
g187
stRp1804
atRp1805
sg98
g1765
sg99
S'9'
sg100
g101
sg44
S'Revision records for revisions NOT deleted at the head revision.'
p1806
sg42
S'Rev'
p1807
sg104
S'24'
p1808
sg40
S'db.revhx'
p1809
stRp1810
sS'integ'
p1811
g3
(g4
g5
(dp1812
g7
S'toFile, fromFile, startFromRev'
p1813
sg9
g3
(g10
g11
(lp1814
g3
(g4
g5
(dp1815
g14
S''
sg15
g16
sg17
g16
sg18
S''
sg19
S''
sg20
g21
sg22
g23
stRp1816
ag3
(g4
g5
(dp1817
g14
S''
sg17
g26
sg18
S''
sg20
g27
sg19
S''
sg15
g26
sg28
Nsg22
g29
stRp1818
ag3
(g4
g5
(dp1819
g14
S''
sg17
g32
sg18
S''
sg20
g21
sg19
S''
sg15
g32
sg28
Nsg22
g33
stRp1820
ag3
(g4
g5
(dp1821
g14
S''
sg17
g36
sg18
S''
sg20
g27
sg19
S''
sg15
g36
sg28
Nsg22
g37
stRp1822
ag3
(g4
g5
(dp1823
g14
S''
sg40
S'toFile'
p1824
sg18
S''
sg42
S'File'
p1825
sg19
S''
sg15
g1824
sg28
Nsg44
S'File to which integration is being performed (target).'
p1826
stRp1827
ag3
(g4
g5
(dp1828
g14
S''
sg40
S'fromFile'
p1829
sg18
S''
sg42
S'File'
p1830
sg19
S''
sg15
g1829
sg28
Nsg44
S'File from which integration is being performed (source).'
p1831
stRp1832
ag3
(g4
g5
(dp1833
g14
S''
sg40
S'startFromRev'
p1834
sg18
S''
sg42
S'Rev'
p1835
sg19
S''
sg15
g1834
sg28
Nsg44
S'Starting revision of fromFile'
p1836
stRp1837
ag3
(g4
g5
(dp1838
g14
S''
sg40
S'endFromRev'
p1839
sg18
S''
sg42
S'Rev'
p1840
sg19
S''
sg15
g1839
sg28
Nsg44
S'Ending revision of fromFile. If integrating from a single \n\t\t    revision (not a revision range), the startFromRev and \n\t\t    endFromRev fields will be identical.'
p1841
stRp1842
ag3
(g4
g5
(dp1843
g14
S''
sg40
S'toRev'
p1844
sg18
S''
sg42
S'Rev'
p1845
sg19
S''
sg15
g1844
sg28
Nsg44
S'Revision of toFile into which integration is being \n\t\t    performed.'
p1846
stRp1847
ag3
(g4
g5
(dp1848
g14
S''
sg40
S'how'
p1849
sg18
S''
sg42
S'IntegHow'
p1850
sg19
S''
sg15
g1849
sg28
Nsg44
S'Integration method: variations on \n\t\t    merge/branch/copy/ignore/delete.'
p1851
stRp1852
ag3
(g4
g5
(dp1853
g14
S''
sg40
S'committed'
p1854
sg18
S''
sg42
S'Int'
p1855
sg19
S''
sg15
g1854
sg28
Nsg44
S'Flag: 0 for pending, 1 for committed.'
p1856
stRp1857
ag3
(g4
g5
(dp1858
g14
S''
sg40
S'resolved'
p1859
sg18
S''
sg42
S'ResolvedStatus'
p1860
sg19
S''
sg15
g1859
sg28
Nsg44
S'Resolution method: unresolved, resolved manually, \n\t\t    or resolved as part of a branch or delete.'
p1861
stRp1862
ag3
(g4
g5
(dp1863
g14
S''
sg40
S'change'
p1864
sg18
S''
sg42
S'Change'
p1865
sg19
S''
sg15
g1864
sg28
Nsg44
S'Changelist associated with the integration.'
p1866
stRp1867
atRp1868
sg98
g1811
sg40
S'db.integ'
p1869
sg99
S'0'
sg100
g101
sg972
g3
(g10
g11
(lp1870
S'db.integed'
p1871
aS'db.resolve'
p1872
atRp1873
sg42
S'Integ'
p1874
sg104
S'12'
p1875
sg44
S'Integration records: obsolete since 2001.1'
p1876
stRp1877
sS'ixdate'
p1878
g3
(g4
g5
(dp1879
g7
S'date, attr, value'
p1880
sg9
g3
(g10
g11
(lp1881
g3
(g4
g5
(dp1882
g14
S''
sg15
g16
sg17
g16
sg18
S''
sg19
S''
sg20
g21
sg22
g23
stRp1883
ag3
(g4
g5
(dp1884
g14
S''
sg17
g26
sg18
S''
sg20
g27
sg19
S''
sg15
g26
sg28
Nsg22
g29
stRp1885
ag3
(g4
g5
(dp1886
g14
S''
sg17
g32
sg18
S''
sg20
g21
sg19
S''
sg15
g32
sg28
Nsg22
g33
stRp1887
ag3
(g4
g5
(dp1888
g14
S''
sg17
g36
sg18
S''
sg20
g27
sg19
S''
sg15
g36
sg28
Nsg22
g37
stRp1889
ag3
(g4
g5
(dp1890
g14
S''
sg40
S'date'
p1891
sg18
S''
sg42
S'Date'
p1892
sg19
S''
sg15
g1891
sg28
Nsg44
S'Date value'
p1893
stRp1894
ag3
(g4
g5
(dp1895
g14
S''
sg40
S'attr'
p1896
sg18
S''
sg42
S'Int'
p1897
sg19
S''
sg15
g1896
sg28
Nsg44
S'The attribute number (from the jobspec) to which this\n\t\t    date belongs'
p1898
stRp1899
ag3
(g4
g5
(dp1900
g14
S''
sg40
S'value'
p1901
sg18
S''
sg42
S'String'
p1902
sg19
S''
sg15
g1901
sg28
Nsg44
S'A job name'
p1903
stRp1904
atRp1905
sg98
g1878
sg40
S'db.ixdate'
p1906
sg190
S'Obsoleted in 2009.2'
p1907
sg99
S'0'
sg100
g101
sg972
S'db.ixtext'
p1908
sg42
S'IndexDate'
p1909
sg104
S'43'
p1910
sg44
S'Indexing data for date-valued job attributes'
p1911
stRp1912
sS'bodtext'
p1913
g3
(g4
g5
(dp1914
g7
S'key, attr'
p1915
sg9
g3
(g10
g11
(lp1916
g3
(g4
g5
(dp1917
g14
S''
sg15
g16
sg17
g16
sg18
S''
sg19
S''
sg20
g21
sg22
g23
stRp1918
ag3
(g4
g5
(dp1919
g14
S''
sg17
g26
sg18
S''
sg20
g27
sg19
S''
sg15
g26
sg28
Nsg22
g29
stRp1920
ag3
(g4
g5
(dp1921
g14
S''
sg17
g32
sg18
S''
sg20
g21
sg19
S''
sg15
g32
sg28
Nsg22
g33
stRp1922
ag3
(g4
g5
(dp1923
g14
S''
sg17
g36
sg18
S''
sg20
g27
sg19
S''
sg15
g36
sg28
Nsg22
g37
stRp1924
ag3
(g4
g5
(dp1925
g14
S''
sg40
S'key'
p1926
sg18
S''
sg42
S'String'
p1927
sg19
S''
sg15
g1926
sg28
Nsg44
S'The job to which this attribute belongs'
p1928
stRp1929
ag3
(g4
g5
(dp1930
g14
S''
sg40
S'attr'
p1931
sg18
S''
sg42
S'Int'
p1932
sg19
S''
sg15
g1931
sg28
Nsg44
S'The attribute number (from the jobspec) of this attribute'
p1933
stRp1934
ag3
(g4
g5
(dp1935
g14
S''
sg40
S'isBulk'
p1936
sg18
S''
sg42
S'Int'
p1937
sg19
S''
sg15
g1936
sg28
Nsg44
S'Indicates whether (1), or not (0) the field is a bulk\n\t\t    text field that should not be indexed.'
p1938
stRp1939
ag3
(g4
g5
(dp1940
g14
S''
sg40
S'text'
p1941
sg18
S''
sg42
S'Text'
p1942
sg19
S''
sg15
g1941
sg28
Nsg44
S'The attribute value'
p1943
stRp1944
atRp1945
sg98
g1913
sg99
S'1'
sg100
g101
sg44
S'Job data for job attributes.'
p1946
sg42
S'BodyText'
p1947
sg104
S'42'
p1948
sg40
S'db.bodtext'
p1949
stRp1950
sS'revcx'
p1951
g3
(g4
g5
(dp1952
g7
S'change, depotFile'
p1953
sg9
g3
(g10
g11
(lp1954
g3
(g4
g5
(dp1955
g14
S''
sg15
g16
sg17
g16
sg18
S''
sg19
S''
sg20
g21
sg22
g23
stRp1956
ag3
(g4
g5
(dp1957
g14
S''
sg17
g26
sg18
S''
sg20
g27
sg19
S''
sg15
g26
sg28
Nsg22
g29
stRp1958
ag3
(g4
g5
(dp1959
g14
S''
sg17
g32
sg18
S''
sg20
g21
sg19
S''
sg15
g32
sg28
Nsg22
g33
stRp1960
ag3
(g4
g5
(dp1961
g14
S''
sg17
g36
sg18
S''
sg20
g27
sg19
S''
sg15
g36
sg28
Nsg22
g37
stRp1962
ag3
(g4
g5
(dp1963
g14
S''
sg40
S'change'
p1964
sg18
S''
sg42
S'Change'
p1965
sg19
S''
sg15
g1964
sg28
Nsg44
S'The changelist that created the revision'
p1966
stRp1967
ag3
(g4
g5
(dp1968
g14
S''
sg40
S'depotFile'
p1969
sg18
S''
sg42
S'File'
p1970
sg19
S''
sg15
g1969
sg28
Nsg44
S'The file name'
p1971
stRp1972
ag3
(g4
g5
(dp1973
g14
S''
sg40
S'depotRev'
p1974
sg18
S''
sg42
S'Rev'
p1975
sg19
S''
sg15
g1974
sg28
Nsg44
S'The revision number'
p1976
stRp1977
ag3
(g4
g5
(dp1978
g14
S''
sg40
S'action'
p1979
sg18
S''
sg42
S'Action'
p1980
sg19
S''
sg15
g1979
sg28
Nsg44
S'The action that created the revision'
p1981
stRp1982
atRp1983
sg98
g1951
sg99
S'0'
sg100
g101
sg44
S'Secondary index of db.rev'
p1984
sg42
S'RevCx'
p1985
sg104
S'22'
p1986
sg40
S'db.revcx'
p1987
stRp1988
sS'boddate'
p1989
g3
(g4
g5
(dp1990
g7
S'key, attr'
p1991
sg9
g3
(g10
g11
(lp1992
g3
(g4
g5
(dp1993
g14
S''
sg15
g16
sg17
g16
sg18
S''
sg19
S''
sg20
g21
sg22
g23
stRp1994
ag3
(g4
g5
(dp1995
g14
S''
sg17
g26
sg18
S''
sg20
g27
sg19
S''
sg15
g26
sg28
Nsg22
g29
stRp1996
ag3
(g4
g5
(dp1997
g14
S''
sg17
g32
sg18
S''
sg20
g21
sg19
S''
sg15
g32
sg28
Nsg22
g33
stRp1998
ag3
(g4
g5
(dp1999
g14
S''
sg17
g36
sg18
S''
sg20
g27
sg19
S''
sg15
g36
sg28
Nsg22
g37
stRp2000
ag3
(g4
g5
(dp2001
g14
S''
sg40
S'key'
p2002
sg18
S''
sg42
S'String'
p2003
sg19
S''
sg15
g2002
sg28
Nsg44
S'The job to which this attribute belongs'
p2004
stRp2005
ag3
(g4
g5
(dp2006
g14
S''
sg40
S'attr'
p2007
sg18
S''
sg42
S'Int'
p2008
sg19
S''
sg15
g2007
sg28
Nsg44
S'The attribute number (from the jobspec) of this attribute'
p2009
stRp2010
ag3
(g4
g5
(dp2011
g14
S''
sg40
S'date'
p2012
sg18
S''
sg42
S'Date'
p2013
sg19
S''
sg15
g2012
sg28
Nsg44
S'The date value itself'
p2014
stRp2015
atRp2016
sg98
g1989
sg190
S'Obsoleted in 2009.2'
p2017
sg99
S'0'
sg100
g101
sg44
S'Job data for date-valued attributes: obsolete since 2009.2'
p2018
sg42
S'BodyDate'
p2019
sg104
S'41'
p2020
sg40
S'db.boddate'
p2021
stRp2022
sS'fix'
p2023
g3
(g4
g5
(dp2024
g7
S'job, change'
p2025
sg9
g3
(g10
g11
(lp2026
g3
(g4
g5
(dp2027
g14
S''
sg15
g16
sg17
g16
sg18
S''
sg19
S''
sg20
g21
sg22
g23
stRp2028
ag3
(g4
g5
(dp2029
g14
S''
sg17
g26
sg18
S''
sg20
g27
sg19
S''
sg15
g26
sg28
Nsg22
g29
stRp2030
ag3
(g4
g5
(dp2031
g14
S''
sg17
g32
sg18
S''
sg20
g21
sg19
S''
sg15
g32
sg28
Nsg22
g33
stRp2032
ag3
(g4
g5
(dp2033
g14
S''
sg17
g36
sg18
S''
sg20
g27
sg19
S''
sg15
g36
sg28
Nsg22
g37
stRp2034
ag3
(g4
g5
(dp2035
g14
S''
sg40
g941
sg18
S''
sg42
g942
sg19
S''
sg15
g941
sg28
Nsg44
g943
stRp2036
ag3
(g4
g5
(dp2037
g14
S''
sg40
g946
sg18
S''
sg42
g947
sg19
S''
sg15
g946
sg28
Nsg44
g948
stRp2038
ag3
(g4
g5
(dp2039
g14
S''
sg40
g951
sg18
S''
sg42
g952
sg19
S''
sg15
g951
sg28
Nsg44
g953
stRp2040
ag3
(g4
g5
(dp2041
g14
S''
sg40
g956
sg18
S''
sg42
g957
sg19
S''
sg15
g956
sg28
Nsg44
g958
stRp2042
ag3
(g4
g5
(dp2043
g14
S''
sg40
g961
sg18
S''
sg42
g962
sg19
S''
sg15
g961
sg28
Nsg44
g963
stRp2044
ag3
(g4
g5
(dp2045
g14
S''
sg40
g966
sg18
S''
sg42
g967
sg19
S''
sg15
g966
sg28
Nsg44
g968
stRp2046
atRp2047
sg98
g2023
sg40
S'db.fix'
p2048
sg99
S'1'
sg100
g101
sg972
S'db.fixrev'
p2049
sg42
S'Fix'
p2050
sg104
S'39'
p2051
sg44
S'Fix records - indexed by job'
p2052
stRp2053
sS'view'
p2054
g3
(g4
g5
(dp2055
g7
S'name, seq'
p2056
sg9
g3
(g10
g11
(lp2057
g3
(g4
g5
(dp2058
g14
S''
sg15
g16
sg17
g16
sg18
S''
sg19
S''
sg20
g21
sg22
g23
stRp2059
ag3
(g4
g5
(dp2060
g14
S''
sg17
g26
sg18
S''
sg20
g27
sg19
S''
sg15
g26
sg28
Nsg22
g29
stRp2061
ag3
(g4
g5
(dp2062
g14
S''
sg17
g32
sg18
S''
sg20
g21
sg19
S''
sg15
g32
sg28
Nsg22
g33
stRp2063
ag3
(g4
g5
(dp2064
g14
S''
sg17
g36
sg18
S''
sg20
g27
sg19
S''
sg15
g36
sg28
Nsg22
g37
stRp2065
ag3
(g4
g5
(dp2066
g14
S''
sg40
S'name'
p2067
sg18
S''
sg42
S'Domain'
p2068
sg19
S''
sg15
g2067
sg28
Nsg44
S'Domain name to which this view applies'
p2069
stRp2070
ag3
(g4
g5
(dp2071
g14
S''
sg40
S'seq'
p2072
sg18
S''
sg42
S'Int'
p2073
sg19
S''
sg15
g2072
sg28
Nsg44
S'Sequence number: for ordering multi-line views'
p2074
stRp2075
ag3
(g4
g5
(dp2076
g14
S''
sg40
S'mapFlag'
p2077
sg18
S''
sg42
S'MapFlag'
p2078
sg19
S''
sg15
g2077
sg28
Nsg44
S'Type of mapping'
p2079
stRp2080
ag3
(g4
g5
(dp2081
g14
S''
sg40
S'viewFile'
p2082
sg18
S''
sg42
S'Mapping'
p2083
sg19
S''
sg15
g2082
sg28
Nsg44
S"The right-hand-side of the view. For clients, this is\n\t\t    the client-side, for labels it's the generated label \n\t\t    view. For branches, it's the target side of the branch\n\t\t    view."
p2084
stRp2085
ag3
(g4
g5
(dp2086
g14
S''
sg40
S'depotFile'
p2087
sg18
S''
sg42
S'Mapping'
p2088
sg19
S''
sg15
g2087
sg28
Nsg44
S'The left-hand-side of the view - a mapping to file(s)\n\t\t    in the depot.'
p2089
stRp2090
atRp2091
sg98
g2054
sg99
S'1'
sg100
g101
sg44
S'Contains views for domains'
p2092
sg42
S'View'
p2093
sg104
S'10'
p2094
sg40
S'db.view'
p2095
stRp2096
s.