(dp1
S'svrview'
p2
ccopy_reg
_reconstructor
p3
(clib.sqUtils
Storage
p4
c__builtin__
dict
p5
(dp6
S'keying'
p7
S'id, type, seq'
p8
sS'fields'
p9
g3
(clib.sqUtils
Lst
p10
c__builtin__
list
p11
(lp12
g3
(g4
g5
(dp13
S'comment'
p14
S''
sS'fieldname'
p15
S'id'
p16
sS'name'
p17
g16
sS'default'
p18
S''
sS'label'
p19
S''
sS'type'
p20
S'integer'
p21
sS'desc'
p22
S'Record number as read in'
p23
stRp24
ag3
(g4
g5
(dp25
g14
S''
sg17
S'db_action'
p26
sg18
S''
sg20
S'string'
p27
sg19
S''
sg15
g26
sS'requires'
p28
Nsg22
S'Operation on table'
p29
stRp30
ag3
(g4
g5
(dp31
g14
S''
sg17
S'table_revision'
p32
sg18
S''
sg20
g21
sg19
S''
sg15
g32
sg28
Nsg22
S'Revision of the p4 schema table'
p33
stRp34
ag3
(g4
g5
(dp35
g14
S''
sg17
S'table_name'
p36
sg18
S''
sg20
g27
sg19
S''
sg15
g36
sg28
Nsg22
S'Redundant... but this is the table name'
p37
stRp38
ag3
(g4
g5
(dp39
g14
S''
sS'name'
p40
S'id'
p41
sg18
S''
sS'type'
p42
S'Key'
p43
sg19
S''
sg15
g41
sg28
NsS'desc'
p44
S'Server name'
p45
stRp46
ag3
(g4
g5
(dp47
g14
S''
sg40
S'type'
p48
sg18
S''
sg42
S'SvrViewType'
p49
sg19
S''
sg15
g48
sg28
Nsg44
S'View type'
p50
stRp51
ag3
(g4
g5
(dp52
g14
S''
sg40
S'seq'
p53
sg18
S''
sg42
S'Int'
p54
sg19
S''
sg15
g53
sg28
Nsg44
S'Sequence (line) number'
p55
stRp56
ag3
(g4
g5
(dp57
g14
S''
sg40
S'mapFlag'
p58
sg18
S''
sg42
S'MapFlag'
p59
sg19
S''
sg15
g58
sg28
Nsg44
S'Type of mapping'
p60
stRp61
ag3
(g4
g5
(dp62
g14
S''
sg40
S'viewFile'
p63
sg18
S''
sg42
S'Mapping'
p64
sg19
S''
sg15
g63
sg28
Nsg44
S'View file'
p65
stRp66
atRp67
sS'tablename'
p68
g2
sS'version'
p69
S'0'
sS'schemaversion'
p70
S'2020.1'
p71
sg44
S'View data for servers specifications'
p72
sg42
S'SvrView'
p73
sS'lockseq'
p74
S'10'
p75
sg40
S'db.svrview'
p76
stRp77
sS'rev'
p78
g3
(g4
g5
(dp79
g7
S'depotFile, depotRev'
p80
sg9
g3
(g10
g11
(lp81
g3
(g4
g5
(dp82
g14
S''
sg15
g16
sg17
g16
sg18
S''
sg19
S''
sg20
g21
sg22
g23
stRp83
ag3
(g4
g5
(dp84
g14
S''
sg17
g26
sg18
S''
sg20
g27
sg19
S''
sg15
g26
sg28
Nsg22
g29
stRp85
ag3
(g4
g5
(dp86
g14
S''
sg17
g32
sg18
S''
sg20
g21
sg19
S''
sg15
g32
sg28
Nsg22
g33
stRp87
ag3
(g4
g5
(dp88
g14
S''
sg17
g36
sg18
S''
sg20
g27
sg19
S''
sg15
g36
sg28
Nsg22
g37
stRp89
ag3
(g4
g5
(dp90
g14
S''
sg40
S'depotFile'
p91
sg18
S''
sg42
S'File'
p92
sg19
S''
sg15
g91
sg28
Nsg44
S'The file name'
p93
stRp94
ag3
(g4
g5
(dp95
g14
S''
sg40
S'depotRev'
p96
sg18
S''
sg42
S'Rev'
p97
sg19
S''
sg15
g96
sg28
Nsg44
S'The revision number'
p98
stRp99
ag3
(g4
g5
(dp100
g14
S''
sg40
S'type'
p101
sg18
S''
sg42
S'FileType'
p102
sg19
S''
sg15
g101
sg28
Nsg44
S'The file type of the revision'
p103
stRp104
ag3
(g4
g5
(dp105
g14
S''
sg40
S'action'
p106
sg18
S''
sg42
S'Action'
p107
sg19
S''
sg15
g106
sg28
Nsg44
S'The action that created the revision'
p108
stRp109
ag3
(g4
g5
(dp110
g14
S''
sg40
S'change'
p111
sg18
S''
sg42
S'Change'
p112
sg19
S''
sg15
g111
sg28
Nsg44
S'The changelist that created the revision'
p113
stRp114
ag3
(g4
g5
(dp115
g14
S''
sg40
S'date'
p116
sg18
S''
sg42
S'Date'
p117
sg19
S''
sg15
g116
sg28
Nsg44
S'The date/time the changelist that created the revision\n\t\t    was submitted'
p118
stRp119
ag3
(g4
g5
(dp120
g14
S''
sg40
S'modTime'
p121
sg18
S''
sg42
S'Date'
p122
sg19
S''
sg15
g121
sg28
Nsg44
S"The timestamp on the file in the user's workspace when\n\t\t    the revision was submitted."
p123
stRp124
ag3
(g4
g5
(dp125
g14
S''
sg40
S'digest'
p126
sg18
S''
sg42
S'Digest'
p127
sg19
S''
sg15
g126
sg28
Nsg44
S'The MD5 digest of the revision.'
p128
stRp129
ag3
(g4
g5
(dp130
g14
S''
sg40
S'size'
p131
sg18
S''
sg42
S'FileSize'
p132
sg19
S''
sg15
g131
sg28
Nsg44
S'The size of the file in bytes'
p133
stRp134
ag3
(g4
g5
(dp135
g14
S''
sg40
S'traitLot'
p136
sg18
S''
sg42
S'TraitLot'
p137
sg19
S''
sg15
g136
sg28
Nsg44
S'Group of traits (attributes) associated with the revision.'
p138
stRp139
ag3
(g4
g5
(dp140
g14
S''
sg40
S'lbrIsLazy'
p141
sg18
S''
sg42
S'RevStatus'
p142
sg19
S''
sg15
g141
sg28
Nsg44
S'Specifies whether or not the revision gets its content from \n\t  \t    another file (lazy copy), data about promotion of revision\n\t \t    content from task streams, and data about revision charset \n            information.'
p143
stRp144
ag3
(g4
g5
(dp145
g14
S''
sg40
S'lbrFile'
p146
sg18
S''
sg42
S'File'
p147
sg19
S''
sg15
g146
sg28
Nsg44
S"Filename for librarian's purposes.  Specifies location in \n\t\t    the archives where the file containing the revision may\n\t\t    be found. Usually the same as depotFile, but differs in\n\t\t    the case of branched/copied revisions."
p148
stRp149
ag3
(g4
g5
(dp150
g14
S''
sg40
S'lbrRev'
p151
sg18
S''
sg42
S'String'
p152
sg19
S''
sg15
g151
sg28
Nsg44
S'The revision of lbrFile that contains the revision content.'
p153
stRp154
ag3
(g4
g5
(dp155
g14
S''
sg40
S'lbrType'
p156
sg18
S''
sg42
S'FileType'
p157
sg19
S''
sg15
g156
sg28
Nsg44
S'The file type of the librarian revision. Usually the same\n\t\t    as type, but differs in the case of branched/copied \n\t\t    revisions.'
p158
stRp159
atRp160
sg68
g78
sg69
S'9'
sg70
g71
sg44
S'Revision records'
p161
sg42
S'Rev'
p162
sg74
S'57'
p163
sg40
S'db.rev'
p164
stRp165
sS'revpx'
p166
g3
(g4
g5
(dp167
g7
S'depotFile, depotRev'
p168
sg9
g3
(g10
g11
(lp169
g3
(g4
g5
(dp170
g14
S''
sg15
g16
sg17
g16
sg18
S''
sg19
S''
sg20
g21
sg22
g23
stRp171
ag3
(g4
g5
(dp172
g14
S''
sg17
g26
sg18
S''
sg20
g27
sg19
S''
sg15
g26
sg28
Nsg22
g29
stRp173
ag3
(g4
g5
(dp174
g14
S''
sg17
g32
sg18
S''
sg20
g21
sg19
S''
sg15
g32
sg28
Nsg22
g33
stRp175
ag3
(g4
g5
(dp176
g14
S''
sg17
g36
sg18
S''
sg20
g27
sg19
S''
sg15
g36
sg28
Nsg22
g37
stRp177
ag3
(g4
g5
(dp178
g14
S''
sg40
g91
sg18
S''
sg42
g92
sg19
S''
sg15
g91
sg28
Nsg44
g93
stRp179
ag3
(g4
g5
(dp180
g14
S''
sg40
g96
sg18
S''
sg42
g97
sg19
S''
sg15
g96
sg28
Nsg44
g98
stRp181
ag3
(g4
g5
(dp182
g14
S''
sg40
g101
sg18
S''
sg42
g102
sg19
S''
sg15
g101
sg28
Nsg44
g103
stRp183
ag3
(g4
g5
(dp184
g14
S''
sg40
g106
sg18
S''
sg42
g107
sg19
S''
sg15
g106
sg28
Nsg44
g108
stRp185
ag3
(g4
g5
(dp186
g14
S''
sg40
g111
sg18
S''
sg42
g112
sg19
S''
sg15
g111
sg28
Nsg44
g113
stRp187
ag3
(g4
g5
(dp188
g14
S''
sg40
g116
sg18
S''
sg42
g117
sg19
S''
sg15
g116
sg28
Nsg44
g118
stRp189
ag3
(g4
g5
(dp190
g14
S''
sg40
g121
sg18
S''
sg42
g122
sg19
S''
sg15
g121
sg28
Nsg44
g123
stRp191
ag3
(g4
g5
(dp192
g14
S''
sg40
g126
sg18
S''
sg42
g127
sg19
S''
sg15
g126
sg28
Nsg44
g128
stRp193
ag3
(g4
g5
(dp194
g14
S''
sg40
g131
sg18
S''
sg42
g132
sg19
S''
sg15
g131
sg28
Nsg44
g133
stRp195
ag3
(g4
g5
(dp196
g14
S''
sg40
g136
sg18
S''
sg42
g137
sg19
S''
sg15
g136
sg28
Nsg44
g138
stRp197
ag3
(g4
g5
(dp198
g14
S''
sg40
g141
sg18
S''
sg42
g142
sg19
S''
sg15
g141
sg28
Nsg44
g143
stRp199
ag3
(g4
g5
(dp200
g14
S''
sg40
g146
sg18
S''
sg42
g147
sg19
S''
sg15
g146
sg28
Nsg44
g148
stRp201
ag3
(g4
g5
(dp202
g14
S''
sg40
g151
sg18
S''
sg42
g152
sg19
S''
sg15
g151
sg28
Nsg44
g153
stRp203
ag3
(g4
g5
(dp204
g14
S''
sg40
g156
sg18
S''
sg42
g157
sg19
S''
sg15
g156
sg28
Nsg44
g158
stRp205
atRp206
sg68
g166
sS'note'
p207
S'Only populated during content trigger execution to allow\n\t\t\ttriggers access to the revisions being submitted.'
p208
sg69
S'9'
sg70
g71
sg44
S'Pending revision records'
p209
sg42
S'Rev'
p210
sg74
S'51'
p211
sg40
S'db.revpx'
p212
stRp213
sS'bodtextcx'
p214
g3
(g4
g5
(dp215
g7
S'type, key, change, attr'
p216
sg9
g3
(g10
g11
(lp217
g3
(g4
g5
(dp218
g14
S''
sg15
g16
sg17
g16
sg18
S''
sg19
S''
sg20
g21
sg22
g23
stRp219
ag3
(g4
g5
(dp220
g14
S''
sg17
g26
sg18
S''
sg20
g27
sg19
S''
sg15
g26
sg28
Nsg22
g29
stRp221
ag3
(g4
g5
(dp222
g14
S''
sg17
g32
sg18
S''
sg20
g21
sg19
S''
sg15
g32
sg28
Nsg22
g33
stRp223
ag3
(g4
g5
(dp224
g14
S''
sg17
g36
sg18
S''
sg20
g27
sg19
S''
sg15
g36
sg28
Nsg22
g37
stRp225
ag3
(g4
g5
(dp226
g14
S''
sg40
S'type'
p227
sg18
S''
sg42
S'Int'
p228
sg19
S''
sg15
g227
sg28
Nsg44
S'The type of spec'
p229
stRp230
ag3
(g4
g5
(dp231
g14
S''
sg40
S'key'
p232
sg18
S''
sg42
S'Key'
p233
sg19
S''
sg15
g232
sg28
Nsg44
S'The spec to which this attribute belongs'
p234
stRp235
ag3
(g4
g5
(dp236
g14
S''
sg40
S'change'
p237
sg18
S''
sg42
S'Change'
p238
sg19
S''
sg15
g237
sg28
Nsg44
S'The change to which this attribute belongs'
p239
stRp240
ag3
(g4
g5
(dp241
g14
S''
sg40
S'attr'
p242
sg18
S''
sg42
S'Int'
p243
sg19
S''
sg15
g242
sg28
Nsg44
S'The attribute number of this attribute'
p244
stRp245
ag3
(g4
g5
(dp246
g14
S''
sg40
S'text'
p247
sg18
S''
sg42
S'Text'
p248
sg19
S''
sg15
g247
sg28
Nsg44
S'The attribute value'
p249
stRp250
atRp251
sg68
g214
sg69
S'0'
sg70
g71
sg44
S'Versioned openable spec fields'
p252
sg42
S'BodyTextCx'
p253
sg74
S'92'
p254
sg40
S'db.bodtextcx'
p255
stRp256
sS'revtx'
p257
g3
(g4
g5
(dp258
g7
S'depotFile, depotRev'
p259
sg9
g3
(g10
g11
(lp260
g3
(g4
g5
(dp261
g14
S''
sg15
g16
sg17
g16
sg18
S''
sg19
S''
sg20
g21
sg22
g23
stRp262
ag3
(g4
g5
(dp263
g14
S''
sg17
g26
sg18
S''
sg20
g27
sg19
S''
sg15
g26
sg28
Nsg22
g29
stRp264
ag3
(g4
g5
(dp265
g14
S''
sg17
g32
sg18
S''
sg20
g21
sg19
S''
sg15
g32
sg28
Nsg22
g33
stRp266
ag3
(g4
g5
(dp267
g14
S''
sg17
g36
sg18
S''
sg20
g27
sg19
S''
sg15
g36
sg28
Nsg22
g37
stRp268
ag3
(g4
g5
(dp269
g14
S''
sg40
g91
sg18
S''
sg42
g92
sg19
S''
sg15
g91
sg28
Nsg44
g93
stRp270
ag3
(g4
g5
(dp271
g14
S''
sg40
g96
sg18
S''
sg42
g97
sg19
S''
sg15
g96
sg28
Nsg44
g98
stRp272
ag3
(g4
g5
(dp273
g14
S''
sg40
g101
sg18
S''
sg42
g102
sg19
S''
sg15
g101
sg28
Nsg44
g103
stRp274
ag3
(g4
g5
(dp275
g14
S''
sg40
g106
sg18
S''
sg42
g107
sg19
S''
sg15
g106
sg28
Nsg44
g108
stRp276
ag3
(g4
g5
(dp277
g14
S''
sg40
g111
sg18
S''
sg42
g112
sg19
S''
sg15
g111
sg28
Nsg44
g113
stRp278
ag3
(g4
g5
(dp279
g14
S''
sg40
g116
sg18
S''
sg42
g117
sg19
S''
sg15
g116
sg28
Nsg44
g118
stRp280
ag3
(g4
g5
(dp281
g14
S''
sg40
g121
sg18
S''
sg42
g122
sg19
S''
sg15
g121
sg28
Nsg44
g123
stRp282
ag3
(g4
g5
(dp283
g14
S''
sg40
g126
sg18
S''
sg42
g127
sg19
S''
sg15
g126
sg28
Nsg44
g128
stRp284
ag3
(g4
g5
(dp285
g14
S''
sg40
g131
sg18
S''
sg42
g132
sg19
S''
sg15
g131
sg28
Nsg44
g133
stRp286
ag3
(g4
g5
(dp287
g14
S''
sg40
g136
sg18
S''
sg42
g137
sg19
S''
sg15
g136
sg28
Nsg44
g138
stRp288
ag3
(g4
g5
(dp289
g14
S''
sg40
g141
sg18
S''
sg42
g142
sg19
S''
sg15
g141
sg28
Nsg44
g143
stRp290
ag3
(g4
g5
(dp291
g14
S''
sg40
g146
sg18
S''
sg42
g147
sg19
S''
sg15
g146
sg28
Nsg44
g148
stRp292
ag3
(g4
g5
(dp293
g14
S''
sg40
g151
sg18
S''
sg42
g152
sg19
S''
sg15
g151
sg28
Nsg44
g153
stRp294
ag3
(g4
g5
(dp295
g14
S''
sg40
g156
sg18
S''
sg42
g157
sg19
S''
sg15
g156
sg28
Nsg44
g158
stRp296
atRp297
sg68
g257
sg69
S'9'
sg70
g71
sg44
S'Task stream revision records'
p298
sg42
S'Rev'
p299
sg74
S'58'
p300
sg40
S'db.revtx'
p301
stRp302
sS'upgrades'
p303
g3
(g4
g5
(dp304
g7
S'seq'
p305
sg9
g3
(g10
g11
(lp306
g3
(g4
g5
(dp307
g14
S''
sg15
g16
sg17
g16
sg18
S''
sg19
S''
sg20
g21
sg22
g23
stRp308
ag3
(g4
g5
(dp309
g14
S''
sg17
g26
sg18
S''
sg20
g27
sg19
S''
sg15
g26
sg28
Nsg22
g29
stRp310
ag3
(g4
g5
(dp311
g14
S''
sg17
g32
sg18
S''
sg20
g21
sg19
S''
sg15
g32
sg28
Nsg22
g33
stRp312
ag3
(g4
g5
(dp313
g14
S''
sg17
g36
sg18
S''
sg20
g27
sg19
S''
sg15
g36
sg28
Nsg22
g37
stRp314
ag3
(g4
g5
(dp315
g14
S''
sg40
S'seq'
p316
sg18
S''
sg42
S'Int'
p317
sg19
S''
sg15
g316
sg28
Nsg44
S'Sequence'
p318
stRp319
ag3
(g4
g5
(dp320
g14
S''
sg40
S'name'
p321
sg18
S''
sg42
S'Text'
p322
sg19
S''
sg15
g321
sg28
Nsg44
S'name of upgrade'
p323
stRp324
ag3
(g4
g5
(dp325
g14
S''
sg40
S'state'
p326
sg18
S''
sg42
S'UpgradeState'
p327
sg19
S''
sg15
g326
sg28
Nsg44
S'current state'
p328
stRp329
ag3
(g4
g5
(dp330
g14
S''
sg40
S'startdate'
p331
sg18
S''
sg42
S'Date'
p332
sg19
S''
sg15
g331
sg28
Nsg44
S'upgrade started'
p333
stRp334
ag3
(g4
g5
(dp335
g14
S''
sg40
S'enddate'
p336
sg18
S''
sg42
S'Date'
p337
sg19
S''
sg15
g336
sg28
Nsg44
S'upgrade ended'
p338
stRp339
ag3
(g4
g5
(dp340
g14
S''
sg40
S'info'
p341
sg18
S''
sg42
S'Text'
p342
sg19
S''
sg15
g341
sg28
Nsg44
S'optional information specific to the upgrade step'
p343
stRp344
atRp345
sg68
g303
sg69
S'0'
sg70
g71
sg44
S'Store server upgrade info'
p346
sg42
S'Upgrades'
p347
sg74
S'6'
sg40
S'db.upgrades'
p348
stRp349
sS'ixtext'
p350
g3
(g4
g5
(dp351
g7
S'word, attr, value'
p352
sg9
g3
(g10
g11
(lp353
g3
(g4
g5
(dp354
g14
S''
sg15
g16
sg17
g16
sg18
S''
sg19
S''
sg20
g21
sg22
g23
stRp355
ag3
(g4
g5
(dp356
g14
S''
sg17
g26
sg18
S''
sg20
g27
sg19
S''
sg15
g26
sg28
Nsg22
g29
stRp357
ag3
(g4
g5
(dp358
g14
S''
sg17
g32
sg18
S''
sg20
g21
sg19
S''
sg15
g32
sg28
Nsg22
g33
stRp359
ag3
(g4
g5
(dp360
g14
S''
sg17
g36
sg18
S''
sg20
g27
sg19
S''
sg15
g36
sg28
Nsg22
g37
stRp361
ag3
(g4
g5
(dp362
g14
S''
sg40
S'word'
p363
sg18
S''
sg42
S'Key'
p364
sg19
S''
sg15
g363
sg28
Nsg44
S'The word being indexed'
p365
stRp366
ag3
(g4
g5
(dp367
g14
S''
sg40
S'attr'
p368
sg18
S''
sg42
S'Int'
p369
sg19
S''
sg15
g368
sg28
Nsg44
S'The attribute number to which this word belongs. For\n\t\t    job data, the attribute number from the jobspec.'
p370
stRp371
ag3
(g4
g5
(dp372
g14
S''
sg40
S'value'
p373
sg18
S''
sg42
S'Key'
p374
sg19
S''
sg15
g373
sg28
Nsg44
S'For job data, a job name. For generic data, the value\n\t\t    of the index keyed by the word.'
p375
stRp376
atRp377
sg68
g350
sg69
S'0'
sg70
g71
sg44
S'Indexing data for generic and job attributes'
p378
sg42
S'IndexText'
p379
sg74
S'97'
p380
sg40
S'db.ixtext'
p381
stRp382
sS'rmtview'
p383
g3
(g4
g5
(dp384
g7
S'id, seq'
p385
sg9
g3
(g10
g11
(lp386
g3
(g4
g5
(dp387
g14
S''
sg15
g16
sg17
g16
sg18
S''
sg19
S''
sg20
g21
sg22
g23
stRp388
ag3
(g4
g5
(dp389
g14
S''
sg17
g26
sg18
S''
sg20
g27
sg19
S''
sg15
g26
sg28
Nsg22
g29
stRp390
ag3
(g4
g5
(dp391
g14
S''
sg17
g32
sg18
S''
sg20
g21
sg19
S''
sg15
g32
sg28
Nsg22
g33
stRp392
ag3
(g4
g5
(dp393
g14
S''
sg17
g36
sg18
S''
sg20
g27
sg19
S''
sg15
g36
sg28
Nsg22
g37
stRp394
ag3
(g4
g5
(dp395
g14
S''
sg40
S'id'
p396
sg18
S''
sg42
S'RemoteID'
p397
sg19
S''
sg15
g396
sg28
Nsg44
S'Remote name'
p398
stRp399
ag3
(g4
g5
(dp400
g14
S''
sg40
S'seq'
p401
sg18
S''
sg42
S'Int'
p402
sg19
S''
sg15
g401
sg28
Nsg44
S'Sequence number: for ordering multi-line views'
p403
stRp404
ag3
(g4
g5
(dp405
g14
S''
sg40
S'mapFlag'
p406
sg18
S''
sg42
S'MapFlag'
p407
sg19
S''
sg15
g406
sg28
Nsg44
S'Type of mapping'
p408
stRp409
ag3
(g4
g5
(dp410
g14
S''
sg40
S'localFile'
p411
sg18
S''
sg42
S'Mapping'
p412
sg19
S''
sg15
g411
sg28
Nsg44
S'Local file'
p413
stRp414
ag3
(g4
g5
(dp415
g14
S''
sg40
S'remoteFile'
p416
sg18
S''
sg42
S'Mapping'
p417
sg19
S''
sg15
g416
sg28
Nsg44
S'Remote file'
p418
stRp419
ag3
(g4
g5
(dp420
g14
S''
sg40
S'retain'
p421
sg18
S''
sg42
S'Int'
p422
sg19
S''
sg15
g421
sg28
Nsg44
S'ArchiveLimits'
p423
stRp424
atRp425
sg68
g383
sg69
S'1'
sg70
g71
sg44
S'View data for remote specifications'
p426
sg42
S'RmtView'
p427
sg74
S'12'
p428
sg40
S'db.rmtview'
p429
stRp430
sS'message'
p431
g3
(g4
g5
(dp432
g7
S'language, id'
p433
sg9
g3
(g10
g11
(lp434
g3
(g4
g5
(dp435
g14
S''
sg15
g16
sg17
g16
sg18
S''
sg19
S''
sg20
g21
sg22
g23
stRp436
ag3
(g4
g5
(dp437
g14
S''
sg17
g26
sg18
S''
sg20
g27
sg19
S''
sg15
g26
sg28
Nsg22
g29
stRp438
ag3
(g4
g5
(dp439
g14
S''
sg17
g32
sg18
S''
sg20
g21
sg19
S''
sg15
g32
sg28
Nsg22
g33
stRp440
ag3
(g4
g5
(dp441
g14
S''
sg17
g36
sg18
S''
sg20
g27
sg19
S''
sg15
g36
sg28
Nsg22
g37
stRp442
ag3
(g4
g5
(dp443
g14
S''
sg40
S'language'
p444
sg18
S''
sg42
S'Key'
p445
sg19
S''
sg15
g444
sg28
Nsg44
S'The language for which this message applies'
p446
stRp447
ag3
(g4
g5
(dp448
g14
S''
sg40
S'id'
p449
sg18
S''
sg42
S'Int'
p450
sg19
S''
sg15
g449
sg28
Nsg44
S'The message number'
p451
stRp452
ag3
(g4
g5
(dp453
g14
S''
sg40
S'message'
p454
sg18
S''
sg42
S'String'
p455
sg19
S''
sg15
g454
sg28
Nsg44
S'The message text'
p456
stRp457
atRp458
sg68
g431
sg69
S'0'
sg70
g71
sg44
S'System messages'
p459
sg42
S'Message'
p460
sg74
S'102'
p461
sg40
S'db.message'
p462
stRp463
sS'ticket'
p464
g3
(g4
g5
(dp465
g7
S'user, host'
p466
sg9
g3
(g10
g11
(lp467
g3
(g4
g5
(dp468
g14
S''
sg15
g16
sg17
g16
sg18
S''
sg19
S''
sg20
g21
sg22
g23
stRp469
ag3
(g4
g5
(dp470
g14
S''
sg17
g26
sg18
S''
sg20
g27
sg19
S''
sg15
g26
sg28
Nsg22
g29
stRp471
ag3
(g4
g5
(dp472
g14
S''
sg17
g32
sg18
S''
sg20
g21
sg19
S''
sg15
g32
sg28
Nsg22
g33
stRp473
ag3
(g4
g5
(dp474
g14
S''
sg17
g36
sg18
S''
sg20
g27
sg19
S''
sg15
g36
sg28
Nsg22
g37
stRp475
ag3
(g4
g5
(dp476
g14
S''
sg40
S'user'
p477
sg18
S''
sg42
S'User'
p478
sg19
S''
sg15
g477
sg28
Nsg44
S'User the ticket was issued for'
p479
stRp480
ag3
(g4
g5
(dp481
g14
S''
sg40
S'host'
p482
sg18
S''
sg42
S'Key'
p483
sg19
S''
sg15
g482
sg28
Nsg44
S'Host the ticket was issued for'
p484
stRp485
ag3
(g4
g5
(dp486
g14
S''
sg40
S'ticket'
p487
sg18
S''
sg42
S'Password'
p488
sg19
S''
sg15
g487
sg28
Nsg44
S"The 'p4 login' ticket for this user"
p489
stRp490
ag3
(g4
g5
(dp491
g14
S''
sg40
S'state'
p492
sg18
S''
sg42
S'2FAState'
p493
sg19
S''
sg15
g492
sg28
Nsg44
S'The state of 2 Factor Authentication'
p494
stRp495
ag3
(g4
g5
(dp496
g14
S''
sg40
S'token'
p497
sg18
S''
sg42
S'String'
p498
sg19
S''
sg15
g497
sg28
Nsg44
S'The 2 Factor Authentication token'
p499
stRp500
ag3
(g4
g5
(dp501
g14
S''
sg40
S'updateDate'
p502
sg18
S''
sg42
S'Date'
p503
sg19
S''
sg15
g502
sg28
Nsg44
S'The date of the last ticket update'
p504
stRp505
atRp506
sg68
g464
sg69
S'0'
sg70
g71
sg44
S'Second factor authentication state on a per user/host basis'
p507
sg42
S'Ticket'
p508
sg74
S'17'
p509
sg40
S'db.ticket'
p510
stRp511
sS'bodtext'
p512
g3
(g4
g5
(dp513
g7
S'key, attr'
p514
sg9
g3
(g10
g11
(lp515
g3
(g4
g5
(dp516
g14
S''
sg15
g16
sg17
g16
sg18
S''
sg19
S''
sg20
g21
sg22
g23
stRp517
ag3
(g4
g5
(dp518
g14
S''
sg17
g26
sg18
S''
sg20
g27
sg19
S''
sg15
g26
sg28
Nsg22
g29
stRp519
ag3
(g4
g5
(dp520
g14
S''
sg17
g32
sg18
S''
sg20
g21
sg19
S''
sg15
g32
sg28
Nsg22
g33
stRp521
ag3
(g4
g5
(dp522
g14
S''
sg17
g36
sg18
S''
sg20
g27
sg19
S''
sg15
g36
sg28
Nsg22
g37
stRp523
ag3
(g4
g5
(dp524
g14
S''
sg40
S'key'
p525
sg18
S''
sg42
S'Key'
p526
sg19
S''
sg15
g525
sg28
Nsg44
S'The job to which this attribute belongs'
p527
stRp528
ag3
(g4
g5
(dp529
g14
S''
sg40
S'attr'
p530
sg18
S''
sg42
S'Int'
p531
sg19
S''
sg15
g530
sg28
Nsg44
S'The attribute number (from the jobspec) of this attribute'
p532
stRp533
ag3
(g4
g5
(dp534
g14
S''
sg40
S'isBulk'
p535
sg18
S''
sg42
S'Int'
p536
sg19
S''
sg15
g535
sg28
Nsg44
S'Indicates whether (1), or not (0) the field is a bulk\n\t\t    text field that should not be indexed.'
p537
stRp538
ag3
(g4
g5
(dp539
g14
S''
sg40
S'text'
p540
sg18
S''
sg42
S'Text'
p541
sg19
S''
sg15
g540
sg28
Nsg44
S'The attribute value'
p542
stRp543
atRp544
sg68
g512
sg69
S'1'
sg70
g71
sg44
S'Job data for job attributes'
p545
sg42
S'BodyText'
p546
sg74
S'91'
p547
sg40
S'db.bodtext'
p548
stRp549
sS'havept'
p550
g3
(g4
g5
(dp551
g7
S'clientFile'
p552
sg9
g3
(g10
g11
(lp553
g3
(g4
g5
(dp554
g14
S''
sg15
g16
sg17
g16
sg18
S''
sg19
S''
sg20
g21
sg22
g23
stRp555
ag3
(g4
g5
(dp556
g14
S''
sg17
g26
sg18
S''
sg20
g27
sg19
S''
sg15
g26
sg28
Nsg22
g29
stRp557
ag3
(g4
g5
(dp558
g14
S''
sg17
g32
sg18
S''
sg20
g21
sg19
S''
sg15
g32
sg28
Nsg22
g33
stRp559
ag3
(g4
g5
(dp560
g14
S''
sg17
g36
sg18
S''
sg20
g27
sg19
S''
sg15
g36
sg28
Nsg22
g37
stRp561
ag3
(g4
g5
(dp562
g14
S''
sg40
S'clientFile'
p563
sg18
S''
sg42
S'File'
p564
sg19
S''
sg15
g563
sg28
Nsg44
S'The file in its location on the client'
p565
stRp566
ag3
(g4
g5
(dp567
g14
S''
sg40
S'depotFile'
p568
sg18
S''
sg42
S'File'
p569
sg19
S''
sg15
g568
sg28
Nsg44
S'The file in the depot'
p570
stRp571
ag3
(g4
g5
(dp572
g14
S''
sg40
S'haveRev'
p573
sg18
S''
sg42
S'Rev'
p574
sg19
S''
sg15
g573
sg28
Nsg44
S'The revision synced to the client'
p575
stRp576
ag3
(g4
g5
(dp577
g14
S''
sg40
S'type'
p578
sg18
S''
sg42
S'FileType'
p579
sg19
S''
sg15
g578
sg28
Nsg44
S'The filetype of the synced file'
p580
stRp581
ag3
(g4
g5
(dp582
g14
S''
sg40
S'time'
p583
sg18
S''
sg42
S'Date'
p584
sg19
S''
sg15
g583
sg28
Nsg44
S'The sync time of the synced revision'
p585
stRp586
atRp587
sg68
g550
sg69
S'3'
sg70
g71
sg44
S'Placeholder for read-only clients'
p588
sg42
S'Have'
p589
sg74
S'34'
p590
sg40
S'db.have.pt'
p591
stRp592
sS'submodule'
p593
g3
(g4
g5
(dp594
g7
S'repo, path'
p595
sg9
g3
(g10
g11
(lp596
g3
(g4
g5
(dp597
g14
S''
sg15
g16
sg17
g16
sg18
S''
sg19
S''
sg20
g21
sg22
g23
stRp598
ag3
(g4
g5
(dp599
g14
S''
sg17
g26
sg18
S''
sg20
g27
sg19
S''
sg15
g26
sg28
Nsg22
g29
stRp600
ag3
(g4
g5
(dp601
g14
S''
sg17
g32
sg18
S''
sg20
g21
sg19
S''
sg15
g32
sg28
Nsg22
g33
stRp602
ag3
(g4
g5
(dp603
g14
S''
sg17
g36
sg18
S''
sg20
g27
sg19
S''
sg15
g36
sg28
Nsg22
g37
stRp604
ag3
(g4
g5
(dp605
g14
S''
sg40
S'repo'
p606
sg18
S''
sg42
S'Key'
p607
sg19
S''
sg15
g606
sg28
Nsg44
S'Repository name'
p608
stRp609
ag3
(g4
g5
(dp610
g14
S''
sg40
S'path'
p611
sg18
S''
sg42
S'Key'
p612
sg19
S''
sg15
g611
sg28
Nsg44
S'Path at which the submodule is linked'
p613
stRp614
ag3
(g4
g5
(dp615
g14
S''
sg40
S'subrepo'
p616
sg18
S''
sg42
S'Key'
p617
sg19
S''
sg15
g616
sg28
Nsg44
S'Submodule repository name'
p618
stRp619
atRp620
sg68
g593
sg69
S'0'
sg70
g71
sg44
S'Submodule configuration data'
p621
sg42
S'Submodule'
p622
sg74
S'81'
p623
sg40
S'db.submodule'
p624
stRp625
sS'group'
p626
g3
(g4
g5
(dp627
g7
S'user, group'
p628
sg9
g3
(g10
g11
(lp629
g3
(g4
g5
(dp630
g14
S''
sg15
g16
sg17
g16
sg18
S''
sg19
S''
sg20
g21
sg22
g23
stRp631
ag3
(g4
g5
(dp632
g14
S''
sg17
g26
sg18
S''
sg20
g27
sg19
S''
sg15
g26
sg28
Nsg22
g29
stRp633
ag3
(g4
g5
(dp634
g14
S''
sg17
g32
sg18
S''
sg20
g21
sg19
S''
sg15
g32
sg28
Nsg22
g33
stRp635
ag3
(g4
g5
(dp636
g14
S''
sg17
g36
sg18
S''
sg20
g27
sg19
S''
sg15
g36
sg28
Nsg22
g37
stRp637
ag3
(g4
g5
(dp638
g14
S''
sg40
S'user'
p639
sg18
S''
sg42
S'User'
p640
sg19
S''
sg15
g639
sg28
Nsg44
S'User name'
p641
stRp642
ag3
(g4
g5
(dp643
g14
S''
sg40
S'group'
p644
sg18
S''
sg42
S'User'
p645
sg19
S''
sg15
g644
sg28
Nsg44
S'Group name'
p646
stRp647
ag3
(g4
g5
(dp648
g14
S''
sg40
S'type'
p649
sg18
S''
sg42
S'UserType'
p650
sg19
S''
sg15
g649
sg28
Nsg44
S'Type of user in this group.'
p651
stRp652
ag3
(g4
g5
(dp653
g14
S''
sg40
S'maxResults'
p654
sg18
S''
sg42
S'MaxResults'
p655
sg19
S''
sg15
g654
sg28
Nsg44
S'MaxResults setting for the group.'
p656
stRp657
ag3
(g4
g5
(dp658
g14
S''
sg40
S'maxScanRows'
p659
sg18
S''
sg42
S'MaxScanRows'
p660
sg19
S''
sg15
g659
sg28
Nsg44
S'MaxScanRows setting for the group.'
p661
stRp662
ag3
(g4
g5
(dp663
g14
S''
sg40
S'maxLockTime'
p664
sg18
S''
sg42
S'MaxLockTime'
p665
sg19
S''
sg15
g664
sg28
Nsg44
S'MaxLockTime setting for the group.'
p666
stRp667
ag3
(g4
g5
(dp668
g14
S''
sg40
S'maxOpenFiles'
p669
sg18
S''
sg42
S'MaxOpenFiles'
p670
sg19
S''
sg15
g669
sg28
Nsg44
S'MaxOpenFiles setting for the group.'
p671
stRp672
ag3
(g4
g5
(dp673
g14
S''
sg40
S'timeout'
p674
sg18
S''
sg42
S'Int'
p675
sg19
S''
sg15
g674
sg28
Nsg44
S'Length of time (in seconds) a login ticket remains valid.'
p676
stRp677
ag3
(g4
g5
(dp678
g14
S''
sg40
S'passwordTimeout'
p679
sg18
S''
sg42
S'Int'
p680
sg19
S''
sg15
g679
sg28
Nsg44
S'Length of time (in seconds) a password remains valid for users in the group.'
p681
stRp682
atRp683
sg68
g626
sg69
S'9'
sg70
g71
sg44
S'Group specifications'
p684
sg42
S'Group'
p685
sg74
S'18'
p686
sg40
S'db.group'
p687
stRp688
sS'monitor'
p689
g3
(g4
g5
(dp690
g7
S'id'
p691
sg9
g3
(g10
g11
(lp692
g3
(g4
g5
(dp693
g14
S''
sg15
g16
sg17
g16
sg18
S''
sg19
S''
sg20
g21
sg22
g23
stRp694
ag3
(g4
g5
(dp695
g14
S''
sg17
g26
sg18
S''
sg20
g27
sg19
S''
sg15
g26
sg28
Nsg22
g29
stRp696
ag3
(g4
g5
(dp697
g14
S''
sg17
g32
sg18
S''
sg20
g21
sg19
S''
sg15
g32
sg28
Nsg22
g33
stRp698
ag3
(g4
g5
(dp699
g14
S''
sg17
g36
sg18
S''
sg20
g27
sg19
S''
sg15
g36
sg28
Nsg22
g37
stRp700
ag3
(g4
g5
(dp701
g14
S''
sg40
S'id'
p702
sg18
S''
sg42
S'Int'
p703
sg19
S''
sg15
g702
sg28
Nsg44
S'Thread/process id'
p704
stRp705
ag3
(g4
g5
(dp706
g14
S''
sg40
S'user'
p707
sg18
S''
sg42
S'User'
p708
sg19
S''
sg15
g707
sg28
Nsg44
S'Username of the user running the command'
p709
stRp710
ag3
(g4
g5
(dp711
g14
S''
sg40
S'function'
p712
sg18
S''
sg42
S'String'
p713
sg19
S''
sg15
g712
sg28
Nsg44
S'The command being executed.'
p714
stRp715
ag3
(g4
g5
(dp716
g14
S''
sg40
S'args'
p717
sg18
S''
sg42
S'String'
p718
sg19
S''
sg15
g717
sg28
Nsg44
S'Arguments passed to the command'
p719
stRp720
ag3
(g4
g5
(dp721
g14
S''
sg40
S'startDate'
p722
sg18
S''
sg42
S'Date'
p723
sg19
S''
sg15
g722
sg28
Nsg44
S'The date and time the command started'
p724
stRp725
ag3
(g4
g5
(dp726
g14
S''
sg40
S'runstate'
p727
sg18
S''
sg42
S'Int'
p728
sg19
S''
sg15
g727
sg28
Nsg44
S'Flag: 0 for running, 1 for terminated, 2 for paused'
p729
stRp730
ag3
(g4
g5
(dp731
g14
S''
sg40
S'client'
p732
sg18
S''
sg42
S'Domain'
p733
sg19
S''
sg15
g732
sg28
Nsg44
S'The client workspace'
p734
stRp735
ag3
(g4
g5
(dp736
g14
S''
sg40
S'host'
p737
sg18
S''
sg42
S'Text'
p738
sg19
S''
sg15
g737
sg28
Nsg44
S'The IP address of the client'
p739
stRp740
ag3
(g4
g5
(dp741
g14
S''
sg40
S'prog'
p742
sg18
S''
sg42
S'Text'
p743
sg19
S''
sg15
g742
sg28
Nsg44
S'The name (and version) of the client program'
p744
stRp745
ag3
(g4
g5
(dp746
g14
S''
sg40
S'lockInfo'
p747
sg18
S''
sg42
S'Text'
p748
sg19
S''
sg15
g747
sg28
Nsg44
S'Table locking information for command'
p749
stRp750
atRp751
sg68
g689
sg69
S'2'
sg70
g71
sg44
S'Helix Server process information'
p752
sg42
S'Monitor'
p753
sg74
S'106'
p754
sg40
S'db.monitor'
p755
stRp756
sS'working'
p757
g3
(g4
g5
(dp758
g7
S'clientFile'
p759
sg9
g3
(g10
g11
(lp760
g3
(g4
g5
(dp761
g14
S''
sg15
g16
sg17
g16
sg18
S''
sg19
S''
sg20
g21
sg22
g23
stRp762
ag3
(g4
g5
(dp763
g14
S''
sg17
g26
sg18
S''
sg20
g27
sg19
S''
sg15
g26
sg28
Nsg22
g29
stRp764
ag3
(g4
g5
(dp765
g14
S''
sg17
g32
sg18
S''
sg20
g21
sg19
S''
sg15
g32
sg28
Nsg22
g33
stRp766
ag3
(g4
g5
(dp767
g14
S''
sg17
g36
sg18
S''
sg20
g27
sg19
S''
sg15
g36
sg28
Nsg22
g37
stRp768
ag3
(g4
g5
(dp769
g14
S''
sg40
S'clientFile'
p770
sg18
S''
sg42
S'File'
p771
sg19
S''
sg15
g770
sg28
Nsg44
S'File on the client'
p772
stRp773
ag3
(g4
g5
(dp774
g14
S''
sg40
S'depotFile'
p775
sg18
S''
sg42
S'File'
p776
sg19
S''
sg15
g775
sg28
Nsg44
S'File in the depot'
p777
stRp778
ag3
(g4
g5
(dp779
g14
S''
sg40
S'client'
p780
sg18
S''
sg42
S'Domain'
p781
sg19
S''
sg15
g780
sg28
Nsg44
S'The client the file is opened on'
p782
stRp783
ag3
(g4
g5
(dp784
g14
S''
sg40
S'user'
p785
sg18
S''
sg42
S'User'
p786
sg19
S''
sg15
g785
sg28
Nsg44
S'The user who has the file opened'
p787
stRp788
ag3
(g4
g5
(dp789
g14
S''
sg40
S'haveRev'
p790
sg18
S''
sg42
S'Rev'
p791
sg19
S''
sg15
g790
sg28
Nsg44
S"Revision presently in user's client workspace"
p792
stRp793
ag3
(g4
g5
(dp794
g14
S''
sg40
S'workRev'
p795
sg18
S''
sg42
S'Rev'
p796
sg19
S''
sg15
g795
sg28
Nsg44
S'Working revision; normally identical to the haveRev'
p797
stRp798
ag3
(g4
g5
(dp799
g14
S''
sg40
S'isVirtual'
p800
sg18
S''
sg42
S'Int'
p801
sg19
S''
sg15
g800
sg28
Nsg44
S'Flag: if 1, file was opened with "p4 integ -v".'
p802
stRp803
ag3
(g4
g5
(dp804
g14
S''
sg40
S'type'
p805
sg18
S''
sg42
S'FileType'
p806
sg19
S''
sg15
g805
sg28
Nsg44
S'File type'
p807
stRp808
ag3
(g4
g5
(dp809
g14
S''
sg40
S'action'
p810
sg18
S''
sg42
S'Action'
p811
sg19
S''
sg15
g810
sg28
Nsg44
S"What the user's doing with the file"
p812
stRp813
ag3
(g4
g5
(dp814
g14
S''
sg40
S'change'
p815
sg18
S''
sg42
S'Change'
p816
sg19
S''
sg15
g815
sg28
Nsg44
S'Associated changelist, or zero for the default changelist.'
p817
stRp818
ag3
(g4
g5
(dp819
g14
S''
sg40
S'modTime'
p820
sg18
S''
sg42
S'Date'
p821
sg19
S''
sg15
g820
sg28
Nsg44
S"Modification timestamp on the file in the user's workspace."
p822
stRp823
ag3
(g4
g5
(dp824
g14
S''
sg40
S'isLocked'
p825
sg18
S''
sg42
S'LockedType'
p826
sg19
S''
sg15
g825
sg28
Nsg44
S'Bitmask of locked flags'
p827
stRp828
ag3
(g4
g5
(dp829
g14
S''
sg40
S'digest'
p830
sg18
S''
sg42
S'Digest'
p831
sg19
S''
sg15
g830
sg28
Nsg44
S'MD5 digest of working file.'
p832
stRp833
ag3
(g4
g5
(dp834
g14
S''
sg40
S'size'
p835
sg18
S''
sg42
S'FileSize'
p836
sg19
S''
sg15
g835
sg28
Nsg44
S'File size'
p837
stRp838
ag3
(g4
g5
(dp839
g14
S''
sg40
S'traitLot'
p840
sg18
S''
sg42
S'TraitLot'
p841
sg19
S''
sg15
g840
sg28
Nsg44
S'Group of traits associated with file revision.'
p842
stRp843
ag3
(g4
g5
(dp844
g14
S''
sg40
S'tampered'
p845
sg18
S''
sg42
S'TamperCheck'
p846
sg19
S''
sg15
g845
sg28
Nsg44
S'Flag indicating the tamper-state of the file in the\n\t\t    workspace.'
p847
stRp848
ag3
(g4
g5
(dp849
g14
S''
sg40
S'clientType'
p850
sg18
S''
sg42
S'FileType'
p851
sg19
S''
sg15
g850
sg28
Nsg44
S'Type of the file in the client workspace.'
p852
stRp853
ag3
(g4
g5
(dp854
g14
S''
sg40
S'movedFile'
p855
sg18
S''
sg42
S'File'
p856
sg19
S''
sg15
g855
sg28
Nsg44
S'Moved from filename'
p857
stRp858
ag3
(g4
g5
(dp859
g14
S''
sg40
S'status'
p860
sg18
S''
sg42
S'WorkStatus'
p861
sg19
S''
sg15
g860
sg28
Nsg44
S'Working status'
p862
stRp863
atRp864
sg68
g757
sg69
S'10'
p865
sg70
g71
sg44
S'Records for work in progress'
p866
sg42
S'Working'
p867
sg74
S'62'
p868
sg40
S'db.working'
p869
stRp870
sS'fix'
p871
g3
(g4
g5
(dp872
g7
S'job, change'
p873
sg9
g3
(g10
g11
(lp874
g3
(g4
g5
(dp875
g14
S''
sg15
g16
sg17
g16
sg18
S''
sg19
S''
sg20
g21
sg22
g23
stRp876
ag3
(g4
g5
(dp877
g14
S''
sg17
g26
sg18
S''
sg20
g27
sg19
S''
sg15
g26
sg28
Nsg22
g29
stRp878
ag3
(g4
g5
(dp879
g14
S''
sg17
g32
sg18
S''
sg20
g21
sg19
S''
sg15
g32
sg28
Nsg22
g33
stRp880
ag3
(g4
g5
(dp881
g14
S''
sg17
g36
sg18
S''
sg20
g27
sg19
S''
sg15
g36
sg28
Nsg22
g37
stRp882
ag3
(g4
g5
(dp883
g14
S''
sg40
S'job'
p884
sg18
S''
sg42
S'Key'
p885
sg19
S''
sg15
g884
sg28
Nsg44
S'Job name'
p886
stRp887
ag3
(g4
g5
(dp888
g14
S''
sg40
S'change'
p889
sg18
S''
sg42
S'Change'
p890
sg19
S''
sg15
g889
sg28
Nsg44
S'Changelist number'
p891
stRp892
ag3
(g4
g5
(dp893
g14
S''
sg40
S'date'
p894
sg18
S''
sg42
S'Date'
p895
sg19
S''
sg15
g894
sg28
Nsg44
S'Date fix was recorded (may differ from date change was\n\t\t    submitted).'
p896
stRp897
ag3
(g4
g5
(dp898
g14
S''
sg40
S'status'
p899
sg18
S''
sg42
S'FixStatus'
p900
sg19
S''
sg15
g899
sg28
Nsg44
S'Status of the job'
p901
stRp902
ag3
(g4
g5
(dp903
g14
S''
sg40
S'client'
p904
sg18
S''
sg42
S'Domain'
p905
sg19
S''
sg15
g904
sg28
Nsg44
S'The client where the fix originated'
p906
stRp907
ag3
(g4
g5
(dp908
g14
S''
sg40
S'user'
p909
sg18
S''
sg42
S'User'
p910
sg19
S''
sg15
g909
sg28
Nsg44
S'The user who fixed the job'
p911
stRp912
atRp913
sg68
g871
sg40
S'db.fix'
p914
sg69
S'1'
sg70
g71
sS'seeAlso'
p915
S'db.fixrev'
p916
sg42
S'Fix'
p917
sg74
S'86'
p918
sg44
S'Fix records - indexed by job'
p919
stRp920
sS'tiny'
p921
g3
(g4
g5
(dp922
g7
S'key'
p923
sg9
g3
(g10
g11
(lp924
g3
(g4
g5
(dp925
g14
S''
sg15
g16
sg17
g16
sg18
S''
sg19
S''
sg20
g21
sg22
g23
stRp926
ag3
(g4
g5
(dp927
g14
S''
sg17
g26
sg18
S''
sg20
g27
sg19
S''
sg15
g26
sg28
Nsg22
g29
stRp928
ag3
(g4
g5
(dp929
g14
S''
sg17
g32
sg18
S''
sg20
g21
sg19
S''
sg15
g32
sg28
Nsg22
g33
stRp930
ag3
(g4
g5
(dp931
g14
S''
sg17
g36
sg18
S''
sg20
g27
sg19
S''
sg15
g36
sg28
Nsg22
g37
stRp932
ag3
(g4
g5
(dp933
g14
S''
sg40
S'key'
p934
sg18
S''
sg42
S'Key'
p935
sg19
S''
sg15
g934
sg28
Nsg44
S'The file name and revision'
p936
stRp937
ag3
(g4
g5
(dp938
g14
S''
sg40
S'value'
p939
sg18
S''
sg42
S'Octet String'
p940
sg19
S''
sg15
g939
sg28
Nsg44
S'The (encoded) file content'
p941
stRp942
atRp943
sg68
g921
sg69
S'0'
sg70
g71
sg44
S'Records content data for tiny files using the +T file type modifier'
p944
sg42
S'TinyDb'
p945
sg40
S'tiny.db'
p946
stRp947
sS'groupx'
p948
g3
(g4
g5
(dp949
g7
S'group'
p950
sg9
g3
(g10
g11
(lp951
g3
(g4
g5
(dp952
g14
S''
sg15
g16
sg17
g16
sg18
S''
sg19
S''
sg20
g21
sg22
g23
stRp953
ag3
(g4
g5
(dp954
g14
S''
sg17
g26
sg18
S''
sg20
g27
sg19
S''
sg15
g26
sg28
Nsg22
g29
stRp955
ag3
(g4
g5
(dp956
g14
S''
sg17
g32
sg18
S''
sg20
g21
sg19
S''
sg15
g32
sg28
Nsg22
g33
stRp957
ag3
(g4
g5
(dp958
g14
S''
sg17
g36
sg18
S''
sg20
g27
sg19
S''
sg15
g36
sg28
Nsg22
g37
stRp959
ag3
(g4
g5
(dp960
g14
S''
sg40
S'group'
p961
sg18
S''
sg42
S'User'
p962
sg19
S''
sg15
g961
sg28
Nsg44
S'Group name'
p963
stRp964
ag3
(g4
g5
(dp965
g14
S''
sg40
S'ldapConf'
p966
sg18
S''
sg42
S'String'
p967
sg19
S''
sg15
g966
sg28
Nsg44
S"The LDAP configuration to use when populating the group's user list from an LDAP query"
p968
stRp969
ag3
(g4
g5
(dp970
g14
S''
sg40
S'ldapSearchQuery'
p971
sg18
S''
sg42
S'String'
p972
sg19
S''
sg15
g971
sg28
Nsg44
S'The LDAP query used to identify the members of the group'
p973
stRp974
ag3
(g4
g5
(dp975
g14
S''
sg40
S'ldapUserAttribute'
p976
sg18
S''
sg42
S'String'
p977
sg19
S''
sg15
g976
sg28
Nsg44
S"The LDAP attribute that represents the user's username"
p978
stRp979
ag3
(g4
g5
(dp980
g14
S''
sg40
S'ldapDNAttribute'
p981
sg18
S''
sg42
S'String'
p982
sg19
S''
sg15
g981
sg28
Nsg44
S"The LDAP attribute that represents the user's DN"
p983
stRp984
atRp985
sg68
g948
sg69
S'1'
sg70
g71
sg44
S'Per-group data to support group membership controlled by AD/LDAP group membership'
p986
sg42
S'GroupX'
p987
sg74
S'19'
p988
sg40
S'db.groupx'
p989
stRp990
sS'trigger'
p991
g3
(g4
g5
(dp992
g7
S'seq'
p993
sg9
g3
(g10
g11
(lp994
g3
(g4
g5
(dp995
g14
S''
sg15
g16
sg17
g16
sg18
S''
sg19
S''
sg20
g21
sg22
g23
stRp996
ag3
(g4
g5
(dp997
g14
S''
sg17
g26
sg18
S''
sg20
g27
sg19
S''
sg15
g26
sg28
Nsg22
g29
stRp998
ag3
(g4
g5
(dp999
g14
S''
sg17
g32
sg18
S''
sg20
g21
sg19
S''
sg15
g32
sg28
Nsg22
g33
stRp1000
ag3
(g4
g5
(dp1001
g14
S''
sg17
g36
sg18
S''
sg20
g27
sg19
S''
sg15
g36
sg28
Nsg22
g37
stRp1002
ag3
(g4
g5
(dp1003
g14
S''
sg40
S'seq'
p1004
sg18
S''
sg42
S'Int'
p1005
sg19
S''
sg15
g1004
sg28
Nsg44
S'Sequence number: for ordering the trigger list'
p1006
stRp1007
ag3
(g4
g5
(dp1008
g14
S''
sg40
S'name'
p1009
sg18
S''
sg42
S'Key'
p1010
sg19
S''
sg15
g1009
sg28
Nsg44
S'Name of the trigger'
p1011
stRp1012
ag3
(g4
g5
(dp1013
g14
S''
sg40
S'mapFlag'
p1014
sg18
S''
sg42
S'MapFlag'
p1015
sg19
S''
sg15
g1014
sg28
Nsg44
S'Type of mapping: specifies whether the trigger applies \n\t\t    to the files or not.'
p1016
stRp1017
ag3
(g4
g5
(dp1018
g14
S''
sg40
S'depotFile'
p1019
sg18
S''
sg42
S'Mapping'
p1020
sg19
S''
sg15
g1019
sg28
Nsg44
S'The files to apply the trigger to'
p1021
stRp1022
ag3
(g4
g5
(dp1023
g14
S''
sg40
S'triggerDepotFile'
p1024
sg18
S''
sg42
S'File'
p1025
sg19
S''
sg15
g1024
sg28
Nsg44
S'Depot path to the trigger'
p1026
stRp1027
ag3
(g4
g5
(dp1028
g14
S''
sg40
S'trigger'
p1029
sg18
S''
sg42
S'Trigger'
p1030
sg19
S''
sg15
g1029
sg28
Nsg44
S'Type of trigger'
p1031
stRp1032
ag3
(g4
g5
(dp1033
g14
S''
sg40
S'action'
p1034
sg18
S''
sg42
S'Text'
p1035
sg19
S''
sg15
g1034
sg28
Nsg44
S'Command to execute when trigger runs'
p1036
stRp1037
atRp1038
sg68
g991
sg69
S'3'
sg70
g71
sg44
S'Trigger specifications'
p1039
sg42
S'Trigger'
p1040
sg74
S'70'
p1041
sg40
S'db.trigger'
p1042
stRp1043
sS'change'
p1044
g3
(g4
g5
(dp1045
g7
S'change'
p1046
sg9
g3
(g10
g11
(lp1047
g3
(g4
g5
(dp1048
g14
S''
sg15
g16
sg17
g16
sg18
S''
sg19
S''
sg20
g21
sg22
g23
stRp1049
ag3
(g4
g5
(dp1050
g14
S''
sg17
g26
sg18
S''
sg20
g27
sg19
S''
sg15
g26
sg28
Nsg22
g29
stRp1051
ag3
(g4
g5
(dp1052
g14
S''
sg17
g32
sg18
S''
sg20
g21
sg19
S''
sg15
g32
sg28
Nsg22
g33
stRp1053
ag3
(g4
g5
(dp1054
g14
S''
sg17
g36
sg18
S''
sg20
g27
sg19
S''
sg15
g36
sg28
Nsg22
g37
stRp1055
ag3
(g4
g5
(dp1056
g14
S''
sg40
S'change'
p1057
sg18
S''
sg42
S'Change'
p1058
sg19
S''
sg15
g1057
sg28
Nsg44
S'The change number'
p1059
stRp1060
ag3
(g4
g5
(dp1061
g14
S''
sg40
S'descKey'
p1062
sg18
S''
sg42
S'Change'
p1063
sg19
S''
sg15
g1062
sg28
Nsg44
S"The description key. Normally the same as 'change', but\n\t\t    may differ if a changelist was renumbered on submission."
p1064
stRp1065
ag3
(g4
g5
(dp1066
g14
S''
sg40
S'client'
p1067
sg18
S''
sg42
S'Domain'
p1068
sg19
S''
sg15
g1067
sg28
Nsg44
S'The client from which the change originates'
p1069
stRp1070
ag3
(g4
g5
(dp1071
g14
S''
sg40
S'user'
p1072
sg18
S''
sg42
S'User'
p1073
sg19
S''
sg15
g1072
sg28
Nsg44
S'The user who owns the change'
p1074
stRp1075
ag3
(g4
g5
(dp1076
g14
S''
sg40
S'date'
p1077
sg18
S''
sg42
S'Date'
p1078
sg19
S''
sg15
g1077
sg28
Nsg44
S'Date and time the changelist was submitted'
p1079
stRp1080
ag3
(g4
g5
(dp1081
g14
S''
sg40
S'status'
p1082
sg18
S''
sg42
S'ChangeStatus'
p1083
sg19
S''
sg15
g1082
sg28
Nsg44
S'Status of the change'
p1084
stRp1085
ag3
(g4
g5
(dp1086
g14
S''
sg40
S'description'
p1087
sg18
S''
sg42
S'DescShort'
p1088
sg19
S''
sg15
g1087
sg28
Nsg44
S'Short description of the change.'
p1089
stRp1090
ag3
(g4
g5
(dp1091
g14
S''
sg40
S'root'
p1092
sg18
S''
sg42
S'Mapping'
p1093
sg19
S''
sg15
g1092
sg28
Nsg44
S'Common path for all files in the changelist'
p1094
stRp1095
ag3
(g4
g5
(dp1096
g14
S''
sg40
S'importer'
p1097
sg18
S''
sg42
S'User'
p1098
sg19
S''
sg15
g1097
sg28
Nsg44
S'The user who fetched or pushed this change to this server'
p1099
stRp1100
ag3
(g4
g5
(dp1101
g14
S''
sg40
S'identity'
p1102
sg18
S''
sg42
S'Key'
p1103
sg19
S''
sg15
g1102
sg28
Nsg44
S'Identifier for this change'
p1104
stRp1105
ag3
(g4
g5
(dp1106
g14
S''
sg40
S'access'
p1107
sg18
S''
sg42
S'Date'
p1108
sg19
S''
sg15
g1107
sg28
Nsg44
S'Shelve last access'
p1109
stRp1110
ag3
(g4
g5
(dp1111
g14
S''
sg40
S'update'
p1112
sg18
S''
sg42
S'Date'
p1113
sg19
S''
sg15
g1112
sg28
Nsg44
S'Shelve last update'
p1114
stRp1115
ag3
(g4
g5
(dp1116
g14
S''
sg40
S'stream'
p1117
sg18
S''
sg42
S'Domain'
p1118
sg19
S''
sg15
g1117
sg28
Nsg44
S'Stream spec name in changelist'
p1119
stRp1120
atRp1121
sg68
g1044
sg69
S'6'
sg70
g71
sg44
S'Changelists'
p1122
sg42
S'Change'
p1123
sg74
S'71'
p1124
sg40
S'db.change'
p1125
stRp1126
sS'ldap'
p1127
g3
(g4
g5
(dp1128
g7
S'name'
p1129
sg9
g3
(g10
g11
(lp1130
g3
(g4
g5
(dp1131
g14
S''
sg15
g16
sg17
g16
sg18
S''
sg19
S''
sg20
g21
sg22
g23
stRp1132
ag3
(g4
g5
(dp1133
g14
S''
sg17
g26
sg18
S''
sg20
g27
sg19
S''
sg15
g26
sg28
Nsg22
g29
stRp1134
ag3
(g4
g5
(dp1135
g14
S''
sg17
g32
sg18
S''
sg20
g21
sg19
S''
sg15
g32
sg28
Nsg22
g33
stRp1136
ag3
(g4
g5
(dp1137
g14
S''
sg17
g36
sg18
S''
sg20
g27
sg19
S''
sg15
g36
sg28
Nsg22
g37
stRp1138
ag3
(g4
g5
(dp1139
g14
S''
sg40
S'name'
p1140
sg18
S''
sg42
S'Key'
p1141
sg19
S''
sg15
g1140
sg28
Nsg44
S'The LDAP configuration name'
p1142
stRp1143
ag3
(g4
g5
(dp1144
g14
S''
sg40
S'host'
p1145
sg18
S''
sg42
S'String'
p1146
sg19
S''
sg15
g1145
sg28
Nsg44
S'The FQDN of the directory server'
p1147
stRp1148
ag3
(g4
g5
(dp1149
g14
S''
sg40
S'port'
p1150
sg18
S''
sg42
S'Int'
p1151
sg19
S''
sg15
g1150
sg28
Nsg44
S'The port number on which to connect to the directory server'
p1152
stRp1153
ag3
(g4
g5
(dp1154
g14
S''
sg40
S'ssl'
p1155
sg18
S''
sg42
S'Int'
p1156
sg19
S''
sg15
g1155
sg28
Nsg44
S"The encryption method to use when connecting to the The FQDN of the directory server.\n\t\t\tOptions are: 0='none', 1='ssl' and 2='tls'"
p1157
stRp1158
ag3
(g4
g5
(dp1159
g14
S''
sg40
S'type'
p1160
sg18
S''
sg42
S'Int'
p1161
sg19
S''
sg15
g1160
sg28
Nsg44
S"The bind method to use with this directory.  Options are: 0='simple', 1='search' and 2='sasl'."
p1162
stRp1163
ag3
(g4
g5
(dp1164
g14
S''
sg40
S'pattern'
p1165
sg18
S''
sg42
S'Text'
p1166
sg19
S''
sg15
g1165
sg28
Nsg44
S"The DN used to bind against to validate the user's credentials."
p1167
stRp1168
ag3
(g4
g5
(dp1169
g14
S''
sg40
S'baseDN'
p1170
sg18
S''
sg42
S'Text'
p1171
sg19
S''
sg15
g1170
sg28
Nsg44
S'The DN from which to start the search for the user object'
p1172
stRp1173
ag3
(g4
g5
(dp1174
g14
S''
sg40
S'filter'
p1175
sg18
S''
sg42
S'Text'
p1176
sg19
S''
sg15
g1175
sg28
Nsg44
S'The LDAP query filter to use to identify the user object which will be used to bind against'
p1177
stRp1178
ag3
(g4
g5
(dp1179
g14
S''
sg40
S'scope'
p1180
sg18
S''
sg42
S'Int'
p1181
sg19
S''
sg15
g1180
sg28
Nsg44
S'The scope to use when searching for the user records. Options are:\n                 0 = baseonly - Just the BaseDN object\n                 1 = children - The BaseDN and its direct children\n                 2 = subtree - The BaseDN and all objects below it'
p1182
stRp1183
ag3
(g4
g5
(dp1184
g14
S''
sg40
S'bindDN'
p1185
sg18
S''
sg42
S'Text'
p1186
sg19
S''
sg15
g1185
sg28
Nsg44
S'The DN to bind against in order to search the directory'
p1187
stRp1188
ag3
(g4
g5
(dp1189
g14
S''
sg40
S'bindpass'
p1190
sg18
S''
sg42
S'Text'
p1191
sg19
S''
sg15
g1190
sg28
Nsg44
S'The password for the BindDN record'
p1192
stRp1193
ag3
(g4
g5
(dp1194
g14
S''
sg40
S'realm'
p1195
sg18
S''
sg42
S'Text'
p1196
sg19
S''
sg15
g1195
sg28
Nsg44
S'The optional realm to use when authenticating the user via SASL'
p1197
stRp1198
ag3
(g4
g5
(dp1199
g14
S''
sg40
S'groupBaseDN'
p1200
sg18
S''
sg42
S'Text'
p1201
sg19
S''
sg15
g1200
sg28
Nsg44
S'The search base for performing the group search. If unset this will default to the SearchBaseDN'
p1202
stRp1203
ag3
(g4
g5
(dp1204
g14
S''
sg40
S'groupFilter'
p1205
sg18
S''
sg42
S'Text'
p1206
sg19
S''
sg15
g1205
sg28
Nsg44
S'The filter to use for the group search'
p1207
stRp1208
ag3
(g4
g5
(dp1209
g14
S''
sg40
S'groupScope'
p1210
sg18
S''
sg42
S'Int'
p1211
sg19
S''
sg15
g1210
sg28
Nsg44
S'The scope to use when performing the group search.Options are:\n \t\t\t\t0 = baseonly - Just the BaseDN object\n\t\t\t\t1 = children - The BaseDN and its direct children\n\t\t\t\t2 = subtree - The BaseDN and all objects below it'
p1212
stRp1213
ag3
(g4
g5
(dp1214
g14
S''
sg40
S'options'
p1215
sg18
S''
sg42
S'Int'
p1216
sg19
S''
sg15
g1215
sg28
Nsg44
S'LDAP options bitmask: 1=[no]downcase, 2=[no]getattrs and 4=[no]realminusername'
p1217
stRp1218
ag3
(g4
g5
(dp1219
g14
S''
sg40
S'attrUid'
p1220
sg18
S''
sg42
S'Text'
p1221
sg19
S''
sg15
g1220
sg28
Nsg44
S"The name of the attribute in the directory's user records that contain the users' UIDs"
p1222
stRp1223
ag3
(g4
g5
(dp1224
g14
S''
sg40
S'attrEmail'
p1225
sg18
S''
sg42
S'Text'
p1226
sg19
S''
sg15
g1225
sg28
Nsg44
S"The name of the attribute in the directory's user records that contain the users' email addresses."
p1227
stRp1228
ag3
(g4
g5
(dp1229
g14
S''
sg40
S'attrName'
p1230
sg18
S''
sg42
S'Text'
p1231
sg19
S''
sg15
g1230
sg28
Nsg44
S"The name(s) of the attribute(s) in the directory's user records that contain the users' full names."
p1232
stRp1233
atRp1234
sg68
g1127
sg69
S'0'
sg70
g71
sg44
S'LDAP specifications'
p1235
sg42
S'Ldap'
p1236
sg74
S'8'
sg40
S'db.ldap'
p1237
stRp1238
sS'logger'
p1239
g3
(g4
g5
(dp1240
g7
S'seq'
p1241
sg9
g3
(g10
g11
(lp1242
g3
(g4
g5
(dp1243
g14
S''
sg15
g16
sg17
g16
sg18
S''
sg19
S''
sg20
g21
sg22
g23
stRp1244
ag3
(g4
g5
(dp1245
g14
S''
sg17
g26
sg18
S''
sg20
g27
sg19
S''
sg15
g26
sg28
Nsg22
g29
stRp1246
ag3
(g4
g5
(dp1247
g14
S''
sg17
g32
sg18
S''
sg20
g21
sg19
S''
sg15
g32
sg28
Nsg22
g33
stRp1248
ag3
(g4
g5
(dp1249
g14
S''
sg17
g36
sg18
S''
sg20
g27
sg19
S''
sg15
g36
sg28
Nsg22
g37
stRp1250
ag3
(g4
g5
(dp1251
g14
S''
sg40
S'seq'
p1252
sg18
S''
sg42
S'Int'
p1253
sg19
S''
sg15
g1252
sg28
Nsg44
S'Sequence number of event'
p1254
stRp1255
ag3
(g4
g5
(dp1256
g14
S''
sg40
S'key'
p1257
sg18
S''
sg42
S'Key'
p1258
sg19
S''
sg15
g1257
sg28
Nsg44
S"Either the word 'change' or the word 'job'"
p1259
stRp1260
ag3
(g4
g5
(dp1261
g14
S''
sg40
S'attr'
p1262
sg18
S''
sg42
S'Key'
p1263
sg19
S''
sg15
g1262
sg28
Nsg44
S'The number of the change, or name of the job that was \n\t\t    altered.'
p1264
stRp1265
atRp1266
sg68
g1239
sg69
S'0'
sg70
g71
sg44
S"Support for 'p4 logger' command. Logs any changes to \n\t\tchangelists and jobs"
p1267
sg42
S'Logger'
p1268
sg74
S'7'
sg40
S'db.logger'
p1269
stRp1270
sS'pubkey'
p1271
g3
(g4
g5
(dp1272
g7
S'user, scope'
p1273
sg9
g3
(g10
g11
(lp1274
g3
(g4
g5
(dp1275
g14
S''
sg15
g16
sg17
g16
sg18
S''
sg19
S''
sg20
g21
sg22
g23
stRp1276
ag3
(g4
g5
(dp1277
g14
S''
sg17
g26
sg18
S''
sg20
g27
sg19
S''
sg15
g26
sg28
Nsg22
g29
stRp1278
ag3
(g4
g5
(dp1279
g14
S''
sg17
g32
sg18
S''
sg20
g21
sg19
S''
sg15
g32
sg28
Nsg22
g33
stRp1280
ag3
(g4
g5
(dp1281
g14
S''
sg17
g36
sg18
S''
sg20
g27
sg19
S''
sg15
g36
sg28
Nsg22
g37
stRp1282
ag3
(g4
g5
(dp1283
g14
S''
sg40
S'user'
p1284
sg18
S''
sg42
S'User'
p1285
sg19
S''
sg15
g1284
sg28
Nsg44
S'User'
p1286
stRp1287
ag3
(g4
g5
(dp1288
g14
S''
sg40
S'scope'
p1289
sg18
S''
sg42
S'Key'
p1290
sg19
S''
sg15
g1289
sg28
Nsg44
S'Scope'
p1291
stRp1292
ag3
(g4
g5
(dp1293
g14
S''
sg40
S'key'
p1294
sg18
S''
sg42
S'Text'
p1295
sg19
S''
sg15
g1294
sg28
Nsg44
S'Key'
p1296
stRp1297
ag3
(g4
g5
(dp1298
g14
S''
sg40
S'digest'
p1299
sg18
S''
sg42
S'Digest'
p1300
sg19
S''
sg15
g1299
sg28
Nsg44
S'Digest'
p1301
stRp1302
ag3
(g4
g5
(dp1303
g14
S''
sg40
S'update'
p1304
sg18
S''
sg42
S'Date'
p1305
sg19
S''
sg15
g1304
sg28
Nsg44
S'Update date'
p1306
stRp1307
atRp1308
sg68
g1271
sg69
S'0'
sg70
g71
sg44
S'SSH Public keys'
p1309
sg42
S'PublicKey'
p1310
sg74
S'82'
p1311
sg40
S'db.pubkey'
p1312
stRp1313
sS'fixrev'
p1314
g3
(g4
g5
(dp1315
g7
S'change, job'
p1316
sg9
g3
(g10
g11
(lp1317
g3
(g4
g5
(dp1318
g14
S''
sg15
g16
sg17
g16
sg18
S''
sg19
S''
sg20
g21
sg22
g23
stRp1319
ag3
(g4
g5
(dp1320
g14
S''
sg17
g26
sg18
S''
sg20
g27
sg19
S''
sg15
g26
sg28
Nsg22
g29
stRp1321
ag3
(g4
g5
(dp1322
g14
S''
sg17
g32
sg18
S''
sg20
g21
sg19
S''
sg15
g32
sg28
Nsg22
g33
stRp1323
ag3
(g4
g5
(dp1324
g14
S''
sg17
g36
sg18
S''
sg20
g27
sg19
S''
sg15
g36
sg28
Nsg22
g37
stRp1325
ag3
(g4
g5
(dp1326
g14
S''
sg40
g884
sg18
S''
sg42
g885
sg19
S''
sg15
g884
sg28
Nsg44
g886
stRp1327
ag3
(g4
g5
(dp1328
g14
S''
sg40
g889
sg18
S''
sg42
g890
sg19
S''
sg15
g889
sg28
Nsg44
g891
stRp1329
ag3
(g4
g5
(dp1330
g14
S''
sg40
g894
sg18
S''
sg42
g895
sg19
S''
sg15
g894
sg28
Nsg44
g896
stRp1331
ag3
(g4
g5
(dp1332
g14
S''
sg40
g899
sg18
S''
sg42
g900
sg19
S''
sg15
g899
sg28
Nsg44
g901
stRp1333
ag3
(g4
g5
(dp1334
g14
S''
sg40
g904
sg18
S''
sg42
g905
sg19
S''
sg15
g904
sg28
Nsg44
g906
stRp1335
ag3
(g4
g5
(dp1336
g14
S''
sg40
g909
sg18
S''
sg42
g910
sg19
S''
sg15
g909
sg28
Nsg44
g911
stRp1337
atRp1338
sg68
g1314
sg40
S'db.fixrev'
p1339
sg69
S'1'
sg70
g71
sg915
S'db.fix'
p1340
sg42
S'Fix'
p1341
sg74
S'87'
p1342
sg44
S'Fix records - indexed by change'
p1343
stRp1344
sS'resolveg'
p1345
g3
(g4
g5
(dp1346
g7
S'toFile, fromFile, baseSha'
p1347
sg9
g3
(g10
g11
(lp1348
g3
(g4
g5
(dp1349
g14
S''
sg15
g16
sg17
g16
sg18
S''
sg19
S''
sg20
g21
sg22
g23
stRp1350
ag3
(g4
g5
(dp1351
g14
S''
sg17
g26
sg18
S''
sg20
g27
sg19
S''
sg15
g26
sg28
Nsg22
g29
stRp1352
ag3
(g4
g5
(dp1353
g14
S''
sg17
g32
sg18
S''
sg20
g21
sg19
S''
sg15
g32
sg28
Nsg22
g33
stRp1354
ag3
(g4
g5
(dp1355
g14
S''
sg17
g36
sg18
S''
sg20
g27
sg19
S''
sg15
g36
sg28
Nsg22
g37
stRp1356
ag3
(g4
g5
(dp1357
g14
S''
sg40
S'toFile'
p1358
sg18
S''
sg42
S'File'
p1359
sg19
S''
sg15
g1358
sg28
Nsg44
S'ToFile'
p1360
stRp1361
ag3
(g4
g5
(dp1362
g14
S''
sg40
S'fromFile'
p1363
sg18
S''
sg42
S'File'
p1364
sg19
S''
sg15
g1363
sg28
Nsg44
S'FromFile'
p1365
stRp1366
ag3
(g4
g5
(dp1367
g14
S''
sg40
S'baseSHA'
p1368
sg18
S''
sg42
S'SHA1'
p1369
sg19
S''
sg15
g1368
sg28
Nsg44
S'Base SHA'
p1370
stRp1371
ag3
(g4
g5
(dp1372
g14
S''
sg40
S'wantsSHA'
p1373
sg18
S''
sg42
S'SHA1'
p1374
sg19
S''
sg15
g1373
sg28
Nsg44
S'Wants SHA'
p1375
stRp1376
ag3
(g4
g5
(dp1377
g14
S''
sg40
S'how'
p1378
sg18
S''
sg42
S'IntegHow'
p1379
sg19
S''
sg15
g1378
sg28
Nsg44
S'Integration method: variations on merge/branch/copy/ignore/delete.'
p1380
stRp1381
ag3
(g4
g5
(dp1382
g14
S''
sg40
S'state'
p1383
sg18
S''
sg42
S'ResolvedStatus'
p1384
sg19
S''
sg15
g1383
sg28
Nsg44
S'State'
p1385
stRp1386
atRp1387
sg68
g1345
sg69
S'0'
sg70
g71
sg44
S'Resolve records for clients of type graph'
p1388
sg42
S'ResolveG'
p1389
sg74
S'41'
p1390
sg40
S'db.resolveg'
p1391
stRp1392
sS'revdx'
p1393
g3
(g4
g5
(dp1394
g7
S'depotFile'
p1395
sg9
g3
(g10
g11
(lp1396
g3
(g4
g5
(dp1397
g14
S''
sg15
g16
sg17
g16
sg18
S''
sg19
S''
sg20
g21
sg22
g23
stRp1398
ag3
(g4
g5
(dp1399
g14
S''
sg17
g26
sg18
S''
sg20
g27
sg19
S''
sg15
g26
sg28
Nsg22
g29
stRp1400
ag3
(g4
g5
(dp1401
g14
S''
sg17
g32
sg18
S''
sg20
g21
sg19
S''
sg15
g32
sg28
Nsg22
g33
stRp1402
ag3
(g4
g5
(dp1403
g14
S''
sg17
g36
sg18
S''
sg20
g27
sg19
S''
sg15
g36
sg28
Nsg22
g37
stRp1404
ag3
(g4
g5
(dp1405
g14
S''
sg40
g91
sg18
S''
sg42
g92
sg19
S''
sg15
g91
sg28
Nsg44
g93
stRp1406
ag3
(g4
g5
(dp1407
g14
S''
sg40
g96
sg18
S''
sg42
g97
sg19
S''
sg15
g96
sg28
Nsg44
g98
stRp1408
ag3
(g4
g5
(dp1409
g14
S''
sg40
g101
sg18
S''
sg42
g102
sg19
S''
sg15
g101
sg28
Nsg44
g103
stRp1410
ag3
(g4
g5
(dp1411
g14
S''
sg40
g106
sg18
S''
sg42
g107
sg19
S''
sg15
g106
sg28
Nsg44
g108
stRp1412
ag3
(g4
g5
(dp1413
g14
S''
sg40
g111
sg18
S''
sg42
g112
sg19
S''
sg15
g111
sg28
Nsg44
g113
stRp1414
ag3
(g4
g5
(dp1415
g14
S''
sg40
g116
sg18
S''
sg42
g117
sg19
S''
sg15
g116
sg28
Nsg44
g118
stRp1416
ag3
(g4
g5
(dp1417
g14
S''
sg40
g121
sg18
S''
sg42
g122
sg19
S''
sg15
g121
sg28
Nsg44
g123
stRp1418
ag3
(g4
g5
(dp1419
g14
S''
sg40
g126
sg18
S''
sg42
g127
sg19
S''
sg15
g126
sg28
Nsg44
g128
stRp1420
ag3
(g4
g5
(dp1421
g14
S''
sg40
g131
sg18
S''
sg42
g132
sg19
S''
sg15
g131
sg28
Nsg44
g133
stRp1422
ag3
(g4
g5
(dp1423
g14
S''
sg40
g136
sg18
S''
sg42
g137
sg19
S''
sg15
g136
sg28
Nsg44
g138
stRp1424
ag3
(g4
g5
(dp1425
g14
S''
sg40
g141
sg18
S''
sg42
g142
sg19
S''
sg15
g141
sg28
Nsg44
g143
stRp1426
ag3
(g4
g5
(dp1427
g14
S''
sg40
g146
sg18
S''
sg42
g147
sg19
S''
sg15
g146
sg28
Nsg44
g148
stRp1428
ag3
(g4
g5
(dp1429
g14
S''
sg40
g151
sg18
S''
sg42
g152
sg19
S''
sg15
g151
sg28
Nsg44
g153
stRp1430
ag3
(g4
g5
(dp1431
g14
S''
sg40
g156
sg18
S''
sg42
g157
sg19
S''
sg15
g156
sg28
Nsg44
g158
stRp1432
atRp1433
sg68
g1393
sg69
S'9'
sg70
g71
sg44
S'Revision records for revisions deleted at the head revision'
p1434
sg42
S'Rev'
p1435
sg74
S'49'
p1436
sg40
S'db.revdx'
p1437
stRp1438
sS'bodresolvex'
p1439
g3
(g4
g5
(dp1440
g7
S'type, shelf, toKey, attr, fromKey, fromChange'
p1441
sg9
g3
(g10
g11
(lp1442
g3
(g4
g5
(dp1443
g14
S''
sg15
g16
sg17
g16
sg18
S''
sg19
S''
sg20
g21
sg22
g23
stRp1444
ag3
(g4
g5
(dp1445
g14
S''
sg17
g26
sg18
S''
sg20
g27
sg19
S''
sg15
g26
sg28
Nsg22
g29
stRp1446
ag3
(g4
g5
(dp1447
g14
S''
sg17
g32
sg18
S''
sg20
g21
sg19
S''
sg15
g32
sg28
Nsg22
g33
stRp1448
ag3
(g4
g5
(dp1449
g14
S''
sg17
g36
sg18
S''
sg20
g27
sg19
S''
sg15
g36
sg28
Nsg22
g37
stRp1450
ag3
(g4
g5
(dp1451
g14
S''
sg40
S'type'
p1452
sg18
S''
sg42
S'SpecType'
p1453
sg19
S''
sg15
g1452
sg28
Nsg44
S'The spec type'
p1454
stRp1455
ag3
(g4
g5
(dp1456
g14
S''
sg40
S'shelf'
p1457
sg18
S''
sg42
S'Change'
p1458
sg19
S''
sg15
g1457
sg28
Nsg44
S'Shelf change ID'
p1459
stRp1460
ag3
(g4
g5
(dp1461
g14
S''
sg40
S'toKey'
p1462
sg18
S''
sg42
S'Key'
p1463
sg19
S''
sg15
g1462
sg28
Nsg44
S'To Key'
p1464
stRp1465
ag3
(g4
g5
(dp1466
g14
S''
sg40
S'attr'
p1467
sg18
S''
sg42
S'Int'
p1468
sg19
S''
sg15
g1467
sg28
Nsg44
S'The attribute value'
p1469
stRp1470
ag3
(g4
g5
(dp1471
g14
S''
sg40
S'fromKey'
p1472
sg18
S''
sg42
S'Key'
p1473
sg19
S''
sg15
g1472
sg28
Nsg44
S'From key'
p1474
stRp1475
ag3
(g4
g5
(dp1476
g14
S''
sg40
S'fromChange'
p1477
sg18
S''
sg42
S'Change'
p1478
sg19
S''
sg15
g1477
sg28
Nsg44
S'From change'
p1479
stRp1480
ag3
(g4
g5
(dp1481
g14
S''
sg40
S'baseKey'
p1482
sg18
S''
sg42
S'Key'
p1483
sg19
S''
sg15
g1482
sg28
Nsg44
S'Base Key'
p1484
stRp1485
ag3
(g4
g5
(dp1486
g14
S''
sg40
S'baseChange'
p1487
sg18
S''
sg42
S'Change'
p1488
sg19
S''
sg15
g1487
sg28
Nsg44
S'Base change'
p1489
stRp1490
ag3
(g4
g5
(dp1491
g14
S''
sg40
S'how'
p1492
sg18
S''
sg42
S'IntegHow'
p1493
sg19
S''
sg15
g1492
sg28
Nsg44
S'Integration method: variations on\n                merge/branch/copy/ignore/delete.'
p1494
stRp1495
ag3
(g4
g5
(dp1496
g14
S''
sg40
S'state'
p1497
sg18
S''
sg42
S'ResolveState'
p1498
sg19
S''
sg15
g1497
sg28
Nsg44
S'How the user performed the resolve'
p1499
stRp1500
ag3
(g4
g5
(dp1501
g14
S''
sg40
S'client'
p1502
sg18
S''
sg42
S'Domain'
p1503
sg19
S''
sg15
g1502
sg28
Nsg44
S'The client used for the resolve'
p1504
stRp1505
atRp1506
sg68
g1439
sg69
S'0'
sg70
g71
sg44
S'Pending integration records for shelved stream specifications'
p1507
sg42
S'BodyResolveX'
p1508
sg74
S'90'
p1509
sg40
S'db.bodresolvex'
p1510
stRp1511
sS'exclgx'
p1512
g3
(g4
g5
(dp1513
g7
S'lockId'
p1514
sg9
g3
(g10
g11
(lp1515
g3
(g4
g5
(dp1516
g14
S''
sg15
g16
sg17
g16
sg18
S''
sg19
S''
sg20
g21
sg22
g23
stRp1517
ag3
(g4
g5
(dp1518
g14
S''
sg17
g26
sg18
S''
sg20
g27
sg19
S''
sg15
g26
sg28
Nsg22
g29
stRp1519
ag3
(g4
g5
(dp1520
g14
S''
sg17
g32
sg18
S''
sg20
g21
sg19
S''
sg15
g32
sg28
Nsg22
g33
stRp1521
ag3
(g4
g5
(dp1522
g14
S''
sg17
g36
sg18
S''
sg20
g27
sg19
S''
sg15
g36
sg28
Nsg22
g37
stRp1523
ag3
(g4
g5
(dp1524
g14
S''
sg40
S'lockId'
p1525
sg18
S''
sg42
S'String'
p1526
sg19
S''
sg15
g1525
sg28
Nsg44
S'The git LFS lock identifier'
p1527
stRp1528
ag3
(g4
g5
(dp1529
g14
S''
sg40
S'repo'
p1530
sg18
S''
sg42
S'Key'
p1531
sg19
S''
sg15
g1530
sg28
Nsg44
S'The name of the repository on which the lock is applied'
p1532
stRp1533
ag3
(g4
g5
(dp1534
g14
S''
sg40
S'ref'
p1535
sg18
S''
sg42
S'Text'
p1536
sg19
S''
sg15
g1535
sg28
Nsg44
S'The reference on which the lock is applied'
p1537
stRp1538
ag3
(g4
g5
(dp1539
g14
S''
sg40
S'file'
p1540
sg18
S''
sg42
S'File'
p1541
sg19
S''
sg15
g1540
sg28
Nsg44
S'The git file path'
p1542
stRp1543
ag3
(g4
g5
(dp1544
g14
S''
sg40
S'user'
p1545
sg18
S''
sg42
S'User'
p1546
sg19
S''
sg15
g1545
sg28
Nsg44
S'The user for which the file is locked'
p1547
stRp1548
ag3
(g4
g5
(dp1549
g14
S''
sg40
S'created'
p1550
sg18
S''
sg42
S'String'
p1551
sg19
S''
sg15
g1550
sg28
Nsg44
S'The lock creation date stored in git data format'
p1552
stRp1553
atRp1554
sg68
g1512
sg69
S'0'
sg70
g71
sg44
S'Graph depot LFS locks indexed by lockId'
p1555
sg42
S'ExclGX'
p1556
sg74
S'68'
p1557
sg40
S'db.exclgx'
p1558
stRp1559
sS'bodtexthx'
p1560
g3
(g4
g5
(dp1561
g7
S'type, key, attr'
p1562
sg9
g3
(g10
g11
(lp1563
g3
(g4
g5
(dp1564
g14
S''
sg15
g16
sg17
g16
sg18
S''
sg19
S''
sg20
g21
sg22
g23
stRp1565
ag3
(g4
g5
(dp1566
g14
S''
sg17
g26
sg18
S''
sg20
g27
sg19
S''
sg15
g26
sg28
Nsg22
g29
stRp1567
ag3
(g4
g5
(dp1568
g14
S''
sg17
g32
sg18
S''
sg20
g21
sg19
S''
sg15
g32
sg28
Nsg22
g33
stRp1569
ag3
(g4
g5
(dp1570
g14
S''
sg17
g36
sg18
S''
sg20
g27
sg19
S''
sg15
g36
sg28
Nsg22
g37
stRp1571
ag3
(g4
g5
(dp1572
g14
S''
sg40
S'type'
p1573
sg18
S''
sg42
S'Int'
p1574
sg19
S''
sg15
g1573
sg28
Nsg44
S'The type of spec'
p1575
stRp1576
ag3
(g4
g5
(dp1577
g14
S''
sg40
S'key'
p1578
sg18
S''
sg42
S'Key'
p1579
sg19
S''
sg15
g1578
sg28
Nsg44
S'The spec to which this attribute belongs'
p1580
stRp1581
ag3
(g4
g5
(dp1582
g14
S''
sg40
S'attr'
p1583
sg18
S''
sg42
S'Int'
p1584
sg19
S''
sg15
g1583
sg28
Nsg44
S'The attribute number of this attribute'
p1585
stRp1586
ag3
(g4
g5
(dp1587
g14
S''
sg40
S'bulk'
p1588
sg18
S''
sg42
S'Int'
p1589
sg19
S''
sg15
g1588
sg28
Nsg44
S'Indicates whether (1), or not (0) the field is a bulk\n\t\t    text field that should not be indexed.'
p1590
stRp1591
ag3
(g4
g5
(dp1592
g14
S''
sg40
S'text'
p1593
sg18
S''
sg42
S'Text'
p1594
sg19
S''
sg15
g1593
sg28
Nsg44
S'The attribute value'
p1595
stRp1596
atRp1597
sg68
g1560
sg69
S'0'
sg70
g71
sg44
S'Head revision of spec fields'
p1598
sg42
S'BodyTextHx'
p1599
sg74
S'93'
p1600
sg40
S'db.bodtexthx'
p1601
stRp1602
sS'integed'
p1603
g3
(g4
g5
(dp1604
g7
S'toFile, fromFile, startFromRev, endFromRev,\n\t\t\tstartToRev, endToRev'
p1605
sg9
g3
(g10
g11
(lp1606
g3
(g4
g5
(dp1607
g14
S''
sg15
g16
sg17
g16
sg18
S''
sg19
S''
sg20
g21
sg22
g23
stRp1608
ag3
(g4
g5
(dp1609
g14
S''
sg17
g26
sg18
S''
sg20
g27
sg19
S''
sg15
g26
sg28
Nsg22
g29
stRp1610
ag3
(g4
g5
(dp1611
g14
S''
sg17
g32
sg18
S''
sg20
g21
sg19
S''
sg15
g32
sg28
Nsg22
g33
stRp1612
ag3
(g4
g5
(dp1613
g14
S''
sg17
g36
sg18
S''
sg20
g27
sg19
S''
sg15
g36
sg28
Nsg22
g37
stRp1614
ag3
(g4
g5
(dp1615
g14
S''
sg40
S'toFile'
p1616
sg18
S''
sg42
S'File'
p1617
sg19
S''
sg15
g1616
sg28
Nsg44
S'File to which integration is being performed (target).'
p1618
stRp1619
ag3
(g4
g5
(dp1620
g14
S''
sg40
S'fromFile'
p1621
sg18
S''
sg42
S'File'
p1622
sg19
S''
sg15
g1621
sg28
Nsg44
S'File from which integration is being performed (source).'
p1623
stRp1624
ag3
(g4
g5
(dp1625
g14
S''
sg40
S'startFromRev'
p1626
sg18
S''
sg42
S'Rev'
p1627
sg19
S''
sg15
g1626
sg28
Nsg44
S'Starting revision of fromFile'
p1628
stRp1629
ag3
(g4
g5
(dp1630
g14
S''
sg40
S'endFromRev'
p1631
sg18
S''
sg42
S'Rev'
p1632
sg19
S''
sg15
g1631
sg28
Nsg44
S'Ending revision of fromFile'
p1633
stRp1634
ag3
(g4
g5
(dp1635
g14
S''
sg40
S'startToRev'
p1636
sg18
S''
sg42
S'Rev'
p1637
sg19
S''
sg15
g1636
sg28
Nsg44
S'Start revision of toFile into which integration was \n\t\t    performed.'
p1638
stRp1639
ag3
(g4
g5
(dp1640
g14
S''
sg40
S'endToRev'
p1641
sg18
S''
sg42
S'Rev'
p1642
sg19
S''
sg15
g1641
sg28
Nsg44
S'End revision of toFile into which integration was \n\t\t    performed. Only varies from startToRev for reverse \n\t\t    integration records.'
p1643
stRp1644
ag3
(g4
g5
(dp1645
g14
S''
sg40
S'how'
p1646
sg18
S''
sg42
S'IntegHow'
p1647
sg19
S''
sg15
g1646
sg28
Nsg44
S'Integration method: variations on \n\t\t    merge/branch/copy/ignore/delete.'
p1648
stRp1649
ag3
(g4
g5
(dp1650
g14
S''
sg40
S'change'
p1651
sg18
S''
sg42
S'Change'
p1652
sg19
S''
sg15
g1651
sg28
Nsg44
S'Changelist associated with the integration.'
p1653
stRp1654
atRp1655
sg68
g1603
sg40
S'db.integed'
p1656
sg69
S'0'
sg70
g71
sg915
S'db.resolve'
p1657
sg42
S'Integed'
p1658
sg74
S'37'
p1659
sg44
S'Permanent integration records'
p1660
stRp1661
sS'repo'
p1662
g3
(g4
g5
(dp1663
g7
S'repo'
p1664
sg9
g3
(g10
g11
(lp1665
g3
(g4
g5
(dp1666
g14
S''
sg15
g16
sg17
g16
sg18
S''
sg19
S''
sg20
g21
sg22
g23
stRp1667
ag3
(g4
g5
(dp1668
g14
S''
sg17
g26
sg18
S''
sg20
g27
sg19
S''
sg15
g26
sg28
Nsg22
g29
stRp1669
ag3
(g4
g5
(dp1670
g14
S''
sg17
g32
sg18
S''
sg20
g21
sg19
S''
sg15
g32
sg28
Nsg22
g33
stRp1671
ag3
(g4
g5
(dp1672
g14
S''
sg17
g36
sg18
S''
sg20
g27
sg19
S''
sg15
g36
sg28
Nsg22
g37
stRp1673
ag3
(g4
g5
(dp1674
g14
S''
sg40
S'repo'
p1675
sg18
S''
sg42
S'Key'
p1676
sg19
S''
sg15
g1675
sg28
Nsg44
S'Name of the repo'
p1677
stRp1678
ag3
(g4
g5
(dp1679
g14
S''
sg40
S'owner'
p1680
sg18
S''
sg42
S'User'
p1681
sg19
S''
sg15
g1680
sg28
Nsg44
S'Owner of the repo'
p1682
stRp1683
ag3
(g4
g5
(dp1684
g14
S''
sg40
S'created'
p1685
sg18
S''
sg42
S'Date'
p1686
sg19
S''
sg15
g1685
sg28
Nsg44
S'Date the repo specification was created'
p1687
stRp1688
ag3
(g4
g5
(dp1689
g14
S''
sg40
S'pushed'
p1690
sg18
S''
sg42
S'Date'
p1691
sg19
S''
sg15
g1690
sg28
Nsg44
S'Date of the last push to the repo'
p1692
stRp1693
ag3
(g4
g5
(dp1694
g14
S''
sg40
S'forked'
p1695
sg18
S''
sg42
S'Key'
p1696
sg19
S''
sg15
g1695
sg28
Nsg44
S'Name of the repo from which this repo was forked'
p1697
stRp1698
ag3
(g4
g5
(dp1699
g14
S''
sg40
S'desc'
p1700
sg18
S''
sg42
S'Text'
p1701
sg19
S''
sg15
g1700
sg28
Nsg44
S'Repo Description'
p1702
stRp1703
ag3
(g4
g5
(dp1704
g14
S''
sg40
S'branch'
p1705
sg18
S''
sg42
S'Text'
p1706
sg19
S''
sg15
g1705
sg28
Nsg44
S'Default branch to clone from the repo'
p1707
stRp1708
ag3
(g4
g5
(dp1709
g14
S''
sg40
S'mirror'
p1710
sg18
S''
sg42
S'Text'
p1711
sg19
S''
sg15
g1710
sg28
Nsg44
S'Upstream URL that this repo is mirrored (readonly) from'
p1712
stRp1713
ag3
(g4
g5
(dp1714
g14
S''
sg40
S'options'
p1715
sg18
S''
sg42
S'Int'
p1716
sg19
S''
sg15
g1715
sg28
Nsg44
S'Repo options: 0 = nolfs, 1 = lfs'
p1717
stRp1718
ag3
(g4
g5
(dp1719
g14
S''
sg40
S'id'
p1720
sg18
S''
sg42
S'Int'
p1721
sg19
S''
sg15
g1720
sg28
Nsg44
S'Repo index ID'
p1722
stRp1723
ag3
(g4
g5
(dp1724
g14
S''
sg40
S'gcmrrserver'
p1725
sg18
S''
sg42
S'Text'
p1726
sg19
S''
sg15
g1725
sg28
Nsg44
S'gconn Mirror Server ID'
p1727
stRp1728
atRp1729
sg68
g1662
sg69
S'3'
sg70
g71
sg44
S'Repository specifications'
p1730
sg42
S'Repo'
p1731
sg74
S'75'
p1732
sg40
S'db.repo'
p1733
stRp1734
sS'revhx'
p1735
g3
(g4
g5
(dp1736
g7
S'depotFile'
p1737
sg9
g3
(g10
g11
(lp1738
g3
(g4
g5
(dp1739
g14
S''
sg15
g16
sg17
g16
sg18
S''
sg19
S''
sg20
g21
sg22
g23
stRp1740
ag3
(g4
g5
(dp1741
g14
S''
sg17
g26
sg18
S''
sg20
g27
sg19
S''
sg15
g26
sg28
Nsg22
g29
stRp1742
ag3
(g4
g5
(dp1743
g14
S''
sg17
g32
sg18
S''
sg20
g21
sg19
S''
sg15
g32
sg28
Nsg22
g33
stRp1744
ag3
(g4
g5
(dp1745
g14
S''
sg17
g36
sg18
S''
sg20
g27
sg19
S''
sg15
g36
sg28
Nsg22
g37
stRp1746
ag3
(g4
g5
(dp1747
g14
S''
sg40
g91
sg18
S''
sg42
g92
sg19
S''
sg15
g91
sg28
Nsg44
g93
stRp1748
ag3
(g4
g5
(dp1749
g14
S''
sg40
g96
sg18
S''
sg42
g97
sg19
S''
sg15
g96
sg28
Nsg44
g98
stRp1750
ag3
(g4
g5
(dp1751
g14
S''
sg40
g101
sg18
S''
sg42
g102
sg19
S''
sg15
g101
sg28
Nsg44
g103
stRp1752
ag3
(g4
g5
(dp1753
g14
S''
sg40
g106
sg18
S''
sg42
g107
sg19
S''
sg15
g106
sg28
Nsg44
g108
stRp1754
ag3
(g4
g5
(dp1755
g14
S''
sg40
g111
sg18
S''
sg42
g112
sg19
S''
sg15
g111
sg28
Nsg44
g113
stRp1756
ag3
(g4
g5
(dp1757
g14
S''
sg40
g116
sg18
S''
sg42
g117
sg19
S''
sg15
g116
sg28
Nsg44
g118
stRp1758
ag3
(g4
g5
(dp1759
g14
S''
sg40
g121
sg18
S''
sg42
g122
sg19
S''
sg15
g121
sg28
Nsg44
g123
stRp1760
ag3
(g4
g5
(dp1761
g14
S''
sg40
g126
sg18
S''
sg42
g127
sg19
S''
sg15
g126
sg28
Nsg44
g128
stRp1762
ag3
(g4
g5
(dp1763
g14
S''
sg40
g131
sg18
S''
sg42
g132
sg19
S''
sg15
g131
sg28
Nsg44
g133
stRp1764
ag3
(g4
g5
(dp1765
g14
S''
sg40
g136
sg18
S''
sg42
g137
sg19
S''
sg15
g136
sg28
Nsg44
g138
stRp1766
ag3
(g4
g5
(dp1767
g14
S''
sg40
g141
sg18
S''
sg42
g142
sg19
S''
sg15
g141
sg28
Nsg44
g143
stRp1768
ag3
(g4
g5
(dp1769
g14
S''
sg40
g146
sg18
S''
sg42
g147
sg19
S''
sg15
g146
sg28
Nsg44
g148
stRp1770
ag3
(g4
g5
(dp1771
g14
S''
sg40
g151
sg18
S''
sg42
g152
sg19
S''
sg15
g151
sg28
Nsg44
g153
stRp1772
ag3
(g4
g5
(dp1773
g14
S''
sg40
g156
sg18
S''
sg42
g157
sg19
S''
sg15
g156
sg28
Nsg44
g158
stRp1774
atRp1775
sg68
g1735
sg69
S'9'
sg70
g71
sg44
S'Revision records for revisions NOT deleted at the head revision'
p1776
sg42
S'Rev'
p1777
sg74
S'50'
p1778
sg40
S'db.revhx'
p1779
stRp1780
sS'haveg'
p1781
g3
(g4
g5
(dp1782
g7
S'repo, clientFile'
p1783
sg9
g3
(g10
g11
(lp1784
g3
(g4
g5
(dp1785
g14
S''
sg15
g16
sg17
g16
sg18
S''
sg19
S''
sg20
g21
sg22
g23
stRp1786
ag3
(g4
g5
(dp1787
g14
S''
sg17
g26
sg18
S''
sg20
g27
sg19
S''
sg15
g26
sg28
Nsg22
g29
stRp1788
ag3
(g4
g5
(dp1789
g14
S''
sg17
g32
sg18
S''
sg20
g21
sg19
S''
sg15
g32
sg28
Nsg22
g33
stRp1790
ag3
(g4
g5
(dp1791
g14
S''
sg17
g36
sg18
S''
sg20
g27
sg19
S''
sg15
g36
sg28
Nsg22
g37
stRp1792
ag3
(g4
g5
(dp1793
g14
S''
sg40
S'repo'
p1794
sg18
S''
sg42
S'Key'
p1795
sg19
S''
sg15
g1794
sg28
Nsg44
S'Repository name'
p1796
stRp1797
ag3
(g4
g5
(dp1798
g14
S''
sg40
S'clientFile'
p1799
sg18
S''
sg42
S'File'
p1800
sg19
S''
sg15
g1799
sg28
Nsg44
S'The file in its location on the client'
p1801
stRp1802
ag3
(g4
g5
(dp1803
g14
S''
sg40
S'depotFile'
p1804
sg18
S''
sg42
S'File'
p1805
sg19
S''
sg15
g1804
sg28
Nsg44
S'The git file path'
p1806
stRp1807
ag3
(g4
g5
(dp1808
g14
S''
sg40
S'client'
p1809
sg18
S''
sg42
S'Domain'
p1810
sg19
S''
sg15
g1809
sg28
Nsg44
S'Domain (client) in which file is synced'
p1811
stRp1812
ag3
(g4
g5
(dp1813
g14
S''
sg40
S'type'
p1814
sg18
S''
sg42
S'FileType'
p1815
sg19
S''
sg15
g1814
sg28
Nsg44
S'The filetype of the synced revision'
p1816
stRp1817
ag3
(g4
g5
(dp1818
g14
S''
sg40
S'action'
p1819
sg18
S''
sg42
S'Action'
p1820
sg19
S''
sg15
g1819
sg28
Nsg44
S'Action file is open for: add, edit, delete, branch, integrate, or import'
p1821
stRp1822
ag3
(g4
g5
(dp1823
g14
S''
sg40
S'blobSha'
p1824
sg18
S''
sg42
S'SHA1'
p1825
sg19
S''
sg15
g1824
sg28
Nsg44
S'SHA of blob'
p1826
stRp1827
ag3
(g4
g5
(dp1828
g14
S''
sg40
S'commitSha'
p1829
sg18
S''
sg42
S'SHA1'
p1830
sg19
S''
sg15
g1829
sg28
Nsg44
S'SHA of commit that added/edited this file'
p1831
stRp1832
ag3
(g4
g5
(dp1833
g14
S''
sg40
S'flags'
p1834
sg18
S''
sg42
S'Int'
p1835
sg19
S''
sg15
g1834
sg28
Nsg44
S'Miscellaneous flags'
p1836
stRp1837
atRp1838
sg68
g1781
sg69
S'0'
sg70
g71
sg44
S"Contains the 'have-list' for graph depot files that are not at the same revision as defined by the client's have reference."
p1839
sg42
S'Haveg'
p1840
sg74
S'65'
p1841
sg40
S'db.haveg'
p1842
stRp1843
sS'revux'
p1844
g3
(g4
g5
(dp1845
g7
S'depotFile, depotRev'
p1846
sg9
g3
(g10
g11
(lp1847
g3
(g4
g5
(dp1848
g14
S''
sg15
g16
sg17
g16
sg18
S''
sg19
S''
sg20
g21
sg22
g23
stRp1849
ag3
(g4
g5
(dp1850
g14
S''
sg17
g26
sg18
S''
sg20
g27
sg19
S''
sg15
g26
sg28
Nsg22
g29
stRp1851
ag3
(g4
g5
(dp1852
g14
S''
sg17
g32
sg18
S''
sg20
g21
sg19
S''
sg15
g32
sg28
Nsg22
g33
stRp1853
ag3
(g4
g5
(dp1854
g14
S''
sg17
g36
sg18
S''
sg20
g27
sg19
S''
sg15
g36
sg28
Nsg22
g37
stRp1855
ag3
(g4
g5
(dp1856
g14
S''
sg40
g91
sg18
S''
sg42
g92
sg19
S''
sg15
g91
sg28
Nsg44
g93
stRp1857
ag3
(g4
g5
(dp1858
g14
S''
sg40
g96
sg18
S''
sg42
g97
sg19
S''
sg15
g96
sg28
Nsg44
g98
stRp1859
ag3
(g4
g5
(dp1860
g14
S''
sg40
g101
sg18
S''
sg42
g102
sg19
S''
sg15
g101
sg28
Nsg44
g103
stRp1861
ag3
(g4
g5
(dp1862
g14
S''
sg40
g106
sg18
S''
sg42
g107
sg19
S''
sg15
g106
sg28
Nsg44
g108
stRp1863
ag3
(g4
g5
(dp1864
g14
S''
sg40
g111
sg18
S''
sg42
g112
sg19
S''
sg15
g111
sg28
Nsg44
g113
stRp1865
ag3
(g4
g5
(dp1866
g14
S''
sg40
g116
sg18
S''
sg42
g117
sg19
S''
sg15
g116
sg28
Nsg44
g118
stRp1867
ag3
(g4
g5
(dp1868
g14
S''
sg40
g121
sg18
S''
sg42
g122
sg19
S''
sg15
g121
sg28
Nsg44
g123
stRp1869
ag3
(g4
g5
(dp1870
g14
S''
sg40
g126
sg18
S''
sg42
g127
sg19
S''
sg15
g126
sg28
Nsg44
g128
stRp1871
ag3
(g4
g5
(dp1872
g14
S''
sg40
g131
sg18
S''
sg42
g132
sg19
S''
sg15
g131
sg28
Nsg44
g133
stRp1873
ag3
(g4
g5
(dp1874
g14
S''
sg40
g136
sg18
S''
sg42
g137
sg19
S''
sg15
g136
sg28
Nsg44
g138
stRp1875
ag3
(g4
g5
(dp1876
g14
S''
sg40
g141
sg18
S''
sg42
g142
sg19
S''
sg15
g141
sg28
Nsg44
g143
stRp1877
ag3
(g4
g5
(dp1878
g14
S''
sg40
g146
sg18
S''
sg42
g147
sg19
S''
sg15
g146
sg28
Nsg44
g148
stRp1879
ag3
(g4
g5
(dp1880
g14
S''
sg40
g151
sg18
S''
sg42
g152
sg19
S''
sg15
g151
sg28
Nsg44
g153
stRp1881
ag3
(g4
g5
(dp1882
g14
S''
sg40
g156
sg18
S''
sg42
g157
sg19
S''
sg15
g156
sg28
Nsg44
g158
stRp1883
atRp1884
sg68
g1844
sg69
S'9'
sg70
g71
sg44
S'Revision records for unload depot files'
p1885
sg42
S'Rev'
p1886
sg74
S'55'
p1887
sg40
S'db.revux'
p1888
stRp1889
sS'jnlack'
p1890
g3
(g4
g5
(dp1891
g7
S'serverId'
p1892
sg9
g3
(g10
g11
(lp1893
g3
(g4
g5
(dp1894
g14
S''
sg15
g16
sg17
g16
sg18
S''
sg19
S''
sg20
g21
sg22
g23
stRp1895
ag3
(g4
g5
(dp1896
g14
S''
sg17
g26
sg18
S''
sg20
g27
sg19
S''
sg15
g26
sg28
Nsg22
g29
stRp1897
ag3
(g4
g5
(dp1898
g14
S''
sg17
g32
sg18
S''
sg20
g21
sg19
S''
sg15
g32
sg28
Nsg22
g33
stRp1899
ag3
(g4
g5
(dp1900
g14
S''
sg17
g36
sg18
S''
sg20
g27
sg19
S''
sg15
g36
sg28
Nsg22
g37
stRp1901
ag3
(g4
g5
(dp1902
g14
S''
sg40
S'serverId'
p1903
sg18
S''
sg42
S'Key'
p1904
sg19
S''
sg15
g1903
sg28
Nsg44
S'The serverId of the replica for whom this record applies'
p1905
stRp1906
ag3
(g4
g5
(dp1907
g14
S''
sg40
S'lastUpdate'
p1908
sg18
S''
sg42
S'Date'
p1909
sg19
S''
sg15
g1908
sg28
Nsg44
S'The date and time of last update'
p1910
stRp1911
ag3
(g4
g5
(dp1912
g14
S''
sg40
S'serverType'
p1913
sg18
S''
sg42
S'ServerServiceType'
p1914
sg19
S''
sg15
g1913
sg28
Nsg44
S'The server services offered by this replica'
p1915
stRp1916
ag3
(g4
g5
(dp1917
g14
S''
sg40
S'persistedJnl'
p1918
sg18
S''
sg42
S'Int'
p1919
sg19
S''
sg15
g1918
sg28
Nsg44
S'The last journal number persisted by this replica'
p1920
stRp1921
ag3
(g4
g5
(dp1922
g14
S''
sg40
S'appliedJnl'
p1923
sg18
S''
sg42
S'Int'
p1924
sg19
S''
sg15
g1923
sg28
Nsg44
S'The last journal number applied by this replica'
p1925
stRp1926
ag3
(g4
g5
(dp1927
g14
S''
sg40
S'persistedPos'
p1928
sg18
S''
sg42
S'Int64'
p1929
sg19
S''
sg15
g1928
sg28
Nsg44
S'The last journal position persisted by this replica'
p1930
stRp1931
ag3
(g4
g5
(dp1932
g14
S''
sg40
S'appliedPos'
p1933
sg18
S''
sg42
S'Int64'
p1934
sg19
S''
sg15
g1933
sg28
Nsg44
S'The last journal position applied by this replica'
p1935
stRp1936
ag3
(g4
g5
(dp1937
g14
S''
sg40
S'jcflags'
p1938
sg18
S''
sg42
S'JournalCopyFlags'
p1939
sg19
S''
sg15
g1938
sg28
Nsg44
S'Journalcopy Flags'
p1940
stRp1941
ag3
(g4
g5
(dp1942
g14
S''
sg40
S'isAlive'
p1943
sg18
S''
sg42
S'Int'
p1944
sg19
S''
sg15
g1943
sg28
Nsg44
S'1 = alive'
p1945
stRp1946
ag3
(g4
g5
(dp1947
g14
S''
sg40
S'serverOptions'
p1948
sg18
S''
sg42
S'ServerOptionsType'
p1949
sg19
S''
sg15
g1948
sg28
Nsg44
S'Server Options'
p1950
stRp1951
ag3
(g4
g5
(dp1952
g14
S''
sg40
S'failoverSeen'
p1953
sg18
S''
sg42
S'Text'
p1954
sg19
S''
sg15
g1953
sg28
Nsg44
S'Failover was seen'
p1955
stRp1956
atRp1957
sg68
g1890
sg69
S'1'
sg70
g71
sg44
S'Tracks journal positions of all replicas'
p1958
sg42
S'JnlAck'
p1959
sg74
S'105'
p1960
sg40
S'db.jnlack'
p1961
stRp1962
sS'excl'
p1963
g3
(g4
g5
(dp1964
g7
S'depotFile'
p1965
sg9
g3
(g10
g11
(lp1966
g3
(g4
g5
(dp1967
g14
S''
sg15
g16
sg17
g16
sg18
S''
sg19
S''
sg20
g21
sg22
g23
stRp1968
ag3
(g4
g5
(dp1969
g14
S''
sg17
g26
sg18
S''
sg20
g27
sg19
S''
sg15
g26
sg28
Nsg22
g29
stRp1970
ag3
(g4
g5
(dp1971
g14
S''
sg17
g32
sg18
S''
sg20
g21
sg19
S''
sg15
g32
sg28
Nsg22
g33
stRp1972
ag3
(g4
g5
(dp1973
g14
S''
sg17
g36
sg18
S''
sg20
g27
sg19
S''
sg15
g36
sg28
Nsg22
g37
stRp1974
ag3
(g4
g5
(dp1975
g14
S''
sg40
S'depotFile'
p1976
sg18
S''
sg42
S'File'
p1977
sg19
S''
sg15
g1976
sg28
Nsg44
S'The file locked'
p1978
stRp1979
ag3
(g4
g5
(dp1980
g14
S''
sg40
S'client'
p1981
sg18
S''
sg42
S'Domain'
p1982
sg19
S''
sg15
g1981
sg28
Nsg44
S'The client for which the file is locked'
p1983
stRp1984
ag3
(g4
g5
(dp1985
g14
S''
sg40
S'user'
p1986
sg18
S''
sg42
S'User'
p1987
sg19
S''
sg15
g1986
sg28
Nsg44
S'The user for which the file is locked'
p1988
stRp1989
atRp1990
sg68
g1963
sg69
S'1'
sg70
g71
sg44
S'Exclusively locked (+l) files -  enables coordinated file locking in commit/edge server environments'
p1991
sg42
S'ExclusiveLock'
p1992
sg74
S'66'
p1993
sg40
S'db.excl'
p1994
stRp1995
sS'resolvex'
p1996
g3
(g4
g5
(dp1997
g7
S'toFile, fromFile, startFromRev'
p1998
sg9
g3
(g10
g11
(lp1999
g3
(g4
g5
(dp2000
g14
S''
sg15
g16
sg17
g16
sg18
S''
sg19
S''
sg20
g21
sg22
g23
stRp2001
ag3
(g4
g5
(dp2002
g14
S''
sg17
g26
sg18
S''
sg20
g27
sg19
S''
sg15
g26
sg28
Nsg22
g29
stRp2003
ag3
(g4
g5
(dp2004
g14
S''
sg17
g32
sg18
S''
sg20
g21
sg19
S''
sg15
g32
sg28
Nsg22
g33
stRp2005
ag3
(g4
g5
(dp2006
g14
S''
sg17
g36
sg18
S''
sg20
g27
sg19
S''
sg15
g36
sg28
Nsg22
g37
stRp2007
ag3
(g4
g5
(dp2008
g14
S''
sg40
S'toFile'
p2009
sg18
S''
sg42
S'File'
p2010
sg19
S''
sg15
g2009
sg28
Nsg44
S'File to which integration is being performed (target).'
p2011
stRp2012
ag3
(g4
g5
(dp2013
g14
S''
sg40
S'fromFile'
p2014
sg18
S''
sg42
S'File'
p2015
sg19
S''
sg15
g2014
sg28
Nsg44
S'File from which integration is being performed (source).'
p2016
stRp2017
ag3
(g4
g5
(dp2018
g14
S''
sg40
S'startFromRev'
p2019
sg18
S''
sg42
S'Rev'
p2020
sg19
S''
sg15
g2019
sg28
Nsg44
S'Starting revision of fromFile'
p2021
stRp2022
ag3
(g4
g5
(dp2023
g14
S''
sg40
S'endFromRev'
p2024
sg18
S''
sg42
S'Rev'
p2025
sg19
S''
sg15
g2024
sg28
Nsg44
S'Ending revision of fromFile'
p2026
stRp2027
ag3
(g4
g5
(dp2028
g14
S''
sg40
S'startToRev'
p2029
sg18
S''
sg42
S'Rev'
p2030
sg19
S''
sg15
g2029
sg28
Nsg44
S'Start revision of toFile into which integration was \n\t\t    performed.'
p2031
stRp2032
ag3
(g4
g5
(dp2033
g14
S''
sg40
S'endToRev'
p2034
sg18
S''
sg42
S'Rev'
p2035
sg19
S''
sg15
g2034
sg28
Nsg44
S'End revision of toFile into which integration was \n\t\t    performed. Only varies from startToRev for reverse \n\t\t    integration records.'
p2036
stRp2037
ag3
(g4
g5
(dp2038
g14
S''
sg40
S'how'
p2039
sg18
S''
sg42
S'IntegHow'
p2040
sg19
S''
sg15
g2039
sg28
Nsg44
S'Integration method: variations on \n\t\t    merge/branch/copy/ignore/delete.'
p2041
stRp2042
ag3
(g4
g5
(dp2043
g14
S''
sg40
S'state'
p2044
sg18
S''
sg42
S'ResolveState'
p2045
sg19
S''
sg15
g2044
sg28
Nsg44
S'How the user performed the resolve.'
p2046
stRp2047
ag3
(g4
g5
(dp2048
g14
S''
sg40
S'baseFile'
p2049
sg18
S''
sg42
S'File'
p2050
sg19
S''
sg15
g2049
sg28
Nsg44
S'File used as the base for merging.'
p2051
stRp2052
ag3
(g4
g5
(dp2053
g14
S''
sg40
S'baseRev'
p2054
sg18
S''
sg42
S'Rev'
p2055
sg19
S''
sg15
g2054
sg28
Nsg44
S'Revision of baseFile used as the merge base.'
p2056
stRp2057
atRp2058
sg68
g1996
sg40
S'db.resolvex'
p2059
sg69
S'1'
sg70
g71
sg915
S'db.integed'
p2060
sg42
S'Resolve'
p2061
sg74
S'40'
p2062
sg44
S'Pending integration records for shelved files'
p2063
stRp2064
sS'desc'
p2065
g3
(g4
g5
(dp2066
g7
S'descKey'
p2067
sg9
g3
(g10
g11
(lp2068
g3
(g4
g5
(dp2069
g14
S''
sg15
g16
sg17
g16
sg18
S''
sg19
S''
sg20
g21
sg22
g23
stRp2070
ag3
(g4
g5
(dp2071
g14
S''
sg17
g26
sg18
S''
sg20
g27
sg19
S''
sg15
g26
sg28
Nsg22
g29
stRp2072
ag3
(g4
g5
(dp2073
g14
S''
sg17
g32
sg18
S''
sg20
g21
sg19
S''
sg15
g32
sg28
Nsg22
g33
stRp2074
ag3
(g4
g5
(dp2075
g14
S''
sg17
g36
sg18
S''
sg20
g27
sg19
S''
sg15
g36
sg28
Nsg22
g37
stRp2076
ag3
(g4
g5
(dp2077
g14
S''
sg40
S'descKey'
p2078
sg18
S''
sg42
S'Change'
p2079
sg19
S''
sg15
g2078
sg28
Nsg44
S'Original number of the change to which this description\n\t\t    applies. This may differ from the final change number if\n\t\t    the change is renumbered on submission.'
p2080
stRp2081
ag3
(g4
g5
(dp2082
g14
S''
sg40
S'description'
p2083
sg18
S''
sg42
S'Text'
p2084
sg19
S''
sg15
g2083
sg28
Nsg44
S'The change description itself'
p2085
stRp2086
atRp2087
sg68
g2065
sg69
S'0'
sg70
g71
sg44
S'Change descriptions'
p2088
sg42
S'Desc'
p2089
sg74
S'74'
p2090
sg40
S'db.desc'
p2091
stRp2092
sS'resolve'
p2093
g3
(g4
g5
(dp2094
g7
S'toFile, fromFile, startFromRev'
p2095
sg9
g3
(g10
g11
(lp2096
g3
(g4
g5
(dp2097
g14
S''
sg15
g16
sg17
g16
sg18
S''
sg19
S''
sg20
g21
sg22
g23
stRp2098
ag3
(g4
g5
(dp2099
g14
S''
sg17
g26
sg18
S''
sg20
g27
sg19
S''
sg15
g26
sg28
Nsg22
g29
stRp2100
ag3
(g4
g5
(dp2101
g14
S''
sg17
g32
sg18
S''
sg20
g21
sg19
S''
sg15
g32
sg28
Nsg22
g33
stRp2102
ag3
(g4
g5
(dp2103
g14
S''
sg17
g36
sg18
S''
sg20
g27
sg19
S''
sg15
g36
sg28
Nsg22
g37
stRp2104
ag3
(g4
g5
(dp2105
g14
S''
sg40
g2009
sg18
S''
sg42
g2010
sg19
S''
sg15
g2009
sg28
Nsg44
g2011
stRp2106
ag3
(g4
g5
(dp2107
g14
S''
sg40
g2014
sg18
S''
sg42
g2015
sg19
S''
sg15
g2014
sg28
Nsg44
g2016
stRp2108
ag3
(g4
g5
(dp2109
g14
S''
sg40
g2019
sg18
S''
sg42
g2020
sg19
S''
sg15
g2019
sg28
Nsg44
g2021
stRp2110
ag3
(g4
g5
(dp2111
g14
S''
sg40
g2024
sg18
S''
sg42
g2025
sg19
S''
sg15
g2024
sg28
Nsg44
g2026
stRp2112
ag3
(g4
g5
(dp2113
g14
S''
sg40
g2029
sg18
S''
sg42
g2030
sg19
S''
sg15
g2029
sg28
Nsg44
g2031
stRp2114
ag3
(g4
g5
(dp2115
g14
S''
sg40
g2034
sg18
S''
sg42
g2035
sg19
S''
sg15
g2034
sg28
Nsg44
g2036
stRp2116
ag3
(g4
g5
(dp2117
g14
S''
sg40
g2039
sg18
S''
sg42
g2040
sg19
S''
sg15
g2039
sg28
Nsg44
g2041
stRp2118
ag3
(g4
g5
(dp2119
g14
S''
sg40
g2044
sg18
S''
sg42
g2045
sg19
S''
sg15
g2044
sg28
Nsg44
g2046
stRp2120
ag3
(g4
g5
(dp2121
g14
S''
sg40
g2049
sg18
S''
sg42
g2050
sg19
S''
sg15
g2049
sg28
Nsg44
g2051
stRp2122
ag3
(g4
g5
(dp2123
g14
S''
sg40
g2054
sg18
S''
sg42
g2055
sg19
S''
sg15
g2054
sg28
Nsg44
g2056
stRp2124
atRp2125
sg68
g2093
sg40
S'db.resolve'
p2126
sg69
S'1'
sg70
g71
sg915
S'db.integed'
p2127
sg42
S'Resolve'
p2128
sg74
S'39'
p2129
sg44
S'Pending integration records'
p2130
stRp2131
sS'integedss'
p2132
g3
(g4
g5
(dp2133
g7
S'toKey, attr, fromKey, fromChange'
p2134
sg9
g3
(g10
g11
(lp2135
g3
(g4
g5
(dp2136
g14
S''
sg15
g16
sg17
g16
sg18
S''
sg19
S''
sg20
g21
sg22
g23
stRp2137
ag3
(g4
g5
(dp2138
g14
S''
sg17
g26
sg18
S''
sg20
g27
sg19
S''
sg15
g26
sg28
Nsg22
g29
stRp2139
ag3
(g4
g5
(dp2140
g14
S''
sg17
g32
sg18
S''
sg20
g21
sg19
S''
sg15
g32
sg28
Nsg22
g33
stRp2141
ag3
(g4
g5
(dp2142
g14
S''
sg17
g36
sg18
S''
sg20
g27
sg19
S''
sg15
g36
sg28
Nsg22
g37
stRp2143
ag3
(g4
g5
(dp2144
g14
S''
sg40
S'toKey'
p2145
sg18
S''
sg42
S'Key'
p2146
sg19
S''
sg15
g2145
sg28
Nsg44
S'Stream specification to which integration is being performed (target)'
p2147
stRp2148
ag3
(g4
g5
(dp2149
g14
S''
sg40
S'attr'
p2150
sg18
S''
sg42
S'Int'
p2151
sg19
S''
sg15
g2150
sg28
Nsg44
S'The specification field id which is being integrated'
p2152
stRp2153
ag3
(g4
g5
(dp2154
g14
S''
sg40
S'fromKey'
p2155
sg18
S''
sg42
S'Key'
p2156
sg19
S''
sg15
g2155
sg28
Nsg44
S'Stream specification from which integration is being performed (source)'
p2157
stRp2158
ag3
(g4
g5
(dp2159
g14
S''
sg40
S'fromChange'
p2160
sg18
S''
sg42
S'Change'
p2161
sg19
S''
sg15
g2160
sg28
Nsg44
S'The ending changelist number of the fromKey'
p2162
stRp2163
ag3
(g4
g5
(dp2164
g14
S''
sg40
S'baseKey'
p2165
sg18
S''
sg42
S'Key'
p2166
sg19
S''
sg15
g2165
sg28
Nsg44
S'The base stream specification from which the integration is being performed (source)'
p2167
stRp2168
ag3
(g4
g5
(dp2169
g14
S''
sg40
S'baseChange'
p2170
sg18
S''
sg42
S'Change'
p2171
sg19
S''
sg15
g2170
sg28
Nsg44
S'The base changelist number of the baseKey'
p2172
stRp2173
ag3
(g4
g5
(dp2174
g14
S''
sg40
S'how'
p2175
sg18
S''
sg42
S'IntegHow'
p2176
sg19
S''
sg15
g2175
sg28
Nsg44
S'Integration method: variations on merge/branch/copy/ignore/delete'
p2177
stRp2178
ag3
(g4
g5
(dp2179
g14
S''
sg40
S'change'
p2180
sg18
S''
sg42
S'Change'
p2181
sg19
S''
sg15
g2180
sg28
Nsg44
S'End changelist number of the toKey into which integration was performed'
p2182
stRp2183
atRp2184
sg68
g2132
sg69
S'0'
sg70
g71
sg44
S'Stream specification integration history'
p2185
sg42
S'StreamSpecInteged'
p2186
sg74
S'22'
p2187
sg40
S'db.integedss'
p2188
stRp2189
sS'traits'
p2190
g3
(g4
g5
(dp2191
g7
S'traitLot, name'
p2192
sg9
g3
(g10
g11
(lp2193
g3
(g4
g5
(dp2194
g14
S''
sg15
g16
sg17
g16
sg18
S''
sg19
S''
sg20
g21
sg22
g23
stRp2195
ag3
(g4
g5
(dp2196
g14
S''
sg17
g26
sg18
S''
sg20
g27
sg19
S''
sg15
g26
sg28
Nsg22
g29
stRp2197
ag3
(g4
g5
(dp2198
g14
S''
sg17
g32
sg18
S''
sg20
g21
sg19
S''
sg15
g32
sg28
Nsg22
g33
stRp2199
ag3
(g4
g5
(dp2200
g14
S''
sg17
g36
sg18
S''
sg20
g27
sg19
S''
sg15
g36
sg28
Nsg22
g37
stRp2201
ag3
(g4
g5
(dp2202
g14
S''
sg40
S'traitLot'
p2203
sg18
S''
sg42
S'Int'
p2204
sg19
S''
sg15
g2203
sg28
Nsg44
S'Indicates a specific collection of traits (referred to \n\t\t    externally as "attributes".)'
p2205
stRp2206
ag3
(g4
g5
(dp2207
g14
S''
sg40
S'name'
p2208
sg18
S''
sg42
S'Key'
p2209
sg19
S''
sg15
g2208
sg28
Nsg44
S'Trait (attribute) name'
p2210
stRp2211
ag3
(g4
g5
(dp2212
g14
S''
sg40
S'type'
p2213
sg18
S''
sg42
S'TraitType'
p2214
sg19
S''
sg15
g2213
sg28
Nsg44
S'Type of trait'
p2215
stRp2216
ag3
(g4
g5
(dp2217
g14
S''
sg40
S'value'
p2218
sg18
S''
sg42
S'Octet String'
p2219
sg19
S''
sg15
g2218
sg28
Nsg44
S'The value'
p2220
stRp2221
atRp2222
sg68
g2190
sg69
S'0'
sg70
g71
sg44
S'Attributes associated with file revisions'
p2223
sg42
S'Trait'
p2224
sg74
S'69'
p2225
sg40
S'db.traits'
p2226
stRp2227
sS'ref'
p2228
g3
(g4
g5
(dp2229
g7
S'repo, type, name'
p2230
sg9
g3
(g10
g11
(lp2231
g3
(g4
g5
(dp2232
g14
S''
sg15
g16
sg17
g16
sg18
S''
sg19
S''
sg20
g21
sg22
g23
stRp2233
ag3
(g4
g5
(dp2234
g14
S''
sg17
g26
sg18
S''
sg20
g27
sg19
S''
sg15
g26
sg28
Nsg22
g29
stRp2235
ag3
(g4
g5
(dp2236
g14
S''
sg17
g32
sg18
S''
sg20
g21
sg19
S''
sg15
g32
sg28
Nsg22
g33
stRp2237
ag3
(g4
g5
(dp2238
g14
S''
sg17
g36
sg18
S''
sg20
g27
sg19
S''
sg15
g36
sg28
Nsg22
g37
stRp2239
ag3
(g4
g5
(dp2240
g14
S''
sg40
S'repo'
p2241
sg18
S''
sg42
S'Key'
p2242
sg19
S''
sg15
g2241
sg28
Nsg44
S'Repository name'
p2243
stRp2244
ag3
(g4
g5
(dp2245
g14
S''
sg40
S'name'
p2246
sg18
S''
sg42
S'Key'
p2247
sg19
S''
sg15
g2246
sg28
Nsg44
S'Reference name'
p2248
stRp2249
ag3
(g4
g5
(dp2250
g14
S''
sg40
S'type'
p2251
sg18
S''
sg42
S'RefType'
p2252
sg19
S''
sg15
g2251
sg28
Nsg44
S'Reference type'
p2253
stRp2254
ag3
(g4
g5
(dp2255
g14
S''
sg40
S'ref'
p2256
sg18
S''
sg42
S'SHA1'
p2257
sg19
S''
sg15
g2256
sg28
Nsg44
S'Target of the reference'
p2258
stRp2259
ag3
(g4
g5
(dp2260
g14
S''
sg40
S'symref'
p2261
sg18
S''
sg42
S'Text'
p2262
sg19
S''
sg15
g2261
sg28
Nsg44
S'Target of symbolic reference'
p2263
stRp2264
atRp2265
sg68
g2228
sg69
S'0'
sg70
g71
sg44
S'Reference content for graph depots'
p2266
sg42
S'Ref'
p2267
sg74
S'77'
p2268
sg40
S'db.ref'
p2269
stRp2270
sS'server'
p2271
g3
(g4
g5
(dp2272
g7
S'id'
p2273
sg9
g3
(g10
g11
(lp2274
g3
(g4
g5
(dp2275
g14
S''
sg15
g16
sg17
g16
sg18
S''
sg19
S''
sg20
g21
sg22
g23
stRp2276
ag3
(g4
g5
(dp2277
g14
S''
sg17
g26
sg18
S''
sg20
g27
sg19
S''
sg15
g26
sg28
Nsg22
g29
stRp2278
ag3
(g4
g5
(dp2279
g14
S''
sg17
g32
sg18
S''
sg20
g21
sg19
S''
sg15
g32
sg28
Nsg22
g33
stRp2280
ag3
(g4
g5
(dp2281
g14
S''
sg17
g36
sg18
S''
sg20
g27
sg19
S''
sg15
g36
sg28
Nsg22
g37
stRp2282
ag3
(g4
g5
(dp2283
g14
S''
sg40
S'id'
p2284
sg18
S''
sg42
S'Key'
p2285
sg19
S''
sg15
g2284
sg28
Nsg44
S'The server identifier'
p2286
stRp2287
ag3
(g4
g5
(dp2288
g14
S''
sg40
S'type'
p2289
sg18
S''
sg42
S'ServerType'
p2290
sg19
S''
sg15
g2289
sg28
Nsg44
S'The server type: server/broker/proxy'
p2291
stRp2292
ag3
(g4
g5
(dp2293
g14
S''
sg40
S'name'
p2294
sg18
S''
sg42
S'Text'
p2295
sg19
S''
sg15
g2294
sg28
Nsg44
S'The P4NAME used by this server'
p2296
stRp2297
ag3
(g4
g5
(dp2298
g14
S''
sg40
S'address'
p2299
sg18
S''
sg42
S'Text'
p2300
sg19
S''
sg15
g2299
sg28
Nsg44
S'The P4PORT used by this server'
p2301
stRp2302
ag3
(g4
g5
(dp2303
g14
S''
sg40
S'externalAddress'
p2304
sg18
S''
sg42
S'Text'
p2305
sg19
S''
sg15
g2304
sg28
Nsg44
S'For an edge server, this optional field contains its external address for connections from the commit server. This field is required for federated parallel submit.'
p2306
stRp2307
ag3
(g4
g5
(dp2308
g14
S''
sg40
S'services'
p2309
sg18
S''
sg42
S'ServerServiceType'
p2310
sg19
S''
sg15
g2309
sg28
Nsg44
S'Service provided by this server'
p2311
stRp2312
ag3
(g4
g5
(dp2313
g14
S''
sg40
S'desc'
p2314
sg18
S''
sg42
S'Text'
p2315
sg19
S''
sg15
g2314
sg28
Nsg44
S'Server description'
p2316
stRp2317
ag3
(g4
g5
(dp2318
g14
S''
sg40
S'user'
p2319
sg18
S''
sg42
S'User'
p2320
sg19
S''
sg15
g2319
sg28
Nsg44
S'The service user used by this server'
p2321
stRp2322
ag3
(g4
g5
(dp2323
g14
S''
sg40
S'options'
p2324
sg18
S''
sg42
S'ServerOptionsType'
p2325
sg19
S''
sg15
g2324
sg28
Nsg44
S'Server options'
p2326
stRp2327
ag3
(g4
g5
(dp2328
g14
S''
sg40
S'rplFrom'
p2329
sg18
S''
sg42
S'Key'
p2330
sg19
S''
sg15
g2329
sg28
Nsg44
S'Replication from Server ID'
p2331
stRp2332
ag3
(g4
g5
(dp2333
g14
S''
sg40
S'failoverSeen'
p2334
sg18
S''
sg42
S'Text'
p2335
sg19
S''
sg15
g2334
sg28
Nsg44
S'Mark failover as seen'
p2336
stRp2337
atRp2338
sg68
g2271
sg69
S'3'
sg70
g71
sg44
S'Server specifications'
p2339
sg42
S'Server'
p2340
sg74
S'9'
sg40
S'db.server'
p2341
stRp2342
sS'scanctl'
p2343
g3
(g4
g5
(dp2344
g7
S'file'
p2345
sg9
g3
(g10
g11
(lp2346
g3
(g4
g5
(dp2347
g14
S''
sg15
g16
sg17
g16
sg18
S''
sg19
S''
sg20
g21
sg22
g23
stRp2348
ag3
(g4
g5
(dp2349
g14
S''
sg17
g26
sg18
S''
sg20
g27
sg19
S''
sg15
g26
sg28
Nsg22
g29
stRp2350
ag3
(g4
g5
(dp2351
g14
S''
sg17
g32
sg18
S''
sg20
g21
sg19
S''
sg15
g32
sg28
Nsg22
g33
stRp2352
ag3
(g4
g5
(dp2353
g14
S''
sg17
g36
sg18
S''
sg20
g27
sg19
S''
sg15
g36
sg28
Nsg22
g37
stRp2354
ag3
(g4
g5
(dp2355
g14
S''
sg40
S'depotPath'
p2356
sg18
S''
sg42
S'File'
p2357
sg19
S''
sg15
g2356
sg28
Nsg44
S'name of scanner task'
p2358
stRp2359
ag3
(g4
g5
(dp2360
g14
S''
sg40
S'state'
p2361
sg18
S''
sg42
S'ScanState'
p2362
sg19
S''
sg15
g2361
sg28
Nsg44
S'scan state'
p2363
stRp2364
ag3
(g4
g5
(dp2365
g14
S''
sg40
S'seq'
p2366
sg18
S''
sg42
S'Int'
p2367
sg19
S''
sg15
g2366
sg28
Nsg44
S'Next internal sequence number of working directories'
p2368
stRp2369
ag3
(g4
g5
(dp2370
g14
S''
sg40
S'dirs'
p2371
sg18
S''
sg42
S'Int'
p2372
sg19
S''
sg15
g2371
sg28
Nsg44
S'directories processed'
p2373
stRp2374
ag3
(g4
g5
(dp2375
g14
S''
sg40
S'files'
p2376
sg18
S''
sg42
S'Int'
p2377
sg19
S''
sg15
g2376
sg28
Nsg44
S'files processed'
p2378
stRp2379
ag3
(g4
g5
(dp2380
g14
S''
sg40
S'zeros'
p2381
sg18
S''
sg42
S'Int'
p2382
sg19
S''
sg15
g2381
sg28
Nsg44
S'orphaned revisions'
p2383
stRp2384
ag3
(g4
g5
(dp2385
g14
S''
sg40
S'dirserr'
p2386
sg18
S''
sg42
S'Int'
p2387
sg19
S''
sg15
g2386
sg28
Nsg44
S'directories skipped due to errors'
p2388
stRp2389
ag3
(g4
g5
(dp2390
g14
S''
sg40
S'pri'
p2391
sg18
S''
sg42
S'Int'
p2392
sg19
S''
sg15
g2391
sg28
Nsg44
S'Priority (unused)'
p2393
stRp2394
ag3
(g4
g5
(dp2395
g14
S''
sg40
S'reqpause'
p2396
sg18
S''
sg42
S'Int'
p2397
sg19
S''
sg15
g2396
sg28
Nsg44
S'request paused'
p2398
stRp2399
ag3
(g4
g5
(dp2400
g14
S''
sg40
S'err'
p2401
sg18
S''
sg42
S'Text'
p2402
sg19
S''
sg15
g2401
sg28
Nsg44
S'background process error'
p2403
stRp2404
atRp2405
sg68
g2343
sg69
S'0'
sg70
g71
sg44
S'ScanCtl'
p2406
sg42
S'ScanCtl'
p2407
sg74
S'45'
p2408
sg40
S'db.scanctl'
p2409
stRp2410
sS'upgradesrp'
p2411
g3
(g4
g5
(dp2412
g7
S'seq'
p2413
sg9
g3
(g10
g11
(lp2414
g3
(g4
g5
(dp2415
g14
S''
sg15
g16
sg17
g16
sg18
S''
sg19
S''
sg20
g21
sg22
g23
stRp2416
ag3
(g4
g5
(dp2417
g14
S''
sg17
g26
sg18
S''
sg20
g27
sg19
S''
sg15
g26
sg28
Nsg22
g29
stRp2418
ag3
(g4
g5
(dp2419
g14
S''
sg17
g32
sg18
S''
sg20
g21
sg19
S''
sg15
g32
sg28
Nsg22
g33
stRp2420
ag3
(g4
g5
(dp2421
g14
S''
sg17
g36
sg18
S''
sg20
g27
sg19
S''
sg15
g36
sg28
Nsg22
g37
stRp2422
ag3
(g4
g5
(dp2423
g14
S''
sg40
g316
sg18
S''
sg42
g317
sg19
S''
sg15
g316
sg28
Nsg44
g318
stRp2424
ag3
(g4
g5
(dp2425
g14
S''
sg40
g321
sg18
S''
sg42
g322
sg19
S''
sg15
g321
sg28
Nsg44
g323
stRp2426
ag3
(g4
g5
(dp2427
g14
S''
sg40
g326
sg18
S''
sg42
g327
sg19
S''
sg15
g326
sg28
Nsg44
g328
stRp2428
ag3
(g4
g5
(dp2429
g14
S''
sg40
g331
sg18
S''
sg42
g332
sg19
S''
sg15
g331
sg28
Nsg44
g333
stRp2430
ag3
(g4
g5
(dp2431
g14
S''
sg40
g336
sg18
S''
sg42
g337
sg19
S''
sg15
g336
sg28
Nsg44
g338
stRp2432
ag3
(g4
g5
(dp2433
g14
S''
sg40
g341
sg18
S''
sg42
g342
sg19
S''
sg15
g341
sg28
Nsg44
g343
stRp2434
atRp2435
sg68
g2411
sg69
S'0'
sg70
g71
sg44
S'Store replica upgrade info'
p2436
sg42
S'Upgrades'
p2437
sg74
S'5'
sg40
S'db.upgrades.rp'
p2438
stRp2439
sS'property'
p2440
g3
(g4
g5
(dp2441
g7
S'name, seq, type, scope'
p2442
sg9
g3
(g10
g11
(lp2443
g3
(g4
g5
(dp2444
g14
S''
sg15
g16
sg17
g16
sg18
S''
sg19
S''
sg20
g21
sg22
g23
stRp2445
ag3
(g4
g5
(dp2446
g14
S''
sg17
g26
sg18
S''
sg20
g27
sg19
S''
sg15
g26
sg28
Nsg22
g29
stRp2447
ag3
(g4
g5
(dp2448
g14
S''
sg17
g32
sg18
S''
sg20
g21
sg19
S''
sg15
g32
sg28
Nsg22
g33
stRp2449
ag3
(g4
g5
(dp2450
g14
S''
sg17
g36
sg18
S''
sg20
g27
sg19
S''
sg15
g36
sg28
Nsg22
g37
stRp2451
ag3
(g4
g5
(dp2452
g14
S''
sg40
S'name'
p2453
sg18
S''
sg42
S'Key'
p2454
sg19
S''
sg15
g2453
sg28
Nsg44
S'The property name'
p2455
stRp2456
ag3
(g4
g5
(dp2457
g14
S''
sg40
S'seq'
p2458
sg18
S''
sg42
S'Int'
p2459
sg19
S''
sg15
g2458
sg28
Nsg44
S'Sequence number of property'
p2460
stRp2461
ag3
(g4
g5
(dp2462
g14
S''
sg40
S'type'
p2463
sg18
S''
sg42
S'UserType'
p2464
sg19
S''
sg15
g2463
sg28
Nsg44
S'Only uses 1=user or 2=group and only applies when scope is set'
p2465
stRp2466
ag3
(g4
g5
(dp2467
g14
S''
sg40
S'scope'
p2468
sg18
S''
sg42
S'User'
p2469
sg19
S''
sg15
g2468
sg28
Nsg44
S'The user or group the property applies to (may be empty)'
p2470
stRp2471
ag3
(g4
g5
(dp2472
g14
S''
sg40
S'value'
p2473
sg18
S''
sg42
S'Value'
p2474
sg19
S''
sg15
g2473
sg28
Nsg44
S'The property value'
p2475
stRp2476
ag3
(g4
g5
(dp2477
g14
S''
sg40
S'date'
p2478
sg18
S''
sg42
S'Date'
p2479
sg19
S''
sg15
g2478
sg28
Nsg44
S'The date/time the property was last updated'
p2480
stRp2481
ag3
(g4
g5
(dp2482
g14
S''
sg40
S'user'
p2483
sg18
S''
sg42
S'User'
p2484
sg19
S''
sg15
g2483
sg28
Nsg44
S'The user that last modified the property'
p2485
stRp2486
atRp2487
sg68
g2440
sg69
S'0'
sg70
g71
sg44
S'Properties'
p2488
sg42
S'Property'
p2489
sg74
S'101'
p2490
sg40
S'db.property'
p2491
stRp2492
sS'view'
p2493
g3
(g4
g5
(dp2494
g7
S'name, seq'
p2495
sg9
g3
(g10
g11
(lp2496
g3
(g4
g5
(dp2497
g14
S''
sg15
g16
sg17
g16
sg18
S''
sg19
S''
sg20
g21
sg22
g23
stRp2498
ag3
(g4
g5
(dp2499
g14
S''
sg17
g26
sg18
S''
sg20
g27
sg19
S''
sg15
g26
sg28
Nsg22
g29
stRp2500
ag3
(g4
g5
(dp2501
g14
S''
sg17
g32
sg18
S''
sg20
g21
sg19
S''
sg15
g32
sg28
Nsg22
g33
stRp2502
ag3
(g4
g5
(dp2503
g14
S''
sg17
g36
sg18
S''
sg20
g27
sg19
S''
sg15
g36
sg28
Nsg22
g37
stRp2504
ag3
(g4
g5
(dp2505
g14
S''
sg40
S'name'
p2506
sg18
S''
sg42
S'Domain'
p2507
sg19
S''
sg15
g2506
sg28
Nsg44
S'Domain name to which this view applies'
p2508
stRp2509
ag3
(g4
g5
(dp2510
g14
S''
sg40
S'seq'
p2511
sg18
S''
sg42
S'Int'
p2512
sg19
S''
sg15
g2511
sg28
Nsg44
S'Sequence number: for ordering multi-line views'
p2513
stRp2514
ag3
(g4
g5
(dp2515
g14
S''
sg40
S'mapFlag'
p2516
sg18
S''
sg42
S'MapFlag'
p2517
sg19
S''
sg15
g2516
sg28
Nsg44
S'Type of mapping'
p2518
stRp2519
ag3
(g4
g5
(dp2520
g14
S''
sg40
S'viewFile'
p2521
sg18
S''
sg42
S'Mapping'
p2522
sg19
S''
sg15
g2521
sg28
Nsg44
S"The right-hand-side of the view. For clients, this is\n\t\t    the client-side, for labels it's the generated label \n\t\t    view. For branches, it's the target side of the branch\n\t\t    view."
p2523
stRp2524
ag3
(g4
g5
(dp2525
g14
S''
sg40
S'depotFile'
p2526
sg18
S''
sg42
S'Mapping'
p2527
sg19
S''
sg15
g2526
sg28
Nsg44
S'The left-hand-side of the view - a mapping to file(s)\n\t\t    in the depot.'
p2528
stRp2529
atRp2530
sg68
g2493
sg69
S'1'
sg70
g71
sg44
S'View data for domain records'
p2531
sg42
S'View'
p2532
sg74
S'28'
p2533
sg40
S'db.view'
p2534
stRp2535
sS'user'
p2536
g3
(g4
g5
(dp2537
g7
S'user'
p2538
sg9
g3
(g10
g11
(lp2539
g3
(g4
g5
(dp2540
g14
S''
sg15
g16
sg17
g16
sg18
S''
sg19
S''
sg20
g21
sg22
g23
stRp2541
ag3
(g4
g5
(dp2542
g14
S''
sg17
g26
sg18
S''
sg20
g27
sg19
S''
sg15
g26
sg28
Nsg22
g29
stRp2543
ag3
(g4
g5
(dp2544
g14
S''
sg17
g32
sg18
S''
sg20
g21
sg19
S''
sg15
g32
sg28
Nsg22
g33
stRp2545
ag3
(g4
g5
(dp2546
g14
S''
sg17
g36
sg18
S''
sg20
g27
sg19
S''
sg15
g36
sg28
Nsg22
g37
stRp2547
ag3
(g4
g5
(dp2548
g14
S''
sg40
S'user'
p2549
sg18
S''
sg42
S'User'
p2550
sg19
S''
sg15
g2549
sg28
Nsg44
S'The username'
p2551
stRp2552
ag3
(g4
g5
(dp2553
g14
S''
sg40
S'email'
p2554
sg18
S''
sg42
S'Text'
p2555
sg19
S''
sg15
g2554
sg28
Nsg44
S"The user's email address"
p2556
stRp2557
ag3
(g4
g5
(dp2558
g14
S''
sg40
S'jobView'
p2559
sg18
S''
sg42
S'Text'
p2560
sg19
S''
sg15
g2559
sg28
Nsg44
S"The user's job view"
p2561
stRp2562
ag3
(g4
g5
(dp2563
g14
S''
sg40
S'updateDate'
p2564
sg18
S''
sg42
S'Date'
p2565
sg19
S''
sg15
g2564
sg28
Nsg44
S'The date/time the user record was last updated'
p2566
stRp2567
ag3
(g4
g5
(dp2568
g14
S''
sg40
S'accessDate'
p2569
sg18
S''
sg42
S'Date'
p2570
sg19
S''
sg15
g2569
sg28
Nsg44
S'The date/time the user record was last used'
p2571
stRp2572
ag3
(g4
g5
(dp2573
g14
S''
sg40
S'fullName'
p2574
sg18
S''
sg42
S'Text'
p2575
sg19
S''
sg15
g2574
sg28
Nsg44
S"The user's full name"
p2576
stRp2577
ag3
(g4
g5
(dp2578
g14
S''
sg40
S'password'
p2579
sg18
S''
sg42
S'Password'
p2580
sg19
S''
sg15
g2579
sg28
Nsg44
S'The MD5 hash of the users (encrypted) password'
p2581
stRp2582
ag3
(g4
g5
(dp2583
g14
S''
sg40
S'strength'
p2584
sg18
S''
sg42
S'Strength'
p2585
sg19
S''
sg15
g2584
sg28
Nsg44
S"Measure of the strength of the user's password"
p2586
stRp2587
ag3
(g4
g5
(dp2588
g14
S''
sg40
S'ticket'
p2589
sg18
S''
sg42
S'Password'
p2590
sg19
S''
sg15
g2589
sg28
Nsg44
S"'p4 login' ticket for this user"
p2591
stRp2592
ag3
(g4
g5
(dp2593
g14
S''
sg40
S'endDate'
p2594
sg18
S''
sg42
S'Date'
p2595
sg19
S''
sg15
g2594
sg28
Nsg44
S"Date/time the user's ticket expires"
p2596
stRp2597
ag3
(g4
g5
(dp2598
g14
S''
sg40
S'type'
p2599
sg18
S''
sg42
S'UserLevel'
p2600
sg19
S''
sg15
g2599
sg28
Nsg44
S'Type of user'
p2601
stRp2602
ag3
(g4
g5
(dp2603
g14
S''
sg40
S'passDate'
p2604
sg18
S''
sg42
S'Date'
p2605
sg19
S''
sg15
g2604
sg28
Nsg44
S'Date password was last changed'
p2606
stRp2607
ag3
(g4
g5
(dp2608
g14
S''
sg40
S'passExpire'
p2609
sg18
S''
sg42
S'Date'
p2610
sg19
S''
sg15
g2609
sg28
Nsg44
S'Date of password expiration'
p2611
stRp2612
ag3
(g4
g5
(dp2613
g14
S''
sg40
S'attempts'
p2614
sg18
S''
sg42
S'Date'
p2615
sg19
S''
sg15
g2614
sg28
Nsg44
S'Failed login attempts'
p2616
stRp2617
ag3
(g4
g5
(dp2618
g14
S''
sg40
S'auth'
p2619
sg18
S''
sg42
S'UserAuthType'
p2620
sg19
S''
sg15
g2619
sg28
Nsg44
S'Authentication method (AuthMethod) for the user'
p2621
stRp2622
atRp2623
sg68
g2536
sg69
S'7'
sg70
g71
sg44
S'User specifications'
p2624
sg42
S'User'
p2625
sg74
S'15'
p2626
sg40
S'db.user'
p2627
stRp2628
sS'domain'
p2629
g3
(g4
g5
(dp2630
g7
S'name'
p2631
sg9
g3
(g10
g11
(lp2632
g3
(g4
g5
(dp2633
g14
S''
sg15
g16
sg17
g16
sg18
S''
sg19
S''
sg20
g21
sg22
g23
stRp2634
ag3
(g4
g5
(dp2635
g14
S''
sg17
g26
sg18
S''
sg20
g27
sg19
S''
sg15
g26
sg28
Nsg22
g29
stRp2636
ag3
(g4
g5
(dp2637
g14
S''
sg17
g32
sg18
S''
sg20
g21
sg19
S''
sg15
g32
sg28
Nsg22
g33
stRp2638
ag3
(g4
g5
(dp2639
g14
S''
sg17
g36
sg18
S''
sg20
g27
sg19
S''
sg15
g36
sg28
Nsg22
g37
stRp2640
ag3
(g4
g5
(dp2641
g14
S''
sg40
S'name'
p2642
sg18
S''
sg42
S'Domain'
p2643
sg19
S''
sg15
g2642
sg28
Nsg44
S'Domain name'
p2644
stRp2645
ag3
(g4
g5
(dp2646
g14
S''
sg40
S'type'
p2647
sg18
S''
sg42
S'DomainType'
p2648
sg19
S''
sg15
g2647
sg28
Nsg44
S'Type of domain'
p2649
stRp2650
ag3
(g4
g5
(dp2651
g14
S''
sg40
S'extra'
p2652
sg18
S''
sg42
S'Text'
p2653
sg19
S''
sg15
g2652
sg28
Nsg44
S'Formerly "host". Associated host or, for labels, revision \n\t\t    number.'
p2654
stRp2655
ag3
(g4
g5
(dp2656
g14
S''
sg40
S'mount'
p2657
sg18
S''
sg42
S'Text'
p2658
sg19
S''
sg15
g2657
sg28
Nsg44
S'The client root'
p2659
stRp2660
ag3
(g4
g5
(dp2661
g14
S''
sg40
S'mount2'
p2662
sg18
S''
sg42
S'Text'
p2663
sg19
S''
sg15
g2662
sg28
Nsg44
S'Alternate client root'
p2664
stRp2665
ag3
(g4
g5
(dp2666
g14
S''
sg40
S'mount3'
p2667
sg18
S''
sg42
S'Text'
p2668
sg19
S''
sg15
g2667
sg28
Nsg44
S'Alternate client root'
p2669
stRp2670
ag3
(g4
g5
(dp2671
g14
S''
sg40
S'owner'
p2672
sg18
S''
sg42
S'User'
p2673
sg19
S''
sg15
g2672
sg28
Nsg44
S'Name of user who owns the domain.'
p2674
stRp2675
ag3
(g4
g5
(dp2676
g14
S''
sg40
S'updateDate'
p2677
sg18
S''
sg42
S'Date'
p2678
sg19
S''
sg15
g2677
sg28
Nsg44
S'Date of last update to domain specification.'
p2679
stRp2680
ag3
(g4
g5
(dp2681
g14
S''
sg40
S'accessDate'
p2682
sg18
S''
sg42
S'Date'
p2683
sg19
S''
sg15
g2682
sg28
Nsg44
S'Date of last access to domain specification.'
p2684
stRp2685
ag3
(g4
g5
(dp2686
g14
S''
sg40
S'options'
p2687
sg18
S''
sg42
S'DomainOpts'
p2688
sg19
S''
sg15
g2687
sg28
Nsg44
S'Options for client, label, and branch domains.'
p2689
stRp2690
ag3
(g4
g5
(dp2691
g14
S''
sg40
S'description'
p2692
sg18
S''
sg42
S'Text'
p2693
sg19
S''
sg15
g2692
sg28
Nsg44
S'Description of domain.'
p2694
stRp2695
ag3
(g4
g5
(dp2696
g14
S''
sg40
S'stream'
p2697
sg18
S''
sg42
S'Domain'
p2698
sg19
S''
sg15
g2697
sg28
Nsg44
S'Associated stream for client records'
p2699
stRp2700
ag3
(g4
g5
(dp2701
g14
S''
sg40
S'serverId'
p2702
sg18
S''
sg42
S'Key'
p2703
sg19
S''
sg15
g2702
sg28
Nsg44
S'Associated server ID for client records'
p2704
stRp2705
ag3
(g4
g5
(dp2706
g14
S''
sg40
S'contents'
p2707
sg18
S''
sg42
S'Int'
p2708
sg19
S''
sg15
g2707
sg28
Nsg44
S'Client domain contents. 1: Maps only classic depot files, 2: Maps only graph depot files, 3: Maps both classic and graph depot files'
p2709
stRp2710
atRp2711
sg68
g2629
sg69
S'7'
sg70
g71
sg44
S'Domains: depots, clients, labels, branches, streams, and typemap'
p2712
sg42
S'Domain'
p2713
sg74
S'23'
p2714
sg40
S'db.domain'
p2715
stRp2716
sS'stream'
p2717
g3
(g4
g5
(dp2718
g7
S'stream'
p2719
sg9
g3
(g10
g11
(lp2720
g3
(g4
g5
(dp2721
g14
S''
sg15
g16
sg17
g16
sg18
S''
sg19
S''
sg20
g21
sg22
g23
stRp2722
ag3
(g4
g5
(dp2723
g14
S''
sg17
g26
sg18
S''
sg20
g27
sg19
S''
sg15
g26
sg28
Nsg22
g29
stRp2724
ag3
(g4
g5
(dp2725
g14
S''
sg17
g32
sg18
S''
sg20
g21
sg19
S''
sg15
g32
sg28
Nsg22
g33
stRp2726
ag3
(g4
g5
(dp2727
g14
S''
sg17
g36
sg18
S''
sg20
g27
sg19
S''
sg15
g36
sg28
Nsg22
g37
stRp2728
ag3
(g4
g5
(dp2729
g14
S''
sg40
S'stream'
p2730
sg18
S''
sg42
S'Domain'
p2731
sg19
S''
sg15
g2730
sg28
Nsg44
S'Stream name'
p2732
stRp2733
ag3
(g4
g5
(dp2734
g14
S''
sg40
S'parent'
p2735
sg18
S''
sg42
S'Domain'
p2736
sg19
S''
sg15
g2735
sg28
Nsg44
S'Parent stream name'
p2737
stRp2738
ag3
(g4
g5
(dp2739
g14
S''
sg40
S'title'
p2740
sg18
S''
sg42
S'Text'
p2741
sg19
S''
sg15
g2740
sg28
Nsg44
S'Stream title (alias for the stream name)'
p2742
stRp2743
ag3
(g4
g5
(dp2744
g14
S''
sg40
S'type'
p2745
sg18
S''
sg42
S'StreamType'
p2746
sg19
S''
sg15
g2745
sg28
Nsg44
S'The type of stream'
p2747
stRp2748
ag3
(g4
g5
(dp2749
g14
S''
sg40
S'preview'
p2750
sg18
S''
sg42
S'Date'
p2751
sg19
S''
sg15
g2750
sg28
Nsg44
S'Stream template modification time'
p2752
stRp2753
ag3
(g4
g5
(dp2754
g14
S''
sg40
S'change'
p2755
sg18
S''
sg42
S'Change'
p2756
sg19
S''
sg15
g2755
sg28
Nsg44
S'Last submit to stream'
p2757
stRp2758
ag3
(g4
g5
(dp2759
g14
S''
sg40
S'copyChange'
p2760
sg18
S''
sg42
S'Change'
p2761
sg19
S''
sg15
g2760
sg28
Nsg44
S'Parent change at last copy'
p2762
stRp2763
ag3
(g4
g5
(dp2764
g14
S''
sg40
S'mergeChange'
p2765
sg18
S''
sg42
S'Change'
p2766
sg19
S''
sg15
g2765
sg28
Nsg44
S'Parent change at last merge'
p2767
stRp2768
ag3
(g4
g5
(dp2769
g14
S''
sg40
S'highChange'
p2770
sg18
S''
sg42
S'Change'
p2771
sg19
S''
sg15
g2770
sg28
Nsg44
S'Highest change at last merge'
p2772
stRp2773
ag3
(g4
g5
(dp2774
g14
S''
sg40
S'hash'
p2775
sg18
S''
sg42
S'Int'
p2776
sg19
S''
sg15
g2775
sg28
Nsg44
S'Hash value of dynamic branch'
p2777
stRp2778
ag3
(g4
g5
(dp2779
g14
S''
sg40
S'status'
p2780
sg18
S''
sg42
S'StreamStatus'
p2781
sg19
S''
sg15
g2780
sg28
Nsg44
S'Flow status'
p2782
stRp2783
atRp2784
sg68
g2717
sg69
S'1'
sg70
g71
sg44
S'Stream specifications'
p2785
sg42
S'Stream'
p2786
sg74
S'21'
p2787
sg40
S'db.stream'
p2788
stRp2789
sS'sendq'
p2790
g3
(g4
g5
(dp2791
g7
S'taskid, seq'
p2792
sg9
g3
(g10
g11
(lp2793
g3
(g4
g5
(dp2794
g14
S''
sg15
g16
sg17
g16
sg18
S''
sg19
S''
sg20
g21
sg22
g23
stRp2795
ag3
(g4
g5
(dp2796
g14
S''
sg17
g26
sg18
S''
sg20
g27
sg19
S''
sg15
g26
sg28
Nsg22
g29
stRp2797
ag3
(g4
g5
(dp2798
g14
S''
sg17
g32
sg18
S''
sg20
g21
sg19
S''
sg15
g32
sg28
Nsg22
g33
stRp2799
ag3
(g4
g5
(dp2800
g14
S''
sg17
g36
sg18
S''
sg20
g27
sg19
S''
sg15
g36
sg28
Nsg22
g37
stRp2801
ag3
(g4
g5
(dp2802
g14
S''
sg40
S'taskid'
p2803
sg18
S''
sg42
S'Int'
p2804
sg19
S''
sg15
g2803
sg28
Nsg44
S'The process id (PID) of the sync'
p2805
stRp2806
ag3
(g4
g5
(dp2807
g14
S''
sg40
S'seq'
p2808
sg18
S''
sg42
S'Int'
p2809
sg19
S''
sg15
g2808
sg28
Nsg44
S'Sequence number'
p2810
stRp2811
ag3
(g4
g5
(dp2812
g14
S''
sg40
S'handle'
p2813
sg18
S''
sg42
S'Text'
p2814
sg19
S''
sg15
g2813
sg28
Nsg44
S'Handle'
p2815
stRp2816
ag3
(g4
g5
(dp2817
g14
S''
sg40
S'depotFile'
p2818
sg18
S''
sg42
S'File'
p2819
sg19
S''
sg15
g2818
sg28
Nsg44
S'The file in the depot'
p2820
stRp2821
ag3
(g4
g5
(dp2822
g14
S''
sg40
S'clientFile'
p2823
sg18
S''
sg42
S'File'
p2824
sg19
S''
sg15
g2823
sg28
Nsg44
S'The file in its location on the client'
p2825
stRp2826
ag3
(g4
g5
(dp2827
g14
S''
sg40
S'haveRev'
p2828
sg18
S''
sg42
S'Rev'
p2829
sg19
S''
sg15
g2828
sg28
Nsg44
S'Have revision'
p2830
stRp2831
ag3
(g4
g5
(dp2832
g14
S''
sg40
S'type'
p2833
sg18
S''
sg42
S'FileType'
p2834
sg19
S''
sg15
g2833
sg28
Nsg44
S'File type'
p2835
stRp2836
ag3
(g4
g5
(dp2837
g14
S''
sg40
S'modtime'
p2838
sg18
S''
sg42
S'Date'
p2839
sg19
S''
sg15
g2838
sg28
Nsg44
S'Modification time'
p2840
stRp2841
ag3
(g4
g5
(dp2842
g14
S''
sg40
S'digest'
p2843
sg18
S''
sg42
S'Digest'
p2844
sg19
S''
sg15
g2843
sg28
Nsg44
S'The MD5 digest of the revision'
p2845
stRp2846
ag3
(g4
g5
(dp2847
g14
S''
sg40
S'size'
p2848
sg18
S''
sg42
S'FileSize'
p2849
sg19
S''
sg15
g2848
sg28
Nsg44
S'The size of the file in bytes'
p2850
stRp2851
ag3
(g4
g5
(dp2852
g14
S''
sg40
S'lbrFile'
p2853
sg18
S''
sg42
S'File'
p2854
sg19
S''
sg15
g2853
sg28
Nsg44
S'Librarian filename'
p2855
stRp2856
ag3
(g4
g5
(dp2857
g14
S''
sg40
S'lbrRev'
p2858
sg18
S''
sg42
S'String'
p2859
sg19
S''
sg15
g2858
sg28
Nsg44
S'The librarian revision number'
p2860
stRp2861
ag3
(g4
g5
(dp2862
g14
S''
sg40
S'lbrType'
p2863
sg18
S''
sg42
S'FileType'
p2864
sg19
S''
sg15
g2863
sg28
Nsg44
S'The file type of the librarian revision'
p2865
stRp2866
ag3
(g4
g5
(dp2867
g14
S''
sg40
S'flags'
p2868
sg18
S''
sg42
S'Int'
p2869
sg19
S''
sg15
g2868
sg28
Nsg44
S'Miscellaneous flags'
p2870
stRp2871
ag3
(g4
g5
(dp2872
g14
S''
sg40
S'clientType'
p2873
sg18
S''
sg42
S'FileType'
p2874
sg19
S''
sg15
g2873
sg28
Nsg44
S'The client file type of the revision'
p2875
stRp2876
ag3
(g4
g5
(dp2877
g14
S''
sg40
S'depotRev'
p2878
sg18
S''
sg42
S'Rev'
p2879
sg19
S''
sg15
g2878
sg28
Nsg44
S'The revision number of depotFile'
p2880
stRp2881
ag3
(g4
g5
(dp2882
g14
S''
sg40
S'change'
p2883
sg18
S''
sg42
S'Change'
p2884
sg19
S''
sg15
g2883
sg28
Nsg44
S'The changelist that created the depotRev of depotFile'
p2885
stRp2886
ag3
(g4
g5
(dp2887
g14
S''
sg40
S'date'
p2888
sg18
S''
sg42
S'Date'
p2889
sg19
S''
sg15
g2888
sg28
Nsg44
S'The date/time when the changelist that created depotRev of depotFile was submitted'
p2890
stRp2891
ag3
(g4
g5
(dp2892
g14
S''
sg40
S'blobSha'
p2893
sg18
S''
sg42
S'SHA1'
p2894
sg19
S''
sg15
g2893
sg28
Nsg44
S'The Blob SHA'
p2895
stRp2896
ag3
(g4
g5
(dp2897
g14
S''
sg40
S'repoSlot'
p2898
sg18
S''
sg42
S'Int'
p2899
sg19
S''
sg15
g2898
sg28
Nsg44
S'The repo slot (internal repo ordering)'
p2900
stRp2901
ag3
(g4
g5
(dp2902
g14
S''
sg40
S'shelveDigest'
p2903
sg18
S''
sg42
S'Digest'
p2904
sg19
S''
sg15
g2903
sg28
Nsg44
S'Digest of previous shelved revision'
p2905
stRp2906
atRp2907
sg68
g2790
sg69
S'4'
sg70
g71
sg44
S'Parallel file transmission work queue'
p2908
sg42
S'SendQ'
p2909
sg74
S'103'
p2910
sg40
S'db.sendq'
p2911
stRp2912
sS'revstg'
p2913
g3
(g4
g5
(dp2914
g7
S'depotFile, depotRev'
p2915
sg9
g3
(g10
g11
(lp2916
g3
(g4
g5
(dp2917
g14
S''
sg15
g16
sg17
g16
sg18
S''
sg19
S''
sg20
g21
sg22
g23
stRp2918
ag3
(g4
g5
(dp2919
g14
S''
sg17
g26
sg18
S''
sg20
g27
sg19
S''
sg15
g26
sg28
Nsg22
g29
stRp2920
ag3
(g4
g5
(dp2921
g14
S''
sg17
g32
sg18
S''
sg20
g21
sg19
S''
sg15
g32
sg28
Nsg22
g33
stRp2922
ag3
(g4
g5
(dp2923
g14
S''
sg17
g36
sg18
S''
sg20
g27
sg19
S''
sg15
g36
sg28
Nsg22
g37
stRp2924
ag3
(g4
g5
(dp2925
g14
S''
sg40
g91
sg18
S''
sg42
g92
sg19
S''
sg15
g91
sg28
Nsg44
g93
stRp2926
ag3
(g4
g5
(dp2927
g14
S''
sg40
g96
sg18
S''
sg42
g97
sg19
S''
sg15
g96
sg28
Nsg44
g98
stRp2928
ag3
(g4
g5
(dp2929
g14
S''
sg40
g101
sg18
S''
sg42
g102
sg19
S''
sg15
g101
sg28
Nsg44
g103
stRp2930
ag3
(g4
g5
(dp2931
g14
S''
sg40
g106
sg18
S''
sg42
g107
sg19
S''
sg15
g106
sg28
Nsg44
g108
stRp2932
ag3
(g4
g5
(dp2933
g14
S''
sg40
g111
sg18
S''
sg42
g112
sg19
S''
sg15
g111
sg28
Nsg44
g113
stRp2934
ag3
(g4
g5
(dp2935
g14
S''
sg40
g116
sg18
S''
sg42
g117
sg19
S''
sg15
g116
sg28
Nsg44
g118
stRp2936
ag3
(g4
g5
(dp2937
g14
S''
sg40
g121
sg18
S''
sg42
g122
sg19
S''
sg15
g121
sg28
Nsg44
g123
stRp2938
ag3
(g4
g5
(dp2939
g14
S''
sg40
g126
sg18
S''
sg42
g127
sg19
S''
sg15
g126
sg28
Nsg44
g128
stRp2940
ag3
(g4
g5
(dp2941
g14
S''
sg40
g131
sg18
S''
sg42
g132
sg19
S''
sg15
g131
sg28
Nsg44
g133
stRp2942
ag3
(g4
g5
(dp2943
g14
S''
sg40
g136
sg18
S''
sg42
g137
sg19
S''
sg15
g136
sg28
Nsg44
g138
stRp2944
ag3
(g4
g5
(dp2945
g14
S''
sg40
g141
sg18
S''
sg42
g142
sg19
S''
sg15
g141
sg28
Nsg44
g143
stRp2946
ag3
(g4
g5
(dp2947
g14
S''
sg40
g146
sg18
S''
sg42
g147
sg19
S''
sg15
g146
sg28
Nsg44
g148
stRp2948
ag3
(g4
g5
(dp2949
g14
S''
sg40
g151
sg18
S''
sg42
g152
sg19
S''
sg15
g151
sg28
Nsg44
g153
stRp2950
ag3
(g4
g5
(dp2951
g14
S''
sg40
g156
sg18
S''
sg42
g157
sg19
S''
sg15
g156
sg28
Nsg44
g158
stRp2952
atRp2953
sg68
g2913
sg69
S'9'
sg70
g71
sg44
S'Temporary revision records for storage upgrade process'
p2954
sg42
S'Rev'
p2955
sg74
S'59'
p2956
sg40
S'db.revstg'
p2957
stRp2958
sS'locks'
p2959
g3
(g4
g5
(dp2960
g7
S'depotFile, client'
p2961
sg9
g3
(g10
g11
(lp2962
g3
(g4
g5
(dp2963
g14
S''
sg15
g16
sg17
g16
sg18
S''
sg19
S''
sg20
g21
sg22
g23
stRp2964
ag3
(g4
g5
(dp2965
g14
S''
sg17
g26
sg18
S''
sg20
g27
sg19
S''
sg15
g26
sg28
Nsg22
g29
stRp2966
ag3
(g4
g5
(dp2967
g14
S''
sg17
g32
sg18
S''
sg20
g21
sg19
S''
sg15
g32
sg28
Nsg22
g33
stRp2968
ag3
(g4
g5
(dp2969
g14
S''
sg17
g36
sg18
S''
sg20
g27
sg19
S''
sg15
g36
sg28
Nsg22
g37
stRp2970
ag3
(g4
g5
(dp2971
g14
S''
sg40
S'depotFile'
p2972
sg18
S''
sg42
S'File'
p2973
sg19
S''
sg15
g2972
sg28
Nsg44
S'File in depot'
p2974
stRp2975
ag3
(g4
g5
(dp2976
g14
S''
sg40
S'client'
p2977
sg18
S''
sg42
S'Domain'
p2978
sg19
S''
sg15
g2977
sg28
Nsg44
S'Domain (client) in which file is open'
p2979
stRp2980
ag3
(g4
g5
(dp2981
g14
S''
sg40
S'user'
p2982
sg18
S''
sg42
S'User'
p2983
sg19
S''
sg15
g2982
sg28
Nsg44
S'User who presently has the file open'
p2984
stRp2985
ag3
(g4
g5
(dp2986
g14
S''
sg40
S'action'
p2987
sg18
S''
sg42
S'Action'
p2988
sg19
S''
sg15
g2987
sg28
Nsg44
S'Action file is open for: add, edit, delete, branch,\n\t\t    integrate, or import'
p2989
stRp2990
ag3
(g4
g5
(dp2991
g14
S''
sg40
S'isLocked'
p2992
sg18
S''
sg42
S'LockedType'
p2993
sg19
S''
sg15
g2992
sg28
Nsg44
S'Bitmask of locked flags'
p2994
stRp2995
ag3
(g4
g5
(dp2996
g14
S''
sg40
S'change'
p2997
sg18
S''
sg42
S'Change'
p2998
sg19
S''
sg15
g2997
sg28
Nsg44
S'Changelist in which the revision is open: 0 for the\n\t\t    default changelist'
p2999
stRp3000
atRp3001
sg68
g2959
sg69
S'2'
sg70
g71
sg44
S'Locked/Unlocked files'
p3002
sg42
S'Locks'
p3003
sg74
S'60'
p3004
sg40
S'db.locks'
p3005
stRp3006
sS'pdblbr'
p3007
g3
(g4
g5
(dp3008
g7
S'file, rev'
p3009
sg9
g3
(g10
g11
(lp3010
g3
(g4
g5
(dp3011
g14
S''
sg15
g16
sg17
g16
sg18
S''
sg19
S''
sg20
g21
sg22
g23
stRp3012
ag3
(g4
g5
(dp3013
g14
S''
sg17
g26
sg18
S''
sg20
g27
sg19
S''
sg15
g26
sg28
Nsg22
g29
stRp3014
ag3
(g4
g5
(dp3015
g14
S''
sg17
g32
sg18
S''
sg20
g21
sg19
S''
sg15
g32
sg28
Nsg22
g33
stRp3016
ag3
(g4
g5
(dp3017
g14
S''
sg17
g36
sg18
S''
sg20
g27
sg19
S''
sg15
g36
sg28
Nsg22
g37
stRp3018
ag3
(g4
g5
(dp3019
g14
S''
sg40
S'file'
p3020
sg18
S''
sg42
S'File'
p3021
sg19
S''
sg15
g3020
sg28
Nsg44
S'The file name'
p3022
stRp3023
ag3
(g4
g5
(dp3024
g14
S''
sg40
S'rev'
p3025
sg18
S''
sg42
S'String'
p3026
sg19
S''
sg15
g3025
sg28
Nsg44
S'The librarian revision'
p3027
stRp3028
ag3
(g4
g5
(dp3029
g14
S''
sg40
S'type'
p3030
sg18
S''
sg42
S'FileType'
p3031
sg19
S''
sg15
g3030
sg28
Nsg44
S'The file type of the revision'
p3032
stRp3033
ag3
(g4
g5
(dp3034
g14
S''
sg40
S'status'
p3035
sg18
S''
sg42
S'PullStatus'
p3036
sg19
S''
sg15
g3035
sg28
Nsg44
S'The status of the archive transfer'
p3037
stRp3038
ag3
(g4
g5
(dp3039
g14
S''
sg40
S'who'
p3040
sg18
S''
sg42
S'Int'
p3041
sg19
S''
sg15
g3040
sg28
Nsg44
S'The process / thread id ID of the pull process'
p3042
stRp3043
ag3
(g4
g5
(dp3044
g14
S''
sg40
S'when'
p3045
sg18
S''
sg42
S'Int'
p3046
sg19
S''
sg15
g3045
sg28
Nsg44
S'The timestamp from when the transfer was scheduled'
p3047
stRp3048
ag3
(g4
g5
(dp3049
g14
S''
sg40
S'action'
p3050
sg18
S''
sg42
S'Action'
p3051
sg19
S''
sg15
g3050
sg28
Nsg44
S'The action that created the revision'
p3052
stRp3053
ag3
(g4
g5
(dp3054
g14
S''
sg40
S'digest'
p3055
sg18
S''
sg42
S'Digest'
p3056
sg19
S''
sg15
g3055
sg28
Nsg44
S'The MD5 digest of the revision'
p3057
stRp3058
ag3
(g4
g5
(dp3059
g14
S''
sg40
S'size'
p3060
sg18
S''
sg42
S'FileSize'
p3061
sg19
S''
sg15
g3060
sg28
Nsg44
S'The size of the file in bytes'
p3062
stRp3063
ag3
(g4
g5
(dp3064
g14
S''
sg40
S'retries'
p3065
sg18
S''
sg42
S'Int'
p3066
sg19
S''
sg15
g3065
sg28
Nsg44
S'Error retry count'
p3067
stRp3068
ag3
(g4
g5
(dp3069
g14
S''
sg40
S'errmsg'
p3070
sg18
S''
sg42
S'Octet String'
p3071
sg19
S''
sg15
g3070
sg28
Nsg44
S'Last Error Message'
p3072
stRp3073
ag3
(g4
g5
(dp3074
g14
S''
sg40
S'change'
p3075
sg18
S''
sg42
S'Change'
p3076
sg19
S''
sg15
g3075
sg28
Nsg44
S'The changelist that created the revision'
p3077
stRp3078
ag3
(g4
g5
(dp3079
g14
S''
sg40
S'date'
p3080
sg18
S''
sg42
S'Date'
p3081
sg19
S''
sg15
g3080
sg28
Nsg44
S'Librarian date'
p3082
stRp3083
ag3
(g4
g5
(dp3084
g14
S''
sg40
S'modTime'
p3085
sg18
S''
sg42
S'Date'
p3086
sg19
S''
sg15
g3085
sg28
Nsg44
S'Librarian modtime'
p3087
stRp3088
ag3
(g4
g5
(dp3089
g14
S''
sg40
S'origin'
p3090
sg18
S''
sg42
S'Int'
p3091
sg19
S''
sg15
g3090
sg28
Nsg44
S'The revision type that this transfer originates from:\n\t\t      1 = db.rev\n\t\t      2 = db.revsh\n\t\t      3 = db.revsx\n\t\t      4 = db.revux\n\t\t      5 = db.object'
p3092
stRp3093
ag3
(g4
g5
(dp3094
g14
S''
sg40
S'target'
p3095
sg18
S''
sg42
S'Text'
p3096
sg19
S''
sg15
g3095
sg28
Nsg44
S'Edge server to transfer from (reverse replication only)'
p3097
stRp3098
atRp3099
sg68
g3007
sg69
S'3'
sg70
g71
sg44
S'Proxy server pending archive transfer table'
p3100
sg42
S'ReplicaArchiveTransfer'
p3101
sg40
S'pdb.lbr'
p3102
stRp3103
sS'have'
p3104
g3
(g4
g5
(dp3105
g7
S'clientFile'
p3106
sg9
g3
(g10
g11
(lp3107
g3
(g4
g5
(dp3108
g14
S''
sg15
g16
sg17
g16
sg18
S''
sg19
S''
sg20
g21
sg22
g23
stRp3109
ag3
(g4
g5
(dp3110
g14
S''
sg17
g26
sg18
S''
sg20
g27
sg19
S''
sg15
g26
sg28
Nsg22
g29
stRp3111
ag3
(g4
g5
(dp3112
g14
S''
sg17
g32
sg18
S''
sg20
g21
sg19
S''
sg15
g32
sg28
Nsg22
g33
stRp3113
ag3
(g4
g5
(dp3114
g14
S''
sg17
g36
sg18
S''
sg20
g27
sg19
S''
sg15
g36
sg28
Nsg22
g37
stRp3115
ag3
(g4
g5
(dp3116
g14
S''
sg40
g563
sg18
S''
sg42
g564
sg19
S''
sg15
g563
sg28
Nsg44
g565
stRp3117
ag3
(g4
g5
(dp3118
g14
S''
sg40
g568
sg18
S''
sg42
g569
sg19
S''
sg15
g568
sg28
Nsg44
g570
stRp3119
ag3
(g4
g5
(dp3120
g14
S''
sg40
g573
sg18
S''
sg42
g574
sg19
S''
sg15
g573
sg28
Nsg44
g575
stRp3121
ag3
(g4
g5
(dp3122
g14
S''
sg40
g578
sg18
S''
sg42
g579
sg19
S''
sg15
g578
sg28
Nsg44
g580
stRp3123
ag3
(g4
g5
(dp3124
g14
S''
sg40
g583
sg18
S''
sg42
g584
sg19
S''
sg15
g583
sg28
Nsg44
g585
stRp3125
atRp3126
sg68
g3104
sg69
S'3'
sg70
g71
sg44
S"Contains the 'have-list' for all clients"
p3127
sg42
S'Have'
p3128
sg74
S'35'
p3129
sg40
S'db.have'
p3130
stRp3131
sS'graphindex'
p3132
g3
(g4
g5
(dp3133
g7
S'id, name, date, blobSha, commitSha'
p3134
sg9
g3
(g10
g11
(lp3135
g3
(g4
g5
(dp3136
g14
S''
sg15
g16
sg17
g16
sg18
S''
sg19
S''
sg20
g21
sg22
g23
stRp3137
ag3
(g4
g5
(dp3138
g14
S''
sg17
g26
sg18
S''
sg20
g27
sg19
S''
sg15
g26
sg28
Nsg22
g29
stRp3139
ag3
(g4
g5
(dp3140
g14
S''
sg17
g32
sg18
S''
sg20
g21
sg19
S''
sg15
g32
sg28
Nsg22
g33
stRp3141
ag3
(g4
g5
(dp3142
g14
S''
sg17
g36
sg18
S''
sg20
g27
sg19
S''
sg15
g36
sg28
Nsg22
g37
stRp3143
ag3
(g4
g5
(dp3144
g14
S''
sg40
S'id'
p3145
sg18
S''
sg42
S'Int'
p3146
sg19
S''
sg15
g3145
sg28
Nsg44
S'ID of repo index belongs to'
p3147
stRp3148
ag3
(g4
g5
(dp3149
g14
S''
sg40
S'name'
p3150
sg18
S''
sg42
S'File'
p3151
sg19
S''
sg15
g3150
sg28
Nsg44
S'File name (minus the repo name)'
p3152
stRp3153
ag3
(g4
g5
(dp3154
g14
S''
sg40
S'date'
p3155
sg18
S''
sg42
S'Date'
p3156
sg19
S''
sg15
g3155
sg28
Nsg44
S'Descending historical commit sequence'
p3157
stRp3158
ag3
(g4
g5
(dp3159
g14
S''
sg40
S'blobSha'
p3160
sg18
S''
sg42
S'SHA1'
p3161
sg19
S''
sg15
g3160
sg28
Nsg44
S'SHA of blob'
p3162
stRp3163
ag3
(g4
g5
(dp3164
g14
S''
sg40
S'commitSha'
p3165
sg18
S''
sg42
S'SHA1'
p3166
sg19
S''
sg15
g3165
sg28
Nsg44
S'SHA of commit that added/edited this file'
p3167
stRp3168
ag3
(g4
g5
(dp3169
g14
S''
sg40
S'flags'
p3170
sg18
S''
sg42
S'Int'
p3171
sg19
S''
sg15
g3170
sg28
Nsg44
S'Miscellaneous flags'
p3172
stRp3173
ag3
(g4
g5
(dp3174
g14
S''
sg40
S'size'
p3175
sg18
S''
sg42
S'FileSize'
p3176
sg19
S''
sg15
g3175
sg28
Nsg44
S'The size of the file (or target LFS file)'
p3177
stRp3178
ag3
(g4
g5
(dp3179
g14
S''
sg40
S'type'
p3180
sg18
S''
sg42
S'FileType'
p3181
sg19
S''
sg15
g3180
sg28
Nsg44
S'The filetype of the graph file'
p3182
stRp3183
ag3
(g4
g5
(dp3184
g14
S''
sg40
S'lfsoid'
p3185
sg18
S''
sg42
S'Text'
p3186
sg19
S''
sg15
g3185
sg28
Nsg44
S'LFS Object ID'
p3187
stRp3188
atRp3189
sg68
g3132
sg69
S'1'
sg70
g71
sg44
S'Graph depot repository index data'
p3190
sg42
S'GraphIndex'
p3191
sg74
S'79'
p3192
sg40
S'db.graphindex'
p3193
stRp3194
sS'revcx'
p3195
g3
(g4
g5
(dp3196
g7
S'change, depotFile'
p3197
sg9
g3
(g10
g11
(lp3198
g3
(g4
g5
(dp3199
g14
S''
sg15
g16
sg17
g16
sg18
S''
sg19
S''
sg20
g21
sg22
g23
stRp3200
ag3
(g4
g5
(dp3201
g14
S''
sg17
g26
sg18
S''
sg20
g27
sg19
S''
sg15
g26
sg28
Nsg22
g29
stRp3202
ag3
(g4
g5
(dp3203
g14
S''
sg17
g32
sg18
S''
sg20
g21
sg19
S''
sg15
g32
sg28
Nsg22
g33
stRp3204
ag3
(g4
g5
(dp3205
g14
S''
sg17
g36
sg18
S''
sg20
g27
sg19
S''
sg15
g36
sg28
Nsg22
g37
stRp3206
ag3
(g4
g5
(dp3207
g14
S''
sg40
S'change'
p3208
sg18
S''
sg42
S'Change'
p3209
sg19
S''
sg15
g3208
sg28
Nsg44
S'The changelist that created the revision'
p3210
stRp3211
ag3
(g4
g5
(dp3212
g14
S''
sg40
S'depotFile'
p3213
sg18
S''
sg42
S'File'
p3214
sg19
S''
sg15
g3213
sg28
Nsg44
S'The file name'
p3215
stRp3216
ag3
(g4
g5
(dp3217
g14
S''
sg40
S'depotRev'
p3218
sg18
S''
sg42
S'Rev'
p3219
sg19
S''
sg15
g3218
sg28
Nsg44
S'The revision number'
p3220
stRp3221
ag3
(g4
g5
(dp3222
g14
S''
sg40
S'action'
p3223
sg18
S''
sg42
S'Action'
p3224
sg19
S''
sg15
g3223
sg28
Nsg44
S'The action that created the revision'
p3225
stRp3226
atRp3227
sg68
g3195
sg69
S'0'
sg70
g71
sg44
S'Secondary index of db.rev'
p3228
sg42
S'RevCx'
p3229
sg74
S'56'
p3230
sg40
S'db.revcx'
p3231
stRp3232
sS'refhist'
p3233
g3
(g4
g5
(dp3234
g7
S'repo, type, name, date, action, user, ref'
p3235
sg9
g3
(g10
g11
(lp3236
g3
(g4
g5
(dp3237
g14
S''
sg15
g16
sg17
g16
sg18
S''
sg19
S''
sg20
g21
sg22
g23
stRp3238
ag3
(g4
g5
(dp3239
g14
S''
sg17
g26
sg18
S''
sg20
g27
sg19
S''
sg15
g26
sg28
Nsg22
g29
stRp3240
ag3
(g4
g5
(dp3241
g14
S''
sg17
g32
sg18
S''
sg20
g21
sg19
S''
sg15
g32
sg28
Nsg22
g33
stRp3242
ag3
(g4
g5
(dp3243
g14
S''
sg17
g36
sg18
S''
sg20
g27
sg19
S''
sg15
g36
sg28
Nsg22
g37
stRp3244
ag3
(g4
g5
(dp3245
g14
S''
sg40
S'repo'
p3246
sg18
S''
sg42
S'Key'
p3247
sg19
S''
sg15
g3246
sg28
Nsg44
S'Repository name'
p3248
stRp3249
ag3
(g4
g5
(dp3250
g14
S''
sg40
S'name'
p3251
sg18
S''
sg42
S'Key'
p3252
sg19
S''
sg15
g3251
sg28
Nsg44
S'Reference name'
p3253
stRp3254
ag3
(g4
g5
(dp3255
g14
S''
sg40
S'type'
p3256
sg18
S''
sg42
S'RefType'
p3257
sg19
S''
sg15
g3256
sg28
Nsg44
S'Reference type'
p3258
stRp3259
ag3
(g4
g5
(dp3260
g14
S''
sg40
S'action'
p3261
sg18
S''
sg42
S'RefAction'
p3262
sg19
S''
sg15
g3261
sg28
Nsg44
S'Reference action'
p3263
stRp3264
ag3
(g4
g5
(dp3265
g14
S''
sg40
S'date'
p3266
sg18
S''
sg42
S'Date'
p3267
sg19
S''
sg15
g3266
sg28
Nsg44
S'The date the reference was updated'
p3268
stRp3269
ag3
(g4
g5
(dp3270
g14
S''
sg40
S'user'
p3271
sg18
S''
sg42
S'User'
p3272
sg19
S''
sg15
g3271
sg28
Nsg44
S'The user who made the reference update'
p3273
stRp3274
ag3
(g4
g5
(dp3275
g14
S''
sg40
S'ref'
p3276
sg18
S''
sg42
S'SHA1'
p3277
sg19
S''
sg15
g3276
sg28
Nsg44
S'Encoded reference value'
p3278
stRp3279
ag3
(g4
g5
(dp3280
g14
S''
sg40
S'symref'
p3281
sg18
S''
sg42
S'Text'
p3282
sg19
S''
sg15
g3281
sg28
Nsg44
S'Symbolic reference'
p3283
stRp3284
atRp3285
sg68
g3233
sg69
S'0'
sg70
g71
sg44
S'Reference history for graph depots'
p3286
sg42
S'RefHist'
p3287
sg74
S'76'
p3288
sg40
S'db.refhist'
p3289
stRp3290
sS'rdblbr'
p3291
g3
(g4
g5
(dp3292
g7
S'file, rev'
p3293
sg9
g3
(g10
g11
(lp3294
g3
(g4
g5
(dp3295
g14
S''
sg15
g16
sg17
g16
sg18
S''
sg19
S''
sg20
g21
sg22
g23
stRp3296
ag3
(g4
g5
(dp3297
g14
S''
sg17
g26
sg18
S''
sg20
g27
sg19
S''
sg15
g26
sg28
Nsg22
g29
stRp3298
ag3
(g4
g5
(dp3299
g14
S''
sg17
g32
sg18
S''
sg20
g21
sg19
S''
sg15
g32
sg28
Nsg22
g33
stRp3300
ag3
(g4
g5
(dp3301
g14
S''
sg17
g36
sg18
S''
sg20
g27
sg19
S''
sg15
g36
sg28
Nsg22
g37
stRp3302
ag3
(g4
g5
(dp3303
g14
S''
sg40
g3020
sg18
S''
sg42
g3021
sg19
S''
sg15
g3020
sg28
Nsg44
g3022
stRp3304
ag3
(g4
g5
(dp3305
g14
S''
sg40
g3025
sg18
S''
sg42
g3026
sg19
S''
sg15
g3025
sg28
Nsg44
g3027
stRp3306
ag3
(g4
g5
(dp3307
g14
S''
sg40
g3030
sg18
S''
sg42
g3031
sg19
S''
sg15
g3030
sg28
Nsg44
g3032
stRp3308
ag3
(g4
g5
(dp3309
g14
S''
sg40
g3035
sg18
S''
sg42
g3036
sg19
S''
sg15
g3035
sg28
Nsg44
g3037
stRp3310
ag3
(g4
g5
(dp3311
g14
S''
sg40
g3040
sg18
S''
sg42
g3041
sg19
S''
sg15
g3040
sg28
Nsg44
g3042
stRp3312
ag3
(g4
g5
(dp3313
g14
S''
sg40
g3045
sg18
S''
sg42
g3046
sg19
S''
sg15
g3045
sg28
Nsg44
g3047
stRp3314
ag3
(g4
g5
(dp3315
g14
S''
sg40
g3050
sg18
S''
sg42
g3051
sg19
S''
sg15
g3050
sg28
Nsg44
g3052
stRp3316
ag3
(g4
g5
(dp3317
g14
S''
sg40
g3055
sg18
S''
sg42
g3056
sg19
S''
sg15
g3055
sg28
Nsg44
g3057
stRp3318
ag3
(g4
g5
(dp3319
g14
S''
sg40
g3060
sg18
S''
sg42
g3061
sg19
S''
sg15
g3060
sg28
Nsg44
g3062
stRp3320
ag3
(g4
g5
(dp3321
g14
S''
sg40
g3065
sg18
S''
sg42
g3066
sg19
S''
sg15
g3065
sg28
Nsg44
g3067
stRp3322
ag3
(g4
g5
(dp3323
g14
S''
sg40
g3070
sg18
S''
sg42
g3071
sg19
S''
sg15
g3070
sg28
Nsg44
g3072
stRp3324
ag3
(g4
g5
(dp3325
g14
S''
sg40
g3075
sg18
S''
sg42
g3076
sg19
S''
sg15
g3075
sg28
Nsg44
g3077
stRp3326
ag3
(g4
g5
(dp3327
g14
S''
sg40
g3080
sg18
S''
sg42
g3081
sg19
S''
sg15
g3080
sg28
Nsg44
g3082
stRp3328
ag3
(g4
g5
(dp3329
g14
S''
sg40
g3085
sg18
S''
sg42
g3086
sg19
S''
sg15
g3085
sg28
Nsg44
g3087
stRp3330
ag3
(g4
g5
(dp3331
g14
S''
sg40
g3090
sg18
S''
sg42
g3091
sg19
S''
sg15
g3090
sg28
Nsg44
g3092
stRp3332
ag3
(g4
g5
(dp3333
g14
S''
sg40
g3095
sg18
S''
sg42
g3096
sg19
S''
sg15
g3095
sg28
Nsg44
g3097
stRp3334
atRp3335
sg68
g3291
sg69
S'3'
sg70
g71
sg44
S'Replica server pending archive transfer table'
p3336
sg42
S'ReplicaArchiveTransfer'
p3337
sg40
S'rdb.lbr'
p3338
stRp3339
sS'bodresolve'
p3340
g3
(g4
g5
(dp3341
g7
S'type, client, toKey, attr, fromKey, fromChange'
p3342
sg9
g3
(g10
g11
(lp3343
g3
(g4
g5
(dp3344
g14
S''
sg15
g16
sg17
g16
sg18
S''
sg19
S''
sg20
g21
sg22
g23
stRp3345
ag3
(g4
g5
(dp3346
g14
S''
sg17
g26
sg18
S''
sg20
g27
sg19
S''
sg15
g26
sg28
Nsg22
g29
stRp3347
ag3
(g4
g5
(dp3348
g14
S''
sg17
g32
sg18
S''
sg20
g21
sg19
S''
sg15
g32
sg28
Nsg22
g33
stRp3349
ag3
(g4
g5
(dp3350
g14
S''
sg17
g36
sg18
S''
sg20
g27
sg19
S''
sg15
g36
sg28
Nsg22
g37
stRp3351
ag3
(g4
g5
(dp3352
g14
S''
sg40
S'type'
p3353
sg18
S''
sg42
S'SpecType'
p3354
sg19
S''
sg15
g3353
sg28
Nsg44
S'The spec type'
p3355
stRp3356
ag3
(g4
g5
(dp3357
g14
S''
sg40
S'client'
p3358
sg18
S''
sg42
S'Domain'
p3359
sg19
S''
sg15
g3358
sg28
Nsg44
S'The client name'
p3360
stRp3361
ag3
(g4
g5
(dp3362
g14
S''
sg40
S'toKey'
p3363
sg18
S''
sg42
S'Key'
p3364
sg19
S''
sg15
g3363
sg28
Nsg44
S'To Key'
p3365
stRp3366
ag3
(g4
g5
(dp3367
g14
S''
sg40
S'attr'
p3368
sg18
S''
sg42
S'Int'
p3369
sg19
S''
sg15
g3368
sg28
Nsg44
S'The attribute value'
p3370
stRp3371
ag3
(g4
g5
(dp3372
g14
S''
sg40
S'fromKey'
p3373
sg18
S''
sg42
S'Key'
p3374
sg19
S''
sg15
g3373
sg28
Nsg44
S'From key'
p3375
stRp3376
ag3
(g4
g5
(dp3377
g14
S''
sg40
S'fromChange'
p3378
sg18
S''
sg42
S'Change'
p3379
sg19
S''
sg15
g3378
sg28
Nsg44
S'From change'
p3380
stRp3381
ag3
(g4
g5
(dp3382
g14
S''
sg40
S'baseKey'
p3383
sg18
S''
sg42
S'Key'
p3384
sg19
S''
sg15
g3383
sg28
Nsg44
S'Base Key'
p3385
stRp3386
ag3
(g4
g5
(dp3387
g14
S''
sg40
S'baseChange'
p3388
sg18
S''
sg42
S'Change'
p3389
sg19
S''
sg15
g3388
sg28
Nsg44
S'Base change'
p3390
stRp3391
ag3
(g4
g5
(dp3392
g14
S''
sg40
S'how'
p3393
sg18
S''
sg42
S'IntegHow'
p3394
sg19
S''
sg15
g3393
sg28
Nsg44
S'Integration method: variations on\n                merge/branch/copy/ignore/delete.'
p3395
stRp3396
ag3
(g4
g5
(dp3397
g14
S''
sg40
S'state'
p3398
sg18
S''
sg42
S'ResolveState'
p3399
sg19
S''
sg15
g3398
sg28
Nsg44
S'How the user performed the resolve'
p3400
stRp3401
atRp3402
sg68
g3340
sg69
S'1'
sg70
g71
sg44
S'Resolve data for stream specifications'
p3403
sg42
S'BodyResolve'
p3404
sg74
S'89'
p3405
sg40
S'db.bodresolve'
p3406
stRp3407
sS'review'
p3408
g3
(g4
g5
(dp3409
g7
S'user, seq'
p3410
sg9
g3
(g10
g11
(lp3411
g3
(g4
g5
(dp3412
g14
S''
sg15
g16
sg17
g16
sg18
S''
sg19
S''
sg20
g21
sg22
g23
stRp3413
ag3
(g4
g5
(dp3414
g14
S''
sg17
g26
sg18
S''
sg20
g27
sg19
S''
sg15
g26
sg28
Nsg22
g29
stRp3415
ag3
(g4
g5
(dp3416
g14
S''
sg17
g32
sg18
S''
sg20
g21
sg19
S''
sg15
g32
sg28
Nsg22
g33
stRp3417
ag3
(g4
g5
(dp3418
g14
S''
sg17
g36
sg18
S''
sg20
g27
sg19
S''
sg15
g36
sg28
Nsg22
g37
stRp3419
ag3
(g4
g5
(dp3420
g14
S''
sg40
S'user'
p3421
sg18
S''
sg42
S'User'
p3422
sg19
S''
sg15
g3421
sg28
Nsg44
S'A user name'
p3423
stRp3424
ag3
(g4
g5
(dp3425
g14
S''
sg40
S'seq'
p3426
sg18
S''
sg42
S'Int'
p3427
sg19
S''
sg15
g3426
sg28
Nsg44
S'Sequence number: used for ordering multi-line views'
p3428
stRp3429
ag3
(g4
g5
(dp3430
g14
S''
sg40
S'mapFlag'
p3431
sg18
S''
sg42
S'MapFlag'
p3432
sg19
S''
sg15
g3431
sg28
Nsg44
S'Type of mapping'
p3433
stRp3434
ag3
(g4
g5
(dp3435
g14
S''
sg40
S'depotFile'
p3436
sg18
S''
sg42
S'Mapping'
p3437
sg19
S''
sg15
g3436
sg28
Nsg44
S'The files to be reviewed'
p3438
stRp3439
ag3
(g4
g5
(dp3440
g14
S''
sg40
S'type'
p3441
sg18
S''
sg42
S'Reviewer'
p3442
sg19
S''
sg15
g3441
sg28
Nsg44
S'Type of reviewer'
p3443
stRp3444
atRp3445
sg68
g3408
sg69
S'1'
sg70
g71
sg44
S"User's review mappings"
p3446
sg42
S'Review'
p3447
sg74
S'31'
p3448
sg40
S'db.review'
p3449
stRp3450
sS'storage'
p3451
g3
(g4
g5
(dp3452
g7
S'file, rev, type'
p3453
sg9
g3
(g10
g11
(lp3454
g3
(g4
g5
(dp3455
g14
S''
sg15
g16
sg17
g16
sg18
S''
sg19
S''
sg20
g21
sg22
g23
stRp3456
ag3
(g4
g5
(dp3457
g14
S''
sg17
g26
sg18
S''
sg20
g27
sg19
S''
sg15
g26
sg28
Nsg22
g29
stRp3458
ag3
(g4
g5
(dp3459
g14
S''
sg17
g32
sg18
S''
sg20
g21
sg19
S''
sg15
g32
sg28
Nsg22
g33
stRp3460
ag3
(g4
g5
(dp3461
g14
S''
sg17
g36
sg18
S''
sg20
g27
sg19
S''
sg15
g36
sg28
Nsg22
g37
stRp3462
ag3
(g4
g5
(dp3463
g14
S''
sg40
S'file'
p3464
sg18
S''
sg42
S'File'
p3465
sg19
S''
sg15
g3464
sg28
Nsg44
S'Librarian file'
p3466
stRp3467
ag3
(g4
g5
(dp3468
g14
S''
sg40
S'rev'
p3469
sg18
S''
sg42
S'String'
p3470
sg19
S''
sg15
g3469
sg28
Nsg44
S'Librarian revision'
p3471
stRp3472
ag3
(g4
g5
(dp3473
g14
S''
sg40
S'type'
p3474
sg18
S''
sg42
S'FileType'
p3475
sg19
S''
sg15
g3474
sg28
Nsg44
S'The file type of the librarian revision'
p3476
stRp3477
ag3
(g4
g5
(dp3478
g14
S''
sg40
S'refCount'
p3479
sg18
S''
sg42
S'Int'
p3480
sg19
S''
sg15
g3479
sg28
Nsg44
S'Reference count'
p3481
stRp3482
ag3
(g4
g5
(dp3483
g14
S''
sg40
S'digest'
p3484
sg18
S''
sg42
S'Digest'
p3485
sg19
S''
sg15
g3484
sg28
Nsg44
S'MD5 of librarian file (ktext collapsed)'
p3486
stRp3487
ag3
(g4
g5
(dp3488
g14
S''
sg40
S'size'
p3489
sg18
S''
sg42
S'FileSize'
p3490
sg19
S''
sg15
g3489
sg28
Nsg44
S'Size of file'
p3491
stRp3492
ag3
(g4
g5
(dp3493
g14
S''
sg40
S'serverSize'
p3494
sg18
S''
sg42
S'FileSize'
p3495
sg19
S''
sg15
g3494
sg28
Nsg44
S'Size of librarian file on server at time of submit / shelve operation'
p3496
stRp3497
ag3
(g4
g5
(dp3498
g14
S''
sg40
S'compCksum'
p3499
sg18
S''
sg42
S'Digest'
p3500
sg19
S''
sg15
g3499
sg28
Nsg44
S'Digest of compressed librarian file'
p3501
stRp3502
ag3
(g4
g5
(dp3503
g14
S''
sg40
S'date'
p3504
sg18
S''
sg42
S'Date'
p3505
sg19
S''
sg15
g3504
sg28
Nsg44
S'Date of last update to the storage record'
p3506
stRp3507
atRp3508
sg68
g3451
sg207
S'Supersedes db.archmap in 2019.1'
p3509
sg69
S'1'
sg70
g71
sg44
S'Track references to archive files'
p3510
sg42
S'Storage'
p3511
sg74
S'47'
p3512
sg40
S'db.storage'
p3513
stRp3514
sS'storageg'
p3515
g3
(g4
g5
(dp3516
g7
S'repo, sha, type'
p3517
sg9
g3
(g10
g11
(lp3518
g3
(g4
g5
(dp3519
g14
S''
sg15
g16
sg17
g16
sg18
S''
sg19
S''
sg20
g21
sg22
g23
stRp3520
ag3
(g4
g5
(dp3521
g14
S''
sg17
g26
sg18
S''
sg20
g27
sg19
S''
sg15
g26
sg28
Nsg22
g29
stRp3522
ag3
(g4
g5
(dp3523
g14
S''
sg17
g32
sg18
S''
sg20
g21
sg19
S''
sg15
g32
sg28
Nsg22
g33
stRp3524
ag3
(g4
g5
(dp3525
g14
S''
sg17
g36
sg18
S''
sg20
g27
sg19
S''
sg15
g36
sg28
Nsg22
g37
stRp3526
ag3
(g4
g5
(dp3527
g14
S''
sg40
S'repo'
p3528
sg18
S''
sg42
S'Key'
p3529
sg19
S''
sg15
g3528
sg28
Nsg44
S'Repository name'
p3530
stRp3531
ag3
(g4
g5
(dp3532
g14
S''
sg40
S'sha'
p3533
sg18
S''
sg42
S'Key'
p3534
sg19
S''
sg15
g3533
sg28
Nsg44
S'Digest of the file in type appropriate format'
p3535
stRp3536
ag3
(g4
g5
(dp3537
g14
S''
sg40
S'type'
p3538
sg18
S''
sg42
S'ObjectType'
p3539
sg19
S''
sg15
g3538
sg28
Nsg44
S'Type of graph object'
p3540
stRp3541
ag3
(g4
g5
(dp3542
g14
S''
sg40
S'refCount'
p3543
sg18
S''
sg42
S'Int'
p3544
sg19
S''
sg15
g3543
sg28
Nsg44
S'Reference count'
p3545
stRp3546
ag3
(g4
g5
(dp3547
g14
S''
sg40
S'date'
p3548
sg18
S''
sg42
S'Date'
p3549
sg19
S''
sg15
g3548
sg28
Nsg44
S'Date of last update to the storage record'
p3550
stRp3551
atRp3552
sg68
g3515
sg69
S'0'
sg70
g71
sg44
S'Track references to Graph Depot archive files (for future use)'
p3553
sg42
S'StorageG'
p3554
sg74
S'48'
p3555
sg40
S'db.storageg'
p3556
stRp3557
sS'label'
p3558
g3
(g4
g5
(dp3559
g7
S'name, depotFile'
p3560
sg9
g3
(g10
g11
(lp3561
g3
(g4
g5
(dp3562
g14
S''
sg15
g16
sg17
g16
sg18
S''
sg19
S''
sg20
g21
sg22
g23
stRp3563
ag3
(g4
g5
(dp3564
g14
S''
sg17
g26
sg18
S''
sg20
g27
sg19
S''
sg15
g26
sg28
Nsg22
g29
stRp3565
ag3
(g4
g5
(dp3566
g14
S''
sg17
g32
sg18
S''
sg20
g21
sg19
S''
sg15
g32
sg28
Nsg22
g33
stRp3567
ag3
(g4
g5
(dp3568
g14
S''
sg17
g36
sg18
S''
sg20
g27
sg19
S''
sg15
g36
sg28
Nsg22
g37
stRp3569
ag3
(g4
g5
(dp3570
g14
S''
sg40
S'name'
p3571
sg18
S''
sg42
S'Domain'
p3572
sg19
S''
sg15
g3571
sg28
Nsg44
S'Name of the label'
p3573
stRp3574
ag3
(g4
g5
(dp3575
g14
S''
sg40
S'depotFile'
p3576
sg18
S''
sg42
S'File'
p3577
sg19
S''
sg15
g3576
sg28
Nsg44
S'File name'
p3578
stRp3579
ag3
(g4
g5
(dp3580
g14
S''
sg40
S'haveRev'
p3581
sg18
S''
sg42
S'Rev'
p3582
sg19
S''
sg15
g3581
sg28
Nsg44
S'The revision of the file in the label'
p3583
stRp3584
atRp3585
sg68
g3558
sg69
S'0'
sg70
g71
sg44
S'Revisions of files in labels'
p3586
sg42
S'Label'
p3587
sg74
S'32'
p3588
sg40
S'db.label'
p3589
stRp3590
sS'revbx'
p3591
g3
(g4
g5
(dp3592
g7
S'depotFile, depotRev'
p3593
sg9
g3
(g10
g11
(lp3594
g3
(g4
g5
(dp3595
g14
S''
sg15
g16
sg17
g16
sg18
S''
sg19
S''
sg20
g21
sg22
g23
stRp3596
ag3
(g4
g5
(dp3597
g14
S''
sg17
g26
sg18
S''
sg20
g27
sg19
S''
sg15
g26
sg28
Nsg22
g29
stRp3598
ag3
(g4
g5
(dp3599
g14
S''
sg17
g32
sg18
S''
sg20
g21
sg19
S''
sg15
g32
sg28
Nsg22
g33
stRp3600
ag3
(g4
g5
(dp3601
g14
S''
sg17
g36
sg18
S''
sg20
g27
sg19
S''
sg15
g36
sg28
Nsg22
g37
stRp3602
ag3
(g4
g5
(dp3603
g14
S''
sg40
g91
sg18
S''
sg42
g92
sg19
S''
sg15
g91
sg28
Nsg44
g93
stRp3604
ag3
(g4
g5
(dp3605
g14
S''
sg40
g96
sg18
S''
sg42
g97
sg19
S''
sg15
g96
sg28
Nsg44
g98
stRp3606
ag3
(g4
g5
(dp3607
g14
S''
sg40
g101
sg18
S''
sg42
g102
sg19
S''
sg15
g101
sg28
Nsg44
g103
stRp3608
ag3
(g4
g5
(dp3609
g14
S''
sg40
g106
sg18
S''
sg42
g107
sg19
S''
sg15
g106
sg28
Nsg44
g108
stRp3610
ag3
(g4
g5
(dp3611
g14
S''
sg40
g111
sg18
S''
sg42
g112
sg19
S''
sg15
g111
sg28
Nsg44
g113
stRp3612
ag3
(g4
g5
(dp3613
g14
S''
sg40
g116
sg18
S''
sg42
g117
sg19
S''
sg15
g116
sg28
Nsg44
g118
stRp3614
ag3
(g4
g5
(dp3615
g14
S''
sg40
g121
sg18
S''
sg42
g122
sg19
S''
sg15
g121
sg28
Nsg44
g123
stRp3616
ag3
(g4
g5
(dp3617
g14
S''
sg40
g126
sg18
S''
sg42
g127
sg19
S''
sg15
g126
sg28
Nsg44
g128
stRp3618
ag3
(g4
g5
(dp3619
g14
S''
sg40
g131
sg18
S''
sg42
g132
sg19
S''
sg15
g131
sg28
Nsg44
g133
stRp3620
ag3
(g4
g5
(dp3621
g14
S''
sg40
g136
sg18
S''
sg42
g137
sg19
S''
sg15
g136
sg28
Nsg44
g138
stRp3622
ag3
(g4
g5
(dp3623
g14
S''
sg40
g141
sg18
S''
sg42
g142
sg19
S''
sg15
g141
sg28
Nsg44
g143
stRp3624
ag3
(g4
g5
(dp3625
g14
S''
sg40
g146
sg18
S''
sg42
g147
sg19
S''
sg15
g146
sg28
Nsg44
g148
stRp3626
ag3
(g4
g5
(dp3627
g14
S''
sg40
g151
sg18
S''
sg42
g152
sg19
S''
sg15
g151
sg28
Nsg44
g153
stRp3628
ag3
(g4
g5
(dp3629
g14
S''
sg40
g156
sg18
S''
sg42
g157
sg19
S''
sg15
g156
sg28
Nsg44
g158
stRp3630
atRp3631
sg68
g3591
sg69
S'9'
sg70
g71
sg44
S'Revision records for archived files'
p3632
sg42
S'Rev'
p3633
sg74
S'54'
p3634
sg40
S'db.revbx'
p3635
stRp3636
sS'nameval'
p3637
g3
(g4
g5
(dp3638
g7
S'name'
p3639
sg9
g3
(g10
g11
(lp3640
g3
(g4
g5
(dp3641
g14
S''
sg15
g16
sg17
g16
sg18
S''
sg19
S''
sg20
g21
sg22
g23
stRp3642
ag3
(g4
g5
(dp3643
g14
S''
sg17
g26
sg18
S''
sg20
g27
sg19
S''
sg15
g26
sg28
Nsg22
g29
stRp3644
ag3
(g4
g5
(dp3645
g14
S''
sg17
g32
sg18
S''
sg20
g21
sg19
S''
sg15
g32
sg28
Nsg22
g33
stRp3646
ag3
(g4
g5
(dp3647
g14
S''
sg17
g36
sg18
S''
sg20
g27
sg19
S''
sg15
g36
sg28
Nsg22
g37
stRp3648
ag3
(g4
g5
(dp3649
g14
S''
sg40
S'name'
p3650
sg18
S''
sg42
S'Key'
p3651
sg19
S''
sg15
g3650
sg28
Nsg44
S'Key name'
p3652
stRp3653
ag3
(g4
g5
(dp3654
g14
S''
sg40
S'value'
p3655
sg18
S''
sg42
S'Value'
p3656
sg19
S''
sg15
g3655
sg28
Nsg44
S'Key value'
p3657
stRp3658
atRp3659
sg68
g3637
sg69
S'1'
sg70
g71
sg44
S'A table to store key/value pairs'
p3660
sg42
S'Keys'
p3661
sg74
S'4'
sg40
S'db.nameval'
p3662
stRp3663
sS'template'
p3664
g3
(g4
g5
(dp3665
g7
S'name, change, seq'
p3666
sg9
g3
(g10
g11
(lp3667
g3
(g4
g5
(dp3668
g14
S''
sg15
g16
sg17
g16
sg18
S''
sg19
S''
sg20
g21
sg22
g23
stRp3669
ag3
(g4
g5
(dp3670
g14
S''
sg17
g26
sg18
S''
sg20
g27
sg19
S''
sg15
g26
sg28
Nsg22
g29
stRp3671
ag3
(g4
g5
(dp3672
g14
S''
sg17
g32
sg18
S''
sg20
g21
sg19
S''
sg15
g32
sg28
Nsg22
g33
stRp3673
ag3
(g4
g5
(dp3674
g14
S''
sg17
g36
sg18
S''
sg20
g27
sg19
S''
sg15
g36
sg28
Nsg22
g37
stRp3675
ag3
(g4
g5
(dp3676
g14
S''
sg40
S'name'
p3677
sg18
S''
sg42
S'Domain'
p3678
sg19
S''
sg15
g3677
sg28
Nsg44
S'Stream name'
p3679
stRp3680
ag3
(g4
g5
(dp3681
g14
S''
sg40
S'change'
p3682
sg18
S''
sg42
S'Change'
p3683
sg19
S''
sg15
g3682
sg28
Nsg44
S'Versioned at change'
p3684
stRp3685
ag3
(g4
g5
(dp3686
g14
S''
sg40
S'seq'
p3687
sg18
S''
sg42
S'Int'
p3688
sg19
S''
sg15
g3687
sg28
Nsg44
S'Sequence (line) number'
p3689
stRp3690
ag3
(g4
g5
(dp3691
g14
S''
sg40
S'parent'
p3692
sg18
S''
sg42
S'Domain'
p3693
sg19
S''
sg15
g3692
sg28
Nsg44
S'Parent stream name'
p3694
stRp3695
ag3
(g4
g5
(dp3696
g14
S''
sg40
S'type'
p3697
sg18
S''
sg42
S'StreamType'
p3698
sg19
S''
sg15
g3697
sg28
Nsg44
S'Type of stream'
p3699
stRp3700
ag3
(g4
g5
(dp3701
g14
S''
sg40
S'path'
p3702
sg18
S''
sg42
S'StreamPathType'
p3703
sg19
S''
sg15
g3702
sg28
Nsg44
S'Stream path type'
p3704
stRp3705
ag3
(g4
g5
(dp3706
g14
S''
sg40
S'viewFile'
p3707
sg18
S''
sg42
S'Mapping'
p3708
sg19
S''
sg15
g3707
sg28
Nsg44
S'View file (left hand side of path)'
p3709
stRp3710
ag3
(g4
g5
(dp3711
g14
S''
sg40
S'depotFile'
p3712
sg18
S''
sg42
S'Mapping'
p3713
sg19
S''
sg15
g3712
sg28
Nsg44
S'Depot file (right hand side of path)'
p3714
stRp3715
ag3
(g4
g5
(dp3716
g14
S''
sg40
S'changeMap'
p3717
sg18
S''
sg42
S'Value'
p3718
sg19
S''
sg15
g3717
sg28
Nsg44
S"Stream 'import' path changelist specifier. The changelist\n\t\t\tlimits in effect for a given client are displayed in a\n\t    \tread-only client spec field called 'ChangeView'"
p3719
stRp3720
atRp3721
sg68
g3664
sg69
S'2'
sg70
g71
sg44
S'Streams templates'
p3722
sg42
S'Template'
p3723
sg74
S'24'
p3724
sg40
S'db.template'
p3725
stRp3726
sS'haverp'
p3727
g3
(g4
g5
(dp3728
g7
S'clientFile'
p3729
sg9
g3
(g10
g11
(lp3730
g3
(g4
g5
(dp3731
g14
S''
sg15
g16
sg17
g16
sg18
S''
sg19
S''
sg20
g21
sg22
g23
stRp3732
ag3
(g4
g5
(dp3733
g14
S''
sg17
g26
sg18
S''
sg20
g27
sg19
S''
sg15
g26
sg28
Nsg22
g29
stRp3734
ag3
(g4
g5
(dp3735
g14
S''
sg17
g32
sg18
S''
sg20
g21
sg19
S''
sg15
g32
sg28
Nsg22
g33
stRp3736
ag3
(g4
g5
(dp3737
g14
S''
sg17
g36
sg18
S''
sg20
g27
sg19
S''
sg15
g36
sg28
Nsg22
g37
stRp3738
ag3
(g4
g5
(dp3739
g14
S''
sg40
g563
sg18
S''
sg42
g564
sg19
S''
sg15
g563
sg28
Nsg44
g565
stRp3740
ag3
(g4
g5
(dp3741
g14
S''
sg40
g568
sg18
S''
sg42
g569
sg19
S''
sg15
g568
sg28
Nsg44
g570
stRp3742
ag3
(g4
g5
(dp3743
g14
S''
sg40
g573
sg18
S''
sg42
g574
sg19
S''
sg15
g573
sg28
Nsg44
g575
stRp3744
ag3
(g4
g5
(dp3745
g14
S''
sg40
g578
sg18
S''
sg42
g579
sg19
S''
sg15
g578
sg28
Nsg44
g580
stRp3746
ag3
(g4
g5
(dp3747
g14
S''
sg40
g583
sg18
S''
sg42
g584
sg19
S''
sg15
g583
sg28
Nsg44
g585
stRp3748
atRp3749
sg68
g3727
sg69
S'3'
sg70
g71
sg44
S"Contains the 'have-list' for clients of build-server replicas"
p3750
sg42
S'Have'
p3751
sg74
S'33'
p3752
sg40
S'db.have.rp'
p3753
stRp3754
sS'depot'
p3755
g3
(g4
g5
(dp3756
g7
S'name'
p3757
sg9
g3
(g10
g11
(lp3758
g3
(g4
g5
(dp3759
g14
S''
sg15
g16
sg17
g16
sg18
S''
sg19
S''
sg20
g21
sg22
g23
stRp3760
ag3
(g4
g5
(dp3761
g14
S''
sg17
g26
sg18
S''
sg20
g27
sg19
S''
sg15
g26
sg28
Nsg22
g29
stRp3762
ag3
(g4
g5
(dp3763
g14
S''
sg17
g32
sg18
S''
sg20
g21
sg19
S''
sg15
g32
sg28
Nsg22
g33
stRp3764
ag3
(g4
g5
(dp3765
g14
S''
sg17
g36
sg18
S''
sg20
g27
sg19
S''
sg15
g36
sg28
Nsg22
g37
stRp3766
ag3
(g4
g5
(dp3767
g14
S''
sg40
S'name'
p3768
sg18
S''
sg42
S'Domain'
p3769
sg19
S''
sg15
g3768
sg28
Nsg44
S'Depot name'
p3770
stRp3771
ag3
(g4
g5
(dp3772
g14
S''
sg40
S'type'
p3773
sg18
S''
sg42
S'DepotType'
p3774
sg19
S''
sg15
g3773
sg28
Nsg44
S'Type of depot'
p3775
stRp3776
ag3
(g4
g5
(dp3777
g14
S''
sg40
S'extra'
p3778
sg18
S''
sg42
S'Text'
p3779
sg19
S''
sg15
g3778
sg28
Nsg44
S'For remote depots, the P4PORT address of the remote server.\n\t\t    For spec depots, a suffix to append to the filename.\n                   For stream depots, stream depth'
p3780
stRp3781
ag3
(g4
g5
(dp3782
g14
S''
sg40
S'map'
p3783
sg18
S''
sg42
S'Text'
p3784
sg19
S''
sg15
g3783
sg28
Nsg44
S"The depot's map (path translation information).  For local \n\t\t    depots, this will be a path relative to the root directory.\n\t\t    For remote depots, this will be specified in terms of the \n\t\t    remote server's namespace."
p3785
stRp3786
atRp3787
sg68
g3755
sg69
S'1'
sg70
g71
sg44
S'Depot specifications'
p3788
sg42
S'Depot'
p3789
sg74
S'20'
p3790
sg40
S'db.depot'
p3791
stRp3792
sS'config'
p3793
g3
(g4
g5
(dp3794
g7
S'serverName, name'
p3795
sg9
g3
(g10
g11
(lp3796
g3
(g4
g5
(dp3797
g14
S''
sg15
g16
sg17
g16
sg18
S''
sg19
S''
sg20
g21
sg22
g23
stRp3798
ag3
(g4
g5
(dp3799
g14
S''
sg17
g26
sg18
S''
sg20
g27
sg19
S''
sg15
g26
sg28
Nsg22
g29
stRp3800
ag3
(g4
g5
(dp3801
g14
S''
sg17
g32
sg18
S''
sg20
g21
sg19
S''
sg15
g32
sg28
Nsg22
g33
stRp3802
ag3
(g4
g5
(dp3803
g14
S''
sg17
g36
sg18
S''
sg20
g27
sg19
S''
sg15
g36
sg28
Nsg22
g37
stRp3804
ag3
(g4
g5
(dp3805
g14
S''
sg40
S'serverName'
p3806
sg18
S''
sg42
S'Key'
p3807
sg19
S''
sg15
g3806
sg28
Nsg44
S'Server name'
p3808
stRp3809
ag3
(g4
g5
(dp3810
g14
S''
sg40
S'name'
p3811
sg18
S''
sg42
S'Key'
p3812
sg19
S''
sg15
g3811
sg28
Nsg44
S'Configuration variable name'
p3813
stRp3814
ag3
(g4
g5
(dp3815
g14
S''
sg40
S'value'
p3816
sg18
S''
sg42
S'Value'
p3817
sg19
S''
sg15
g3816
sg28
Nsg44
S'Configuration variable value'
p3818
stRp3819
atRp3820
sg68
g3793
sg69
S'1'
sg70
g71
sg44
S'Server configurations table'
p3821
sg42
S'Config'
p3822
sg74
S'1'
sg40
S'db.config'
p3823
stRp3824
sS'counters'
p3825
g3
(g4
g5
(dp3826
g7
S'name'
p3827
sg9
g3
(g10
g11
(lp3828
g3
(g4
g5
(dp3829
g14
S''
sg15
g16
sg17
g16
sg18
S''
sg19
S''
sg20
g21
sg22
g23
stRp3830
ag3
(g4
g5
(dp3831
g14
S''
sg17
g26
sg18
S''
sg20
g27
sg19
S''
sg15
g26
sg28
Nsg22
g29
stRp3832
ag3
(g4
g5
(dp3833
g14
S''
sg17
g32
sg18
S''
sg20
g21
sg19
S''
sg15
g32
sg28
Nsg22
g33
stRp3834
ag3
(g4
g5
(dp3835
g14
S''
sg17
g36
sg18
S''
sg20
g27
sg19
S''
sg15
g36
sg28
Nsg22
g37
stRp3836
ag3
(g4
g5
(dp3837
g14
S''
sg40
S'name'
p3838
sg18
S''
sg42
S'Counter'
p3839
sg19
S''
sg15
g3838
sg28
Nsg44
S'Counter name'
p3840
stRp3841
ag3
(g4
g5
(dp3842
g14
S''
sg40
S'value'
p3843
sg18
S''
sg42
S'Value'
p3844
sg19
S''
sg15
g3843
sg28
Nsg44
S'Counter value'
p3845
stRp3846
atRp3847
sg68
g3825
sg69
S'1'
sg70
g71
sg44
S'Counters table'
p3848
sg42
S'Counters'
p3849
sg74
S'3'
sg40
S'db.counters'
p3850
stRp3851
sS'configh'
p3852
g3
(g4
g5
(dp3853
g7
S'sName, name, version, date, server'
p3854
sg9
g3
(g10
g11
(lp3855
g3
(g4
g5
(dp3856
g14
S''
sg15
g16
sg17
g16
sg18
S''
sg19
S''
sg20
g21
sg22
g23
stRp3857
ag3
(g4
g5
(dp3858
g14
S''
sg17
g26
sg18
S''
sg20
g27
sg19
S''
sg15
g26
sg28
Nsg22
g29
stRp3859
ag3
(g4
g5
(dp3860
g14
S''
sg17
g32
sg18
S''
sg20
g21
sg19
S''
sg15
g32
sg28
Nsg22
g33
stRp3861
ag3
(g4
g5
(dp3862
g14
S''
sg17
g36
sg18
S''
sg20
g27
sg19
S''
sg15
g36
sg28
Nsg22
g37
stRp3863
ag3
(g4
g5
(dp3864
g14
S''
sg40
S'sName'
p3865
sg18
S''
sg42
S'Key'
p3866
sg19
S''
sg15
g3865
sg28
Nsg44
S'Server name where configurable applies'
p3867
stRp3868
ag3
(g4
g5
(dp3869
g14
S''
sg40
S'name'
p3870
sg18
S''
sg42
S'Key'
p3871
sg19
S''
sg15
g3870
sg28
Nsg44
S'variable name'
p3872
stRp3873
ag3
(g4
g5
(dp3874
g14
S''
sg40
S'version'
p3875
sg18
S''
sg42
S'Int'
p3876
sg19
S''
sg15
g3875
sg28
Nsg44
S'configuration version'
p3877
stRp3878
ag3
(g4
g5
(dp3879
g14
S''
sg40
S'date'
p3880
sg18
S''
sg42
S'Date'
p3881
sg19
S''
sg15
g3880
sg28
Nsg44
S'date'
p3882
stRp3883
ag3
(g4
g5
(dp3884
g14
S''
sg40
S'server'
p3885
sg18
S''
sg42
S'Key'
p3886
sg19
S''
sg15
g3885
sg28
Nsg44
S'server ID where the configurable was set'
p3887
stRp3888
ag3
(g4
g5
(dp3889
g14
S''
sg40
S'user'
p3890
sg18
S''
sg42
S'User'
p3891
sg19
S''
sg15
g3890
sg28
Nsg44
S'user'
p3892
stRp3893
ag3
(g4
g5
(dp3894
g14
S''
sg40
S'ovalue'
p3895
sg18
S''
sg42
S'Value'
p3896
sg19
S''
sg15
g3895
sg28
Nsg44
S'old value'
p3897
stRp3898
ag3
(g4
g5
(dp3899
g14
S''
sg40
S'nvalue'
p3900
sg18
S''
sg42
S'Value'
p3901
sg19
S''
sg15
g3900
sg28
Nsg44
S'new value'
p3902
stRp3903
atRp3904
sg68
g3852
sg69
S'0'
sg70
g71
sg44
S'Server configuration history'
p3905
sg42
S'ConfigHist'
p3906
sg74
S'2'
sg40
S'db.configh'
p3907
stRp3908
sS'sendqpt'
p3909
g3
(g4
g5
(dp3910
g7
S'taskid, seq'
p3911
sg9
g3
(g10
g11
(lp3912
g3
(g4
g5
(dp3913
g14
S''
sg15
g16
sg17
g16
sg18
S''
sg19
S''
sg20
g21
sg22
g23
stRp3914
ag3
(g4
g5
(dp3915
g14
S''
sg17
g26
sg18
S''
sg20
g27
sg19
S''
sg15
g26
sg28
Nsg22
g29
stRp3916
ag3
(g4
g5
(dp3917
g14
S''
sg17
g32
sg18
S''
sg20
g21
sg19
S''
sg15
g32
sg28
Nsg22
g33
stRp3918
ag3
(g4
g5
(dp3919
g14
S''
sg17
g36
sg18
S''
sg20
g27
sg19
S''
sg15
g36
sg28
Nsg22
g37
stRp3920
ag3
(g4
g5
(dp3921
g14
S''
sg40
g2803
sg18
S''
sg42
g2804
sg19
S''
sg15
g2803
sg28
Nsg44
g2805
stRp3922
ag3
(g4
g5
(dp3923
g14
S''
sg40
g2808
sg18
S''
sg42
g2809
sg19
S''
sg15
g2808
sg28
Nsg44
g2810
stRp3924
ag3
(g4
g5
(dp3925
g14
S''
sg40
g2813
sg18
S''
sg42
g2814
sg19
S''
sg15
g2813
sg28
Nsg44
g2815
stRp3926
ag3
(g4
g5
(dp3927
g14
S''
sg40
g2818
sg18
S''
sg42
g2819
sg19
S''
sg15
g2818
sg28
Nsg44
g2820
stRp3928
ag3
(g4
g5
(dp3929
g14
S''
sg40
g2823
sg18
S''
sg42
g2824
sg19
S''
sg15
g2823
sg28
Nsg44
g2825
stRp3930
ag3
(g4
g5
(dp3931
g14
S''
sg40
g2828
sg18
S''
sg42
g2829
sg19
S''
sg15
g2828
sg28
Nsg44
g2830
stRp3932
ag3
(g4
g5
(dp3933
g14
S''
sg40
g2833
sg18
S''
sg42
g2834
sg19
S''
sg15
g2833
sg28
Nsg44
g2835
stRp3934
ag3
(g4
g5
(dp3935
g14
S''
sg40
g2838
sg18
S''
sg42
g2839
sg19
S''
sg15
g2838
sg28
Nsg44
g2840
stRp3936
ag3
(g4
g5
(dp3937
g14
S''
sg40
g2843
sg18
S''
sg42
g2844
sg19
S''
sg15
g2843
sg28
Nsg44
g2845
stRp3938
ag3
(g4
g5
(dp3939
g14
S''
sg40
g2848
sg18
S''
sg42
g2849
sg19
S''
sg15
g2848
sg28
Nsg44
g2850
stRp3940
ag3
(g4
g5
(dp3941
g14
S''
sg40
g2853
sg18
S''
sg42
g2854
sg19
S''
sg15
g2853
sg28
Nsg44
g2855
stRp3942
ag3
(g4
g5
(dp3943
g14
S''
sg40
g2858
sg18
S''
sg42
g2859
sg19
S''
sg15
g2858
sg28
Nsg44
g2860
stRp3944
ag3
(g4
g5
(dp3945
g14
S''
sg40
g2863
sg18
S''
sg42
g2864
sg19
S''
sg15
g2863
sg28
Nsg44
g2865
stRp3946
ag3
(g4
g5
(dp3947
g14
S''
sg40
g2868
sg18
S''
sg42
g2869
sg19
S''
sg15
g2868
sg28
Nsg44
g2870
stRp3948
ag3
(g4
g5
(dp3949
g14
S''
sg40
g2873
sg18
S''
sg42
g2874
sg19
S''
sg15
g2873
sg28
Nsg44
g2875
stRp3950
ag3
(g4
g5
(dp3951
g14
S''
sg40
g2878
sg18
S''
sg42
g2879
sg19
S''
sg15
g2878
sg28
Nsg44
g2880
stRp3952
ag3
(g4
g5
(dp3953
g14
S''
sg40
g2883
sg18
S''
sg42
g2884
sg19
S''
sg15
g2883
sg28
Nsg44
g2885
stRp3954
ag3
(g4
g5
(dp3955
g14
S''
sg40
g2888
sg18
S''
sg42
g2889
sg19
S''
sg15
g2888
sg28
Nsg44
g2890
stRp3956
ag3
(g4
g5
(dp3957
g14
S''
sg40
g2893
sg18
S''
sg42
g2894
sg19
S''
sg15
g2893
sg28
Nsg44
g2895
stRp3958
ag3
(g4
g5
(dp3959
g14
S''
sg40
g2898
sg18
S''
sg42
g2899
sg19
S''
sg15
g2898
sg28
Nsg44
g2900
stRp3960
ag3
(g4
g5
(dp3961
g14
S''
sg40
g2903
sg18
S''
sg42
g2904
sg19
S''
sg15
g2903
sg28
Nsg44
g2905
stRp3962
atRp3963
sg68
g3909
sg69
S'4'
sg70
g71
sg44
S'Per Client transmission work queue'
p3964
sg42
S'SendQ'
p3965
sg74
S'104'
p3966
sg40
S'db.sendq.pt'
p3967
stRp3968
sS'revsx'
p3969
g3
(g4
g5
(dp3970
g7
S'depotFile, depotRev'
p3971
sg9
g3
(g10
g11
(lp3972
g3
(g4
g5
(dp3973
g14
S''
sg15
g16
sg17
g16
sg18
S''
sg19
S''
sg20
g21
sg22
g23
stRp3974
ag3
(g4
g5
(dp3975
g14
S''
sg17
g26
sg18
S''
sg20
g27
sg19
S''
sg15
g26
sg28
Nsg22
g29
stRp3976
ag3
(g4
g5
(dp3977
g14
S''
sg17
g32
sg18
S''
sg20
g21
sg19
S''
sg15
g32
sg28
Nsg22
g33
stRp3978
ag3
(g4
g5
(dp3979
g14
S''
sg17
g36
sg18
S''
sg20
g27
sg19
S''
sg15
g36
sg28
Nsg22
g37
stRp3980
ag3
(g4
g5
(dp3981
g14
S''
sg40
g91
sg18
S''
sg42
g92
sg19
S''
sg15
g91
sg28
Nsg44
g93
stRp3982
ag3
(g4
g5
(dp3983
g14
S''
sg40
g96
sg18
S''
sg42
g97
sg19
S''
sg15
g96
sg28
Nsg44
g98
stRp3984
ag3
(g4
g5
(dp3985
g14
S''
sg40
g101
sg18
S''
sg42
g102
sg19
S''
sg15
g101
sg28
Nsg44
g103
stRp3986
ag3
(g4
g5
(dp3987
g14
S''
sg40
g106
sg18
S''
sg42
g107
sg19
S''
sg15
g106
sg28
Nsg44
g108
stRp3988
ag3
(g4
g5
(dp3989
g14
S''
sg40
g111
sg18
S''
sg42
g112
sg19
S''
sg15
g111
sg28
Nsg44
g113
stRp3990
ag3
(g4
g5
(dp3991
g14
S''
sg40
g116
sg18
S''
sg42
g117
sg19
S''
sg15
g116
sg28
Nsg44
g118
stRp3992
ag3
(g4
g5
(dp3993
g14
S''
sg40
g121
sg18
S''
sg42
g122
sg19
S''
sg15
g121
sg28
Nsg44
g123
stRp3994
ag3
(g4
g5
(dp3995
g14
S''
sg40
g126
sg18
S''
sg42
g127
sg19
S''
sg15
g126
sg28
Nsg44
g128
stRp3996
ag3
(g4
g5
(dp3997
g14
S''
sg40
g131
sg18
S''
sg42
g132
sg19
S''
sg15
g131
sg28
Nsg44
g133
stRp3998
ag3
(g4
g5
(dp3999
g14
S''
sg40
g136
sg18
S''
sg42
g137
sg19
S''
sg15
g136
sg28
Nsg44
g138
stRp4000
ag3
(g4
g5
(dp4001
g14
S''
sg40
g141
sg18
S''
sg42
g142
sg19
S''
sg15
g141
sg28
Nsg44
g143
stRp4002
ag3
(g4
g5
(dp4003
g14
S''
sg40
g146
sg18
S''
sg42
g147
sg19
S''
sg15
g146
sg28
Nsg44
g148
stRp4004
ag3
(g4
g5
(dp4005
g14
S''
sg40
g151
sg18
S''
sg42
g152
sg19
S''
sg15
g151
sg28
Nsg44
g153
stRp4006
ag3
(g4
g5
(dp4007
g14
S''
sg40
g156
sg18
S''
sg42
g157
sg19
S''
sg15
g156
sg28
Nsg44
g158
stRp4008
atRp4009
sg68
g3969
sg69
S'9'
sg70
g71
sg44
S'Revision records for spec depot files'
p4010
sg42
S'Rev'
p4011
sg74
S'52'
p4012
sg40
S'db.revsx'
p4013
stRp4014
sS'ticketrp'
p4015
g3
(g4
g5
(dp4016
g7
S'user, host'
p4017
sg9
g3
(g10
g11
(lp4018
g3
(g4
g5
(dp4019
g14
S''
sg15
g16
sg17
g16
sg18
S''
sg19
S''
sg20
g21
sg22
g23
stRp4020
ag3
(g4
g5
(dp4021
g14
S''
sg17
g26
sg18
S''
sg20
g27
sg19
S''
sg15
g26
sg28
Nsg22
g29
stRp4022
ag3
(g4
g5
(dp4023
g14
S''
sg17
g32
sg18
S''
sg20
g21
sg19
S''
sg15
g32
sg28
Nsg22
g33
stRp4024
ag3
(g4
g5
(dp4025
g14
S''
sg17
g36
sg18
S''
sg20
g27
sg19
S''
sg15
g36
sg28
Nsg22
g37
stRp4026
ag3
(g4
g5
(dp4027
g14
S''
sg40
g477
sg18
S''
sg42
g478
sg19
S''
sg15
g477
sg28
Nsg44
g479
stRp4028
ag3
(g4
g5
(dp4029
g14
S''
sg40
g482
sg18
S''
sg42
g483
sg19
S''
sg15
g482
sg28
Nsg44
g484
stRp4030
ag3
(g4
g5
(dp4031
g14
S''
sg40
g487
sg18
S''
sg42
g488
sg19
S''
sg15
g487
sg28
Nsg44
g489
stRp4032
ag3
(g4
g5
(dp4033
g14
S''
sg40
g492
sg18
S''
sg42
g493
sg19
S''
sg15
g492
sg28
Nsg44
g494
stRp4034
ag3
(g4
g5
(dp4035
g14
S''
sg40
g497
sg18
S''
sg42
g498
sg19
S''
sg15
g497
sg28
Nsg44
g499
stRp4036
ag3
(g4
g5
(dp4037
g14
S''
sg40
g502
sg18
S''
sg42
g503
sg19
S''
sg15
g502
sg28
Nsg44
g504
stRp4038
atRp4039
sg68
g4015
sg69
S'0'
sg70
g71
sg44
S'Second factor authentication state on a per user/host basis (replica)'
p4040
sg42
S'Ticket'
p4041
sg74
S'16'
p4042
sg40
S'db.ticket.rp'
p4043
stRp4044
sS'object'
p4045
g3
(g4
g5
(dp4046
g7
S'sha'
p4047
sg9
g3
(g10
g11
(lp4048
g3
(g4
g5
(dp4049
g14
S''
sg15
g16
sg17
g16
sg18
S''
sg19
S''
sg20
g21
sg22
g23
stRp4050
ag3
(g4
g5
(dp4051
g14
S''
sg17
g26
sg18
S''
sg20
g27
sg19
S''
sg15
g26
sg28
Nsg22
g29
stRp4052
ag3
(g4
g5
(dp4053
g14
S''
sg17
g32
sg18
S''
sg20
g21
sg19
S''
sg15
g32
sg28
Nsg22
g33
stRp4054
ag3
(g4
g5
(dp4055
g14
S''
sg17
g36
sg18
S''
sg20
g27
sg19
S''
sg15
g36
sg28
Nsg22
g37
stRp4056
ag3
(g4
g5
(dp4057
g14
S''
sg40
S'sha'
p4058
sg18
S''
sg42
S'SHA1'
p4059
sg19
S''
sg15
g4058
sg28
Nsg44
S'The SHA1 of the object'
p4060
stRp4061
ag3
(g4
g5
(dp4062
g14
S''
sg40
S'type'
p4063
sg18
S''
sg42
S'ObjectType'
p4064
sg19
S''
sg15
g4063
sg28
Nsg44
S'The object type'
p4065
stRp4066
ag3
(g4
g5
(dp4067
g14
S''
sg40
S'data'
p4068
sg18
S''
sg42
S'Octet String'
p4069
sg19
S''
sg15
g4068
sg28
Nsg44
S'The object content'
p4070
stRp4071
atRp4072
sg68
g4045
sg69
S'0'
sg70
g71
sg44
S'Object storage for graph depots'
p4073
sg42
S'Object'
p4074
sg74
S'78'
p4075
sg40
S'db.object'
p4076
stRp4077
sS'workingg'
p4078
g3
(g4
g5
(dp4079
g7
S'clientFile'
p4080
sg9
g3
(g10
g11
(lp4081
g3
(g4
g5
(dp4082
g14
S''
sg15
g16
sg17
g16
sg18
S''
sg19
S''
sg20
g21
sg22
g23
stRp4083
ag3
(g4
g5
(dp4084
g14
S''
sg17
g26
sg18
S''
sg20
g27
sg19
S''
sg15
g26
sg28
Nsg22
g29
stRp4085
ag3
(g4
g5
(dp4086
g14
S''
sg17
g32
sg18
S''
sg20
g21
sg19
S''
sg15
g32
sg28
Nsg22
g33
stRp4087
ag3
(g4
g5
(dp4088
g14
S''
sg17
g36
sg18
S''
sg20
g27
sg19
S''
sg15
g36
sg28
Nsg22
g37
stRp4089
ag3
(g4
g5
(dp4090
g14
S''
sg40
S'clientFile'
p4091
sg18
S''
sg42
S'File'
p4092
sg19
S''
sg15
g4091
sg28
Nsg44
S'File on the client'
p4093
stRp4094
ag3
(g4
g5
(dp4095
g14
S''
sg40
S'depotFile'
p4096
sg18
S''
sg42
S'File'
p4097
sg19
S''
sg15
g4096
sg28
Nsg44
S'File in the depot'
p4098
stRp4099
ag3
(g4
g5
(dp4100
g14
S''
sg40
S'client'
p4101
sg18
S''
sg42
S'Domain'
p4102
sg19
S''
sg15
g4101
sg28
Nsg44
S'The client on which the file is opened'
p4103
stRp4104
ag3
(g4
g5
(dp4105
g14
S''
sg40
S'user'
p4106
sg18
S''
sg42
S'User'
p4107
sg19
S''
sg15
g4106
sg28
Nsg44
S'The user who has the file opened'
p4108
stRp4109
ag3
(g4
g5
(dp4110
g14
S''
sg40
S'haveRev'
p4111
sg18
S''
sg42
S'Rev'
p4112
sg19
S''
sg15
g4111
sg28
Nsg44
S"Revision presently in user's client workspace"
p4113
stRp4114
ag3
(g4
g5
(dp4115
g14
S''
sg40
S'workRev'
p4116
sg18
S''
sg42
S'Rev'
p4117
sg19
S''
sg15
g4116
sg28
Nsg44
S'Working revision; normally identical to the haveRev'
p4118
stRp4119
ag3
(g4
g5
(dp4120
g14
S''
sg40
S'isVirtual'
p4121
sg18
S''
sg42
S'Int'
p4122
sg19
S''
sg15
g4121
sg28
Nsg44
S'Flag: if 1, file was opened with "p4 integ -v".'
p4123
stRp4124
ag3
(g4
g5
(dp4125
g14
S''
sg40
S'type'
p4126
sg18
S''
sg42
S'FileType'
p4127
sg19
S''
sg15
g4126
sg28
Nsg44
S'File type'
p4128
stRp4129
ag3
(g4
g5
(dp4130
g14
S''
sg40
S'action'
p4131
sg18
S''
sg42
S'Action'
p4132
sg19
S''
sg15
g4131
sg28
Nsg44
S"What the user's doing with the file"
p4133
stRp4134
ag3
(g4
g5
(dp4135
g14
S''
sg40
S'change'
p4136
sg18
S''
sg42
S'Change'
p4137
sg19
S''
sg15
g4136
sg28
Nsg44
S'Associated changelist, or zero for the default changelist.'
p4138
stRp4139
ag3
(g4
g5
(dp4140
g14
S''
sg40
S'modTime'
p4141
sg18
S''
sg42
S'Date'
p4142
sg19
S''
sg15
g4141
sg28
Nsg44
S"Modification timestamp on the file in the user's workspace."
p4143
stRp4144
ag3
(g4
g5
(dp4145
g14
S''
sg40
S'isLocked'
p4146
sg18
S''
sg42
S'LockedType'
p4147
sg19
S''
sg15
g4146
sg28
Nsg44
S'Bitmask of locked flags'
p4148
stRp4149
ag3
(g4
g5
(dp4150
g14
S''
sg40
S'digest'
p4151
sg18
S''
sg42
S'Digest'
p4152
sg19
S''
sg15
g4151
sg28
Nsg44
S'MD5 digest of working file.'
p4153
stRp4154
ag3
(g4
g5
(dp4155
g14
S''
sg40
S'size'
p4156
sg18
S''
sg42
S'FileSize'
p4157
sg19
S''
sg15
g4156
sg28
Nsg44
S'File size'
p4158
stRp4159
ag3
(g4
g5
(dp4160
g14
S''
sg40
S'traitLot'
p4161
sg18
S''
sg42
S'TraitLot'
p4162
sg19
S''
sg15
g4161
sg28
Nsg44
S'Group of traits associated with file revision.'
p4163
stRp4164
ag3
(g4
g5
(dp4165
g14
S''
sg40
S'tampered'
p4166
sg18
S''
sg42
S'TamperCheck'
p4167
sg19
S''
sg15
g4166
sg28
Nsg44
S'Flag indicating the tamper-state of the file in the\n\t\t    workspace.'
p4168
stRp4169
ag3
(g4
g5
(dp4170
g14
S''
sg40
S'clientType'
p4171
sg18
S''
sg42
S'FileType'
p4172
sg19
S''
sg15
g4171
sg28
Nsg44
S'Type of the file in the client workspace.'
p4173
stRp4174
ag3
(g4
g5
(dp4175
g14
S''
sg40
S'movedFile'
p4176
sg18
S''
sg42
S'File'
p4177
sg19
S''
sg15
g4176
sg28
Nsg44
S'Moved from filename'
p4178
stRp4179
ag3
(g4
g5
(dp4180
g14
S''
sg40
S'status'
p4181
sg18
S''
sg42
S'WorkStatus'
p4182
sg19
S''
sg15
g4181
sg28
Nsg44
S'Working status'
p4183
stRp4184
ag3
(g4
g5
(dp4185
g14
S''
sg40
S'blobSha'
p4186
sg18
S''
sg42
S'SHA1'
p4187
sg19
S''
sg15
g4186
sg28
Nsg44
S'Blob SHA'
p4188
stRp4189
ag3
(g4
g5
(dp4190
g14
S''
sg40
S'repo'
p4191
sg18
S''
sg42
S'Key'
p4192
sg19
S''
sg15
g4191
sg28
Nsg44
S'Repository name'
p4193
stRp4194
atRp4195
sg68
g4078
sg69
S'0'
sg70
g71
sg44
S'Working records for clients of type graph'
p4196
sg42
S'WorkingG'
p4197
sg74
S'64'
p4198
sg40
S'db.workingg'
p4199
stRp4200
sS'job'
p4201
g3
(g4
g5
(dp4202
g7
S'job'
p4203
sg9
g3
(g10
g11
(lp4204
g3
(g4
g5
(dp4205
g14
S''
sg15
g16
sg17
g16
sg18
S''
sg19
S''
sg20
g21
sg22
g23
stRp4206
ag3
(g4
g5
(dp4207
g14
S''
sg17
g26
sg18
S''
sg20
g27
sg19
S''
sg15
g26
sg28
Nsg22
g29
stRp4208
ag3
(g4
g5
(dp4209
g14
S''
sg17
g32
sg18
S''
sg20
g21
sg19
S''
sg15
g32
sg28
Nsg22
g33
stRp4210
ag3
(g4
g5
(dp4211
g14
S''
sg17
g36
sg18
S''
sg20
g27
sg19
S''
sg15
g36
sg28
Nsg22
g37
stRp4212
ag3
(g4
g5
(dp4213
g14
S''
sg40
S'job'
p4214
sg18
S''
sg42
S'Key'
p4215
sg19
S''
sg15
g4214
sg28
Nsg44
S'The job name'
p4216
stRp4217
ag3
(g4
g5
(dp4218
g14
S''
sg40
S'xuser'
p4219
sg18
S''
sg42
S'User'
p4220
sg19
S''
sg15
g4219
sg28
Nsg44
S'User name: defunct'
p4221
stRp4222
ag3
(g4
g5
(dp4223
g14
S''
sg40
S'xdate'
p4224
sg18
S''
sg42
S'Date'
p4225
sg19
S''
sg15
g4224
sg28
Nsg44
S'The date: defunct'
p4226
stRp4227
ag3
(g4
g5
(dp4228
g14
S''
sg40
S'xstatus'
p4229
sg18
S''
sg42
S'JobStat'
p4230
sg19
S''
sg15
g4229
sg28
Nsg44
S'Job status: defunct'
p4231
stRp4232
ag3
(g4
g5
(dp4233
g14
S''
sg40
S'description'
p4234
sg18
S''
sg42
S'DescShort'
p4235
sg19
S''
sg15
g4234
sg28
Nsg44
S'Short description'
p4236
stRp4237
atRp4238
sg68
g4201
sg40
S'db.job'
p4239
sg69
S'0'
sg70
g71
sg915
S'db.bodtext'
p4240
sg42
S'Job'
p4241
sg74
S'83'
p4242
sg44
S'Job records'
p4243
stRp4244
sS'workingx'
p4245
g3
(g4
g5
(dp4246
g7
S'clientFile'
p4247
sg9
g3
(g10
g11
(lp4248
g3
(g4
g5
(dp4249
g14
S''
sg15
g16
sg17
g16
sg18
S''
sg19
S''
sg20
g21
sg22
g23
stRp4250
ag3
(g4
g5
(dp4251
g14
S''
sg17
g26
sg18
S''
sg20
g27
sg19
S''
sg15
g26
sg28
Nsg22
g29
stRp4252
ag3
(g4
g5
(dp4253
g14
S''
sg17
g32
sg18
S''
sg20
g21
sg19
S''
sg15
g32
sg28
Nsg22
g33
stRp4254
ag3
(g4
g5
(dp4255
g14
S''
sg17
g36
sg18
S''
sg20
g27
sg19
S''
sg15
g36
sg28
Nsg22
g37
stRp4256
ag3
(g4
g5
(dp4257
g14
S''
sg40
g770
sg18
S''
sg42
g771
sg19
S''
sg15
g770
sg28
Nsg44
g772
stRp4258
ag3
(g4
g5
(dp4259
g14
S''
sg40
g775
sg18
S''
sg42
g776
sg19
S''
sg15
g775
sg28
Nsg44
g777
stRp4260
ag3
(g4
g5
(dp4261
g14
S''
sg40
g780
sg18
S''
sg42
g781
sg19
S''
sg15
g780
sg28
Nsg44
g782
stRp4262
ag3
(g4
g5
(dp4263
g14
S''
sg40
g785
sg18
S''
sg42
g786
sg19
S''
sg15
g785
sg28
Nsg44
g787
stRp4264
ag3
(g4
g5
(dp4265
g14
S''
sg40
g790
sg18
S''
sg42
g791
sg19
S''
sg15
g790
sg28
Nsg44
g792
stRp4266
ag3
(g4
g5
(dp4267
g14
S''
sg40
g795
sg18
S''
sg42
g796
sg19
S''
sg15
g795
sg28
Nsg44
g797
stRp4268
ag3
(g4
g5
(dp4269
g14
S''
sg40
g800
sg18
S''
sg42
g801
sg19
S''
sg15
g800
sg28
Nsg44
g802
stRp4270
ag3
(g4
g5
(dp4271
g14
S''
sg40
g805
sg18
S''
sg42
g806
sg19
S''
sg15
g805
sg28
Nsg44
g807
stRp4272
ag3
(g4
g5
(dp4273
g14
S''
sg40
g810
sg18
S''
sg42
g811
sg19
S''
sg15
g810
sg28
Nsg44
g812
stRp4274
ag3
(g4
g5
(dp4275
g14
S''
sg40
g815
sg18
S''
sg42
g816
sg19
S''
sg15
g815
sg28
Nsg44
g817
stRp4276
ag3
(g4
g5
(dp4277
g14
S''
sg40
g820
sg18
S''
sg42
g821
sg19
S''
sg15
g820
sg28
Nsg44
g822
stRp4278
ag3
(g4
g5
(dp4279
g14
S''
sg40
g825
sg18
S''
sg42
g826
sg19
S''
sg15
g825
sg28
Nsg44
g827
stRp4280
ag3
(g4
g5
(dp4281
g14
S''
sg40
g830
sg18
S''
sg42
g831
sg19
S''
sg15
g830
sg28
Nsg44
g832
stRp4282
ag3
(g4
g5
(dp4283
g14
S''
sg40
g835
sg18
S''
sg42
g836
sg19
S''
sg15
g835
sg28
Nsg44
g837
stRp4284
ag3
(g4
g5
(dp4285
g14
S''
sg40
g840
sg18
S''
sg42
g841
sg19
S''
sg15
g840
sg28
Nsg44
g842
stRp4286
ag3
(g4
g5
(dp4287
g14
S''
sg40
g845
sg18
S''
sg42
g846
sg19
S''
sg15
g845
sg28
Nsg44
g847
stRp4288
ag3
(g4
g5
(dp4289
g14
S''
sg40
g850
sg18
S''
sg42
g851
sg19
S''
sg15
g850
sg28
Nsg44
g852
stRp4290
ag3
(g4
g5
(dp4291
g14
S''
sg40
g855
sg18
S''
sg42
g856
sg19
S''
sg15
g855
sg28
Nsg44
g857
stRp4292
ag3
(g4
g5
(dp4293
g14
S''
sg40
g860
sg18
S''
sg42
g861
sg19
S''
sg15
g860
sg28
Nsg44
g862
stRp4294
atRp4295
sg68
g4245
sg69
S'10'
p4296
sg70
g71
sg44
S'Records for shelved open files'
p4297
sg42
S'Working'
p4298
sg74
S'63'
p4299
sg40
S'db.workingx'
p4300
stRp4301
sS'templatewx'
p4302
g3
(g4
g5
(dp4303
g7
S'client, name, seq'
p4304
sg9
g3
(g10
g11
(lp4305
g3
(g4
g5
(dp4306
g14
S''
sg15
g16
sg17
g16
sg18
S''
sg19
S''
sg20
g21
sg22
g23
stRp4307
ag3
(g4
g5
(dp4308
g14
S''
sg17
g26
sg18
S''
sg20
g27
sg19
S''
sg15
g26
sg28
Nsg22
g29
stRp4309
ag3
(g4
g5
(dp4310
g14
S''
sg17
g32
sg18
S''
sg20
g21
sg19
S''
sg15
g32
sg28
Nsg22
g33
stRp4311
ag3
(g4
g5
(dp4312
g14
S''
sg17
g36
sg18
S''
sg20
g27
sg19
S''
sg15
g36
sg28
Nsg22
g37
stRp4313
ag3
(g4
g5
(dp4314
g14
S''
sg40
S'client'
p4315
sg18
S''
sg42
S'Domain'
p4316
sg19
S''
sg15
g4315
sg28
Nsg44
S'Stream client'
p4317
stRp4318
ag3
(g4
g5
(dp4319
g14
S''
sg40
S'name'
p4320
sg18
S''
sg42
S'Domain'
p4321
sg19
S''
sg15
g4320
sg28
Nsg44
S'Stream name'
p4322
stRp4323
ag3
(g4
g5
(dp4324
g14
S''
sg40
S'seq'
p4325
sg18
S''
sg42
S'Int'
p4326
sg19
S''
sg15
g4325
sg28
Nsg44
S'Sequence (line) number'
p4327
stRp4328
ag3
(g4
g5
(dp4329
g14
S''
sg40
S'change'
p4330
sg18
S''
sg42
S'Change'
p4331
sg19
S''
sg15
g4330
sg28
Nsg44
S'Versioned at change'
p4332
stRp4333
ag3
(g4
g5
(dp4334
g14
S''
sg40
S'parent'
p4335
sg18
S''
sg42
S'Domain'
p4336
sg19
S''
sg15
g4335
sg28
Nsg44
S'Parent stream name'
p4337
stRp4338
ag3
(g4
g5
(dp4339
g14
S''
sg40
S'type'
p4340
sg18
S''
sg42
S'StreamType'
p4341
sg19
S''
sg15
g4340
sg28
Nsg44
S'Type of stream'
p4342
stRp4343
ag3
(g4
g5
(dp4344
g14
S''
sg40
S'path'
p4345
sg18
S''
sg42
S'StreamPathType'
p4346
sg19
S''
sg15
g4345
sg28
Nsg44
S'Stream path type'
p4347
stRp4348
ag3
(g4
g5
(dp4349
g14
S''
sg40
S'viewFile'
p4350
sg18
S''
sg42
S'Mapping'
p4351
sg19
S''
sg15
g4350
sg28
Nsg44
S'View file (left hand side of path)'
p4352
stRp4353
ag3
(g4
g5
(dp4354
g14
S''
sg40
S'depotFile'
p4355
sg18
S''
sg42
S'Mapping'
p4356
sg19
S''
sg15
g4355
sg28
Nsg44
S'Depot file (right hand side of path)'
p4357
stRp4358
ag3
(g4
g5
(dp4359
g14
S''
sg40
S'changeMap'
p4360
sg18
S''
sg42
S'Value'
p4361
sg19
S''
sg15
g4360
sg28
Nsg44
S"Stream 'import' path changelist specifier. The changelist\n\t\t\tlimits in effect for a given client are displayed in a\n\t    \tread-only client spec field called 'ChangeView'"
p4362
stRp4363
ag3
(g4
g5
(dp4364
g14
S''
sg40
S'changeAtOpen'
p4365
sg18
S''
sg42
S'Change'
p4366
sg19
S''
sg15
g4365
sg28
Nsg44
S'Base change at time of opening'
p4367
stRp4368
ag3
(g4
g5
(dp4369
g14
S''
sg40
S'user'
p4370
sg18
S''
sg42
S'User'
p4371
sg19
S''
sg15
g4370
sg28
Nsg44
S'The user that created the change'
p4372
stRp4373
ag3
(g4
g5
(dp4374
g14
S''
sg40
S'action'
p4375
sg18
S''
sg42
S'Action'
p4376
sg19
S''
sg15
g4375
sg28
Nsg44
S'The action that created the change'
p4377
stRp4378
atRp4379
sg68
g4302
sg69
S'2'
sg70
g71
sg44
S'Pending stream templates'
p4380
sg42
S'TemplateWx'
p4381
sg74
S'26'
p4382
sg40
S'db.templatewx'
p4383
stRp4384
sS'revsh'
p4385
g3
(g4
g5
(dp4386
g7
S'depotFile, depotRev, type, action, change'
p4387
sg9
g3
(g10
g11
(lp4388
g3
(g4
g5
(dp4389
g14
S''
sg15
g16
sg17
g16
sg18
S''
sg19
S''
sg20
g21
sg22
g23
stRp4390
ag3
(g4
g5
(dp4391
g14
S''
sg17
g26
sg18
S''
sg20
g27
sg19
S''
sg15
g26
sg28
Nsg22
g29
stRp4392
ag3
(g4
g5
(dp4393
g14
S''
sg17
g32
sg18
S''
sg20
g21
sg19
S''
sg15
g32
sg28
Nsg22
g33
stRp4394
ag3
(g4
g5
(dp4395
g14
S''
sg17
g36
sg18
S''
sg20
g27
sg19
S''
sg15
g36
sg28
Nsg22
g37
stRp4396
ag3
(g4
g5
(dp4397
g14
S''
sg40
g91
sg18
S''
sg42
g92
sg19
S''
sg15
g91
sg28
Nsg44
g93
stRp4398
ag3
(g4
g5
(dp4399
g14
S''
sg40
g96
sg18
S''
sg42
g97
sg19
S''
sg15
g96
sg28
Nsg44
g98
stRp4400
ag3
(g4
g5
(dp4401
g14
S''
sg40
g101
sg18
S''
sg42
g102
sg19
S''
sg15
g101
sg28
Nsg44
g103
stRp4402
ag3
(g4
g5
(dp4403
g14
S''
sg40
g106
sg18
S''
sg42
g107
sg19
S''
sg15
g106
sg28
Nsg44
g108
stRp4404
ag3
(g4
g5
(dp4405
g14
S''
sg40
g111
sg18
S''
sg42
g112
sg19
S''
sg15
g111
sg28
Nsg44
g113
stRp4406
ag3
(g4
g5
(dp4407
g14
S''
sg40
g116
sg18
S''
sg42
g117
sg19
S''
sg15
g116
sg28
Nsg44
g118
stRp4408
ag3
(g4
g5
(dp4409
g14
S''
sg40
g121
sg18
S''
sg42
g122
sg19
S''
sg15
g121
sg28
Nsg44
g123
stRp4410
ag3
(g4
g5
(dp4411
g14
S''
sg40
g126
sg18
S''
sg42
g127
sg19
S''
sg15
g126
sg28
Nsg44
g128
stRp4412
ag3
(g4
g5
(dp4413
g14
S''
sg40
g131
sg18
S''
sg42
g132
sg19
S''
sg15
g131
sg28
Nsg44
g133
stRp4414
ag3
(g4
g5
(dp4415
g14
S''
sg40
g136
sg18
S''
sg42
g137
sg19
S''
sg15
g136
sg28
Nsg44
g138
stRp4416
ag3
(g4
g5
(dp4417
g14
S''
sg40
g141
sg18
S''
sg42
g142
sg19
S''
sg15
g141
sg28
Nsg44
g143
stRp4418
ag3
(g4
g5
(dp4419
g14
S''
sg40
g146
sg18
S''
sg42
g147
sg19
S''
sg15
g146
sg28
Nsg44
g148
stRp4420
ag3
(g4
g5
(dp4421
g14
S''
sg40
g151
sg18
S''
sg42
g152
sg19
S''
sg15
g151
sg28
Nsg44
g153
stRp4422
ag3
(g4
g5
(dp4423
g14
S''
sg40
g156
sg18
S''
sg42
g157
sg19
S''
sg15
g156
sg28
Nsg44
g158
stRp4424
atRp4425
sg68
g4385
sg69
S'9'
sg70
g71
sg44
S'Revision records for shelved files'
p4426
sg42
S'Rev'
p4427
sg74
S'53'
p4428
sg40
S'db.revsh'
p4429
stRp4430
sS'changeidx'
p4431
g3
(g4
g5
(dp4432
g7
S'identity'
p4433
sg9
g3
(g10
g11
(lp4434
g3
(g4
g5
(dp4435
g14
S''
sg15
g16
sg17
g16
sg18
S''
sg19
S''
sg20
g21
sg22
g23
stRp4436
ag3
(g4
g5
(dp4437
g14
S''
sg17
g26
sg18
S''
sg20
g27
sg19
S''
sg15
g26
sg28
Nsg22
g29
stRp4438
ag3
(g4
g5
(dp4439
g14
S''
sg17
g32
sg18
S''
sg20
g21
sg19
S''
sg15
g32
sg28
Nsg22
g33
stRp4440
ag3
(g4
g5
(dp4441
g14
S''
sg17
g36
sg18
S''
sg20
g27
sg19
S''
sg15
g36
sg28
Nsg22
g37
stRp4442
ag3
(g4
g5
(dp4443
g14
S''
sg40
S'identity'
p4444
sg18
S''
sg42
S'Key'
p4445
sg19
S''
sg15
g4444
sg28
Nsg44
S'Identifier for this change'
p4446
stRp4447
ag3
(g4
g5
(dp4448
g14
S''
sg40
S'change'
p4449
sg18
S''
sg42
S'Change'
p4450
sg19
S''
sg15
g4449
sg28
Nsg44
S'Changelist'
p4451
stRp4452
atRp4453
sg68
g4431
sg69
S'1'
sg70
g71
sg44
S'Secondary index of db.change/db.changex'
p4454
sg42
S'ChangeIdx'
p4455
sg74
S'73'
p4456
sg40
S'db.changeidx'
p4457
stRp4458
sS'locksg'
p4459
g3
(g4
g5
(dp4460
g7
S'depotFile, client'
p4461
sg9
g3
(g10
g11
(lp4462
g3
(g4
g5
(dp4463
g14
S''
sg15
g16
sg17
g16
sg18
S''
sg19
S''
sg20
g21
sg22
g23
stRp4464
ag3
(g4
g5
(dp4465
g14
S''
sg17
g26
sg18
S''
sg20
g27
sg19
S''
sg15
g26
sg28
Nsg22
g29
stRp4466
ag3
(g4
g5
(dp4467
g14
S''
sg17
g32
sg18
S''
sg20
g21
sg19
S''
sg15
g32
sg28
Nsg22
g33
stRp4468
ag3
(g4
g5
(dp4469
g14
S''
sg17
g36
sg18
S''
sg20
g27
sg19
S''
sg15
g36
sg28
Nsg22
g37
stRp4470
ag3
(g4
g5
(dp4471
g14
S''
sg40
g2972
sg18
S''
sg42
g2973
sg19
S''
sg15
g2972
sg28
Nsg44
g2974
stRp4472
ag3
(g4
g5
(dp4473
g14
S''
sg40
g2977
sg18
S''
sg42
g2978
sg19
S''
sg15
g2977
sg28
Nsg44
g2979
stRp4474
ag3
(g4
g5
(dp4475
g14
S''
sg40
g2982
sg18
S''
sg42
g2983
sg19
S''
sg15
g2982
sg28
Nsg44
g2984
stRp4476
ag3
(g4
g5
(dp4477
g14
S''
sg40
g2987
sg18
S''
sg42
g2988
sg19
S''
sg15
g2987
sg28
Nsg44
g2989
stRp4478
ag3
(g4
g5
(dp4479
g14
S''
sg40
g2992
sg18
S''
sg42
g2993
sg19
S''
sg15
g2992
sg28
Nsg44
g2994
stRp4480
ag3
(g4
g5
(dp4481
g14
S''
sg40
g2997
sg18
S''
sg42
g2998
sg19
S''
sg15
g2997
sg28
Nsg44
g2999
stRp4482
atRp4483
sg68
g4459
sg69
S'2'
sg70
g71
sg44
S'Lock records for clients of type graph'
p4484
sg42
S'Locks'
p4485
sg74
S'61'
p4486
sg40
S'db.locksg'
p4487
stRp4488
sS'bodtextsx'
p4489
g3
(g4
g5
(dp4490
g7
S'type, shelf, key, attr'
p4491
sg9
g3
(g10
g11
(lp4492
g3
(g4
g5
(dp4493
g14
S''
sg15
g16
sg17
g16
sg18
S''
sg19
S''
sg20
g21
sg22
g23
stRp4494
ag3
(g4
g5
(dp4495
g14
S''
sg17
g26
sg18
S''
sg20
g27
sg19
S''
sg15
g26
sg28
Nsg22
g29
stRp4496
ag3
(g4
g5
(dp4497
g14
S''
sg17
g32
sg18
S''
sg20
g21
sg19
S''
sg15
g32
sg28
Nsg22
g33
stRp4498
ag3
(g4
g5
(dp4499
g14
S''
sg17
g36
sg18
S''
sg20
g27
sg19
S''
sg15
g36
sg28
Nsg22
g37
stRp4500
ag3
(g4
g5
(dp4501
g14
S''
sg40
S'type'
p4502
sg18
S''
sg42
S'Int'
p4503
sg19
S''
sg15
g4502
sg28
Nsg44
S'The type of spec'
p4504
stRp4505
ag3
(g4
g5
(dp4506
g14
S''
sg40
S'shelf'
p4507
sg18
S''
sg42
S'Change'
p4508
sg19
S''
sg15
g4507
sg28
Nsg44
S'The shelf to which this attribute belongs'
p4509
stRp4510
ag3
(g4
g5
(dp4511
g14
S''
sg40
S'key'
p4512
sg18
S''
sg42
S'Key'
p4513
sg19
S''
sg15
g4512
sg28
Nsg44
S'The spec to which this attribute belongs'
p4514
stRp4515
ag3
(g4
g5
(dp4516
g14
S''
sg40
S'attr'
p4517
sg18
S''
sg42
S'Int'
p4518
sg19
S''
sg15
g4517
sg28
Nsg44
S'The attribute number of this attribute'
p4519
stRp4520
ag3
(g4
g5
(dp4521
g14
S''
sg40
S'text'
p4522
sg18
S''
sg42
S'Text'
p4523
sg19
S''
sg15
g4522
sg28
Nsg44
S'The attribute value'
p4524
stRp4525
ag3
(g4
g5
(dp4526
g14
S''
sg40
S'workChange'
p4527
sg18
S''
sg42
S'Change'
p4528
sg19
S''
sg15
g4527
sg28
Nsg44
S'The working change'
p4529
stRp4530
ag3
(g4
g5
(dp4531
g14
S''
sg40
S'user'
p4532
sg18
S''
sg42
S'User'
p4533
sg19
S''
sg15
g4532
sg28
Nsg44
S'The user that created the change'
p4534
stRp4535
ag3
(g4
g5
(dp4536
g14
S''
sg40
S'action'
p4537
sg18
S''
sg42
S'Action'
p4538
sg19
S''
sg15
g4537
sg28
Nsg44
S'The Action that created the change'
p4539
stRp4540
atRp4541
sg68
g4489
sg69
S'1'
sg70
g71
sg44
S'Shelved openable spec fields'
p4542
sg42
S'BodyTextSx'
p4543
sg74
S'94'
p4544
sg40
S'db.bodtextsx'
p4545
stRp4546
sS'integtx'
p4547
g3
(g4
g5
(dp4548
g7
S'toFile, fromFile, startFromRev, endFromRev,\n\t\t\tstartToRev, endToRev'
p4549
sg9
g3
(g10
g11
(lp4550
g3
(g4
g5
(dp4551
g14
S''
sg15
g16
sg17
g16
sg18
S''
sg19
S''
sg20
g21
sg22
g23
stRp4552
ag3
(g4
g5
(dp4553
g14
S''
sg17
g26
sg18
S''
sg20
g27
sg19
S''
sg15
g26
sg28
Nsg22
g29
stRp4554
ag3
(g4
g5
(dp4555
g14
S''
sg17
g32
sg18
S''
sg20
g21
sg19
S''
sg15
g32
sg28
Nsg22
g33
stRp4556
ag3
(g4
g5
(dp4557
g14
S''
sg17
g36
sg18
S''
sg20
g27
sg19
S''
sg15
g36
sg28
Nsg22
g37
stRp4558
ag3
(g4
g5
(dp4559
g14
S''
sg40
g1616
sg18
S''
sg42
g1617
sg19
S''
sg15
g1616
sg28
Nsg44
g1618
stRp4560
ag3
(g4
g5
(dp4561
g14
S''
sg40
g1621
sg18
S''
sg42
g1622
sg19
S''
sg15
g1621
sg28
Nsg44
g1623
stRp4562
ag3
(g4
g5
(dp4563
g14
S''
sg40
g1626
sg18
S''
sg42
g1627
sg19
S''
sg15
g1626
sg28
Nsg44
g1628
stRp4564
ag3
(g4
g5
(dp4565
g14
S''
sg40
g1631
sg18
S''
sg42
g1632
sg19
S''
sg15
g1631
sg28
Nsg44
g1633
stRp4566
ag3
(g4
g5
(dp4567
g14
S''
sg40
g1636
sg18
S''
sg42
g1637
sg19
S''
sg15
g1636
sg28
Nsg44
g1638
stRp4568
ag3
(g4
g5
(dp4569
g14
S''
sg40
g1641
sg18
S''
sg42
g1642
sg19
S''
sg15
g1641
sg28
Nsg44
g1643
stRp4570
ag3
(g4
g5
(dp4571
g14
S''
sg40
g1646
sg18
S''
sg42
g1647
sg19
S''
sg15
g1646
sg28
Nsg44
g1648
stRp4572
ag3
(g4
g5
(dp4573
g14
S''
sg40
g1651
sg18
S''
sg42
g1652
sg19
S''
sg15
g1651
sg28
Nsg44
g1653
stRp4574
atRp4575
sg68
g4547
sg40
S'db.integtx'
p4576
sg69
S'0'
sg70
g71
sg915
S'db.resolve'
p4577
sg42
S'Integed'
p4578
sg74
S'38'
p4579
sg44
S'Temporary integration records used by task streams'
p4580
stRp4581
sS'protect'
p4582
g3
(g4
g5
(dp4583
g7
S'seq'
p4584
sg9
g3
(g10
g11
(lp4585
g3
(g4
g5
(dp4586
g14
S''
sg15
g16
sg17
g16
sg18
S''
sg19
S''
sg20
g21
sg22
g23
stRp4587
ag3
(g4
g5
(dp4588
g14
S''
sg17
g26
sg18
S''
sg20
g27
sg19
S''
sg15
g26
sg28
Nsg22
g29
stRp4589
ag3
(g4
g5
(dp4590
g14
S''
sg17
g32
sg18
S''
sg20
g21
sg19
S''
sg15
g32
sg28
Nsg22
g33
stRp4591
ag3
(g4
g5
(dp4592
g14
S''
sg17
g36
sg18
S''
sg20
g27
sg19
S''
sg15
g36
sg28
Nsg22
g37
stRp4593
ag3
(g4
g5
(dp4594
g14
S''
sg40
S'seq'
p4595
sg18
S''
sg42
S'Int'
p4596
sg19
S''
sg15
g4595
sg28
Nsg44
S'Sequence number: for ordering the protections table'
p4597
stRp4598
ag3
(g4
g5
(dp4599
g14
S''
sg40
S'isGroup'
p4600
sg18
S''
sg42
S'Int'
p4601
sg19
S''
sg15
g4600
sg28
Nsg44
S'Flag: 0 for a per-user setting, 1 for a per-group setting.'
p4602
stRp4603
ag3
(g4
g5
(dp4604
g14
S''
sg40
S'user'
p4605
sg18
S''
sg42
S'UserWild'
p4606
sg19
S''
sg15
g4605
sg28
Nsg44
S'User(s), or Group(s) for whom this record applies.'
p4607
stRp4608
ag3
(g4
g5
(dp4609
g14
S''
sg40
S'host'
p4610
sg18
S''
sg42
S'DomainWild'
p4611
sg19
S''
sg15
g4610
sg28
Nsg44
S'Domain(s) (IP addresses) for which this record applies.'
p4612
stRp4613
ag3
(g4
g5
(dp4614
g14
S''
sg40
S'perm'
p4615
sg18
S''
sg42
S'Perm'
p4616
sg19
S''
sg15
g4615
sg28
Nsg44
S'Permissions to be granted/revoked'
p4617
stRp4618
ag3
(g4
g5
(dp4619
g14
S''
sg40
S'mapFlag'
p4620
sg18
S''
sg42
S'MapFlag'
p4621
sg19
S''
sg15
g4620
sg28
Nsg44
S'Flag: Map the files in or out?'
p4622
stRp4623
ag3
(g4
g5
(dp4624
g14
S''
sg40
S'depotFile'
p4625
sg18
S''
sg42
S'Mapping'
p4626
sg19
S''
sg15
g4625
sg28
Nsg44
S'Files to be mapped in or out.'
p4627
stRp4628
ag3
(g4
g5
(dp4629
g14
S''
sg40
S'subPath'
p4630
sg18
S''
sg42
S'Mapping'
p4631
sg19
S''
sg15
g4630
sg28
Nsg44
S'Root path of the sub-protections table'
p4632
stRp4633
ag3
(g4
g5
(dp4634
g14
S''
sg40
S'update'
p4635
sg18
S''
sg42
S'Date'
p4636
sg19
S''
sg15
g4635
sg28
Nsg44
S'Date this specification was last modified'
p4637
stRp4638
atRp4639
sg68
g4582
sg69
S'5'
sg70
g71
sg44
S'The protections table'
p4640
sg42
S'Protect'
p4641
sg74
S'100'
p4642
sg40
S'db.protect'
p4643
stRp4644
sS'remote'
p4645
g3
(g4
g5
(dp4646
g7
S'id'
p4647
sg9
g3
(g10
g11
(lp4648
g3
(g4
g5
(dp4649
g14
S''
sg15
g16
sg17
g16
sg18
S''
sg19
S''
sg20
g21
sg22
g23
stRp4650
ag3
(g4
g5
(dp4651
g14
S''
sg17
g26
sg18
S''
sg20
g27
sg19
S''
sg15
g26
sg28
Nsg22
g29
stRp4652
ag3
(g4
g5
(dp4653
g14
S''
sg17
g32
sg18
S''
sg20
g21
sg19
S''
sg15
g32
sg28
Nsg22
g33
stRp4654
ag3
(g4
g5
(dp4655
g14
S''
sg17
g36
sg18
S''
sg20
g27
sg19
S''
sg15
g36
sg28
Nsg22
g37
stRp4656
ag3
(g4
g5
(dp4657
g14
S''
sg40
S'id'
p4658
sg18
S''
sg42
S'RemoteID'
p4659
sg19
S''
sg15
g4658
sg28
Nsg44
S'The remote identifier'
p4660
stRp4661
ag3
(g4
g5
(dp4662
g14
S''
sg40
S'owner'
p4663
sg18
S''
sg42
S'User'
p4664
sg19
S''
sg15
g4663
sg28
Nsg44
S'The user who created this remote'
p4665
stRp4666
ag3
(g4
g5
(dp4667
g14
S''
sg40
S'options'
p4668
sg18
S''
sg42
S'Int'
p4669
sg19
S''
sg15
g4668
sg28
Nsg44
S'Remote options bitmask: 0: unlocked/nocompress, 1: locked/nocompress, 2: unlocked/compress, 4: locked/compress'
p4670
stRp4671
ag3
(g4
g5
(dp4672
g14
S''
sg40
S'address'
p4673
sg18
S''
sg42
S'Text'
p4674
sg19
S''
sg15
g4673
sg28
Nsg44
S'The P4PORT used by the remote server'
p4675
stRp4676
ag3
(g4
g5
(dp4677
g14
S''
sg40
S'desc'
p4678
sg18
S''
sg42
S'Text'
p4679
sg19
S''
sg15
g4678
sg28
Nsg44
S'Description of the remote server'
p4680
stRp4681
ag3
(g4
g5
(dp4682
g14
S''
sg40
S'update'
p4683
sg18
S''
sg42
S'Date'
p4684
sg19
S''
sg15
g4683
sg28
Nsg44
S'The date this specification was last modified'
p4685
stRp4686
ag3
(g4
g5
(dp4687
g14
S''
sg40
S'access'
p4688
sg18
S''
sg42
S'Date'
p4689
sg19
S''
sg15
g4688
sg28
Nsg44
S'The date of the last push/fetch on this remote'
p4690
stRp4691
ag3
(g4
g5
(dp4692
g14
S''
sg40
S'fetch'
p4693
sg18
S''
sg42
S'Change'
p4694
sg19
S''
sg15
g4693
sg28
Nsg44
S'The last changelist that was fetched'
p4695
stRp4696
ag3
(g4
g5
(dp4697
g14
S''
sg40
S'push'
p4698
sg18
S''
sg42
S'Change'
p4699
sg19
S''
sg15
g4698
sg28
Nsg44
S'The last changelist that was pushed'
p4700
stRp4701
ag3
(g4
g5
(dp4702
g14
S''
sg40
S'rmtuser'
p4703
sg18
S''
sg42
S'User'
p4704
sg19
S''
sg15
g4703
sg28
Nsg44
S'The user to use when connecting to the remote server'
p4705
stRp4706
atRp4707
sg68
g4645
sg69
S'1'
sg70
g71
sg44
S'Remote specifications'
p4708
sg42
S'Remote'
p4709
sg74
S'11'
p4710
sg40
S'db.remote'
p4711
stRp4712
sS'haveview'
p4713
g3
(g4
g5
(dp4714
g7
S'name, seq'
p4715
sg9
g3
(g10
g11
(lp4716
g3
(g4
g5
(dp4717
g14
S''
sg15
g16
sg17
g16
sg18
S''
sg19
S''
sg20
g21
sg22
g23
stRp4718
ag3
(g4
g5
(dp4719
g14
S''
sg17
g26
sg18
S''
sg20
g27
sg19
S''
sg15
g26
sg28
Nsg22
g29
stRp4720
ag3
(g4
g5
(dp4721
g14
S''
sg17
g32
sg18
S''
sg20
g21
sg19
S''
sg15
g32
sg28
Nsg22
g33
stRp4722
ag3
(g4
g5
(dp4723
g14
S''
sg17
g36
sg18
S''
sg20
g27
sg19
S''
sg15
g36
sg28
Nsg22
g37
stRp4724
ag3
(g4
g5
(dp4725
g14
S''
sg40
g2506
sg18
S''
sg42
g2507
sg19
S''
sg15
g2506
sg28
Nsg44
g2508
stRp4726
ag3
(g4
g5
(dp4727
g14
S''
sg40
g2511
sg18
S''
sg42
g2512
sg19
S''
sg15
g2511
sg28
Nsg44
g2513
stRp4728
ag3
(g4
g5
(dp4729
g14
S''
sg40
g2516
sg18
S''
sg42
g2517
sg19
S''
sg15
g2516
sg28
Nsg44
g2518
stRp4730
ag3
(g4
g5
(dp4731
g14
S''
sg40
g2521
sg18
S''
sg42
g2522
sg19
S''
sg15
g2521
sg28
Nsg44
g2523
stRp4732
ag3
(g4
g5
(dp4733
g14
S''
sg40
g2526
sg18
S''
sg42
g2527
sg19
S''
sg15
g2526
sg28
Nsg44
g2528
stRp4734
atRp4735
sg68
g4713
sg69
S'1'
sg70
g71
sg44
S'Stores mapping changes for clients mapping graph depot content'
p4736
sg42
S'View'
p4737
sg74
S'30'
p4738
sg40
S'db.haveview'
p4739
stRp4740
sS'ixtexthx'
p4741
g3
(g4
g5
(dp4742
g7
S'type, word, attr, value'
p4743
sg9
g3
(g10
g11
(lp4744
g3
(g4
g5
(dp4745
g14
S''
sg15
g16
sg17
g16
sg18
S''
sg19
S''
sg20
g21
sg22
g23
stRp4746
ag3
(g4
g5
(dp4747
g14
S''
sg17
g26
sg18
S''
sg20
g27
sg19
S''
sg15
g26
sg28
Nsg22
g29
stRp4748
ag3
(g4
g5
(dp4749
g14
S''
sg17
g32
sg18
S''
sg20
g21
sg19
S''
sg15
g32
sg28
Nsg22
g33
stRp4750
ag3
(g4
g5
(dp4751
g14
S''
sg17
g36
sg18
S''
sg20
g27
sg19
S''
sg15
g36
sg28
Nsg22
g37
stRp4752
ag3
(g4
g5
(dp4753
g14
S''
sg40
S'type'
p4754
sg18
S''
sg42
S'SpecType'
p4755
sg19
S''
sg15
g4754
sg28
Nsg44
S'The type'
p4756
stRp4757
ag3
(g4
g5
(dp4758
g14
S''
sg40
S'word'
p4759
sg18
S''
sg42
S'Key'
p4760
sg19
S''
sg15
g4759
sg28
Nsg44
S'The word being indexed'
p4761
stRp4762
ag3
(g4
g5
(dp4763
g14
S''
sg40
S'attr'
p4764
sg18
S''
sg42
S'Int'
p4765
sg19
S''
sg15
g4764
sg28
Nsg44
S'The attribute number to which this word belongs.'
p4766
stRp4767
ag3
(g4
g5
(dp4768
g14
S''
sg40
S'value'
p4769
sg18
S''
sg42
S'Key'
p4770
sg19
S''
sg15
g4769
sg28
Nsg44
S'The value of the index keyed by the word.'
p4771
stRp4772
atRp4773
sg68
g4741
sg69
S'0'
sg70
g71
sg44
S'Indexing data for head revision of all spec fields'
p4774
sg42
S'IndexTextHx'
p4775
sg74
S'98'
p4776
sg40
S'db.ixtexthx'
p4777
stRp4778
sS'templatesx'
p4779
g3
(g4
g5
(dp4780
g7
S'shelf, name, seq'
p4781
sg9
g3
(g10
g11
(lp4782
g3
(g4
g5
(dp4783
g14
S''
sg15
g16
sg17
g16
sg18
S''
sg19
S''
sg20
g21
sg22
g23
stRp4784
ag3
(g4
g5
(dp4785
g14
S''
sg17
g26
sg18
S''
sg20
g27
sg19
S''
sg15
g26
sg28
Nsg22
g29
stRp4786
ag3
(g4
g5
(dp4787
g14
S''
sg17
g32
sg18
S''
sg20
g21
sg19
S''
sg15
g32
sg28
Nsg22
g33
stRp4788
ag3
(g4
g5
(dp4789
g14
S''
sg17
g36
sg18
S''
sg20
g27
sg19
S''
sg15
g36
sg28
Nsg22
g37
stRp4790
ag3
(g4
g5
(dp4791
g14
S''
sg40
S'shelf'
p4792
sg18
S''
sg42
S'Change'
p4793
sg19
S''
sg15
g4792
sg28
Nsg44
S'Shelf changelist number'
p4794
stRp4795
ag3
(g4
g5
(dp4796
g14
S''
sg40
S'name'
p4797
sg18
S''
sg42
S'Domain'
p4798
sg19
S''
sg15
g4797
sg28
Nsg44
S'Stream name'
p4799
stRp4800
ag3
(g4
g5
(dp4801
g14
S''
sg40
S'seq'
p4802
sg18
S''
sg42
S'Int'
p4803
sg19
S''
sg15
g4802
sg28
Nsg44
S'Sequence (line) number'
p4804
stRp4805
ag3
(g4
g5
(dp4806
g14
S''
sg40
S'change'
p4807
sg18
S''
sg42
S'Change'
p4808
sg19
S''
sg15
g4807
sg28
Nsg44
S'Versioned at change'
p4809
stRp4810
ag3
(g4
g5
(dp4811
g14
S''
sg40
S'parent'
p4812
sg18
S''
sg42
S'Domain'
p4813
sg19
S''
sg15
g4812
sg28
Nsg44
S'Parent stream name'
p4814
stRp4815
ag3
(g4
g5
(dp4816
g14
S''
sg40
S'type'
p4817
sg18
S''
sg42
S'StreamType'
p4818
sg19
S''
sg15
g4817
sg28
Nsg44
S'Type of stream'
p4819
stRp4820
ag3
(g4
g5
(dp4821
g14
S''
sg40
S'path'
p4822
sg18
S''
sg42
S'StreamPathType'
p4823
sg19
S''
sg15
g4822
sg28
Nsg44
S'Stream path type'
p4824
stRp4825
ag3
(g4
g5
(dp4826
g14
S''
sg40
S'viewFile'
p4827
sg18
S''
sg42
S'Mapping'
p4828
sg19
S''
sg15
g4827
sg28
Nsg44
S'View file (left hand side of path)'
p4829
stRp4830
ag3
(g4
g5
(dp4831
g14
S''
sg40
S'depotFile'
p4832
sg18
S''
sg42
S'Mapping'
p4833
sg19
S''
sg15
g4832
sg28
Nsg44
S'Depot file (right hand side of path)'
p4834
stRp4835
ag3
(g4
g5
(dp4836
g14
S''
sg40
S'changeMap'
p4837
sg18
S''
sg42
S'Value'
p4838
sg19
S''
sg15
g4837
sg28
Nsg44
S"Stream 'import' path changelist specifier. The changelist\n\t\t\tlimits in effect for a given client are displayed in a\n\t    \tread-only client spec field called 'ChangeView'"
p4839
stRp4840
ag3
(g4
g5
(dp4841
g14
S''
sg40
S'changeAtOpen'
p4842
sg18
S''
sg42
S'Change'
p4843
sg19
S''
sg15
g4842
sg28
Nsg44
S'Base change at time of opening'
p4844
stRp4845
ag3
(g4
g5
(dp4846
g14
S''
sg40
S'user'
p4847
sg18
S''
sg42
S'User'
p4848
sg19
S''
sg15
g4847
sg28
Nsg44
S'The user that created the change'
p4849
stRp4850
ag3
(g4
g5
(dp4851
g14
S''
sg40
S'action'
p4852
sg18
S''
sg42
S'Action'
p4853
sg19
S''
sg15
g4852
sg28
Nsg44
S'The action that created the change'
p4854
stRp4855
atRp4856
sg68
g4779
sg69
S'2'
sg70
g71
sg44
S'Shelved stream templates'
p4857
sg42
S'TemplateSx'
p4858
sg74
S'25'
p4859
sg40
S'db.templatesx'
p4860
stRp4861
sS'uxtext'
p4862
g3
(g4
g5
(dp4863
g7
S'word, attr, value'
p4864
sg9
g3
(g10
g11
(lp4865
g3
(g4
g5
(dp4866
g14
S''
sg15
g16
sg17
g16
sg18
S''
sg19
S''
sg20
g21
sg22
g23
stRp4867
ag3
(g4
g5
(dp4868
g14
S''
sg17
g26
sg18
S''
sg20
g27
sg19
S''
sg15
g26
sg28
Nsg22
g29
stRp4869
ag3
(g4
g5
(dp4870
g14
S''
sg17
g32
sg18
S''
sg20
g21
sg19
S''
sg15
g32
sg28
Nsg22
g33
stRp4871
ag3
(g4
g5
(dp4872
g14
S''
sg17
g36
sg18
S''
sg20
g27
sg19
S''
sg15
g36
sg28
Nsg22
g37
stRp4873
ag3
(g4
g5
(dp4874
g14
S''
sg40
g363
sg18
S''
sg42
g364
sg19
S''
sg15
g363
sg28
Nsg44
g365
stRp4875
ag3
(g4
g5
(dp4876
g14
S''
sg40
g368
sg18
S''
sg42
g369
sg19
S''
sg15
g368
sg28
Nsg44
g370
stRp4877
ag3
(g4
g5
(dp4878
g14
S''
sg40
g373
sg18
S''
sg42
g374
sg19
S''
sg15
g373
sg28
Nsg44
g375
stRp4879
atRp4880
sg68
g4862
sg69
S'0'
sg70
g71
sg44
S'Indexing data for Swarm'
p4881
sg42
S'IndexText'
p4882
sg74
S'99'
p4883
sg40
S'db.uxtext'
p4884
stRp4885
sS'bodtextwx'
p4886
g3
(g4
g5
(dp4887
g7
S'type, client, key, attr'
p4888
sg9
g3
(g10
g11
(lp4889
g3
(g4
g5
(dp4890
g14
S''
sg15
g16
sg17
g16
sg18
S''
sg19
S''
sg20
g21
sg22
g23
stRp4891
ag3
(g4
g5
(dp4892
g14
S''
sg17
g26
sg18
S''
sg20
g27
sg19
S''
sg15
g26
sg28
Nsg22
g29
stRp4893
ag3
(g4
g5
(dp4894
g14
S''
sg17
g32
sg18
S''
sg20
g21
sg19
S''
sg15
g32
sg28
Nsg22
g33
stRp4895
ag3
(g4
g5
(dp4896
g14
S''
sg17
g36
sg18
S''
sg20
g27
sg19
S''
sg15
g36
sg28
Nsg22
g37
stRp4897
ag3
(g4
g5
(dp4898
g14
S''
sg40
S'type'
p4899
sg18
S''
sg42
S'Int'
p4900
sg19
S''
sg15
g4899
sg28
Nsg44
S'The type of spec'
p4901
stRp4902
ag3
(g4
g5
(dp4903
g14
S''
sg40
S'client'
p4904
sg18
S''
sg42
S'Domain'
p4905
sg19
S''
sg15
g4904
sg28
Nsg44
S'The client the spec is opened on'
p4906
stRp4907
ag3
(g4
g5
(dp4908
g14
S''
sg40
S'key'
p4909
sg18
S''
sg42
S'Key'
p4910
sg19
S''
sg15
g4909
sg28
Nsg44
S'The spec to which this attribute belongs'
p4911
stRp4912
ag3
(g4
g5
(dp4913
g14
S''
sg40
S'attr'
p4914
sg18
S''
sg42
S'Int'
p4915
sg19
S''
sg15
g4914
sg28
Nsg44
S'The attribute number of this attribute'
p4916
stRp4917
ag3
(g4
g5
(dp4918
g14
S''
sg40
S'text'
p4919
sg18
S''
sg42
S'Text'
p4920
sg19
S''
sg15
g4919
sg28
Nsg44
S'The attribute value'
p4921
stRp4922
ag3
(g4
g5
(dp4923
g14
S''
sg40
S'workChange'
p4924
sg18
S''
sg42
S'Change'
p4925
sg19
S''
sg15
g4924
sg28
Nsg44
S'The working change'
p4926
stRp4927
ag3
(g4
g5
(dp4928
g14
S''
sg40
S'user'
p4929
sg18
S''
sg42
S'User'
p4930
sg19
S''
sg15
g4929
sg28
Nsg44
S'The user that created the change'
p4931
stRp4932
ag3
(g4
g5
(dp4933
g14
S''
sg40
S'action'
p4934
sg18
S''
sg42
S'Action'
p4935
sg19
S''
sg15
g4934
sg28
Nsg44
S'The action that created the change'
p4936
stRp4937
atRp4938
sg68
g4886
sg69
S'1'
sg70
g71
sg44
S'Open openable spec fields'
p4939
sg42
S'BodyTextWx'
p4940
sg74
S'95'
p4941
sg40
S'db.bodtextwx'
p4942
stRp4943
sS'stash'
p4944
g3
(g4
g5
(dp4945
g7
S'client, stream, type, seq'
p4946
sg9
g3
(g10
g11
(lp4947
g3
(g4
g5
(dp4948
g14
S''
sg15
g16
sg17
g16
sg18
S''
sg19
S''
sg20
g21
sg22
g23
stRp4949
ag3
(g4
g5
(dp4950
g14
S''
sg17
g26
sg18
S''
sg20
g27
sg19
S''
sg15
g26
sg28
Nsg22
g29
stRp4951
ag3
(g4
g5
(dp4952
g14
S''
sg17
g32
sg18
S''
sg20
g21
sg19
S''
sg15
g32
sg28
Nsg22
g33
stRp4953
ag3
(g4
g5
(dp4954
g14
S''
sg17
g36
sg18
S''
sg20
g27
sg19
S''
sg15
g36
sg28
Nsg22
g37
stRp4955
ag3
(g4
g5
(dp4956
g14
S''
sg40
S'client'
p4957
sg18
S''
sg42
S'Domain'
p4958
sg19
S''
sg15
g4957
sg28
Nsg44
S'Client the stash refers to'
p4959
stRp4960
ag3
(g4
g5
(dp4961
g14
S''
sg40
S'stream'
p4962
sg18
S''
sg42
S'Domain'
p4963
sg19
S''
sg15
g4962
sg28
Nsg44
S'Stream the stash refers to'
p4964
stRp4965
ag3
(g4
g5
(dp4966
g14
S''
sg40
S'type'
p4967
sg18
S''
sg42
S'StashType'
p4968
sg19
S''
sg15
g4967
sg28
Nsg44
S'Stash type'
p4969
stRp4970
ag3
(g4
g5
(dp4971
g14
S''
sg40
S'seq'
p4972
sg18
S''
sg42
S'Int'
p4973
sg19
S''
sg15
g4972
sg28
Nsg44
S'Sequence number'
p4974
stRp4975
ag3
(g4
g5
(dp4976
g14
S''
sg40
S'change'
p4977
sg18
S''
sg42
S'Change'
p4978
sg19
S''
sg15
g4977
sg28
Nsg44
S'Stash change number'
p4979
stRp4980
atRp4981
sg68
g4944
sg69
S'0'
sg70
g71
sg44
S'Stash data'
p4982
sg42
S'Stash'
p4983
sg74
S'13'
p4984
sg40
S'db.stash'
p4985
stRp4986
sS'graphperm'
p4987
g3
(g4
g5
(dp4988
g7
S'name, repo, ref, type, user, perm'
p4989
sg9
g3
(g10
g11
(lp4990
g3
(g4
g5
(dp4991
g14
S''
sg15
g16
sg17
g16
sg18
S''
sg19
S''
sg20
g21
sg22
g23
stRp4992
ag3
(g4
g5
(dp4993
g14
S''
sg17
g26
sg18
S''
sg20
g27
sg19
S''
sg15
g26
sg28
Nsg22
g29
stRp4994
ag3
(g4
g5
(dp4995
g14
S''
sg17
g32
sg18
S''
sg20
g21
sg19
S''
sg15
g32
sg28
Nsg22
g33
stRp4996
ag3
(g4
g5
(dp4997
g14
S''
sg17
g36
sg18
S''
sg20
g27
sg19
S''
sg15
g36
sg28
Nsg22
g37
stRp4998
ag3
(g4
g5
(dp4999
g14
S''
sg40
S'name'
p5000
sg18
S''
sg42
S'Domain'
p5001
sg19
S''
sg15
g5000
sg28
Nsg44
S'Graph depot name'
p5002
stRp5003
ag3
(g4
g5
(dp5004
g14
S''
sg40
S'repo'
p5005
sg18
S''
sg42
S'Mapping'
p5006
sg19
S''
sg15
g5005
sg28
Nsg44
S'Repository name'
p5007
stRp5008
ag3
(g4
g5
(dp5009
g14
S''
sg40
S'ref'
p5010
sg18
S''
sg42
S'Mapping'
p5011
sg19
S''
sg15
g5010
sg28
Nsg44
S'Reference'
p5012
stRp5013
ag3
(g4
g5
(dp5014
g14
S''
sg40
S'type'
p5015
sg18
S''
sg42
S'UserType'
p5016
sg19
S''
sg15
g5015
sg28
Nsg44
S'Type of user'
p5017
stRp5018
ag3
(g4
g5
(dp5019
g14
S''
sg40
S'user'
p5020
sg18
S''
sg42
S'UserWild'
p5021
sg19
S''
sg15
g5020
sg28
Nsg44
S'User or Group for permission'
p5022
stRp5023
ag3
(g4
g5
(dp5024
g14
S''
sg40
S'perm'
p5025
sg18
S''
sg42
S'GraphPermType'
p5026
sg19
S''
sg15
g5025
sg28
Nsg44
S'Permission'
p5027
stRp5028
atRp5029
sg68
g4987
sg69
S'0'
sg70
g71
sg44
S'Graph depot permissions'
p5030
sg42
S'GraphPerm'
p5031
sg74
S'80'
p5032
sg40
S'db.graphperm'
p5033
stRp5034
sS'changex'
p5035
g3
(g4
g5
(dp5036
g7
S'change'
p5037
sg9
g3
(g10
g11
(lp5038
g3
(g4
g5
(dp5039
g14
S''
sg15
g16
sg17
g16
sg18
S''
sg19
S''
sg20
g21
sg22
g23
stRp5040
ag3
(g4
g5
(dp5041
g14
S''
sg17
g26
sg18
S''
sg20
g27
sg19
S''
sg15
g26
sg28
Nsg22
g29
stRp5042
ag3
(g4
g5
(dp5043
g14
S''
sg17
g32
sg18
S''
sg20
g21
sg19
S''
sg15
g32
sg28
Nsg22
g33
stRp5044
ag3
(g4
g5
(dp5045
g14
S''
sg17
g36
sg18
S''
sg20
g27
sg19
S''
sg15
g36
sg28
Nsg22
g37
stRp5046
ag3
(g4
g5
(dp5047
g14
S''
sg40
g1057
sg18
S''
sg42
g1058
sg19
S''
sg15
g1057
sg28
Nsg44
g1059
stRp5048
ag3
(g4
g5
(dp5049
g14
S''
sg40
g1062
sg18
S''
sg42
g1063
sg19
S''
sg15
g1062
sg28
Nsg44
g1064
stRp5050
ag3
(g4
g5
(dp5051
g14
S''
sg40
g1067
sg18
S''
sg42
g1068
sg19
S''
sg15
g1067
sg28
Nsg44
g1069
stRp5052
ag3
(g4
g5
(dp5053
g14
S''
sg40
g1072
sg18
S''
sg42
g1073
sg19
S''
sg15
g1072
sg28
Nsg44
g1074
stRp5054
ag3
(g4
g5
(dp5055
g14
S''
sg40
g1077
sg18
S''
sg42
g1078
sg19
S''
sg15
g1077
sg28
Nsg44
g1079
stRp5056
ag3
(g4
g5
(dp5057
g14
S''
sg40
g1082
sg18
S''
sg42
g1083
sg19
S''
sg15
g1082
sg28
Nsg44
g1084
stRp5058
ag3
(g4
g5
(dp5059
g14
S''
sg40
g1087
sg18
S''
sg42
g1088
sg19
S''
sg15
g1087
sg28
Nsg44
g1089
stRp5060
ag3
(g4
g5
(dp5061
g14
S''
sg40
g1092
sg18
S''
sg42
g1093
sg19
S''
sg15
g1092
sg28
Nsg44
g1094
stRp5062
ag3
(g4
g5
(dp5063
g14
S''
sg40
g1097
sg18
S''
sg42
g1098
sg19
S''
sg15
g1097
sg28
Nsg44
g1099
stRp5064
ag3
(g4
g5
(dp5065
g14
S''
sg40
g1102
sg18
S''
sg42
g1103
sg19
S''
sg15
g1102
sg28
Nsg44
g1104
stRp5066
ag3
(g4
g5
(dp5067
g14
S''
sg40
g1107
sg18
S''
sg42
g1108
sg19
S''
sg15
g1107
sg28
Nsg44
g1109
stRp5068
ag3
(g4
g5
(dp5069
g14
S''
sg40
g1112
sg18
S''
sg42
g1113
sg19
S''
sg15
g1112
sg28
Nsg44
g1114
stRp5070
ag3
(g4
g5
(dp5071
g14
S''
sg40
g1117
sg18
S''
sg42
g1118
sg19
S''
sg15
g1117
sg28
Nsg44
g1119
stRp5072
atRp5073
sg68
g5035
sg207
S'contains records for pending changelists only.'
p5074
sg69
S'6'
sg70
g71
sg44
S'Subset of db.change - records for pending changelists only'
p5075
sg42
S'Change'
p5076
sg74
S'72'
p5077
sg40
S'db.changex'
p5078
stRp5079
sS'userrp'
p5080
g3
(g4
g5
(dp5081
g7
S'user'
p5082
sg9
g3
(g10
g11
(lp5083
g3
(g4
g5
(dp5084
g14
S''
sg15
g16
sg17
g16
sg18
S''
sg19
S''
sg20
g21
sg22
g23
stRp5085
ag3
(g4
g5
(dp5086
g14
S''
sg17
g26
sg18
S''
sg20
g27
sg19
S''
sg15
g26
sg28
Nsg22
g29
stRp5087
ag3
(g4
g5
(dp5088
g14
S''
sg17
g32
sg18
S''
sg20
g21
sg19
S''
sg15
g32
sg28
Nsg22
g33
stRp5089
ag3
(g4
g5
(dp5090
g14
S''
sg17
g36
sg18
S''
sg20
g27
sg19
S''
sg15
g36
sg28
Nsg22
g37
stRp5091
ag3
(g4
g5
(dp5092
g14
S''
sg40
g2549
sg18
S''
sg42
g2550
sg19
S''
sg15
g2549
sg28
Nsg44
g2551
stRp5093
ag3
(g4
g5
(dp5094
g14
S''
sg40
g2554
sg18
S''
sg42
g2555
sg19
S''
sg15
g2554
sg28
Nsg44
g2556
stRp5095
ag3
(g4
g5
(dp5096
g14
S''
sg40
g2559
sg18
S''
sg42
g2560
sg19
S''
sg15
g2559
sg28
Nsg44
g2561
stRp5097
ag3
(g4
g5
(dp5098
g14
S''
sg40
g2564
sg18
S''
sg42
g2565
sg19
S''
sg15
g2564
sg28
Nsg44
g2566
stRp5099
ag3
(g4
g5
(dp5100
g14
S''
sg40
g2569
sg18
S''
sg42
g2570
sg19
S''
sg15
g2569
sg28
Nsg44
g2571
stRp5101
ag3
(g4
g5
(dp5102
g14
S''
sg40
g2574
sg18
S''
sg42
g2575
sg19
S''
sg15
g2574
sg28
Nsg44
g2576
stRp5103
ag3
(g4
g5
(dp5104
g14
S''
sg40
g2579
sg18
S''
sg42
g2580
sg19
S''
sg15
g2579
sg28
Nsg44
g2581
stRp5105
ag3
(g4
g5
(dp5106
g14
S''
sg40
g2584
sg18
S''
sg42
g2585
sg19
S''
sg15
g2584
sg28
Nsg44
g2586
stRp5107
ag3
(g4
g5
(dp5108
g14
S''
sg40
g2589
sg18
S''
sg42
g2590
sg19
S''
sg15
g2589
sg28
Nsg44
g2591
stRp5109
ag3
(g4
g5
(dp5110
g14
S''
sg40
g2594
sg18
S''
sg42
g2595
sg19
S''
sg15
g2594
sg28
Nsg44
g2596
stRp5111
ag3
(g4
g5
(dp5112
g14
S''
sg40
g2599
sg18
S''
sg42
g2600
sg19
S''
sg15
g2599
sg28
Nsg44
g2601
stRp5113
ag3
(g4
g5
(dp5114
g14
S''
sg40
g2604
sg18
S''
sg42
g2605
sg19
S''
sg15
g2604
sg28
Nsg44
g2606
stRp5115
ag3
(g4
g5
(dp5116
g14
S''
sg40
g2609
sg18
S''
sg42
g2610
sg19
S''
sg15
g2609
sg28
Nsg44
g2611
stRp5117
ag3
(g4
g5
(dp5118
g14
S''
sg40
g2614
sg18
S''
sg42
g2615
sg19
S''
sg15
g2614
sg28
Nsg44
g2616
stRp5119
ag3
(g4
g5
(dp5120
g14
S''
sg40
g2619
sg18
S''
sg42
g2620
sg19
S''
sg15
g2619
sg28
Nsg44
g2621
stRp5121
atRp5122
sg68
g5080
sg69
S'7'
sg70
g71
sg44
S"Used by replica server's to store login information"
p5123
sg42
S'User'
p5124
sg74
S'14'
p5125
sg40
S'db.user.rp'
p5126
stRp5127
sS'storagesh'
p5128
g3
(g4
g5
(dp5129
g7
S'file, rev, type'
p5130
sg9
g3
(g10
g11
(lp5131
g3
(g4
g5
(dp5132
g14
S''
sg15
g16
sg17
g16
sg18
S''
sg19
S''
sg20
g21
sg22
g23
stRp5133
ag3
(g4
g5
(dp5134
g14
S''
sg17
g26
sg18
S''
sg20
g27
sg19
S''
sg15
g26
sg28
Nsg22
g29
stRp5135
ag3
(g4
g5
(dp5136
g14
S''
sg17
g32
sg18
S''
sg20
g21
sg19
S''
sg15
g32
sg28
Nsg22
g33
stRp5137
ag3
(g4
g5
(dp5138
g14
S''
sg17
g36
sg18
S''
sg20
g27
sg19
S''
sg15
g36
sg28
Nsg22
g37
stRp5139
ag3
(g4
g5
(dp5140
g14
S''
sg40
g3464
sg18
S''
sg42
g3465
sg19
S''
sg15
g3464
sg28
Nsg44
g3466
stRp5141
ag3
(g4
g5
(dp5142
g14
S''
sg40
g3469
sg18
S''
sg42
g3470
sg19
S''
sg15
g3469
sg28
Nsg44
g3471
stRp5143
ag3
(g4
g5
(dp5144
g14
S''
sg40
g3474
sg18
S''
sg42
g3475
sg19
S''
sg15
g3474
sg28
Nsg44
g3476
stRp5145
ag3
(g4
g5
(dp5146
g14
S''
sg40
g3479
sg18
S''
sg42
g3480
sg19
S''
sg15
g3479
sg28
Nsg44
g3481
stRp5147
ag3
(g4
g5
(dp5148
g14
S''
sg40
g3484
sg18
S''
sg42
g3485
sg19
S''
sg15
g3484
sg28
Nsg44
g3486
stRp5149
ag3
(g4
g5
(dp5150
g14
S''
sg40
g3489
sg18
S''
sg42
g3490
sg19
S''
sg15
g3489
sg28
Nsg44
g3491
stRp5151
ag3
(g4
g5
(dp5152
g14
S''
sg40
g3494
sg18
S''
sg42
g3495
sg19
S''
sg15
g3494
sg28
Nsg44
g3496
stRp5153
ag3
(g4
g5
(dp5154
g14
S''
sg40
g3499
sg18
S''
sg42
g3500
sg19
S''
sg15
g3499
sg28
Nsg44
g3501
stRp5155
ag3
(g4
g5
(dp5156
g14
S''
sg40
g3504
sg18
S''
sg42
g3505
sg19
S''
sg15
g3504
sg28
Nsg44
g3506
stRp5157
atRp5158
sg68
g5128
sg69
S'1'
sg70
g71
sg44
S'Track references to shelved archive files'
p5159
sg42
S'Storage'
p5160
sg74
S'46'
p5161
sg40
S'db.storagesh'
p5162
stRp5163
sS'exclg'
p5164
g3
(g4
g5
(dp5165
g7
S'repo, ref, file'
p5166
sg9
g3
(g10
g11
(lp5167
g3
(g4
g5
(dp5168
g14
S''
sg15
g16
sg17
g16
sg18
S''
sg19
S''
sg20
g21
sg22
g23
stRp5169
ag3
(g4
g5
(dp5170
g14
S''
sg17
g26
sg18
S''
sg20
g27
sg19
S''
sg15
g26
sg28
Nsg22
g29
stRp5171
ag3
(g4
g5
(dp5172
g14
S''
sg17
g32
sg18
S''
sg20
g21
sg19
S''
sg15
g32
sg28
Nsg22
g33
stRp5173
ag3
(g4
g5
(dp5174
g14
S''
sg17
g36
sg18
S''
sg20
g27
sg19
S''
sg15
g36
sg28
Nsg22
g37
stRp5175
ag3
(g4
g5
(dp5176
g14
S''
sg40
S'repo'
p5177
sg18
S''
sg42
S'Key'
p5178
sg19
S''
sg15
g5177
sg28
Nsg44
S'The name of the repository on which the lock is applied'
p5179
stRp5180
ag3
(g4
g5
(dp5181
g14
S''
sg40
S'ref'
p5182
sg18
S''
sg42
S'Text'
p5183
sg19
S''
sg15
g5182
sg28
Nsg44
S'The reference on which the lock is applied'
p5184
stRp5185
ag3
(g4
g5
(dp5186
g14
S''
sg40
S'file'
p5187
sg18
S''
sg42
S'File'
p5188
sg19
S''
sg15
g5187
sg28
Nsg44
S'The git file path'
p5189
stRp5190
ag3
(g4
g5
(dp5191
g14
S''
sg40
S'lockId'
p5192
sg18
S''
sg42
S'String'
p5193
sg19
S''
sg15
g5192
sg28
Nsg44
S'The git LFS lock identifier'
p5194
stRp5195
ag3
(g4
g5
(dp5196
g14
S''
sg40
S'user'
p5197
sg18
S''
sg42
S'User'
p5198
sg19
S''
sg15
g5197
sg28
Nsg44
S'The user for which the file is locked'
p5199
stRp5200
ag3
(g4
g5
(dp5201
g14
S''
sg40
S'created'
p5202
sg18
S''
sg42
S'String'
p5203
sg19
S''
sg15
g5202
sg28
Nsg44
S'The lock creation date stored in git data format'
p5204
stRp5205
atRp5206
sg68
g5164
sg69
S'0'
sg70
g71
sg44
S'Graph depot LFS locks'
p5207
sg42
S'ExclG'
p5208
sg74
S'67'
p5209
sg40
S'db.exclg'
p5210
stRp5211
sS'scandir'
p5212
g3
(g4
g5
(dp5213
g7
S'lskey, seq'
p5214
sg9
g3
(g10
g11
(lp5215
g3
(g4
g5
(dp5216
g14
S''
sg15
g16
sg17
g16
sg18
S''
sg19
S''
sg20
g21
sg22
g23
stRp5217
ag3
(g4
g5
(dp5218
g14
S''
sg17
g26
sg18
S''
sg20
g27
sg19
S''
sg15
g26
sg28
Nsg22
g29
stRp5219
ag3
(g4
g5
(dp5220
g14
S''
sg17
g32
sg18
S''
sg20
g21
sg19
S''
sg15
g32
sg28
Nsg22
g33
stRp5221
ag3
(g4
g5
(dp5222
g14
S''
sg17
g36
sg18
S''
sg20
g27
sg19
S''
sg15
g36
sg28
Nsg22
g37
stRp5223
ag3
(g4
g5
(dp5224
g14
S''
sg40
S'lskey'
p5225
sg18
S''
sg42
S'File'
p5226
sg19
S''
sg15
g5225
sg28
Nsg44
S'library scan key'
p5227
stRp5228
ag3
(g4
g5
(dp5229
g14
S''
sg40
S'seq'
p5230
sg18
S''
sg42
S'Int'
p5231
sg19
S''
sg15
g5230
sg28
Nsg44
S'The sequence of the work directory'
p5232
stRp5233
ag3
(g4
g5
(dp5234
g14
S''
sg40
S'file'
p5235
sg18
S''
sg42
S'File'
p5236
sg19
S''
sg15
g5235
sg28
Nsg44
S'The path of the pending work directory'
p5237
stRp5238
atRp5239
sg68
g5212
sg69
S'0'
sg70
g71
sg44
S'Scandir'
p5240
sg42
S'ScanDir'
p5241
sg74
S'44'
p5242
sg40
S'db.scandir'
p5243
stRp5244
sS'viewrp'
p5245
g3
(g4
g5
(dp5246
g7
S'name, seq'
p5247
sg9
g3
(g10
g11
(lp5248
g3
(g4
g5
(dp5249
g14
S''
sg15
g16
sg17
g16
sg18
S''
sg19
S''
sg20
g21
sg22
g23
stRp5250
ag3
(g4
g5
(dp5251
g14
S''
sg17
g26
sg18
S''
sg20
g27
sg19
S''
sg15
g26
sg28
Nsg22
g29
stRp5252
ag3
(g4
g5
(dp5253
g14
S''
sg17
g32
sg18
S''
sg20
g21
sg19
S''
sg15
g32
sg28
Nsg22
g33
stRp5254
ag3
(g4
g5
(dp5255
g14
S''
sg17
g36
sg18
S''
sg20
g27
sg19
S''
sg15
g36
sg28
Nsg22
g37
stRp5256
ag3
(g4
g5
(dp5257
g14
S''
sg40
g2506
sg18
S''
sg42
g2507
sg19
S''
sg15
g2506
sg28
Nsg44
g2508
stRp5258
ag3
(g4
g5
(dp5259
g14
S''
sg40
g2511
sg18
S''
sg42
g2512
sg19
S''
sg15
g2511
sg28
Nsg44
g2513
stRp5260
ag3
(g4
g5
(dp5261
g14
S''
sg40
g2516
sg18
S''
sg42
g2517
sg19
S''
sg15
g2516
sg28
Nsg44
g2518
stRp5262
ag3
(g4
g5
(dp5263
g14
S''
sg40
g2521
sg18
S''
sg42
g2522
sg19
S''
sg15
g2521
sg28
Nsg44
g2523
stRp5264
ag3
(g4
g5
(dp5265
g14
S''
sg40
g2526
sg18
S''
sg42
g2527
sg19
S''
sg15
g2526
sg28
Nsg44
g2528
stRp5266
atRp5267
sg68
g5245
sg69
S'1'
sg70
g71
sg44
S'View data for clients of build-server replicas'
p5268
sg42
S'View'
p5269
sg74
S'27'
p5270
sg40
S'db.view.rp'
p5271
stRp5272
s.