(dp1
S'svrview'
p2
ccopy_reg
_reconstructor
p3
(clib.sqUtils
Storage
p4
c__builtin__
dict
p5
(dp6
S'keying'
p7
S'id, type, seq'
p8
sS'peek_lockseq'
p9
S'7'
sS'fields'
p10
g3
(clib.sqUtils
Lst
p11
c__builtin__
list
p12
(lp13
g3
(g4
g5
(dp14
S'comment'
p15
S''
sS'fieldname'
p16
S'id'
p17
sS'name'
p18
g17
sS'default'
p19
S''
sS'label'
p20
S''
sS'type'
p21
S'integer'
p22
sS'desc'
p23
S'Record number as read in'
p24
stRp25
ag3
(g4
g5
(dp26
g15
S''
sg18
S'db_action'
p27
sg19
S''
sg21
S'string'
p28
sg20
S''
sg16
g27
sS'requires'
p29
Nsg23
S'Operation on table'
p30
stRp31
ag3
(g4
g5
(dp32
g15
S''
sg18
S'table_revision'
p33
sg19
S''
sg21
g22
sg20
S''
sg16
g33
sg29
Nsg23
S'Revision of the p4 schema table'
p34
stRp35
ag3
(g4
g5
(dp36
g15
S''
sg18
S'table_name'
p37
sg19
S''
sg21
g28
sg20
S''
sg16
g37
sg29
Nsg23
S'Redundant... but this is the table name'
p38
stRp39
ag3
(g4
g5
(dp40
g15
S''
sS'name'
p41
S'id'
p42
sg19
S''
sS'type'
p43
S'Text'
p44
sg20
S''
sg16
g42
sg29
NsS'desc'
p45
S'Server name'
p46
stRp47
ag3
(g4
g5
(dp48
g15
S''
sg41
S'type'
p49
sg19
S''
sg43
S'SvrViewType'
p50
sg20
S''
sg16
g49
sg29
Nsg45
S'View type'
p51
stRp52
ag3
(g4
g5
(dp53
g15
S''
sg41
S'seq'
p54
sg19
S''
sg43
S'Int'
p55
sg20
S''
sg16
g54
sg29
Nsg45
S'Sequence (line) number'
p56
stRp57
ag3
(g4
g5
(dp58
g15
S''
sg41
S'mapFlag'
p59
sg19
S''
sg43
S'MapFlag'
p60
sg20
S''
sg16
g59
sg29
Nsg45
S'Type of mapping'
p61
stRp62
ag3
(g4
g5
(dp63
g15
S''
sg41
S'viewFile'
p64
sg19
S''
sg43
S'Mapping'
p65
sg20
S''
sg16
g64
sg29
Nsg45
S'View file'
p66
stRp67
atRp68
sS'tablename'
p69
g2
sg41
S'db.svrview'
p70
sS'version'
p71
S'0'
sS'classic_lockseq'
p72
S'7'
sS'schemaversion'
p73
S'2015.2'
p74
sg43
S'SvrView'
p75
sg45
S'View data for servers specifications'
p76
stRp77
sS'fixrev'
p78
g3
(g4
g5
(dp79
g7
S'change, job'
p80
sg9
S'53'
p81
sg10
g3
(g11
g12
(lp82
g3
(g4
g5
(dp83
g15
S''
sg16
g17
sg18
g17
sg19
S''
sg20
S''
sg21
g22
sg23
g24
stRp84
ag3
(g4
g5
(dp85
g15
S''
sg18
g27
sg19
S''
sg21
g28
sg20
S''
sg16
g27
sg29
Nsg23
g30
stRp86
ag3
(g4
g5
(dp87
g15
S''
sg18
g33
sg19
S''
sg21
g22
sg20
S''
sg16
g33
sg29
Nsg23
g34
stRp88
ag3
(g4
g5
(dp89
g15
S''
sg18
g37
sg19
S''
sg21
g28
sg20
S''
sg16
g37
sg29
Nsg23
g38
stRp90
ag3
(g4
g5
(dp91
g15
S''
sg41
S'job'
p92
sg19
S''
sg43
S'String'
p93
sg20
S''
sg16
g92
sg29
Nsg45
S'Job name'
p94
stRp95
ag3
(g4
g5
(dp96
g15
S''
sg41
S'change'
p97
sg19
S''
sg43
S'Change'
p98
sg20
S''
sg16
g97
sg29
Nsg45
S'Changelist number'
p99
stRp100
ag3
(g4
g5
(dp101
g15
S''
sg41
S'date'
p102
sg19
S''
sg43
S'Date'
p103
sg20
S''
sg16
g102
sg29
Nsg45
S'Date fix was recorded (may differ from date change was\n\t\t    submitted).'
p104
stRp105
ag3
(g4
g5
(dp106
g15
S''
sg41
S'status'
p107
sg19
S''
sg43
S'FixStatus'
p108
sg20
S''
sg16
g107
sg29
Nsg45
S'Status of the job'
p109
stRp110
ag3
(g4
g5
(dp111
g15
S''
sg41
S'client'
p112
sg19
S''
sg43
S'Domain'
p113
sg20
S''
sg16
g112
sg29
Nsg45
S'The client where the fix originated'
p114
stRp115
ag3
(g4
g5
(dp116
g15
S''
sg41
S'user'
p117
sg19
S''
sg43
S'User'
p118
sg20
S''
sg16
g117
sg29
Nsg45
S'The user who fixed the job'
p119
stRp120
atRp121
sg69
g78
sg41
S'db.fixrev'
p122
sg71
S'1'
sg72
S'53'
p123
sg73
g74
sg45
S'Fix records - indexed by change'
p124
sg43
S'Fix'
p125
sS'seeAlso'
p126
S'db.fix'
p127
stRp128
sS'revtx'
p129
g3
(g4
g5
(dp130
g7
S'depotFile, depotRev'
p131
sg9
S'40'
p132
sg10
g3
(g11
g12
(lp133
g3
(g4
g5
(dp134
g15
S''
sg16
g17
sg18
g17
sg19
S''
sg20
S''
sg21
g22
sg23
g24
stRp135
ag3
(g4
g5
(dp136
g15
S''
sg18
g27
sg19
S''
sg21
g28
sg20
S''
sg16
g27
sg29
Nsg23
g30
stRp137
ag3
(g4
g5
(dp138
g15
S''
sg18
g33
sg19
S''
sg21
g22
sg20
S''
sg16
g33
sg29
Nsg23
g34
stRp139
ag3
(g4
g5
(dp140
g15
S''
sg18
g37
sg19
S''
sg21
g28
sg20
S''
sg16
g37
sg29
Nsg23
g38
stRp141
ag3
(g4
g5
(dp142
g15
S''
sg41
S'depotFile'
p143
sg19
S''
sg43
S'File'
p144
sg20
S''
sg16
g143
sg29
Nsg45
S'The file name'
p145
stRp146
ag3
(g4
g5
(dp147
g15
S''
sg41
S'depotRev'
p148
sg19
S''
sg43
S'Rev'
p149
sg20
S''
sg16
g148
sg29
Nsg45
S'The revision number'
p150
stRp151
ag3
(g4
g5
(dp152
g15
S''
sg41
S'type'
p153
sg19
S''
sg43
S'FileType'
p154
sg20
S''
sg16
g153
sg29
Nsg45
S'The file type of the revision'
p155
stRp156
ag3
(g4
g5
(dp157
g15
S''
sg41
S'action'
p158
sg19
S''
sg43
S'Action'
p159
sg20
S''
sg16
g158
sg29
Nsg45
S'The action that created the revision'
p160
stRp161
ag3
(g4
g5
(dp162
g15
S''
sg41
S'change'
p163
sg19
S''
sg43
S'Change'
p164
sg20
S''
sg16
g163
sg29
Nsg45
S'The changelist that created the revision'
p165
stRp166
ag3
(g4
g5
(dp167
g15
S''
sg41
S'date'
p168
sg19
S''
sg43
S'Date'
p169
sg20
S''
sg16
g168
sg29
Nsg45
S'The date/time the changelist that created the revision\n\t\t    was submitted'
p170
stRp171
ag3
(g4
g5
(dp172
g15
S''
sg41
S'modTime'
p173
sg19
S''
sg43
S'Date'
p174
sg20
S''
sg16
g173
sg29
Nsg45
S"The timestamp on the file in the user's workspace when\n\t\t    the revision was submitted."
p175
stRp176
ag3
(g4
g5
(dp177
g15
S''
sg41
S'digest'
p178
sg19
S''
sg43
S'Digest'
p179
sg20
S''
sg16
g178
sg29
Nsg45
S'The MD5 digest of the revision.'
p180
stRp181
ag3
(g4
g5
(dp182
g15
S''
sg41
S'size'
p183
sg19
S''
sg43
S'FileSize'
p184
sg20
S''
sg16
g183
sg29
Nsg45
S'The size of the file in bytes'
p185
stRp186
ag3
(g4
g5
(dp187
g15
S''
sg41
S'traitLot'
p188
sg19
S''
sg43
S'TraitLot'
p189
sg20
S''
sg16
g188
sg29
Nsg45
S'Group of traits (attributes) associated with the revision.'
p190
stRp191
ag3
(g4
g5
(dp192
g15
S''
sg41
S'lbrIsLazy'
p193
sg19
S''
sg43
S'RevStatus'
p194
sg20
S''
sg16
g193
sg29
Nsg45
S'Specifies whether or not the revision gets its content from \n\t  \t    another file (lazy copy), data about promotion of revision\n\t \t    content from task streams, and data about revision charset \n            information.'
p195
stRp196
ag3
(g4
g5
(dp197
g15
S''
sg41
S'lbrFile'
p198
sg19
S''
sg43
S'File'
p199
sg20
S''
sg16
g198
sg29
Nsg45
S"Filename for librarian's purposes.  Specifies location in \n\t\t    the archives where the file containing the revision may\n\t\t    be found. Usually the same as depotFile, but differs in\n\t\t    the case of branched/copied revisions."
p200
stRp201
ag3
(g4
g5
(dp202
g15
S''
sg41
S'lbrRev'
p203
sg19
S''
sg43
S'String'
p204
sg20
S''
sg16
g203
sg29
Nsg45
S'The revision of lbrFile that contains the revision content.'
p205
stRp206
ag3
(g4
g5
(dp207
g15
S''
sg41
S'lbrType'
p208
sg19
S''
sg43
S'FileType'
p209
sg20
S''
sg16
g208
sg29
Nsg45
S'The file type of the librarian revision. Usually the same\n\t\t    as type, but differs in the case of branched/copied \n\t\t    revisions.'
p210
stRp211
atRp212
sg69
g129
sg41
S'db.revtx'
p213
sg71
S'9'
sg72
S'34'
p214
sg73
g74
sg43
S'Rev'
p215
sg45
S'Task stream revision records'
p216
stRp217
sS'ixtext'
p218
g3
(g4
g5
(dp219
g7
S'word, attr, value'
p220
sg9
S'55'
p221
sg10
g3
(g11
g12
(lp222
g3
(g4
g5
(dp223
g15
S''
sg16
g17
sg18
g17
sg19
S''
sg20
S''
sg21
g22
sg23
g24
stRp224
ag3
(g4
g5
(dp225
g15
S''
sg18
g27
sg19
S''
sg21
g28
sg20
S''
sg16
g27
sg29
Nsg23
g30
stRp226
ag3
(g4
g5
(dp227
g15
S''
sg18
g33
sg19
S''
sg21
g22
sg20
S''
sg16
g33
sg29
Nsg23
g34
stRp228
ag3
(g4
g5
(dp229
g15
S''
sg18
g37
sg19
S''
sg21
g28
sg20
S''
sg16
g37
sg29
Nsg23
g38
stRp230
ag3
(g4
g5
(dp231
g15
S''
sg41
S'word'
p232
sg19
S''
sg43
S'String'
p233
sg20
S''
sg16
g232
sg29
Nsg45
S'The word being indexed'
p234
stRp235
ag3
(g4
g5
(dp236
g15
S''
sg41
S'attr'
p237
sg19
S''
sg43
S'Int'
p238
sg20
S''
sg16
g237
sg29
Nsg45
S'The attribute number to which this word belongs. For\n\t\t    job data, the attribute number from the jobspec.'
p239
stRp240
ag3
(g4
g5
(dp241
g15
S''
sg41
S'value'
p242
sg19
S''
sg43
S'String'
p243
sg20
S''
sg16
g242
sg29
Nsg45
S'For job data, a job name. For generic data, the value\n\t\t    of the index keyed by the word.'
p244
stRp245
atRp246
sg69
g218
sg41
S'db.ixtext'
p247
sg71
S'0'
sg72
S'55'
p248
sg73
g74
sg43
S'IndexText'
p249
sg45
S'Indexing data for generic and job attributes'
p250
stRp251
sS'rmtview'
p252
g3
(g4
g5
(dp253
g7
S'id, seq'
p254
sg9
S'9'
sg10
g3
(g11
g12
(lp255
g3
(g4
g5
(dp256
g15
S''
sg16
g17
sg18
g17
sg19
S''
sg20
S''
sg21
g22
sg23
g24
stRp257
ag3
(g4
g5
(dp258
g15
S''
sg18
g27
sg19
S''
sg21
g28
sg20
S''
sg16
g27
sg29
Nsg23
g30
stRp259
ag3
(g4
g5
(dp260
g15
S''
sg18
g33
sg19
S''
sg21
g22
sg20
S''
sg16
g33
sg29
Nsg23
g34
stRp261
ag3
(g4
g5
(dp262
g15
S''
sg18
g37
sg19
S''
sg21
g28
sg20
S''
sg16
g37
sg29
Nsg23
g38
stRp263
ag3
(g4
g5
(dp264
g15
S''
sg41
S'id'
p265
sg19
S''
sg43
S'RemoteID'
p266
sg20
S''
sg16
g265
sg29
Nsg45
S'Remote name'
p267
stRp268
ag3
(g4
g5
(dp269
g15
S''
sg41
S'seq'
p270
sg19
S''
sg43
S'Int'
p271
sg20
S''
sg16
g270
sg29
Nsg45
S'Sequence number: for ordering multi-line views'
p272
stRp273
ag3
(g4
g5
(dp274
g15
S''
sg41
S'mapFlag'
p275
sg19
S''
sg43
S'MapFlag'
p276
sg20
S''
sg16
g275
sg29
Nsg45
S'Type of mapping'
p277
stRp278
ag3
(g4
g5
(dp279
g15
S''
sg41
S'localFile'
p280
sg19
S''
sg43
S'Mapping'
p281
sg20
S''
sg16
g280
sg29
Nsg45
S'Local file'
p282
stRp283
ag3
(g4
g5
(dp284
g15
S''
sg41
S'remoteFile'
p285
sg19
S''
sg43
S'Mapping'
p286
sg20
S''
sg16
g285
sg29
Nsg45
S'Remote file'
p287
stRp288
atRp289
sg69
g252
sg41
S'db.rmtview'
p290
sg71
S'0'
sg72
S'9'
sg73
g74
sg43
S'RmtView'
p291
sg45
S'View data for remote specifications'
p292
stRp293
sS'message'
p294
g3
(g4
g5
(dp295
g7
S'language, id'
p296
sg9
S'59'
p297
sg10
g3
(g11
g12
(lp298
g3
(g4
g5
(dp299
g15
S''
sg16
g17
sg18
g17
sg19
S''
sg20
S''
sg21
g22
sg23
g24
stRp300
ag3
(g4
g5
(dp301
g15
S''
sg18
g27
sg19
S''
sg21
g28
sg20
S''
sg16
g27
sg29
Nsg23
g30
stRp302
ag3
(g4
g5
(dp303
g15
S''
sg18
g33
sg19
S''
sg21
g22
sg20
S''
sg16
g33
sg29
Nsg23
g34
stRp304
ag3
(g4
g5
(dp305
g15
S''
sg18
g37
sg19
S''
sg21
g28
sg20
S''
sg16
g37
sg29
Nsg23
g38
stRp306
ag3
(g4
g5
(dp307
g15
S''
sg41
S'language'
p308
sg19
S''
sg43
S'String'
p309
sg20
S''
sg16
g308
sg29
Nsg45
S'The language for which this message applies'
p310
stRp311
ag3
(g4
g5
(dp312
g15
S''
sg41
S'id'
p313
sg19
S''
sg43
S'Int'
p314
sg20
S''
sg16
g313
sg29
Nsg45
S'The message number'
p315
stRp316
ag3
(g4
g5
(dp317
g15
S''
sg41
S'message'
p318
sg19
S''
sg43
S'String'
p319
sg20
S''
sg16
g318
sg29
Nsg45
S'The message text'
p320
stRp321
atRp322
sg69
g294
sg41
S'db.message'
p323
sg71
S'0'
sg72
S'59'
p324
sg73
g74
sg43
S'Message'
p325
sg45
S'System messages'
p326
stRp327
sS'havept'
p328
g3
(g4
g5
(dp329
g7
S'clientFile depotFile haveRev'
p330
sg9
S'24'
p331
sg10
g3
(g11
g12
(lp332
g3
(g4
g5
(dp333
g15
S''
sg16
g17
sg18
g17
sg19
S''
sg20
S''
sg21
g22
sg23
g24
stRp334
ag3
(g4
g5
(dp335
g15
S''
sg18
g27
sg19
S''
sg21
g28
sg20
S''
sg16
g27
sg29
Nsg23
g30
stRp336
ag3
(g4
g5
(dp337
g15
S''
sg18
g33
sg19
S''
sg21
g22
sg20
S''
sg16
g33
sg29
Nsg23
g34
stRp338
ag3
(g4
g5
(dp339
g15
S''
sg18
g37
sg19
S''
sg21
g28
sg20
S''
sg16
g37
sg29
Nsg23
g38
stRp340
ag3
(g4
g5
(dp341
g15
S''
sg41
S'clientFile'
p342
sg19
S''
sg43
S'File'
p343
sg20
S''
sg16
g342
sg29
Nsg45
S'The file in its location on the client'
p344
stRp345
ag3
(g4
g5
(dp346
g15
S''
sg41
S'depotFile'
p347
sg19
S''
sg43
S'File'
p348
sg20
S''
sg16
g347
sg29
Nsg45
S'The file in the depot'
p349
stRp350
ag3
(g4
g5
(dp351
g15
S''
sg41
S'haveRev'
p352
sg19
S''
sg43
S'Rev'
p353
sg20
S''
sg16
g352
sg29
Nsg45
S'The revision synced to the client'
p354
stRp355
ag3
(g4
g5
(dp356
g15
S''
sg41
S'type'
p357
sg19
S''
sg43
S'FileType'
p358
sg20
S''
sg16
g357
sg29
Nsg45
S'The filetype of the synced revision'
p359
stRp360
ag3
(g4
g5
(dp361
g15
S''
sg41
S'time'
p362
sg19
S''
sg43
S'Date'
p363
sg20
S''
sg16
g362
sg29
Nsg45
S'The sync time of the synced revision'
p364
stRp365
atRp366
sg69
g328
sg41
S'db.have.pt'
p367
sg71
S'3'
sg72
S'27'
p368
sg73
g74
sg43
S'Have'
p369
sg45
S'Placeholder for read-only clients'
p370
stRp371
sS'group'
p372
g3
(g4
g5
(dp373
g7
S'user, group'
p374
sg9
S'13'
p375
sg10
g3
(g11
g12
(lp376
g3
(g4
g5
(dp377
g15
S''
sg16
g17
sg18
g17
sg19
S''
sg20
S''
sg21
g22
sg23
g24
stRp378
ag3
(g4
g5
(dp379
g15
S''
sg18
g27
sg19
S''
sg21
g28
sg20
S''
sg16
g27
sg29
Nsg23
g30
stRp380
ag3
(g4
g5
(dp381
g15
S''
sg18
g33
sg19
S''
sg21
g22
sg20
S''
sg16
g33
sg29
Nsg23
g34
stRp382
ag3
(g4
g5
(dp383
g15
S''
sg18
g37
sg19
S''
sg21
g28
sg20
S''
sg16
g37
sg29
Nsg23
g38
stRp384
ag3
(g4
g5
(dp385
g15
S''
sg41
S'user'
p386
sg19
S''
sg43
S'User'
p387
sg20
S''
sg16
g386
sg29
Nsg45
S'User name'
p388
stRp389
ag3
(g4
g5
(dp390
g15
S''
sg41
S'group'
p391
sg19
S''
sg43
S'User'
p392
sg20
S''
sg16
g391
sg29
Nsg45
S'Group name'
p393
stRp394
ag3
(g4
g5
(dp395
g15
S''
sg41
S'type'
p396
sg19
S''
sg43
S'UserType'
p397
sg20
S''
sg16
g396
sg29
Nsg45
S'Type of user in this group.'
p398
stRp399
ag3
(g4
g5
(dp400
g15
S''
sg41
S'maxResults'
p401
sg19
S''
sg43
S'MaxResults'
p402
sg20
S''
sg16
g401
sg29
Nsg45
S'MaxResults setting for the group.'
p403
stRp404
ag3
(g4
g5
(dp405
g15
S''
sg41
S'maxScanRows'
p406
sg19
S''
sg43
S'MaxScanRows'
p407
sg20
S''
sg16
g406
sg29
Nsg45
S'MaxScanRows setting for the group.'
p408
stRp409
ag3
(g4
g5
(dp410
g15
S''
sg41
S'maxLockTime'
p411
sg19
S''
sg43
S'MaxLockTime'
p412
sg20
S''
sg16
g411
sg29
Nsg45
S'MaxLockTime setting for the group.'
p413
stRp414
ag3
(g4
g5
(dp415
g15
S''
sg41
S'timeout'
p416
sg19
S''
sg43
S'Int'
p417
sg20
S''
sg16
g416
sg29
Nsg45
S'Length of time (in seconds) a login ticket remains valid.'
p418
stRp419
ag3
(g4
g5
(dp420
g15
S''
sg41
S'passwordTimeout'
p421
sg19
S''
sg43
S'Int'
p422
sg20
S''
sg16
g421
sg29
Nsg45
S'Length of time (in seconds) a password remains valid for users in the group.'
p423
stRp424
atRp425
sg69
g372
sg41
S'db.group'
p426
sg71
S'8'
sg72
S'13'
p427
sg73
g74
sg43
S'Group'
p428
sg45
S'Group specifications'
p429
stRp430
sS'monitor'
p431
g3
(g4
g5
(dp432
g7
S'id'
p433
sg9
S'62'
p434
sg10
g3
(g11
g12
(lp435
g3
(g4
g5
(dp436
g15
S''
sg16
g17
sg18
g17
sg19
S''
sg20
S''
sg21
g22
sg23
g24
stRp437
ag3
(g4
g5
(dp438
g15
S''
sg18
g27
sg19
S''
sg21
g28
sg20
S''
sg16
g27
sg29
Nsg23
g30
stRp439
ag3
(g4
g5
(dp440
g15
S''
sg18
g33
sg19
S''
sg21
g22
sg20
S''
sg16
g33
sg29
Nsg23
g34
stRp441
ag3
(g4
g5
(dp442
g15
S''
sg18
g37
sg19
S''
sg21
g28
sg20
S''
sg16
g37
sg29
Nsg23
g38
stRp443
ag3
(g4
g5
(dp444
g15
S''
sg41
S'id'
p445
sg19
S''
sg43
S'Int'
p446
sg20
S''
sg16
g445
sg29
Nsg45
S'Thread/process id'
p447
stRp448
ag3
(g4
g5
(dp449
g15
S''
sg41
S'user'
p450
sg19
S''
sg43
S'User'
p451
sg20
S''
sg16
g450
sg29
Nsg45
S'Username of the user running the command'
p452
stRp453
ag3
(g4
g5
(dp454
g15
S''
sg41
S'function'
p455
sg19
S''
sg43
S'String'
p456
sg20
S''
sg16
g455
sg29
Nsg45
S'The command being executed.'
p457
stRp458
ag3
(g4
g5
(dp459
g15
S''
sg41
S'args'
p460
sg19
S''
sg43
S'String'
p461
sg20
S''
sg16
g460
sg29
Nsg45
S'Arguments passed to the command'
p462
stRp463
ag3
(g4
g5
(dp464
g15
S''
sg41
S'startDate'
p465
sg19
S''
sg43
S'Date'
p466
sg20
S''
sg16
g465
sg29
Nsg45
S'The date and time the command started'
p467
stRp468
ag3
(g4
g5
(dp469
g15
S''
sg41
S'runstate'
p470
sg19
S''
sg43
S'Int'
p471
sg20
S''
sg16
g470
sg29
Nsg45
S'Flag: 0 for running, 1 for terminated, 2 for paused'
p472
stRp473
ag3
(g4
g5
(dp474
g15
S''
sg41
S'client'
p475
sg19
S''
sg43
S'Domain'
p476
sg20
S''
sg16
g475
sg29
Nsg45
S'The client workspace'
p477
stRp478
ag3
(g4
g5
(dp479
g15
S''
sg41
S'host'
p480
sg19
S''
sg43
S'Text'
p481
sg20
S''
sg16
g480
sg29
Nsg45
S'The IP address of the client'
p482
stRp483
ag3
(g4
g5
(dp484
g15
S''
sg41
S'prog'
p485
sg19
S''
sg43
S'Text'
p486
sg20
S''
sg16
g485
sg29
Nsg45
S'The name (and version) of the client program'
p487
stRp488
ag3
(g4
g5
(dp489
g15
S''
sg41
S'lockInfo'
p490
sg19
S''
sg43
S'Text'
p491
sg20
S''
sg16
g490
sg29
Nsg45
S'Table locking information for command'
p492
stRp493
atRp494
sg69
g431
sg41
S'db.monitor'
p495
sg71
S'2'
sg72
S'62'
p496
sg73
g74
sg43
S'Monitor'
p497
sg45
S'Helix Server process information'
p498
stRp499
sS'working'
p500
g3
(g4
g5
(dp501
g7
S'clientFile'
p502
sg9
S'42'
p503
sg10
g3
(g11
g12
(lp504
g3
(g4
g5
(dp505
g15
S''
sg16
g17
sg18
g17
sg19
S''
sg20
S''
sg21
g22
sg23
g24
stRp506
ag3
(g4
g5
(dp507
g15
S''
sg18
g27
sg19
S''
sg21
g28
sg20
S''
sg16
g27
sg29
Nsg23
g30
stRp508
ag3
(g4
g5
(dp509
g15
S''
sg18
g33
sg19
S''
sg21
g22
sg20
S''
sg16
g33
sg29
Nsg23
g34
stRp510
ag3
(g4
g5
(dp511
g15
S''
sg18
g37
sg19
S''
sg21
g28
sg20
S''
sg16
g37
sg29
Nsg23
g38
stRp512
ag3
(g4
g5
(dp513
g15
S''
sg41
S'clientFile'
p514
sg19
S''
sg43
S'File'
p515
sg20
S''
sg16
g514
sg29
Nsg45
S'File on the client'
p516
stRp517
ag3
(g4
g5
(dp518
g15
S''
sg41
S'depotFile'
p519
sg19
S''
sg43
S'File'
p520
sg20
S''
sg16
g519
sg29
Nsg45
S'File in the depot'
p521
stRp522
ag3
(g4
g5
(dp523
g15
S''
sg41
S'client'
p524
sg19
S''
sg43
S'Domain'
p525
sg20
S''
sg16
g524
sg29
Nsg45
S'The client the file is opened on'
p526
stRp527
ag3
(g4
g5
(dp528
g15
S''
sg41
S'user'
p529
sg19
S''
sg43
S'User'
p530
sg20
S''
sg16
g529
sg29
Nsg45
S'The user who has the file opened'
p531
stRp532
ag3
(g4
g5
(dp533
g15
S''
sg41
S'haveRev'
p534
sg19
S''
sg43
S'Rev'
p535
sg20
S''
sg16
g534
sg29
Nsg45
S"Revision presently in user's client workspace"
p536
stRp537
ag3
(g4
g5
(dp538
g15
S''
sg41
S'workRev'
p539
sg19
S''
sg43
S'Rev'
p540
sg20
S''
sg16
g539
sg29
Nsg45
S'Working revision; normally identical to the haveRev'
p541
stRp542
ag3
(g4
g5
(dp543
g15
S''
sg41
S'isVirtual'
p544
sg19
S''
sg43
S'Int'
p545
sg20
S''
sg16
g544
sg29
Nsg45
S'Flag: if 1, file was opened with "p4 integ -v".'
p546
stRp547
ag3
(g4
g5
(dp548
g15
S''
sg41
S'type'
p549
sg19
S''
sg43
S'FileType'
p550
sg20
S''
sg16
g549
sg29
Nsg45
S'File type'
p551
stRp552
ag3
(g4
g5
(dp553
g15
S''
sg41
S'action'
p554
sg19
S''
sg43
S'Action'
p555
sg20
S''
sg16
g554
sg29
Nsg45
S"What the user's doing with the file"
p556
stRp557
ag3
(g4
g5
(dp558
g15
S''
sg41
S'change'
p559
sg19
S''
sg43
S'Change'
p560
sg20
S''
sg16
g559
sg29
Nsg45
S'Associated changelist, or zero for the default changelist.'
p561
stRp562
ag3
(g4
g5
(dp563
g15
S''
sg41
S'modTime'
p564
sg19
S''
sg43
S'Date'
p565
sg20
S''
sg16
g564
sg29
Nsg45
S"Modification timestamp on the file in the user's workspace."
p566
stRp567
ag3
(g4
g5
(dp568
g15
S''
sg41
S'isLocked'
p569
sg19
S''
sg43
S'Int'
p570
sg20
S''
sg16
g569
sg29
Nsg45
S'Flag: 0 for unlocked, 1 for locked.'
p571
stRp572
ag3
(g4
g5
(dp573
g15
S''
sg41
S'digest'
p574
sg19
S''
sg43
S'Digest'
p575
sg20
S''
sg16
g574
sg29
Nsg45
S'MD5 digest of working file.'
p576
stRp577
ag3
(g4
g5
(dp578
g15
S''
sg41
S'size'
p579
sg19
S''
sg43
S'Int64'
p580
sg20
S''
sg16
g579
sg29
Nsg45
S'File size'
p581
stRp582
ag3
(g4
g5
(dp583
g15
S''
sg41
S'traitLot'
p584
sg19
S''
sg43
S'Int'
p585
sg20
S''
sg16
g584
sg29
Nsg45
S'Group of traits associated with file revision.'
p586
stRp587
ag3
(g4
g5
(dp588
g15
S''
sg41
S'tampered'
p589
sg19
S''
sg43
S'TamperCheck'
p590
sg20
S''
sg16
g589
sg29
Nsg45
S'Flag indicating the tamper-state of the file in the\n\t\t    workspace.'
p591
stRp592
ag3
(g4
g5
(dp593
g15
S''
sg41
S'clntType'
p594
sg19
S''
sg43
S'FileType'
p595
sg20
S''
sg16
g594
sg29
Nsg45
S'Type of the file in the client workspace.'
p596
stRp597
ag3
(g4
g5
(dp598
g15
S''
sg41
S'mFile'
p599
sg19
S''
sg43
S'File'
p600
sg20
S''
sg16
g599
sg29
Nsg45
S'Moved filename'
p601
stRp602
ag3
(g4
g5
(dp603
g15
S''
sg41
S'status'
p604
sg19
S''
sg43
S'Int'
p605
sg20
S''
sg16
g604
sg29
Nsg45
S'Working status'
p606
stRp607
atRp608
sg69
g500
sg41
S'db.working'
p609
sg71
S'10'
p610
sg72
S'43'
p611
sg73
g74
sg43
S'Working'
p612
sg45
S'Records for work in progress'
p613
stRp614
sS'fix'
p615
g3
(g4
g5
(dp616
g7
S'job, change'
p617
sg9
S'52'
p618
sg10
g3
(g11
g12
(lp619
g3
(g4
g5
(dp620
g15
S''
sg16
g17
sg18
g17
sg19
S''
sg20
S''
sg21
g22
sg23
g24
stRp621
ag3
(g4
g5
(dp622
g15
S''
sg18
g27
sg19
S''
sg21
g28
sg20
S''
sg16
g27
sg29
Nsg23
g30
stRp623
ag3
(g4
g5
(dp624
g15
S''
sg18
g33
sg19
S''
sg21
g22
sg20
S''
sg16
g33
sg29
Nsg23
g34
stRp625
ag3
(g4
g5
(dp626
g15
S''
sg18
g37
sg19
S''
sg21
g28
sg20
S''
sg16
g37
sg29
Nsg23
g38
stRp627
ag3
(g4
g5
(dp628
g15
S''
sg41
g92
sg19
S''
sg43
g93
sg20
S''
sg16
g92
sg29
Nsg45
g94
stRp629
ag3
(g4
g5
(dp630
g15
S''
sg41
g97
sg19
S''
sg43
g98
sg20
S''
sg16
g97
sg29
Nsg45
g99
stRp631
ag3
(g4
g5
(dp632
g15
S''
sg41
g102
sg19
S''
sg43
g103
sg20
S''
sg16
g102
sg29
Nsg45
g104
stRp633
ag3
(g4
g5
(dp634
g15
S''
sg41
g107
sg19
S''
sg43
g108
sg20
S''
sg16
g107
sg29
Nsg45
g109
stRp635
ag3
(g4
g5
(dp636
g15
S''
sg41
g112
sg19
S''
sg43
g113
sg20
S''
sg16
g112
sg29
Nsg45
g114
stRp637
ag3
(g4
g5
(dp638
g15
S''
sg41
g117
sg19
S''
sg43
g118
sg20
S''
sg16
g117
sg29
Nsg45
g119
stRp639
atRp640
sg69
g615
sg41
S'db.fix'
p641
sg71
S'1'
sg72
S'52'
p642
sg73
g74
sg45
S'Fix records - indexed by job'
p643
sg43
S'Fix'
p644
sg126
S'db.fixrev'
p645
stRp646
sS'tiny'
p647
g3
(g4
g5
(dp648
g7
S'fileAndRev'
p649
sg69
g647
sg10
g3
(g11
g12
(lp650
g3
(g4
g5
(dp651
g15
S''
sg16
g17
sg18
g17
sg19
S''
sg20
S''
sg21
g22
sg23
g24
stRp652
ag3
(g4
g5
(dp653
g15
S''
sg18
g27
sg19
S''
sg21
g28
sg20
S''
sg16
g27
sg29
Nsg23
g30
stRp654
ag3
(g4
g5
(dp655
g15
S''
sg18
g33
sg19
S''
sg21
g22
sg20
S''
sg16
g33
sg29
Nsg23
g34
stRp656
ag3
(g4
g5
(dp657
g15
S''
sg18
g37
sg19
S''
sg21
g28
sg20
S''
sg16
g37
sg29
Nsg23
g38
stRp658
ag3
(g4
g5
(dp659
g15
S''
sg41
S'fileAndRev'
p660
sg19
S''
sg43
S'String'
p661
sg20
S''
sg16
g660
sg29
Nsg45
S'The file name and revision'
p662
stRp663
ag3
(g4
g5
(dp664
g15
S''
sg41
S'fileContent'
p665
sg19
S''
sg43
S'Octet String'
p666
sg20
S''
sg16
g665
sg29
Nsg45
S'The (encoded) file content'
p667
stRp668
atRp669
sg73
g74
sg45
S'Records revision and content data for files using the +T file type modifier'
p670
sg43
S'TinyDb'
p671
sg41
S'tiny.db'
p672
stRp673
sS'trigger'
p674
g3
(g4
g5
(dp675
g7
S'seq'
p676
sg9
S'46'
p677
sg10
g3
(g11
g12
(lp678
g3
(g4
g5
(dp679
g15
S''
sg16
g17
sg18
g17
sg19
S''
sg20
S''
sg21
g22
sg23
g24
stRp680
ag3
(g4
g5
(dp681
g15
S''
sg18
g27
sg19
S''
sg21
g28
sg20
S''
sg16
g27
sg29
Nsg23
g30
stRp682
ag3
(g4
g5
(dp683
g15
S''
sg18
g33
sg19
S''
sg21
g22
sg20
S''
sg16
g33
sg29
Nsg23
g34
stRp684
ag3
(g4
g5
(dp685
g15
S''
sg18
g37
sg19
S''
sg21
g28
sg20
S''
sg16
g37
sg29
Nsg23
g38
stRp686
ag3
(g4
g5
(dp687
g15
S''
sg41
S'seq'
p688
sg19
S''
sg43
S'Int'
p689
sg20
S''
sg16
g688
sg29
Nsg45
S'Sequence number: for ordering the trigger list'
p690
stRp691
ag3
(g4
g5
(dp692
g15
S''
sg41
S'name'
p693
sg19
S''
sg43
S'String'
p694
sg20
S''
sg16
g693
sg29
Nsg45
S'Name of the trigger'
p695
stRp696
ag3
(g4
g5
(dp697
g15
S''
sg41
S'mapFlag'
p698
sg19
S''
sg43
S'MapFlag'
p699
sg20
S''
sg16
g698
sg29
Nsg45
S'Type of mapping: specifies whether the trigger applies \n\t\t    to the files or not.'
p700
stRp701
ag3
(g4
g5
(dp702
g15
S''
sg41
S'depotFile'
p703
sg19
S''
sg43
S'Mapping'
p704
sg20
S''
sg16
g703
sg29
Nsg45
S'The files to apply the trigger to'
p705
stRp706
ag3
(g4
g5
(dp707
g15
S''
sg41
S'triggerDepotFile'
p708
sg19
S''
sg43
S'File'
p709
sg20
S''
sg16
g708
sg29
Nsg45
S'Depot path to the trigger'
p710
stRp711
ag3
(g4
g5
(dp712
g15
S''
sg41
S'trigger'
p713
sg19
S''
sg43
S'Trigger'
p714
sg20
S''
sg16
g713
sg29
Nsg45
S'Type of trigger'
p715
stRp716
ag3
(g4
g5
(dp717
g15
S''
sg41
S'action'
p718
sg19
S''
sg43
S'Text'
p719
sg20
S''
sg16
g718
sg29
Nsg45
S'Command to execute when trigger runs'
p720
stRp721
atRp722
sg69
g674
sg41
S'db.trigger'
p723
sg71
S'3'
sg72
S'46'
p724
sg73
g74
sg43
S'Trigger'
p725
sg45
S'Trigger specifications'
p726
stRp727
sS'ldap'
p728
g3
(g4
g5
(dp729
g7
S'name'
p730
sg9
S'5'
sg10
g3
(g11
g12
(lp731
g3
(g4
g5
(dp732
g15
S''
sg16
g17
sg18
g17
sg19
S''
sg20
S''
sg21
g22
sg23
g24
stRp733
ag3
(g4
g5
(dp734
g15
S''
sg18
g27
sg19
S''
sg21
g28
sg20
S''
sg16
g27
sg29
Nsg23
g30
stRp735
ag3
(g4
g5
(dp736
g15
S''
sg18
g33
sg19
S''
sg21
g22
sg20
S''
sg16
g33
sg29
Nsg23
g34
stRp737
ag3
(g4
g5
(dp738
g15
S''
sg18
g37
sg19
S''
sg21
g28
sg20
S''
sg16
g37
sg29
Nsg23
g38
stRp739
ag3
(g4
g5
(dp740
g15
S''
sg41
S'name'
p741
sg19
S''
sg43
S'String'
p742
sg20
S''
sg16
g741
sg29
Nsg45
S'The LDAP configuration name'
p743
stRp744
ag3
(g4
g5
(dp745
g15
S''
sg41
S'host'
p746
sg19
S''
sg43
S'String'
p747
sg20
S''
sg16
g746
sg29
Nsg45
S'The FQDN of the directory server'
p748
stRp749
ag3
(g4
g5
(dp750
g15
S''
sg41
S'port'
p751
sg19
S''
sg43
S'String'
p752
sg20
S''
sg16
g751
sg29
Nsg45
S'The port number on which to connect to the directory server'
p753
stRp754
ag3
(g4
g5
(dp755
g15
S''
sg41
S'ssl'
p756
sg19
S''
sg43
S'String'
p757
sg20
S''
sg16
g756
sg29
Nsg45
S"The encryption method to use when connecting to the The FQDN of the directory server.\n\t\t\tOptions are: 'none', 'ssl' and 'tls'"
p758
stRp759
ag3
(g4
g5
(dp760
g15
S''
sg41
S'type'
p761
sg19
S''
sg43
S'String'
p762
sg20
S''
sg16
g761
sg29
Nsg45
S"The bind method to use with this directory.  Options are: 'simple', 'search' and 'sasl'."
p763
stRp764
ag3
(g4
g5
(dp765
g15
S''
sg41
S'pattern'
p766
sg19
S''
sg43
S'String'
p767
sg20
S''
sg16
g766
sg29
Nsg45
S"The DN used to bind against to validate the user's credentials."
p768
stRp769
ag3
(g4
g5
(dp770
g15
S''
sg41
S'basedn'
p771
sg19
S''
sg43
S'String'
p772
sg20
S''
sg16
g771
sg29
Nsg45
S'The DN from which to start the search for the user object'
p773
stRp774
ag3
(g4
g5
(dp775
g15
S''
sg41
S'filter'
p776
sg19
S''
sg43
S'String'
p777
sg20
S''
sg16
g776
sg29
Nsg45
S'The LDAP query filter to use to identify the user object which will be used to bind against'
p778
stRp779
ag3
(g4
g5
(dp780
g15
S''
sg41
S'scope'
p781
sg19
S''
sg43
S'String'
p782
sg20
S''
sg16
g781
sg29
Nsg45
S'The scope to use when searching for the user records. Options are:\n                 0 = baseonly - Just the BaseDN object\n                 1 = children - The BaseDN and its direct children\n                 2 = subtree - The BaseDN and all objects below it'
p783
stRp784
ag3
(g4
g5
(dp785
g15
S''
sg41
S'binddn'
p786
sg19
S''
sg43
S'String'
p787
sg20
S''
sg16
g786
sg29
Nsg45
S'The DN to bind against in order to search the directory'
p788
stRp789
ag3
(g4
g5
(dp790
g15
S''
sg41
S'bindpass'
p791
sg19
S''
sg43
S'String'
p792
sg20
S''
sg16
g791
sg29
Nsg45
S'The password for the BindDN record'
p793
stRp794
ag3
(g4
g5
(dp795
g15
S''
sg41
S'realm'
p796
sg19
S''
sg43
S'String'
p797
sg20
S''
sg16
g796
sg29
Nsg45
S'The optional realm to use when authenticating the user via SASL'
p798
stRp799
ag3
(g4
g5
(dp800
g15
S''
sg41
S'grpbasedn'
p801
sg19
S''
sg43
S'String'
p802
sg20
S''
sg16
g801
sg29
Nsg45
S'The search base for performing the group search. If unset this will default to the SearchBaseDN'
p803
stRp804
ag3
(g4
g5
(dp805
g15
S''
sg41
S'grpfilter'
p806
sg19
S''
sg43
S'String'
p807
sg20
S''
sg16
g806
sg29
Nsg45
S'The filter to use for the group search'
p808
stRp809
ag3
(g4
g5
(dp810
g15
S''
sg41
S'grpscope'
p811
sg19
S''
sg43
S'String'
p812
sg20
S''
sg16
g811
sg29
Nsg45
S'The scope to use when performing the group search.Options are:\n \t\t\t\t0 = baseonly - Just the BaseDN object\n\t\t\t\t1 = children - The BaseDN and its direct children\n\t\t\t\t2 = subtree - The BaseDN and all objects below it'
p813
stRp814
ag3
(g4
g5
(dp815
g15
S''
sg41
S'options'
p816
sg19
S''
sg43
S'String'
p817
sg20
S''
sg16
g816
sg29
Nsg45
S'LDAP Options: [no]downcase [no]getattrs [no]realminusername'
p818
stRp819
ag3
(g4
g5
(dp820
g15
S''
sg41
S'attruid'
p821
sg19
S''
sg43
S'String'
p822
sg20
S''
sg16
g821
sg29
Nsg45
S"The name of the attribute in the directory's user records that contain the users' UIDs"
p823
stRp824
ag3
(g4
g5
(dp825
g15
S''
sg41
S'attremail'
p826
sg19
S''
sg43
S'String'
p827
sg20
S''
sg16
g826
sg29
Nsg45
S"The name of the attribute in the directory's user records that contain the users' email addresses."
p828
stRp829
ag3
(g4
g5
(dp830
g15
S''
sg41
S'attrename'
p831
sg19
S''
sg43
S'String'
p832
sg20
S''
sg16
g831
sg29
Nsg45
S"The name(s) of the attribute(s) in the directory's user records that contain the users' full names."
p833
stRp834
atRp835
sg69
g728
sg41
S'db.ldap'
p836
sg71
S'0'
sg72
S'5'
sg73
g74
sg43
S'Ldap'
p837
sg45
S'LDAP specifications'
p838
stRp839
sS'logger'
p840
g3
(g4
g5
(dp841
g7
S'seq'
p842
sg9
S'4'
sg10
g3
(g11
g12
(lp843
g3
(g4
g5
(dp844
g15
S''
sg16
g17
sg18
g17
sg19
S''
sg20
S''
sg21
g22
sg23
g24
stRp845
ag3
(g4
g5
(dp846
g15
S''
sg18
g27
sg19
S''
sg21
g28
sg20
S''
sg16
g27
sg29
Nsg23
g30
stRp847
ag3
(g4
g5
(dp848
g15
S''
sg18
g33
sg19
S''
sg21
g22
sg20
S''
sg16
g33
sg29
Nsg23
g34
stRp849
ag3
(g4
g5
(dp850
g15
S''
sg18
g37
sg19
S''
sg21
g28
sg20
S''
sg16
g37
sg29
Nsg23
g38
stRp851
ag3
(g4
g5
(dp852
g15
S''
sg41
S'seq'
p853
sg19
S''
sg43
S'Int'
p854
sg20
S''
sg16
g853
sg29
Nsg45
S'Sequence number of event'
p855
stRp856
ag3
(g4
g5
(dp857
g15
S''
sg41
S'key'
p858
sg19
S''
sg43
S'String'
p859
sg20
S''
sg16
g858
sg29
Nsg45
S"Either the word 'change' or the word 'job'"
p860
stRp861
ag3
(g4
g5
(dp862
g15
S''
sg41
S'attr'
p863
sg19
S''
sg43
S'String'
p864
sg20
S''
sg16
g863
sg29
Nsg45
S'The number of the change, or name of the job that was \n\t\t    altered.'
p865
stRp866
atRp867
sg69
g840
sg41
S'db.logger'
p868
sg71
S'0'
sg72
S'4'
sg73
g74
sg43
S'Logger'
p869
sg45
S"Support for 'p4 logger' command. Logs any changes to \n\t\tchangelists and jobs"
p870
stRp871
sS'revpx'
p872
g3
(g4
g5
(dp873
g7
S'depotFile, depotRev'
p874
sg9
S'33'
p875
sg10
g3
(g11
g12
(lp876
g3
(g4
g5
(dp877
g15
S''
sg16
g17
sg18
g17
sg19
S''
sg20
S''
sg21
g22
sg23
g24
stRp878
ag3
(g4
g5
(dp879
g15
S''
sg18
g27
sg19
S''
sg21
g28
sg20
S''
sg16
g27
sg29
Nsg23
g30
stRp880
ag3
(g4
g5
(dp881
g15
S''
sg18
g33
sg19
S''
sg21
g22
sg20
S''
sg16
g33
sg29
Nsg23
g34
stRp882
ag3
(g4
g5
(dp883
g15
S''
sg18
g37
sg19
S''
sg21
g28
sg20
S''
sg16
g37
sg29
Nsg23
g38
stRp884
ag3
(g4
g5
(dp885
g15
S''
sg41
g143
sg19
S''
sg43
g144
sg20
S''
sg16
g143
sg29
Nsg45
g145
stRp886
ag3
(g4
g5
(dp887
g15
S''
sg41
g148
sg19
S''
sg43
g149
sg20
S''
sg16
g148
sg29
Nsg45
g150
stRp888
ag3
(g4
g5
(dp889
g15
S''
sg41
g153
sg19
S''
sg43
g154
sg20
S''
sg16
g153
sg29
Nsg45
g155
stRp890
ag3
(g4
g5
(dp891
g15
S''
sg41
g158
sg19
S''
sg43
g159
sg20
S''
sg16
g158
sg29
Nsg45
g160
stRp892
ag3
(g4
g5
(dp893
g15
S''
sg41
g163
sg19
S''
sg43
g164
sg20
S''
sg16
g163
sg29
Nsg45
g165
stRp894
ag3
(g4
g5
(dp895
g15
S''
sg41
g168
sg19
S''
sg43
g169
sg20
S''
sg16
g168
sg29
Nsg45
g170
stRp896
ag3
(g4
g5
(dp897
g15
S''
sg41
g173
sg19
S''
sg43
g174
sg20
S''
sg16
g173
sg29
Nsg45
g175
stRp898
ag3
(g4
g5
(dp899
g15
S''
sg41
g178
sg19
S''
sg43
g179
sg20
S''
sg16
g178
sg29
Nsg45
g180
stRp900
ag3
(g4
g5
(dp901
g15
S''
sg41
g183
sg19
S''
sg43
g184
sg20
S''
sg16
g183
sg29
Nsg45
g185
stRp902
ag3
(g4
g5
(dp903
g15
S''
sg41
g188
sg19
S''
sg43
g189
sg20
S''
sg16
g188
sg29
Nsg45
g190
stRp904
ag3
(g4
g5
(dp905
g15
S''
sg41
g193
sg19
S''
sg43
g194
sg20
S''
sg16
g193
sg29
Nsg45
g195
stRp906
ag3
(g4
g5
(dp907
g15
S''
sg41
g198
sg19
S''
sg43
g199
sg20
S''
sg16
g198
sg29
Nsg45
g200
stRp908
ag3
(g4
g5
(dp909
g15
S''
sg41
g203
sg19
S''
sg43
g204
sg20
S''
sg16
g203
sg29
Nsg45
g205
stRp910
ag3
(g4
g5
(dp911
g15
S''
sg41
g208
sg19
S''
sg43
g209
sg20
S''
sg16
g208
sg29
Nsg45
g210
stRp912
atRp913
sg69
g872
sg41
S'db.revpx'
p914
sS'note'
p915
S'Only populated during content trigger execution to allow \n\t\ttriggers access to the revisions being submitted.'
p916
sg71
S'9'
sg72
S'38'
p917
sg73
g74
sg43
S'Rev'
p918
sg45
S'Pending revision records'
p919
stRp920
sS'revdx'
p921
g3
(g4
g5
(dp922
g7
S'depotFile'
p923
sg9
S'31'
p924
sg10
g3
(g11
g12
(lp925
g3
(g4
g5
(dp926
g15
S''
sg16
g17
sg18
g17
sg19
S''
sg20
S''
sg21
g22
sg23
g24
stRp927
ag3
(g4
g5
(dp928
g15
S''
sg18
g27
sg19
S''
sg21
g28
sg20
S''
sg16
g27
sg29
Nsg23
g30
stRp929
ag3
(g4
g5
(dp930
g15
S''
sg18
g33
sg19
S''
sg21
g22
sg20
S''
sg16
g33
sg29
Nsg23
g34
stRp931
ag3
(g4
g5
(dp932
g15
S''
sg18
g37
sg19
S''
sg21
g28
sg20
S''
sg16
g37
sg29
Nsg23
g38
stRp933
ag3
(g4
g5
(dp934
g15
S''
sg41
g143
sg19
S''
sg43
g144
sg20
S''
sg16
g143
sg29
Nsg45
g145
stRp935
ag3
(g4
g5
(dp936
g15
S''
sg41
g148
sg19
S''
sg43
g149
sg20
S''
sg16
g148
sg29
Nsg45
g150
stRp937
ag3
(g4
g5
(dp938
g15
S''
sg41
g153
sg19
S''
sg43
g154
sg20
S''
sg16
g153
sg29
Nsg45
g155
stRp939
ag3
(g4
g5
(dp940
g15
S''
sg41
g158
sg19
S''
sg43
g159
sg20
S''
sg16
g158
sg29
Nsg45
g160
stRp941
ag3
(g4
g5
(dp942
g15
S''
sg41
g163
sg19
S''
sg43
g164
sg20
S''
sg16
g163
sg29
Nsg45
g165
stRp943
ag3
(g4
g5
(dp944
g15
S''
sg41
g168
sg19
S''
sg43
g169
sg20
S''
sg16
g168
sg29
Nsg45
g170
stRp945
ag3
(g4
g5
(dp946
g15
S''
sg41
g173
sg19
S''
sg43
g174
sg20
S''
sg16
g173
sg29
Nsg45
g175
stRp947
ag3
(g4
g5
(dp948
g15
S''
sg41
g178
sg19
S''
sg43
g179
sg20
S''
sg16
g178
sg29
Nsg45
g180
stRp949
ag3
(g4
g5
(dp950
g15
S''
sg41
g183
sg19
S''
sg43
g184
sg20
S''
sg16
g183
sg29
Nsg45
g185
stRp951
ag3
(g4
g5
(dp952
g15
S''
sg41
g188
sg19
S''
sg43
g189
sg20
S''
sg16
g188
sg29
Nsg45
g190
stRp953
ag3
(g4
g5
(dp954
g15
S''
sg41
g193
sg19
S''
sg43
g194
sg20
S''
sg16
g193
sg29
Nsg45
g195
stRp955
ag3
(g4
g5
(dp956
g15
S''
sg41
g198
sg19
S''
sg43
g199
sg20
S''
sg16
g198
sg29
Nsg45
g200
stRp957
ag3
(g4
g5
(dp958
g15
S''
sg41
g203
sg19
S''
sg43
g204
sg20
S''
sg16
g203
sg29
Nsg45
g205
stRp959
ag3
(g4
g5
(dp960
g15
S''
sg41
g208
sg19
S''
sg43
g209
sg20
S''
sg16
g208
sg29
Nsg45
g210
stRp961
atRp962
sg69
g921
sg41
S'db.revdx'
p963
sg71
S'9'
sg72
S'36'
p964
sg73
g74
sg43
S'Rev'
p965
sg45
S'Revision records for revisions deleted at the head revision'
p966
stRp967
sS'integed'
p968
g3
(g4
g5
(dp969
g7
S'toFile, fromFile, startFromRev, endFromRev, \n\t\tstartToRev, endToRev'
p970
sg9
S'26'
p971
sg10
g3
(g11
g12
(lp972
g3
(g4
g5
(dp973
g15
S''
sg16
g17
sg18
g17
sg19
S''
sg20
S''
sg21
g22
sg23
g24
stRp974
ag3
(g4
g5
(dp975
g15
S''
sg18
g27
sg19
S''
sg21
g28
sg20
S''
sg16
g27
sg29
Nsg23
g30
stRp976
ag3
(g4
g5
(dp977
g15
S''
sg18
g33
sg19
S''
sg21
g22
sg20
S''
sg16
g33
sg29
Nsg23
g34
stRp978
ag3
(g4
g5
(dp979
g15
S''
sg18
g37
sg19
S''
sg21
g28
sg20
S''
sg16
g37
sg29
Nsg23
g38
stRp980
ag3
(g4
g5
(dp981
g15
S''
sg41
S'toFile'
p982
sg19
S''
sg43
S'File'
p983
sg20
S''
sg16
g982
sg29
Nsg45
S'File to which integration is being performed (target).'
p984
stRp985
ag3
(g4
g5
(dp986
g15
S''
sg41
S'fromFile'
p987
sg19
S''
sg43
S'File'
p988
sg20
S''
sg16
g987
sg29
Nsg45
S'File from which integration is being performed (source).'
p989
stRp990
ag3
(g4
g5
(dp991
g15
S''
sg41
S'startFromRev'
p992
sg19
S''
sg43
S'Rev'
p993
sg20
S''
sg16
g992
sg29
Nsg45
S'Starting revision of fromFile'
p994
stRp995
ag3
(g4
g5
(dp996
g15
S''
sg41
S'endFromRev'
p997
sg19
S''
sg43
S'Rev'
p998
sg20
S''
sg16
g997
sg29
Nsg45
S'Ending revision of fromFile'
p999
stRp1000
ag3
(g4
g5
(dp1001
g15
S''
sg41
S'startToRev'
p1002
sg19
S''
sg43
S'Rev'
p1003
sg20
S''
sg16
g1002
sg29
Nsg45
S'Start revision of toFile into which integration was \n\t\t    performed.'
p1004
stRp1005
ag3
(g4
g5
(dp1006
g15
S''
sg41
S'endToRev'
p1007
sg19
S''
sg43
S'Rev'
p1008
sg20
S''
sg16
g1007
sg29
Nsg45
S'End revision of toFile into which integration was \n\t\t    performed. Only varies from startToRev for reverse \n\t\t    integration records.'
p1009
stRp1010
ag3
(g4
g5
(dp1011
g15
S''
sg41
S'how'
p1012
sg19
S''
sg43
S'IntegHow'
p1013
sg20
S''
sg16
g1012
sg29
Nsg45
S'Integration method: variations on \n\t\t    merge/branch/copy/ignore/delete.'
p1014
stRp1015
ag3
(g4
g5
(dp1016
g15
S''
sg41
S'change'
p1017
sg19
S''
sg43
S'Change'
p1018
sg20
S''
sg16
g1017
sg29
Nsg45
S'Changelist associated with the integration.'
p1019
stRp1020
atRp1021
sg69
g968
sg41
S'db.integed'
p1022
sg71
S'0'
sg72
S'22'
p1023
sg73
g74
sg45
S'Permanent integration records'
p1024
sg43
S'Integed'
p1025
sg126
S'db.resolve'
p1026
stRp1027
sS'revhx'
p1028
g3
(g4
g5
(dp1029
g7
S'depotFile'
p1030
sg9
S'32'
p1031
sg10
g3
(g11
g12
(lp1032
g3
(g4
g5
(dp1033
g15
S''
sg16
g17
sg18
g17
sg19
S''
sg20
S''
sg21
g22
sg23
g24
stRp1034
ag3
(g4
g5
(dp1035
g15
S''
sg18
g27
sg19
S''
sg21
g28
sg20
S''
sg16
g27
sg29
Nsg23
g30
stRp1036
ag3
(g4
g5
(dp1037
g15
S''
sg18
g33
sg19
S''
sg21
g22
sg20
S''
sg16
g33
sg29
Nsg23
g34
stRp1038
ag3
(g4
g5
(dp1039
g15
S''
sg18
g37
sg19
S''
sg21
g28
sg20
S''
sg16
g37
sg29
Nsg23
g38
stRp1040
ag3
(g4
g5
(dp1041
g15
S''
sg41
g143
sg19
S''
sg43
g144
sg20
S''
sg16
g143
sg29
Nsg45
g145
stRp1042
ag3
(g4
g5
(dp1043
g15
S''
sg41
g148
sg19
S''
sg43
g149
sg20
S''
sg16
g148
sg29
Nsg45
g150
stRp1044
ag3
(g4
g5
(dp1045
g15
S''
sg41
g153
sg19
S''
sg43
g154
sg20
S''
sg16
g153
sg29
Nsg45
g155
stRp1046
ag3
(g4
g5
(dp1047
g15
S''
sg41
g158
sg19
S''
sg43
g159
sg20
S''
sg16
g158
sg29
Nsg45
g160
stRp1048
ag3
(g4
g5
(dp1049
g15
S''
sg41
g163
sg19
S''
sg43
g164
sg20
S''
sg16
g163
sg29
Nsg45
g165
stRp1050
ag3
(g4
g5
(dp1051
g15
S''
sg41
g168
sg19
S''
sg43
g169
sg20
S''
sg16
g168
sg29
Nsg45
g170
stRp1052
ag3
(g4
g5
(dp1053
g15
S''
sg41
g173
sg19
S''
sg43
g174
sg20
S''
sg16
g173
sg29
Nsg45
g175
stRp1054
ag3
(g4
g5
(dp1055
g15
S''
sg41
g178
sg19
S''
sg43
g179
sg20
S''
sg16
g178
sg29
Nsg45
g180
stRp1056
ag3
(g4
g5
(dp1057
g15
S''
sg41
g183
sg19
S''
sg43
g184
sg20
S''
sg16
g183
sg29
Nsg45
g185
stRp1058
ag3
(g4
g5
(dp1059
g15
S''
sg41
g188
sg19
S''
sg43
g189
sg20
S''
sg16
g188
sg29
Nsg45
g190
stRp1060
ag3
(g4
g5
(dp1061
g15
S''
sg41
g193
sg19
S''
sg43
g194
sg20
S''
sg16
g193
sg29
Nsg45
g195
stRp1062
ag3
(g4
g5
(dp1063
g15
S''
sg41
g198
sg19
S''
sg43
g199
sg20
S''
sg16
g198
sg29
Nsg45
g200
stRp1064
ag3
(g4
g5
(dp1065
g15
S''
sg41
g203
sg19
S''
sg43
g204
sg20
S''
sg16
g203
sg29
Nsg45
g205
stRp1066
ag3
(g4
g5
(dp1067
g15
S''
sg41
g208
sg19
S''
sg43
g209
sg20
S''
sg16
g208
sg29
Nsg45
g210
stRp1068
atRp1069
sg69
g1028
sg41
S'db.revhx'
p1070
sg71
S'9'
sg72
S'37'
p1071
sg73
g74
sg43
S'Rev'
p1072
sg45
S'Revision records for revisions NOT deleted at the head revision'
p1073
stRp1074
sS'revux'
p1075
g3
(g4
g5
(dp1076
g7
S'depotFile'
p1077
sg9
S'37'
p1078
sg10
g3
(g11
g12
(lp1079
g3
(g4
g5
(dp1080
g15
S''
sg16
g17
sg18
g17
sg19
S''
sg20
S''
sg21
g22
sg23
g24
stRp1081
ag3
(g4
g5
(dp1082
g15
S''
sg18
g27
sg19
S''
sg21
g28
sg20
S''
sg16
g27
sg29
Nsg23
g30
stRp1083
ag3
(g4
g5
(dp1084
g15
S''
sg18
g33
sg19
S''
sg21
g22
sg20
S''
sg16
g33
sg29
Nsg23
g34
stRp1085
ag3
(g4
g5
(dp1086
g15
S''
sg18
g37
sg19
S''
sg21
g28
sg20
S''
sg16
g37
sg29
Nsg23
g38
stRp1087
ag3
(g4
g5
(dp1088
g15
S''
sg41
g143
sg19
S''
sg43
g144
sg20
S''
sg16
g143
sg29
Nsg45
g145
stRp1089
ag3
(g4
g5
(dp1090
g15
S''
sg41
g148
sg19
S''
sg43
g149
sg20
S''
sg16
g148
sg29
Nsg45
g150
stRp1091
ag3
(g4
g5
(dp1092
g15
S''
sg41
g153
sg19
S''
sg43
g154
sg20
S''
sg16
g153
sg29
Nsg45
g155
stRp1093
ag3
(g4
g5
(dp1094
g15
S''
sg41
g158
sg19
S''
sg43
g159
sg20
S''
sg16
g158
sg29
Nsg45
g160
stRp1095
ag3
(g4
g5
(dp1096
g15
S''
sg41
g163
sg19
S''
sg43
g164
sg20
S''
sg16
g163
sg29
Nsg45
g165
stRp1097
ag3
(g4
g5
(dp1098
g15
S''
sg41
g168
sg19
S''
sg43
g169
sg20
S''
sg16
g168
sg29
Nsg45
g170
stRp1099
ag3
(g4
g5
(dp1100
g15
S''
sg41
g173
sg19
S''
sg43
g174
sg20
S''
sg16
g173
sg29
Nsg45
g175
stRp1101
ag3
(g4
g5
(dp1102
g15
S''
sg41
g178
sg19
S''
sg43
g179
sg20
S''
sg16
g178
sg29
Nsg45
g180
stRp1103
ag3
(g4
g5
(dp1104
g15
S''
sg41
g183
sg19
S''
sg43
g184
sg20
S''
sg16
g183
sg29
Nsg45
g185
stRp1105
ag3
(g4
g5
(dp1106
g15
S''
sg41
g188
sg19
S''
sg43
g189
sg20
S''
sg16
g188
sg29
Nsg45
g190
stRp1107
ag3
(g4
g5
(dp1108
g15
S''
sg41
g193
sg19
S''
sg43
g194
sg20
S''
sg16
g193
sg29
Nsg45
g195
stRp1109
ag3
(g4
g5
(dp1110
g15
S''
sg41
g198
sg19
S''
sg43
g199
sg20
S''
sg16
g198
sg29
Nsg45
g200
stRp1111
ag3
(g4
g5
(dp1112
g15
S''
sg41
g203
sg19
S''
sg43
g204
sg20
S''
sg16
g203
sg29
Nsg45
g205
stRp1113
ag3
(g4
g5
(dp1114
g15
S''
sg41
g208
sg19
S''
sg43
g209
sg20
S''
sg16
g208
sg29
Nsg45
g210
stRp1115
atRp1116
sg69
g1075
sg41
S'db.revux'
p1117
sg71
S'9'
sg72
S'42'
p1118
sg73
g74
sg43
S'Rev'
p1119
sg45
S'Revision records for unload depot files'
p1120
stRp1121
sS'jnlack'
p1122
g3
(g4
g5
(dp1123
g7
S'id'
p1124
sg9
S'61'
p1125
sg10
g3
(g11
g12
(lp1126
g3
(g4
g5
(dp1127
g15
S''
sg16
g17
sg18
g17
sg19
S''
sg20
S''
sg21
g22
sg23
g24
stRp1128
ag3
(g4
g5
(dp1129
g15
S''
sg18
g27
sg19
S''
sg21
g28
sg20
S''
sg16
g27
sg29
Nsg23
g30
stRp1130
ag3
(g4
g5
(dp1131
g15
S''
sg18
g33
sg19
S''
sg21
g22
sg20
S''
sg16
g33
sg29
Nsg23
g34
stRp1132
ag3
(g4
g5
(dp1133
g15
S''
sg18
g37
sg19
S''
sg21
g28
sg20
S''
sg16
g37
sg29
Nsg23
g38
stRp1134
ag3
(g4
g5
(dp1135
g15
S''
sg41
S'serverId'
p1136
sg19
S''
sg43
S'Domain'
p1137
sg20
S''
sg16
g1136
sg29
Nsg45
S'The serverId of the standby for whom this record applies'
p1138
stRp1139
ag3
(g4
g5
(dp1140
g15
S''
sg41
S'lastUpdate'
p1141
sg19
S''
sg43
S'Date'
p1142
sg20
S''
sg16
g1141
sg29
Nsg45
S'The date and time of last update'
p1143
stRp1144
ag3
(g4
g5
(dp1145
g15
S''
sg41
S'serverType'
p1146
sg19
S''
sg43
S'ServerServiceType'
p1147
sg20
S''
sg16
g1146
sg29
Nsg45
S'The server services offered by this standby'
p1148
stRp1149
ag3
(g4
g5
(dp1150
g15
S''
sg41
S'persistedJnl'
p1151
sg19
S''
sg43
S'Int'
p1152
sg20
S''
sg16
g1151
sg29
Nsg45
S'The last journal number persisted by this standby'
p1153
stRp1154
ag3
(g4
g5
(dp1155
g15
S''
sg41
S'persistedPos'
p1156
sg19
S''
sg43
S'Int64'
p1157
sg20
S''
sg16
g1156
sg29
Nsg45
S'The last journal position persisted by this standby'
p1158
stRp1159
ag3
(g4
g5
(dp1160
g15
S''
sg41
S'isAlive'
p1161
sg19
S''
sg43
S'Int'
p1162
sg20
S''
sg16
g1161
sg29
Nsg45
S'1 = alive'
p1163
stRp1164
ag3
(g4
g5
(dp1165
g15
S''
sg41
S'appliedJnl'
p1166
sg19
S''
sg43
S'Int'
p1167
sg20
S''
sg16
g1166
sg29
Nsg45
S'The last journal number applied to this standby'
p1168
stRp1169
ag3
(g4
g5
(dp1170
g15
S''
sg41
S'appliedPos'
p1171
sg19
S''
sg43
S'Int64'
p1172
sg20
S''
sg16
g1171
sg29
Nsg45
S'The last journal position applied to this standby'
p1173
stRp1174
atRp1175
sg69
g1122
sg41
S'db.jnlack'
p1176
sg71
S'0'
sg72
S'61'
p1177
sg73
g74
sg43
S'JnlAck'
p1178
sg45
S'Tracks journal positions of all standby servers'
p1179
stRp1180
sS'excl'
p1181
g3
(g4
g5
(dp1182
g7
S'depotFile'
p1183
sg9
S'44'
p1184
sg10
g3
(g11
g12
(lp1185
g3
(g4
g5
(dp1186
g15
S''
sg16
g17
sg18
g17
sg19
S''
sg20
S''
sg21
g22
sg23
g24
stRp1187
ag3
(g4
g5
(dp1188
g15
S''
sg18
g27
sg19
S''
sg21
g28
sg20
S''
sg16
g27
sg29
Nsg23
g30
stRp1189
ag3
(g4
g5
(dp1190
g15
S''
sg18
g33
sg19
S''
sg21
g22
sg20
S''
sg16
g33
sg29
Nsg23
g34
stRp1191
ag3
(g4
g5
(dp1192
g15
S''
sg18
g37
sg19
S''
sg21
g28
sg20
S''
sg16
g37
sg29
Nsg23
g38
stRp1193
ag3
(g4
g5
(dp1194
g15
S''
sg41
S'depotFile'
p1195
sg19
S''
sg43
S'File'
p1196
sg20
S''
sg16
g1195
sg29
Nsg45
S'The file locked'
p1197
stRp1198
ag3
(g4
g5
(dp1199
g15
S''
sg41
S'client'
p1200
sg19
S''
sg43
S'Domain'
p1201
sg20
S''
sg16
g1200
sg29
Nsg45
S'The client for which the file is locked'
p1202
stRp1203
ag3
(g4
g5
(dp1204
g15
S''
sg41
S'user'
p1205
sg19
S''
sg43
S'User'
p1206
sg20
S''
sg16
g1205
sg29
Nsg45
S'The user for which the file is locked'
p1207
stRp1208
atRp1209
sg69
g1181
sg41
S'db.excl'
p1210
sg71
S'1'
sg72
S'31'
p1211
sg73
g74
sg43
S'ExclusiveLock'
p1212
sg45
S'Exclusively locked (+l) files -  enables coordinated file locking in commit/edge server environments'
p1213
stRp1214
sS'resolvex'
p1215
g3
(g4
g5
(dp1216
g7
S'toFile, fromFile, startFromRev'
p1217
sg9
S'29'
p1218
sg10
g3
(g11
g12
(lp1219
g3
(g4
g5
(dp1220
g15
S''
sg16
g17
sg18
g17
sg19
S''
sg20
S''
sg21
g22
sg23
g24
stRp1221
ag3
(g4
g5
(dp1222
g15
S''
sg18
g27
sg19
S''
sg21
g28
sg20
S''
sg16
g27
sg29
Nsg23
g30
stRp1223
ag3
(g4
g5
(dp1224
g15
S''
sg18
g33
sg19
S''
sg21
g22
sg20
S''
sg16
g33
sg29
Nsg23
g34
stRp1225
ag3
(g4
g5
(dp1226
g15
S''
sg18
g37
sg19
S''
sg21
g28
sg20
S''
sg16
g37
sg29
Nsg23
g38
stRp1227
ag3
(g4
g5
(dp1228
g15
S''
sg41
S'toFile'
p1229
sg19
S''
sg43
S'File'
p1230
sg20
S''
sg16
g1229
sg29
Nsg45
S'File to which integration is being performed (target).'
p1231
stRp1232
ag3
(g4
g5
(dp1233
g15
S''
sg41
S'fromFile'
p1234
sg19
S''
sg43
S'File'
p1235
sg20
S''
sg16
g1234
sg29
Nsg45
S'File from which integration is being performed (source).'
p1236
stRp1237
ag3
(g4
g5
(dp1238
g15
S''
sg41
S'startFromRev'
p1239
sg19
S''
sg43
S'Rev'
p1240
sg20
S''
sg16
g1239
sg29
Nsg45
S'Starting revision of fromFile'
p1241
stRp1242
ag3
(g4
g5
(dp1243
g15
S''
sg41
S'endFromRev'
p1244
sg19
S''
sg43
S'Rev'
p1245
sg20
S''
sg16
g1244
sg29
Nsg45
S'Ending revision of fromFile'
p1246
stRp1247
ag3
(g4
g5
(dp1248
g15
S''
sg41
S'startToRev'
p1249
sg19
S''
sg43
S'Rev'
p1250
sg20
S''
sg16
g1249
sg29
Nsg45
S'Start revision of toFile into which integration was \n\t\t    performed.'
p1251
stRp1252
ag3
(g4
g5
(dp1253
g15
S''
sg41
S'endToRev'
p1254
sg19
S''
sg43
S'Rev'
p1255
sg20
S''
sg16
g1254
sg29
Nsg45
S'End revision of toFile into which integration was \n\t\t    performed. Only varies from startToRev for reverse \n\t\t    integration records.'
p1256
stRp1257
ag3
(g4
g5
(dp1258
g15
S''
sg41
S'how'
p1259
sg19
S''
sg43
S'IntegHow'
p1260
sg20
S''
sg16
g1259
sg29
Nsg45
S'Integration method: variations on \n\t\t    merge/branch/copy/ignore/delete.'
p1261
stRp1262
ag3
(g4
g5
(dp1263
g15
S''
sg41
S'state'
p1264
sg19
S''
sg43
S'ResolveState'
p1265
sg20
S''
sg16
g1264
sg29
Nsg45
S'How the user performed the resolve.'
p1266
stRp1267
ag3
(g4
g5
(dp1268
g15
S''
sg41
S'baseFile'
p1269
sg19
S''
sg43
S'File'
p1270
sg20
S''
sg16
g1269
sg29
Nsg45
S'File used as the base for merging.'
p1271
stRp1272
ag3
(g4
g5
(dp1273
g15
S''
sg41
S'baseRev'
p1274
sg19
S''
sg43
S'Rev'
p1275
sg20
S''
sg16
g1274
sg29
Nsg45
S'Revision of baseFile used as the merge base.'
p1276
stRp1277
atRp1278
sg69
g1215
sg41
S'db.resolvex'
p1279
sg71
S'1'
sg72
S'25'
p1280
sg73
g74
sg45
S'Pending integration records for shelved files'
p1281
sg43
S'Resolve'
p1282
sg126
S'db.integed'
p1283
stRp1284
sS'archmap'
p1285
g3
(g4
g5
(dp1286
g7
S'lbrFile, depotFile'
p1287
sg9
S'30'
p1288
sg10
g3
(g11
g12
(lp1289
g3
(g4
g5
(dp1290
g15
S''
sg16
g17
sg18
g17
sg19
S''
sg20
S''
sg21
g22
sg23
g24
stRp1291
ag3
(g4
g5
(dp1292
g15
S''
sg18
g27
sg19
S''
sg21
g28
sg20
S''
sg16
g27
sg29
Nsg23
g30
stRp1293
ag3
(g4
g5
(dp1294
g15
S''
sg18
g33
sg19
S''
sg21
g22
sg20
S''
sg16
g33
sg29
Nsg23
g34
stRp1295
ag3
(g4
g5
(dp1296
g15
S''
sg18
g37
sg19
S''
sg21
g28
sg20
S''
sg16
g37
sg29
Nsg23
g38
stRp1297
ag3
(g4
g5
(dp1298
g15
S''
sg41
S'lbrFile'
p1299
sg19
S''
sg43
S'File'
p1300
sg20
S''
sg16
g1299
sg29
Nsg45
S'Paths in the librarian namespace that recieve lazy\n\t\t    copies.'
p1301
stRp1302
ag3
(g4
g5
(dp1303
g15
S''
sg41
S'depotFile'
p1304
sg19
S''
sg43
S'File'
p1305
sg20
S''
sg16
g1304
sg29
Nsg45
S'Paths in the depot namespace that provide lazy copies.'
p1306
stRp1307
atRp1308
sg69
g1285
sg41
S'db.archmap'
p1309
sg915
S'Supercedes db.archive'
p1310
sg71
S'0'
sg72
S'32'
p1311
sg73
g74
sg43
S'ArchMap'
p1312
sg45
S'Mapping entries for lazy-copies'
p1313
stRp1314
sS'desc'
p1315
g3
(g4
g5
(dp1316
g7
S'descKey'
p1317
sg9
S'50'
p1318
sg10
g3
(g11
g12
(lp1319
g3
(g4
g5
(dp1320
g15
S''
sg16
g17
sg18
g17
sg19
S''
sg20
S''
sg21
g22
sg23
g24
stRp1321
ag3
(g4
g5
(dp1322
g15
S''
sg18
g27
sg19
S''
sg21
g28
sg20
S''
sg16
g27
sg29
Nsg23
g30
stRp1323
ag3
(g4
g5
(dp1324
g15
S''
sg18
g33
sg19
S''
sg21
g22
sg20
S''
sg16
g33
sg29
Nsg23
g34
stRp1325
ag3
(g4
g5
(dp1326
g15
S''
sg18
g37
sg19
S''
sg21
g28
sg20
S''
sg16
g37
sg29
Nsg23
g38
stRp1327
ag3
(g4
g5
(dp1328
g15
S''
sg41
S'descKey'
p1329
sg19
S''
sg43
S'Change'
p1330
sg20
S''
sg16
g1329
sg29
Nsg45
S'Original number of the change to which this description\n\t\t    applies. This may differ from the final change number if\n\t\t    the change is renumbered on submission.'
p1331
stRp1332
ag3
(g4
g5
(dp1333
g15
S''
sg41
S'description'
p1334
sg19
S''
sg43
S'Text'
p1335
sg20
S''
sg16
g1334
sg29
Nsg45
S'The change description itself'
p1336
stRp1337
atRp1338
sg69
g1315
sg41
S'db.desc'
p1339
sg71
S'0'
sg72
S'50'
p1340
sg73
g74
sg43
S'Desc'
p1341
sg45
S'Change descriptions'
p1342
stRp1343
sS'resolve'
p1344
g3
(g4
g5
(dp1345
g7
S'toFile, fromFile, startFromRev'
p1346
sg9
S'28'
p1347
sg10
g3
(g11
g12
(lp1348
g3
(g4
g5
(dp1349
g15
S''
sg16
g17
sg18
g17
sg19
S''
sg20
S''
sg21
g22
sg23
g24
stRp1350
ag3
(g4
g5
(dp1351
g15
S''
sg18
g27
sg19
S''
sg21
g28
sg20
S''
sg16
g27
sg29
Nsg23
g30
stRp1352
ag3
(g4
g5
(dp1353
g15
S''
sg18
g33
sg19
S''
sg21
g22
sg20
S''
sg16
g33
sg29
Nsg23
g34
stRp1354
ag3
(g4
g5
(dp1355
g15
S''
sg18
g37
sg19
S''
sg21
g28
sg20
S''
sg16
g37
sg29
Nsg23
g38
stRp1356
ag3
(g4
g5
(dp1357
g15
S''
sg41
g1229
sg19
S''
sg43
g1230
sg20
S''
sg16
g1229
sg29
Nsg45
g1231
stRp1358
ag3
(g4
g5
(dp1359
g15
S''
sg41
g1234
sg19
S''
sg43
g1235
sg20
S''
sg16
g1234
sg29
Nsg45
g1236
stRp1360
ag3
(g4
g5
(dp1361
g15
S''
sg41
g1239
sg19
S''
sg43
g1240
sg20
S''
sg16
g1239
sg29
Nsg45
g1241
stRp1362
ag3
(g4
g5
(dp1363
g15
S''
sg41
g1244
sg19
S''
sg43
g1245
sg20
S''
sg16
g1244
sg29
Nsg45
g1246
stRp1364
ag3
(g4
g5
(dp1365
g15
S''
sg41
g1249
sg19
S''
sg43
g1250
sg20
S''
sg16
g1249
sg29
Nsg45
g1251
stRp1366
ag3
(g4
g5
(dp1367
g15
S''
sg41
g1254
sg19
S''
sg43
g1255
sg20
S''
sg16
g1254
sg29
Nsg45
g1256
stRp1368
ag3
(g4
g5
(dp1369
g15
S''
sg41
g1259
sg19
S''
sg43
g1260
sg20
S''
sg16
g1259
sg29
Nsg45
g1261
stRp1370
ag3
(g4
g5
(dp1371
g15
S''
sg41
g1264
sg19
S''
sg43
g1265
sg20
S''
sg16
g1264
sg29
Nsg45
g1266
stRp1372
ag3
(g4
g5
(dp1373
g15
S''
sg41
g1269
sg19
S''
sg43
g1270
sg20
S''
sg16
g1269
sg29
Nsg45
g1271
stRp1374
ag3
(g4
g5
(dp1375
g15
S''
sg41
g1274
sg19
S''
sg43
g1275
sg20
S''
sg16
g1274
sg29
Nsg45
g1276
stRp1376
atRp1377
sg69
g1344
sg41
S'db.resolve'
p1378
sg71
S'1'
sg72
S'24'
p1379
sg73
g74
sg45
S'Pending integration records'
p1380
sg43
S'Resolve'
p1381
sg126
S'db.integed'
p1382
stRp1383
sS'traits'
p1384
g3
(g4
g5
(dp1385
g7
S'traitLot, name'
p1386
sg9
S'45'
p1387
sg10
g3
(g11
g12
(lp1388
g3
(g4
g5
(dp1389
g15
S''
sg16
g17
sg18
g17
sg19
S''
sg20
S''
sg21
g22
sg23
g24
stRp1390
ag3
(g4
g5
(dp1391
g15
S''
sg18
g27
sg19
S''
sg21
g28
sg20
S''
sg16
g27
sg29
Nsg23
g30
stRp1392
ag3
(g4
g5
(dp1393
g15
S''
sg18
g33
sg19
S''
sg21
g22
sg20
S''
sg16
g33
sg29
Nsg23
g34
stRp1394
ag3
(g4
g5
(dp1395
g15
S''
sg18
g37
sg19
S''
sg21
g28
sg20
S''
sg16
g37
sg29
Nsg23
g38
stRp1396
ag3
(g4
g5
(dp1397
g15
S''
sg41
S'traitLot'
p1398
sg19
S''
sg43
S'Int'
p1399
sg20
S''
sg16
g1398
sg29
Nsg45
S'Indicates a specific collection of traits (referred to \n\t\t    externally as "attributes".)'
p1400
stRp1401
ag3
(g4
g5
(dp1402
g15
S''
sg41
S'name'
p1403
sg19
S''
sg43
S'String'
p1404
sg20
S''
sg16
g1403
sg29
Nsg45
S'Trait (attribute) name'
p1405
stRp1406
ag3
(g4
g5
(dp1407
g15
S''
sg41
S'type'
p1408
sg19
S''
sg43
S'TraitType'
p1409
sg20
S''
sg16
g1408
sg29
Nsg45
S'Type of trait'
p1410
stRp1411
ag3
(g4
g5
(dp1412
g15
S''
sg41
S'value'
p1413
sg19
S''
sg43
S'Octet String'
p1414
sg20
S''
sg16
g1413
sg29
Nsg45
S'The value'
p1415
stRp1416
atRp1417
sg69
g1384
sg41
S'db.traits'
p1418
sg71
S'0'
sg72
S'45'
p1419
sg73
g74
sg43
S'Trait'
p1420
sg45
S'Attributes associated with file revisions'
p1421
stRp1422
sS'server'
p1423
g3
(g4
g5
(dp1424
g7
S'id'
p1425
sg9
S'6'
sg10
g3
(g11
g12
(lp1426
g3
(g4
g5
(dp1427
g15
S''
sg16
g17
sg18
g17
sg19
S''
sg20
S''
sg21
g22
sg23
g24
stRp1428
ag3
(g4
g5
(dp1429
g15
S''
sg18
g27
sg19
S''
sg21
g28
sg20
S''
sg16
g27
sg29
Nsg23
g30
stRp1430
ag3
(g4
g5
(dp1431
g15
S''
sg18
g33
sg19
S''
sg21
g22
sg20
S''
sg16
g33
sg29
Nsg23
g34
stRp1432
ag3
(g4
g5
(dp1433
g15
S''
sg18
g37
sg19
S''
sg21
g28
sg20
S''
sg16
g37
sg29
Nsg23
g38
stRp1434
ag3
(g4
g5
(dp1435
g15
S''
sg41
S'id'
p1436
sg19
S''
sg43
S'Text'
p1437
sg20
S''
sg16
g1436
sg29
Nsg45
S'The server identifier'
p1438
stRp1439
ag3
(g4
g5
(dp1440
g15
S''
sg41
S'type'
p1441
sg19
S''
sg43
S'ServerType'
p1442
sg20
S''
sg16
g1441
sg29
Nsg45
S'The server type: server/broker/proxy'
p1443
stRp1444
ag3
(g4
g5
(dp1445
g15
S''
sg41
S'name'
p1446
sg19
S''
sg43
S'Text'
p1447
sg20
S''
sg16
g1446
sg29
Nsg45
S'The P4NAME used by this server'
p1448
stRp1449
ag3
(g4
g5
(dp1450
g15
S''
sg41
S'address'
p1451
sg19
S''
sg43
S'Text'
p1452
sg20
S''
sg16
g1451
sg29
Nsg45
S'The P4PORT used by this server'
p1453
stRp1454
ag3
(g4
g5
(dp1455
g15
S''
sg41
S'externalAddress'
p1456
sg19
S''
sg43
S'Text'
p1457
sg20
S''
sg16
g1456
sg29
Nsg45
S'For an edge server, this optional field contains its external address for connections from the commit server. This field is required for federated parallel submit.'
p1458
stRp1459
ag3
(g4
g5
(dp1460
g15
S''
sg41
S'services'
p1461
sg19
S''
sg43
S'ServerServiceType'
p1462
sg20
S''
sg16
g1461
sg29
Nsg45
S'Service provided by this server'
p1463
stRp1464
ag3
(g4
g5
(dp1465
g15
S''
sg41
S'desc'
p1466
sg19
S''
sg43
S'Text'
p1467
sg20
S''
sg16
g1466
sg29
Nsg45
S'Server description'
p1468
stRp1469
ag3
(g4
g5
(dp1470
g15
S''
sg41
S'user'
p1471
sg19
S''
sg43
S'User'
p1472
sg20
S''
sg16
g1471
sg29
Nsg45
S'The service user used by this server'
p1473
stRp1474
atRp1475
sg69
g1423
sg41
S'db.server'
p1476
sg71
S'2'
sg72
S'6'
sg73
g74
sg43
S'Server'
p1477
sg45
S'Server specifications'
p1478
stRp1479
sS'property'
p1480
g3
(g4
g5
(dp1481
g7
S'name, seq, type, scope'
p1482
sg9
S'58'
p1483
sg10
g3
(g11
g12
(lp1484
g3
(g4
g5
(dp1485
g15
S''
sg16
g17
sg18
g17
sg19
S''
sg20
S''
sg21
g22
sg23
g24
stRp1486
ag3
(g4
g5
(dp1487
g15
S''
sg18
g27
sg19
S''
sg21
g28
sg20
S''
sg16
g27
sg29
Nsg23
g30
stRp1488
ag3
(g4
g5
(dp1489
g15
S''
sg18
g33
sg19
S''
sg21
g22
sg20
S''
sg16
g33
sg29
Nsg23
g34
stRp1490
ag3
(g4
g5
(dp1491
g15
S''
sg18
g37
sg19
S''
sg21
g28
sg20
S''
sg16
g37
sg29
Nsg23
g38
stRp1492
ag3
(g4
g5
(dp1493
g15
S''
sg41
S'name'
p1494
sg19
S''
sg43
S'String'
p1495
sg20
S''
sg16
g1494
sg29
Nsg45
S'The property name'
p1496
stRp1497
ag3
(g4
g5
(dp1498
g15
S''
sg41
S'sequence'
p1499
sg19
S''
sg43
S'String'
p1500
sg20
S''
sg16
g1499
sg29
Nsg45
S'Sequence number of property'
p1501
stRp1502
ag3
(g4
g5
(dp1503
g15
S''
sg41
S'type'
p1504
sg19
S''
sg43
S'Int'
p1505
sg20
S''
sg16
g1504
sg29
Nsg45
S"1=user, 2=group; set if '-u | -g' option used with 'p4 property'"
p1506
stRp1507
ag3
(g4
g5
(dp1508
g15
S''
sg41
S'scope'
p1509
sg19
S''
sg43
S'String'
p1510
sg20
S''
sg16
g1509
sg29
Nsg45
S'The user or group the property applies to'
p1511
stRp1512
ag3
(g4
g5
(dp1513
g15
S''
sg41
S'value'
p1514
sg19
S''
sg43
S'String'
p1515
sg20
S''
sg16
g1514
sg29
Nsg45
S'The property value'
p1516
stRp1517
ag3
(g4
g5
(dp1518
g15
S''
sg41
S'date'
p1519
sg19
S''
sg43
S'String'
p1520
sg20
S''
sg16
g1519
sg29
Nsg45
S'The date/time the property was last updated'
p1521
stRp1522
ag3
(g4
g5
(dp1523
g15
S''
sg41
S'user'
p1524
sg19
S''
sg43
S'String'
p1525
sg20
S''
sg16
g1524
sg29
Nsg45
S'The user that last modified the property'
p1526
stRp1527
atRp1528
sg69
g1480
sg41
S'db.property'
p1529
sg71
S'0'
sg72
S'58'
p1530
sg73
g74
sg43
S'Property'
p1531
sg45
S'Properties'
p1532
stRp1533
sS'view'
p1534
g3
(g4
g5
(dp1535
g7
S'name, seq'
p1536
sg9
S'20'
p1537
sg10
g3
(g11
g12
(lp1538
g3
(g4
g5
(dp1539
g15
S''
sg16
g17
sg18
g17
sg19
S''
sg20
S''
sg21
g22
sg23
g24
stRp1540
ag3
(g4
g5
(dp1541
g15
S''
sg18
g27
sg19
S''
sg21
g28
sg20
S''
sg16
g27
sg29
Nsg23
g30
stRp1542
ag3
(g4
g5
(dp1543
g15
S''
sg18
g33
sg19
S''
sg21
g22
sg20
S''
sg16
g33
sg29
Nsg23
g34
stRp1544
ag3
(g4
g5
(dp1545
g15
S''
sg18
g37
sg19
S''
sg21
g28
sg20
S''
sg16
g37
sg29
Nsg23
g38
stRp1546
ag3
(g4
g5
(dp1547
g15
S''
sg41
S'name'
p1548
sg19
S''
sg43
S'Domain'
p1549
sg20
S''
sg16
g1548
sg29
Nsg45
S'Domain name to which this view applies'
p1550
stRp1551
ag3
(g4
g5
(dp1552
g15
S''
sg41
S'seq'
p1553
sg19
S''
sg43
S'Int'
p1554
sg20
S''
sg16
g1553
sg29
Nsg45
S'Sequence number: for ordering multi-line views'
p1555
stRp1556
ag3
(g4
g5
(dp1557
g15
S''
sg41
S'mapFlag'
p1558
sg19
S''
sg43
S'MapFlag'
p1559
sg20
S''
sg16
g1558
sg29
Nsg45
S'Type of mapping'
p1560
stRp1561
ag3
(g4
g5
(dp1562
g15
S''
sg41
S'viewFile'
p1563
sg19
S''
sg43
S'Mapping'
p1564
sg20
S''
sg16
g1563
sg29
Nsg45
S"The right-hand-side of the view. For clients, this is\n\t\t    the client-side, for labels it's the generated label \n\t\t    view. For branches, it's the target side of the branch\n\t\t    view."
p1565
stRp1566
ag3
(g4
g5
(dp1567
g15
S''
sg41
S'depotFile'
p1568
sg19
S''
sg43
S'Mapping'
p1569
sg20
S''
sg16
g1568
sg29
Nsg45
S'The left-hand-side of the view - a mapping to file(s)\n\t\t    in the depot.'
p1570
stRp1571
atRp1572
sg69
g1534
sg41
S'db.view'
p1573
sg71
S'1'
sg72
S'20'
p1574
sg73
g74
sg43
S'View'
p1575
sg45
S'View data for domain records'
p1576
stRp1577
sS'domain'
p1578
g3
(g4
g5
(dp1579
g7
S'name'
p1580
sg9
S'17'
p1581
sg10
g3
(g11
g12
(lp1582
g3
(g4
g5
(dp1583
g15
S''
sg16
g17
sg18
g17
sg19
S''
sg20
S''
sg21
g22
sg23
g24
stRp1584
ag3
(g4
g5
(dp1585
g15
S''
sg18
g27
sg19
S''
sg21
g28
sg20
S''
sg16
g27
sg29
Nsg23
g30
stRp1586
ag3
(g4
g5
(dp1587
g15
S''
sg18
g33
sg19
S''
sg21
g22
sg20
S''
sg16
g33
sg29
Nsg23
g34
stRp1588
ag3
(g4
g5
(dp1589
g15
S''
sg18
g37
sg19
S''
sg21
g28
sg20
S''
sg16
g37
sg29
Nsg23
g38
stRp1590
ag3
(g4
g5
(dp1591
g15
S''
sg41
S'name'
p1592
sg19
S''
sg43
S'Domain'
p1593
sg20
S''
sg16
g1592
sg29
Nsg45
S'Domain name'
p1594
stRp1595
ag3
(g4
g5
(dp1596
g15
S''
sg41
S'type'
p1597
sg19
S''
sg43
S'DomainType'
p1598
sg20
S''
sg16
g1597
sg29
Nsg45
S'Type of domain'
p1599
stRp1600
ag3
(g4
g5
(dp1601
g15
S''
sg41
S'extra'
p1602
sg19
S''
sg43
S'Text'
p1603
sg20
S''
sg16
g1602
sg29
Nsg45
S'Formerly "host". Associated host or, for labels, revision \n\t\t    number.'
p1604
stRp1605
ag3
(g4
g5
(dp1606
g15
S''
sg41
S'mount'
p1607
sg19
S''
sg43
S'Text'
p1608
sg20
S''
sg16
g1607
sg29
Nsg45
S'The client root'
p1609
stRp1610
ag3
(g4
g5
(dp1611
g15
S''
sg41
S'mount2'
p1612
sg19
S''
sg43
S'Text'
p1613
sg20
S''
sg16
g1612
sg29
Nsg45
S'Alternate client root'
p1614
stRp1615
ag3
(g4
g5
(dp1616
g15
S''
sg41
S'mount3'
p1617
sg19
S''
sg43
S'Text'
p1618
sg20
S''
sg16
g1617
sg29
Nsg45
S'Alternate client root'
p1619
stRp1620
ag3
(g4
g5
(dp1621
g15
S''
sg41
S'owner'
p1622
sg19
S''
sg43
S'User'
p1623
sg20
S''
sg16
g1622
sg29
Nsg45
S'Name of user who owns the domain.'
p1624
stRp1625
ag3
(g4
g5
(dp1626
g15
S''
sg41
S'updateDate'
p1627
sg19
S''
sg43
S'Date'
p1628
sg20
S''
sg16
g1627
sg29
Nsg45
S'Date of last update to domain specification.'
p1629
stRp1630
ag3
(g4
g5
(dp1631
g15
S''
sg41
S'accessDate'
p1632
sg19
S''
sg43
S'Date'
p1633
sg20
S''
sg16
g1632
sg29
Nsg45
S'Date of last access to domain specification.'
p1634
stRp1635
ag3
(g4
g5
(dp1636
g15
S''
sg41
S'options'
p1637
sg19
S''
sg43
S'DomainOpts'
p1638
sg20
S''
sg16
g1637
sg29
Nsg45
S'Options for client, label, and branch domains.'
p1639
stRp1640
ag3
(g4
g5
(dp1641
g15
S''
sg41
S'description'
p1642
sg19
S''
sg43
S'Text'
p1643
sg20
S''
sg16
g1642
sg29
Nsg45
S'Description of domain.'
p1644
stRp1645
ag3
(g4
g5
(dp1646
g15
S''
sg41
S'stream'
p1647
sg19
S''
sg43
S'Text'
p1648
sg20
S''
sg16
g1647
sg29
Nsg45
S'Associated stream for client records'
p1649
stRp1650
ag3
(g4
g5
(dp1651
g15
S''
sg41
S'serverid'
p1652
sg19
S''
sg43
S'Text'
p1653
sg20
S''
sg16
g1652
sg29
Nsg45
S'Associated server ID for client records'
p1654
stRp1655
ag3
(g4
g5
(dp1656
g15
S''
sg41
S'partition'
p1657
sg19
S''
sg43
S'Int'
p1658
sg20
S''
sg16
g1657
sg29
Nsg45
S'Currently unused. Reserved for future use'
p1659
stRp1660
atRp1661
sg69
g1578
sg41
S'db.domain'
p1662
sg71
S'6'
sg72
S'17'
p1663
sg73
g74
sg43
S'Domain'
p1664
sg45
S'Domains: depots, clients, labels, branches, streams, and typemap'
p1665
stRp1666
sS'stream'
p1667
g3
(g4
g5
(dp1668
g7
S'stream'
p1669
sg9
S'16'
p1670
sg10
g3
(g11
g12
(lp1671
g3
(g4
g5
(dp1672
g15
S''
sg16
g17
sg18
g17
sg19
S''
sg20
S''
sg21
g22
sg23
g24
stRp1673
ag3
(g4
g5
(dp1674
g15
S''
sg18
g27
sg19
S''
sg21
g28
sg20
S''
sg16
g27
sg29
Nsg23
g30
stRp1675
ag3
(g4
g5
(dp1676
g15
S''
sg18
g33
sg19
S''
sg21
g22
sg20
S''
sg16
g33
sg29
Nsg23
g34
stRp1677
ag3
(g4
g5
(dp1678
g15
S''
sg18
g37
sg19
S''
sg21
g28
sg20
S''
sg16
g37
sg29
Nsg23
g38
stRp1679
ag3
(g4
g5
(dp1680
g15
S''
sg41
S'stream'
p1681
sg19
S''
sg43
S'Domain'
p1682
sg20
S''
sg16
g1681
sg29
Nsg45
S'Stream name'
p1683
stRp1684
ag3
(g4
g5
(dp1685
g15
S''
sg41
S'parent'
p1686
sg19
S''
sg43
S'Domain'
p1687
sg20
S''
sg16
g1686
sg29
Nsg45
S'Parent stream name'
p1688
stRp1689
ag3
(g4
g5
(dp1690
g15
S''
sg41
S'title'
p1691
sg19
S''
sg43
S'Text'
p1692
sg20
S''
sg16
g1691
sg29
Nsg45
S'Stream title (alias for the stream name)'
p1693
stRp1694
ag3
(g4
g5
(dp1695
g15
S''
sg41
S'type'
p1696
sg19
S''
sg43
S'StreamType'
p1697
sg20
S''
sg16
g1696
sg29
Nsg45
S'The type of stream'
p1698
stRp1699
ag3
(g4
g5
(dp1700
g15
S''
sg41
S'preview'
p1701
sg19
S''
sg43
S'Date'
p1702
sg20
S''
sg16
g1701
sg29
Nsg45
S'Stream template modification time'
p1703
stRp1704
ag3
(g4
g5
(dp1705
g15
S''
sg41
S'change'
p1706
sg19
S''
sg43
S'Change'
p1707
sg20
S''
sg16
g1706
sg29
Nsg45
S'Last submit to stream'
p1708
stRp1709
ag3
(g4
g5
(dp1710
g15
S''
sg41
S'copychg'
p1711
sg19
S''
sg43
S'Change'
p1712
sg20
S''
sg16
g1711
sg29
Nsg45
S'Parent change at last copy'
p1713
stRp1714
ag3
(g4
g5
(dp1715
g15
S''
sg41
S'mergechg'
p1716
sg19
S''
sg43
S'Change'
p1717
sg20
S''
sg16
g1716
sg29
Nsg45
S'Parent change at last merge'
p1718
stRp1719
ag3
(g4
g5
(dp1720
g15
S''
sg41
S'highchg'
p1721
sg19
S''
sg43
S'Change'
p1722
sg20
S''
sg16
g1721
sg29
Nsg45
S'Highest change at last merge'
p1723
stRp1724
ag3
(g4
g5
(dp1725
g15
S''
sg41
S'hash'
p1726
sg19
S''
sg43
S'Int'
p1727
sg20
S''
sg16
g1726
sg29
Nsg45
S'Hash value of dynamic branch'
p1728
stRp1729
ag3
(g4
g5
(dp1730
g15
S''
sg41
S'status'
p1731
sg19
S''
sg43
S'StreamStatus'
p1732
sg20
S''
sg16
g1731
sg29
Nsg45
S'Flow status'
p1733
stRp1734
atRp1735
sg69
g1667
sg41
S'db.stream'
p1736
sg71
S'1'
sg72
S'16'
p1737
sg73
g74
sg43
S'Stream'
p1738
sg45
S'Stream specifications'
p1739
stRp1740
sS'sendq'
p1741
g3
(g4
g5
(dp1742
g7
S'taskid, seq'
p1743
sg9
S'60'
p1744
sg10
g3
(g11
g12
(lp1745
g3
(g4
g5
(dp1746
g15
S''
sg16
g17
sg18
g17
sg19
S''
sg20
S''
sg21
g22
sg23
g24
stRp1747
ag3
(g4
g5
(dp1748
g15
S''
sg18
g27
sg19
S''
sg21
g28
sg20
S''
sg16
g27
sg29
Nsg23
g30
stRp1749
ag3
(g4
g5
(dp1750
g15
S''
sg18
g33
sg19
S''
sg21
g22
sg20
S''
sg16
g33
sg29
Nsg23
g34
stRp1751
ag3
(g4
g5
(dp1752
g15
S''
sg18
g37
sg19
S''
sg21
g28
sg20
S''
sg16
g37
sg29
Nsg23
g38
stRp1753
ag3
(g4
g5
(dp1754
g15
S''
sg41
S'taskID'
p1755
sg19
S''
sg43
S'Int'
p1756
sg20
S''
sg16
g1755
sg29
Nsg45
S'The process id (PID) of the sync'
p1757
stRp1758
ag3
(g4
g5
(dp1759
g15
S''
sg41
S'seq'
p1760
sg19
S''
sg43
S'Int'
p1761
sg20
S''
sg16
g1760
sg29
Nsg45
S'Sequence number'
p1762
stRp1763
ag3
(g4
g5
(dp1764
g15
S''
sg41
S'handle'
p1765
sg19
S''
sg43
S'Text'
p1766
sg20
S''
sg16
g1765
sg29
Nsg45
S'Handle'
p1767
stRp1768
ag3
(g4
g5
(dp1769
g15
S''
sg41
S'depotFile'
p1770
sg19
S''
sg43
S'File'
p1771
sg20
S''
sg16
g1770
sg29
Nsg45
S'The file in the depot'
p1772
stRp1773
ag3
(g4
g5
(dp1774
g15
S''
sg41
S'clientFile'
p1775
sg19
S''
sg43
S'File'
p1776
sg20
S''
sg16
g1775
sg29
Nsg45
S'The file in its location on the client'
p1777
stRp1778
ag3
(g4
g5
(dp1779
g15
S''
sg41
S'haveRev'
p1780
sg19
S''
sg43
S'Rev'
p1781
sg20
S''
sg16
g1780
sg29
Nsg45
S'Have revision'
p1782
stRp1783
ag3
(g4
g5
(dp1784
g15
S''
sg41
S'type'
p1785
sg19
S''
sg43
S'FileType'
p1786
sg20
S''
sg16
g1785
sg29
Nsg45
S'File type'
p1787
stRp1788
ag3
(g4
g5
(dp1789
g15
S''
sg41
S'modtime'
p1790
sg19
S''
sg43
S'Date'
p1791
sg20
S''
sg16
g1790
sg29
Nsg45
S'Modification time'
p1792
stRp1793
ag3
(g4
g5
(dp1794
g15
S''
sg41
S'digest'
p1795
sg19
S''
sg43
S'Digest'
p1796
sg20
S''
sg16
g1795
sg29
Nsg45
S'The MD5 digest of the revision'
p1797
stRp1798
ag3
(g4
g5
(dp1799
g15
S''
sg41
S'size'
p1800
sg19
S''
sg43
S'FileSize'
p1801
sg20
S''
sg16
g1800
sg29
Nsg45
S'The size of the file in bytes'
p1802
stRp1803
ag3
(g4
g5
(dp1804
g15
S''
sg41
S'lbrFile'
p1805
sg19
S''
sg43
S'File'
p1806
sg20
S''
sg16
g1805
sg29
Nsg45
S'Librarian filename'
p1807
stRp1808
ag3
(g4
g5
(dp1809
g15
S''
sg41
S'lbrRev'
p1810
sg19
S''
sg43
S'LbrRev'
p1811
sg20
S''
sg16
g1810
sg29
Nsg45
S'The revision of lbrFile that contains the revision content'
p1812
stRp1813
ag3
(g4
g5
(dp1814
g15
S''
sg41
S'lbrType'
p1815
sg19
S''
sg43
S'FileType'
p1816
sg20
S''
sg16
g1815
sg29
Nsg45
S'The file type of the librarian revision'
p1817
stRp1818
ag3
(g4
g5
(dp1819
g15
S''
sg41
S'flags'
p1820
sg19
S''
sg43
S'Int'
p1821
sg20
S''
sg16
g1820
sg29
Nsg45
S'Flags'
p1822
stRp1823
ag3
(g4
g5
(dp1824
g15
S''
sg41
S'clientType'
p1825
sg19
S''
sg43
S'FileType'
p1826
sg20
S''
sg16
g1825
sg29
Nsg45
S'The client file type of the revision'
p1827
stRp1828
atRp1829
sg69
g1741
sg41
S'db.sendq'
p1830
sg71
S'1'
sg72
S'60'
p1831
sg73
g74
sg43
S'SendQ'
p1832
sg45
S'Parallel file transmission work queue'
p1833
stRp1834
sS'userrp'
p1835
g3
(g4
g5
(dp1836
g7
S'user'
p1837
sg9
S'11'
p1838
sg10
g3
(g11
g12
(lp1839
g3
(g4
g5
(dp1840
g15
S''
sg16
g17
sg18
g17
sg19
S''
sg20
S''
sg21
g22
sg23
g24
stRp1841
ag3
(g4
g5
(dp1842
g15
S''
sg18
g27
sg19
S''
sg21
g28
sg20
S''
sg16
g27
sg29
Nsg23
g30
stRp1843
ag3
(g4
g5
(dp1844
g15
S''
sg18
g33
sg19
S''
sg21
g22
sg20
S''
sg16
g33
sg29
Nsg23
g34
stRp1845
ag3
(g4
g5
(dp1846
g15
S''
sg18
g37
sg19
S''
sg21
g28
sg20
S''
sg16
g37
sg29
Nsg23
g38
stRp1847
ag3
(g4
g5
(dp1848
g15
S''
sg41
S'user'
p1849
sg19
S''
sg43
S'User'
p1850
sg20
S''
sg16
g1849
sg29
Nsg45
S'The username'
p1851
stRp1852
ag3
(g4
g5
(dp1853
g15
S''
sg41
S'email'
p1854
sg19
S''
sg43
S'Text'
p1855
sg20
S''
sg16
g1854
sg29
Nsg45
S"The user's email address"
p1856
stRp1857
ag3
(g4
g5
(dp1858
g15
S''
sg41
S'jobView'
p1859
sg19
S''
sg43
S'Text'
p1860
sg20
S''
sg16
g1859
sg29
Nsg45
S"The user's job view"
p1861
stRp1862
ag3
(g4
g5
(dp1863
g15
S''
sg41
S'updateDate'
p1864
sg19
S''
sg43
S'Date'
p1865
sg20
S''
sg16
g1864
sg29
Nsg45
S'The date/time the user record was last updated'
p1866
stRp1867
ag3
(g4
g5
(dp1868
g15
S''
sg41
S'accessDate'
p1869
sg19
S''
sg43
S'Date'
p1870
sg20
S''
sg16
g1869
sg29
Nsg45
S'The date/time the user record was last used'
p1871
stRp1872
ag3
(g4
g5
(dp1873
g15
S''
sg41
S'fullName'
p1874
sg19
S''
sg43
S'Text'
p1875
sg20
S''
sg16
g1874
sg29
Nsg45
S"The user's full name"
p1876
stRp1877
ag3
(g4
g5
(dp1878
g15
S''
sg41
S'password'
p1879
sg19
S''
sg43
S'Password'
p1880
sg20
S''
sg16
g1879
sg29
Nsg45
S'The MD5 hash of the users (encrypted) password'
p1881
stRp1882
ag3
(g4
g5
(dp1883
g15
S''
sg41
S'strength'
p1884
sg19
S''
sg43
S'Strength'
p1885
sg20
S''
sg16
g1884
sg29
Nsg45
S"Measure of the strength of the user's password"
p1886
stRp1887
ag3
(g4
g5
(dp1888
g15
S''
sg41
S'ticket'
p1889
sg19
S''
sg43
S'Password'
p1890
sg20
S''
sg16
g1889
sg29
Nsg45
S"'p4 login' ticket for this user"
p1891
stRp1892
ag3
(g4
g5
(dp1893
g15
S''
sg41
S'endDate'
p1894
sg19
S''
sg43
S'Date'
p1895
sg20
S''
sg16
g1894
sg29
Nsg45
S"Date/time the user's ticket expires"
p1896
stRp1897
ag3
(g4
g5
(dp1898
g15
S''
sg41
S'type'
p1899
sg19
S''
sg43
S'UserLevel'
p1900
sg20
S''
sg16
g1899
sg29
Nsg45
S'Type of user'
p1901
stRp1902
ag3
(g4
g5
(dp1903
g15
S''
sg41
S'passDate'
p1904
sg19
S''
sg43
S'Date'
p1905
sg20
S''
sg16
g1904
sg29
Nsg45
S'Date password was last changed'
p1906
stRp1907
ag3
(g4
g5
(dp1908
g15
S''
sg41
S'passExpire'
p1909
sg19
S''
sg43
S'Date'
p1910
sg20
S''
sg16
g1909
sg29
Nsg45
S'Date of password expiration'
p1911
stRp1912
ag3
(g4
g5
(dp1913
g15
S''
sg41
S'attempts'
p1914
sg19
S''
sg43
S'Date'
p1915
sg20
S''
sg16
g1914
sg29
Nsg45
S'Failed login attempts'
p1916
stRp1917
ag3
(g4
g5
(dp1918
g15
S''
sg41
S'auth'
p1919
sg19
S''
sg43
S'Int'
p1920
sg20
S''
sg16
g1919
sg29
Nsg45
S'Authentication method for user; 0=perforce, 1=ldap'
p1921
stRp1922
atRp1923
sg69
g1835
sg41
S'db.user.rp'
p1924
sg71
S'7'
sg72
S'11'
p1925
sg73
g74
sg43
S'User'
p1926
sg45
S"Used by replica server's to store login information"
p1927
stRp1928
sS'locks'
p1929
g3
(g4
g5
(dp1930
g7
S'depotFile, client'
p1931
sg9
S'41'
p1932
sg10
g3
(g11
g12
(lp1933
g3
(g4
g5
(dp1934
g15
S''
sg16
g17
sg18
g17
sg19
S''
sg20
S''
sg21
g22
sg23
g24
stRp1935
ag3
(g4
g5
(dp1936
g15
S''
sg18
g27
sg19
S''
sg21
g28
sg20
S''
sg16
g27
sg29
Nsg23
g30
stRp1937
ag3
(g4
g5
(dp1938
g15
S''
sg18
g33
sg19
S''
sg21
g22
sg20
S''
sg16
g33
sg29
Nsg23
g34
stRp1939
ag3
(g4
g5
(dp1940
g15
S''
sg18
g37
sg19
S''
sg21
g28
sg20
S''
sg16
g37
sg29
Nsg23
g38
stRp1941
ag3
(g4
g5
(dp1942
g15
S''
sg41
S'depotFile'
p1943
sg19
S''
sg43
S'File'
p1944
sg20
S''
sg16
g1943
sg29
Nsg45
S'File in depot'
p1945
stRp1946
ag3
(g4
g5
(dp1947
g15
S''
sg41
S'client'
p1948
sg19
S''
sg43
S'Domain'
p1949
sg20
S''
sg16
g1948
sg29
Nsg45
S'Domain (client) in which file is open'
p1950
stRp1951
ag3
(g4
g5
(dp1952
g15
S''
sg41
S'user'
p1953
sg19
S''
sg43
S'User'
p1954
sg20
S''
sg16
g1953
sg29
Nsg45
S'User who presently has the file open'
p1955
stRp1956
ag3
(g4
g5
(dp1957
g15
S''
sg41
S'action'
p1958
sg19
S''
sg43
S'Action'
p1959
sg20
S''
sg16
g1958
sg29
Nsg45
S'Action file is open for: add, edit, delete, branch,\n\t\t    integrate, or import'
p1960
stRp1961
ag3
(g4
g5
(dp1962
g15
S''
sg41
S'isLocked'
p1963
sg19
S''
sg43
S'Int'
p1964
sg20
S''
sg16
g1963
sg29
Nsg45
S'Flag: 0 for unlocked, 1 for locked'
p1965
stRp1966
ag3
(g4
g5
(dp1967
g15
S''
sg41
S'change'
p1968
sg19
S''
sg43
S'Int'
p1969
sg20
S''
sg16
g1968
sg29
Nsg45
S'Changelist in which the revision is open: 0 for the\n\t\t    default changelist'
p1970
stRp1971
atRp1972
sg69
g1929
sg41
S'db.locks'
p1973
sg71
S'2'
sg72
S'30'
p1974
sg73
g74
sg43
S'Locks'
p1975
sg45
S'Locked/Unlocked files'
p1976
stRp1977
sS'have'
p1978
g3
(g4
g5
(dp1979
g7
S'clientFile'
p1980
sg9
S'25'
p1981
sg10
g3
(g11
g12
(lp1982
g3
(g4
g5
(dp1983
g15
S''
sg16
g17
sg18
g17
sg19
S''
sg20
S''
sg21
g22
sg23
g24
stRp1984
ag3
(g4
g5
(dp1985
g15
S''
sg18
g27
sg19
S''
sg21
g28
sg20
S''
sg16
g27
sg29
Nsg23
g30
stRp1986
ag3
(g4
g5
(dp1987
g15
S''
sg18
g33
sg19
S''
sg21
g22
sg20
S''
sg16
g33
sg29
Nsg23
g34
stRp1988
ag3
(g4
g5
(dp1989
g15
S''
sg18
g37
sg19
S''
sg21
g28
sg20
S''
sg16
g37
sg29
Nsg23
g38
stRp1990
ag3
(g4
g5
(dp1991
g15
S''
sg41
g342
sg19
S''
sg43
g343
sg20
S''
sg16
g342
sg29
Nsg45
g344
stRp1992
ag3
(g4
g5
(dp1993
g15
S''
sg41
g347
sg19
S''
sg43
g348
sg20
S''
sg16
g347
sg29
Nsg45
g349
stRp1994
ag3
(g4
g5
(dp1995
g15
S''
sg41
g352
sg19
S''
sg43
g353
sg20
S''
sg16
g352
sg29
Nsg45
g354
stRp1996
ag3
(g4
g5
(dp1997
g15
S''
sg41
g357
sg19
S''
sg43
g358
sg20
S''
sg16
g357
sg29
Nsg45
g359
stRp1998
ag3
(g4
g5
(dp1999
g15
S''
sg41
g362
sg19
S''
sg43
g363
sg20
S''
sg16
g362
sg29
Nsg45
g364
stRp2000
atRp2001
sg69
g1978
sg41
S'db.have'
p2002
sg71
S'3'
sg72
S'28'
p2003
sg73
g74
sg43
S'Have'
p2004
sg45
S"Contains the 'have-list' for all clients"
p2005
stRp2006
sS'rdblbr'
p2007
g3
(g4
g5
(dp2008
g41
S'rdb.lbr'
p2009
sg69
g2007
sg10
g3
(g11
g12
(lp2010
g3
(g4
g5
(dp2011
g15
S''
sg16
g17
sg18
g17
sg19
S''
sg20
S''
sg21
g22
sg23
g24
stRp2012
ag3
(g4
g5
(dp2013
g15
S''
sg18
g27
sg19
S''
sg21
g28
sg20
S''
sg16
g27
sg29
Nsg23
g30
stRp2014
ag3
(g4
g5
(dp2015
g15
S''
sg18
g33
sg19
S''
sg21
g22
sg20
S''
sg16
g33
sg29
Nsg23
g34
stRp2016
ag3
(g4
g5
(dp2017
g15
S''
sg18
g37
sg19
S''
sg21
g28
sg20
S''
sg16
g37
sg29
Nsg23
g38
stRp2018
ag3
(g4
g5
(dp2019
g15
S''
sg41
S'depotFile'
p2020
sg19
S''
sg43
S'File'
p2021
sg20
S''
sg16
g2020
sg29
Nsg45
S'The file name'
p2022
stRp2023
ag3
(g4
g5
(dp2024
g15
S''
sg41
S'lbrRev'
p2025
sg19
S''
sg43
S'String'
p2026
sg20
S''
sg16
g2025
sg29
Nsg45
S'The librarian revision'
p2027
stRp2028
ag3
(g4
g5
(dp2029
g15
S''
sg41
S'type'
p2030
sg19
S''
sg43
S'String'
p2031
sg20
S''
sg16
g2030
sg29
Nsg45
S'The file type of the revision'
p2032
stRp2033
ag3
(g4
g5
(dp2034
g15
S''
sg41
S'status'
p2035
sg19
S''
sg43
S'PullStatus'
p2036
sg20
S''
sg16
g2035
sg29
Nsg45
S'The status of the archive transfer'
p2037
stRp2038
ag3
(g4
g5
(dp2039
g15
S''
sg41
S'action'
p2040
sg19
S''
sg43
S'Action'
p2041
sg20
S''
sg16
g2040
sg29
Nsg45
S'The action that created the revision'
p2042
stRp2043
ag3
(g4
g5
(dp2044
g15
S''
sg41
S'digest'
p2045
sg19
S''
sg43
S'Digest'
p2046
sg20
S''
sg16
g2045
sg29
Nsg45
S'The MD5 digest of the revision'
p2047
stRp2048
ag3
(g4
g5
(dp2049
g15
S''
sg41
S'size'
p2050
sg19
S''
sg43
S'FileSize'
p2051
sg20
S''
sg16
g2050
sg29
Nsg45
S'The size of the file in bytes'
p2052
stRp2053
ag3
(g4
g5
(dp2054
g15
S''
sg41
S'change'
p2055
sg19
S''
sg43
S'Change'
p2056
sg20
S''
sg16
g2055
sg29
Nsg45
S'The changelist that created the revision'
p2057
stRp2058
ag3
(g4
g5
(dp2059
g15
S''
sg41
S'lbrDate'
p2060
sg19
S''
sg43
S'Date'
p2061
sg20
S''
sg16
g2060
sg29
Nsg45
S'Librarian date'
p2062
stRp2063
ag3
(g4
g5
(dp2064
g15
S''
sg41
S'lbrModTime'
p2065
sg19
S''
sg43
S'Date'
p2066
sg20
S''
sg16
g2065
sg29
Nsg45
S'Librarian modtime'
p2067
stRp2068
ag3
(g4
g5
(dp2069
g15
S''
sg41
S'pid'
p2070
sg19
S''
sg43
S'Int'
p2071
sg20
S''
sg16
g2070
sg29
Nsg45
S'The process id (PID) of the pull process'
p2072
stRp2073
ag3
(g4
g5
(dp2074
g15
S''
sg41
S'requestTime'
p2075
sg19
S''
sg43
S'Date'
p2076
sg20
S''
sg16
g2075
sg29
Nsg45
S'Pull request time'
p2077
stRp2078
ag3
(g4
g5
(dp2079
g15
S''
sg41
S'retries'
p2080
sg19
S''
sg43
S'Int'
p2081
sg20
S''
sg16
g2080
sg29
Nsg45
S'The number of retries that have occurred after transfer error'
p2082
stRp2083
ag3
(g4
g5
(dp2084
g15
S''
sg41
S'transferError'
p2085
sg19
S''
sg43
S'String'
p2086
sg20
S''
sg16
g2085
sg29
Nsg45
S'The error message for a failed transfer'
p2087
stRp2088
atRp2089
sg73
g74
sg43
S'ReplicaArchiveTransfer'
p2090
sg45
S'Replica server pending archive transfer table'
p2091
stRp2092
sS'review'
p2093
g3
(g4
g5
(dp2094
g7
S'user, seq'
p2095
sg9
S'21'
p2096
sg10
g3
(g11
g12
(lp2097
g3
(g4
g5
(dp2098
g15
S''
sg16
g17
sg18
g17
sg19
S''
sg20
S''
sg21
g22
sg23
g24
stRp2099
ag3
(g4
g5
(dp2100
g15
S''
sg18
g27
sg19
S''
sg21
g28
sg20
S''
sg16
g27
sg29
Nsg23
g30
stRp2101
ag3
(g4
g5
(dp2102
g15
S''
sg18
g33
sg19
S''
sg21
g22
sg20
S''
sg16
g33
sg29
Nsg23
g34
stRp2103
ag3
(g4
g5
(dp2104
g15
S''
sg18
g37
sg19
S''
sg21
g28
sg20
S''
sg16
g37
sg29
Nsg23
g38
stRp2105
ag3
(g4
g5
(dp2106
g15
S''
sg41
S'user'
p2107
sg19
S''
sg43
S'User'
p2108
sg20
S''
sg16
g2107
sg29
Nsg45
S'A user name'
p2109
stRp2110
ag3
(g4
g5
(dp2111
g15
S''
sg41
S'seq'
p2112
sg19
S''
sg43
S'Int'
p2113
sg20
S''
sg16
g2112
sg29
Nsg45
S'Sequence number: used for ordering multi-line views'
p2114
stRp2115
ag3
(g4
g5
(dp2116
g15
S''
sg41
S'mapFlag'
p2117
sg19
S''
sg43
S'MapFlag'
p2118
sg20
S''
sg16
g2117
sg29
Nsg45
S'Type of mapping'
p2119
stRp2120
ag3
(g4
g5
(dp2121
g15
S''
sg41
S'depotFile'
p2122
sg19
S''
sg43
S'Mapping'
p2123
sg20
S''
sg16
g2122
sg29
Nsg45
S'The files to be reviewed'
p2124
stRp2125
ag3
(g4
g5
(dp2126
g15
S''
sg41
S'type'
p2127
sg19
S''
sg43
S'Reviewer'
p2128
sg20
S''
sg16
g2127
sg29
Nsg45
S'Type of reviewer'
p2129
stRp2130
atRp2131
sg69
g2093
sg41
S'db.review'
p2132
sg71
S'1'
sg72
S'21'
p2133
sg73
g74
sg43
S'Review'
p2134
sg45
S"User's review mappings"
p2135
stRp2136
sS'rev'
p2137
g3
(g4
g5
(dp2138
g7
S'depotFile, depotRev'
p2139
sg9
S'39'
p2140
sg10
g3
(g11
g12
(lp2141
g3
(g4
g5
(dp2142
g15
S''
sg16
g17
sg18
g17
sg19
S''
sg20
S''
sg21
g22
sg23
g24
stRp2143
ag3
(g4
g5
(dp2144
g15
S''
sg18
g27
sg19
S''
sg21
g28
sg20
S''
sg16
g27
sg29
Nsg23
g30
stRp2145
ag3
(g4
g5
(dp2146
g15
S''
sg18
g33
sg19
S''
sg21
g22
sg20
S''
sg16
g33
sg29
Nsg23
g34
stRp2147
ag3
(g4
g5
(dp2148
g15
S''
sg18
g37
sg19
S''
sg21
g28
sg20
S''
sg16
g37
sg29
Nsg23
g38
stRp2149
ag3
(g4
g5
(dp2150
g15
S''
sg41
g143
sg19
S''
sg43
g144
sg20
S''
sg16
g143
sg29
Nsg45
g145
stRp2151
ag3
(g4
g5
(dp2152
g15
S''
sg41
g148
sg19
S''
sg43
g149
sg20
S''
sg16
g148
sg29
Nsg45
g150
stRp2153
ag3
(g4
g5
(dp2154
g15
S''
sg41
g153
sg19
S''
sg43
g154
sg20
S''
sg16
g153
sg29
Nsg45
g155
stRp2155
ag3
(g4
g5
(dp2156
g15
S''
sg41
g158
sg19
S''
sg43
g159
sg20
S''
sg16
g158
sg29
Nsg45
g160
stRp2157
ag3
(g4
g5
(dp2158
g15
S''
sg41
g163
sg19
S''
sg43
g164
sg20
S''
sg16
g163
sg29
Nsg45
g165
stRp2159
ag3
(g4
g5
(dp2160
g15
S''
sg41
g168
sg19
S''
sg43
g169
sg20
S''
sg16
g168
sg29
Nsg45
g170
stRp2161
ag3
(g4
g5
(dp2162
g15
S''
sg41
g173
sg19
S''
sg43
g174
sg20
S''
sg16
g173
sg29
Nsg45
g175
stRp2163
ag3
(g4
g5
(dp2164
g15
S''
sg41
g178
sg19
S''
sg43
g179
sg20
S''
sg16
g178
sg29
Nsg45
g180
stRp2165
ag3
(g4
g5
(dp2166
g15
S''
sg41
g183
sg19
S''
sg43
g184
sg20
S''
sg16
g183
sg29
Nsg45
g185
stRp2167
ag3
(g4
g5
(dp2168
g15
S''
sg41
g188
sg19
S''
sg43
g189
sg20
S''
sg16
g188
sg29
Nsg45
g190
stRp2169
ag3
(g4
g5
(dp2170
g15
S''
sg41
g193
sg19
S''
sg43
g194
sg20
S''
sg16
g193
sg29
Nsg45
g195
stRp2171
ag3
(g4
g5
(dp2172
g15
S''
sg41
g198
sg19
S''
sg43
g199
sg20
S''
sg16
g198
sg29
Nsg45
g200
stRp2173
ag3
(g4
g5
(dp2174
g15
S''
sg41
g203
sg19
S''
sg43
g204
sg20
S''
sg16
g203
sg29
Nsg45
g205
stRp2175
ag3
(g4
g5
(dp2176
g15
S''
sg41
g208
sg19
S''
sg43
g209
sg20
S''
sg16
g208
sg29
Nsg45
g210
stRp2177
atRp2178
sg69
g2137
sg41
S'db.rev'
p2179
sg71
S'9'
sg72
S'33'
p2180
sg73
g74
sg43
S'Rev'
p2181
sg45
S'Revision records'
p2182
stRp2183
sS'label'
p2184
g3
(g4
g5
(dp2185
g7
S'name, depotFile'
p2186
sg9
S'22'
p2187
sg10
g3
(g11
g12
(lp2188
g3
(g4
g5
(dp2189
g15
S''
sg16
g17
sg18
g17
sg19
S''
sg20
S''
sg21
g22
sg23
g24
stRp2190
ag3
(g4
g5
(dp2191
g15
S''
sg18
g27
sg19
S''
sg21
g28
sg20
S''
sg16
g27
sg29
Nsg23
g30
stRp2192
ag3
(g4
g5
(dp2193
g15
S''
sg18
g33
sg19
S''
sg21
g22
sg20
S''
sg16
g33
sg29
Nsg23
g34
stRp2194
ag3
(g4
g5
(dp2195
g15
S''
sg18
g37
sg19
S''
sg21
g28
sg20
S''
sg16
g37
sg29
Nsg23
g38
stRp2196
ag3
(g4
g5
(dp2197
g15
S''
sg41
S'name'
p2198
sg19
S''
sg43
S'Domain'
p2199
sg20
S''
sg16
g2198
sg29
Nsg45
S'Name of the label'
p2200
stRp2201
ag3
(g4
g5
(dp2202
g15
S''
sg41
S'depotFile'
p2203
sg19
S''
sg43
S'File'
p2204
sg20
S''
sg16
g2203
sg29
Nsg45
S'File name'
p2205
stRp2206
ag3
(g4
g5
(dp2207
g15
S''
sg41
S'haveRev'
p2208
sg19
S''
sg43
S'Rev'
p2209
sg20
S''
sg16
g2208
sg29
Nsg45
S'The revision of the file in the label'
p2210
stRp2211
atRp2212
sg69
g2184
sg41
S'db.label'
p2213
sg71
S'0'
sg72
S'29'
p2214
sg73
g74
sg43
S'Label'
p2215
sg45
S'Revisions of files in labels'
p2216
stRp2217
sS'revbx'
p2218
g3
(g4
g5
(dp2219
g7
S'depotFile, depotRev'
p2220
sg9
S'36'
p2221
sg10
g3
(g11
g12
(lp2222
g3
(g4
g5
(dp2223
g15
S''
sg16
g17
sg18
g17
sg19
S''
sg20
S''
sg21
g22
sg23
g24
stRp2224
ag3
(g4
g5
(dp2225
g15
S''
sg18
g27
sg19
S''
sg21
g28
sg20
S''
sg16
g27
sg29
Nsg23
g30
stRp2226
ag3
(g4
g5
(dp2227
g15
S''
sg18
g33
sg19
S''
sg21
g22
sg20
S''
sg16
g33
sg29
Nsg23
g34
stRp2228
ag3
(g4
g5
(dp2229
g15
S''
sg18
g37
sg19
S''
sg21
g28
sg20
S''
sg16
g37
sg29
Nsg23
g38
stRp2230
ag3
(g4
g5
(dp2231
g15
S''
sg41
g143
sg19
S''
sg43
g144
sg20
S''
sg16
g143
sg29
Nsg45
g145
stRp2232
ag3
(g4
g5
(dp2233
g15
S''
sg41
g148
sg19
S''
sg43
g149
sg20
S''
sg16
g148
sg29
Nsg45
g150
stRp2234
ag3
(g4
g5
(dp2235
g15
S''
sg41
g153
sg19
S''
sg43
g154
sg20
S''
sg16
g153
sg29
Nsg45
g155
stRp2236
ag3
(g4
g5
(dp2237
g15
S''
sg41
g158
sg19
S''
sg43
g159
sg20
S''
sg16
g158
sg29
Nsg45
g160
stRp2238
ag3
(g4
g5
(dp2239
g15
S''
sg41
g163
sg19
S''
sg43
g164
sg20
S''
sg16
g163
sg29
Nsg45
g165
stRp2240
ag3
(g4
g5
(dp2241
g15
S''
sg41
g168
sg19
S''
sg43
g169
sg20
S''
sg16
g168
sg29
Nsg45
g170
stRp2242
ag3
(g4
g5
(dp2243
g15
S''
sg41
g173
sg19
S''
sg43
g174
sg20
S''
sg16
g173
sg29
Nsg45
g175
stRp2244
ag3
(g4
g5
(dp2245
g15
S''
sg41
g178
sg19
S''
sg43
g179
sg20
S''
sg16
g178
sg29
Nsg45
g180
stRp2246
ag3
(g4
g5
(dp2247
g15
S''
sg41
g183
sg19
S''
sg43
g184
sg20
S''
sg16
g183
sg29
Nsg45
g185
stRp2248
ag3
(g4
g5
(dp2249
g15
S''
sg41
g188
sg19
S''
sg43
g189
sg20
S''
sg16
g188
sg29
Nsg45
g190
stRp2250
ag3
(g4
g5
(dp2251
g15
S''
sg41
g193
sg19
S''
sg43
g194
sg20
S''
sg16
g193
sg29
Nsg45
g195
stRp2252
ag3
(g4
g5
(dp2253
g15
S''
sg41
g198
sg19
S''
sg43
g199
sg20
S''
sg16
g198
sg29
Nsg45
g200
stRp2254
ag3
(g4
g5
(dp2255
g15
S''
sg41
g203
sg19
S''
sg43
g204
sg20
S''
sg16
g203
sg29
Nsg45
g205
stRp2256
ag3
(g4
g5
(dp2257
g15
S''
sg41
g208
sg19
S''
sg43
g209
sg20
S''
sg16
g208
sg29
Nsg45
g210
stRp2258
atRp2259
sg69
g2218
sg41
S'db.revbx'
p2260
sg71
S'9'
sg72
S'41'
p2261
sg73
g74
sg43
S'Rev'
p2262
sg45
S'Revision records for archived files'
p2263
stRp2264
sS'nameval'
p2265
g3
(g4
g5
(dp2266
g7
S'name'
p2267
sg9
S'3'
sg10
g3
(g11
g12
(lp2268
g3
(g4
g5
(dp2269
g15
S''
sg16
g17
sg18
g17
sg19
S''
sg20
S''
sg21
g22
sg23
g24
stRp2270
ag3
(g4
g5
(dp2271
g15
S''
sg18
g27
sg19
S''
sg21
g28
sg20
S''
sg16
g27
sg29
Nsg23
g30
stRp2272
ag3
(g4
g5
(dp2273
g15
S''
sg18
g33
sg19
S''
sg21
g22
sg20
S''
sg16
g33
sg29
Nsg23
g34
stRp2274
ag3
(g4
g5
(dp2275
g15
S''
sg18
g37
sg19
S''
sg21
g28
sg20
S''
sg16
g37
sg29
Nsg23
g38
stRp2276
ag3
(g4
g5
(dp2277
g15
S''
sg41
S'name'
p2278
sg19
S''
sg43
S'Key'
p2279
sg20
S''
sg16
g2278
sg29
Nsg45
S'Key name'
p2280
stRp2281
ag3
(g4
g5
(dp2282
g15
S''
sg41
S'value'
p2283
sg19
S''
sg43
S'Value'
p2284
sg20
S''
sg16
g2283
sg29
Nsg45
S'Key value'
p2285
stRp2286
atRp2287
sg69
g2265
sg41
S'db.nameval'
p2288
sg71
S'1'
sg72
S'3'
sg73
g74
sg43
S'Keys'
p2289
sg45
S'A table to store key/value pairs'
p2290
stRp2291
sS'template'
p2292
g3
(g4
g5
(dp2293
g7
S'name, change, sequence'
p2294
sg9
S'18'
p2295
sg10
g3
(g11
g12
(lp2296
g3
(g4
g5
(dp2297
g15
S''
sg16
g17
sg18
g17
sg19
S''
sg20
S''
sg21
g22
sg23
g24
stRp2298
ag3
(g4
g5
(dp2299
g15
S''
sg18
g27
sg19
S''
sg21
g28
sg20
S''
sg16
g27
sg29
Nsg23
g30
stRp2300
ag3
(g4
g5
(dp2301
g15
S''
sg18
g33
sg19
S''
sg21
g22
sg20
S''
sg16
g33
sg29
Nsg23
g34
stRp2302
ag3
(g4
g5
(dp2303
g15
S''
sg18
g37
sg19
S''
sg21
g28
sg20
S''
sg16
g37
sg29
Nsg23
g38
stRp2304
ag3
(g4
g5
(dp2305
g15
S''
sg41
S'name'
p2306
sg19
S''
sg43
S'Domain'
p2307
sg20
S''
sg16
g2306
sg29
Nsg45
S'Stream name'
p2308
stRp2309
ag3
(g4
g5
(dp2310
g15
S''
sg41
S'change'
p2311
sg19
S''
sg43
S'Change'
p2312
sg20
S''
sg16
g2311
sg29
Nsg45
S'Versioned at change'
p2313
stRp2314
ag3
(g4
g5
(dp2315
g15
S''
sg41
S'seq'
p2316
sg19
S''
sg43
S'Int'
p2317
sg20
S''
sg16
g2316
sg29
Nsg45
S'Sequence (line) number'
p2318
stRp2319
ag3
(g4
g5
(dp2320
g15
S''
sg41
S'parent'
p2321
sg19
S''
sg43
S'Domain'
p2322
sg20
S''
sg16
g2321
sg29
Nsg45
S'Parent stream name'
p2323
stRp2324
ag3
(g4
g5
(dp2325
g15
S''
sg41
S'type'
p2326
sg19
S''
sg43
S'StreamType'
p2327
sg20
S''
sg16
g2326
sg29
Nsg45
S'Type of stream'
p2328
stRp2329
ag3
(g4
g5
(dp2330
g15
S''
sg41
S'path'
p2331
sg19
S''
sg43
S'StreamPathType'
p2332
sg20
S''
sg16
g2331
sg29
Nsg45
S'Stream path type'
p2333
stRp2334
ag3
(g4
g5
(dp2335
g15
S''
sg41
S'viewFile'
p2336
sg19
S''
sg43
S'Mapping'
p2337
sg20
S''
sg16
g2336
sg29
Nsg45
S'View file (left hand side of path)'
p2338
stRp2339
ag3
(g4
g5
(dp2340
g15
S''
sg41
S'depotFile'
p2341
sg19
S''
sg43
S'Mapping'
p2342
sg20
S''
sg16
g2341
sg29
Nsg45
S'Depot file (right hand side of path)'
p2343
stRp2344
ag3
(g4
g5
(dp2345
g15
S''
sg41
S'changeMap'
p2346
sg19
S''
sg43
S'Value'
p2347
sg20
S''
sg16
g2346
sg29
Nsg45
S"Stream 'import' path changelist specifier. The changelist\n\t\t\tlimits in effect for a given client are displayed in a\n\t    \tread-only client spec field called 'ChangeView'"
p2348
stRp2349
atRp2350
sg69
g2292
sg41
S'db.template'
p2351
sg71
S'3'
sg72
S'18'
p2352
sg73
g74
sg43
S'Template'
p2353
sg45
S'Streams templates'
p2354
stRp2355
sS'haverp'
p2356
g3
(g4
g5
(dp2357
g7
S'clientFile depotFile haveRev'
p2358
sg9
S'23'
p2359
sg10
g3
(g11
g12
(lp2360
g3
(g4
g5
(dp2361
g15
S''
sg16
g17
sg18
g17
sg19
S''
sg20
S''
sg21
g22
sg23
g24
stRp2362
ag3
(g4
g5
(dp2363
g15
S''
sg18
g27
sg19
S''
sg21
g28
sg20
S''
sg16
g27
sg29
Nsg23
g30
stRp2364
ag3
(g4
g5
(dp2365
g15
S''
sg18
g33
sg19
S''
sg21
g22
sg20
S''
sg16
g33
sg29
Nsg23
g34
stRp2366
ag3
(g4
g5
(dp2367
g15
S''
sg18
g37
sg19
S''
sg21
g28
sg20
S''
sg16
g37
sg29
Nsg23
g38
stRp2368
ag3
(g4
g5
(dp2369
g15
S''
sg41
g342
sg19
S''
sg43
g343
sg20
S''
sg16
g342
sg29
Nsg45
g344
stRp2370
ag3
(g4
g5
(dp2371
g15
S''
sg41
g347
sg19
S''
sg43
g348
sg20
S''
sg16
g347
sg29
Nsg45
g349
stRp2372
ag3
(g4
g5
(dp2373
g15
S''
sg41
g352
sg19
S''
sg43
g353
sg20
S''
sg16
g352
sg29
Nsg45
g354
stRp2374
ag3
(g4
g5
(dp2375
g15
S''
sg41
g357
sg19
S''
sg43
g358
sg20
S''
sg16
g357
sg29
Nsg45
g359
stRp2376
ag3
(g4
g5
(dp2377
g15
S''
sg41
g362
sg19
S''
sg43
g363
sg20
S''
sg16
g362
sg29
Nsg45
g364
stRp2378
atRp2379
sg69
g2356
sg41
S'db.have.rp'
p2380
sg71
S'3'
sg72
S'26'
p2381
sg73
g74
sg43
S'Have'
p2382
sg45
S"Contains the 'have-list' for clients of build-server replicas"
p2383
stRp2384
sS'depot'
p2385
g3
(g4
g5
(dp2386
g7
S'name'
p2387
sg9
S'15'
p2388
sg10
g3
(g11
g12
(lp2389
g3
(g4
g5
(dp2390
g15
S''
sg16
g17
sg18
g17
sg19
S''
sg20
S''
sg21
g22
sg23
g24
stRp2391
ag3
(g4
g5
(dp2392
g15
S''
sg18
g27
sg19
S''
sg21
g28
sg20
S''
sg16
g27
sg29
Nsg23
g30
stRp2393
ag3
(g4
g5
(dp2394
g15
S''
sg18
g33
sg19
S''
sg21
g22
sg20
S''
sg16
g33
sg29
Nsg23
g34
stRp2395
ag3
(g4
g5
(dp2396
g15
S''
sg18
g37
sg19
S''
sg21
g28
sg20
S''
sg16
g37
sg29
Nsg23
g38
stRp2397
ag3
(g4
g5
(dp2398
g15
S''
sg41
S'name'
p2399
sg19
S''
sg43
S'Domain'
p2400
sg20
S''
sg16
g2399
sg29
Nsg45
S'Depot name'
p2401
stRp2402
ag3
(g4
g5
(dp2403
g15
S''
sg41
S'type'
p2404
sg19
S''
sg43
S'DepotType'
p2405
sg20
S''
sg16
g2404
sg29
Nsg45
S'Type of depot'
p2406
stRp2407
ag3
(g4
g5
(dp2408
g15
S''
sg41
S'extra'
p2409
sg19
S''
sg43
S'Text'
p2410
sg20
S''
sg16
g2409
sg29
Nsg45
S'For remote depots, the P4PORT address of the remote server.\n\t\t    For spec depots, the field contains a suffix to append to \n\t\t    the filename.'
p2411
stRp2412
ag3
(g4
g5
(dp2413
g15
S''
sg41
S'map'
p2414
sg19
S''
sg43
S'Text'
p2415
sg20
S''
sg16
g2414
sg29
Nsg45
S"The depot's map (path translation information).  For local \n\t\t    depots, this will be a path relative to the root directory.\n\t\t    For remote depots, this will be specified in terms of the \n\t\t    remote server's namespace."
p2416
stRp2417
atRp2418
sg69
g2385
sg41
S'db.depot'
p2419
sg71
S'1'
sg72
S'15'
p2420
sg73
g74
sg43
S'Depot'
p2421
sg45
S'Depot specifications'
p2422
stRp2423
sS'config'
p2424
g3
(g4
g5
(dp2425
g7
S'serverName, name'
p2426
sg9
S'1'
sg10
g3
(g11
g12
(lp2427
g3
(g4
g5
(dp2428
g15
S''
sg16
g17
sg18
g17
sg19
S''
sg20
S''
sg21
g22
sg23
g24
stRp2429
ag3
(g4
g5
(dp2430
g15
S''
sg18
g27
sg19
S''
sg21
g28
sg20
S''
sg16
g27
sg29
Nsg23
g30
stRp2431
ag3
(g4
g5
(dp2432
g15
S''
sg18
g33
sg19
S''
sg21
g22
sg20
S''
sg16
g33
sg29
Nsg23
g34
stRp2433
ag3
(g4
g5
(dp2434
g15
S''
sg18
g37
sg19
S''
sg21
g28
sg20
S''
sg16
g37
sg29
Nsg23
g38
stRp2435
ag3
(g4
g5
(dp2436
g15
S''
sg41
S'sname'
p2437
sg19
S''
sg43
S'String'
p2438
sg20
S''
sg16
g2437
sg29
Nsg45
S'Server name'
p2439
stRp2440
ag3
(g4
g5
(dp2441
g15
S''
sg41
S'name'
p2442
sg19
S''
sg43
S'String'
p2443
sg20
S''
sg16
g2442
sg29
Nsg45
S'Configuration variable name'
p2444
stRp2445
ag3
(g4
g5
(dp2446
g15
S''
sg41
S'value'
p2447
sg19
S''
sg43
S'Value'
p2448
sg20
S''
sg16
g2447
sg29
Nsg45
S'Configuration variable value'
p2449
stRp2450
atRp2451
sg69
g2424
sg41
S'db.config'
p2452
sg71
S'1'
sg72
S'1'
sg73
g74
sg43
S'Config'
p2453
sg45
S'Server configurations table'
p2454
stRp2455
sS'counters'
p2456
g3
(g4
g5
(dp2457
g7
S'name'
p2458
sg9
S'2'
sg10
g3
(g11
g12
(lp2459
g3
(g4
g5
(dp2460
g15
S''
sg16
g17
sg18
g17
sg19
S''
sg20
S''
sg21
g22
sg23
g24
stRp2461
ag3
(g4
g5
(dp2462
g15
S''
sg18
g27
sg19
S''
sg21
g28
sg20
S''
sg16
g27
sg29
Nsg23
g30
stRp2463
ag3
(g4
g5
(dp2464
g15
S''
sg18
g33
sg19
S''
sg21
g22
sg20
S''
sg16
g33
sg29
Nsg23
g34
stRp2465
ag3
(g4
g5
(dp2466
g15
S''
sg18
g37
sg19
S''
sg21
g28
sg20
S''
sg16
g37
sg29
Nsg23
g38
stRp2467
ag3
(g4
g5
(dp2468
g15
S''
sg41
S'name'
p2469
sg19
S''
sg43
S'Counter'
p2470
sg20
S''
sg16
g2469
sg29
Nsg45
S'Counter name'
p2471
stRp2472
ag3
(g4
g5
(dp2473
g15
S''
sg41
S'value'
p2474
sg19
S''
sg43
S'Value'
p2475
sg20
S''
sg16
g2474
sg29
Nsg45
S'Counter value'
p2476
stRp2477
atRp2478
sg69
g2456
sg41
S'db.counters'
p2479
sg71
S'1'
sg72
S'2'
sg73
g74
sg43
S'Counters'
p2480
sg45
S'Counters table'
p2481
stRp2482
sS'revsx'
p2483
g3
(g4
g5
(dp2484
g7
S'depotFile, depotRev'
p2485
sg9
S'34'
p2486
sg10
g3
(g11
g12
(lp2487
g3
(g4
g5
(dp2488
g15
S''
sg16
g17
sg18
g17
sg19
S''
sg20
S''
sg21
g22
sg23
g24
stRp2489
ag3
(g4
g5
(dp2490
g15
S''
sg18
g27
sg19
S''
sg21
g28
sg20
S''
sg16
g27
sg29
Nsg23
g30
stRp2491
ag3
(g4
g5
(dp2492
g15
S''
sg18
g33
sg19
S''
sg21
g22
sg20
S''
sg16
g33
sg29
Nsg23
g34
stRp2493
ag3
(g4
g5
(dp2494
g15
S''
sg18
g37
sg19
S''
sg21
g28
sg20
S''
sg16
g37
sg29
Nsg23
g38
stRp2495
ag3
(g4
g5
(dp2496
g15
S''
sg41
g143
sg19
S''
sg43
g144
sg20
S''
sg16
g143
sg29
Nsg45
g145
stRp2497
ag3
(g4
g5
(dp2498
g15
S''
sg41
g148
sg19
S''
sg43
g149
sg20
S''
sg16
g148
sg29
Nsg45
g150
stRp2499
ag3
(g4
g5
(dp2500
g15
S''
sg41
g153
sg19
S''
sg43
g154
sg20
S''
sg16
g153
sg29
Nsg45
g155
stRp2501
ag3
(g4
g5
(dp2502
g15
S''
sg41
g158
sg19
S''
sg43
g159
sg20
S''
sg16
g158
sg29
Nsg45
g160
stRp2503
ag3
(g4
g5
(dp2504
g15
S''
sg41
g163
sg19
S''
sg43
g164
sg20
S''
sg16
g163
sg29
Nsg45
g165
stRp2505
ag3
(g4
g5
(dp2506
g15
S''
sg41
g168
sg19
S''
sg43
g169
sg20
S''
sg16
g168
sg29
Nsg45
g170
stRp2507
ag3
(g4
g5
(dp2508
g15
S''
sg41
g173
sg19
S''
sg43
g174
sg20
S''
sg16
g173
sg29
Nsg45
g175
stRp2509
ag3
(g4
g5
(dp2510
g15
S''
sg41
g178
sg19
S''
sg43
g179
sg20
S''
sg16
g178
sg29
Nsg45
g180
stRp2511
ag3
(g4
g5
(dp2512
g15
S''
sg41
g183
sg19
S''
sg43
g184
sg20
S''
sg16
g183
sg29
Nsg45
g185
stRp2513
ag3
(g4
g5
(dp2514
g15
S''
sg41
g188
sg19
S''
sg43
g189
sg20
S''
sg16
g188
sg29
Nsg45
g190
stRp2515
ag3
(g4
g5
(dp2516
g15
S''
sg41
g193
sg19
S''
sg43
g194
sg20
S''
sg16
g193
sg29
Nsg45
g195
stRp2517
ag3
(g4
g5
(dp2518
g15
S''
sg41
g198
sg19
S''
sg43
g199
sg20
S''
sg16
g198
sg29
Nsg45
g200
stRp2519
ag3
(g4
g5
(dp2520
g15
S''
sg41
g203
sg19
S''
sg43
g204
sg20
S''
sg16
g203
sg29
Nsg45
g205
stRp2521
ag3
(g4
g5
(dp2522
g15
S''
sg41
g208
sg19
S''
sg43
g209
sg20
S''
sg16
g208
sg29
Nsg45
g210
stRp2523
atRp2524
sg69
g2483
sg41
S'db.revsx'
p2525
sg71
S'9'
sg72
S'39'
p2526
sg73
g74
sg43
S'Rev'
p2527
sg45
S'Revision records for spec depot files'
p2528
stRp2529
sS'revcx'
p2530
g3
(g4
g5
(dp2531
g7
S'change, depotFile'
p2532
sg9
S'38'
p2533
sg10
g3
(g11
g12
(lp2534
g3
(g4
g5
(dp2535
g15
S''
sg16
g17
sg18
g17
sg19
S''
sg20
S''
sg21
g22
sg23
g24
stRp2536
ag3
(g4
g5
(dp2537
g15
S''
sg18
g27
sg19
S''
sg21
g28
sg20
S''
sg16
g27
sg29
Nsg23
g30
stRp2538
ag3
(g4
g5
(dp2539
g15
S''
sg18
g33
sg19
S''
sg21
g22
sg20
S''
sg16
g33
sg29
Nsg23
g34
stRp2540
ag3
(g4
g5
(dp2541
g15
S''
sg18
g37
sg19
S''
sg21
g28
sg20
S''
sg16
g37
sg29
Nsg23
g38
stRp2542
ag3
(g4
g5
(dp2543
g15
S''
sg41
S'change'
p2544
sg19
S''
sg43
S'Change'
p2545
sg20
S''
sg16
g2544
sg29
Nsg45
S'The changelist that created the revision'
p2546
stRp2547
ag3
(g4
g5
(dp2548
g15
S''
sg41
S'depotFile'
p2549
sg19
S''
sg43
S'File'
p2550
sg20
S''
sg16
g2549
sg29
Nsg45
S'The file name'
p2551
stRp2552
ag3
(g4
g5
(dp2553
g15
S''
sg41
S'depotRev'
p2554
sg19
S''
sg43
S'Rev'
p2555
sg20
S''
sg16
g2554
sg29
Nsg45
S'The revision number'
p2556
stRp2557
ag3
(g4
g5
(dp2558
g15
S''
sg41
S'action'
p2559
sg19
S''
sg43
S'Action'
p2560
sg20
S''
sg16
g2559
sg29
Nsg45
S'The action that created the revision'
p2561
stRp2562
atRp2563
sg69
g2530
sg41
S'db.revcx'
p2564
sg71
S'0'
sg72
S'35'
p2565
sg73
g74
sg43
S'RevCx'
p2566
sg45
S'Secondary index of db.rev'
p2567
stRp2568
sS'job'
p2569
g3
(g4
g5
(dp2570
g7
S'job'
p2571
sg9
S'51'
p2572
sg10
g3
(g11
g12
(lp2573
g3
(g4
g5
(dp2574
g15
S''
sg16
g17
sg18
g17
sg19
S''
sg20
S''
sg21
g22
sg23
g24
stRp2575
ag3
(g4
g5
(dp2576
g15
S''
sg18
g27
sg19
S''
sg21
g28
sg20
S''
sg16
g27
sg29
Nsg23
g30
stRp2577
ag3
(g4
g5
(dp2578
g15
S''
sg18
g33
sg19
S''
sg21
g22
sg20
S''
sg16
g33
sg29
Nsg23
g34
stRp2579
ag3
(g4
g5
(dp2580
g15
S''
sg18
g37
sg19
S''
sg21
g28
sg20
S''
sg16
g37
sg29
Nsg23
g38
stRp2581
ag3
(g4
g5
(dp2582
g15
S''
sg41
S'job'
p2583
sg19
S''
sg43
S'String'
p2584
sg20
S''
sg16
g2583
sg29
Nsg45
S'The job name'
p2585
stRp2586
ag3
(g4
g5
(dp2587
g15
S''
sg41
S'xuser'
p2588
sg19
S''
sg43
S'User'
p2589
sg20
S''
sg16
g2588
sg29
Nsg45
S'User name: defunct'
p2590
stRp2591
ag3
(g4
g5
(dp2592
g15
S''
sg41
S'xdate'
p2593
sg19
S''
sg43
S'Date'
p2594
sg20
S''
sg16
g2593
sg29
Nsg45
S'The date: defunct'
p2595
stRp2596
ag3
(g4
g5
(dp2597
g15
S''
sg41
S'xstatus'
p2598
sg19
S''
sg43
S'JobStat'
p2599
sg20
S''
sg16
g2598
sg29
Nsg45
S'Job status: defunct'
p2600
stRp2601
ag3
(g4
g5
(dp2602
g15
S''
sg41
S'description'
p2603
sg19
S''
sg43
S'DescShort'
p2604
sg20
S''
sg16
g2603
sg29
Nsg45
S'Short description'
p2605
stRp2606
atRp2607
sg69
g2569
sg41
S'db.job'
p2608
sg71
S'0'
sg72
S'51'
p2609
sg73
g74
sg45
S'Job records'
p2610
sg43
S'Job'
p2611
sg126
S'db.bodtext'
p2612
stRp2613
sS'workingx'
p2614
g3
(g4
g5
(dp2615
g7
S'clientFile'
p2616
sg9
S'43'
p2617
sg10
g3
(g11
g12
(lp2618
g3
(g4
g5
(dp2619
g15
S''
sg16
g17
sg18
g17
sg19
S''
sg20
S''
sg21
g22
sg23
g24
stRp2620
ag3
(g4
g5
(dp2621
g15
S''
sg18
g27
sg19
S''
sg21
g28
sg20
S''
sg16
g27
sg29
Nsg23
g30
stRp2622
ag3
(g4
g5
(dp2623
g15
S''
sg18
g33
sg19
S''
sg21
g22
sg20
S''
sg16
g33
sg29
Nsg23
g34
stRp2624
ag3
(g4
g5
(dp2625
g15
S''
sg18
g37
sg19
S''
sg21
g28
sg20
S''
sg16
g37
sg29
Nsg23
g38
stRp2626
ag3
(g4
g5
(dp2627
g15
S''
sg41
g514
sg19
S''
sg43
g515
sg20
S''
sg16
g514
sg29
Nsg45
g516
stRp2628
ag3
(g4
g5
(dp2629
g15
S''
sg41
g519
sg19
S''
sg43
g520
sg20
S''
sg16
g519
sg29
Nsg45
g521
stRp2630
ag3
(g4
g5
(dp2631
g15
S''
sg41
g524
sg19
S''
sg43
g525
sg20
S''
sg16
g524
sg29
Nsg45
g526
stRp2632
ag3
(g4
g5
(dp2633
g15
S''
sg41
g529
sg19
S''
sg43
g530
sg20
S''
sg16
g529
sg29
Nsg45
g531
stRp2634
ag3
(g4
g5
(dp2635
g15
S''
sg41
g534
sg19
S''
sg43
g535
sg20
S''
sg16
g534
sg29
Nsg45
g536
stRp2636
ag3
(g4
g5
(dp2637
g15
S''
sg41
g539
sg19
S''
sg43
g540
sg20
S''
sg16
g539
sg29
Nsg45
g541
stRp2638
ag3
(g4
g5
(dp2639
g15
S''
sg41
g544
sg19
S''
sg43
g545
sg20
S''
sg16
g544
sg29
Nsg45
g546
stRp2640
ag3
(g4
g5
(dp2641
g15
S''
sg41
g549
sg19
S''
sg43
g550
sg20
S''
sg16
g549
sg29
Nsg45
g551
stRp2642
ag3
(g4
g5
(dp2643
g15
S''
sg41
g554
sg19
S''
sg43
g555
sg20
S''
sg16
g554
sg29
Nsg45
g556
stRp2644
ag3
(g4
g5
(dp2645
g15
S''
sg41
g559
sg19
S''
sg43
g560
sg20
S''
sg16
g559
sg29
Nsg45
g561
stRp2646
ag3
(g4
g5
(dp2647
g15
S''
sg41
g564
sg19
S''
sg43
g565
sg20
S''
sg16
g564
sg29
Nsg45
g566
stRp2648
ag3
(g4
g5
(dp2649
g15
S''
sg41
g569
sg19
S''
sg43
g570
sg20
S''
sg16
g569
sg29
Nsg45
g571
stRp2650
ag3
(g4
g5
(dp2651
g15
S''
sg41
g574
sg19
S''
sg43
g575
sg20
S''
sg16
g574
sg29
Nsg45
g576
stRp2652
ag3
(g4
g5
(dp2653
g15
S''
sg41
g579
sg19
S''
sg43
g580
sg20
S''
sg16
g579
sg29
Nsg45
g581
stRp2654
ag3
(g4
g5
(dp2655
g15
S''
sg41
g584
sg19
S''
sg43
g585
sg20
S''
sg16
g584
sg29
Nsg45
g586
stRp2656
ag3
(g4
g5
(dp2657
g15
S''
sg41
g589
sg19
S''
sg43
g590
sg20
S''
sg16
g589
sg29
Nsg45
g591
stRp2658
ag3
(g4
g5
(dp2659
g15
S''
sg41
g594
sg19
S''
sg43
g595
sg20
S''
sg16
g594
sg29
Nsg45
g596
stRp2660
ag3
(g4
g5
(dp2661
g15
S''
sg41
g599
sg19
S''
sg43
g600
sg20
S''
sg16
g599
sg29
Nsg45
g601
stRp2662
ag3
(g4
g5
(dp2663
g15
S''
sg41
g604
sg19
S''
sg43
g605
sg20
S''
sg16
g604
sg29
Nsg45
g606
stRp2664
atRp2665
sg69
g2614
sg41
S'db.workingx'
p2666
sg71
S'10'
p2667
sg72
S'44'
p2668
sg73
g74
sg43
S'Working'
p2669
sg45
S'Records for shelved open files'
p2670
stRp2671
sS'user'
p2672
g3
(g4
g5
(dp2673
g7
S'user'
p2674
sg9
S'12'
p2675
sg10
g3
(g11
g12
(lp2676
g3
(g4
g5
(dp2677
g15
S''
sg16
g17
sg18
g17
sg19
S''
sg20
S''
sg21
g22
sg23
g24
stRp2678
ag3
(g4
g5
(dp2679
g15
S''
sg18
g27
sg19
S''
sg21
g28
sg20
S''
sg16
g27
sg29
Nsg23
g30
stRp2680
ag3
(g4
g5
(dp2681
g15
S''
sg18
g33
sg19
S''
sg21
g22
sg20
S''
sg16
g33
sg29
Nsg23
g34
stRp2682
ag3
(g4
g5
(dp2683
g15
S''
sg18
g37
sg19
S''
sg21
g28
sg20
S''
sg16
g37
sg29
Nsg23
g38
stRp2684
ag3
(g4
g5
(dp2685
g15
S''
sg41
g1849
sg19
S''
sg43
g1850
sg20
S''
sg16
g1849
sg29
Nsg45
g1851
stRp2686
ag3
(g4
g5
(dp2687
g15
S''
sg41
g1854
sg19
S''
sg43
g1855
sg20
S''
sg16
g1854
sg29
Nsg45
g1856
stRp2688
ag3
(g4
g5
(dp2689
g15
S''
sg41
g1859
sg19
S''
sg43
g1860
sg20
S''
sg16
g1859
sg29
Nsg45
g1861
stRp2690
ag3
(g4
g5
(dp2691
g15
S''
sg41
g1864
sg19
S''
sg43
g1865
sg20
S''
sg16
g1864
sg29
Nsg45
g1866
stRp2692
ag3
(g4
g5
(dp2693
g15
S''
sg41
g1869
sg19
S''
sg43
g1870
sg20
S''
sg16
g1869
sg29
Nsg45
g1871
stRp2694
ag3
(g4
g5
(dp2695
g15
S''
sg41
g1874
sg19
S''
sg43
g1875
sg20
S''
sg16
g1874
sg29
Nsg45
g1876
stRp2696
ag3
(g4
g5
(dp2697
g15
S''
sg41
g1879
sg19
S''
sg43
g1880
sg20
S''
sg16
g1879
sg29
Nsg45
g1881
stRp2698
ag3
(g4
g5
(dp2699
g15
S''
sg41
g1884
sg19
S''
sg43
g1885
sg20
S''
sg16
g1884
sg29
Nsg45
g1886
stRp2700
ag3
(g4
g5
(dp2701
g15
S''
sg41
g1889
sg19
S''
sg43
g1890
sg20
S''
sg16
g1889
sg29
Nsg45
g1891
stRp2702
ag3
(g4
g5
(dp2703
g15
S''
sg41
g1894
sg19
S''
sg43
g1895
sg20
S''
sg16
g1894
sg29
Nsg45
g1896
stRp2704
ag3
(g4
g5
(dp2705
g15
S''
sg41
g1899
sg19
S''
sg43
g1900
sg20
S''
sg16
g1899
sg29
Nsg45
g1901
stRp2706
ag3
(g4
g5
(dp2707
g15
S''
sg41
g1904
sg19
S''
sg43
g1905
sg20
S''
sg16
g1904
sg29
Nsg45
g1906
stRp2708
ag3
(g4
g5
(dp2709
g15
S''
sg41
g1909
sg19
S''
sg43
g1910
sg20
S''
sg16
g1909
sg29
Nsg45
g1911
stRp2710
ag3
(g4
g5
(dp2711
g15
S''
sg41
g1914
sg19
S''
sg43
g1915
sg20
S''
sg16
g1914
sg29
Nsg45
g1916
stRp2712
ag3
(g4
g5
(dp2713
g15
S''
sg41
g1919
sg19
S''
sg43
g1920
sg20
S''
sg16
g1919
sg29
Nsg45
g1921
stRp2714
atRp2715
sg69
g2672
sg41
S'db.user'
p2716
sg71
S'7'
sg72
S'12'
p2717
sg73
g74
sg43
S'User'
p2718
sg45
S'User specifications'
p2719
stRp2720
sS'revsh'
p2721
g3
(g4
g5
(dp2722
g7
S'depotFile, depotRev, type, action, change'
p2723
sg9
S'35'
p2724
sg10
g3
(g11
g12
(lp2725
g3
(g4
g5
(dp2726
g15
S''
sg16
g17
sg18
g17
sg19
S''
sg20
S''
sg21
g22
sg23
g24
stRp2727
ag3
(g4
g5
(dp2728
g15
S''
sg18
g27
sg19
S''
sg21
g28
sg20
S''
sg16
g27
sg29
Nsg23
g30
stRp2729
ag3
(g4
g5
(dp2730
g15
S''
sg18
g33
sg19
S''
sg21
g22
sg20
S''
sg16
g33
sg29
Nsg23
g34
stRp2731
ag3
(g4
g5
(dp2732
g15
S''
sg18
g37
sg19
S''
sg21
g28
sg20
S''
sg16
g37
sg29
Nsg23
g38
stRp2733
ag3
(g4
g5
(dp2734
g15
S''
sg41
g143
sg19
S''
sg43
g144
sg20
S''
sg16
g143
sg29
Nsg45
g145
stRp2735
ag3
(g4
g5
(dp2736
g15
S''
sg41
g148
sg19
S''
sg43
g149
sg20
S''
sg16
g148
sg29
Nsg45
g150
stRp2737
ag3
(g4
g5
(dp2738
g15
S''
sg41
g153
sg19
S''
sg43
g154
sg20
S''
sg16
g153
sg29
Nsg45
g155
stRp2739
ag3
(g4
g5
(dp2740
g15
S''
sg41
g158
sg19
S''
sg43
g159
sg20
S''
sg16
g158
sg29
Nsg45
g160
stRp2741
ag3
(g4
g5
(dp2742
g15
S''
sg41
g163
sg19
S''
sg43
g164
sg20
S''
sg16
g163
sg29
Nsg45
g165
stRp2743
ag3
(g4
g5
(dp2744
g15
S''
sg41
g168
sg19
S''
sg43
g169
sg20
S''
sg16
g168
sg29
Nsg45
g170
stRp2745
ag3
(g4
g5
(dp2746
g15
S''
sg41
g173
sg19
S''
sg43
g174
sg20
S''
sg16
g173
sg29
Nsg45
g175
stRp2747
ag3
(g4
g5
(dp2748
g15
S''
sg41
g178
sg19
S''
sg43
g179
sg20
S''
sg16
g178
sg29
Nsg45
g180
stRp2749
ag3
(g4
g5
(dp2750
g15
S''
sg41
g183
sg19
S''
sg43
g184
sg20
S''
sg16
g183
sg29
Nsg45
g185
stRp2751
ag3
(g4
g5
(dp2752
g15
S''
sg41
g188
sg19
S''
sg43
g189
sg20
S''
sg16
g188
sg29
Nsg45
g190
stRp2753
ag3
(g4
g5
(dp2754
g15
S''
sg41
g193
sg19
S''
sg43
g194
sg20
S''
sg16
g193
sg29
Nsg45
g195
stRp2755
ag3
(g4
g5
(dp2756
g15
S''
sg41
g198
sg19
S''
sg43
g199
sg20
S''
sg16
g198
sg29
Nsg45
g200
stRp2757
ag3
(g4
g5
(dp2758
g15
S''
sg41
g203
sg19
S''
sg43
g204
sg20
S''
sg16
g203
sg29
Nsg45
g205
stRp2759
ag3
(g4
g5
(dp2760
g15
S''
sg41
g208
sg19
S''
sg43
g209
sg20
S''
sg16
g208
sg29
Nsg45
g210
stRp2761
atRp2762
sg69
g2721
sg41
S'db.revsh'
p2763
sg71
S'9'
sg72
S'40'
p2764
sg73
g74
sg43
S'Rev'
p2765
sg45
S'Revision records for shelved files'
p2766
stRp2767
sS'changeidx'
p2768
g3
(g4
g5
(dp2769
g7
S'identity'
p2770
sg9
S'49'
p2771
sg10
g3
(g11
g12
(lp2772
g3
(g4
g5
(dp2773
g15
S''
sg16
g17
sg18
g17
sg19
S''
sg20
S''
sg21
g22
sg23
g24
stRp2774
ag3
(g4
g5
(dp2775
g15
S''
sg18
g27
sg19
S''
sg21
g28
sg20
S''
sg16
g27
sg29
Nsg23
g30
stRp2776
ag3
(g4
g5
(dp2777
g15
S''
sg18
g33
sg19
S''
sg21
g22
sg20
S''
sg16
g33
sg29
Nsg23
g34
stRp2778
ag3
(g4
g5
(dp2779
g15
S''
sg18
g37
sg19
S''
sg21
g28
sg20
S''
sg16
g37
sg29
Nsg23
g38
stRp2780
ag3
(g4
g5
(dp2781
g15
S''
sg41
S'identity'
p2782
sg19
S''
sg43
S'String'
p2783
sg20
S''
sg16
g2782
sg29
Nsg45
S'Identifier for this change'
p2784
stRp2785
ag3
(g4
g5
(dp2786
g15
S''
sg41
S'change'
p2787
sg19
S''
sg43
S'Change'
p2788
sg20
S''
sg16
g2787
sg29
Nsg45
S'Changelist'
p2789
stRp2790
atRp2791
sg69
g2768
sg41
S'db.changeidx'
p2792
sg71
S'1'
sg72
S'49'
p2793
sg73
g74
sg43
S'ChangeIdx'
p2794
sg45
S'Secondary index of db.change/db.changex'
p2795
stRp2796
sS'groupx'
p2797
g3
(g4
g5
(dp2798
g7
S'group'
p2799
sg9
S'14'
p2800
sg10
g3
(g11
g12
(lp2801
g3
(g4
g5
(dp2802
g15
S''
sg16
g17
sg18
g17
sg19
S''
sg20
S''
sg21
g22
sg23
g24
stRp2803
ag3
(g4
g5
(dp2804
g15
S''
sg18
g27
sg19
S''
sg21
g28
sg20
S''
sg16
g27
sg29
Nsg23
g30
stRp2805
ag3
(g4
g5
(dp2806
g15
S''
sg18
g33
sg19
S''
sg21
g22
sg20
S''
sg16
g33
sg29
Nsg23
g34
stRp2807
ag3
(g4
g5
(dp2808
g15
S''
sg18
g37
sg19
S''
sg21
g28
sg20
S''
sg16
g37
sg29
Nsg23
g38
stRp2809
ag3
(g4
g5
(dp2810
g15
S''
sg41
S'group'
p2811
sg19
S''
sg43
S'User'
p2812
sg20
S''
sg16
g2811
sg29
Nsg45
S'Group name'
p2813
stRp2814
ag3
(g4
g5
(dp2815
g15
S''
sg41
S'ldapConf'
p2816
sg19
S''
sg43
S'String'
p2817
sg20
S''
sg16
g2816
sg29
Nsg45
S"The LDAP configuration to use when populating the group's user list from an LDAP query"
p2818
stRp2819
ag3
(g4
g5
(dp2820
g15
S''
sg41
S'ldapSearchQuery'
p2821
sg19
S''
sg43
S'String'
p2822
sg20
S''
sg16
g2821
sg29
Nsg45
S'The LDAP query used to identify the members of the group'
p2823
stRp2824
ag3
(g4
g5
(dp2825
g15
S''
sg41
S'ldapUserAttribute'
p2826
sg19
S''
sg43
S'String'
p2827
sg20
S''
sg16
g2826
sg29
Nsg45
S"The LDAP attribute that represents the user's username"
p2828
stRp2829
atRp2830
sg69
g2797
sg41
S'db.groupx'
p2831
sg71
S'0'
sg72
S'14'
p2832
sg73
g74
sg43
S'GroupX'
p2833
sg45
S'Per-group data to support group membership controlled by AD/LDAP group membership'
p2834
stRp2835
sS'change'
p2836
g3
(g4
g5
(dp2837
g7
S'change'
p2838
sg9
S'47'
p2839
sg10
g3
(g11
g12
(lp2840
g3
(g4
g5
(dp2841
g15
S''
sg16
g17
sg18
g17
sg19
S''
sg20
S''
sg21
g22
sg23
g24
stRp2842
ag3
(g4
g5
(dp2843
g15
S''
sg18
g27
sg19
S''
sg21
g28
sg20
S''
sg16
g27
sg29
Nsg23
g30
stRp2844
ag3
(g4
g5
(dp2845
g15
S''
sg18
g33
sg19
S''
sg21
g22
sg20
S''
sg16
g33
sg29
Nsg23
g34
stRp2846
ag3
(g4
g5
(dp2847
g15
S''
sg18
g37
sg19
S''
sg21
g28
sg20
S''
sg16
g37
sg29
Nsg23
g38
stRp2848
ag3
(g4
g5
(dp2849
g15
S''
sg41
S'change'
p2850
sg19
S''
sg43
S'Change'
p2851
sg20
S''
sg16
g2850
sg29
Nsg45
S'The change number'
p2852
stRp2853
ag3
(g4
g5
(dp2854
g15
S''
sg41
S'descKey'
p2855
sg19
S''
sg43
S'Change'
p2856
sg20
S''
sg16
g2855
sg29
Nsg45
S"The description key. Normally the same as 'change', but\n\t\t    may differ if a changelist was renumbered on submission."
p2857
stRp2858
ag3
(g4
g5
(dp2859
g15
S''
sg41
S'client'
p2860
sg19
S''
sg43
S'Domain'
p2861
sg20
S''
sg16
g2860
sg29
Nsg45
S'The client from which the change originates'
p2862
stRp2863
ag3
(g4
g5
(dp2864
g15
S''
sg41
S'user'
p2865
sg19
S''
sg43
S'User'
p2866
sg20
S''
sg16
g2865
sg29
Nsg45
S'The user who owns the change'
p2867
stRp2868
ag3
(g4
g5
(dp2869
g15
S''
sg41
S'date'
p2870
sg19
S''
sg43
S'Date'
p2871
sg20
S''
sg16
g2870
sg29
Nsg45
S'Date and time the changelist was submitted'
p2872
stRp2873
ag3
(g4
g5
(dp2874
g15
S''
sg41
S'status'
p2875
sg19
S''
sg43
S'ChangeStatus'
p2876
sg20
S''
sg16
g2875
sg29
Nsg45
S'Status of the change'
p2877
stRp2878
ag3
(g4
g5
(dp2879
g15
S''
sg41
S'description'
p2880
sg19
S''
sg43
S'DescShort'
p2881
sg20
S''
sg16
g2880
sg29
Nsg45
S'Short description of the change.'
p2882
stRp2883
ag3
(g4
g5
(dp2884
g15
S''
sg41
S'root'
p2885
sg19
S''
sg43
S'Mapping'
p2886
sg20
S''
sg16
g2885
sg29
Nsg45
S'Common path for all files in the changelist'
p2887
stRp2888
ag3
(g4
g5
(dp2889
g15
S''
sg41
S'importer'
p2890
sg19
S''
sg43
S'String'
p2891
sg20
S''
sg16
g2890
sg29
Nsg45
S'The user who fetched or pushed this change to this server'
p2892
stRp2893
ag3
(g4
g5
(dp2894
g15
S''
sg41
S'identify'
p2895
sg19
S''
sg43
S'String'
p2896
sg20
S''
sg16
g2895
sg29
Nsg45
S'Identifier for this change'
p2897
stRp2898
atRp2899
sg69
g2836
sg41
S'db.change'
p2900
sg71
S'3'
sg72
S'47'
p2901
sg73
g74
sg43
S'Change'
p2902
sg45
S'Changelists'
p2903
stRp2904
sS'integtx'
p2905
g3
(g4
g5
(dp2906
g7
S'toFile, fromFile, startFromRev, endFromRev, \n\t\tstartToRev, endToRev'
p2907
sg9
S'27'
p2908
sg10
g3
(g11
g12
(lp2909
g3
(g4
g5
(dp2910
g15
S''
sg16
g17
sg18
g17
sg19
S''
sg20
S''
sg21
g22
sg23
g24
stRp2911
ag3
(g4
g5
(dp2912
g15
S''
sg18
g27
sg19
S''
sg21
g28
sg20
S''
sg16
g27
sg29
Nsg23
g30
stRp2913
ag3
(g4
g5
(dp2914
g15
S''
sg18
g33
sg19
S''
sg21
g22
sg20
S''
sg16
g33
sg29
Nsg23
g34
stRp2915
ag3
(g4
g5
(dp2916
g15
S''
sg18
g37
sg19
S''
sg21
g28
sg20
S''
sg16
g37
sg29
Nsg23
g38
stRp2917
ag3
(g4
g5
(dp2918
g15
S''
sg41
g982
sg19
S''
sg43
g983
sg20
S''
sg16
g982
sg29
Nsg45
g984
stRp2919
ag3
(g4
g5
(dp2920
g15
S''
sg41
g987
sg19
S''
sg43
g988
sg20
S''
sg16
g987
sg29
Nsg45
g989
stRp2921
ag3
(g4
g5
(dp2922
g15
S''
sg41
g992
sg19
S''
sg43
g993
sg20
S''
sg16
g992
sg29
Nsg45
g994
stRp2923
ag3
(g4
g5
(dp2924
g15
S''
sg41
g997
sg19
S''
sg43
g998
sg20
S''
sg16
g997
sg29
Nsg45
g999
stRp2925
ag3
(g4
g5
(dp2926
g15
S''
sg41
g1002
sg19
S''
sg43
g1003
sg20
S''
sg16
g1002
sg29
Nsg45
g1004
stRp2927
ag3
(g4
g5
(dp2928
g15
S''
sg41
g1007
sg19
S''
sg43
g1008
sg20
S''
sg16
g1007
sg29
Nsg45
g1009
stRp2929
ag3
(g4
g5
(dp2930
g15
S''
sg41
g1012
sg19
S''
sg43
g1013
sg20
S''
sg16
g1012
sg29
Nsg45
g1014
stRp2931
ag3
(g4
g5
(dp2932
g15
S''
sg41
g1017
sg19
S''
sg43
g1018
sg20
S''
sg16
g1017
sg29
Nsg45
g1019
stRp2933
atRp2934
sg69
g2905
sg41
S'db.integtx'
p2935
sg71
S'0'
sg72
S'23'
p2936
sg73
g74
sg45
S'Temporary integration records used by task streams'
p2937
sg43
S'Integed'
p2938
sg126
S'db.resolve'
p2939
stRp2940
sS'protect'
p2941
g3
(g4
g5
(dp2942
g7
S'seq'
p2943
sg9
S'57'
p2944
sg10
g3
(g11
g12
(lp2945
g3
(g4
g5
(dp2946
g15
S''
sg16
g17
sg18
g17
sg19
S''
sg20
S''
sg21
g22
sg23
g24
stRp2947
ag3
(g4
g5
(dp2948
g15
S''
sg18
g27
sg19
S''
sg21
g28
sg20
S''
sg16
g27
sg29
Nsg23
g30
stRp2949
ag3
(g4
g5
(dp2950
g15
S''
sg18
g33
sg19
S''
sg21
g22
sg20
S''
sg16
g33
sg29
Nsg23
g34
stRp2951
ag3
(g4
g5
(dp2952
g15
S''
sg18
g37
sg19
S''
sg21
g28
sg20
S''
sg16
g37
sg29
Nsg23
g38
stRp2953
ag3
(g4
g5
(dp2954
g15
S''
sg41
S'seq'
p2955
sg19
S''
sg43
S'Int'
p2956
sg20
S''
sg16
g2955
sg29
Nsg45
S'Sequence number: for ordering the protections table'
p2957
stRp2958
ag3
(g4
g5
(dp2959
g15
S''
sg41
S'isGroup'
p2960
sg19
S''
sg43
S'Int'
p2961
sg20
S''
sg16
g2960
sg29
Nsg45
S'Flag: 0 for a per-user setting, 1 for a per-group setting.'
p2962
stRp2963
ag3
(g4
g5
(dp2964
g15
S''
sg41
S'user'
p2965
sg19
S''
sg43
S'UserWild'
p2966
sg20
S''
sg16
g2965
sg29
Nsg45
S'User(s), or Group(s) for whom this record applies.'
p2967
stRp2968
ag3
(g4
g5
(dp2969
g15
S''
sg41
S'host'
p2970
sg19
S''
sg43
S'DomainWild'
p2971
sg20
S''
sg16
g2970
sg29
Nsg45
S'Domain(s) (IP addresses) for which this record applies.'
p2972
stRp2973
ag3
(g4
g5
(dp2974
g15
S''
sg41
S'perm'
p2975
sg19
S''
sg43
S'Perm'
p2976
sg20
S''
sg16
g2975
sg29
Nsg45
S'Permissions to be granted/revoked'
p2977
stRp2978
ag3
(g4
g5
(dp2979
g15
S''
sg41
S'mapFlag'
p2980
sg19
S''
sg43
S'MapFlag'
p2981
sg20
S''
sg16
g2980
sg29
Nsg45
S'Flag: Map the files in or out?'
p2982
stRp2983
ag3
(g4
g5
(dp2984
g15
S''
sg41
S'depotFile'
p2985
sg19
S''
sg43
S'Mapping'
p2986
sg20
S''
sg16
g2985
sg29
Nsg45
S'Files to be mapped in or out.'
p2987
stRp2988
atRp2989
sg69
g2941
sg41
S'db.protect'
p2990
sg71
S'4'
sg72
S'57'
p2991
sg73
g74
sg43
S'Protect'
p2992
sg45
S'The protections table'
p2993
stRp2994
sS'remote'
p2995
g3
(g4
g5
(dp2996
g7
S'id'
p2997
sg9
S'8'
sg10
g3
(g11
g12
(lp2998
g3
(g4
g5
(dp2999
g15
S''
sg16
g17
sg18
g17
sg19
S''
sg20
S''
sg21
g22
sg23
g24
stRp3000
ag3
(g4
g5
(dp3001
g15
S''
sg18
g27
sg19
S''
sg21
g28
sg20
S''
sg16
g27
sg29
Nsg23
g30
stRp3002
ag3
(g4
g5
(dp3003
g15
S''
sg18
g33
sg19
S''
sg21
g22
sg20
S''
sg16
g33
sg29
Nsg23
g34
stRp3004
ag3
(g4
g5
(dp3005
g15
S''
sg18
g37
sg19
S''
sg21
g28
sg20
S''
sg16
g37
sg29
Nsg23
g38
stRp3006
ag3
(g4
g5
(dp3007
g15
S''
sg41
S'id'
p3008
sg19
S''
sg43
S'RemoteID'
p3009
sg20
S''
sg16
g3008
sg29
Nsg45
S'The remote identifier'
p3010
stRp3011
ag3
(g4
g5
(dp3012
g15
S''
sg41
S'owner'
p3013
sg19
S''
sg43
S'User'
p3014
sg20
S''
sg16
g3013
sg29
Nsg45
S'The user who creatd this remote'
p3015
stRp3016
ag3
(g4
g5
(dp3017
g15
S''
sg41
S'options'
p3018
sg19
S''
sg43
S'Int'
p3019
sg20
S''
sg16
g3018
sg29
Nsg45
S'Remote options: 0: unlocked/nocompress, 1: locked/nocompress, 2: unlocked/compress, 4: locked/compress'
p3020
stRp3021
ag3
(g4
g5
(dp3022
g15
S''
sg41
S'address'
p3023
sg19
S''
sg43
S'Text'
p3024
sg20
S''
sg16
g3023
sg29
Nsg45
S'The P4PORT used by the remote server'
p3025
stRp3026
ag3
(g4
g5
(dp3027
g15
S''
sg41
S'desc'
p3028
sg19
S''
sg43
S'Text'
p3029
sg20
S''
sg16
g3028
sg29
Nsg45
S'Description of the remote server'
p3030
stRp3031
ag3
(g4
g5
(dp3032
g15
S''
sg41
S'update'
p3033
sg19
S''
sg43
S'Date'
p3034
sg20
S''
sg16
g3033
sg29
Nsg45
S'The date this specification was last modfied'
p3035
stRp3036
ag3
(g4
g5
(dp3037
g15
S''
sg41
S'access'
p3038
sg19
S''
sg43
S'Date'
p3039
sg20
S''
sg16
g3038
sg29
Nsg45
S'The date of the last push/fetch on this remote'
p3040
stRp3041
ag3
(g4
g5
(dp3042
g15
S''
sg41
S'fetch'
p3043
sg19
S''
sg43
S'Change'
p3044
sg20
S''
sg16
g3043
sg29
Nsg45
S'The last changelist that was fetched'
p3045
stRp3046
ag3
(g4
g5
(dp3047
g15
S''
sg41
S'push'
p3048
sg19
S''
sg43
S'Change'
p3049
sg20
S''
sg16
g3048
sg29
Nsg45
S'The last changelist that was pushed'
p3050
stRp3051
ag3
(g4
g5
(dp3052
g15
S''
sg41
S'rmtuser'
p3053
sg19
S''
sg43
S'User'
p3054
sg20
S''
sg16
g3053
sg29
Nsg45
S'The user to use when connecting to the remote server'
p3055
stRp3056
atRp3057
sg69
g2995
sg41
S'db.remote'
p3058
sg71
S'1'
sg72
S'8'
sg73
g74
sg43
S'Remote'
p3059
sg45
S'Remote specifications'
p3060
stRp3061
sS'uxtext'
p3062
g3
(g4
g5
(dp3063
g7
S'word, attr, value'
p3064
sg9
S'56'
p3065
sg10
g3
(g11
g12
(lp3066
g3
(g4
g5
(dp3067
g15
S''
sg16
g17
sg18
g17
sg19
S''
sg20
S''
sg21
g22
sg23
g24
stRp3068
ag3
(g4
g5
(dp3069
g15
S''
sg18
g27
sg19
S''
sg21
g28
sg20
S''
sg16
g27
sg29
Nsg23
g30
stRp3070
ag3
(g4
g5
(dp3071
g15
S''
sg18
g33
sg19
S''
sg21
g22
sg20
S''
sg16
g33
sg29
Nsg23
g34
stRp3072
ag3
(g4
g5
(dp3073
g15
S''
sg18
g37
sg19
S''
sg21
g28
sg20
S''
sg16
g37
sg29
Nsg23
g38
stRp3074
ag3
(g4
g5
(dp3075
g15
S''
sg41
g232
sg19
S''
sg43
g233
sg20
S''
sg16
g232
sg29
Nsg45
g234
stRp3076
ag3
(g4
g5
(dp3077
g15
S''
sg41
g237
sg19
S''
sg43
g238
sg20
S''
sg16
g237
sg29
Nsg45
g239
stRp3078
ag3
(g4
g5
(dp3079
g15
S''
sg41
g242
sg19
S''
sg43
g243
sg20
S''
sg16
g242
sg29
Nsg45
g244
stRp3080
atRp3081
sg69
g3062
sg41
S'db.uxtext'
p3082
sg71
S'0'
sg72
S'56'
p3083
sg73
g74
sg43
S'IndexText'
p3084
sg45
S'Indexing data for Swarm'
p3085
stRp3086
sS'stash'
p3087
g3
(g4
g5
(dp3088
g7
S'client, stream, type, seq'
p3089
sg9
S'10'
p3090
sg10
g3
(g11
g12
(lp3091
g3
(g4
g5
(dp3092
g15
S''
sg16
g17
sg18
g17
sg19
S''
sg20
S''
sg21
g22
sg23
g24
stRp3093
ag3
(g4
g5
(dp3094
g15
S''
sg18
g27
sg19
S''
sg21
g28
sg20
S''
sg16
g27
sg29
Nsg23
g30
stRp3095
ag3
(g4
g5
(dp3096
g15
S''
sg18
g33
sg19
S''
sg21
g22
sg20
S''
sg16
g33
sg29
Nsg23
g34
stRp3097
ag3
(g4
g5
(dp3098
g15
S''
sg18
g37
sg19
S''
sg21
g28
sg20
S''
sg16
g37
sg29
Nsg23
g38
stRp3099
ag3
(g4
g5
(dp3100
g15
S''
sg41
S'client'
p3101
sg19
S''
sg43
S'Domain'
p3102
sg20
S''
sg16
g3101
sg29
Nsg45
S'Client the stash refers to'
p3103
stRp3104
ag3
(g4
g5
(dp3105
g15
S''
sg41
S'stream'
p3106
sg19
S''
sg43
S'Domain'
p3107
sg20
S''
sg16
g3106
sg29
Nsg45
S'Stream the stash refers to'
p3108
stRp3109
ag3
(g4
g5
(dp3110
g15
S''
sg41
S'type'
p3111
sg19
S''
sg43
S'StashType'
p3112
sg20
S''
sg16
g3111
sg29
Nsg45
S'Stash type'
p3113
stRp3114
ag3
(g4
g5
(dp3115
g15
S''
sg41
S'seq'
p3116
sg19
S''
sg43
S'Int'
p3117
sg20
S''
sg16
g3116
sg29
Nsg45
S'Sequence number'
p3118
stRp3119
ag3
(g4
g5
(dp3120
g15
S''
sg41
S'change'
p3121
sg19
S''
sg43
S'Change'
p3122
sg20
S''
sg16
g3121
sg29
Nsg45
S'Stash change number'
p3123
stRp3124
atRp3125
sg69
g3087
sg41
S'db.stash'
p3126
sg71
S'0'
sg72
S'10'
p3127
sg73
g74
sg43
S'Stash'
p3128
sg45
S'Stash data'
p3129
stRp3130
sS'bodtext'
p3131
g3
(g4
g5
(dp3132
g7
S'key, attr'
p3133
sg9
S'54'
p3134
sg10
g3
(g11
g12
(lp3135
g3
(g4
g5
(dp3136
g15
S''
sg16
g17
sg18
g17
sg19
S''
sg20
S''
sg21
g22
sg23
g24
stRp3137
ag3
(g4
g5
(dp3138
g15
S''
sg18
g27
sg19
S''
sg21
g28
sg20
S''
sg16
g27
sg29
Nsg23
g30
stRp3139
ag3
(g4
g5
(dp3140
g15
S''
sg18
g33
sg19
S''
sg21
g22
sg20
S''
sg16
g33
sg29
Nsg23
g34
stRp3141
ag3
(g4
g5
(dp3142
g15
S''
sg18
g37
sg19
S''
sg21
g28
sg20
S''
sg16
g37
sg29
Nsg23
g38
stRp3143
ag3
(g4
g5
(dp3144
g15
S''
sg41
S'key'
p3145
sg19
S''
sg43
S'String'
p3146
sg20
S''
sg16
g3145
sg29
Nsg45
S'The job to which this attribute belongs'
p3147
stRp3148
ag3
(g4
g5
(dp3149
g15
S''
sg41
S'attr'
p3150
sg19
S''
sg43
S'Int'
p3151
sg20
S''
sg16
g3150
sg29
Nsg45
S'The attribute number (from the jobspec) of this attribute'
p3152
stRp3153
ag3
(g4
g5
(dp3154
g15
S''
sg41
S'isBulk'
p3155
sg19
S''
sg43
S'Int'
p3156
sg20
S''
sg16
g3155
sg29
Nsg45
S'Indicates whether (1), or not (0) the field is a bulk\n\t\t    text field that should not be indexed.'
p3157
stRp3158
ag3
(g4
g5
(dp3159
g15
S''
sg41
S'text'
p3160
sg19
S''
sg43
S'Text'
p3161
sg20
S''
sg16
g3160
sg29
Nsg45
S'The attribute value'
p3162
stRp3163
atRp3164
sg69
g3131
sg41
S'db.bodtext'
p3165
sg71
S'1'
sg72
S'54'
p3166
sg73
g74
sg43
S'BodyText'
p3167
sg45
S'Job data for job attributes'
p3168
stRp3169
sS'changex'
p3170
g3
(g4
g5
(dp3171
g7
S'change'
p3172
sg9
S'48'
p3173
sg10
g3
(g11
g12
(lp3174
g3
(g4
g5
(dp3175
g15
S''
sg16
g17
sg18
g17
sg19
S''
sg20
S''
sg21
g22
sg23
g24
stRp3176
ag3
(g4
g5
(dp3177
g15
S''
sg18
g27
sg19
S''
sg21
g28
sg20
S''
sg16
g27
sg29
Nsg23
g30
stRp3178
ag3
(g4
g5
(dp3179
g15
S''
sg18
g33
sg19
S''
sg21
g22
sg20
S''
sg16
g33
sg29
Nsg23
g34
stRp3180
ag3
(g4
g5
(dp3181
g15
S''
sg18
g37
sg19
S''
sg21
g28
sg20
S''
sg16
g37
sg29
Nsg23
g38
stRp3182
ag3
(g4
g5
(dp3183
g15
S''
sg41
g2850
sg19
S''
sg43
g2851
sg20
S''
sg16
g2850
sg29
Nsg45
g2852
stRp3184
ag3
(g4
g5
(dp3185
g15
S''
sg41
g2855
sg19
S''
sg43
g2856
sg20
S''
sg16
g2855
sg29
Nsg45
g2857
stRp3186
ag3
(g4
g5
(dp3187
g15
S''
sg41
g2860
sg19
S''
sg43
g2861
sg20
S''
sg16
g2860
sg29
Nsg45
g2862
stRp3188
ag3
(g4
g5
(dp3189
g15
S''
sg41
g2865
sg19
S''
sg43
g2866
sg20
S''
sg16
g2865
sg29
Nsg45
g2867
stRp3190
ag3
(g4
g5
(dp3191
g15
S''
sg41
g2870
sg19
S''
sg43
g2871
sg20
S''
sg16
g2870
sg29
Nsg45
g2872
stRp3192
ag3
(g4
g5
(dp3193
g15
S''
sg41
g2875
sg19
S''
sg43
g2876
sg20
S''
sg16
g2875
sg29
Nsg45
g2877
stRp3194
ag3
(g4
g5
(dp3195
g15
S''
sg41
g2880
sg19
S''
sg43
g2881
sg20
S''
sg16
g2880
sg29
Nsg45
g2882
stRp3196
ag3
(g4
g5
(dp3197
g15
S''
sg41
g2885
sg19
S''
sg43
g2886
sg20
S''
sg16
g2885
sg29
Nsg45
g2887
stRp3198
ag3
(g4
g5
(dp3199
g15
S''
sg41
g2890
sg19
S''
sg43
g2891
sg20
S''
sg16
g2890
sg29
Nsg45
g2892
stRp3200
ag3
(g4
g5
(dp3201
g15
S''
sg41
g2895
sg19
S''
sg43
g2896
sg20
S''
sg16
g2895
sg29
Nsg45
g2897
stRp3202
atRp3203
sg69
g3170
sg41
S'db.changex'
p3204
sg915
S'contains records for pending changelists only.'
p3205
sg71
S'3'
sg72
S'48'
p3206
sg73
g74
sg43
S'Change'
p3207
sg45
S'Subset of db.change - records for pending changelists only'
p3208
stRp3209
sS'viewrp'
p3210
g3
(g4
g5
(dp3211
g7
S'name seq'
p3212
sg9
S'19'
p3213
sg10
g3
(g11
g12
(lp3214
g3
(g4
g5
(dp3215
g15
S''
sg16
g17
sg18
g17
sg19
S''
sg20
S''
sg21
g22
sg23
g24
stRp3216
ag3
(g4
g5
(dp3217
g15
S''
sg18
g27
sg19
S''
sg21
g28
sg20
S''
sg16
g27
sg29
Nsg23
g30
stRp3218
ag3
(g4
g5
(dp3219
g15
S''
sg18
g33
sg19
S''
sg21
g22
sg20
S''
sg16
g33
sg29
Nsg23
g34
stRp3220
ag3
(g4
g5
(dp3221
g15
S''
sg18
g37
sg19
S''
sg21
g28
sg20
S''
sg16
g37
sg29
Nsg23
g38
stRp3222
ag3
(g4
g5
(dp3223
g15
S''
sg41
g1548
sg19
S''
sg43
g1549
sg20
S''
sg16
g1548
sg29
Nsg45
g1550
stRp3224
ag3
(g4
g5
(dp3225
g15
S''
sg41
g1553
sg19
S''
sg43
g1554
sg20
S''
sg16
g1553
sg29
Nsg45
g1555
stRp3226
ag3
(g4
g5
(dp3227
g15
S''
sg41
g1558
sg19
S''
sg43
g1559
sg20
S''
sg16
g1558
sg29
Nsg45
g1560
stRp3228
ag3
(g4
g5
(dp3229
g15
S''
sg41
g1563
sg19
S''
sg43
g1564
sg20
S''
sg16
g1563
sg29
Nsg45
g1565
stRp3230
ag3
(g4
g5
(dp3231
g15
S''
sg41
g1568
sg19
S''
sg43
g1569
sg20
S''
sg16
g1568
sg29
Nsg45
g1570
stRp3232
atRp3233
sg69
g3210
sg41
S'db.view.rp'
p3234
sg71
S'1'
sg72
S'19'
p3235
sg73
g74
sg43
S'View'
p3236
sg45
S'View data for clients of build-server replicas'
p3237
stRp3238
s.