(dp1
S'domain'
p2
ccopy_reg
_reconstructor
p3
(clib.sqUtils
Storage
p4
c__builtin__
dict
p5
(dp6
S'keying'
p7
S'name'
p8
sS'peek_lockseq'
p9
S'12'
p10
sS'fields'
p11
g3
(clib.sqUtils
Lst
p12
c__builtin__
list
p13
(lp14
g3
(g4
g5
(dp15
S'comment'
p16
S''
sS'fieldname'
p17
S'id'
p18
sS'name'
p19
g18
sS'default'
p20
S''
sS'label'
p21
S''
sS'type'
p22
S'integer'
p23
sS'desc'
p24
S'Record number as read in'
p25
stRp26
ag3
(g4
g5
(dp27
g16
S''
sg19
S'db_action'
p28
sg20
S''
sg22
S'string'
p29
sg21
S''
sg17
g28
sS'requires'
p30
Nsg24
S'Operation on table'
p31
stRp32
ag3
(g4
g5
(dp33
g16
S''
sg19
S'table_revision'
p34
sg20
S''
sg22
g23
sg21
S''
sg17
g34
sg30
Nsg24
S'Revision of the p4 schema table'
p35
stRp36
ag3
(g4
g5
(dp37
g16
S''
sg19
S'table_name'
p38
sg20
S''
sg22
g29
sg21
S''
sg17
g38
sg30
Nsg24
S'Redundant... but this is the table name'
p39
stRp40
ag3
(g4
g5
(dp41
g16
S''
sS'name'
p42
S'name'
p43
sg20
S''
sS'type'
p44
S'Domain'
p45
sg21
S''
sg17
g43
sg30
NsS'desc'
p46
S'Domain name'
p47
stRp48
ag3
(g4
g5
(dp49
g16
S''
sg42
S'type'
p50
sg20
S''
sg44
S'DomainType'
p51
sg21
S''
sg17
g50
sg30
Nsg46
S'Type of domain'
p52
stRp53
ag3
(g4
g5
(dp54
g16
S''
sg42
S'extra'
p55
sg20
S''
sg44
S'Text'
p56
sg21
S''
sg17
g55
sg30
Nsg46
S'Formerly "host". Associated host or, for labels, revision \n\t\t    number.'
p57
stRp58
ag3
(g4
g5
(dp59
g16
S''
sg42
S'mount'
p60
sg20
S''
sg44
S'Text'
p61
sg21
S''
sg17
g60
sg30
Nsg46
S'The client root'
p62
stRp63
ag3
(g4
g5
(dp64
g16
S''
sg42
S'mount2'
p65
sg20
S''
sg44
S'Text'
p66
sg21
S''
sg17
g65
sg30
Nsg46
S'Alternate client root'
p67
stRp68
ag3
(g4
g5
(dp69
g16
S''
sg42
S'mount3'
p70
sg20
S''
sg44
S'Text'
p71
sg21
S''
sg17
g70
sg30
Nsg46
S'Alternate client root'
p72
stRp73
ag3
(g4
g5
(dp74
g16
S''
sg42
S'owner'
p75
sg20
S''
sg44
S'User'
p76
sg21
S''
sg17
g75
sg30
Nsg46
S'Name of user who owns the domain.'
p77
stRp78
ag3
(g4
g5
(dp79
g16
S''
sg42
S'updateDate'
p80
sg20
S''
sg44
S'Date'
p81
sg21
S''
sg17
g80
sg30
Nsg46
S'Date of last update to domain specification.'
p82
stRp83
ag3
(g4
g5
(dp84
g16
S''
sg42
S'accessDate'
p85
sg20
S''
sg44
S'Date'
p86
sg21
S''
sg17
g85
sg30
Nsg46
S'Date of last access to domain specification.'
p87
stRp88
ag3
(g4
g5
(dp89
g16
S''
sg42
S'options'
p90
sg20
S''
sg44
S'DomainOpts'
p91
sg21
S''
sg17
g90
sg30
Nsg46
S'Options for client, label, and branch domains.'
p92
stRp93
ag3
(g4
g5
(dp94
g16
S''
sg42
S'description'
p95
sg20
S''
sg44
S'Text'
p96
sg21
S''
sg17
g95
sg30
Nsg46
S'Description of domain.'
p97
stRp98
ag3
(g4
g5
(dp99
g16
S''
sg42
S'stream'
p100
sg20
S''
sg44
S'Text'
p101
sg21
S''
sg17
g100
sg30
Nsg46
S'Associated stream for client records'
p102
stRp103
ag3
(g4
g5
(dp104
g16
S''
sg42
S'serverid'
p105
sg20
S''
sg44
S'Text'
p106
sg21
S''
sg17
g105
sg30
Nsg46
S'Associated server ID for client records'
p107
stRp108
ag3
(g4
g5
(dp109
g16
S''
sg42
S'partition'
p110
sg20
S''
sg44
S'Int'
p111
sg21
S''
sg17
g110
sg30
Nsg46
S'Currently unused. Reserved for future use'
p112
stRp113
atRp114
sS'tablename'
p115
g2
sg42
S'db.domain'
p116
sS'version'
p117
S'6'
sS'classic_lockseq'
p118
S'12'
p119
sS'schemaversion'
p120
S'2013.3'
p121
sg44
S'Domain'
p122
sg46
S'Domains: depots, clients, labels, branches, streams, and typemap'
p123
stRp124
sS'revtx'
p125
g3
(g4
g5
(dp126
g7
S'depotFile, depotRev'
p127
sg9
S'34'
p128
sg11
g3
(g12
g13
(lp129
g3
(g4
g5
(dp130
g16
S''
sg17
g18
sg19
g18
sg20
S''
sg21
S''
sg22
g23
sg24
g25
stRp131
ag3
(g4
g5
(dp132
g16
S''
sg19
g28
sg20
S''
sg22
g29
sg21
S''
sg17
g28
sg30
Nsg24
g31
stRp133
ag3
(g4
g5
(dp134
g16
S''
sg19
g34
sg20
S''
sg22
g23
sg21
S''
sg17
g34
sg30
Nsg24
g35
stRp135
ag3
(g4
g5
(dp136
g16
S''
sg19
g38
sg20
S''
sg22
g29
sg21
S''
sg17
g38
sg30
Nsg24
g39
stRp137
ag3
(g4
g5
(dp138
g16
S''
sg42
S'depotFile'
p139
sg20
S''
sg44
S'File'
p140
sg21
S''
sg17
g139
sg30
Nsg46
S'The file name'
p141
stRp142
ag3
(g4
g5
(dp143
g16
S''
sg42
S'depotRev'
p144
sg20
S''
sg44
S'Rev'
p145
sg21
S''
sg17
g144
sg30
Nsg46
S'The revision number'
p146
stRp147
ag3
(g4
g5
(dp148
g16
S''
sg42
S'type'
p149
sg20
S''
sg44
S'FileType'
p150
sg21
S''
sg17
g149
sg30
Nsg46
S'The file type of the revision'
p151
stRp152
ag3
(g4
g5
(dp153
g16
S''
sg42
S'action'
p154
sg20
S''
sg44
S'Action'
p155
sg21
S''
sg17
g154
sg30
Nsg46
S'The action that created the revision'
p156
stRp157
ag3
(g4
g5
(dp158
g16
S''
sg42
S'change'
p159
sg20
S''
sg44
S'Change'
p160
sg21
S''
sg17
g159
sg30
Nsg46
S'The changelist that created the revision'
p161
stRp162
ag3
(g4
g5
(dp163
g16
S''
sg42
S'date'
p164
sg20
S''
sg44
S'Date'
p165
sg21
S''
sg17
g164
sg30
Nsg46
S'The date/time the changelist that created the revision\n\t\t    was submitted'
p166
stRp167
ag3
(g4
g5
(dp168
g16
S''
sg42
S'modTime'
p169
sg20
S''
sg44
S'Date'
p170
sg21
S''
sg17
g169
sg30
Nsg46
S"The timestamp on the file in the user's workspace when\n\t\t    the revision was submitted."
p171
stRp172
ag3
(g4
g5
(dp173
g16
S''
sg42
S'digest'
p174
sg20
S''
sg44
S'Digest'
p175
sg21
S''
sg17
g174
sg30
Nsg46
S'The MD5 digest of the revision.'
p176
stRp177
ag3
(g4
g5
(dp178
g16
S''
sg42
S'size'
p179
sg20
S''
sg44
S'FileSize'
p180
sg21
S''
sg17
g179
sg30
Nsg46
S'The size of the file in bytes'
p181
stRp182
ag3
(g4
g5
(dp183
g16
S''
sg42
S'traitLot'
p184
sg20
S''
sg44
S'TraitLot'
p185
sg21
S''
sg17
g184
sg30
Nsg46
S'Group of traits (attributes) associated with the revision.'
p186
stRp187
ag3
(g4
g5
(dp188
g16
S''
sg42
S'lbrIsLazy'
p189
sg20
S''
sg44
S'RevStatus'
p190
sg21
S''
sg17
g189
sg30
Nsg46
S'Specifies whether or not the revision gets its content from \n\t  \t    another file (lazy copy), data about promotion of revision\n\t \t    content from task streams, and data about revision charset \n            information.'
p191
stRp192
ag3
(g4
g5
(dp193
g16
S''
sg42
S'lbrFile'
p194
sg20
S''
sg44
S'File'
p195
sg21
S''
sg17
g194
sg30
Nsg46
S"Filename for librarian's purposes.  Specifies location in \n\t\t    the archives where the file containing the revision may\n\t\t    be found. Usually the same as depotFile, but differs in\n\t\t    the case of branched/copied revisions."
p196
stRp197
ag3
(g4
g5
(dp198
g16
S''
sg42
S'lbrRev'
p199
sg20
S''
sg44
S'String'
p200
sg21
S''
sg17
g199
sg30
Nsg46
S'The revision of lbrFile that contains the revision content.'
p201
stRp202
ag3
(g4
g5
(dp203
g16
S''
sg42
S'lbrType'
p204
sg20
S''
sg44
S'FileType'
p205
sg21
S''
sg17
g204
sg30
Nsg46
S'The file type of the librarian revision. Usually the same\n\t\t    as type, but differs in the case of branched/copied \n\t\t    revisions.'
p206
stRp207
atRp208
sg115
g125
sg42
S'db.revtx'
p209
sg117
S'9'
sg118
S'28'
p210
sg120
g121
sg44
S'Rev'
p211
sg46
S'Temporary revision records'
p212
stRp213
sS'stream'
p214
g3
(g4
g5
(dp215
g7
S'stream'
p216
sg9
S'11'
p217
sg11
g3
(g12
g13
(lp218
g3
(g4
g5
(dp219
g16
S''
sg17
g18
sg19
g18
sg20
S''
sg21
S''
sg22
g23
sg24
g25
stRp220
ag3
(g4
g5
(dp221
g16
S''
sg19
g28
sg20
S''
sg22
g29
sg21
S''
sg17
g28
sg30
Nsg24
g31
stRp222
ag3
(g4
g5
(dp223
g16
S''
sg19
g34
sg20
S''
sg22
g23
sg21
S''
sg17
g34
sg30
Nsg24
g35
stRp224
ag3
(g4
g5
(dp225
g16
S''
sg19
g38
sg20
S''
sg22
g29
sg21
S''
sg17
g38
sg30
Nsg24
g39
stRp226
ag3
(g4
g5
(dp227
g16
S''
sg42
S'stream'
p228
sg20
S''
sg44
S'Domain'
p229
sg21
S''
sg17
g228
sg30
Nsg46
S'Stream name'
p230
stRp231
ag3
(g4
g5
(dp232
g16
S''
sg42
S'parent'
p233
sg20
S''
sg44
S'Domain'
p234
sg21
S''
sg17
g233
sg30
Nsg46
S'Parent stream name'
p235
stRp236
ag3
(g4
g5
(dp237
g16
S''
sg42
S'title'
p238
sg20
S''
sg44
S'Text'
p239
sg21
S''
sg17
g238
sg30
Nsg46
S'Stream title (alias for the stream name)'
p240
stRp241
ag3
(g4
g5
(dp242
g16
S''
sg42
S'type'
p243
sg20
S''
sg44
S'StreamType'
p244
sg21
S''
sg17
g243
sg30
Nsg46
S'The type of stream'
p245
stRp246
ag3
(g4
g5
(dp247
g16
S''
sg42
S'preview'
p248
sg20
S''
sg44
S'Date'
p249
sg21
S''
sg17
g248
sg30
Nsg46
S'Stream template modification time'
p250
stRp251
ag3
(g4
g5
(dp252
g16
S''
sg42
S'change'
p253
sg20
S''
sg44
S'Change'
p254
sg21
S''
sg17
g253
sg30
Nsg46
S'Last submit to stream'
p255
stRp256
ag3
(g4
g5
(dp257
g16
S''
sg42
S'copychg'
p258
sg20
S''
sg44
S'Change'
p259
sg21
S''
sg17
g258
sg30
Nsg46
S'Parent change at last copy'
p260
stRp261
ag3
(g4
g5
(dp262
g16
S''
sg42
S'mergechg'
p263
sg20
S''
sg44
S'Change'
p264
sg21
S''
sg17
g263
sg30
Nsg46
S'Parent change at last merge'
p265
stRp266
ag3
(g4
g5
(dp267
g16
S''
sg42
S'highchg'
p268
sg20
S''
sg44
S'Change'
p269
sg21
S''
sg17
g268
sg30
Nsg46
S'Highest change at last merge'
p270
stRp271
ag3
(g4
g5
(dp272
g16
S''
sg42
S'hash'
p273
sg20
S''
sg44
S'Int'
p274
sg21
S''
sg17
g273
sg30
Nsg46
S'Hash value of dynamic branch'
p275
stRp276
ag3
(g4
g5
(dp277
g16
S''
sg42
S'status'
p278
sg20
S''
sg44
S'StreamStatus'
p279
sg21
S''
sg17
g278
sg30
Nsg46
S'Flow status'
p280
stRp281
atRp282
sg115
g214
sg42
S'db.stream'
p283
sg117
S'1'
sg118
S'11'
p284
sg120
g121
sg44
S'Stream'
p285
sg46
S'Perforce streams'
p286
stRp287
sS'svrview'
p288
g3
(g4
g5
(dp289
g7
S'id, type, seq'
p290
sg9
S'6'
sg11
g3
(g12
g13
(lp291
g3
(g4
g5
(dp292
g16
S''
sg17
g18
sg19
g18
sg20
S''
sg21
S''
sg22
g23
sg24
g25
stRp293
ag3
(g4
g5
(dp294
g16
S''
sg19
g28
sg20
S''
sg22
g29
sg21
S''
sg17
g28
sg30
Nsg24
g31
stRp295
ag3
(g4
g5
(dp296
g16
S''
sg19
g34
sg20
S''
sg22
g23
sg21
S''
sg17
g34
sg30
Nsg24
g35
stRp297
ag3
(g4
g5
(dp298
g16
S''
sg19
g38
sg20
S''
sg22
g29
sg21
S''
sg17
g38
sg30
Nsg24
g39
stRp299
ag3
(g4
g5
(dp300
g16
S''
sg42
S'id'
p301
sg20
S''
sg44
S'Text'
p302
sg21
S''
sg17
g301
sg30
Nsg46
S'Server name'
p303
stRp304
ag3
(g4
g5
(dp305
g16
S''
sg42
S'type'
p306
sg20
S''
sg44
S'SvrViewType'
p307
sg21
S''
sg17
g306
sg30
Nsg46
S'View type'
p308
stRp309
ag3
(g4
g5
(dp310
g16
S''
sg42
S'seq'
p311
sg20
S''
sg44
S'Int'
p312
sg21
S''
sg17
g311
sg30
Nsg46
S'Sequence (line) number'
p313
stRp314
ag3
(g4
g5
(dp315
g16
S''
sg42
S'mapFlag'
p316
sg20
S''
sg44
S'MapFlag'
p317
sg21
S''
sg17
g316
sg30
Nsg46
S'Type of mapping'
p318
stRp319
ag3
(g4
g5
(dp320
g16
S''
sg42
S'viewFile'
p321
sg20
S''
sg44
S'Mapping'
p322
sg21
S''
sg17
g321
sg30
Nsg46
S'View file'
p323
stRp324
atRp325
sg115
g288
sg42
S'db.svrview'
p326
sg117
S'0'
sg118
S'6'
sg120
g121
sg44
S'SvrView'
p327
sg46
S'View data for servers specifications'
p328
stRp329
sS'revpx'
p330
g3
(g4
g5
(dp331
g7
S'depotFile, depotRev'
p332
sg9
S'27'
p333
sg11
g3
(g12
g13
(lp334
g3
(g4
g5
(dp335
g16
S''
sg17
g18
sg19
g18
sg20
S''
sg21
S''
sg22
g23
sg24
g25
stRp336
ag3
(g4
g5
(dp337
g16
S''
sg19
g28
sg20
S''
sg22
g29
sg21
S''
sg17
g28
sg30
Nsg24
g31
stRp338
ag3
(g4
g5
(dp339
g16
S''
sg19
g34
sg20
S''
sg22
g23
sg21
S''
sg17
g34
sg30
Nsg24
g35
stRp340
ag3
(g4
g5
(dp341
g16
S''
sg19
g38
sg20
S''
sg22
g29
sg21
S''
sg17
g38
sg30
Nsg24
g39
stRp342
ag3
(g4
g5
(dp343
g16
S''
sg42
g139
sg20
S''
sg44
g140
sg21
S''
sg17
g139
sg30
Nsg46
g141
stRp344
ag3
(g4
g5
(dp345
g16
S''
sg42
g144
sg20
S''
sg44
g145
sg21
S''
sg17
g144
sg30
Nsg46
g146
stRp346
ag3
(g4
g5
(dp347
g16
S''
sg42
g149
sg20
S''
sg44
g150
sg21
S''
sg17
g149
sg30
Nsg46
g151
stRp348
ag3
(g4
g5
(dp349
g16
S''
sg42
g154
sg20
S''
sg44
g155
sg21
S''
sg17
g154
sg30
Nsg46
g156
stRp350
ag3
(g4
g5
(dp351
g16
S''
sg42
g159
sg20
S''
sg44
g160
sg21
S''
sg17
g159
sg30
Nsg46
g161
stRp352
ag3
(g4
g5
(dp353
g16
S''
sg42
g164
sg20
S''
sg44
g165
sg21
S''
sg17
g164
sg30
Nsg46
g166
stRp354
ag3
(g4
g5
(dp355
g16
S''
sg42
g169
sg20
S''
sg44
g170
sg21
S''
sg17
g169
sg30
Nsg46
g171
stRp356
ag3
(g4
g5
(dp357
g16
S''
sg42
g174
sg20
S''
sg44
g175
sg21
S''
sg17
g174
sg30
Nsg46
g176
stRp358
ag3
(g4
g5
(dp359
g16
S''
sg42
g179
sg20
S''
sg44
g180
sg21
S''
sg17
g179
sg30
Nsg46
g181
stRp360
ag3
(g4
g5
(dp361
g16
S''
sg42
g184
sg20
S''
sg44
g185
sg21
S''
sg17
g184
sg30
Nsg46
g186
stRp362
ag3
(g4
g5
(dp363
g16
S''
sg42
g189
sg20
S''
sg44
g190
sg21
S''
sg17
g189
sg30
Nsg46
g191
stRp364
ag3
(g4
g5
(dp365
g16
S''
sg42
g194
sg20
S''
sg44
g195
sg21
S''
sg17
g194
sg30
Nsg46
g196
stRp366
ag3
(g4
g5
(dp367
g16
S''
sg42
g199
sg20
S''
sg44
g200
sg21
S''
sg17
g199
sg30
Nsg46
g201
stRp368
ag3
(g4
g5
(dp369
g16
S''
sg42
g204
sg20
S''
sg44
g205
sg21
S''
sg17
g204
sg30
Nsg46
g206
stRp370
atRp371
sg115
g330
sg42
S'db.revpx'
p372
sS'note'
p373
S'Only populated during content trigger execution to allow \n\t\ttriggers access to the revisions being submitted.'
p374
sg117
S'9'
sg118
S'32'
p375
sg120
g121
sg44
S'Rev'
p376
sg46
S'Pending revision records'
p377
stRp378
sS'traits'
p379
g3
(g4
g5
(dp380
g7
S'traitLot, name'
p381
sg9
S'39'
p382
sg11
g3
(g12
g13
(lp383
g3
(g4
g5
(dp384
g16
S''
sg17
g18
sg19
g18
sg20
S''
sg21
S''
sg22
g23
sg24
g25
stRp385
ag3
(g4
g5
(dp386
g16
S''
sg19
g28
sg20
S''
sg22
g29
sg21
S''
sg17
g28
sg30
Nsg24
g31
stRp387
ag3
(g4
g5
(dp388
g16
S''
sg19
g34
sg20
S''
sg22
g23
sg21
S''
sg17
g34
sg30
Nsg24
g35
stRp389
ag3
(g4
g5
(dp390
g16
S''
sg19
g38
sg20
S''
sg22
g29
sg21
S''
sg17
g38
sg30
Nsg24
g39
stRp391
ag3
(g4
g5
(dp392
g16
S''
sg42
S'traitLot'
p393
sg20
S''
sg44
S'Int'
p394
sg21
S''
sg17
g393
sg30
Nsg46
S'Indicates a specific collection of traits (referred to \n\t\t    externally as "attributes".)'
p395
stRp396
ag3
(g4
g5
(dp397
g16
S''
sg42
S'name'
p398
sg20
S''
sg44
S'String'
p399
sg21
S''
sg17
g398
sg30
Nsg46
S'Trait (attribute) name'
p400
stRp401
ag3
(g4
g5
(dp402
g16
S''
sg42
S'type'
p403
sg20
S''
sg44
S'TraitType'
p404
sg21
S''
sg17
g403
sg30
Nsg46
S'Type of trait'
p405
stRp406
ag3
(g4
g5
(dp407
g16
S''
sg42
S'value'
p408
sg20
S''
sg44
S'Octet String'
p409
sg21
S''
sg17
g408
sg30
Nsg46
S'The value'
p410
stRp411
atRp412
sg115
g379
sg42
S'db.traits'
p413
sg117
S'0'
sg118
S'39'
p414
sg120
g121
sg44
S'Trait'
p415
sg46
S'Attributes associated with file revisions'
p416
stRp417
sS'have'
p418
g3
(g4
g5
(dp419
g7
S'clientFile'
p420
sg9
S'19'
p421
sg11
g3
(g12
g13
(lp422
g3
(g4
g5
(dp423
g16
S''
sg17
g18
sg19
g18
sg20
S''
sg21
S''
sg22
g23
sg24
g25
stRp424
ag3
(g4
g5
(dp425
g16
S''
sg19
g28
sg20
S''
sg22
g29
sg21
S''
sg17
g28
sg30
Nsg24
g31
stRp426
ag3
(g4
g5
(dp427
g16
S''
sg19
g34
sg20
S''
sg22
g23
sg21
S''
sg17
g34
sg30
Nsg24
g35
stRp428
ag3
(g4
g5
(dp429
g16
S''
sg19
g38
sg20
S''
sg22
g29
sg21
S''
sg17
g38
sg30
Nsg24
g39
stRp430
ag3
(g4
g5
(dp431
g16
S''
sg42
S'clientFile'
p432
sg20
S''
sg44
S'File'
p433
sg21
S''
sg17
g432
sg30
Nsg46
S'The file in its location on the client'
p434
stRp435
ag3
(g4
g5
(dp436
g16
S''
sg42
S'depotFile'
p437
sg20
S''
sg44
S'File'
p438
sg21
S''
sg17
g437
sg30
Nsg46
S'The file in the depot'
p439
stRp440
ag3
(g4
g5
(dp441
g16
S''
sg42
S'haveRev'
p442
sg20
S''
sg44
S'Rev'
p443
sg21
S''
sg17
g442
sg30
Nsg46
S'The revision synced to the client'
p444
stRp445
ag3
(g4
g5
(dp446
g16
S''
sg42
S'type'
p447
sg20
S''
sg44
S'FileType'
p448
sg21
S''
sg17
g447
sg30
Nsg46
S'The filetype of the synced revision'
p449
stRp450
atRp451
sg115
g418
sg42
S'db.have'
p452
sg117
S'2'
sg118
S'22'
p453
sg120
g121
sg44
S'Have'
p454
sg46
S"Contains the 'have-list' for all clients"
p455
stRp456
sS'viewrp'
p457
g3
(g4
g5
(dp458
g7
S'name seq'
p459
sg9
S'14'
p460
sg11
g3
(g12
g13
(lp461
g3
(g4
g5
(dp462
g16
S''
sg17
g18
sg19
g18
sg20
S''
sg21
S''
sg22
g23
sg24
g25
stRp463
ag3
(g4
g5
(dp464
g16
S''
sg19
g28
sg20
S''
sg22
g29
sg21
S''
sg17
g28
sg30
Nsg24
g31
stRp465
ag3
(g4
g5
(dp466
g16
S''
sg19
g34
sg20
S''
sg22
g23
sg21
S''
sg17
g34
sg30
Nsg24
g35
stRp467
ag3
(g4
g5
(dp468
g16
S''
sg19
g38
sg20
S''
sg22
g29
sg21
S''
sg17
g38
sg30
Nsg24
g39
stRp469
ag3
(g4
g5
(dp470
g16
S''
sg42
S'name'
p471
sg20
S''
sg44
S'Domain'
p472
sg21
S''
sg17
g471
sg30
Nsg46
S'Domain name to which this view applies'
p473
stRp474
ag3
(g4
g5
(dp475
g16
S''
sg42
S'seq'
p476
sg20
S''
sg44
S'Int'
p477
sg21
S''
sg17
g476
sg30
Nsg46
S'Sequence number: for ordering multi-line views'
p478
stRp479
ag3
(g4
g5
(dp480
g16
S''
sg42
S'mapFlag'
p481
sg20
S''
sg44
S'MapFlag'
p482
sg21
S''
sg17
g481
sg30
Nsg46
S'Type of mapping'
p483
stRp484
ag3
(g4
g5
(dp485
g16
S''
sg42
S'viewFile'
p486
sg20
S''
sg44
S'Mapping'
p487
sg21
S''
sg17
g486
sg30
Nsg46
S"The right-hand-side of the view. For clients, this is\n\t\t    the client-side, for labels it's the generated label \n\t\t    view. For branches, it's the target side of the branch\n\t\t    view."
p488
stRp489
ag3
(g4
g5
(dp490
g16
S''
sg42
S'depotFile'
p491
sg20
S''
sg44
S'Mapping'
p492
sg21
S''
sg17
g491
sg30
Nsg46
S'The left-hand-side of the view - a mapping to file(s)\n\t\t    in the depot.'
p493
stRp494
atRp495
sg115
g457
sg42
S'db.view.rp'
p496
sg117
S'1'
sg118
S'14'
p497
sg120
g121
sg44
S'View'
p498
sg46
S'Contains views for clients of build-server replicas'
p499
stRp500
sS'ixtext'
p501
g3
(g4
g5
(dp502
g7
S'word, attr, value'
p503
sg9
S'48'
p504
sg11
g3
(g12
g13
(lp505
g3
(g4
g5
(dp506
g16
S''
sg17
g18
sg19
g18
sg20
S''
sg21
S''
sg22
g23
sg24
g25
stRp507
ag3
(g4
g5
(dp508
g16
S''
sg19
g28
sg20
S''
sg22
g29
sg21
S''
sg17
g28
sg30
Nsg24
g31
stRp509
ag3
(g4
g5
(dp510
g16
S''
sg19
g34
sg20
S''
sg22
g23
sg21
S''
sg17
g34
sg30
Nsg24
g35
stRp511
ag3
(g4
g5
(dp512
g16
S''
sg19
g38
sg20
S''
sg22
g29
sg21
S''
sg17
g38
sg30
Nsg24
g39
stRp513
ag3
(g4
g5
(dp514
g16
S''
sg42
S'word'
p515
sg20
S''
sg44
S'String'
p516
sg21
S''
sg17
g515
sg30
Nsg46
S'The word being indexed'
p517
stRp518
ag3
(g4
g5
(dp519
g16
S''
sg42
S'attr'
p520
sg20
S''
sg44
S'Int'
p521
sg21
S''
sg17
g520
sg30
Nsg46
S'The attribute number (from the jobspec) to which this\n\t\t    word belongs'
p522
stRp523
ag3
(g4
g5
(dp524
g16
S''
sg42
S'value'
p525
sg20
S''
sg44
S'String'
p526
sg21
S''
sg17
g525
sg30
Nsg46
S'A job name'
p527
stRp528
atRp529
sg115
g501
sg42
S'db.ixtext'
p530
sg117
S'0'
sg118
S'48'
p531
sg120
g121
sg44
S'IndexText'
p532
sg46
S'Indexing data for job attributes'
p533
stRp534
sS'message'
p535
g3
(g4
g5
(dp536
g7
S'language, id'
p537
sg9
S'51'
p538
sg11
g3
(g12
g13
(lp539
g3
(g4
g5
(dp540
g16
S''
sg17
g18
sg19
g18
sg20
S''
sg21
S''
sg22
g23
sg24
g25
stRp541
ag3
(g4
g5
(dp542
g16
S''
sg19
g28
sg20
S''
sg22
g29
sg21
S''
sg17
g28
sg30
Nsg24
g31
stRp543
ag3
(g4
g5
(dp544
g16
S''
sg19
g34
sg20
S''
sg22
g23
sg21
S''
sg17
g34
sg30
Nsg24
g35
stRp545
ag3
(g4
g5
(dp546
g16
S''
sg19
g38
sg20
S''
sg22
g29
sg21
S''
sg17
g38
sg30
Nsg24
g39
stRp547
ag3
(g4
g5
(dp548
g16
S''
sg42
S'language'
p549
sg20
S''
sg44
S'String'
p550
sg21
S''
sg17
g549
sg30
Nsg46
S'The language for which this message applies'
p551
stRp552
ag3
(g4
g5
(dp553
g16
S''
sg42
S'id'
p554
sg20
S''
sg44
S'Int'
p555
sg21
S''
sg17
g554
sg30
Nsg46
S'The message number'
p556
stRp557
ag3
(g4
g5
(dp558
g16
S''
sg42
S'message'
p559
sg20
S''
sg44
S'String'
p560
sg21
S''
sg17
g559
sg30
Nsg46
S'The message text'
p561
stRp562
atRp563
sg115
g535
sg42
S'db.message'
p564
sg117
S'0'
sg118
S'51'
p565
sg120
g121
sg44
S'Message'
p566
sg46
S'System messages'
p567
stRp568
sS'rdblbr'
p569
g3
(g4
g5
(dp570
g42
S'rdb.lbr'
p571
sg115
g569
sg11
g3
(g12
g13
(lp572
g3
(g4
g5
(dp573
g16
S''
sg17
g18
sg19
g18
sg20
S''
sg21
S''
sg22
g23
sg24
g25
stRp574
ag3
(g4
g5
(dp575
g16
S''
sg19
g28
sg20
S''
sg22
g29
sg21
S''
sg17
g28
sg30
Nsg24
g31
stRp576
ag3
(g4
g5
(dp577
g16
S''
sg19
g34
sg20
S''
sg22
g23
sg21
S''
sg17
g34
sg30
Nsg24
g35
stRp578
ag3
(g4
g5
(dp579
g16
S''
sg19
g38
sg20
S''
sg22
g29
sg21
S''
sg17
g38
sg30
Nsg24
g39
stRp580
ag3
(g4
g5
(dp581
g16
S''
sg42
S'depotFile'
p582
sg20
S''
sg44
S'File'
p583
sg21
S''
sg17
g582
sg30
Nsg46
S'The file name'
p584
stRp585
ag3
(g4
g5
(dp586
g16
S''
sg42
S'lbrRev'
p587
sg20
S''
sg44
S'String'
p588
sg21
S''
sg17
g587
sg30
Nsg46
S'The librarian revision'
p589
stRp590
ag3
(g4
g5
(dp591
g16
S''
sg42
S'type'
p592
sg20
S''
sg44
S'String'
p593
sg21
S''
sg17
g592
sg30
Nsg46
S'The file type of the revision'
p594
stRp595
ag3
(g4
g5
(dp596
g16
S''
sg42
S'status'
p597
sg20
S''
sg44
S'PullStatus'
p598
sg21
S''
sg17
g597
sg30
Nsg46
S'The status of the archive transfer'
p599
stRp600
ag3
(g4
g5
(dp601
g16
S''
sg42
S'action'
p602
sg20
S''
sg44
S'Action'
p603
sg21
S''
sg17
g602
sg30
Nsg46
S'The action that created the revision'
p604
stRp605
ag3
(g4
g5
(dp606
g16
S''
sg42
S'digest'
p607
sg20
S''
sg44
S'Digest'
p608
sg21
S''
sg17
g607
sg30
Nsg46
S'The MD5 digest of the revision'
p609
stRp610
ag3
(g4
g5
(dp611
g16
S''
sg42
S'size'
p612
sg20
S''
sg44
S'FileSize'
p613
sg21
S''
sg17
g612
sg30
Nsg46
S'The size of the file in bytes'
p614
stRp615
ag3
(g4
g5
(dp616
g16
S''
sg42
S'change'
p617
sg20
S''
sg44
S'Change'
p618
sg21
S''
sg17
g617
sg30
Nsg46
S'The changelist that created the revision'
p619
stRp620
ag3
(g4
g5
(dp621
g16
S''
sg42
S'lbrDate'
p622
sg20
S''
sg44
S'Date'
p623
sg21
S''
sg17
g622
sg30
Nsg46
S'Librarian date'
p624
stRp625
ag3
(g4
g5
(dp626
g16
S''
sg42
S'lbrModTime'
p627
sg20
S''
sg44
S'Date'
p628
sg21
S''
sg17
g627
sg30
Nsg46
S'Librarian modtime'
p629
stRp630
ag3
(g4
g5
(dp631
g16
S''
sg42
S'pid'
p632
sg20
S''
sg44
S'Int'
p633
sg21
S''
sg17
g632
sg30
Nsg46
S'The process id (PID) of the pull process'
p634
stRp635
ag3
(g4
g5
(dp636
g16
S''
sg42
S'requestTime'
p637
sg20
S''
sg44
S'Date'
p638
sg21
S''
sg17
g637
sg30
Nsg46
S'Pull request time'
p639
stRp640
ag3
(g4
g5
(dp641
g16
S''
sg42
S'retries'
p642
sg20
S''
sg44
S'Int'
p643
sg21
S''
sg17
g642
sg30
Nsg46
S'The number of retries that have occurred after transfer error'
p644
stRp645
ag3
(g4
g5
(dp646
g16
S''
sg42
S'transferError'
p647
sg20
S''
sg44
S'String'
p648
sg21
S''
sg17
g647
sg30
Nsg46
S'The error message for a failed transfer'
p649
stRp650
atRp651
sg120
g121
sg44
S'ReplicaArchiveTransfer'
p652
sg46
S'Replica server pending archive transfer table'
p653
stRp654
sS'bodtext'
p655
g3
(g4
g5
(dp656
g7
S'key, attr'
p657
sg9
S'47'
p658
sg11
g3
(g12
g13
(lp659
g3
(g4
g5
(dp660
g16
S''
sg17
g18
sg19
g18
sg20
S''
sg21
S''
sg22
g23
sg24
g25
stRp661
ag3
(g4
g5
(dp662
g16
S''
sg19
g28
sg20
S''
sg22
g29
sg21
S''
sg17
g28
sg30
Nsg24
g31
stRp663
ag3
(g4
g5
(dp664
g16
S''
sg19
g34
sg20
S''
sg22
g23
sg21
S''
sg17
g34
sg30
Nsg24
g35
stRp665
ag3
(g4
g5
(dp666
g16
S''
sg19
g38
sg20
S''
sg22
g29
sg21
S''
sg17
g38
sg30
Nsg24
g39
stRp667
ag3
(g4
g5
(dp668
g16
S''
sg42
S'key'
p669
sg20
S''
sg44
S'String'
p670
sg21
S''
sg17
g669
sg30
Nsg46
S'The job to which this attribute belongs'
p671
stRp672
ag3
(g4
g5
(dp673
g16
S''
sg42
S'attr'
p674
sg20
S''
sg44
S'Int'
p675
sg21
S''
sg17
g674
sg30
Nsg46
S'The attribute number (from the jobspec) of this attribute'
p676
stRp677
ag3
(g4
g5
(dp678
g16
S''
sg42
S'isBulk'
p679
sg20
S''
sg44
S'Int'
p680
sg21
S''
sg17
g679
sg30
Nsg46
S'Indicates whether (1), or not (0) the field is a bulk\n\t\t    text field that should not be indexed.'
p681
stRp682
ag3
(g4
g5
(dp683
g16
S''
sg42
S'text'
p684
sg20
S''
sg44
S'Text'
p685
sg21
S''
sg17
g684
sg30
Nsg46
S'The attribute value'
p686
stRp687
atRp688
sg115
g655
sg42
S'db.bodtext'
p689
sg117
S'1'
sg118
S'47'
p690
sg120
g121
sg44
S'BodyText'
p691
sg46
S'Job data for job attributes'
p692
stRp693
sS'group'
p694
g3
(g4
g5
(dp695
g7
S'user, group'
p696
sg9
S'9'
sg11
g3
(g12
g13
(lp697
g3
(g4
g5
(dp698
g16
S''
sg17
g18
sg19
g18
sg20
S''
sg21
S''
sg22
g23
sg24
g25
stRp699
ag3
(g4
g5
(dp700
g16
S''
sg19
g28
sg20
S''
sg22
g29
sg21
S''
sg17
g28
sg30
Nsg24
g31
stRp701
ag3
(g4
g5
(dp702
g16
S''
sg19
g34
sg20
S''
sg22
g23
sg21
S''
sg17
g34
sg30
Nsg24
g35
stRp703
ag3
(g4
g5
(dp704
g16
S''
sg19
g38
sg20
S''
sg22
g29
sg21
S''
sg17
g38
sg30
Nsg24
g39
stRp705
ag3
(g4
g5
(dp706
g16
S''
sg42
S'user'
p707
sg20
S''
sg44
S'User'
p708
sg21
S''
sg17
g707
sg30
Nsg46
S'User name'
p709
stRp710
ag3
(g4
g5
(dp711
g16
S''
sg42
S'group'
p712
sg20
S''
sg44
S'User'
p713
sg21
S''
sg17
g712
sg30
Nsg46
S'Group name'
p714
stRp715
ag3
(g4
g5
(dp716
g16
S''
sg42
S'type'
p717
sg20
S''
sg44
S'UserType'
p718
sg21
S''
sg17
g717
sg30
Nsg46
S'Type of user in this group.'
p719
stRp720
ag3
(g4
g5
(dp721
g16
S''
sg42
S'maxResults'
p722
sg20
S''
sg44
S'MaxResults'
p723
sg21
S''
sg17
g722
sg30
Nsg46
S'MaxResults setting for the group.'
p724
stRp725
ag3
(g4
g5
(dp726
g16
S''
sg42
S'maxScanRows'
p727
sg20
S''
sg44
S'MaxScanRows'
p728
sg21
S''
sg17
g727
sg30
Nsg46
S'MaxScanRows setting for the group.'
p729
stRp730
ag3
(g4
g5
(dp731
g16
S''
sg42
S'maxLockTime'
p732
sg20
S''
sg44
S'MaxLockTime'
p733
sg21
S''
sg17
g732
sg30
Nsg46
S'MaxLockTime setting for the group.'
p734
stRp735
ag3
(g4
g5
(dp736
g16
S''
sg42
S'timeout'
p737
sg20
S''
sg44
S'Int'
p738
sg21
S''
sg17
g737
sg30
Nsg46
S'Length of time (in seconds) a login ticket remains valid.'
p739
stRp740
ag3
(g4
g5
(dp741
g16
S''
sg42
S'passwordTimeout'
p742
sg20
S''
sg44
S'Int'
p743
sg21
S''
sg17
g742
sg30
Nsg46
S'Length of time (in seconds) a password remains valid for users in the group.'
p744
stRp745
atRp746
sg115
g694
sg42
S'db.group'
p747
sg117
S'8'
sg118
S'9'
sg120
g121
sg44
S'Group'
p748
sg46
S'Groups of Perforce users'
p749
stRp750
sS'monitor'
p751
g3
(g4
g5
(dp752
g7
S'id'
p753
sg9
S'52'
p754
sg11
g3
(g12
g13
(lp755
g3
(g4
g5
(dp756
g16
S''
sg17
g18
sg19
g18
sg20
S''
sg21
S''
sg22
g23
sg24
g25
stRp757
ag3
(g4
g5
(dp758
g16
S''
sg19
g28
sg20
S''
sg22
g29
sg21
S''
sg17
g28
sg30
Nsg24
g31
stRp759
ag3
(g4
g5
(dp760
g16
S''
sg19
g34
sg20
S''
sg22
g23
sg21
S''
sg17
g34
sg30
Nsg24
g35
stRp761
ag3
(g4
g5
(dp762
g16
S''
sg19
g38
sg20
S''
sg22
g29
sg21
S''
sg17
g38
sg30
Nsg24
g39
stRp763
ag3
(g4
g5
(dp764
g16
S''
sg42
S'id'
p765
sg20
S''
sg44
S'Int'
p766
sg21
S''
sg17
g765
sg30
Nsg46
S'Thread/process id'
p767
stRp768
ag3
(g4
g5
(dp769
g16
S''
sg42
S'user'
p770
sg20
S''
sg44
S'User'
p771
sg21
S''
sg17
g770
sg30
Nsg46
S'Username of the user running the command'
p772
stRp773
ag3
(g4
g5
(dp774
g16
S''
sg42
S'function'
p775
sg20
S''
sg44
S'String'
p776
sg21
S''
sg17
g775
sg30
Nsg46
S'The command being executed.'
p777
stRp778
ag3
(g4
g5
(dp779
g16
S''
sg42
S'args'
p780
sg20
S''
sg44
S'String'
p781
sg21
S''
sg17
g780
sg30
Nsg46
S'Arguments passed to the command'
p782
stRp783
ag3
(g4
g5
(dp784
g16
S''
sg42
S'startDate'
p785
sg20
S''
sg44
S'Date'
p786
sg21
S''
sg17
g785
sg30
Nsg46
S'The date and time the command started'
p787
stRp788
ag3
(g4
g5
(dp789
g16
S''
sg42
S'runstate'
p790
sg20
S''
sg44
S'Int'
p791
sg21
S''
sg17
g790
sg30
Nsg46
S'Flag: 0 for running, 1 for terminated, 2 for paused'
p792
stRp793
ag3
(g4
g5
(dp794
g16
S''
sg42
S'client'
p795
sg20
S''
sg44
S'Domain'
p796
sg21
S''
sg17
g795
sg30
Nsg46
S'The client workspace'
p797
stRp798
ag3
(g4
g5
(dp799
g16
S''
sg42
S'host'
p800
sg20
S''
sg44
S'Text'
p801
sg21
S''
sg17
g800
sg30
Nsg46
S'The IP address of the client'
p802
stRp803
ag3
(g4
g5
(dp804
g16
S''
sg42
S'prog'
p805
sg20
S''
sg44
S'Text'
p806
sg21
S''
sg17
g805
sg30
Nsg46
S'The name (and version) of the client program'
p807
stRp808
atRp809
sg115
g751
sg42
S'db.monitor'
p810
sg117
S'1'
sg118
S'52'
p811
sg120
g121
sg44
S'Monitor'
p812
sg46
S'Perforce process information'
p813
stRp814
sS'working'
p815
g3
(g4
g5
(dp816
g7
S'clientFile'
p817
sg9
S'36'
p818
sg11
g3
(g12
g13
(lp819
g3
(g4
g5
(dp820
g16
S''
sg17
g18
sg19
g18
sg20
S''
sg21
S''
sg22
g23
sg24
g25
stRp821
ag3
(g4
g5
(dp822
g16
S''
sg19
g28
sg20
S''
sg22
g29
sg21
S''
sg17
g28
sg30
Nsg24
g31
stRp823
ag3
(g4
g5
(dp824
g16
S''
sg19
g34
sg20
S''
sg22
g23
sg21
S''
sg17
g34
sg30
Nsg24
g35
stRp825
ag3
(g4
g5
(dp826
g16
S''
sg19
g38
sg20
S''
sg22
g29
sg21
S''
sg17
g38
sg30
Nsg24
g39
stRp827
ag3
(g4
g5
(dp828
g16
S''
sg42
S'clientFile'
p829
sg20
S''
sg44
S'File'
p830
sg21
S''
sg17
g829
sg30
Nsg46
S'File on the client'
p831
stRp832
ag3
(g4
g5
(dp833
g16
S''
sg42
S'depotFile'
p834
sg20
S''
sg44
S'File'
p835
sg21
S''
sg17
g834
sg30
Nsg46
S'File in the depot'
p836
stRp837
ag3
(g4
g5
(dp838
g16
S''
sg42
S'client'
p839
sg20
S''
sg44
S'Domain'
p840
sg21
S''
sg17
g839
sg30
Nsg46
S'The client the file is opened on'
p841
stRp842
ag3
(g4
g5
(dp843
g16
S''
sg42
S'user'
p844
sg20
S''
sg44
S'User'
p845
sg21
S''
sg17
g844
sg30
Nsg46
S'The user who has the file opened'
p846
stRp847
ag3
(g4
g5
(dp848
g16
S''
sg42
S'haveRev'
p849
sg20
S''
sg44
S'Rev'
p850
sg21
S''
sg17
g849
sg30
Nsg46
S"Revision presently in user's client workspace.  This is \n\t\t    normally identical to workRev except for the case in which \n\t\t    you've tried to submit a file where you no longer have the \n\t\t    head revision. Perforce schedules the integrate (moves \n\t\t    workRev to headRev, but doesn't change the haveRev, so that \n\t\t    a p4 revert will return the file originally checked-out \n\t\t    instead of the new head revision."
p851
stRp852
ag3
(g4
g5
(dp853
g16
S''
sg42
S'workRev'
p854
sg20
S''
sg44
S'Rev'
p855
sg21
S''
sg17
g854
sg30
Nsg46
S'Working revision; this is identical to the haveRev except \n\t\t    in the case described above.'
p856
stRp857
ag3
(g4
g5
(dp858
g16
S''
sg42
S'isVirtual'
p859
sg20
S''
sg44
S'Int'
p860
sg21
S''
sg17
g859
sg30
Nsg46
S'Flag: if 1, file was opened with "p4 integ -v".'
p861
stRp862
ag3
(g4
g5
(dp863
g16
S''
sg42
S'type'
p864
sg20
S''
sg44
S'FileType'
p865
sg21
S''
sg17
g864
sg30
Nsg46
S'File type'
p866
stRp867
ag3
(g4
g5
(dp868
g16
S''
sg42
S'action'
p869
sg20
S''
sg44
S'Action'
p870
sg21
S''
sg17
g869
sg30
Nsg46
S"What the user's doing with the file"
p871
stRp872
ag3
(g4
g5
(dp873
g16
S''
sg42
S'change'
p874
sg20
S''
sg44
S'Change'
p875
sg21
S''
sg17
g874
sg30
Nsg46
S'Associated changelist, or zero for the default changelist.'
p876
stRp877
ag3
(g4
g5
(dp878
g16
S''
sg42
S'modTime'
p879
sg20
S''
sg44
S'Date'
p880
sg21
S''
sg17
g879
sg30
Nsg46
S"Modification timestamp on the file in the user's workspace."
p881
stRp882
ag3
(g4
g5
(dp883
g16
S''
sg42
S'isLocked'
p884
sg20
S''
sg44
S'Int'
p885
sg21
S''
sg17
g884
sg30
Nsg46
S'Flag: 0 for unlocked, 1 for locked.'
p886
stRp887
ag3
(g4
g5
(dp888
g16
S''
sg42
S'digest'
p889
sg20
S''
sg44
S'Digest'
p890
sg21
S''
sg17
g889
sg30
Nsg46
S'MD5 digest of working file.'
p891
stRp892
ag3
(g4
g5
(dp893
g16
S''
sg42
S'size'
p894
sg20
S''
sg44
S'Int64'
p895
sg21
S''
sg17
g894
sg30
Nsg46
S'File size'
p896
stRp897
ag3
(g4
g5
(dp898
g16
S''
sg42
S'traitLot'
p899
sg20
S''
sg44
S'Int'
p900
sg21
S''
sg17
g899
sg30
Nsg46
S'Group of traits associated with file revision.'
p901
stRp902
ag3
(g4
g5
(dp903
g16
S''
sg42
S'tampered'
p904
sg20
S''
sg44
S'TamperCheck'
p905
sg21
S''
sg17
g904
sg30
Nsg46
S'Flag indicating the tamper-state of the file in the\n\t\t    workspace.'
p906
stRp907
ag3
(g4
g5
(dp908
g16
S''
sg42
S'clntType'
p909
sg20
S''
sg44
S'FileType'
p910
sg21
S''
sg17
g909
sg30
Nsg46
S'Type of the file in the client workspace.'
p911
stRp912
ag3
(g4
g5
(dp913
g16
S''
sg42
S'mFile'
p914
sg20
S''
sg44
S'File'
p915
sg21
S''
sg17
g914
sg30
Nsg46
S'Moved filename'
p916
stRp917
ag3
(g4
g5
(dp918
g16
S''
sg42
S'status'
p919
sg20
S''
sg44
S'Int'
p920
sg21
S''
sg17
g919
sg30
Nsg46
S'Working status'
p921
stRp922
atRp923
sg115
g815
sg42
S'db.working'
p924
sg117
S'10'
p925
sg118
S'37'
p926
sg120
g121
sg44
S'Working'
p927
sg46
S'Records for work in progress'
p928
stRp929
sS'fix'
p930
g3
(g4
g5
(dp931
g7
S'job, change'
p932
sg9
S'45'
p933
sg11
g3
(g12
g13
(lp934
g3
(g4
g5
(dp935
g16
S''
sg17
g18
sg19
g18
sg20
S''
sg21
S''
sg22
g23
sg24
g25
stRp936
ag3
(g4
g5
(dp937
g16
S''
sg19
g28
sg20
S''
sg22
g29
sg21
S''
sg17
g28
sg30
Nsg24
g31
stRp938
ag3
(g4
g5
(dp939
g16
S''
sg19
g34
sg20
S''
sg22
g23
sg21
S''
sg17
g34
sg30
Nsg24
g35
stRp940
ag3
(g4
g5
(dp941
g16
S''
sg19
g38
sg20
S''
sg22
g29
sg21
S''
sg17
g38
sg30
Nsg24
g39
stRp942
ag3
(g4
g5
(dp943
g16
S''
sg42
S'job'
p944
sg20
S''
sg44
S'String'
p945
sg21
S''
sg17
g944
sg30
Nsg46
S'Job name'
p946
stRp947
ag3
(g4
g5
(dp948
g16
S''
sg42
S'change'
p949
sg20
S''
sg44
S'Change'
p950
sg21
S''
sg17
g949
sg30
Nsg46
S'Changelist number'
p951
stRp952
ag3
(g4
g5
(dp953
g16
S''
sg42
S'date'
p954
sg20
S''
sg44
S'Date'
p955
sg21
S''
sg17
g954
sg30
Nsg46
S'Date fix was recorded (may differ from date change was\n\t\t    submitted).'
p956
stRp957
ag3
(g4
g5
(dp958
g16
S''
sg42
S'status'
p959
sg20
S''
sg44
S'FixStatus'
p960
sg21
S''
sg17
g959
sg30
Nsg46
S'Status of the job'
p961
stRp962
ag3
(g4
g5
(dp963
g16
S''
sg42
S'client'
p964
sg20
S''
sg44
S'Domain'
p965
sg21
S''
sg17
g964
sg30
Nsg46
S'The client where the fix originated'
p966
stRp967
ag3
(g4
g5
(dp968
g16
S''
sg42
S'user'
p969
sg20
S''
sg44
S'User'
p970
sg21
S''
sg17
g969
sg30
Nsg46
S'The user who fixed the job'
p971
stRp972
atRp973
sg115
g930
sg42
S'db.fix'
p974
sg117
S'1'
sg118
S'45'
p975
sg120
g121
sg46
S'Fix records - indexed by job'
p976
sg44
S'Fix'
p977
sS'seeAlso'
p978
S'db.fixrev'
p979
stRp980
sS'archmap'
p981
g3
(g4
g5
(dp982
g7
S'lbrFile, depotFile'
p983
sg9
S'24'
p984
sg11
g3
(g12
g13
(lp985
g3
(g4
g5
(dp986
g16
S''
sg17
g18
sg19
g18
sg20
S''
sg21
S''
sg22
g23
sg24
g25
stRp987
ag3
(g4
g5
(dp988
g16
S''
sg19
g28
sg20
S''
sg22
g29
sg21
S''
sg17
g28
sg30
Nsg24
g31
stRp989
ag3
(g4
g5
(dp990
g16
S''
sg19
g34
sg20
S''
sg22
g23
sg21
S''
sg17
g34
sg30
Nsg24
g35
stRp991
ag3
(g4
g5
(dp992
g16
S''
sg19
g38
sg20
S''
sg22
g29
sg21
S''
sg17
g38
sg30
Nsg24
g39
stRp993
ag3
(g4
g5
(dp994
g16
S''
sg42
S'lbrFile'
p995
sg20
S''
sg44
S'File'
p996
sg21
S''
sg17
g995
sg30
Nsg46
S'Paths in the librarian namespace that recieve lazy\n\t\t    copies.'
p997
stRp998
ag3
(g4
g5
(dp999
g16
S''
sg42
S'depotFile'
p1000
sg20
S''
sg44
S'File'
p1001
sg21
S''
sg17
g1000
sg30
Nsg46
S'Paths in the depot namespace that provide lazy copies.'
p1002
stRp1003
atRp1004
sg115
g981
sg42
S'db.archmap'
p1005
sg373
S'Supercedes db.archive'
p1006
sg117
S'0'
sg118
S'26'
p1007
sg120
g121
sg44
S'ArchMap'
p1008
sg46
S'Mappings entries for lazy-copies'
p1009
stRp1010
sS'rev'
p1011
g3
(g4
g5
(dp1012
g7
S'depotFile, depotRev'
p1013
sg9
S'33'
p1014
sg11
g3
(g12
g13
(lp1015
g3
(g4
g5
(dp1016
g16
S''
sg17
g18
sg19
g18
sg20
S''
sg21
S''
sg22
g23
sg24
g25
stRp1017
ag3
(g4
g5
(dp1018
g16
S''
sg19
g28
sg20
S''
sg22
g29
sg21
S''
sg17
g28
sg30
Nsg24
g31
stRp1019
ag3
(g4
g5
(dp1020
g16
S''
sg19
g34
sg20
S''
sg22
g23
sg21
S''
sg17
g34
sg30
Nsg24
g35
stRp1021
ag3
(g4
g5
(dp1022
g16
S''
sg19
g38
sg20
S''
sg22
g29
sg21
S''
sg17
g38
sg30
Nsg24
g39
stRp1023
ag3
(g4
g5
(dp1024
g16
S''
sg42
g139
sg20
S''
sg44
g140
sg21
S''
sg17
g139
sg30
Nsg46
g141
stRp1025
ag3
(g4
g5
(dp1026
g16
S''
sg42
g144
sg20
S''
sg44
g145
sg21
S''
sg17
g144
sg30
Nsg46
g146
stRp1027
ag3
(g4
g5
(dp1028
g16
S''
sg42
g149
sg20
S''
sg44
g150
sg21
S''
sg17
g149
sg30
Nsg46
g151
stRp1029
ag3
(g4
g5
(dp1030
g16
S''
sg42
g154
sg20
S''
sg44
g155
sg21
S''
sg17
g154
sg30
Nsg46
g156
stRp1031
ag3
(g4
g5
(dp1032
g16
S''
sg42
g159
sg20
S''
sg44
g160
sg21
S''
sg17
g159
sg30
Nsg46
g161
stRp1033
ag3
(g4
g5
(dp1034
g16
S''
sg42
g164
sg20
S''
sg44
g165
sg21
S''
sg17
g164
sg30
Nsg46
g166
stRp1035
ag3
(g4
g5
(dp1036
g16
S''
sg42
g169
sg20
S''
sg44
g170
sg21
S''
sg17
g169
sg30
Nsg46
g171
stRp1037
ag3
(g4
g5
(dp1038
g16
S''
sg42
g174
sg20
S''
sg44
g175
sg21
S''
sg17
g174
sg30
Nsg46
g176
stRp1039
ag3
(g4
g5
(dp1040
g16
S''
sg42
g179
sg20
S''
sg44
g180
sg21
S''
sg17
g179
sg30
Nsg46
g181
stRp1041
ag3
(g4
g5
(dp1042
g16
S''
sg42
g184
sg20
S''
sg44
g185
sg21
S''
sg17
g184
sg30
Nsg46
g186
stRp1043
ag3
(g4
g5
(dp1044
g16
S''
sg42
g189
sg20
S''
sg44
g190
sg21
S''
sg17
g189
sg30
Nsg46
g191
stRp1045
ag3
(g4
g5
(dp1046
g16
S''
sg42
g194
sg20
S''
sg44
g195
sg21
S''
sg17
g194
sg30
Nsg46
g196
stRp1047
ag3
(g4
g5
(dp1048
g16
S''
sg42
g199
sg20
S''
sg44
g200
sg21
S''
sg17
g199
sg30
Nsg46
g201
stRp1049
ag3
(g4
g5
(dp1050
g16
S''
sg42
g204
sg20
S''
sg44
g205
sg21
S''
sg17
g204
sg30
Nsg46
g206
stRp1051
atRp1052
sg115
g1011
sg42
S'db.rev'
p1053
sg117
S'9'
sg118
S'27'
p1054
sg120
g121
sg44
S'Rev'
p1055
sg46
S'Revision records'
p1056
stRp1057
sS'tiny'
p1058
g3
(g4
g5
(dp1059
g7
S'fileAndRev'
p1060
sg115
g1058
sg11
g3
(g12
g13
(lp1061
g3
(g4
g5
(dp1062
g16
S''
sg17
g18
sg19
g18
sg20
S''
sg21
S''
sg22
g23
sg24
g25
stRp1063
ag3
(g4
g5
(dp1064
g16
S''
sg19
g28
sg20
S''
sg22
g29
sg21
S''
sg17
g28
sg30
Nsg24
g31
stRp1065
ag3
(g4
g5
(dp1066
g16
S''
sg19
g34
sg20
S''
sg22
g23
sg21
S''
sg17
g34
sg30
Nsg24
g35
stRp1067
ag3
(g4
g5
(dp1068
g16
S''
sg19
g38
sg20
S''
sg22
g29
sg21
S''
sg17
g38
sg30
Nsg24
g39
stRp1069
ag3
(g4
g5
(dp1070
g16
S''
sg42
S'fileAndRev'
p1071
sg20
S''
sg44
S'String'
p1072
sg21
S''
sg17
g1071
sg30
Nsg46
S'The file name and revision'
p1073
stRp1074
ag3
(g4
g5
(dp1075
g16
S''
sg42
S'fileContent'
p1076
sg20
S''
sg44
S'Octet String'
p1077
sg21
S''
sg17
g1076
sg30
Nsg46
S'The (encoded) file content'
p1078
stRp1079
atRp1080
sg120
g121
sg46
S'Records revision and content data for files using the +T file type modifier'
p1081
sg44
S'TinyDb'
p1082
sg42
S'tiny.db'
p1083
stRp1084
sS'label'
p1085
g3
(g4
g5
(dp1086
g7
S'name, depotFile'
p1087
sg9
S'17'
p1088
sg11
g3
(g12
g13
(lp1089
g3
(g4
g5
(dp1090
g16
S''
sg17
g18
sg19
g18
sg20
S''
sg21
S''
sg22
g23
sg24
g25
stRp1091
ag3
(g4
g5
(dp1092
g16
S''
sg19
g28
sg20
S''
sg22
g29
sg21
S''
sg17
g28
sg30
Nsg24
g31
stRp1093
ag3
(g4
g5
(dp1094
g16
S''
sg19
g34
sg20
S''
sg22
g23
sg21
S''
sg17
g34
sg30
Nsg24
g35
stRp1095
ag3
(g4
g5
(dp1096
g16
S''
sg19
g38
sg20
S''
sg22
g29
sg21
S''
sg17
g38
sg30
Nsg24
g39
stRp1097
ag3
(g4
g5
(dp1098
g16
S''
sg42
S'name'
p1099
sg20
S''
sg44
S'Domain'
p1100
sg21
S''
sg17
g1099
sg30
Nsg46
S'Name of the label'
p1101
stRp1102
ag3
(g4
g5
(dp1103
g16
S''
sg42
S'depotFile'
p1104
sg20
S''
sg44
S'File'
p1105
sg21
S''
sg17
g1104
sg30
Nsg46
S'File name'
p1106
stRp1107
ag3
(g4
g5
(dp1108
g16
S''
sg42
S'haveRev'
p1109
sg20
S''
sg44
S'Rev'
p1110
sg21
S''
sg17
g1109
sg30
Nsg46
S'The revision of the file in the label'
p1111
stRp1112
atRp1113
sg115
g1085
sg42
S'db.label'
p1114
sg117
S'0'
sg118
S'23'
p1115
sg120
g121
sg44
S'Label'
p1116
sg46
S'Lists the revisions of files in labels'
p1117
stRp1118
sS'revbx'
p1119
g3
(g4
g5
(dp1120
g7
S'depotFile, depotRev'
p1121
sg9
S'30'
p1122
sg11
g3
(g12
g13
(lp1123
g3
(g4
g5
(dp1124
g16
S''
sg17
g18
sg19
g18
sg20
S''
sg21
S''
sg22
g23
sg24
g25
stRp1125
ag3
(g4
g5
(dp1126
g16
S''
sg19
g28
sg20
S''
sg22
g29
sg21
S''
sg17
g28
sg30
Nsg24
g31
stRp1127
ag3
(g4
g5
(dp1128
g16
S''
sg19
g34
sg20
S''
sg22
g23
sg21
S''
sg17
g34
sg30
Nsg24
g35
stRp1129
ag3
(g4
g5
(dp1130
g16
S''
sg19
g38
sg20
S''
sg22
g29
sg21
S''
sg17
g38
sg30
Nsg24
g39
stRp1131
ag3
(g4
g5
(dp1132
g16
S''
sg42
g139
sg20
S''
sg44
g140
sg21
S''
sg17
g139
sg30
Nsg46
g141
stRp1133
ag3
(g4
g5
(dp1134
g16
S''
sg42
g144
sg20
S''
sg44
g145
sg21
S''
sg17
g144
sg30
Nsg46
g146
stRp1135
ag3
(g4
g5
(dp1136
g16
S''
sg42
g149
sg20
S''
sg44
g150
sg21
S''
sg17
g149
sg30
Nsg46
g151
stRp1137
ag3
(g4
g5
(dp1138
g16
S''
sg42
g154
sg20
S''
sg44
g155
sg21
S''
sg17
g154
sg30
Nsg46
g156
stRp1139
ag3
(g4
g5
(dp1140
g16
S''
sg42
g159
sg20
S''
sg44
g160
sg21
S''
sg17
g159
sg30
Nsg46
g161
stRp1141
ag3
(g4
g5
(dp1142
g16
S''
sg42
g164
sg20
S''
sg44
g165
sg21
S''
sg17
g164
sg30
Nsg46
g166
stRp1143
ag3
(g4
g5
(dp1144
g16
S''
sg42
g169
sg20
S''
sg44
g170
sg21
S''
sg17
g169
sg30
Nsg46
g171
stRp1145
ag3
(g4
g5
(dp1146
g16
S''
sg42
g174
sg20
S''
sg44
g175
sg21
S''
sg17
g174
sg30
Nsg46
g176
stRp1147
ag3
(g4
g5
(dp1148
g16
S''
sg42
g179
sg20
S''
sg44
g180
sg21
S''
sg17
g179
sg30
Nsg46
g181
stRp1149
ag3
(g4
g5
(dp1150
g16
S''
sg42
g184
sg20
S''
sg44
g185
sg21
S''
sg17
g184
sg30
Nsg46
g186
stRp1151
ag3
(g4
g5
(dp1152
g16
S''
sg42
g189
sg20
S''
sg44
g190
sg21
S''
sg17
g189
sg30
Nsg46
g191
stRp1153
ag3
(g4
g5
(dp1154
g16
S''
sg42
g194
sg20
S''
sg44
g195
sg21
S''
sg17
g194
sg30
Nsg46
g196
stRp1155
ag3
(g4
g5
(dp1156
g16
S''
sg42
g199
sg20
S''
sg44
g200
sg21
S''
sg17
g199
sg30
Nsg46
g201
stRp1157
ag3
(g4
g5
(dp1158
g16
S''
sg42
g204
sg20
S''
sg44
g205
sg21
S''
sg17
g204
sg30
Nsg46
g206
stRp1159
atRp1160
sg115
g1119
sg42
S'db.revbx'
p1161
sg117
S'9'
sg118
S'35'
p1162
sg120
g121
sg44
S'Rev'
p1163
sg46
S'Revision records for archived files'
p1164
stRp1165
sS'nameval'
p1166
g3
(g4
g5
(dp1167
g7
S'name'
p1168
sg9
S'3'
sg11
g3
(g12
g13
(lp1169
g3
(g4
g5
(dp1170
g16
S''
sg17
g18
sg19
g18
sg20
S''
sg21
S''
sg22
g23
sg24
g25
stRp1171
ag3
(g4
g5
(dp1172
g16
S''
sg19
g28
sg20
S''
sg22
g29
sg21
S''
sg17
g28
sg30
Nsg24
g31
stRp1173
ag3
(g4
g5
(dp1174
g16
S''
sg19
g34
sg20
S''
sg22
g23
sg21
S''
sg17
g34
sg30
Nsg24
g35
stRp1175
ag3
(g4
g5
(dp1176
g16
S''
sg19
g38
sg20
S''
sg22
g29
sg21
S''
sg17
g38
sg30
Nsg24
g39
stRp1177
ag3
(g4
g5
(dp1178
g16
S''
sg42
S'name'
p1179
sg20
S''
sg44
S'Key'
p1180
sg21
S''
sg17
g1179
sg30
Nsg46
S'Key name'
p1181
stRp1182
ag3
(g4
g5
(dp1183
g16
S''
sg42
S'value'
p1184
sg20
S''
sg44
S'Value'
p1185
sg21
S''
sg17
g1184
sg30
Nsg46
S'Key value'
p1186
stRp1187
atRp1188
sg115
g1166
sg42
S'db.nameval'
p1189
sg117
S'1'
sg118
S'3'
sg120
g121
sg44
S'Keys'
p1190
sg46
S'A table to store key/value pairs'
p1191
stRp1192
sS'trigger'
p1193
g3
(g4
g5
(dp1194
g7
S'seq'
p1195
sg9
S'40'
p1196
sg11
g3
(g12
g13
(lp1197
g3
(g4
g5
(dp1198
g16
S''
sg17
g18
sg19
g18
sg20
S''
sg21
S''
sg22
g23
sg24
g25
stRp1199
ag3
(g4
g5
(dp1200
g16
S''
sg19
g28
sg20
S''
sg22
g29
sg21
S''
sg17
g28
sg30
Nsg24
g31
stRp1201
ag3
(g4
g5
(dp1202
g16
S''
sg19
g34
sg20
S''
sg22
g23
sg21
S''
sg17
g34
sg30
Nsg24
g35
stRp1203
ag3
(g4
g5
(dp1204
g16
S''
sg19
g38
sg20
S''
sg22
g29
sg21
S''
sg17
g38
sg30
Nsg24
g39
stRp1205
ag3
(g4
g5
(dp1206
g16
S''
sg42
S'seq'
p1207
sg20
S''
sg44
S'Int'
p1208
sg21
S''
sg17
g1207
sg30
Nsg46
S'Sequence number: for ordering the trigger list'
p1209
stRp1210
ag3
(g4
g5
(dp1211
g16
S''
sg42
S'name'
p1212
sg20
S''
sg44
S'String'
p1213
sg21
S''
sg17
g1212
sg30
Nsg46
S'Name of the trigger'
p1214
stRp1215
ag3
(g4
g5
(dp1216
g16
S''
sg42
S'mapFlag'
p1217
sg20
S''
sg44
S'MapFlag'
p1218
sg21
S''
sg17
g1217
sg30
Nsg46
S'Type of mapping: specifies whether the trigger applies \n\t\t    to the files or not.'
p1219
stRp1220
ag3
(g4
g5
(dp1221
g16
S''
sg42
S'depotFile'
p1222
sg20
S''
sg44
S'Mapping'
p1223
sg21
S''
sg17
g1222
sg30
Nsg46
S'The files to apply the trigger to'
p1224
stRp1225
ag3
(g4
g5
(dp1226
g16
S''
sg42
S'trigger'
p1227
sg20
S''
sg44
S'Trigger'
p1228
sg21
S''
sg17
g1227
sg30
Nsg46
S'Type of trigger'
p1229
stRp1230
ag3
(g4
g5
(dp1231
g16
S''
sg42
S'action'
p1232
sg20
S''
sg44
S'Text'
p1233
sg21
S''
sg17
g1232
sg30
Nsg46
S'Command to execute when trigger runs'
p1234
stRp1235
atRp1236
sg115
g1193
sg42
S'db.trigger'
p1237
sg117
S'2'
sg118
S'40'
p1238
sg120
g121
sg44
S'Trigger'
p1239
sg46
S'Trigger specifications'
p1240
stRp1241
sS'template'
p1242
g3
(g4
g5
(dp1243
g7
S'name, change, sequence'
p1244
sg9
S'13'
p1245
sg11
g3
(g12
g13
(lp1246
g3
(g4
g5
(dp1247
g16
S''
sg17
g18
sg19
g18
sg20
S''
sg21
S''
sg22
g23
sg24
g25
stRp1248
ag3
(g4
g5
(dp1249
g16
S''
sg19
g28
sg20
S''
sg22
g29
sg21
S''
sg17
g28
sg30
Nsg24
g31
stRp1250
ag3
(g4
g5
(dp1251
g16
S''
sg19
g34
sg20
S''
sg22
g23
sg21
S''
sg17
g34
sg30
Nsg24
g35
stRp1252
ag3
(g4
g5
(dp1253
g16
S''
sg19
g38
sg20
S''
sg22
g29
sg21
S''
sg17
g38
sg30
Nsg24
g39
stRp1254
ag3
(g4
g5
(dp1255
g16
S''
sg42
S'name'
p1256
sg20
S''
sg44
S'Domain'
p1257
sg21
S''
sg17
g1256
sg30
Nsg46
S'Stream name'
p1258
stRp1259
ag3
(g4
g5
(dp1260
g16
S''
sg42
S'change'
p1261
sg20
S''
sg44
S'Change'
p1262
sg21
S''
sg17
g1261
sg30
Nsg46
S'Versioned at change'
p1263
stRp1264
ag3
(g4
g5
(dp1265
g16
S''
sg42
S'seq'
p1266
sg20
S''
sg44
S'Int'
p1267
sg21
S''
sg17
g1266
sg30
Nsg46
S'Sequence (line) number'
p1268
stRp1269
ag3
(g4
g5
(dp1270
g16
S''
sg42
S'parent'
p1271
sg20
S''
sg44
S'Domain'
p1272
sg21
S''
sg17
g1271
sg30
Nsg46
S'Parent stream name'
p1273
stRp1274
ag3
(g4
g5
(dp1275
g16
S''
sg42
S'type'
p1276
sg20
S''
sg44
S'StreamType'
p1277
sg21
S''
sg17
g1276
sg30
Nsg46
S'Type of stream'
p1278
stRp1279
ag3
(g4
g5
(dp1280
g16
S''
sg42
S'path'
p1281
sg20
S''
sg44
S'StreamPathType'
p1282
sg21
S''
sg17
g1281
sg30
Nsg46
S'Stream path type'
p1283
stRp1284
ag3
(g4
g5
(dp1285
g16
S''
sg42
S'viewFile'
p1286
sg20
S''
sg44
S'Mapping'
p1287
sg21
S''
sg17
g1286
sg30
Nsg46
S'View file (left hand side of path)'
p1288
stRp1289
ag3
(g4
g5
(dp1290
g16
S''
sg42
S'depotFile'
p1291
sg20
S''
sg44
S'Mapping'
p1292
sg21
S''
sg17
g1291
sg30
Nsg46
S'Depot file (right hand side of path)'
p1293
stRp1294
atRp1295
sg115
g1242
sg42
S'db.template'
p1296
sg117
S'0'
sg118
S'13'
p1297
sg120
g121
sg44
S'Template'
p1298
sg46
S'Streams templates'
p1299
stRp1300
sS'view'
p1301
g3
(g4
g5
(dp1302
g7
S'name, seq'
p1303
sg9
S'15'
p1304
sg11
g3
(g12
g13
(lp1305
g3
(g4
g5
(dp1306
g16
S''
sg17
g18
sg19
g18
sg20
S''
sg21
S''
sg22
g23
sg24
g25
stRp1307
ag3
(g4
g5
(dp1308
g16
S''
sg19
g28
sg20
S''
sg22
g29
sg21
S''
sg17
g28
sg30
Nsg24
g31
stRp1309
ag3
(g4
g5
(dp1310
g16
S''
sg19
g34
sg20
S''
sg22
g23
sg21
S''
sg17
g34
sg30
Nsg24
g35
stRp1311
ag3
(g4
g5
(dp1312
g16
S''
sg19
g38
sg20
S''
sg22
g29
sg21
S''
sg17
g38
sg30
Nsg24
g39
stRp1313
ag3
(g4
g5
(dp1314
g16
S''
sg42
g471
sg20
S''
sg44
g472
sg21
S''
sg17
g471
sg30
Nsg46
g473
stRp1315
ag3
(g4
g5
(dp1316
g16
S''
sg42
g476
sg20
S''
sg44
g477
sg21
S''
sg17
g476
sg30
Nsg46
g478
stRp1317
ag3
(g4
g5
(dp1318
g16
S''
sg42
g481
sg20
S''
sg44
g482
sg21
S''
sg17
g481
sg30
Nsg46
g483
stRp1319
ag3
(g4
g5
(dp1320
g16
S''
sg42
g486
sg20
S''
sg44
g487
sg21
S''
sg17
g486
sg30
Nsg46
g488
stRp1321
ag3
(g4
g5
(dp1322
g16
S''
sg42
g491
sg20
S''
sg44
g492
sg21
S''
sg17
g491
sg30
Nsg46
g493
stRp1323
atRp1324
sg115
g1301
sg42
S'db.view'
p1325
sg117
S'1'
sg118
S'15'
p1326
sg120
g121
sg44
S'View'
p1327
sg46
S'Contains views for domains'
p1328
stRp1329
sS'haverp'
p1330
g3
(g4
g5
(dp1331
g7
S'clientFile depotFile haveRev'
p1332
sg9
S'18'
p1333
sg11
g3
(g12
g13
(lp1334
g3
(g4
g5
(dp1335
g16
S''
sg17
g18
sg19
g18
sg20
S''
sg21
S''
sg22
g23
sg24
g25
stRp1336
ag3
(g4
g5
(dp1337
g16
S''
sg19
g28
sg20
S''
sg22
g29
sg21
S''
sg17
g28
sg30
Nsg24
g31
stRp1338
ag3
(g4
g5
(dp1339
g16
S''
sg19
g34
sg20
S''
sg22
g23
sg21
S''
sg17
g34
sg30
Nsg24
g35
stRp1340
ag3
(g4
g5
(dp1341
g16
S''
sg19
g38
sg20
S''
sg22
g29
sg21
S''
sg17
g38
sg30
Nsg24
g39
stRp1342
ag3
(g4
g5
(dp1343
g16
S''
sg42
g432
sg20
S''
sg44
g433
sg21
S''
sg17
g432
sg30
Nsg46
g434
stRp1344
ag3
(g4
g5
(dp1345
g16
S''
sg42
g437
sg20
S''
sg44
g438
sg21
S''
sg17
g437
sg30
Nsg46
g439
stRp1346
ag3
(g4
g5
(dp1347
g16
S''
sg42
g442
sg20
S''
sg44
g443
sg21
S''
sg17
g442
sg30
Nsg46
g444
stRp1348
ag3
(g4
g5
(dp1349
g16
S''
sg42
g447
sg20
S''
sg44
g448
sg21
S''
sg17
g447
sg30
Nsg46
g449
stRp1350
atRp1351
sg115
g1330
sg42
S'db.have.rp'
p1352
sg117
S'2'
sg118
S'21'
p1353
sg120
g121
sg44
S'Have'
p1354
sg46
S"Contains the 'have-list' for clients of build-server replicas"
p1355
stRp1356
sS'depot'
p1357
g3
(g4
g5
(dp1358
g7
S'name'
p1359
sg9
S'10'
p1360
sg11
g3
(g12
g13
(lp1361
g3
(g4
g5
(dp1362
g16
S''
sg17
g18
sg19
g18
sg20
S''
sg21
S''
sg22
g23
sg24
g25
stRp1363
ag3
(g4
g5
(dp1364
g16
S''
sg19
g28
sg20
S''
sg22
g29
sg21
S''
sg17
g28
sg30
Nsg24
g31
stRp1365
ag3
(g4
g5
(dp1366
g16
S''
sg19
g34
sg20
S''
sg22
g23
sg21
S''
sg17
g34
sg30
Nsg24
g35
stRp1367
ag3
(g4
g5
(dp1368
g16
S''
sg19
g38
sg20
S''
sg22
g29
sg21
S''
sg17
g38
sg30
Nsg24
g39
stRp1369
ag3
(g4
g5
(dp1370
g16
S''
sg42
S'name'
p1371
sg20
S''
sg44
S'Domain'
p1372
sg21
S''
sg17
g1371
sg30
Nsg46
S'Depot name'
p1373
stRp1374
ag3
(g4
g5
(dp1375
g16
S''
sg42
S'type'
p1376
sg20
S''
sg44
S'DepotType'
p1377
sg21
S''
sg17
g1376
sg30
Nsg46
S'Type of depot'
p1378
stRp1379
ag3
(g4
g5
(dp1380
g16
S''
sg42
S'extra'
p1381
sg20
S''
sg44
S'Text'
p1382
sg21
S''
sg17
g1381
sg30
Nsg46
S'For remote depots, the P4PORT address of the remote server.\n\t\t    For spec depots, the field contains a suffix to append to \n\t\t    the filename.'
p1383
stRp1384
ag3
(g4
g5
(dp1385
g16
S''
sg42
S'map'
p1386
sg20
S''
sg44
S'Text'
p1387
sg21
S''
sg17
g1386
sg30
Nsg46
S"The depot's map (path translation information).  For local \n\t\t    depots, this will be a path relative to the root directory.\n\t\t    For remote depots, this will be specified in terms of the \n\t\t    remote server's namespace."
p1388
stRp1389
atRp1390
sg115
g1357
sg42
S'db.depot'
p1391
sg117
S'1'
sg118
S'10'
p1392
sg120
g121
sg44
S'Depot'
p1393
sg46
S'Perforce depots'
p1394
stRp1395
sS'config'
p1396
g3
(g4
g5
(dp1397
g7
S'serverName, name'
p1398
sg9
S'1'
sg11
g3
(g12
g13
(lp1399
g3
(g4
g5
(dp1400
g16
S''
sg17
g18
sg19
g18
sg20
S''
sg21
S''
sg22
g23
sg24
g25
stRp1401
ag3
(g4
g5
(dp1402
g16
S''
sg19
g28
sg20
S''
sg22
g29
sg21
S''
sg17
g28
sg30
Nsg24
g31
stRp1403
ag3
(g4
g5
(dp1404
g16
S''
sg19
g34
sg20
S''
sg22
g23
sg21
S''
sg17
g34
sg30
Nsg24
g35
stRp1405
ag3
(g4
g5
(dp1406
g16
S''
sg19
g38
sg20
S''
sg22
g29
sg21
S''
sg17
g38
sg30
Nsg24
g39
stRp1407
ag3
(g4
g5
(dp1408
g16
S''
sg42
S'sname'
p1409
sg20
S''
sg44
S'String'
p1410
sg21
S''
sg17
g1409
sg30
Nsg46
S'Server name'
p1411
stRp1412
ag3
(g4
g5
(dp1413
g16
S''
sg42
S'name'
p1414
sg20
S''
sg44
S'String'
p1415
sg21
S''
sg17
g1414
sg30
Nsg46
S'Configuration variable name'
p1416
stRp1417
ag3
(g4
g5
(dp1418
g16
S''
sg42
S'value'
p1419
sg20
S''
sg44
S'Value'
p1420
sg21
S''
sg17
g1419
sg30
Nsg46
S'Configuration variable value'
p1421
stRp1422
atRp1423
sg115
g1396
sg42
S'db.config'
p1424
sg117
S'1'
sg118
S'1'
sg120
g121
sg44
S'Config'
p1425
sg46
S'Perforce server configurations table'
p1426
stRp1427
sS'fixrev'
p1428
g3
(g4
g5
(dp1429
g7
S'change, job'
p1430
sg9
S'46'
p1431
sg11
g3
(g12
g13
(lp1432
g3
(g4
g5
(dp1433
g16
S''
sg17
g18
sg19
g18
sg20
S''
sg21
S''
sg22
g23
sg24
g25
stRp1434
ag3
(g4
g5
(dp1435
g16
S''
sg19
g28
sg20
S''
sg22
g29
sg21
S''
sg17
g28
sg30
Nsg24
g31
stRp1436
ag3
(g4
g5
(dp1437
g16
S''
sg19
g34
sg20
S''
sg22
g23
sg21
S''
sg17
g34
sg30
Nsg24
g35
stRp1438
ag3
(g4
g5
(dp1439
g16
S''
sg19
g38
sg20
S''
sg22
g29
sg21
S''
sg17
g38
sg30
Nsg24
g39
stRp1440
ag3
(g4
g5
(dp1441
g16
S''
sg42
g944
sg20
S''
sg44
g945
sg21
S''
sg17
g944
sg30
Nsg46
g946
stRp1442
ag3
(g4
g5
(dp1443
g16
S''
sg42
g949
sg20
S''
sg44
g950
sg21
S''
sg17
g949
sg30
Nsg46
g951
stRp1444
ag3
(g4
g5
(dp1445
g16
S''
sg42
g954
sg20
S''
sg44
g955
sg21
S''
sg17
g954
sg30
Nsg46
g956
stRp1446
ag3
(g4
g5
(dp1447
g16
S''
sg42
g959
sg20
S''
sg44
g960
sg21
S''
sg17
g959
sg30
Nsg46
g961
stRp1448
ag3
(g4
g5
(dp1449
g16
S''
sg42
g964
sg20
S''
sg44
g965
sg21
S''
sg17
g964
sg30
Nsg46
g966
stRp1450
ag3
(g4
g5
(dp1451
g16
S''
sg42
g969
sg20
S''
sg44
g970
sg21
S''
sg17
g969
sg30
Nsg46
g971
stRp1452
atRp1453
sg115
g1428
sg42
S'db.fixrev'
p1454
sg117
S'1'
sg118
S'46'
p1455
sg120
g121
sg46
S'Fix records - indexed by change'
p1456
sg44
S'Fix'
p1457
sg978
S'db.fix'
p1458
stRp1459
sS'counters'
p1460
g3
(g4
g5
(dp1461
g7
S'name'
p1462
sg9
S'2'
sg11
g3
(g12
g13
(lp1463
g3
(g4
g5
(dp1464
g16
S''
sg17
g18
sg19
g18
sg20
S''
sg21
S''
sg22
g23
sg24
g25
stRp1465
ag3
(g4
g5
(dp1466
g16
S''
sg19
g28
sg20
S''
sg22
g29
sg21
S''
sg17
g28
sg30
Nsg24
g31
stRp1467
ag3
(g4
g5
(dp1468
g16
S''
sg19
g34
sg20
S''
sg22
g23
sg21
S''
sg17
g34
sg30
Nsg24
g35
stRp1469
ag3
(g4
g5
(dp1470
g16
S''
sg19
g38
sg20
S''
sg22
g29
sg21
S''
sg17
g38
sg30
Nsg24
g39
stRp1471
ag3
(g4
g5
(dp1472
g16
S''
sg42
S'name'
p1473
sg20
S''
sg44
S'Counter'
p1474
sg21
S''
sg17
g1473
sg30
Nsg46
S'Counter name'
p1475
stRp1476
ag3
(g4
g5
(dp1477
g16
S''
sg42
S'value'
p1478
sg20
S''
sg44
S'Value'
p1479
sg21
S''
sg17
g1478
sg30
Nsg46
S'Counter value'
p1480
stRp1481
atRp1482
sg115
g1460
sg42
S'db.counters'
p1483
sg117
S'1'
sg118
S'2'
sg120
g121
sg44
S'Counters'
p1484
sg46
S'Perforce counters table'
p1485
stRp1486
sS'revdx'
p1487
g3
(g4
g5
(dp1488
g7
S'depotFile'
p1489
sg9
S'25'
p1490
sg11
g3
(g12
g13
(lp1491
g3
(g4
g5
(dp1492
g16
S''
sg17
g18
sg19
g18
sg20
S''
sg21
S''
sg22
g23
sg24
g25
stRp1493
ag3
(g4
g5
(dp1494
g16
S''
sg19
g28
sg20
S''
sg22
g29
sg21
S''
sg17
g28
sg30
Nsg24
g31
stRp1495
ag3
(g4
g5
(dp1496
g16
S''
sg19
g34
sg20
S''
sg22
g23
sg21
S''
sg17
g34
sg30
Nsg24
g35
stRp1497
ag3
(g4
g5
(dp1498
g16
S''
sg19
g38
sg20
S''
sg22
g29
sg21
S''
sg17
g38
sg30
Nsg24
g39
stRp1499
ag3
(g4
g5
(dp1500
g16
S''
sg42
g139
sg20
S''
sg44
g140
sg21
S''
sg17
g139
sg30
Nsg46
g141
stRp1501
ag3
(g4
g5
(dp1502
g16
S''
sg42
g144
sg20
S''
sg44
g145
sg21
S''
sg17
g144
sg30
Nsg46
g146
stRp1503
ag3
(g4
g5
(dp1504
g16
S''
sg42
g149
sg20
S''
sg44
g150
sg21
S''
sg17
g149
sg30
Nsg46
g151
stRp1505
ag3
(g4
g5
(dp1506
g16
S''
sg42
g154
sg20
S''
sg44
g155
sg21
S''
sg17
g154
sg30
Nsg46
g156
stRp1507
ag3
(g4
g5
(dp1508
g16
S''
sg42
g159
sg20
S''
sg44
g160
sg21
S''
sg17
g159
sg30
Nsg46
g161
stRp1509
ag3
(g4
g5
(dp1510
g16
S''
sg42
g164
sg20
S''
sg44
g165
sg21
S''
sg17
g164
sg30
Nsg46
g166
stRp1511
ag3
(g4
g5
(dp1512
g16
S''
sg42
g169
sg20
S''
sg44
g170
sg21
S''
sg17
g169
sg30
Nsg46
g171
stRp1513
ag3
(g4
g5
(dp1514
g16
S''
sg42
g174
sg20
S''
sg44
g175
sg21
S''
sg17
g174
sg30
Nsg46
g176
stRp1515
ag3
(g4
g5
(dp1516
g16
S''
sg42
g179
sg20
S''
sg44
g180
sg21
S''
sg17
g179
sg30
Nsg46
g181
stRp1517
ag3
(g4
g5
(dp1518
g16
S''
sg42
g184
sg20
S''
sg44
g185
sg21
S''
sg17
g184
sg30
Nsg46
g186
stRp1519
ag3
(g4
g5
(dp1520
g16
S''
sg42
g189
sg20
S''
sg44
g190
sg21
S''
sg17
g189
sg30
Nsg46
g191
stRp1521
ag3
(g4
g5
(dp1522
g16
S''
sg42
g194
sg20
S''
sg44
g195
sg21
S''
sg17
g194
sg30
Nsg46
g196
stRp1523
ag3
(g4
g5
(dp1524
g16
S''
sg42
g199
sg20
S''
sg44
g200
sg21
S''
sg17
g199
sg30
Nsg46
g201
stRp1525
ag3
(g4
g5
(dp1526
g16
S''
sg42
g204
sg20
S''
sg44
g205
sg21
S''
sg17
g204
sg30
Nsg46
g206
stRp1527
atRp1528
sg115
g1487
sg42
S'db.revdx'
p1529
sg117
S'9'
sg118
S'30'
p1530
sg120
g121
sg44
S'Rev'
p1531
sg46
S'Revision records for revisions deleted at the head revision'
p1532
stRp1533
sS'revsx'
p1534
g3
(g4
g5
(dp1535
g7
S'depotFile, depotRev'
p1536
sg9
S'28'
p1537
sg11
g3
(g12
g13
(lp1538
g3
(g4
g5
(dp1539
g16
S''
sg17
g18
sg19
g18
sg20
S''
sg21
S''
sg22
g23
sg24
g25
stRp1540
ag3
(g4
g5
(dp1541
g16
S''
sg19
g28
sg20
S''
sg22
g29
sg21
S''
sg17
g28
sg30
Nsg24
g31
stRp1542
ag3
(g4
g5
(dp1543
g16
S''
sg19
g34
sg20
S''
sg22
g23
sg21
S''
sg17
g34
sg30
Nsg24
g35
stRp1544
ag3
(g4
g5
(dp1545
g16
S''
sg19
g38
sg20
S''
sg22
g29
sg21
S''
sg17
g38
sg30
Nsg24
g39
stRp1546
ag3
(g4
g5
(dp1547
g16
S''
sg42
g139
sg20
S''
sg44
g140
sg21
S''
sg17
g139
sg30
Nsg46
g141
stRp1548
ag3
(g4
g5
(dp1549
g16
S''
sg42
g144
sg20
S''
sg44
g145
sg21
S''
sg17
g144
sg30
Nsg46
g146
stRp1550
ag3
(g4
g5
(dp1551
g16
S''
sg42
g149
sg20
S''
sg44
g150
sg21
S''
sg17
g149
sg30
Nsg46
g151
stRp1552
ag3
(g4
g5
(dp1553
g16
S''
sg42
g154
sg20
S''
sg44
g155
sg21
S''
sg17
g154
sg30
Nsg46
g156
stRp1554
ag3
(g4
g5
(dp1555
g16
S''
sg42
g159
sg20
S''
sg44
g160
sg21
S''
sg17
g159
sg30
Nsg46
g161
stRp1556
ag3
(g4
g5
(dp1557
g16
S''
sg42
g164
sg20
S''
sg44
g165
sg21
S''
sg17
g164
sg30
Nsg46
g166
stRp1558
ag3
(g4
g5
(dp1559
g16
S''
sg42
g169
sg20
S''
sg44
g170
sg21
S''
sg17
g169
sg30
Nsg46
g171
stRp1560
ag3
(g4
g5
(dp1561
g16
S''
sg42
g174
sg20
S''
sg44
g175
sg21
S''
sg17
g174
sg30
Nsg46
g176
stRp1562
ag3
(g4
g5
(dp1563
g16
S''
sg42
g179
sg20
S''
sg44
g180
sg21
S''
sg17
g179
sg30
Nsg46
g181
stRp1564
ag3
(g4
g5
(dp1565
g16
S''
sg42
g184
sg20
S''
sg44
g185
sg21
S''
sg17
g184
sg30
Nsg46
g186
stRp1566
ag3
(g4
g5
(dp1567
g16
S''
sg42
g189
sg20
S''
sg44
g190
sg21
S''
sg17
g189
sg30
Nsg46
g191
stRp1568
ag3
(g4
g5
(dp1569
g16
S''
sg42
g194
sg20
S''
sg44
g195
sg21
S''
sg17
g194
sg30
Nsg46
g196
stRp1570
ag3
(g4
g5
(dp1571
g16
S''
sg42
g199
sg20
S''
sg44
g200
sg21
S''
sg17
g199
sg30
Nsg46
g201
stRp1572
ag3
(g4
g5
(dp1573
g16
S''
sg42
g204
sg20
S''
sg44
g205
sg21
S''
sg17
g204
sg30
Nsg46
g206
stRp1574
atRp1575
sg115
g1534
sg42
S'db.revsx'
p1576
sg117
S'9'
sg118
S'33'
p1577
sg120
g121
sg44
S'Rev'
p1578
sg46
S'Revision records for spec depot files'
p1579
stRp1580
sS'changex'
p1581
g3
(g4
g5
(dp1582
g7
S'change'
p1583
sg9
S'42'
p1584
sg11
g3
(g12
g13
(lp1585
g3
(g4
g5
(dp1586
g16
S''
sg17
g18
sg19
g18
sg20
S''
sg21
S''
sg22
g23
sg24
g25
stRp1587
ag3
(g4
g5
(dp1588
g16
S''
sg19
g28
sg20
S''
sg22
g29
sg21
S''
sg17
g28
sg30
Nsg24
g31
stRp1589
ag3
(g4
g5
(dp1590
g16
S''
sg19
g34
sg20
S''
sg22
g23
sg21
S''
sg17
g34
sg30
Nsg24
g35
stRp1591
ag3
(g4
g5
(dp1592
g16
S''
sg19
g38
sg20
S''
sg22
g29
sg21
S''
sg17
g38
sg30
Nsg24
g39
stRp1593
ag3
(g4
g5
(dp1594
g16
S''
sg42
S'change'
p1595
sg20
S''
sg44
S'Change'
p1596
sg21
S''
sg17
g1595
sg30
Nsg46
S'The change number'
p1597
stRp1598
ag3
(g4
g5
(dp1599
g16
S''
sg42
S'descKey'
p1600
sg20
S''
sg44
S'Change'
p1601
sg21
S''
sg17
g1600
sg30
Nsg46
S"The description key. Normally the same as 'change', but\n\t\t    may differ if a changelist was renumbered on submission."
p1602
stRp1603
ag3
(g4
g5
(dp1604
g16
S''
sg42
S'client'
p1605
sg20
S''
sg44
S'Domain'
p1606
sg21
S''
sg17
g1605
sg30
Nsg46
S'The client from which the change originates'
p1607
stRp1608
ag3
(g4
g5
(dp1609
g16
S''
sg42
S'user'
p1610
sg20
S''
sg44
S'User'
p1611
sg21
S''
sg17
g1610
sg30
Nsg46
S'The user who owns the change'
p1612
stRp1613
ag3
(g4
g5
(dp1614
g16
S''
sg42
S'date'
p1615
sg20
S''
sg44
S'Date'
p1616
sg21
S''
sg17
g1615
sg30
Nsg46
S'Date and time the changelist was submitted'
p1617
stRp1618
ag3
(g4
g5
(dp1619
g16
S''
sg42
S'status'
p1620
sg20
S''
sg44
S'ChangeStatus'
p1621
sg21
S''
sg17
g1620
sg30
Nsg46
S'Status of the change'
p1622
stRp1623
ag3
(g4
g5
(dp1624
g16
S''
sg42
S'description'
p1625
sg20
S''
sg44
S'DescShort'
p1626
sg21
S''
sg17
g1625
sg30
Nsg46
S'Short description of the change.'
p1627
stRp1628
ag3
(g4
g5
(dp1629
g16
S''
sg42
S'root'
p1630
sg20
S''
sg44
S'Mapping'
p1631
sg21
S''
sg17
g1630
sg30
Nsg46
S'Common path for all files in the changelist'
p1632
stRp1633
atRp1634
sg115
g1581
sg42
S'db.changex'
p1635
sg373
S'contains records for pending changelists only.'
p1636
sg117
S'2'
sg118
S'42'
p1637
sg120
g121
sg44
S'Change'
p1638
sg46
S'Subset of db.change - records for pending changelists only'
p1639
stRp1640
sS'integed'
p1641
g3
(g4
g5
(dp1642
g7
S'toFile, fromFile, startFromRev, endFromRev, \n\t\tstartToRev, endToRev'
p1643
sg9
S'20'
p1644
sg11
g3
(g12
g13
(lp1645
g3
(g4
g5
(dp1646
g16
S''
sg17
g18
sg19
g18
sg20
S''
sg21
S''
sg22
g23
sg24
g25
stRp1647
ag3
(g4
g5
(dp1648
g16
S''
sg19
g28
sg20
S''
sg22
g29
sg21
S''
sg17
g28
sg30
Nsg24
g31
stRp1649
ag3
(g4
g5
(dp1650
g16
S''
sg19
g34
sg20
S''
sg22
g23
sg21
S''
sg17
g34
sg30
Nsg24
g35
stRp1651
ag3
(g4
g5
(dp1652
g16
S''
sg19
g38
sg20
S''
sg22
g29
sg21
S''
sg17
g38
sg30
Nsg24
g39
stRp1653
ag3
(g4
g5
(dp1654
g16
S''
sg42
S'toFile'
p1655
sg20
S''
sg44
S'File'
p1656
sg21
S''
sg17
g1655
sg30
Nsg46
S'File to which integration is being performed (target).'
p1657
stRp1658
ag3
(g4
g5
(dp1659
g16
S''
sg42
S'fromFile'
p1660
sg20
S''
sg44
S'File'
p1661
sg21
S''
sg17
g1660
sg30
Nsg46
S'File from which integration is being performed (source).'
p1662
stRp1663
ag3
(g4
g5
(dp1664
g16
S''
sg42
S'startFromRev'
p1665
sg20
S''
sg44
S'Rev'
p1666
sg21
S''
sg17
g1665
sg30
Nsg46
S'Starting revision of fromFile'
p1667
stRp1668
ag3
(g4
g5
(dp1669
g16
S''
sg42
S'endFromRev'
p1670
sg20
S''
sg44
S'Rev'
p1671
sg21
S''
sg17
g1670
sg30
Nsg46
S'Ending revision of fromFile. If integrating from a single \n\t\t    revision (not a revision range), the startFromRev and \n\t\t    endFromRev fields will be identical.'
p1672
stRp1673
ag3
(g4
g5
(dp1674
g16
S''
sg42
S'startToRev'
p1675
sg20
S''
sg44
S'Rev'
p1676
sg21
S''
sg17
g1675
sg30
Nsg46
S'Start revision of toFile into which integration was \n\t\t    performed.'
p1677
stRp1678
ag3
(g4
g5
(dp1679
g16
S''
sg42
S'endToRev'
p1680
sg20
S''
sg44
S'Rev'
p1681
sg21
S''
sg17
g1680
sg30
Nsg46
S'End revision of toFile into which integration was \n\t\t    performed. Only varies from startToRev for reverse \n\t\t    integration records.'
p1682
stRp1683
ag3
(g4
g5
(dp1684
g16
S''
sg42
S'how'
p1685
sg20
S''
sg44
S'IntegHow'
p1686
sg21
S''
sg17
g1685
sg30
Nsg46
S'Integration method: variations on \n\t\t    merge/branch/copy/ignore/delete.'
p1687
stRp1688
ag3
(g4
g5
(dp1689
g16
S''
sg42
S'change'
p1690
sg20
S''
sg44
S'Change'
p1691
sg21
S''
sg17
g1690
sg30
Nsg46
S'Changelist associated with the integration.'
p1692
stRp1693
atRp1694
sg115
g1641
sg42
S'db.integed'
p1695
sg117
S'0'
sg118
S'17'
p1696
sg120
g121
sg46
S'Permanent integration records'
p1697
sg44
S'Integed'
p1698
sg978
S'db.resolve'
p1699
stRp1700
sS'job'
p1701
g3
(g4
g5
(dp1702
g7
S'job'
p1703
sg9
S'44'
p1704
sg11
g3
(g12
g13
(lp1705
g3
(g4
g5
(dp1706
g16
S''
sg17
g18
sg19
g18
sg20
S''
sg21
S''
sg22
g23
sg24
g25
stRp1707
ag3
(g4
g5
(dp1708
g16
S''
sg19
g28
sg20
S''
sg22
g29
sg21
S''
sg17
g28
sg30
Nsg24
g31
stRp1709
ag3
(g4
g5
(dp1710
g16
S''
sg19
g34
sg20
S''
sg22
g23
sg21
S''
sg17
g34
sg30
Nsg24
g35
stRp1711
ag3
(g4
g5
(dp1712
g16
S''
sg19
g38
sg20
S''
sg22
g29
sg21
S''
sg17
g38
sg30
Nsg24
g39
stRp1713
ag3
(g4
g5
(dp1714
g16
S''
sg42
S'job'
p1715
sg20
S''
sg44
S'String'
p1716
sg21
S''
sg17
g1715
sg30
Nsg46
S'The job name'
p1717
stRp1718
ag3
(g4
g5
(dp1719
g16
S''
sg42
S'xuser'
p1720
sg20
S''
sg44
S'User'
p1721
sg21
S''
sg17
g1720
sg30
Nsg46
S'User name: defunct'
p1722
stRp1723
ag3
(g4
g5
(dp1724
g16
S''
sg42
S'xdate'
p1725
sg20
S''
sg44
S'Date'
p1726
sg21
S''
sg17
g1725
sg30
Nsg46
S'The date: defunct'
p1727
stRp1728
ag3
(g4
g5
(dp1729
g16
S''
sg42
S'xstatus'
p1730
sg20
S''
sg44
S'JobStat'
p1731
sg21
S''
sg17
g1730
sg30
Nsg46
S'Job status: defunct'
p1732
stRp1733
ag3
(g4
g5
(dp1734
g16
S''
sg42
S'description'
p1735
sg20
S''
sg44
S'DescShort'
p1736
sg21
S''
sg17
g1735
sg30
Nsg46
S'Short description'
p1737
stRp1738
atRp1739
sg115
g1701
sg42
S'db.job'
p1740
sg117
S'0'
sg118
S'44'
p1741
sg120
g121
sg46
S'Job records'
p1742
sg44
S'Job'
p1743
sg978
S'db.bodtext'
p1744
stRp1745
sS'workingx'
p1746
g3
(g4
g5
(dp1747
g7
S'clientFile'
p1748
sg9
S'37'
p1749
sg11
g3
(g12
g13
(lp1750
g3
(g4
g5
(dp1751
g16
S''
sg17
g18
sg19
g18
sg20
S''
sg21
S''
sg22
g23
sg24
g25
stRp1752
ag3
(g4
g5
(dp1753
g16
S''
sg19
g28
sg20
S''
sg22
g29
sg21
S''
sg17
g28
sg30
Nsg24
g31
stRp1754
ag3
(g4
g5
(dp1755
g16
S''
sg19
g34
sg20
S''
sg22
g23
sg21
S''
sg17
g34
sg30
Nsg24
g35
stRp1756
ag3
(g4
g5
(dp1757
g16
S''
sg19
g38
sg20
S''
sg22
g29
sg21
S''
sg17
g38
sg30
Nsg24
g39
stRp1758
ag3
(g4
g5
(dp1759
g16
S''
sg42
g829
sg20
S''
sg44
g830
sg21
S''
sg17
g829
sg30
Nsg46
g831
stRp1760
ag3
(g4
g5
(dp1761
g16
S''
sg42
g834
sg20
S''
sg44
g835
sg21
S''
sg17
g834
sg30
Nsg46
g836
stRp1762
ag3
(g4
g5
(dp1763
g16
S''
sg42
g839
sg20
S''
sg44
g840
sg21
S''
sg17
g839
sg30
Nsg46
g841
stRp1764
ag3
(g4
g5
(dp1765
g16
S''
sg42
g844
sg20
S''
sg44
g845
sg21
S''
sg17
g844
sg30
Nsg46
g846
stRp1766
ag3
(g4
g5
(dp1767
g16
S''
sg42
g849
sg20
S''
sg44
g850
sg21
S''
sg17
g849
sg30
Nsg46
g851
stRp1768
ag3
(g4
g5
(dp1769
g16
S''
sg42
g854
sg20
S''
sg44
g855
sg21
S''
sg17
g854
sg30
Nsg46
g856
stRp1770
ag3
(g4
g5
(dp1771
g16
S''
sg42
g859
sg20
S''
sg44
g860
sg21
S''
sg17
g859
sg30
Nsg46
g861
stRp1772
ag3
(g4
g5
(dp1773
g16
S''
sg42
g864
sg20
S''
sg44
g865
sg21
S''
sg17
g864
sg30
Nsg46
g866
stRp1774
ag3
(g4
g5
(dp1775
g16
S''
sg42
g869
sg20
S''
sg44
g870
sg21
S''
sg17
g869
sg30
Nsg46
g871
stRp1776
ag3
(g4
g5
(dp1777
g16
S''
sg42
g874
sg20
S''
sg44
g875
sg21
S''
sg17
g874
sg30
Nsg46
g876
stRp1778
ag3
(g4
g5
(dp1779
g16
S''
sg42
g879
sg20
S''
sg44
g880
sg21
S''
sg17
g879
sg30
Nsg46
g881
stRp1780
ag3
(g4
g5
(dp1781
g16
S''
sg42
g884
sg20
S''
sg44
g885
sg21
S''
sg17
g884
sg30
Nsg46
g886
stRp1782
ag3
(g4
g5
(dp1783
g16
S''
sg42
g889
sg20
S''
sg44
g890
sg21
S''
sg17
g889
sg30
Nsg46
g891
stRp1784
ag3
(g4
g5
(dp1785
g16
S''
sg42
g894
sg20
S''
sg44
g895
sg21
S''
sg17
g894
sg30
Nsg46
g896
stRp1786
ag3
(g4
g5
(dp1787
g16
S''
sg42
g899
sg20
S''
sg44
g900
sg21
S''
sg17
g899
sg30
Nsg46
g901
stRp1788
ag3
(g4
g5
(dp1789
g16
S''
sg42
g904
sg20
S''
sg44
g905
sg21
S''
sg17
g904
sg30
Nsg46
g906
stRp1790
ag3
(g4
g5
(dp1791
g16
S''
sg42
g909
sg20
S''
sg44
g910
sg21
S''
sg17
g909
sg30
Nsg46
g911
stRp1792
ag3
(g4
g5
(dp1793
g16
S''
sg42
g914
sg20
S''
sg44
g915
sg21
S''
sg17
g914
sg30
Nsg46
g916
stRp1794
ag3
(g4
g5
(dp1795
g16
S''
sg42
g919
sg20
S''
sg44
g920
sg21
S''
sg17
g919
sg30
Nsg46
g921
stRp1796
atRp1797
sg115
g1746
sg42
S'db.workingx'
p1798
sg117
S'10'
p1799
sg118
S'38'
p1800
sg120
g121
sg44
S'Working'
p1801
sg46
S'Records for shelved open files'
p1802
stRp1803
sS'user'
p1804
g3
(g4
g5
(dp1805
g7
S'user'
p1806
sg9
S'8'
sg11
g3
(g12
g13
(lp1807
g3
(g4
g5
(dp1808
g16
S''
sg17
g18
sg19
g18
sg20
S''
sg21
S''
sg22
g23
sg24
g25
stRp1809
ag3
(g4
g5
(dp1810
g16
S''
sg19
g28
sg20
S''
sg22
g29
sg21
S''
sg17
g28
sg30
Nsg24
g31
stRp1811
ag3
(g4
g5
(dp1812
g16
S''
sg19
g34
sg20
S''
sg22
g23
sg21
S''
sg17
g34
sg30
Nsg24
g35
stRp1813
ag3
(g4
g5
(dp1814
g16
S''
sg19
g38
sg20
S''
sg22
g29
sg21
S''
sg17
g38
sg30
Nsg24
g39
stRp1815
ag3
(g4
g5
(dp1816
g16
S''
sg42
S'user'
p1817
sg20
S''
sg44
S'User'
p1818
sg21
S''
sg17
g1817
sg30
Nsg46
S'The username'
p1819
stRp1820
ag3
(g4
g5
(dp1821
g16
S''
sg42
S'email'
p1822
sg20
S''
sg44
S'Text'
p1823
sg21
S''
sg17
g1822
sg30
Nsg46
S"The user's email address"
p1824
stRp1825
ag3
(g4
g5
(dp1826
g16
S''
sg42
S'jobView'
p1827
sg20
S''
sg44
S'Text'
p1828
sg21
S''
sg17
g1827
sg30
Nsg46
S"The user's job view"
p1829
stRp1830
ag3
(g4
g5
(dp1831
g16
S''
sg42
S'updateDate'
p1832
sg20
S''
sg44
S'Date'
p1833
sg21
S''
sg17
g1832
sg30
Nsg46
S'The date/time the user record was last updated'
p1834
stRp1835
ag3
(g4
g5
(dp1836
g16
S''
sg42
S'accessDate'
p1837
sg20
S''
sg44
S'Date'
p1838
sg21
S''
sg17
g1837
sg30
Nsg46
S'The date/time the user record was last used'
p1839
stRp1840
ag3
(g4
g5
(dp1841
g16
S''
sg42
S'fullName'
p1842
sg20
S''
sg44
S'Text'
p1843
sg21
S''
sg17
g1842
sg30
Nsg46
S"The user's full name"
p1844
stRp1845
ag3
(g4
g5
(dp1846
g16
S''
sg42
S'password'
p1847
sg20
S''
sg44
S'Password'
p1848
sg21
S''
sg17
g1847
sg30
Nsg46
S'The MD5 hash of the users (encrypted) password'
p1849
stRp1850
ag3
(g4
g5
(dp1851
g16
S''
sg42
S'strength'
p1852
sg20
S''
sg44
S'Strength'
p1853
sg21
S''
sg17
g1852
sg30
Nsg46
S"Measure of the strength of the user's password"
p1854
stRp1855
ag3
(g4
g5
(dp1856
g16
S''
sg42
S'ticket'
p1857
sg20
S''
sg44
S'Password'
p1858
sg21
S''
sg17
g1857
sg30
Nsg46
S"'p4 login' ticket for this user"
p1859
stRp1860
ag3
(g4
g5
(dp1861
g16
S''
sg42
S'endDate'
p1862
sg20
S''
sg44
S'Date'
p1863
sg21
S''
sg17
g1862
sg30
Nsg46
S"Date/time the user's ticket expires"
p1864
stRp1865
ag3
(g4
g5
(dp1866
g16
S''
sg42
S'type'
p1867
sg20
S''
sg44
S'UserLevel'
p1868
sg21
S''
sg17
g1867
sg30
Nsg46
S'Type of user'
p1869
stRp1870
ag3
(g4
g5
(dp1871
g16
S''
sg42
S'passDate'
p1872
sg20
S''
sg44
S'Date'
p1873
sg21
S''
sg17
g1872
sg30
Nsg46
S'Date password was last changed'
p1874
stRp1875
ag3
(g4
g5
(dp1876
g16
S''
sg42
S'passExpire'
p1877
sg20
S''
sg44
S'Date'
p1878
sg21
S''
sg17
g1877
sg30
Nsg46
S'Date of password expiration'
p1879
stRp1880
ag3
(g4
g5
(dp1881
g16
S''
sg42
S'attempts'
p1882
sg20
S''
sg44
S'Date'
p1883
sg21
S''
sg17
g1882
sg30
Nsg46
S'Failed login attempts'
p1884
stRp1885
atRp1886
sg115
g1804
sg42
S'db.user'
p1887
sg117
S'6'
sg118
S'8'
sg120
g121
sg44
S'User'
p1888
sg46
S'Perforce users'
p1889
stRp1890
sS'revsh'
p1891
g3
(g4
g5
(dp1892
g7
S'depotFile, depotRev, type, action, change'
p1893
sg9
S'29'
p1894
sg11
g3
(g12
g13
(lp1895
g3
(g4
g5
(dp1896
g16
S''
sg17
g18
sg19
g18
sg20
S''
sg21
S''
sg22
g23
sg24
g25
stRp1897
ag3
(g4
g5
(dp1898
g16
S''
sg19
g28
sg20
S''
sg22
g29
sg21
S''
sg17
g28
sg30
Nsg24
g31
stRp1899
ag3
(g4
g5
(dp1900
g16
S''
sg19
g34
sg20
S''
sg22
g23
sg21
S''
sg17
g34
sg30
Nsg24
g35
stRp1901
ag3
(g4
g5
(dp1902
g16
S''
sg19
g38
sg20
S''
sg22
g29
sg21
S''
sg17
g38
sg30
Nsg24
g39
stRp1903
ag3
(g4
g5
(dp1904
g16
S''
sg42
g139
sg20
S''
sg44
g140
sg21
S''
sg17
g139
sg30
Nsg46
g141
stRp1905
ag3
(g4
g5
(dp1906
g16
S''
sg42
g144
sg20
S''
sg44
g145
sg21
S''
sg17
g144
sg30
Nsg46
g146
stRp1907
ag3
(g4
g5
(dp1908
g16
S''
sg42
g149
sg20
S''
sg44
g150
sg21
S''
sg17
g149
sg30
Nsg46
g151
stRp1909
ag3
(g4
g5
(dp1910
g16
S''
sg42
g154
sg20
S''
sg44
g155
sg21
S''
sg17
g154
sg30
Nsg46
g156
stRp1911
ag3
(g4
g5
(dp1912
g16
S''
sg42
g159
sg20
S''
sg44
g160
sg21
S''
sg17
g159
sg30
Nsg46
g161
stRp1913
ag3
(g4
g5
(dp1914
g16
S''
sg42
g164
sg20
S''
sg44
g165
sg21
S''
sg17
g164
sg30
Nsg46
g166
stRp1915
ag3
(g4
g5
(dp1916
g16
S''
sg42
g169
sg20
S''
sg44
g170
sg21
S''
sg17
g169
sg30
Nsg46
g171
stRp1917
ag3
(g4
g5
(dp1918
g16
S''
sg42
g174
sg20
S''
sg44
g175
sg21
S''
sg17
g174
sg30
Nsg46
g176
stRp1919
ag3
(g4
g5
(dp1920
g16
S''
sg42
g179
sg20
S''
sg44
g180
sg21
S''
sg17
g179
sg30
Nsg46
g181
stRp1921
ag3
(g4
g5
(dp1922
g16
S''
sg42
g184
sg20
S''
sg44
g185
sg21
S''
sg17
g184
sg30
Nsg46
g186
stRp1923
ag3
(g4
g5
(dp1924
g16
S''
sg42
g189
sg20
S''
sg44
g190
sg21
S''
sg17
g189
sg30
Nsg46
g191
stRp1925
ag3
(g4
g5
(dp1926
g16
S''
sg42
g194
sg20
S''
sg44
g195
sg21
S''
sg17
g194
sg30
Nsg46
g196
stRp1927
ag3
(g4
g5
(dp1928
g16
S''
sg42
g199
sg20
S''
sg44
g200
sg21
S''
sg17
g199
sg30
Nsg46
g201
stRp1929
ag3
(g4
g5
(dp1930
g16
S''
sg42
g204
sg20
S''
sg44
g205
sg21
S''
sg17
g204
sg30
Nsg46
g206
stRp1931
atRp1932
sg115
g1891
sg42
S'db.revsh'
p1933
sg117
S'9'
sg118
S'34'
p1934
sg120
g121
sg44
S'Rev'
p1935
sg46
S'Revision records for shelved files'
p1936
stRp1937
sS'excl'
p1938
g3
(g4
g5
(dp1939
g7
S'depotFile'
p1940
sg9
S'38'
p1941
sg11
g3
(g12
g13
(lp1942
g3
(g4
g5
(dp1943
g16
S''
sg17
g18
sg19
g18
sg20
S''
sg21
S''
sg22
g23
sg24
g25
stRp1944
ag3
(g4
g5
(dp1945
g16
S''
sg19
g28
sg20
S''
sg22
g29
sg21
S''
sg17
g28
sg30
Nsg24
g31
stRp1946
ag3
(g4
g5
(dp1947
g16
S''
sg19
g34
sg20
S''
sg22
g23
sg21
S''
sg17
g34
sg30
Nsg24
g35
stRp1948
ag3
(g4
g5
(dp1949
g16
S''
sg19
g38
sg20
S''
sg22
g29
sg21
S''
sg17
g38
sg30
Nsg24
g39
stRp1950
ag3
(g4
g5
(dp1951
g16
S''
sg42
S'depotFile'
p1952
sg20
S''
sg44
S'File'
p1953
sg21
S''
sg17
g1952
sg30
Nsg46
S'The file locked'
p1954
stRp1955
ag3
(g4
g5
(dp1956
g16
S''
sg42
S'client'
p1957
sg20
S''
sg44
S'Domain'
p1958
sg21
S''
sg17
g1957
sg30
Nsg46
S'The client for which the file is locked'
p1959
stRp1960
ag3
(g4
g5
(dp1961
g16
S''
sg42
S'user'
p1962
sg20
S''
sg44
S'User'
p1963
sg21
S''
sg17
g1962
sg30
Nsg46
S'The user for which the file is locked'
p1964
stRp1965
atRp1966
sg115
g1938
sg42
S'db.excl'
p1967
sg117
S'1'
sg118
S'25'
p1968
sg120
g121
sg44
S'ExclusiveLock'
p1969
sg46
S'Exclusively locked files -  enables coordinated file locking in a Distributed Perforce environment (commit and edge servers)'
p1970
stRp1971
sS'resolvex'
p1972
g3
(g4
g5
(dp1973
g7
S'toFile, fromFile, startFromRev'
p1974
sg9
S'23'
p1975
sg11
g3
(g12
g13
(lp1976
g3
(g4
g5
(dp1977
g16
S''
sg17
g18
sg19
g18
sg20
S''
sg21
S''
sg22
g23
sg24
g25
stRp1978
ag3
(g4
g5
(dp1979
g16
S''
sg19
g28
sg20
S''
sg22
g29
sg21
S''
sg17
g28
sg30
Nsg24
g31
stRp1980
ag3
(g4
g5
(dp1981
g16
S''
sg19
g34
sg20
S''
sg22
g23
sg21
S''
sg17
g34
sg30
Nsg24
g35
stRp1982
ag3
(g4
g5
(dp1983
g16
S''
sg19
g38
sg20
S''
sg22
g29
sg21
S''
sg17
g38
sg30
Nsg24
g39
stRp1984
ag3
(g4
g5
(dp1985
g16
S''
sg42
S'toFile'
p1986
sg20
S''
sg44
S'File'
p1987
sg21
S''
sg17
g1986
sg30
Nsg46
S'File to which integration is being performed (target).'
p1988
stRp1989
ag3
(g4
g5
(dp1990
g16
S''
sg42
S'fromFile'
p1991
sg20
S''
sg44
S'File'
p1992
sg21
S''
sg17
g1991
sg30
Nsg46
S'File from which integration is being performed (source).'
p1993
stRp1994
ag3
(g4
g5
(dp1995
g16
S''
sg42
S'startFromRev'
p1996
sg20
S''
sg44
S'Rev'
p1997
sg21
S''
sg17
g1996
sg30
Nsg46
S'Starting revision of fromFile'
p1998
stRp1999
ag3
(g4
g5
(dp2000
g16
S''
sg42
S'endFromRev'
p2001
sg20
S''
sg44
S'Rev'
p2002
sg21
S''
sg17
g2001
sg30
Nsg46
S'Ending revision of fromFile. If integrating from a single \n\t\t    revision (not a revision range), the startFromRev and \n\t\t    endFromRev fields will be identical.'
p2003
stRp2004
ag3
(g4
g5
(dp2005
g16
S''
sg42
S'startToRev'
p2006
sg20
S''
sg44
S'Rev'
p2007
sg21
S''
sg17
g2006
sg30
Nsg46
S'Start revision of toFile into which integration was \n\t\t    performed.'
p2008
stRp2009
ag3
(g4
g5
(dp2010
g16
S''
sg42
S'endToRev'
p2011
sg20
S''
sg44
S'Rev'
p2012
sg21
S''
sg17
g2011
sg30
Nsg46
S'End revision of toFile into which integration was \n\t\t    performed. Only varies from startToRev for reverse \n\t\t    integration records.'
p2013
stRp2014
ag3
(g4
g5
(dp2015
g16
S''
sg42
S'how'
p2016
sg20
S''
sg44
S'IntegHow'
p2017
sg21
S''
sg17
g2016
sg30
Nsg46
S'Integration method: variations on \n\t\t    merge/branch/copy/ignore/delete.'
p2018
stRp2019
ag3
(g4
g5
(dp2020
g16
S''
sg42
S'state'
p2021
sg20
S''
sg44
S'ResolveState'
p2022
sg21
S''
sg17
g2021
sg30
Nsg46
S'How the user performed the resolve.'
p2023
stRp2024
ag3
(g4
g5
(dp2025
g16
S''
sg42
S'baseFile'
p2026
sg20
S''
sg44
S'File'
p2027
sg21
S''
sg17
g2026
sg30
Nsg46
S'File used as the base for merging.'
p2028
stRp2029
ag3
(g4
g5
(dp2030
g16
S''
sg42
S'baseRev'
p2031
sg20
S''
sg44
S'Rev'
p2032
sg21
S''
sg17
g2031
sg30
Nsg46
S'Revision of baseFile used as the merge base.'
p2033
stRp2034
atRp2035
sg115
g1972
sg42
S'db.resolvex'
p2036
sg117
S'1'
sg118
S'20'
p2037
sg120
g121
sg46
S'Pending integration records for shelved files'
p2038
sg44
S'Resolve'
p2039
sg978
S'db.integed'
p2040
stRp2041
sS'logger'
p2042
g3
(g4
g5
(dp2043
g7
S'seq'
p2044
sg9
S'4'
sg11
g3
(g12
g13
(lp2045
g3
(g4
g5
(dp2046
g16
S''
sg17
g18
sg19
g18
sg20
S''
sg21
S''
sg22
g23
sg24
g25
stRp2047
ag3
(g4
g5
(dp2048
g16
S''
sg19
g28
sg20
S''
sg22
g29
sg21
S''
sg17
g28
sg30
Nsg24
g31
stRp2049
ag3
(g4
g5
(dp2050
g16
S''
sg19
g34
sg20
S''
sg22
g23
sg21
S''
sg17
g34
sg30
Nsg24
g35
stRp2051
ag3
(g4
g5
(dp2052
g16
S''
sg19
g38
sg20
S''
sg22
g29
sg21
S''
sg17
g38
sg30
Nsg24
g39
stRp2053
ag3
(g4
g5
(dp2054
g16
S''
sg42
S'seq'
p2055
sg20
S''
sg44
S'Int'
p2056
sg21
S''
sg17
g2055
sg30
Nsg46
S'Sequence number of event'
p2057
stRp2058
ag3
(g4
g5
(dp2059
g16
S''
sg42
S'key'
p2060
sg20
S''
sg44
S'String'
p2061
sg21
S''
sg17
g2060
sg30
Nsg46
S"Either the word 'change' or the word 'job'"
p2062
stRp2063
ag3
(g4
g5
(dp2064
g16
S''
sg42
S'attr'
p2065
sg20
S''
sg44
S'String'
p2066
sg21
S''
sg17
g2065
sg30
Nsg46
S'The number of the change, or name of the job that was \n\t\t    altered.'
p2067
stRp2068
atRp2069
sg115
g2042
sg42
S'db.logger'
p2070
sg117
S'0'
sg118
S'4'
sg120
g121
sg44
S'Logger'
p2071
sg46
S"Support for 'p4 logger' command. Logs any changes to \n\t\tchangelists and jobs"
p2072
stRp2073
sS'change'
p2074
g3
(g4
g5
(dp2075
g7
S'change'
p2076
sg9
S'41'
p2077
sg11
g3
(g12
g13
(lp2078
g3
(g4
g5
(dp2079
g16
S''
sg17
g18
sg19
g18
sg20
S''
sg21
S''
sg22
g23
sg24
g25
stRp2080
ag3
(g4
g5
(dp2081
g16
S''
sg19
g28
sg20
S''
sg22
g29
sg21
S''
sg17
g28
sg30
Nsg24
g31
stRp2082
ag3
(g4
g5
(dp2083
g16
S''
sg19
g34
sg20
S''
sg22
g23
sg21
S''
sg17
g34
sg30
Nsg24
g35
stRp2084
ag3
(g4
g5
(dp2085
g16
S''
sg19
g38
sg20
S''
sg22
g29
sg21
S''
sg17
g38
sg30
Nsg24
g39
stRp2086
ag3
(g4
g5
(dp2087
g16
S''
sg42
g1595
sg20
S''
sg44
g1596
sg21
S''
sg17
g1595
sg30
Nsg46
g1597
stRp2088
ag3
(g4
g5
(dp2089
g16
S''
sg42
g1600
sg20
S''
sg44
g1601
sg21
S''
sg17
g1600
sg30
Nsg46
g1602
stRp2090
ag3
(g4
g5
(dp2091
g16
S''
sg42
g1605
sg20
S''
sg44
g1606
sg21
S''
sg17
g1605
sg30
Nsg46
g1607
stRp2092
ag3
(g4
g5
(dp2093
g16
S''
sg42
g1610
sg20
S''
sg44
g1611
sg21
S''
sg17
g1610
sg30
Nsg46
g1612
stRp2094
ag3
(g4
g5
(dp2095
g16
S''
sg42
g1615
sg20
S''
sg44
g1616
sg21
S''
sg17
g1615
sg30
Nsg46
g1617
stRp2096
ag3
(g4
g5
(dp2097
g16
S''
sg42
g1620
sg20
S''
sg44
g1621
sg21
S''
sg17
g1620
sg30
Nsg46
g1622
stRp2098
ag3
(g4
g5
(dp2099
g16
S''
sg42
g1625
sg20
S''
sg44
g1626
sg21
S''
sg17
g1625
sg30
Nsg46
g1627
stRp2100
ag3
(g4
g5
(dp2101
g16
S''
sg42
g1630
sg20
S''
sg44
g1631
sg21
S''
sg17
g1630
sg30
Nsg46
g1632
stRp2102
atRp2103
sg115
g2074
sg42
S'db.change'
p2104
sg117
S'2'
sg118
S'41'
p2105
sg120
g121
sg44
S'Change'
p2106
sg46
S'Changelists'
p2107
stRp2108
sS'desc'
p2109
g3
(g4
g5
(dp2110
g7
S'descKey'
p2111
sg9
S'43'
p2112
sg11
g3
(g12
g13
(lp2113
g3
(g4
g5
(dp2114
g16
S''
sg17
g18
sg19
g18
sg20
S''
sg21
S''
sg22
g23
sg24
g25
stRp2115
ag3
(g4
g5
(dp2116
g16
S''
sg19
g28
sg20
S''
sg22
g29
sg21
S''
sg17
g28
sg30
Nsg24
g31
stRp2117
ag3
(g4
g5
(dp2118
g16
S''
sg19
g34
sg20
S''
sg22
g23
sg21
S''
sg17
g34
sg30
Nsg24
g35
stRp2119
ag3
(g4
g5
(dp2120
g16
S''
sg19
g38
sg20
S''
sg22
g29
sg21
S''
sg17
g38
sg30
Nsg24
g39
stRp2121
ag3
(g4
g5
(dp2122
g16
S''
sg42
S'descKey'
p2123
sg20
S''
sg44
S'Change'
p2124
sg21
S''
sg17
g2123
sg30
Nsg46
S'Original number of the change to which this description\n\t\t    applies. This may differ from the final change number if\n\t\t    the change is renumbered on submission.'
p2125
stRp2126
ag3
(g4
g5
(dp2127
g16
S''
sg42
S'description'
p2128
sg20
S''
sg44
S'Text'
p2129
sg21
S''
sg17
g2128
sg30
Nsg46
S'The change description itself'
p2130
stRp2131
atRp2132
sg115
g2109
sg42
S'db.desc'
p2133
sg117
S'0'
sg118
S'43'
p2134
sg120
g121
sg44
S'Desc'
p2135
sg46
S'Change descriptions'
p2136
stRp2137
sS'integtx'
p2138
g3
(g4
g5
(dp2139
g7
S'toFile, fromFile, startFromRev, endFromRev, \n\t\tstartToRev, endToRev'
p2140
sg9
S'21'
p2141
sg11
g3
(g12
g13
(lp2142
g3
(g4
g5
(dp2143
g16
S''
sg17
g18
sg19
g18
sg20
S''
sg21
S''
sg22
g23
sg24
g25
stRp2144
ag3
(g4
g5
(dp2145
g16
S''
sg19
g28
sg20
S''
sg22
g29
sg21
S''
sg17
g28
sg30
Nsg24
g31
stRp2146
ag3
(g4
g5
(dp2147
g16
S''
sg19
g34
sg20
S''
sg22
g23
sg21
S''
sg17
g34
sg30
Nsg24
g35
stRp2148
ag3
(g4
g5
(dp2149
g16
S''
sg19
g38
sg20
S''
sg22
g29
sg21
S''
sg17
g38
sg30
Nsg24
g39
stRp2150
ag3
(g4
g5
(dp2151
g16
S''
sg42
g1655
sg20
S''
sg44
g1656
sg21
S''
sg17
g1655
sg30
Nsg46
g1657
stRp2152
ag3
(g4
g5
(dp2153
g16
S''
sg42
g1660
sg20
S''
sg44
g1661
sg21
S''
sg17
g1660
sg30
Nsg46
g1662
stRp2154
ag3
(g4
g5
(dp2155
g16
S''
sg42
g1665
sg20
S''
sg44
g1666
sg21
S''
sg17
g1665
sg30
Nsg46
g1667
stRp2156
ag3
(g4
g5
(dp2157
g16
S''
sg42
g1670
sg20
S''
sg44
g1671
sg21
S''
sg17
g1670
sg30
Nsg46
g1672
stRp2158
ag3
(g4
g5
(dp2159
g16
S''
sg42
g1675
sg20
S''
sg44
g1676
sg21
S''
sg17
g1675
sg30
Nsg46
g1677
stRp2160
ag3
(g4
g5
(dp2161
g16
S''
sg42
g1680
sg20
S''
sg44
g1681
sg21
S''
sg17
g1680
sg30
Nsg46
g1682
stRp2162
ag3
(g4
g5
(dp2163
g16
S''
sg42
g1685
sg20
S''
sg44
g1686
sg21
S''
sg17
g1685
sg30
Nsg46
g1687
stRp2164
ag3
(g4
g5
(dp2165
g16
S''
sg42
g1690
sg20
S''
sg44
g1691
sg21
S''
sg17
g1690
sg30
Nsg46
g1692
stRp2166
atRp2167
sg115
g2138
sg42
S'db.integtx'
p2168
sg117
S'0'
sg118
S'18'
p2169
sg120
g121
sg46
S'Temporary integration records'
p2170
sg44
S'Integed'
p2171
sg978
S'db.resolve'
p2172
stRp2173
sS'protect'
p2174
g3
(g4
g5
(dp2175
g7
S'seq'
p2176
sg9
S'49'
p2177
sg11
g3
(g12
g13
(lp2178
g3
(g4
g5
(dp2179
g16
S''
sg17
g18
sg19
g18
sg20
S''
sg21
S''
sg22
g23
sg24
g25
stRp2180
ag3
(g4
g5
(dp2181
g16
S''
sg19
g28
sg20
S''
sg22
g29
sg21
S''
sg17
g28
sg30
Nsg24
g31
stRp2182
ag3
(g4
g5
(dp2183
g16
S''
sg19
g34
sg20
S''
sg22
g23
sg21
S''
sg17
g34
sg30
Nsg24
g35
stRp2184
ag3
(g4
g5
(dp2185
g16
S''
sg19
g38
sg20
S''
sg22
g29
sg21
S''
sg17
g38
sg30
Nsg24
g39
stRp2186
ag3
(g4
g5
(dp2187
g16
S''
sg42
S'seq'
p2188
sg20
S''
sg44
S'Int'
p2189
sg21
S''
sg17
g2188
sg30
Nsg46
S'Sequence number: for ordering the protections table'
p2190
stRp2191
ag3
(g4
g5
(dp2192
g16
S''
sg42
S'isGroup'
p2193
sg20
S''
sg44
S'Int'
p2194
sg21
S''
sg17
g2193
sg30
Nsg46
S'Flag: 0 for a per-user setting, 1 for a per-group setting.'
p2195
stRp2196
ag3
(g4
g5
(dp2197
g16
S''
sg42
S'user'
p2198
sg20
S''
sg44
S'UserWild'
p2199
sg21
S''
sg17
g2198
sg30
Nsg46
S'User(s), or Group(s) for whom this record applies.'
p2200
stRp2201
ag3
(g4
g5
(dp2202
g16
S''
sg42
S'host'
p2203
sg20
S''
sg44
S'DomainWild'
p2204
sg21
S''
sg17
g2203
sg30
Nsg46
S'Domain(s) (IP addresses) for which this record applies.'
p2205
stRp2206
ag3
(g4
g5
(dp2207
g16
S''
sg42
S'perm'
p2208
sg20
S''
sg44
S'Perm'
p2209
sg21
S''
sg17
g2208
sg30
Nsg46
S'Permissions to be granted/revoked'
p2210
stRp2211
ag3
(g4
g5
(dp2212
g16
S''
sg42
S'mapFlag'
p2213
sg20
S''
sg44
S'MapFlag'
p2214
sg21
S''
sg17
g2213
sg30
Nsg46
S'Flag: Map the files in or out?'
p2215
stRp2216
ag3
(g4
g5
(dp2217
g16
S''
sg42
S'depotFile'
p2218
sg20
S''
sg44
S'Mapping'
p2219
sg21
S''
sg17
g2218
sg30
Nsg46
S'Files to be mapped in or out.'
p2220
stRp2221
atRp2222
sg115
g2174
sg42
S'db.protect'
p2223
sg117
S'4'
sg118
S'49'
p2224
sg120
g121
sg44
S'Protect'
p2225
sg46
S'The protections table'
p2226
stRp2227
sS'resolve'
p2228
g3
(g4
g5
(dp2229
g7
S'toFile, fromFile, startFromRev'
p2230
sg9
S'22'
p2231
sg11
g3
(g12
g13
(lp2232
g3
(g4
g5
(dp2233
g16
S''
sg17
g18
sg19
g18
sg20
S''
sg21
S''
sg22
g23
sg24
g25
stRp2234
ag3
(g4
g5
(dp2235
g16
S''
sg19
g28
sg20
S''
sg22
g29
sg21
S''
sg17
g28
sg30
Nsg24
g31
stRp2236
ag3
(g4
g5
(dp2237
g16
S''
sg19
g34
sg20
S''
sg22
g23
sg21
S''
sg17
g34
sg30
Nsg24
g35
stRp2238
ag3
(g4
g5
(dp2239
g16
S''
sg19
g38
sg20
S''
sg22
g29
sg21
S''
sg17
g38
sg30
Nsg24
g39
stRp2240
ag3
(g4
g5
(dp2241
g16
S''
sg42
g1986
sg20
S''
sg44
g1987
sg21
S''
sg17
g1986
sg30
Nsg46
g1988
stRp2242
ag3
(g4
g5
(dp2243
g16
S''
sg42
g1991
sg20
S''
sg44
g1992
sg21
S''
sg17
g1991
sg30
Nsg46
g1993
stRp2244
ag3
(g4
g5
(dp2245
g16
S''
sg42
g1996
sg20
S''
sg44
g1997
sg21
S''
sg17
g1996
sg30
Nsg46
g1998
stRp2246
ag3
(g4
g5
(dp2247
g16
S''
sg42
g2001
sg20
S''
sg44
g2002
sg21
S''
sg17
g2001
sg30
Nsg46
g2003
stRp2248
ag3
(g4
g5
(dp2249
g16
S''
sg42
g2006
sg20
S''
sg44
g2007
sg21
S''
sg17
g2006
sg30
Nsg46
g2008
stRp2250
ag3
(g4
g5
(dp2251
g16
S''
sg42
g2011
sg20
S''
sg44
g2012
sg21
S''
sg17
g2011
sg30
Nsg46
g2013
stRp2252
ag3
(g4
g5
(dp2253
g16
S''
sg42
g2016
sg20
S''
sg44
g2017
sg21
S''
sg17
g2016
sg30
Nsg46
g2018
stRp2254
ag3
(g4
g5
(dp2255
g16
S''
sg42
g2021
sg20
S''
sg44
g2022
sg21
S''
sg17
g2021
sg30
Nsg46
g2023
stRp2256
ag3
(g4
g5
(dp2257
g16
S''
sg42
g2026
sg20
S''
sg44
g2027
sg21
S''
sg17
g2026
sg30
Nsg46
g2028
stRp2258
ag3
(g4
g5
(dp2259
g16
S''
sg42
g2031
sg20
S''
sg44
g2032
sg21
S''
sg17
g2031
sg30
Nsg46
g2033
stRp2260
atRp2261
sg115
g2228
sg42
S'db.resolve'
p2262
sg117
S'1'
sg118
S'19'
p2263
sg120
g121
sg46
S'Pending integration records'
p2264
sg44
S'Resolve'
p2265
sg978
S'db.integed'
p2266
stRp2267
sS'locks'
p2268
g3
(g4
g5
(dp2269
g7
S'depotFile, client'
p2270
sg9
S'35'
p2271
sg11
g3
(g12
g13
(lp2272
g3
(g4
g5
(dp2273
g16
S''
sg17
g18
sg19
g18
sg20
S''
sg21
S''
sg22
g23
sg24
g25
stRp2274
ag3
(g4
g5
(dp2275
g16
S''
sg19
g28
sg20
S''
sg22
g29
sg21
S''
sg17
g28
sg30
Nsg24
g31
stRp2276
ag3
(g4
g5
(dp2277
g16
S''
sg19
g34
sg20
S''
sg22
g23
sg21
S''
sg17
g34
sg30
Nsg24
g35
stRp2278
ag3
(g4
g5
(dp2279
g16
S''
sg19
g38
sg20
S''
sg22
g29
sg21
S''
sg17
g38
sg30
Nsg24
g39
stRp2280
ag3
(g4
g5
(dp2281
g16
S''
sg42
S'depotFile'
p2282
sg20
S''
sg44
S'File'
p2283
sg21
S''
sg17
g2282
sg30
Nsg46
S'File in depot'
p2284
stRp2285
ag3
(g4
g5
(dp2286
g16
S''
sg42
S'client'
p2287
sg20
S''
sg44
S'Domain'
p2288
sg21
S''
sg17
g2287
sg30
Nsg46
S'Domain (client) in which file is open'
p2289
stRp2290
ag3
(g4
g5
(dp2291
g16
S''
sg42
S'user'
p2292
sg20
S''
sg44
S'User'
p2293
sg21
S''
sg17
g2292
sg30
Nsg46
S'User who presently has the file open'
p2294
stRp2295
ag3
(g4
g5
(dp2296
g16
S''
sg42
S'action'
p2297
sg20
S''
sg44
S'Action'
p2298
sg21
S''
sg17
g2297
sg30
Nsg46
S'Action file is open for: add, edit, delete, branch,\n\t\t    integrate, or import'
p2299
stRp2300
ag3
(g4
g5
(dp2301
g16
S''
sg42
S'isLocked'
p2302
sg20
S''
sg44
S'Int'
p2303
sg21
S''
sg17
g2302
sg30
Nsg46
S'Flag: 0 for unlocked, 1 for locked'
p2304
stRp2305
ag3
(g4
g5
(dp2306
g16
S''
sg42
S'change'
p2307
sg20
S''
sg44
S'Int'
p2308
sg21
S''
sg17
g2307
sg30
Nsg46
S'Changelist in which the revision is open: 0 for the\n\t\t    default changelist'
p2309
stRp2310
atRp2311
sg115
g2268
sg42
S'db.locks'
p2312
sg117
S'2'
sg118
S'24'
p2313
sg120
g121
sg44
S'Locks'
p2314
sg46
S'Locked/Unlocked files'
p2315
stRp2316
sS'revhx'
p2317
g3
(g4
g5
(dp2318
g7
S'depotFile'
p2319
sg9
S'26'
p2320
sg11
g3
(g12
g13
(lp2321
g3
(g4
g5
(dp2322
g16
S''
sg17
g18
sg19
g18
sg20
S''
sg21
S''
sg22
g23
sg24
g25
stRp2323
ag3
(g4
g5
(dp2324
g16
S''
sg19
g28
sg20
S''
sg22
g29
sg21
S''
sg17
g28
sg30
Nsg24
g31
stRp2325
ag3
(g4
g5
(dp2326
g16
S''
sg19
g34
sg20
S''
sg22
g23
sg21
S''
sg17
g34
sg30
Nsg24
g35
stRp2327
ag3
(g4
g5
(dp2328
g16
S''
sg19
g38
sg20
S''
sg22
g29
sg21
S''
sg17
g38
sg30
Nsg24
g39
stRp2329
ag3
(g4
g5
(dp2330
g16
S''
sg42
g139
sg20
S''
sg44
g140
sg21
S''
sg17
g139
sg30
Nsg46
g141
stRp2331
ag3
(g4
g5
(dp2332
g16
S''
sg42
g144
sg20
S''
sg44
g145
sg21
S''
sg17
g144
sg30
Nsg46
g146
stRp2333
ag3
(g4
g5
(dp2334
g16
S''
sg42
g149
sg20
S''
sg44
g150
sg21
S''
sg17
g149
sg30
Nsg46
g151
stRp2335
ag3
(g4
g5
(dp2336
g16
S''
sg42
g154
sg20
S''
sg44
g155
sg21
S''
sg17
g154
sg30
Nsg46
g156
stRp2337
ag3
(g4
g5
(dp2338
g16
S''
sg42
g159
sg20
S''
sg44
g160
sg21
S''
sg17
g159
sg30
Nsg46
g161
stRp2339
ag3
(g4
g5
(dp2340
g16
S''
sg42
g164
sg20
S''
sg44
g165
sg21
S''
sg17
g164
sg30
Nsg46
g166
stRp2341
ag3
(g4
g5
(dp2342
g16
S''
sg42
g169
sg20
S''
sg44
g170
sg21
S''
sg17
g169
sg30
Nsg46
g171
stRp2343
ag3
(g4
g5
(dp2344
g16
S''
sg42
g174
sg20
S''
sg44
g175
sg21
S''
sg17
g174
sg30
Nsg46
g176
stRp2345
ag3
(g4
g5
(dp2346
g16
S''
sg42
g179
sg20
S''
sg44
g180
sg21
S''
sg17
g179
sg30
Nsg46
g181
stRp2347
ag3
(g4
g5
(dp2348
g16
S''
sg42
g184
sg20
S''
sg44
g185
sg21
S''
sg17
g184
sg30
Nsg46
g186
stRp2349
ag3
(g4
g5
(dp2350
g16
S''
sg42
g189
sg20
S''
sg44
g190
sg21
S''
sg17
g189
sg30
Nsg46
g191
stRp2351
ag3
(g4
g5
(dp2352
g16
S''
sg42
g194
sg20
S''
sg44
g195
sg21
S''
sg17
g194
sg30
Nsg46
g196
stRp2353
ag3
(g4
g5
(dp2354
g16
S''
sg42
g199
sg20
S''
sg44
g200
sg21
S''
sg17
g199
sg30
Nsg46
g201
stRp2355
ag3
(g4
g5
(dp2356
g16
S''
sg42
g204
sg20
S''
sg44
g205
sg21
S''
sg17
g204
sg30
Nsg46
g206
stRp2357
atRp2358
sg115
g2317
sg42
S'db.revhx'
p2359
sg117
S'9'
sg118
S'31'
p2360
sg120
g121
sg44
S'Rev'
p2361
sg46
S'Revision records for revisions NOT deleted at the head revision'
p2362
stRp2363
sS'server'
p2364
g3
(g4
g5
(dp2365
g7
S'id'
p2366
sg9
S'5'
sg11
g3
(g12
g13
(lp2367
g3
(g4
g5
(dp2368
g16
S''
sg17
g18
sg19
g18
sg20
S''
sg21
S''
sg22
g23
sg24
g25
stRp2369
ag3
(g4
g5
(dp2370
g16
S''
sg19
g28
sg20
S''
sg22
g29
sg21
S''
sg17
g28
sg30
Nsg24
g31
stRp2371
ag3
(g4
g5
(dp2372
g16
S''
sg19
g34
sg20
S''
sg22
g23
sg21
S''
sg17
g34
sg30
Nsg24
g35
stRp2373
ag3
(g4
g5
(dp2374
g16
S''
sg19
g38
sg20
S''
sg22
g29
sg21
S''
sg17
g38
sg30
Nsg24
g39
stRp2375
ag3
(g4
g5
(dp2376
g16
S''
sg42
S'id'
p2377
sg20
S''
sg44
S'text'
p2378
sg21
S''
sg17
g2377
sg30
Nsg46
S'The server identifier'
p2379
stRp2380
ag3
(g4
g5
(dp2381
g16
S''
sg42
S'type'
p2382
sg20
S''
sg44
S'ServerType'
p2383
sg21
S''
sg17
g2382
sg30
Nsg46
S'The server type: server/broker/proxy'
p2384
stRp2385
ag3
(g4
g5
(dp2386
g16
S''
sg42
S'name'
p2387
sg20
S''
sg44
S'text'
p2388
sg21
S''
sg17
g2387
sg30
Nsg46
S'The P4NAME used by this server'
p2389
stRp2390
ag3
(g4
g5
(dp2391
g16
S''
sg42
S'address'
p2392
sg20
S''
sg44
S'text'
p2393
sg21
S''
sg17
g2392
sg30
Nsg46
S'The P4PORT used by this server'
p2394
stRp2395
ag3
(g4
g5
(dp2396
g16
S''
sg42
S'services'
p2397
sg20
S''
sg44
S'ServerServiceType'
p2398
sg21
S''
sg17
g2397
sg30
Nsg46
S'Service provided by this server'
p2399
stRp2400
ag3
(g4
g5
(dp2401
g16
S''
sg42
S'desc'
p2402
sg20
S''
sg44
S'text'
p2403
sg21
S''
sg17
g2402
sg30
Nsg46
S'Server description'
p2404
stRp2405
atRp2406
sg115
g2364
sg42
S'db.server'
p2407
sg117
S'0'
sg118
S'5'
sg120
g121
sg44
S'Server'
p2408
sg46
S'Perforce server specifications'
p2409
stRp2410
sS'userrp'
p2411
g3
(g4
g5
(dp2412
g7
S'user'
p2413
sg9
S'7'
sg11
g3
(g12
g13
(lp2414
g3
(g4
g5
(dp2415
g16
S''
sg17
g18
sg19
g18
sg20
S''
sg21
S''
sg22
g23
sg24
g25
stRp2416
ag3
(g4
g5
(dp2417
g16
S''
sg19
g28
sg20
S''
sg22
g29
sg21
S''
sg17
g28
sg30
Nsg24
g31
stRp2418
ag3
(g4
g5
(dp2419
g16
S''
sg19
g34
sg20
S''
sg22
g23
sg21
S''
sg17
g34
sg30
Nsg24
g35
stRp2420
ag3
(g4
g5
(dp2421
g16
S''
sg19
g38
sg20
S''
sg22
g29
sg21
S''
sg17
g38
sg30
Nsg24
g39
stRp2422
ag3
(g4
g5
(dp2423
g16
S''
sg42
g1817
sg20
S''
sg44
g1818
sg21
S''
sg17
g1817
sg30
Nsg46
g1819
stRp2424
ag3
(g4
g5
(dp2425
g16
S''
sg42
g1822
sg20
S''
sg44
g1823
sg21
S''
sg17
g1822
sg30
Nsg46
g1824
stRp2426
ag3
(g4
g5
(dp2427
g16
S''
sg42
g1827
sg20
S''
sg44
g1828
sg21
S''
sg17
g1827
sg30
Nsg46
g1829
stRp2428
ag3
(g4
g5
(dp2429
g16
S''
sg42
g1832
sg20
S''
sg44
g1833
sg21
S''
sg17
g1832
sg30
Nsg46
g1834
stRp2430
ag3
(g4
g5
(dp2431
g16
S''
sg42
g1837
sg20
S''
sg44
g1838
sg21
S''
sg17
g1837
sg30
Nsg46
g1839
stRp2432
ag3
(g4
g5
(dp2433
g16
S''
sg42
g1842
sg20
S''
sg44
g1843
sg21
S''
sg17
g1842
sg30
Nsg46
g1844
stRp2434
ag3
(g4
g5
(dp2435
g16
S''
sg42
g1847
sg20
S''
sg44
g1848
sg21
S''
sg17
g1847
sg30
Nsg46
g1849
stRp2436
ag3
(g4
g5
(dp2437
g16
S''
sg42
g1852
sg20
S''
sg44
g1853
sg21
S''
sg17
g1852
sg30
Nsg46
g1854
stRp2438
ag3
(g4
g5
(dp2439
g16
S''
sg42
g1857
sg20
S''
sg44
g1858
sg21
S''
sg17
g1857
sg30
Nsg46
g1859
stRp2440
ag3
(g4
g5
(dp2441
g16
S''
sg42
g1862
sg20
S''
sg44
g1863
sg21
S''
sg17
g1862
sg30
Nsg46
g1864
stRp2442
ag3
(g4
g5
(dp2443
g16
S''
sg42
g1867
sg20
S''
sg44
g1868
sg21
S''
sg17
g1867
sg30
Nsg46
g1869
stRp2444
ag3
(g4
g5
(dp2445
g16
S''
sg42
g1872
sg20
S''
sg44
g1873
sg21
S''
sg17
g1872
sg30
Nsg46
g1874
stRp2446
ag3
(g4
g5
(dp2447
g16
S''
sg42
g1877
sg20
S''
sg44
g1878
sg21
S''
sg17
g1877
sg30
Nsg46
g1879
stRp2448
ag3
(g4
g5
(dp2449
g16
S''
sg42
g1882
sg20
S''
sg44
g1883
sg21
S''
sg17
g1882
sg30
Nsg46
g1884
stRp2450
atRp2451
sg115
g2411
sg42
S'db.user.rp'
p2452
sg117
S'6'
sg118
S'7'
sg120
g121
sg44
S'User'
p2453
sg46
S"Used by replica server's to store login information"
p2454
stRp2455
sS'revcx'
p2456
g3
(g4
g5
(dp2457
g7
S'change, depotFile'
p2458
sg9
S'32'
p2459
sg11
g3
(g12
g13
(lp2460
g3
(g4
g5
(dp2461
g16
S''
sg17
g18
sg19
g18
sg20
S''
sg21
S''
sg22
g23
sg24
g25
stRp2462
ag3
(g4
g5
(dp2463
g16
S''
sg19
g28
sg20
S''
sg22
g29
sg21
S''
sg17
g28
sg30
Nsg24
g31
stRp2464
ag3
(g4
g5
(dp2465
g16
S''
sg19
g34
sg20
S''
sg22
g23
sg21
S''
sg17
g34
sg30
Nsg24
g35
stRp2466
ag3
(g4
g5
(dp2467
g16
S''
sg19
g38
sg20
S''
sg22
g29
sg21
S''
sg17
g38
sg30
Nsg24
g39
stRp2468
ag3
(g4
g5
(dp2469
g16
S''
sg42
S'change'
p2470
sg20
S''
sg44
S'Change'
p2471
sg21
S''
sg17
g2470
sg30
Nsg46
S'The changelist that created the revision'
p2472
stRp2473
ag3
(g4
g5
(dp2474
g16
S''
sg42
S'depotFile'
p2475
sg20
S''
sg44
S'File'
p2476
sg21
S''
sg17
g2475
sg30
Nsg46
S'The file name'
p2477
stRp2478
ag3
(g4
g5
(dp2479
g16
S''
sg42
S'depotRev'
p2480
sg20
S''
sg44
S'Rev'
p2481
sg21
S''
sg17
g2480
sg30
Nsg46
S'The revision number'
p2482
stRp2483
ag3
(g4
g5
(dp2484
g16
S''
sg42
S'action'
p2485
sg20
S''
sg44
S'Action'
p2486
sg21
S''
sg17
g2485
sg30
Nsg46
S'The action that created the revision'
p2487
stRp2488
atRp2489
sg115
g2456
sg42
S'db.revcx'
p2490
sg117
S'0'
sg118
S'29'
p2491
sg120
g121
sg44
S'RevCx'
p2492
sg46
S'Secondary index of db.rev'
p2493
stRp2494
sS'property'
p2495
g3
(g4
g5
(dp2496
g7
S'name, seq, type, scope'
p2497
sg9
S'50'
p2498
sg11
g3
(g12
g13
(lp2499
g3
(g4
g5
(dp2500
g16
S''
sg17
g18
sg19
g18
sg20
S''
sg21
S''
sg22
g23
sg24
g25
stRp2501
ag3
(g4
g5
(dp2502
g16
S''
sg19
g28
sg20
S''
sg22
g29
sg21
S''
sg17
g28
sg30
Nsg24
g31
stRp2503
ag3
(g4
g5
(dp2504
g16
S''
sg19
g34
sg20
S''
sg22
g23
sg21
S''
sg17
g34
sg30
Nsg24
g35
stRp2505
ag3
(g4
g5
(dp2506
g16
S''
sg19
g38
sg20
S''
sg22
g29
sg21
S''
sg17
g38
sg30
Nsg24
g39
stRp2507
ag3
(g4
g5
(dp2508
g16
S''
sg42
S'name'
p2509
sg20
S''
sg44
S'String'
p2510
sg21
S''
sg17
g2509
sg30
Nsg46
S'Property name'
p2511
stRp2512
ag3
(g4
g5
(dp2513
g16
S''
sg42
S'sequence'
p2514
sg20
S''
sg44
S'String'
p2515
sg21
S''
sg17
g2514
sg30
Nsg46
S'Sequence number'
p2516
stRp2517
ag3
(g4
g5
(dp2518
g16
S''
sg42
S'type'
p2519
sg20
S''
sg44
S'Integer'
p2520
sg21
S''
sg17
g2519
sg30
Nsg46
S'Property type'
p2521
stRp2522
ag3
(g4
g5
(dp2523
g16
S''
sg42
S'scope'
p2524
sg20
S''
sg44
S'String'
p2525
sg21
S''
sg17
g2524
sg30
Nsg46
S'Property scope'
p2526
stRp2527
ag3
(g4
g5
(dp2528
g16
S''
sg42
S'value'
p2529
sg20
S''
sg44
S'String'
p2530
sg21
S''
sg17
g2529
sg30
Nsg46
S'Property value'
p2531
stRp2532
ag3
(g4
g5
(dp2533
g16
S''
sg42
S'date'
p2534
sg20
S''
sg44
S'String'
p2535
sg21
S''
sg17
g2534
sg30
Nsg46
S'Property date'
p2536
stRp2537
ag3
(g4
g5
(dp2538
g16
S''
sg42
S'user'
p2539
sg20
S''
sg44
S'String'
p2540
sg21
S''
sg17
g2539
sg30
Nsg46
S'Property user'
p2541
stRp2542
atRp2543
sg115
g2495
sg42
S'db.property'
p2544
sg117
S'0'
sg118
S'50'
p2545
sg120
g121
sg44
S'Property'
p2546
sg46
S'Properties'
p2547
stRp2548
sS'review'
p2549
g3
(g4
g5
(dp2550
g7
S'user, seq'
p2551
sg9
S'16'
p2552
sg11
g3
(g12
g13
(lp2553
g3
(g4
g5
(dp2554
g16
S''
sg17
g18
sg19
g18
sg20
S''
sg21
S''
sg22
g23
sg24
g25
stRp2555
ag3
(g4
g5
(dp2556
g16
S''
sg19
g28
sg20
S''
sg22
g29
sg21
S''
sg17
g28
sg30
Nsg24
g31
stRp2557
ag3
(g4
g5
(dp2558
g16
S''
sg19
g34
sg20
S''
sg22
g23
sg21
S''
sg17
g34
sg30
Nsg24
g35
stRp2559
ag3
(g4
g5
(dp2560
g16
S''
sg19
g38
sg20
S''
sg22
g29
sg21
S''
sg17
g38
sg30
Nsg24
g39
stRp2561
ag3
(g4
g5
(dp2562
g16
S''
sg42
S'user'
p2563
sg20
S''
sg44
S'User'
p2564
sg21
S''
sg17
g2563
sg30
Nsg46
S'A user name'
p2565
stRp2566
ag3
(g4
g5
(dp2567
g16
S''
sg42
S'seq'
p2568
sg20
S''
sg44
S'Int'
p2569
sg21
S''
sg17
g2568
sg30
Nsg46
S'Sequence number: used for ordering multi-line views'
p2570
stRp2571
ag3
(g4
g5
(dp2572
g16
S''
sg42
S'mapFlag'
p2573
sg20
S''
sg44
S'MapFlag'
p2574
sg21
S''
sg17
g2573
sg30
Nsg46
S'Type of mapping'
p2575
stRp2576
ag3
(g4
g5
(dp2577
g16
S''
sg42
S'depotFile'
p2578
sg20
S''
sg44
S'Mapping'
p2579
sg21
S''
sg17
g2578
sg30
Nsg46
S'The files to be reviewed'
p2580
stRp2581
ag3
(g4
g5
(dp2582
g16
S''
sg42
S'type'
p2583
sg20
S''
sg44
S'Reviewer'
p2584
sg21
S''
sg17
g2583
sg30
Nsg46
S'Type of reviewer'
p2585
stRp2586
atRp2587
sg115
g2549
sg42
S'db.review'
p2588
sg117
S'1'
sg118
S'16'
p2589
sg120
g121
sg44
S'Review'
p2590
sg46
S"Contains user's review mappings"
p2591
stRp2592
sS'revux'
p2593
g3
(g4
g5
(dp2594
g7
S'depotFile'
p2595
sg9
S'31'
p2596
sg11
g3
(g12
g13
(lp2597
g3
(g4
g5
(dp2598
g16
S''
sg17
g18
sg19
g18
sg20
S''
sg21
S''
sg22
g23
sg24
g25
stRp2599
ag3
(g4
g5
(dp2600
g16
S''
sg19
g28
sg20
S''
sg22
g29
sg21
S''
sg17
g28
sg30
Nsg24
g31
stRp2601
ag3
(g4
g5
(dp2602
g16
S''
sg19
g34
sg20
S''
sg22
g23
sg21
S''
sg17
g34
sg30
Nsg24
g35
stRp2603
ag3
(g4
g5
(dp2604
g16
S''
sg19
g38
sg20
S''
sg22
g29
sg21
S''
sg17
g38
sg30
Nsg24
g39
stRp2605
ag3
(g4
g5
(dp2606
g16
S''
sg42
g139
sg20
S''
sg44
g140
sg21
S''
sg17
g139
sg30
Nsg46
g141
stRp2607
ag3
(g4
g5
(dp2608
g16
S''
sg42
g144
sg20
S''
sg44
g145
sg21
S''
sg17
g144
sg30
Nsg46
g146
stRp2609
ag3
(g4
g5
(dp2610
g16
S''
sg42
g149
sg20
S''
sg44
g150
sg21
S''
sg17
g149
sg30
Nsg46
g151
stRp2611
ag3
(g4
g5
(dp2612
g16
S''
sg42
g154
sg20
S''
sg44
g155
sg21
S''
sg17
g154
sg30
Nsg46
g156
stRp2613
ag3
(g4
g5
(dp2614
g16
S''
sg42
g159
sg20
S''
sg44
g160
sg21
S''
sg17
g159
sg30
Nsg46
g161
stRp2615
ag3
(g4
g5
(dp2616
g16
S''
sg42
g164
sg20
S''
sg44
g165
sg21
S''
sg17
g164
sg30
Nsg46
g166
stRp2617
ag3
(g4
g5
(dp2618
g16
S''
sg42
g169
sg20
S''
sg44
g170
sg21
S''
sg17
g169
sg30
Nsg46
g171
stRp2619
ag3
(g4
g5
(dp2620
g16
S''
sg42
g174
sg20
S''
sg44
g175
sg21
S''
sg17
g174
sg30
Nsg46
g176
stRp2621
ag3
(g4
g5
(dp2622
g16
S''
sg42
g179
sg20
S''
sg44
g180
sg21
S''
sg17
g179
sg30
Nsg46
g181
stRp2623
ag3
(g4
g5
(dp2624
g16
S''
sg42
g184
sg20
S''
sg44
g185
sg21
S''
sg17
g184
sg30
Nsg46
g186
stRp2625
ag3
(g4
g5
(dp2626
g16
S''
sg42
g189
sg20
S''
sg44
g190
sg21
S''
sg17
g189
sg30
Nsg46
g191
stRp2627
ag3
(g4
g5
(dp2628
g16
S''
sg42
g194
sg20
S''
sg44
g195
sg21
S''
sg17
g194
sg30
Nsg46
g196
stRp2629
ag3
(g4
g5
(dp2630
g16
S''
sg42
g199
sg20
S''
sg44
g200
sg21
S''
sg17
g199
sg30
Nsg46
g201
stRp2631
ag3
(g4
g5
(dp2632
g16
S''
sg42
g204
sg20
S''
sg44
g205
sg21
S''
sg17
g204
sg30
Nsg46
g206
stRp2633
atRp2634
sg115
g2593
sg42
S'db.revux'
p2635
sg117
S'9'
sg118
S'36'
p2636
sg120
g121
sg44
S'Rev'
p2637
sg46
S'Revision records for unload depot files'
p2638
stRp2639
s.