(dp1
S'domain'
p2
ccopy_reg
_reconstructor
p3
(clib.sqUtils
Storage
p4
c__builtin__
dict
p5
(dp6
S'keying'
p7
S'name'
p8
sS'fields'
p9
g3
(clib.sqUtils
Lst
p10
c__builtin__
list
p11
(lp12
g3
(g4
g5
(dp13
S'comment'
p14
S''
sS'fieldname'
p15
S'id'
p16
sS'name'
p17
g16
sS'default'
p18
S''
sS'label'
p19
S''
sS'type'
p20
S'integer'
p21
sS'desc'
p22
S'Record number as read in'
p23
stRp24
ag3
(g4
g5
(dp25
g14
S''
sg17
S'db_action'
p26
sg18
S''
sg20
S'string'
p27
sg19
S''
sg15
g26
sS'requires'
p28
Nsg22
S'Operation on table'
p29
stRp30
ag3
(g4
g5
(dp31
g14
S''
sg17
S'table_revision'
p32
sg18
S''
sg20
g21
sg19
S''
sg15
g32
sg28
Nsg22
S'Revision of the p4 schema table'
p33
stRp34
ag3
(g4
g5
(dp35
g14
S''
sg17
S'table_name'
p36
sg18
S''
sg20
g27
sg19
S''
sg15
g36
sg28
Nsg22
S'Redundant... but this is the table name'
p37
stRp38
ag3
(g4
g5
(dp39
g14
S''
sS'name'
p40
S'name'
p41
sg18
S''
sS'type'
p42
S'Domain'
p43
sg19
S''
sg15
g41
sg28
NsS'desc'
p44
S'Domain name'
p45
stRp46
ag3
(g4
g5
(dp47
g14
S''
sg40
S'type'
p48
sg18
S''
sg42
S'DomainType'
p49
sg19
S''
sg15
g48
sg28
Nsg44
S'Type of domain'
p50
stRp51
ag3
(g4
g5
(dp52
g14
S''
sg40
S'extra'
p53
sg18
S''
sg42
S'Text'
p54
sg19
S''
sg15
g53
sg28
Nsg44
S'Formerly "host". Associated host or, for labels, revision \n\t\t    number.'
p55
stRp56
ag3
(g4
g5
(dp57
g14
S''
sg40
S'mount'
p58
sg18
S''
sg42
S'Text'
p59
sg19
S''
sg15
g58
sg28
Nsg44
S'The client root'
p60
stRp61
ag3
(g4
g5
(dp62
g14
S''
sg40
S'mount2'
p63
sg18
S''
sg42
S'Text'
p64
sg19
S''
sg15
g63
sg28
Nsg44
S'Alternate client root'
p65
stRp66
ag3
(g4
g5
(dp67
g14
S''
sg40
S'mount3'
p68
sg18
S''
sg42
S'Text'
p69
sg19
S''
sg15
g68
sg28
Nsg44
S'Alternate client root'
p70
stRp71
ag3
(g4
g5
(dp72
g14
S''
sg40
S'owner'
p73
sg18
S''
sg42
S'User'
p74
sg19
S''
sg15
g73
sg28
Nsg44
S'Name of user who owns the domain.'
p75
stRp76
ag3
(g4
g5
(dp77
g14
S''
sg40
S'updateDate'
p78
sg18
S''
sg42
S'Date'
p79
sg19
S''
sg15
g78
sg28
Nsg44
S'Date of last update to domain specification.'
p80
stRp81
ag3
(g4
g5
(dp82
g14
S''
sg40
S'accessDate'
p83
sg18
S''
sg42
S'Date'
p84
sg19
S''
sg15
g83
sg28
Nsg44
S'Date of last access to domain specification.'
p85
stRp86
ag3
(g4
g5
(dp87
g14
S''
sg40
S'options'
p88
sg18
S''
sg42
S'DomainOpts'
p89
sg19
S''
sg15
g88
sg28
Nsg44
S'Options for client, label, and branch domains.'
p90
stRp91
ag3
(g4
g5
(dp92
g14
S''
sg40
S'description'
p93
sg18
S''
sg42
S'Text'
p94
sg19
S''
sg15
g93
sg28
Nsg44
S'Description of domain.'
p95
stRp96
atRp97
sS'tablename'
p98
g2
sS'version'
p99
S'4'
sS'schemaversion'
p100
S'2006.2'
p101
sg44
S'Domains: depots, clients, labels, branches and typemap'
p102
sg42
S'Domain'
p103
sS'lockseq'
p104
S'6'
sg40
S'db.domain'
p105
stRp106
sS'fixrev'
p107
g3
(g4
g5
(dp108
g7
S'change, job'
p109
sg9
g3
(g10
g11
(lp110
g3
(g4
g5
(dp111
g14
S''
sg15
g16
sg17
g16
sg18
S''
sg19
S''
sg20
g21
sg22
g23
stRp112
ag3
(g4
g5
(dp113
g14
S''
sg17
g26
sg18
S''
sg20
g27
sg19
S''
sg15
g26
sg28
Nsg22
g29
stRp114
ag3
(g4
g5
(dp115
g14
S''
sg17
g32
sg18
S''
sg20
g21
sg19
S''
sg15
g32
sg28
Nsg22
g33
stRp116
ag3
(g4
g5
(dp117
g14
S''
sg17
g36
sg18
S''
sg20
g27
sg19
S''
sg15
g36
sg28
Nsg22
g37
stRp118
ag3
(g4
g5
(dp119
g14
S''
sg40
S'job'
p120
sg18
S''
sg42
S'String'
p121
sg19
S''
sg15
g120
sg28
Nsg44
S'Job name'
p122
stRp123
ag3
(g4
g5
(dp124
g14
S''
sg40
S'change'
p125
sg18
S''
sg42
S'Change'
p126
sg19
S''
sg15
g125
sg28
Nsg44
S'Changelist number'
p127
stRp128
ag3
(g4
g5
(dp129
g14
S''
sg40
S'date'
p130
sg18
S''
sg42
S'Date'
p131
sg19
S''
sg15
g130
sg28
Nsg44
S'Date fix was recorded (may differ from date change was\n\t\t    submitted).'
p132
stRp133
ag3
(g4
g5
(dp134
g14
S''
sg40
S'status'
p135
sg18
S''
sg42
S'FixStatus'
p136
sg19
S''
sg15
g135
sg28
Nsg44
S'Status of the job'
p137
stRp138
ag3
(g4
g5
(dp139
g14
S''
sg40
S'client'
p140
sg18
S''
sg42
S'Domain'
p141
sg19
S''
sg15
g140
sg28
Nsg44
S'The client where the fix originated'
p142
stRp143
ag3
(g4
g5
(dp144
g14
S''
sg40
S'user'
p145
sg18
S''
sg42
S'User'
p146
sg19
S''
sg15
g145
sg28
Nsg44
S'The user who fixed the job'
p147
stRp148
atRp149
sg98
g107
sg40
S'db.fixrev'
p150
sg99
S'1'
sg100
g101
sS'seeAlso'
p151
S'db.fix'
p152
sg42
S'Fix'
p153
sg104
S'33'
p154
sg44
S'Fix records - indexed by change'
p155
stRp156
sS'traits'
p157
g3
(g4
g5
(dp158
g7
S'traitLot, name'
p159
sg9
g3
(g10
g11
(lp160
g3
(g4
g5
(dp161
g14
S''
sg15
g16
sg17
g16
sg18
S''
sg19
S''
sg20
g21
sg22
g23
stRp162
ag3
(g4
g5
(dp163
g14
S''
sg17
g26
sg18
S''
sg20
g27
sg19
S''
sg15
g26
sg28
Nsg22
g29
stRp164
ag3
(g4
g5
(dp165
g14
S''
sg17
g32
sg18
S''
sg20
g21
sg19
S''
sg15
g32
sg28
Nsg22
g33
stRp166
ag3
(g4
g5
(dp167
g14
S''
sg17
g36
sg18
S''
sg20
g27
sg19
S''
sg15
g36
sg28
Nsg22
g37
stRp168
ag3
(g4
g5
(dp169
g14
S''
sg40
S'traitLot'
p170
sg18
S''
sg42
S'Int'
p171
sg19
S''
sg15
g170
sg28
Nsg44
S'Indicates a specific collection of traits (referred to \n\t\t    externally as "attributes".)'
p172
stRp173
ag3
(g4
g5
(dp174
g14
S''
sg40
S'name'
p175
sg18
S''
sg42
S'String'
p176
sg19
S''
sg15
g175
sg28
Nsg44
S'Trait (attribute) name'
p177
stRp178
ag3
(g4
g5
(dp179
g14
S''
sg40
S'type'
p180
sg18
S''
sg42
S'TraitType'
p181
sg19
S''
sg15
g180
sg28
Nsg44
S'Type of trait'
p182
stRp183
ag3
(g4
g5
(dp184
g14
S''
sg40
S'value'
p185
sg18
S''
sg42
S'Octet'
p186
sg19
S''
sg15
g185
sg28
Nsg44
S'The value'
p187
stRp188
atRp189
sg98
g157
sg99
S'0'
sg100
g101
sg44
S'Attributes associated with file revisions'
p190
sg42
S'Trait'
p191
sg104
S'24'
p192
sg40
S'db.traits'
p193
stRp194
sS'have'
p195
g3
(g4
g5
(dp196
g7
S'clientFile'
p197
sg9
g3
(g10
g11
(lp198
g3
(g4
g5
(dp199
g14
S''
sg15
g16
sg17
g16
sg18
S''
sg19
S''
sg20
g21
sg22
g23
stRp200
ag3
(g4
g5
(dp201
g14
S''
sg17
g26
sg18
S''
sg20
g27
sg19
S''
sg15
g26
sg28
Nsg22
g29
stRp202
ag3
(g4
g5
(dp203
g14
S''
sg17
g32
sg18
S''
sg20
g21
sg19
S''
sg15
g32
sg28
Nsg22
g33
stRp204
ag3
(g4
g5
(dp205
g14
S''
sg17
g36
sg18
S''
sg20
g27
sg19
S''
sg15
g36
sg28
Nsg22
g37
stRp206
ag3
(g4
g5
(dp207
g14
S''
sg40
S'clientFile'
p208
sg18
S''
sg42
S'File'
p209
sg19
S''
sg15
g208
sg28
Nsg44
S'The file in its location on the client'
p210
stRp211
ag3
(g4
g5
(dp212
g14
S''
sg40
S'depotFile'
p213
sg18
S''
sg42
S'File'
p214
sg19
S''
sg15
g213
sg28
Nsg44
S'The file in the depot'
p215
stRp216
ag3
(g4
g5
(dp217
g14
S''
sg40
S'haveRev'
p218
sg18
S''
sg42
S'Rev'
p219
sg19
S''
sg15
g218
sg28
Nsg44
S'The revision synced to the client'
p220
stRp221
ag3
(g4
g5
(dp222
g14
S''
sg40
S'type'
p223
sg18
S''
sg42
S'FileType'
p224
sg19
S''
sg15
g223
sg28
Nsg44
S'The filetype of the synced revision'
p225
stRp226
atRp227
sg98
g195
sg99
S'2'
sg100
g101
sg44
S"Contains the 'have-list' for all clients"
p228
sg42
S'Have'
p229
sg104
S'9'
sg40
S'db.have'
p230
stRp231
sS'ixtext'
p232
g3
(g4
g5
(dp233
g7
S'word, attr, value'
p234
sg9
g3
(g10
g11
(lp235
g3
(g4
g5
(dp236
g14
S''
sg15
g16
sg17
g16
sg18
S''
sg19
S''
sg20
g21
sg22
g23
stRp237
ag3
(g4
g5
(dp238
g14
S''
sg17
g26
sg18
S''
sg20
g27
sg19
S''
sg15
g26
sg28
Nsg22
g29
stRp239
ag3
(g4
g5
(dp240
g14
S''
sg17
g32
sg18
S''
sg20
g21
sg19
S''
sg15
g32
sg28
Nsg22
g33
stRp241
ag3
(g4
g5
(dp242
g14
S''
sg17
g36
sg18
S''
sg20
g27
sg19
S''
sg15
g36
sg28
Nsg22
g37
stRp243
ag3
(g4
g5
(dp244
g14
S''
sg40
S'word'
p245
sg18
S''
sg42
S'String'
p246
sg19
S''
sg15
g245
sg28
Nsg44
S'The word being indexed'
p247
stRp248
ag3
(g4
g5
(dp249
g14
S''
sg40
S'attr'
p250
sg18
S''
sg42
S'Int'
p251
sg19
S''
sg15
g250
sg28
Nsg44
S'The attribute number (from the jobspec) to which this\n\t\t    word belongs'
p252
stRp253
ag3
(g4
g5
(dp254
g14
S''
sg40
S'value'
p255
sg18
S''
sg42
S'String'
p256
sg19
S''
sg15
g255
sg28
Nsg44
S'A job name'
p257
stRp258
atRp259
sg98
g232
sg40
S'db.ixtext'
p260
sg99
S'0'
sg100
g101
sg151
S'db.ixdate'
p261
sg42
S'IndexText'
p262
sg104
S'37'
p263
sg44
S'Indexing data for non-date-valued job attributes.'
p264
stRp265
sS'message'
p266
g3
(g4
g5
(dp267
g7
S'language, id'
p268
sg9
g3
(g10
g11
(lp269
g3
(g4
g5
(dp270
g14
S''
sg15
g16
sg17
g16
sg18
S''
sg19
S''
sg20
g21
sg22
g23
stRp271
ag3
(g4
g5
(dp272
g14
S''
sg17
g26
sg18
S''
sg20
g27
sg19
S''
sg15
g26
sg28
Nsg22
g29
stRp273
ag3
(g4
g5
(dp274
g14
S''
sg17
g32
sg18
S''
sg20
g21
sg19
S''
sg15
g32
sg28
Nsg22
g33
stRp275
ag3
(g4
g5
(dp276
g14
S''
sg17
g36
sg18
S''
sg20
g27
sg19
S''
sg15
g36
sg28
Nsg22
g37
stRp277
ag3
(g4
g5
(dp278
g14
S''
sg40
S'language'
p279
sg18
S''
sg42
S'String'
p280
sg19
S''
sg15
g279
sg28
Nsg44
S'The language for which this message applies'
p281
stRp282
ag3
(g4
g5
(dp283
g14
S''
sg40
S'id'
p284
sg18
S''
sg42
S'Int'
p285
sg19
S''
sg15
g284
sg28
Nsg44
S'The message number'
p286
stRp287
ag3
(g4
g5
(dp288
g14
S''
sg40
S'message'
p289
sg18
S''
sg42
S'String'
p290
sg19
S''
sg15
g289
sg28
Nsg44
S'The message text'
p291
stRp292
atRp293
sg98
g266
sg99
S'0'
sg100
g101
sg44
S'System messages'
p294
sg42
S'Message'
p295
sg104
S'39'
p296
sg40
S'db.message'
p297
stRp298
sS'label'
p299
g3
(g4
g5
(dp300
g7
S'name, depotFile'
p301
sg9
g3
(g10
g11
(lp302
g3
(g4
g5
(dp303
g14
S''
sg15
g16
sg17
g16
sg18
S''
sg19
S''
sg20
g21
sg22
g23
stRp304
ag3
(g4
g5
(dp305
g14
S''
sg17
g26
sg18
S''
sg20
g27
sg19
S''
sg15
g26
sg28
Nsg22
g29
stRp306
ag3
(g4
g5
(dp307
g14
S''
sg17
g32
sg18
S''
sg20
g21
sg19
S''
sg15
g32
sg28
Nsg22
g33
stRp308
ag3
(g4
g5
(dp309
g14
S''
sg17
g36
sg18
S''
sg20
g27
sg19
S''
sg15
g36
sg28
Nsg22
g37
stRp310
ag3
(g4
g5
(dp311
g14
S''
sg40
S'name'
p312
sg18
S''
sg42
S'Domain'
p313
sg19
S''
sg15
g312
sg28
Nsg44
S'Name of the label'
p314
stRp315
ag3
(g4
g5
(dp316
g14
S''
sg40
S'depotFile'
p317
sg18
S''
sg42
S'File'
p318
sg19
S''
sg15
g317
sg28
Nsg44
S'File name'
p319
stRp320
ag3
(g4
g5
(dp321
g14
S''
sg40
S'haveRev'
p322
sg18
S''
sg42
S'Rev'
p323
sg19
S''
sg15
g322
sg28
Nsg44
S'The revision of the file in the label'
p324
stRp325
atRp326
sg98
g299
sg99
S'0'
sg100
g101
sg44
S'Lists the revisions of files in labels.'
p327
sg42
S'Label'
p328
sg104
S'10'
p329
sg40
S'db.label'
p330
stRp331
sS'jobdesc'
p332
g3
(g4
g5
(dp333
g7
S'job'
p334
sg9
g3
(g10
g11
(lp335
g3
(g4
g5
(dp336
g14
S''
sg15
g16
sg17
g16
sg18
S''
sg19
S''
sg20
g21
sg22
g23
stRp337
ag3
(g4
g5
(dp338
g14
S''
sg17
g26
sg18
S''
sg20
g27
sg19
S''
sg15
g26
sg28
Nsg22
g29
stRp339
ag3
(g4
g5
(dp340
g14
S''
sg17
g32
sg18
S''
sg20
g21
sg19
S''
sg15
g32
sg28
Nsg22
g33
stRp341
ag3
(g4
g5
(dp342
g14
S''
sg17
g36
sg18
S''
sg20
g27
sg19
S''
sg15
g36
sg28
Nsg22
g37
stRp343
ag3
(g4
g5
(dp344
g14
S''
sg40
S'xjob'
p345
sg18
S''
sg42
S'String'
p346
sg19
S''
sg15
g345
sg28
Nsg44
S'The job name'
p347
stRp348
ag3
(g4
g5
(dp349
g14
S''
sg40
S'xdescription'
p350
sg18
S''
sg42
S'Text'
p351
sg19
S''
sg15
g350
sg28
Nsg44
S'Jobdescription'
p352
stRp353
atRp354
sg98
g332
sg40
S'db.jobdesc'
p355
sg99
S'0'
sg100
g101
sg151
g3
(g10
g11
(lp356
S'db.bodtext'
p357
aS'db.boddate'
p358
atRp359
sg42
S'JobDesc'
p360
sg104
S'31'
p361
sg44
S'Obsolete in 98.2'
p362
stRp363
sS'group'
p364
g3
(g4
g5
(dp365
g7
S'user, group'
p366
sg9
g3
(g10
g11
(lp367
g3
(g4
g5
(dp368
g14
S''
sg15
g16
sg17
g16
sg18
S''
sg19
S''
sg20
g21
sg22
g23
stRp369
ag3
(g4
g5
(dp370
g14
S''
sg17
g26
sg18
S''
sg20
g27
sg19
S''
sg15
g26
sg28
Nsg22
g29
stRp371
ag3
(g4
g5
(dp372
g14
S''
sg17
g32
sg18
S''
sg20
g21
sg19
S''
sg15
g32
sg28
Nsg22
g33
stRp373
ag3
(g4
g5
(dp374
g14
S''
sg17
g36
sg18
S''
sg20
g27
sg19
S''
sg15
g36
sg28
Nsg22
g37
stRp375
ag3
(g4
g5
(dp376
g14
S''
sg40
S'user'
p377
sg18
S''
sg42
S'User'
p378
sg19
S''
sg15
g377
sg28
Nsg44
S'User name'
p379
stRp380
ag3
(g4
g5
(dp381
g14
S''
sg40
S'group'
p382
sg18
S''
sg42
S'User'
p383
sg19
S''
sg15
g382
sg28
Nsg44
S'Group name'
p384
stRp385
ag3
(g4
g5
(dp386
g14
S''
sg40
S'isSubGroup'
p387
sg18
S''
sg42
S'Int'
p388
sg19
S''
sg15
g387
sg28
Nsg44
S'Flag: 0 for groups which are not subgroups, 1 for groups \n\t\t    which are subgroups.'
p389
stRp390
ag3
(g4
g5
(dp391
g14
S''
sg40
S'maxResults'
p392
sg18
S''
sg42
S'MaxResults'
p393
sg19
S''
sg15
g392
sg28
Nsg44
S'MaxResults setting for the group.'
p394
stRp395
ag3
(g4
g5
(dp396
g14
S''
sg40
S'maxScanRows'
p397
sg18
S''
sg42
S'MaxScanRows'
p398
sg19
S''
sg15
g397
sg28
Nsg44
S'MaxScanRows setting for the group.'
p399
stRp400
ag3
(g4
g5
(dp401
g14
S''
sg40
S'maxLockTime'
p402
sg18
S''
sg42
S'MaxLockTime'
p403
sg19
S''
sg15
g402
sg28
Nsg44
S'MaxLockTime setting for the group.'
p404
stRp405
ag3
(g4
g5
(dp406
g14
S''
sg40
S'timeout'
p407
sg18
S''
sg42
S'Int'
p408
sg19
S''
sg15
g407
sg28
Nsg44
S'Length of time (in seconds) a login ticket remains valid.'
p409
stRp410
atRp411
sg98
g364
sg99
S'5'
sg100
g101
sg44
S'Lists groups known to Perforce'
p412
sg42
S'Group'
p413
sg104
S'4'
sg40
S'db.group'
p414
stRp415
sS'monitor'
p416
g3
(g4
g5
(dp417
g7
S'id'
p418
sg9
g3
(g10
g11
(lp419
g3
(g4
g5
(dp420
g14
S''
sg15
g16
sg17
g16
sg18
S''
sg19
S''
sg20
g21
sg22
g23
stRp421
ag3
(g4
g5
(dp422
g14
S''
sg17
g26
sg18
S''
sg20
g27
sg19
S''
sg15
g26
sg28
Nsg22
g29
stRp423
ag3
(g4
g5
(dp424
g14
S''
sg17
g32
sg18
S''
sg20
g21
sg19
S''
sg15
g32
sg28
Nsg22
g33
stRp425
ag3
(g4
g5
(dp426
g14
S''
sg17
g36
sg18
S''
sg20
g27
sg19
S''
sg15
g36
sg28
Nsg22
g37
stRp427
ag3
(g4
g5
(dp428
g14
S''
sg40
S'id'
p429
sg18
S''
sg42
S'Int'
p430
sg19
S''
sg15
g429
sg28
Nsg44
S'Thread/process id'
p431
stRp432
ag3
(g4
g5
(dp433
g14
S''
sg40
S'user'
p434
sg18
S''
sg42
S'User'
p435
sg19
S''
sg15
g434
sg28
Nsg44
S'Username of the user running the command'
p436
stRp437
ag3
(g4
g5
(dp438
g14
S''
sg40
S'function'
p439
sg18
S''
sg42
S'String'
p440
sg19
S''
sg15
g439
sg28
Nsg44
S'The command being executed.'
p441
stRp442
ag3
(g4
g5
(dp443
g14
S''
sg40
S'args'
p444
sg18
S''
sg42
S'String'
p445
sg19
S''
sg15
g444
sg28
Nsg44
S'Arguments passed to the command'
p446
stRp447
ag3
(g4
g5
(dp448
g14
S''
sg40
S'startDate'
p449
sg18
S''
sg42
S'Date'
p450
sg19
S''
sg15
g449
sg28
Nsg44
S'The date and time the command started'
p451
stRp452
ag3
(g4
g5
(dp453
g14
S''
sg40
S'runstate'
p454
sg18
S''
sg42
S'Int'
p455
sg19
S''
sg15
g454
sg28
Nsg44
S'Flag: 0 for running, 1 for terminated'
p456
stRp457
ag3
(g4
g5
(dp458
g14
S''
sg40
S'client'
p459
sg18
S''
sg42
S'Domain'
p460
sg19
S''
sg15
g459
sg28
Nsg44
S'The client workspace'
p461
stRp462
ag3
(g4
g5
(dp463
g14
S''
sg40
S'host'
p464
sg18
S''
sg42
S'Text'
p465
sg19
S''
sg15
g464
sg28
Nsg44
S'The IP address of the client'
p466
stRp467
ag3
(g4
g5
(dp468
g14
S''
sg40
S'prog'
p469
sg18
S''
sg42
S'Text'
p470
sg19
S''
sg15
g469
sg28
Nsg44
S'The name (and version) of the client program'
p471
stRp472
atRp473
sg98
g416
sg99
S'1'
sg100
g101
sg44
S'System messages'
p474
sg42
S'Monitor'
p475
sg104
S'40'
p476
sg40
S'db.monitor'
p477
stRp478
sS'working'
p479
g3
(g4
g5
(dp480
g7
S'clientFile'
p481
sg9
g3
(g10
g11
(lp482
g3
(g4
g5
(dp483
g14
S''
sg15
g16
sg17
g16
sg18
S''
sg19
S''
sg20
g21
sg22
g23
stRp484
ag3
(g4
g5
(dp485
g14
S''
sg17
g26
sg18
S''
sg20
g27
sg19
S''
sg15
g26
sg28
Nsg22
g29
stRp486
ag3
(g4
g5
(dp487
g14
S''
sg17
g32
sg18
S''
sg20
g21
sg19
S''
sg15
g32
sg28
Nsg22
g33
stRp488
ag3
(g4
g5
(dp489
g14
S''
sg17
g36
sg18
S''
sg20
g27
sg19
S''
sg15
g36
sg28
Nsg22
g37
stRp490
ag3
(g4
g5
(dp491
g14
S''
sg40
S'clientFile'
p492
sg18
S''
sg42
S'File'
p493
sg19
S''
sg15
g492
sg28
Nsg44
S'File on the client'
p494
stRp495
ag3
(g4
g5
(dp496
g14
S''
sg40
S'depotFile'
p497
sg18
S''
sg42
S'File'
p498
sg19
S''
sg15
g497
sg28
Nsg44
S'File in the depot'
p499
stRp500
ag3
(g4
g5
(dp501
g14
S''
sg40
S'client'
p502
sg18
S''
sg42
S'Domain'
p503
sg19
S''
sg15
g502
sg28
Nsg44
S'The client the file is opened on'
p504
stRp505
ag3
(g4
g5
(dp506
g14
S''
sg40
S'user'
p507
sg18
S''
sg42
S'User'
p508
sg19
S''
sg15
g507
sg28
Nsg44
S'The user who has the file opened'
p509
stRp510
ag3
(g4
g5
(dp511
g14
S''
sg40
S'haveRev'
p512
sg18
S''
sg42
S'Rev'
p513
sg19
S''
sg15
g512
sg28
Nsg44
S"Revision presently in user's client workspace.  This is \n\t\t    normally identical to workRev except for the case in which \n\t\t    you've tried to submit a file where you no longer have the \n\t\t    head revision. Perforce schedules the integrate (moves \n\t\t    workRev to headRev, but doesn't change the haveRev, so that \n\t\t    a p4 revert will return the file originally checked-out \n\t\t    instead of the new head revision."
p514
stRp515
ag3
(g4
g5
(dp516
g14
S''
sg40
S'workRev'
p517
sg18
S''
sg42
S'Rev'
p518
sg19
S''
sg15
g517
sg28
Nsg44
S'Working revision; this is identical to the haveRev except \n\t\t    in the case described above.'
p519
stRp520
ag3
(g4
g5
(dp521
g14
S''
sg40
S'isVirtual'
p522
sg18
S''
sg42
S'Int'
p523
sg19
S''
sg15
g522
sg28
Nsg44
S'Flag: if 1, file was opened with "p4 integ -v".'
p524
stRp525
ag3
(g4
g5
(dp526
g14
S''
sg40
S'type'
p527
sg18
S''
sg42
S'FileType'
p528
sg19
S''
sg15
g527
sg28
Nsg44
S'File type'
p529
stRp530
ag3
(g4
g5
(dp531
g14
S''
sg40
S'action'
p532
sg18
S''
sg42
S'Action'
p533
sg19
S''
sg15
g532
sg28
Nsg44
S"What the user's doing with the file"
p534
stRp535
ag3
(g4
g5
(dp536
g14
S''
sg40
S'change'
p537
sg18
S''
sg42
S'Change'
p538
sg19
S''
sg15
g537
sg28
Nsg44
S'Associated changelist, or zero for the default changelist.'
p539
stRp540
ag3
(g4
g5
(dp541
g14
S''
sg40
S'modTime'
p542
sg18
S''
sg42
S'Date'
p543
sg19
S''
sg15
g542
sg28
Nsg44
S'Date when file was opened and added to the pending \n\t\t    changelist.'
p544
stRp545
ag3
(g4
g5
(dp546
g14
S''
sg40
S'isLocked'
p547
sg18
S''
sg42
S'Int'
p548
sg19
S''
sg15
g547
sg28
Nsg44
S'Flag: 0 for unlocked, 1 for locked.'
p549
stRp550
ag3
(g4
g5
(dp551
g14
S''
sg40
S'digest'
p552
sg18
S''
sg42
S'Digest'
p553
sg19
S''
sg15
g552
sg28
Nsg44
S'MD5 digest of working file.'
p554
stRp555
ag3
(g4
g5
(dp556
g14
S''
sg40
S'size'
p557
sg18
S''
sg42
S'Int64'
p558
sg19
S''
sg15
g557
sg28
Nsg44
S'File size'
p559
stRp560
ag3
(g4
g5
(dp561
g14
S''
sg40
S'traitLot'
p562
sg18
S''
sg42
S'int'
p563
sg19
S''
sg15
g562
sg28
Nsg44
S'Group of traits associated with file revision.'
p564
stRp565
ag3
(g4
g5
(dp566
g14
S''
sg40
S'tampered'
p567
sg18
S''
sg42
S'TamperCheck'
p568
sg19
S''
sg15
g567
sg28
Nsg44
S'Flag indicating the tamper-state of the file in the\n\t\t    workspace.'
p569
stRp570
atRp571
sg98
g479
sg99
S'7'
sg100
g101
sg44
S'Records for work in progress'
p572
sg42
S'Working'
p573
sg104
S'23'
p574
sg40
S'db.working'
p575
stRp576
sS'fix'
p577
g3
(g4
g5
(dp578
g7
S'job, change'
p579
sg9
g3
(g10
g11
(lp580
g3
(g4
g5
(dp581
g14
S''
sg15
g16
sg17
g16
sg18
S''
sg19
S''
sg20
g21
sg22
g23
stRp582
ag3
(g4
g5
(dp583
g14
S''
sg17
g26
sg18
S''
sg20
g27
sg19
S''
sg15
g26
sg28
Nsg22
g29
stRp584
ag3
(g4
g5
(dp585
g14
S''
sg17
g32
sg18
S''
sg20
g21
sg19
S''
sg15
g32
sg28
Nsg22
g33
stRp586
ag3
(g4
g5
(dp587
g14
S''
sg17
g36
sg18
S''
sg20
g27
sg19
S''
sg15
g36
sg28
Nsg22
g37
stRp588
ag3
(g4
g5
(dp589
g14
S''
sg40
g120
sg18
S''
sg42
g121
sg19
S''
sg15
g120
sg28
Nsg44
g122
stRp590
ag3
(g4
g5
(dp591
g14
S''
sg40
g125
sg18
S''
sg42
g126
sg19
S''
sg15
g125
sg28
Nsg44
g127
stRp592
ag3
(g4
g5
(dp593
g14
S''
sg40
g130
sg18
S''
sg42
g131
sg19
S''
sg15
g130
sg28
Nsg44
g132
stRp594
ag3
(g4
g5
(dp595
g14
S''
sg40
g135
sg18
S''
sg42
g136
sg19
S''
sg15
g135
sg28
Nsg44
g137
stRp596
ag3
(g4
g5
(dp597
g14
S''
sg40
g140
sg18
S''
sg42
g141
sg19
S''
sg15
g140
sg28
Nsg44
g142
stRp598
ag3
(g4
g5
(dp599
g14
S''
sg40
g145
sg18
S''
sg42
g146
sg19
S''
sg15
g145
sg28
Nsg44
g147
stRp600
atRp601
sg98
g577
sg40
S'db.fix'
p602
sg99
S'1'
sg100
g101
sg151
S'db.fixrev'
p603
sg42
S'Fix'
p604
sg104
S'32'
p605
sg44
S'Fix records - indexed by job'
p606
stRp607
sS'rev'
p608
g3
(g4
g5
(dp609
g7
S'depotFile, depotRev'
p610
sg9
g3
(g10
g11
(lp611
g3
(g4
g5
(dp612
g14
S''
sg15
g16
sg17
g16
sg18
S''
sg19
S''
sg20
g21
sg22
g23
stRp613
ag3
(g4
g5
(dp614
g14
S''
sg17
g26
sg18
S''
sg20
g27
sg19
S''
sg15
g26
sg28
Nsg22
g29
stRp615
ag3
(g4
g5
(dp616
g14
S''
sg17
g32
sg18
S''
sg20
g21
sg19
S''
sg15
g32
sg28
Nsg22
g33
stRp617
ag3
(g4
g5
(dp618
g14
S''
sg17
g36
sg18
S''
sg20
g27
sg19
S''
sg15
g36
sg28
Nsg22
g37
stRp619
ag3
(g4
g5
(dp620
g14
S''
sg40
S'depotFile'
p621
sg18
S''
sg42
S'File'
p622
sg19
S''
sg15
g621
sg28
Nsg44
S'The file name'
p623
stRp624
ag3
(g4
g5
(dp625
g14
S''
sg40
S'depotRev'
p626
sg18
S''
sg42
S'Rev'
p627
sg19
S''
sg15
g626
sg28
Nsg44
S'The revision number'
p628
stRp629
ag3
(g4
g5
(dp630
g14
S''
sg40
S'type'
p631
sg18
S''
sg42
S'FileType'
p632
sg19
S''
sg15
g631
sg28
Nsg44
S'The file type of the revision'
p633
stRp634
ag3
(g4
g5
(dp635
g14
S''
sg40
S'action'
p636
sg18
S''
sg42
S'Action'
p637
sg19
S''
sg15
g636
sg28
Nsg44
S'The action that created the revision'
p638
stRp639
ag3
(g4
g5
(dp640
g14
S''
sg40
S'change'
p641
sg18
S''
sg42
S'Change'
p642
sg19
S''
sg15
g641
sg28
Nsg44
S'The changelist that created the revision'
p643
stRp644
ag3
(g4
g5
(dp645
g14
S''
sg40
S'date'
p646
sg18
S''
sg42
S'Date'
p647
sg19
S''
sg15
g646
sg28
Nsg44
S'The date/time the changelist that created the revision\n\t\t    was submitted'
p648
stRp649
ag3
(g4
g5
(dp650
g14
S''
sg40
S'modTime'
p651
sg18
S''
sg42
S'Date'
p652
sg19
S''
sg15
g651
sg28
Nsg44
S"The timestamp on the file in the user's workspace when\n\t\t    the revision was submitted."
p653
stRp654
ag3
(g4
g5
(dp655
g14
S''
sg40
S'digest'
p656
sg18
S''
sg42
S'Digest'
p657
sg19
S''
sg15
g656
sg28
Nsg44
S'The MD5 digest of the revision.'
p658
stRp659
ag3
(g4
g5
(dp660
g14
S''
sg40
S'size'
p661
sg18
S''
sg42
S'FileSize'
p662
sg19
S''
sg15
g661
sg28
Nsg44
S'The size of the file in bytes'
p663
stRp664
ag3
(g4
g5
(dp665
g14
S''
sg40
S'traitLot'
p666
sg18
S''
sg42
S'TraitLot'
p667
sg19
S''
sg15
g666
sg28
Nsg44
S'Group of traits (attributes) associated with the revision.'
p668
stRp669
ag3
(g4
g5
(dp670
g14
S''
sg40
S'lbrIsLazy'
p671
sg18
S''
sg42
S'Int'
p672
sg19
S''
sg15
g671
sg28
Nsg44
S'Flag specifying whether or not the revision gets its\n\t\t    content from another file (i.e. whether or not depotFile\n\t\t    and lbrFile differ)'
p673
stRp674
ag3
(g4
g5
(dp675
g14
S''
sg40
S'lbrFile'
p676
sg18
S''
sg42
S'File'
p677
sg19
S''
sg15
g676
sg28
Nsg44
S"Filename for librarian's purposes.  Specifies location in \n\t\t    the archives where the file containing the revision may\n\t\t    be found. Usually the same as depotFile, but differs in\n\t\t    the case of branched/copied revisions."
p678
stRp679
ag3
(g4
g5
(dp680
g14
S''
sg40
S'lbrRev'
p681
sg18
S''
sg42
S'Rev'
p682
sg19
S''
sg15
g681
sg28
Nsg44
S'The revision of lbrFile that contains the revision content.\n\t\t    Usually the same as depotRev, but differs in the case of\n\t\t    branched/copied revisions.'
p683
stRp684
ag3
(g4
g5
(dp685
g14
S''
sg40
S'lbrType'
p686
sg18
S''
sg42
S'FileType'
p687
sg19
S''
sg15
g686
sg28
Nsg44
S'The file type of the librarian revision. Usually the same\n\t\t    as type, but differs in the case of branched/copied \n\t\t    revisions.'
p688
stRp689
atRp690
sg98
g608
sg99
S'7'
sg100
g101
sg44
S'Revision records'
p691
sg42
S'Rev'
p692
sg104
S'17'
p693
sg40
S'db.rev'
p694
stRp695
sS'archive'
p696
g3
(g4
g5
(dp697
g7
S'lbrFile, lbrRev, depotFile, depotRev'
p698
sg9
g3
(g10
g11
(lp699
g3
(g4
g5
(dp700
g14
S''
sg15
g16
sg17
g16
sg18
S''
sg19
S''
sg20
g21
sg22
g23
stRp701
ag3
(g4
g5
(dp702
g14
S''
sg17
g26
sg18
S''
sg20
g27
sg19
S''
sg15
g26
sg28
Nsg22
g29
stRp703
ag3
(g4
g5
(dp704
g14
S''
sg17
g32
sg18
S''
sg20
g21
sg19
S''
sg15
g32
sg28
Nsg22
g33
stRp705
ag3
(g4
g5
(dp706
g14
S''
sg17
g36
sg18
S''
sg20
g27
sg19
S''
sg15
g36
sg28
Nsg22
g37
stRp707
ag3
(g4
g5
(dp708
g14
S''
sg40
S'lbrFile'
p709
sg18
S''
sg42
S'File'
p710
sg19
S''
sg15
g709
sg28
Nsg44
S"Specifies the location in the librarian's archives where\n\t\t    the revision may be found"
p711
stRp712
ag3
(g4
g5
(dp713
g14
S''
sg40
S'lbrRev'
p714
sg18
S''
sg42
S'Rev'
p715
sg19
S''
sg15
g714
sg28
Nsg44
S"Revision number in the librarian's archives"
p716
stRp717
ag3
(g4
g5
(dp718
g14
S''
sg40
S'depotFile'
p719
sg18
S''
sg42
S'File'
p720
sg19
S''
sg15
g719
sg28
Nsg44
S'Name of the file in the depot'
p721
stRp722
ag3
(g4
g5
(dp723
g14
S''
sg40
S'depotRev'
p724
sg18
S''
sg42
S'Rev'
p725
sg19
S''
sg15
g724
sg28
Nsg44
S'Name of the file in the depot'
p726
stRp727
ag3
(g4
g5
(dp728
g14
S''
sg40
S'lbrType'
p729
sg18
S''
sg42
S'FileType'
p730
sg19
S''
sg15
g729
sg28
Nsg44
S"File type for librarian's purposes"
p731
stRp732
atRp733
sg98
g696
sg99
S'1'
sg100
g101
sg44
S'Archive information for each revision that is \n\t\tlazy-copied. Obsoleted in 2006.2.'
p734
sg42
S'Archive'
p735
sg104
S'15'
p736
sg40
S'db.archive'
p737
stRp738
sS'trigger'
p739
g3
(g4
g5
(dp740
g7
S'seq'
p741
sg9
g3
(g10
g11
(lp742
g3
(g4
g5
(dp743
g14
S''
sg15
g16
sg17
g16
sg18
S''
sg19
S''
sg20
g21
sg22
g23
stRp744
ag3
(g4
g5
(dp745
g14
S''
sg17
g26
sg18
S''
sg20
g27
sg19
S''
sg15
g26
sg28
Nsg22
g29
stRp746
ag3
(g4
g5
(dp747
g14
S''
sg17
g32
sg18
S''
sg20
g21
sg19
S''
sg15
g32
sg28
Nsg22
g33
stRp748
ag3
(g4
g5
(dp749
g14
S''
sg17
g36
sg18
S''
sg20
g27
sg19
S''
sg15
g36
sg28
Nsg22
g37
stRp750
ag3
(g4
g5
(dp751
g14
S''
sg40
S'seq'
p752
sg18
S''
sg42
S'Int'
p753
sg19
S''
sg15
g752
sg28
Nsg44
S'Sequence number: for ordering the trigger list'
p754
stRp755
ag3
(g4
g5
(dp756
g14
S''
sg40
S'name'
p757
sg18
S''
sg42
S'String'
p758
sg19
S''
sg15
g757
sg28
Nsg44
S'Name of the trigger'
p759
stRp760
ag3
(g4
g5
(dp761
g14
S''
sg40
S'mapFlag'
p762
sg18
S''
sg42
S'MapFlag'
p763
sg19
S''
sg15
g762
sg28
Nsg44
S'Type of mapping: specifies whether the trigger applies \n\t\t    to the files or not.'
p764
stRp765
ag3
(g4
g5
(dp766
g14
S''
sg40
S'depotFile'
p767
sg18
S''
sg42
S'Mapping'
p768
sg19
S''
sg15
g767
sg28
Nsg44
S'The files to apply the trigger to'
p769
stRp770
ag3
(g4
g5
(dp771
g14
S''
sg40
S'trigger'
p772
sg18
S''
sg42
S'Trigger'
p773
sg19
S''
sg15
g772
sg28
Nsg44
S'Type of trigger'
p774
stRp775
ag3
(g4
g5
(dp776
g14
S''
sg40
S'action'
p777
sg18
S''
sg42
S'Text'
p778
sg19
S''
sg15
g777
sg28
Nsg44
S'Command to execute when trigger runs'
p779
stRp780
atRp781
sg98
g739
sg99
S'2'
sg100
g101
sg44
S'Trigger specifications'
p782
sg42
S'Trigger'
p783
sg104
S'25'
p784
sg40
S'db.trigger'
p785
stRp786
sS'logger'
p787
g3
(g4
g5
(dp788
g7
S'seq'
p789
sg9
g3
(g10
g11
(lp790
g3
(g4
g5
(dp791
g14
S''
sg15
g16
sg17
g16
sg18
S''
sg19
S''
sg20
g21
sg22
g23
stRp792
ag3
(g4
g5
(dp793
g14
S''
sg17
g26
sg18
S''
sg20
g27
sg19
S''
sg15
g26
sg28
Nsg22
g29
stRp794
ag3
(g4
g5
(dp795
g14
S''
sg17
g32
sg18
S''
sg20
g21
sg19
S''
sg15
g32
sg28
Nsg22
g33
stRp796
ag3
(g4
g5
(dp797
g14
S''
sg17
g36
sg18
S''
sg20
g27
sg19
S''
sg15
g36
sg28
Nsg22
g37
stRp798
ag3
(g4
g5
(dp799
g14
S''
sg40
S'seq'
p800
sg18
S''
sg42
S'Int'
p801
sg19
S''
sg15
g800
sg28
Nsg44
S'Sequence number of event'
p802
stRp803
ag3
(g4
g5
(dp804
g14
S''
sg40
S'key'
p805
sg18
S''
sg42
S'String'
p806
sg19
S''
sg15
g805
sg28
Nsg44
S"Either the word 'change' or the word 'job'"
p807
stRp808
ag3
(g4
g5
(dp809
g14
S''
sg40
S'attr'
p810
sg18
S''
sg42
S'String'
p811
sg19
S''
sg15
g810
sg28
Nsg44
S'The number of the change, or name of the job that was \n\t\t    altered.'
p812
stRp813
atRp814
sg98
g787
sg99
S'1'
sg100
g101
sg44
S"Support for 'p4 logger' command. Logs any changes to \n\t\tchangelists and jobs"
p815
sg42
S'Logger'
p816
sg104
S'2'
sg40
S'db.logger'
p817
stRp818
sS'depot'
p819
g3
(g4
g5
(dp820
g7
S'name'
p821
sg9
g3
(g10
g11
(lp822
g3
(g4
g5
(dp823
g14
S''
sg15
g16
sg17
g16
sg18
S''
sg19
S''
sg20
g21
sg22
g23
stRp824
ag3
(g4
g5
(dp825
g14
S''
sg17
g26
sg18
S''
sg20
g27
sg19
S''
sg15
g26
sg28
Nsg22
g29
stRp826
ag3
(g4
g5
(dp827
g14
S''
sg17
g32
sg18
S''
sg20
g21
sg19
S''
sg15
g32
sg28
Nsg22
g33
stRp828
ag3
(g4
g5
(dp829
g14
S''
sg17
g36
sg18
S''
sg20
g27
sg19
S''
sg15
g36
sg28
Nsg22
g37
stRp830
ag3
(g4
g5
(dp831
g14
S''
sg40
S'name'
p832
sg18
S''
sg42
S'Domain'
p833
sg19
S''
sg15
g832
sg28
Nsg44
S'Depot name'
p834
stRp835
ag3
(g4
g5
(dp836
g14
S''
sg40
S'type'
p837
sg18
S''
sg42
S'DepotType'
p838
sg19
S''
sg15
g837
sg28
Nsg44
S'Type of depot'
p839
stRp840
ag3
(g4
g5
(dp841
g14
S''
sg40
S'extra'
p842
sg18
S''
sg42
S'Text'
p843
sg19
S''
sg15
g842
sg28
Nsg44
S'For remote depots, the P4PORT address of the remote server.\n\t\t    For spec depots, the field contains a suffix to append to \n\t\t    the filename.'
p844
stRp845
ag3
(g4
g5
(dp846
g14
S''
sg40
S'map'
p847
sg18
S''
sg42
S'Text'
p848
sg19
S''
sg15
g847
sg28
Nsg44
S"The depot's map (path translation information).  For local \n\t\t    depots, this will be a path relative to the root directory.\n\t\t    For remote depots, this will be specified in terms of the \n\t\t    remote server's namespace."
p849
stRp850
atRp851
sg98
g819
sg99
S'1'
sg100
g101
sg44
S'Lists depots known to Perforce'
p852
sg42
S'Depot'
p853
sg104
S'5'
sg40
S'db.depot'
p854
stRp855
sS'revpx'
p856
g3
(g4
g5
(dp857
g7
S'depotFile, depotRev'
p858
sg9
g3
(g10
g11
(lp859
g3
(g4
g5
(dp860
g14
S''
sg15
g16
sg17
g16
sg18
S''
sg19
S''
sg20
g21
sg22
g23
stRp861
ag3
(g4
g5
(dp862
g14
S''
sg17
g26
sg18
S''
sg20
g27
sg19
S''
sg15
g26
sg28
Nsg22
g29
stRp863
ag3
(g4
g5
(dp864
g14
S''
sg17
g32
sg18
S''
sg20
g21
sg19
S''
sg15
g32
sg28
Nsg22
g33
stRp865
ag3
(g4
g5
(dp866
g14
S''
sg17
g36
sg18
S''
sg20
g27
sg19
S''
sg15
g36
sg28
Nsg22
g37
stRp867
ag3
(g4
g5
(dp868
g14
S''
sg40
g621
sg18
S''
sg42
g622
sg19
S''
sg15
g621
sg28
Nsg44
g623
stRp869
ag3
(g4
g5
(dp870
g14
S''
sg40
g626
sg18
S''
sg42
g627
sg19
S''
sg15
g626
sg28
Nsg44
g628
stRp871
ag3
(g4
g5
(dp872
g14
S''
sg40
g631
sg18
S''
sg42
g632
sg19
S''
sg15
g631
sg28
Nsg44
g633
stRp873
ag3
(g4
g5
(dp874
g14
S''
sg40
g636
sg18
S''
sg42
g637
sg19
S''
sg15
g636
sg28
Nsg44
g638
stRp875
ag3
(g4
g5
(dp876
g14
S''
sg40
g641
sg18
S''
sg42
g642
sg19
S''
sg15
g641
sg28
Nsg44
g643
stRp877
ag3
(g4
g5
(dp878
g14
S''
sg40
g646
sg18
S''
sg42
g647
sg19
S''
sg15
g646
sg28
Nsg44
g648
stRp879
ag3
(g4
g5
(dp880
g14
S''
sg40
g651
sg18
S''
sg42
g652
sg19
S''
sg15
g651
sg28
Nsg44
g653
stRp881
ag3
(g4
g5
(dp882
g14
S''
sg40
g656
sg18
S''
sg42
g657
sg19
S''
sg15
g656
sg28
Nsg44
g658
stRp883
ag3
(g4
g5
(dp884
g14
S''
sg40
g661
sg18
S''
sg42
g662
sg19
S''
sg15
g661
sg28
Nsg44
g663
stRp885
ag3
(g4
g5
(dp886
g14
S''
sg40
g666
sg18
S''
sg42
g667
sg19
S''
sg15
g666
sg28
Nsg44
g668
stRp887
ag3
(g4
g5
(dp888
g14
S''
sg40
g671
sg18
S''
sg42
g672
sg19
S''
sg15
g671
sg28
Nsg44
g673
stRp889
ag3
(g4
g5
(dp890
g14
S''
sg40
g676
sg18
S''
sg42
g677
sg19
S''
sg15
g676
sg28
Nsg44
g678
stRp891
ag3
(g4
g5
(dp892
g14
S''
sg40
g681
sg18
S''
sg42
g682
sg19
S''
sg15
g681
sg28
Nsg44
g683
stRp893
ag3
(g4
g5
(dp894
g14
S''
sg40
g686
sg18
S''
sg42
g687
sg19
S''
sg15
g686
sg28
Nsg44
g688
stRp895
atRp896
sg98
g856
sS'note'
p897
S'Only populated during content trigger execution to allow \n\t\ttriggers access to the revisions being submitted.'
p898
sg99
S'7'
sg100
g101
sg44
S'Pending revision records.'
p899
sg42
S'Rev'
p900
sg104
S'21'
p901
sg40
S'db.revpx'
p902
stRp903
sS'counters'
p904
g3
(g4
g5
(dp905
g7
S'name'
p906
sg9
g3
(g10
g11
(lp907
g3
(g4
g5
(dp908
g14
S''
sg15
g16
sg17
g16
sg18
S''
sg19
S''
sg20
g21
sg22
g23
stRp909
ag3
(g4
g5
(dp910
g14
S''
sg17
g26
sg18
S''
sg20
g27
sg19
S''
sg15
g26
sg28
Nsg22
g29
stRp911
ag3
(g4
g5
(dp912
g14
S''
sg17
g32
sg18
S''
sg20
g21
sg19
S''
sg15
g32
sg28
Nsg22
g33
stRp913
ag3
(g4
g5
(dp914
g14
S''
sg17
g36
sg18
S''
sg20
g27
sg19
S''
sg15
g36
sg28
Nsg22
g37
stRp915
ag3
(g4
g5
(dp916
g14
S''
sg40
S'name'
p917
sg18
S''
sg42
S'Counter'
p918
sg19
S''
sg15
g917
sg28
Nsg44
S'Counter name'
p919
stRp920
ag3
(g4
g5
(dp921
g14
S''
sg40
S'value'
p922
sg18
S''
sg42
S'Int'
p923
sg19
S''
sg15
g922
sg28
Nsg44
S'Counter value'
p924
stRp925
atRp926
sg98
g904
sg99
S'0'
sg100
g101
sg44
S'Perforce counters table'
p927
sg42
S'Counters'
p928
sg104
S'1'
sg40
S'db.counters'
p929
stRp930
sS'revdx'
p931
g3
(g4
g5
(dp932
g7
S'depotFile'
p933
sg9
g3
(g10
g11
(lp934
g3
(g4
g5
(dp935
g14
S''
sg15
g16
sg17
g16
sg18
S''
sg19
S''
sg20
g21
sg22
g23
stRp936
ag3
(g4
g5
(dp937
g14
S''
sg17
g26
sg18
S''
sg20
g27
sg19
S''
sg15
g26
sg28
Nsg22
g29
stRp938
ag3
(g4
g5
(dp939
g14
S''
sg17
g32
sg18
S''
sg20
g21
sg19
S''
sg15
g32
sg28
Nsg22
g33
stRp940
ag3
(g4
g5
(dp941
g14
S''
sg17
g36
sg18
S''
sg20
g27
sg19
S''
sg15
g36
sg28
Nsg22
g37
stRp942
ag3
(g4
g5
(dp943
g14
S''
sg40
g621
sg18
S''
sg42
g622
sg19
S''
sg15
g621
sg28
Nsg44
g623
stRp944
ag3
(g4
g5
(dp945
g14
S''
sg40
g626
sg18
S''
sg42
g627
sg19
S''
sg15
g626
sg28
Nsg44
g628
stRp946
ag3
(g4
g5
(dp947
g14
S''
sg40
g631
sg18
S''
sg42
g632
sg19
S''
sg15
g631
sg28
Nsg44
g633
stRp948
ag3
(g4
g5
(dp949
g14
S''
sg40
g636
sg18
S''
sg42
g637
sg19
S''
sg15
g636
sg28
Nsg44
g638
stRp950
ag3
(g4
g5
(dp951
g14
S''
sg40
g641
sg18
S''
sg42
g642
sg19
S''
sg15
g641
sg28
Nsg44
g643
stRp952
ag3
(g4
g5
(dp953
g14
S''
sg40
g646
sg18
S''
sg42
g647
sg19
S''
sg15
g646
sg28
Nsg44
g648
stRp954
ag3
(g4
g5
(dp955
g14
S''
sg40
g651
sg18
S''
sg42
g652
sg19
S''
sg15
g651
sg28
Nsg44
g653
stRp956
ag3
(g4
g5
(dp957
g14
S''
sg40
g656
sg18
S''
sg42
g657
sg19
S''
sg15
g656
sg28
Nsg44
g658
stRp958
ag3
(g4
g5
(dp959
g14
S''
sg40
g661
sg18
S''
sg42
g662
sg19
S''
sg15
g661
sg28
Nsg44
g663
stRp960
ag3
(g4
g5
(dp961
g14
S''
sg40
g666
sg18
S''
sg42
g667
sg19
S''
sg15
g666
sg28
Nsg44
g668
stRp962
ag3
(g4
g5
(dp963
g14
S''
sg40
g671
sg18
S''
sg42
g672
sg19
S''
sg15
g671
sg28
Nsg44
g673
stRp964
ag3
(g4
g5
(dp965
g14
S''
sg40
g676
sg18
S''
sg42
g677
sg19
S''
sg15
g676
sg28
Nsg44
g678
stRp966
ag3
(g4
g5
(dp967
g14
S''
sg40
g681
sg18
S''
sg42
g682
sg19
S''
sg15
g681
sg28
Nsg44
g683
stRp968
ag3
(g4
g5
(dp969
g14
S''
sg40
g686
sg18
S''
sg42
g687
sg19
S''
sg15
g686
sg28
Nsg44
g688
stRp970
atRp971
sg98
g931
sg99
S'7'
sg100
g101
sg44
S'Revision records for revisions deleted at the head revision.'
p972
sg42
S'Rev'
p973
sg104
S'19'
p974
sg40
S'db.revdx'
p975
stRp976
sS'revsx'
p977
g3
(g4
g5
(dp978
g7
S'depotFile, depotRev'
p979
sg9
g3
(g10
g11
(lp980
g3
(g4
g5
(dp981
g14
S''
sg15
g16
sg17
g16
sg18
S''
sg19
S''
sg20
g21
sg22
g23
stRp982
ag3
(g4
g5
(dp983
g14
S''
sg17
g26
sg18
S''
sg20
g27
sg19
S''
sg15
g26
sg28
Nsg22
g29
stRp984
ag3
(g4
g5
(dp985
g14
S''
sg17
g32
sg18
S''
sg20
g21
sg19
S''
sg15
g32
sg28
Nsg22
g33
stRp986
ag3
(g4
g5
(dp987
g14
S''
sg17
g36
sg18
S''
sg20
g27
sg19
S''
sg15
g36
sg28
Nsg22
g37
stRp988
ag3
(g4
g5
(dp989
g14
S''
sg40
g621
sg18
S''
sg42
g622
sg19
S''
sg15
g621
sg28
Nsg44
g623
stRp990
ag3
(g4
g5
(dp991
g14
S''
sg40
g626
sg18
S''
sg42
g627
sg19
S''
sg15
g626
sg28
Nsg44
g628
stRp992
ag3
(g4
g5
(dp993
g14
S''
sg40
g631
sg18
S''
sg42
g632
sg19
S''
sg15
g631
sg28
Nsg44
g633
stRp994
ag3
(g4
g5
(dp995
g14
S''
sg40
g636
sg18
S''
sg42
g637
sg19
S''
sg15
g636
sg28
Nsg44
g638
stRp996
ag3
(g4
g5
(dp997
g14
S''
sg40
g641
sg18
S''
sg42
g642
sg19
S''
sg15
g641
sg28
Nsg44
g643
stRp998
ag3
(g4
g5
(dp999
g14
S''
sg40
g646
sg18
S''
sg42
g647
sg19
S''
sg15
g646
sg28
Nsg44
g648
stRp1000
ag3
(g4
g5
(dp1001
g14
S''
sg40
g651
sg18
S''
sg42
g652
sg19
S''
sg15
g651
sg28
Nsg44
g653
stRp1002
ag3
(g4
g5
(dp1003
g14
S''
sg40
g656
sg18
S''
sg42
g657
sg19
S''
sg15
g656
sg28
Nsg44
g658
stRp1004
ag3
(g4
g5
(dp1005
g14
S''
sg40
g661
sg18
S''
sg42
g662
sg19
S''
sg15
g661
sg28
Nsg44
g663
stRp1006
ag3
(g4
g5
(dp1007
g14
S''
sg40
g666
sg18
S''
sg42
g667
sg19
S''
sg15
g666
sg28
Nsg44
g668
stRp1008
ag3
(g4
g5
(dp1009
g14
S''
sg40
g671
sg18
S''
sg42
g672
sg19
S''
sg15
g671
sg28
Nsg44
g673
stRp1010
ag3
(g4
g5
(dp1011
g14
S''
sg40
g676
sg18
S''
sg42
g677
sg19
S''
sg15
g676
sg28
Nsg44
g678
stRp1012
ag3
(g4
g5
(dp1013
g14
S''
sg40
g681
sg18
S''
sg42
g682
sg19
S''
sg15
g681
sg28
Nsg44
g683
stRp1014
ag3
(g4
g5
(dp1015
g14
S''
sg40
g686
sg18
S''
sg42
g687
sg19
S''
sg15
g686
sg28
Nsg44
g688
stRp1016
atRp1017
sg98
g977
sg99
S'7'
sg100
g101
sg44
S'Revision records for spec depot files.'
p1018
sg42
S'Rev'
p1019
sg104
S'22'
p1020
sg40
S'db.revsx'
p1021
stRp1022
sS'revcx'
p1023
g3
(g4
g5
(dp1024
g7
S'change, depotFile'
p1025
sg9
g3
(g10
g11
(lp1026
g3
(g4
g5
(dp1027
g14
S''
sg15
g16
sg17
g16
sg18
S''
sg19
S''
sg20
g21
sg22
g23
stRp1028
ag3
(g4
g5
(dp1029
g14
S''
sg17
g26
sg18
S''
sg20
g27
sg19
S''
sg15
g26
sg28
Nsg22
g29
stRp1030
ag3
(g4
g5
(dp1031
g14
S''
sg17
g32
sg18
S''
sg20
g21
sg19
S''
sg15
g32
sg28
Nsg22
g33
stRp1032
ag3
(g4
g5
(dp1033
g14
S''
sg17
g36
sg18
S''
sg20
g27
sg19
S''
sg15
g36
sg28
Nsg22
g37
stRp1034
ag3
(g4
g5
(dp1035
g14
S''
sg40
S'change'
p1036
sg18
S''
sg42
S'Change'
p1037
sg19
S''
sg15
g1036
sg28
Nsg44
S'The changelist that created the revision'
p1038
stRp1039
ag3
(g4
g5
(dp1040
g14
S''
sg40
S'depotFile'
p1041
sg18
S''
sg42
S'File'
p1042
sg19
S''
sg15
g1041
sg28
Nsg44
S'The file name'
p1043
stRp1044
ag3
(g4
g5
(dp1045
g14
S''
sg40
S'depotRev'
p1046
sg18
S''
sg42
S'Rev'
p1047
sg19
S''
sg15
g1046
sg28
Nsg44
S'The revision number'
p1048
stRp1049
ag3
(g4
g5
(dp1050
g14
S''
sg40
S'action'
p1051
sg18
S''
sg42
S'Action'
p1052
sg19
S''
sg15
g1051
sg28
Nsg44
S'The action that created the revision'
p1053
stRp1054
atRp1055
sg98
g1023
sg99
S'5'
sg100
g101
sg44
S'Secondary index of db.rev'
p1056
sg42
S'RevCx'
p1057
sg104
S'18'
p1058
sg40
S'db.revcx'
p1059
stRp1060
sS'integed'
p1061
g3
(g4
g5
(dp1062
g7
S'toFile, fromFile, startFromRev, endFromRev, \n\t\tstartToRev, endToRev'
p1063
sg9
g3
(g10
g11
(lp1064
g3
(g4
g5
(dp1065
g14
S''
sg15
g16
sg17
g16
sg18
S''
sg19
S''
sg20
g21
sg22
g23
stRp1066
ag3
(g4
g5
(dp1067
g14
S''
sg17
g26
sg18
S''
sg20
g27
sg19
S''
sg15
g26
sg28
Nsg22
g29
stRp1068
ag3
(g4
g5
(dp1069
g14
S''
sg17
g32
sg18
S''
sg20
g21
sg19
S''
sg15
g32
sg28
Nsg22
g33
stRp1070
ag3
(g4
g5
(dp1071
g14
S''
sg17
g36
sg18
S''
sg20
g27
sg19
S''
sg15
g36
sg28
Nsg22
g37
stRp1072
ag3
(g4
g5
(dp1073
g14
S''
sg40
S'toFile'
p1074
sg18
S''
sg42
S'File'
p1075
sg19
S''
sg15
g1074
sg28
Nsg44
S'File to which integration is being performed (target).'
p1076
stRp1077
ag3
(g4
g5
(dp1078
g14
S''
sg40
S'fromFile'
p1079
sg18
S''
sg42
S'File'
p1080
sg19
S''
sg15
g1079
sg28
Nsg44
S'File from which integration is being performed (source).'
p1081
stRp1082
ag3
(g4
g5
(dp1083
g14
S''
sg40
S'startFromRev'
p1084
sg18
S''
sg42
S'Rev'
p1085
sg19
S''
sg15
g1084
sg28
Nsg44
S'Starting revision of fromFile'
p1086
stRp1087
ag3
(g4
g5
(dp1088
g14
S''
sg40
S'endFromRev'
p1089
sg18
S''
sg42
S'Rev'
p1090
sg19
S''
sg15
g1089
sg28
Nsg44
S'Ending revision of fromFile. If integrating from a single \n\t\t    revision (not a revision range), the startFromRev and \n\t\t    endFromRev fields will be identical.'
p1091
stRp1092
ag3
(g4
g5
(dp1093
g14
S''
sg40
S'startToRev'
p1094
sg18
S''
sg42
S'Rev'
p1095
sg19
S''
sg15
g1094
sg28
Nsg44
S'Start revision of toFile into which integration was \n\t\t    performed.'
p1096
stRp1097
ag3
(g4
g5
(dp1098
g14
S''
sg40
S'endToRev'
p1099
sg18
S''
sg42
S'Rev'
p1100
sg19
S''
sg15
g1099
sg28
Nsg44
S'End revision of toFile into which integration was \n\t\t    performed. Only varies from startToRev for reverse \n\t\t    integration records.'
p1101
stRp1102
ag3
(g4
g5
(dp1103
g14
S''
sg40
S'how'
p1104
sg18
S''
sg42
S'IntegHow'
p1105
sg19
S''
sg15
g1104
sg28
Nsg44
S'Integration method: variations on \n\t\t    merge/branch/copy/ignore/delete.'
p1106
stRp1107
ag3
(g4
g5
(dp1108
g14
S''
sg40
S'change'
p1109
sg18
S''
sg42
S'Change'
p1110
sg19
S''
sg15
g1109
sg28
Nsg44
S'Changelist associated with the integration.'
p1111
stRp1112
atRp1113
sg98
g1061
sg40
S'db.integed'
p1114
sg99
S'0'
sg100
g101
sg151
S'db.resolve'
p1115
sg42
S'Integed'
p1116
sg104
S'12'
p1117
sg44
S'Permanent integration records'
p1118
stRp1119
sS'job'
p1120
g3
(g4
g5
(dp1121
g7
S'job'
p1122
sg9
g3
(g10
g11
(lp1123
g3
(g4
g5
(dp1124
g14
S''
sg15
g16
sg17
g16
sg18
S''
sg19
S''
sg20
g21
sg22
g23
stRp1125
ag3
(g4
g5
(dp1126
g14
S''
sg17
g26
sg18
S''
sg20
g27
sg19
S''
sg15
g26
sg28
Nsg22
g29
stRp1127
ag3
(g4
g5
(dp1128
g14
S''
sg17
g32
sg18
S''
sg20
g21
sg19
S''
sg15
g32
sg28
Nsg22
g33
stRp1129
ag3
(g4
g5
(dp1130
g14
S''
sg17
g36
sg18
S''
sg20
g27
sg19
S''
sg15
g36
sg28
Nsg22
g37
stRp1131
ag3
(g4
g5
(dp1132
g14
S''
sg40
S'job'
p1133
sg18
S''
sg42
S'String'
p1134
sg19
S''
sg15
g1133
sg28
Nsg44
S'The job name'
p1135
stRp1136
ag3
(g4
g5
(dp1137
g14
S''
sg40
S'xuser'
p1138
sg18
S''
sg42
S'User'
p1139
sg19
S''
sg15
g1138
sg28
Nsg44
S'User name: defunct'
p1140
stRp1141
ag3
(g4
g5
(dp1142
g14
S''
sg40
S'xdate'
p1143
sg18
S''
sg42
S'Date'
p1144
sg19
S''
sg15
g1143
sg28
Nsg44
S'The date: defunct'
p1145
stRp1146
ag3
(g4
g5
(dp1147
g14
S''
sg40
S'xstatus'
p1148
sg18
S''
sg42
S'JobStat'
p1149
sg19
S''
sg15
g1148
sg28
Nsg44
S'Job status: defunct'
p1150
stRp1151
ag3
(g4
g5
(dp1152
g14
S''
sg40
S'description'
p1153
sg18
S''
sg42
S'DescShort'
p1154
sg19
S''
sg15
g1153
sg28
Nsg44
S'Short description'
p1155
stRp1156
atRp1157
sg98
g1120
sg40
S'db.job'
p1158
sg99
S'0'
sg100
g101
sg151
g3
(g10
g11
(lp1159
S'db.bodtext'
p1160
aS'db.boddate'
p1161
atRp1162
sg42
S'Job'
p1163
sg104
S'29'
p1164
sg44
S'Job records'
p1165
stRp1166
sS'user'
p1167
g3
(g4
g5
(dp1168
g7
S'user'
p1169
sg9
g3
(g10
g11
(lp1170
g3
(g4
g5
(dp1171
g14
S''
sg15
g16
sg17
g16
sg18
S''
sg19
S''
sg20
g21
sg22
g23
stRp1172
ag3
(g4
g5
(dp1173
g14
S''
sg17
g26
sg18
S''
sg20
g27
sg19
S''
sg15
g26
sg28
Nsg22
g29
stRp1174
ag3
(g4
g5
(dp1175
g14
S''
sg17
g32
sg18
S''
sg20
g21
sg19
S''
sg15
g32
sg28
Nsg22
g33
stRp1176
ag3
(g4
g5
(dp1177
g14
S''
sg17
g36
sg18
S''
sg20
g27
sg19
S''
sg15
g36
sg28
Nsg22
g37
stRp1178
ag3
(g4
g5
(dp1179
g14
S''
sg40
S'user'
p1180
sg18
S''
sg42
S'User'
p1181
sg19
S''
sg15
g1180
sg28
Nsg44
S'The username'
p1182
stRp1183
ag3
(g4
g5
(dp1184
g14
S''
sg40
S'email'
p1185
sg18
S''
sg42
S'Text'
p1186
sg19
S''
sg15
g1185
sg28
Nsg44
S"The user's email address"
p1187
stRp1188
ag3
(g4
g5
(dp1189
g14
S''
sg40
S'jobView'
p1190
sg18
S''
sg42
S'Text'
p1191
sg19
S''
sg15
g1190
sg28
Nsg44
S"The user's job view"
p1192
stRp1193
ag3
(g4
g5
(dp1194
g14
S''
sg40
S'updateDate'
p1195
sg18
S''
sg42
S'Date'
p1196
sg19
S''
sg15
g1195
sg28
Nsg44
S'The date/time the user record was last updated'
p1197
stRp1198
ag3
(g4
g5
(dp1199
g14
S''
sg40
S'accessDate'
p1200
sg18
S''
sg42
S'Date'
p1201
sg19
S''
sg15
g1200
sg28
Nsg44
S'The date/time the user record was last used'
p1202
stRp1203
ag3
(g4
g5
(dp1204
g14
S''
sg40
S'fullName'
p1205
sg18
S''
sg42
S'Text'
p1206
sg19
S''
sg15
g1205
sg28
Nsg44
S"The user's full name"
p1207
stRp1208
ag3
(g4
g5
(dp1209
g14
S''
sg40
S'password'
p1210
sg18
S''
sg42
S'Password'
p1211
sg19
S''
sg15
g1210
sg28
Nsg44
S'The MD5 hash of the users (encrypted) password'
p1212
stRp1213
ag3
(g4
g5
(dp1214
g14
S''
sg40
S'strength'
p1215
sg18
S''
sg42
S'Strength'
p1216
sg19
S''
sg15
g1215
sg28
Nsg44
S"Measure of the strength of the user's password"
p1217
stRp1218
ag3
(g4
g5
(dp1219
g14
S''
sg40
S'ticket'
p1220
sg18
S''
sg42
S'Password'
p1221
sg19
S''
sg15
g1220
sg28
Nsg44
S"'p4 login' ticket for this user"
p1222
stRp1223
ag3
(g4
g5
(dp1224
g14
S''
sg40
S'endDate'
p1225
sg18
S''
sg42
S'Date'
p1226
sg19
S''
sg15
g1225
sg28
Nsg44
S"Date/time the user's ticket expires"
p1227
stRp1228
atRp1229
sg98
g1167
sg99
S'3'
sg100
g101
sg44
S'Lists users known to Perforce'
p1230
sg42
S'User'
p1231
sg104
S'3'
sg40
S'db.user'
p1232
stRp1233
sS'archmap'
p1234
g3
(g4
g5
(dp1235
g7
S'lbrFile, depotFile'
p1236
sg9
g3
(g10
g11
(lp1237
g3
(g4
g5
(dp1238
g14
S''
sg15
g16
sg17
g16
sg18
S''
sg19
S''
sg20
g21
sg22
g23
stRp1239
ag3
(g4
g5
(dp1240
g14
S''
sg17
g26
sg18
S''
sg20
g27
sg19
S''
sg15
g26
sg28
Nsg22
g29
stRp1241
ag3
(g4
g5
(dp1242
g14
S''
sg17
g32
sg18
S''
sg20
g21
sg19
S''
sg15
g32
sg28
Nsg22
g33
stRp1243
ag3
(g4
g5
(dp1244
g14
S''
sg17
g36
sg18
S''
sg20
g27
sg19
S''
sg15
g36
sg28
Nsg22
g37
stRp1245
ag3
(g4
g5
(dp1246
g14
S''
sg40
S'lbrFile'
p1247
sg18
S''
sg42
S'File'
p1248
sg19
S''
sg15
g1247
sg28
Nsg44
S'Paths in the librarian namespace that provide lazy\n\t\t    copies.'
p1249
stRp1250
ag3
(g4
g5
(dp1251
g14
S''
sg40
S'depotFile'
p1252
sg18
S''
sg42
S'File'
p1253
sg19
S''
sg15
g1252
sg28
Nsg44
S'Paths in the depot namespace that receive lazy copies.'
p1254
stRp1255
atRp1256
sg98
g1234
sg99
S'0'
sg100
g101
sg44
S'Mappings entries for lazy-copies.'
p1257
sg42
S'ArchMap'
p1258
sg104
S'16'
p1259
sg40
S'db.archmap'
p1260
stRp1261
sS'change'
p1262
g3
(g4
g5
(dp1263
g7
S'change'
p1264
sg9
g3
(g10
g11
(lp1265
g3
(g4
g5
(dp1266
g14
S''
sg15
g16
sg17
g16
sg18
S''
sg19
S''
sg20
g21
sg22
g23
stRp1267
ag3
(g4
g5
(dp1268
g14
S''
sg17
g26
sg18
S''
sg20
g27
sg19
S''
sg15
g26
sg28
Nsg22
g29
stRp1269
ag3
(g4
g5
(dp1270
g14
S''
sg17
g32
sg18
S''
sg20
g21
sg19
S''
sg15
g32
sg28
Nsg22
g33
stRp1271
ag3
(g4
g5
(dp1272
g14
S''
sg17
g36
sg18
S''
sg20
g27
sg19
S''
sg15
g36
sg28
Nsg22
g37
stRp1273
ag3
(g4
g5
(dp1274
g14
S''
sg40
S'change'
p1275
sg18
S''
sg42
S'Change'
p1276
sg19
S''
sg15
g1275
sg28
Nsg44
S'The change number'
p1277
stRp1278
ag3
(g4
g5
(dp1279
g14
S''
sg40
S'descKey'
p1280
sg18
S''
sg42
S'Change'
p1281
sg19
S''
sg15
g1280
sg28
Nsg44
S"The description key. Normally the same as 'change', but\n\t\t    may differ if a changelist was renumbered on submission."
p1282
stRp1283
ag3
(g4
g5
(dp1284
g14
S''
sg40
S'client'
p1285
sg18
S''
sg42
S'Domain'
p1286
sg19
S''
sg15
g1285
sg28
Nsg44
S'The client from which the change originates'
p1287
stRp1288
ag3
(g4
g5
(dp1289
g14
S''
sg40
S'user'
p1290
sg18
S''
sg42
S'User'
p1291
sg19
S''
sg15
g1290
sg28
Nsg44
S'The user who owns the change'
p1292
stRp1293
ag3
(g4
g5
(dp1294
g14
S''
sg40
S'date'
p1295
sg18
S''
sg42
S'Date'
p1296
sg19
S''
sg15
g1295
sg28
Nsg44
S'Date and time the changelist was submitted'
p1297
stRp1298
ag3
(g4
g5
(dp1299
g14
S''
sg40
S'status'
p1300
sg18
S''
sg42
S'Int'
p1301
sg19
S''
sg15
g1300
sg28
Nsg44
S'Flag: 0 for pending changes; 1 for committed changes.'
p1302
stRp1303
ag3
(g4
g5
(dp1304
g14
S''
sg40
S'description'
p1305
sg18
S''
sg42
S'DescShort'
p1306
sg19
S''
sg15
g1305
sg28
Nsg44
S'Short description of the change.'
p1307
stRp1308
atRp1309
sg98
g1262
sg99
S'0'
sg100
g101
sg44
S'Changelists'
p1310
sg42
S'Change'
p1311
sg104
S'26'
p1312
sg40
S'db.change'
p1313
stRp1314
sS'desc'
p1315
g3
(g4
g5
(dp1316
g7
S'descKey'
p1317
sg9
g3
(g10
g11
(lp1318
g3
(g4
g5
(dp1319
g14
S''
sg15
g16
sg17
g16
sg18
S''
sg19
S''
sg20
g21
sg22
g23
stRp1320
ag3
(g4
g5
(dp1321
g14
S''
sg17
g26
sg18
S''
sg20
g27
sg19
S''
sg15
g26
sg28
Nsg22
g29
stRp1322
ag3
(g4
g5
(dp1323
g14
S''
sg17
g32
sg18
S''
sg20
g21
sg19
S''
sg15
g32
sg28
Nsg22
g33
stRp1324
ag3
(g4
g5
(dp1325
g14
S''
sg17
g36
sg18
S''
sg20
g27
sg19
S''
sg15
g36
sg28
Nsg22
g37
stRp1326
ag3
(g4
g5
(dp1327
g14
S''
sg40
S'descKey'
p1328
sg18
S''
sg42
S'Change'
p1329
sg19
S''
sg15
g1328
sg28
Nsg44
S'Original number of the change to which this description\n\t\t    applies. This may differ from the final change number if\n\t\t    the change is renumbered on submission.'
p1330
stRp1331
ag3
(g4
g5
(dp1332
g14
S''
sg40
S'description'
p1333
sg18
S''
sg42
S'Text'
p1334
sg19
S''
sg15
g1333
sg28
Nsg44
S'The change description itself'
p1335
stRp1336
atRp1337
sg98
g1315
sg99
S'0'
sg100
g101
sg44
S'Change descriptions'
p1338
sg42
S'Desc'
p1339
sg104
S'28'
p1340
sg40
S'db.desc'
p1341
stRp1342
sS'protect'
p1343
g3
(g4
g5
(dp1344
g7
S'seq'
p1345
sg9
g3
(g10
g11
(lp1346
g3
(g4
g5
(dp1347
g14
S''
sg15
g16
sg17
g16
sg18
S''
sg19
S''
sg20
g21
sg22
g23
stRp1348
ag3
(g4
g5
(dp1349
g14
S''
sg17
g26
sg18
S''
sg20
g27
sg19
S''
sg15
g26
sg28
Nsg22
g29
stRp1350
ag3
(g4
g5
(dp1351
g14
S''
sg17
g32
sg18
S''
sg20
g21
sg19
S''
sg15
g32
sg28
Nsg22
g33
stRp1352
ag3
(g4
g5
(dp1353
g14
S''
sg17
g36
sg18
S''
sg20
g27
sg19
S''
sg15
g36
sg28
Nsg22
g37
stRp1354
ag3
(g4
g5
(dp1355
g14
S''
sg40
S'seq'
p1356
sg18
S''
sg42
S'Int'
p1357
sg19
S''
sg15
g1356
sg28
Nsg44
S'Sequence number: for ordering the protections table'
p1358
stRp1359
ag3
(g4
g5
(dp1360
g14
S''
sg40
S'isGroup'
p1361
sg18
S''
sg42
S'Int'
p1362
sg19
S''
sg15
g1361
sg28
Nsg44
S'Flag: 0 for a per-user setting, 1 for a per-group setting.'
p1363
stRp1364
ag3
(g4
g5
(dp1365
g14
S''
sg40
S'user'
p1366
sg18
S''
sg42
S'UserWild'
p1367
sg19
S''
sg15
g1366
sg28
Nsg44
S'User(s), or Group(s) for whom this record applies.'
p1368
stRp1369
ag3
(g4
g5
(dp1370
g14
S''
sg40
S'host'
p1371
sg18
S''
sg42
S'DomainWild'
p1372
sg19
S''
sg15
g1371
sg28
Nsg44
S'Domain(s) (IP addresses) for which this record applies.'
p1373
stRp1374
ag3
(g4
g5
(dp1375
g14
S''
sg40
S'perm'
p1376
sg18
S''
sg42
S'Perm'
p1377
sg19
S''
sg15
g1376
sg28
Nsg44
S'Permissions to be granted/revoked'
p1378
stRp1379
ag3
(g4
g5
(dp1380
g14
S''
sg40
S'mapFlag'
p1381
sg18
S''
sg42
S'MapFlag'
p1382
sg19
S''
sg15
g1381
sg28
Nsg44
S'Flag: Map the files in or out?'
p1383
stRp1384
ag3
(g4
g5
(dp1385
g14
S''
sg40
S'depotFile'
p1386
sg18
S''
sg42
S'Mapping'
p1387
sg19
S''
sg15
g1386
sg28
Nsg44
S'Files to be mapped in or out.'
p1388
stRp1389
atRp1390
sg98
g1343
sg99
S'4'
sg100
g101
sg44
S'The protections table'
p1391
sg42
S'Protect'
p1392
sg104
S'38'
p1393
sg40
S'db.protect'
p1394
stRp1395
sS'resolve'
p1396
g3
(g4
g5
(dp1397
g7
S'toFile, fromFile, startFromRev'
p1398
sg9
g3
(g10
g11
(lp1399
g3
(g4
g5
(dp1400
g14
S''
sg15
g16
sg17
g16
sg18
S''
sg19
S''
sg20
g21
sg22
g23
stRp1401
ag3
(g4
g5
(dp1402
g14
S''
sg17
g26
sg18
S''
sg20
g27
sg19
S''
sg15
g26
sg28
Nsg22
g29
stRp1403
ag3
(g4
g5
(dp1404
g14
S''
sg17
g32
sg18
S''
sg20
g21
sg19
S''
sg15
g32
sg28
Nsg22
g33
stRp1405
ag3
(g4
g5
(dp1406
g14
S''
sg17
g36
sg18
S''
sg20
g27
sg19
S''
sg15
g36
sg28
Nsg22
g37
stRp1407
ag3
(g4
g5
(dp1408
g14
S''
sg40
S'toFile'
p1409
sg18
S''
sg42
S'File'
p1410
sg19
S''
sg15
g1409
sg28
Nsg44
S'File to which integration is being performed (target).'
p1411
stRp1412
ag3
(g4
g5
(dp1413
g14
S''
sg40
S'fromFile'
p1414
sg18
S''
sg42
S'File'
p1415
sg19
S''
sg15
g1414
sg28
Nsg44
S'File from which integration is being performed (source).'
p1416
stRp1417
ag3
(g4
g5
(dp1418
g14
S''
sg40
S'startFromRev'
p1419
sg18
S''
sg42
S'Rev'
p1420
sg19
S''
sg15
g1419
sg28
Nsg44
S'Starting revision of fromFile'
p1421
stRp1422
ag3
(g4
g5
(dp1423
g14
S''
sg40
S'endFromRev'
p1424
sg18
S''
sg42
S'Rev'
p1425
sg19
S''
sg15
g1424
sg28
Nsg44
S'Ending revision of fromFile. If integrating from a single \n\t\t    revision (not a revision range), the startFromRev and \n\t\t    endFromRev fields will be identical.'
p1426
stRp1427
ag3
(g4
g5
(dp1428
g14
S''
sg40
S'startToRev'
p1429
sg18
S''
sg42
S'Rev'
p1430
sg19
S''
sg15
g1429
sg28
Nsg44
S'Start revision of toFile into which integration was \n\t\t    performed.'
p1431
stRp1432
ag3
(g4
g5
(dp1433
g14
S''
sg40
S'endToRev'
p1434
sg18
S''
sg42
S'Rev'
p1435
sg19
S''
sg15
g1434
sg28
Nsg44
S'End revision of toFile into which integration was \n\t\t    performed. Only varies from startToRev for reverse \n\t\t    integration records.'
p1436
stRp1437
ag3
(g4
g5
(dp1438
g14
S''
sg40
S'how'
p1439
sg18
S''
sg42
S'IntegHow'
p1440
sg19
S''
sg15
g1439
sg28
Nsg44
S'Integration method: variations on \n\t\t    merge/branch/copy/ignore/delete.'
p1441
stRp1442
ag3
(g4
g5
(dp1443
g14
S''
sg40
S'resolved'
p1444
sg18
S''
sg42
S'ResolvedStatus'
p1445
sg19
S''
sg15
g1444
sg28
Nsg44
S'How the user performed the resolve.'
p1446
stRp1447
ag3
(g4
g5
(dp1448
g14
S''
sg40
S'baseFile'
p1449
sg18
S''
sg42
S'File'
p1450
sg19
S''
sg15
g1449
sg28
Nsg44
S'File used as the base for merging.'
p1451
stRp1452
ag3
(g4
g5
(dp1453
g14
S''
sg40
S'baseRev'
p1454
sg18
S''
sg42
S'Rev'
p1455
sg19
S''
sg15
g1454
sg28
Nsg44
S'Revision of baseFile used as the merge base.'
p1456
stRp1457
atRp1458
sg98
g1396
sg40
S'db.resolve'
p1459
sg99
S'0'
sg100
g101
sg151
S'db.integed'
p1460
sg42
S'Resolve'
p1461
sg104
S'13'
p1462
sg44
S'Pending integration records'
p1463
stRp1464
sS'locks'
p1465
g3
(g4
g5
(dp1466
g7
S'depotFile, client'
p1467
sg9
g3
(g10
g11
(lp1468
g3
(g4
g5
(dp1469
g14
S''
sg15
g16
sg17
g16
sg18
S''
sg19
S''
sg20
g21
sg22
g23
stRp1470
ag3
(g4
g5
(dp1471
g14
S''
sg17
g26
sg18
S''
sg20
g27
sg19
S''
sg15
g26
sg28
Nsg22
g29
stRp1472
ag3
(g4
g5
(dp1473
g14
S''
sg17
g32
sg18
S''
sg20
g21
sg19
S''
sg15
g32
sg28
Nsg22
g33
stRp1474
ag3
(g4
g5
(dp1475
g14
S''
sg17
g36
sg18
S''
sg20
g27
sg19
S''
sg15
g36
sg28
Nsg22
g37
stRp1476
ag3
(g4
g5
(dp1477
g14
S''
sg40
S'depotFile'
p1478
sg18
S''
sg42
S'File'
p1479
sg19
S''
sg15
g1478
sg28
Nsg44
S'File in depot'
p1480
stRp1481
ag3
(g4
g5
(dp1482
g14
S''
sg40
S'client'
p1483
sg18
S''
sg42
S'Domain'
p1484
sg19
S''
sg15
g1483
sg28
Nsg44
S'Domain (client) in which file is open'
p1485
stRp1486
ag3
(g4
g5
(dp1487
g14
S''
sg40
S'user'
p1488
sg18
S''
sg42
S'User'
p1489
sg19
S''
sg15
g1488
sg28
Nsg44
S'User who presently has the file open'
p1490
stRp1491
ag3
(g4
g5
(dp1492
g14
S''
sg40
S'action'
p1493
sg18
S''
sg42
S'Action'
p1494
sg19
S''
sg15
g1493
sg28
Nsg44
S'Action file is open for: add, edit, delete, branch,\n\t\t    integrate, or import'
p1495
stRp1496
ag3
(g4
g5
(dp1497
g14
S''
sg40
S'isLocked'
p1498
sg18
S''
sg42
S'Int'
p1499
sg19
S''
sg15
g1498
sg28
Nsg44
S'Flag: 0 for unlocked, 1 for locked'
p1500
stRp1501
ag3
(g4
g5
(dp1502
g14
S''
sg40
S'change'
p1503
sg18
S''
sg42
S'Int'
p1504
sg19
S''
sg15
g1503
sg28
Nsg44
S'Changelist in which the revision is open: 0 for the\n\t\t    default changelist'
p1505
stRp1506
atRp1507
sg98
g1465
sg99
S'2'
sg100
g101
sg44
S'Locked/Unlocked files'
p1508
sg42
S'Locks'
p1509
sg104
S'14'
p1510
sg40
S'db.locks'
p1511
stRp1512
sS'revhx'
p1513
g3
(g4
g5
(dp1514
g7
S'depotFile'
p1515
sg9
g3
(g10
g11
(lp1516
g3
(g4
g5
(dp1517
g14
S''
sg15
g16
sg17
g16
sg18
S''
sg19
S''
sg20
g21
sg22
g23
stRp1518
ag3
(g4
g5
(dp1519
g14
S''
sg17
g26
sg18
S''
sg20
g27
sg19
S''
sg15
g26
sg28
Nsg22
g29
stRp1520
ag3
(g4
g5
(dp1521
g14
S''
sg17
g32
sg18
S''
sg20
g21
sg19
S''
sg15
g32
sg28
Nsg22
g33
stRp1522
ag3
(g4
g5
(dp1523
g14
S''
sg17
g36
sg18
S''
sg20
g27
sg19
S''
sg15
g36
sg28
Nsg22
g37
stRp1524
ag3
(g4
g5
(dp1525
g14
S''
sg40
g621
sg18
S''
sg42
g622
sg19
S''
sg15
g621
sg28
Nsg44
g623
stRp1526
ag3
(g4
g5
(dp1527
g14
S''
sg40
g626
sg18
S''
sg42
g627
sg19
S''
sg15
g626
sg28
Nsg44
g628
stRp1528
ag3
(g4
g5
(dp1529
g14
S''
sg40
g631
sg18
S''
sg42
g632
sg19
S''
sg15
g631
sg28
Nsg44
g633
stRp1530
ag3
(g4
g5
(dp1531
g14
S''
sg40
g636
sg18
S''
sg42
g637
sg19
S''
sg15
g636
sg28
Nsg44
g638
stRp1532
ag3
(g4
g5
(dp1533
g14
S''
sg40
g641
sg18
S''
sg42
g642
sg19
S''
sg15
g641
sg28
Nsg44
g643
stRp1534
ag3
(g4
g5
(dp1535
g14
S''
sg40
g646
sg18
S''
sg42
g647
sg19
S''
sg15
g646
sg28
Nsg44
g648
stRp1536
ag3
(g4
g5
(dp1537
g14
S''
sg40
g651
sg18
S''
sg42
g652
sg19
S''
sg15
g651
sg28
Nsg44
g653
stRp1538
ag3
(g4
g5
(dp1539
g14
S''
sg40
g656
sg18
S''
sg42
g657
sg19
S''
sg15
g656
sg28
Nsg44
g658
stRp1540
ag3
(g4
g5
(dp1541
g14
S''
sg40
g661
sg18
S''
sg42
g662
sg19
S''
sg15
g661
sg28
Nsg44
g663
stRp1542
ag3
(g4
g5
(dp1543
g14
S''
sg40
g666
sg18
S''
sg42
g667
sg19
S''
sg15
g666
sg28
Nsg44
g668
stRp1544
ag3
(g4
g5
(dp1545
g14
S''
sg40
g671
sg18
S''
sg42
g672
sg19
S''
sg15
g671
sg28
Nsg44
g673
stRp1546
ag3
(g4
g5
(dp1547
g14
S''
sg40
g676
sg18
S''
sg42
g677
sg19
S''
sg15
g676
sg28
Nsg44
g678
stRp1548
ag3
(g4
g5
(dp1549
g14
S''
sg40
g681
sg18
S''
sg42
g682
sg19
S''
sg15
g681
sg28
Nsg44
g683
stRp1550
ag3
(g4
g5
(dp1551
g14
S''
sg40
g686
sg18
S''
sg42
g687
sg19
S''
sg15
g686
sg28
Nsg44
g688
stRp1552
atRp1553
sg98
g1513
sg99
S'7'
sg100
g101
sg44
S'Revision records for revisions NOT deleted at the head revision.'
p1554
sg42
S'Rev'
p1555
sg104
S'20'
p1556
sg40
S'db.revhx'
p1557
stRp1558
sS'integ'
p1559
g3
(g4
g5
(dp1560
g7
S'toFile, fromFile, startFromRev'
p1561
sg9
g3
(g10
g11
(lp1562
g3
(g4
g5
(dp1563
g14
S''
sg15
g16
sg17
g16
sg18
S''
sg19
S''
sg20
g21
sg22
g23
stRp1564
ag3
(g4
g5
(dp1565
g14
S''
sg17
g26
sg18
S''
sg20
g27
sg19
S''
sg15
g26
sg28
Nsg22
g29
stRp1566
ag3
(g4
g5
(dp1567
g14
S''
sg17
g32
sg18
S''
sg20
g21
sg19
S''
sg15
g32
sg28
Nsg22
g33
stRp1568
ag3
(g4
g5
(dp1569
g14
S''
sg17
g36
sg18
S''
sg20
g27
sg19
S''
sg15
g36
sg28
Nsg22
g37
stRp1570
ag3
(g4
g5
(dp1571
g14
S''
sg40
S'toFile'
p1572
sg18
S''
sg42
S'File'
p1573
sg19
S''
sg15
g1572
sg28
Nsg44
S'File to which integration is being performed (target).'
p1574
stRp1575
ag3
(g4
g5
(dp1576
g14
S''
sg40
S'fromFile'
p1577
sg18
S''
sg42
S'File'
p1578
sg19
S''
sg15
g1577
sg28
Nsg44
S'File from which integration is being performed (source).'
p1579
stRp1580
ag3
(g4
g5
(dp1581
g14
S''
sg40
S'startFromRev'
p1582
sg18
S''
sg42
S'Rev'
p1583
sg19
S''
sg15
g1582
sg28
Nsg44
S'Starting revision of fromFile'
p1584
stRp1585
ag3
(g4
g5
(dp1586
g14
S''
sg40
S'endFromRev'
p1587
sg18
S''
sg42
S'Rev'
p1588
sg19
S''
sg15
g1587
sg28
Nsg44
S'Ending revision of fromFile. If integrating from a single \n\t\t    revision (not a revision range), the startFromRev and \n\t\t    endFromRev fields will be identical.'
p1589
stRp1590
ag3
(g4
g5
(dp1591
g14
S''
sg40
S'toRev'
p1592
sg18
S''
sg42
S'Rev'
p1593
sg19
S''
sg15
g1592
sg28
Nsg44
S'Revision of toFile into which integration is being \n\t\t    performed.'
p1594
stRp1595
ag3
(g4
g5
(dp1596
g14
S''
sg40
S'how'
p1597
sg18
S''
sg42
S'IntegHow'
p1598
sg19
S''
sg15
g1597
sg28
Nsg44
S'Integration method: variations on \n\t\t    merge/branch/copy/ignore/delete.'
p1599
stRp1600
ag3
(g4
g5
(dp1601
g14
S''
sg40
S'committed'
p1602
sg18
S''
sg42
S'Int'
p1603
sg19
S''
sg15
g1602
sg28
Nsg44
S'Flag: 0 for pending, 1 for committed.'
p1604
stRp1605
ag3
(g4
g5
(dp1606
g14
S''
sg40
S'resolved'
p1607
sg18
S''
sg42
S'ResolvedStatus'
p1608
sg19
S''
sg15
g1607
sg28
Nsg44
S'Resolution method: unresolved, resolved manually, \n\t\t    or resolved as part of a branch or delete.'
p1609
stRp1610
ag3
(g4
g5
(dp1611
g14
S''
sg40
S'change'
p1612
sg18
S''
sg42
S'Change'
p1613
sg19
S''
sg15
g1612
sg28
Nsg44
S'Changelist associated with the integration.'
p1614
stRp1615
atRp1616
sg98
g1559
sg40
S'db.integ'
p1617
sg99
S'0'
sg100
g101
sg151
g3
(g10
g11
(lp1618
S'db.integed'
p1619
aS'db.resolve'
p1620
atRp1621
sg42
S'Integ'
p1622
sg104
S'11'
p1623
sg44
S'Integration records: obsolete since 2001.1'
p1624
stRp1625
sS'ixdate'
p1626
g3
(g4
g5
(dp1627
g7
S'date, attr, value'
p1628
sg9
g3
(g10
g11
(lp1629
g3
(g4
g5
(dp1630
g14
S''
sg15
g16
sg17
g16
sg18
S''
sg19
S''
sg20
g21
sg22
g23
stRp1631
ag3
(g4
g5
(dp1632
g14
S''
sg17
g26
sg18
S''
sg20
g27
sg19
S''
sg15
g26
sg28
Nsg22
g29
stRp1633
ag3
(g4
g5
(dp1634
g14
S''
sg17
g32
sg18
S''
sg20
g21
sg19
S''
sg15
g32
sg28
Nsg22
g33
stRp1635
ag3
(g4
g5
(dp1636
g14
S''
sg17
g36
sg18
S''
sg20
g27
sg19
S''
sg15
g36
sg28
Nsg22
g37
stRp1637
ag3
(g4
g5
(dp1638
g14
S''
sg40
S'date'
p1639
sg18
S''
sg42
S'Date'
p1640
sg19
S''
sg15
g1639
sg28
Nsg44
S'Date value'
p1641
stRp1642
ag3
(g4
g5
(dp1643
g14
S''
sg40
S'attr'
p1644
sg18
S''
sg42
S'Int'
p1645
sg19
S''
sg15
g1644
sg28
Nsg44
S'The attribute number (from the jobspec) to which this\n\t\t    date belongs'
p1646
stRp1647
ag3
(g4
g5
(dp1648
g14
S''
sg40
S'value'
p1649
sg18
S''
sg42
S'String'
p1650
sg19
S''
sg15
g1649
sg28
Nsg44
S'A job name'
p1651
stRp1652
atRp1653
sg98
g1626
sg40
S'db.ixdate'
p1654
sg99
S'0'
sg100
g101
sg151
S'db.ixtext'
p1655
sg42
S'IndexDate'
p1656
sg104
S'36'
p1657
sg44
S'Indexing data for date-valued job attributes.'
p1658
stRp1659
sS'bodtext'
p1660
g3
(g4
g5
(dp1661
g7
S'key, attr'
p1662
sg9
g3
(g10
g11
(lp1663
g3
(g4
g5
(dp1664
g14
S''
sg15
g16
sg17
g16
sg18
S''
sg19
S''
sg20
g21
sg22
g23
stRp1665
ag3
(g4
g5
(dp1666
g14
S''
sg17
g26
sg18
S''
sg20
g27
sg19
S''
sg15
g26
sg28
Nsg22
g29
stRp1667
ag3
(g4
g5
(dp1668
g14
S''
sg17
g32
sg18
S''
sg20
g21
sg19
S''
sg15
g32
sg28
Nsg22
g33
stRp1669
ag3
(g4
g5
(dp1670
g14
S''
sg17
g36
sg18
S''
sg20
g27
sg19
S''
sg15
g36
sg28
Nsg22
g37
stRp1671
ag3
(g4
g5
(dp1672
g14
S''
sg40
S'key'
p1673
sg18
S''
sg42
S'String'
p1674
sg19
S''
sg15
g1673
sg28
Nsg44
S'The job to which this attribute belongs'
p1675
stRp1676
ag3
(g4
g5
(dp1677
g14
S''
sg40
S'attr'
p1678
sg18
S''
sg42
S'Int'
p1679
sg19
S''
sg15
g1678
sg28
Nsg44
S'The attribute number (from the jobspec) of this attribute'
p1680
stRp1681
ag3
(g4
g5
(dp1682
g14
S''
sg40
S'text'
p1683
sg18
S''
sg42
S'Text'
p1684
sg19
S''
sg15
g1683
sg28
Nsg44
S'The attribute value'
p1685
stRp1686
atRp1687
sg98
g1660
sg99
S'0'
sg100
g101
sg44
S'Job data for non-date attributes.'
p1688
sg42
S'BodyText'
p1689
sg104
S'35'
p1690
sg40
S'db.bodtext'
p1691
stRp1692
sS'changex'
p1693
g3
(g4
g5
(dp1694
g7
S'change'
p1695
sg9
g3
(g10
g11
(lp1696
g3
(g4
g5
(dp1697
g14
S''
sg15
g16
sg17
g16
sg18
S''
sg19
S''
sg20
g21
sg22
g23
stRp1698
ag3
(g4
g5
(dp1699
g14
S''
sg17
g26
sg18
S''
sg20
g27
sg19
S''
sg15
g26
sg28
Nsg22
g29
stRp1700
ag3
(g4
g5
(dp1701
g14
S''
sg17
g32
sg18
S''
sg20
g21
sg19
S''
sg15
g32
sg28
Nsg22
g33
stRp1702
ag3
(g4
g5
(dp1703
g14
S''
sg17
g36
sg18
S''
sg20
g27
sg19
S''
sg15
g36
sg28
Nsg22
g37
stRp1704
ag3
(g4
g5
(dp1705
g14
S''
sg40
g1275
sg18
S''
sg42
g1276
sg19
S''
sg15
g1275
sg28
Nsg44
g1277
stRp1706
ag3
(g4
g5
(dp1707
g14
S''
sg40
g1280
sg18
S''
sg42
g1281
sg19
S''
sg15
g1280
sg28
Nsg44
g1282
stRp1708
ag3
(g4
g5
(dp1709
g14
S''
sg40
g1285
sg18
S''
sg42
g1286
sg19
S''
sg15
g1285
sg28
Nsg44
g1287
stRp1710
ag3
(g4
g5
(dp1711
g14
S''
sg40
g1290
sg18
S''
sg42
g1291
sg19
S''
sg15
g1290
sg28
Nsg44
g1292
stRp1712
ag3
(g4
g5
(dp1713
g14
S''
sg40
g1295
sg18
S''
sg42
g1296
sg19
S''
sg15
g1295
sg28
Nsg44
g1297
stRp1714
ag3
(g4
g5
(dp1715
g14
S''
sg40
g1300
sg18
S''
sg42
g1301
sg19
S''
sg15
g1300
sg28
Nsg44
g1302
stRp1716
ag3
(g4
g5
(dp1717
g14
S''
sg40
g1305
sg18
S''
sg42
g1306
sg19
S''
sg15
g1305
sg28
Nsg44
g1307
stRp1718
atRp1719
sg98
g1693
sg897
S'contains records for pending changelists only.'
p1720
sg99
S'0'
sg100
g101
sg44
S'Subset of db.change'
p1721
sg42
S'Change'
p1722
sg104
S'27'
p1723
sg40
S'db.changex'
p1724
stRp1725
sS'boddate'
p1726
g3
(g4
g5
(dp1727
g7
S'key, attr'
p1728
sg9
g3
(g10
g11
(lp1729
g3
(g4
g5
(dp1730
g14
S''
sg15
g16
sg17
g16
sg18
S''
sg19
S''
sg20
g21
sg22
g23
stRp1731
ag3
(g4
g5
(dp1732
g14
S''
sg17
g26
sg18
S''
sg20
g27
sg19
S''
sg15
g26
sg28
Nsg22
g29
stRp1733
ag3
(g4
g5
(dp1734
g14
S''
sg17
g32
sg18
S''
sg20
g21
sg19
S''
sg15
g32
sg28
Nsg22
g33
stRp1735
ag3
(g4
g5
(dp1736
g14
S''
sg17
g36
sg18
S''
sg20
g27
sg19
S''
sg15
g36
sg28
Nsg22
g37
stRp1737
ag3
(g4
g5
(dp1738
g14
S''
sg40
S'key'
p1739
sg18
S''
sg42
S'String'
p1740
sg19
S''
sg15
g1739
sg28
Nsg44
S'The job to which this attribute belongs'
p1741
stRp1742
ag3
(g4
g5
(dp1743
g14
S''
sg40
S'attr'
p1744
sg18
S''
sg42
S'Int'
p1745
sg19
S''
sg15
g1744
sg28
Nsg44
S'The attribute number (from the jobspec) of this attribute'
p1746
stRp1747
ag3
(g4
g5
(dp1748
g14
S''
sg40
S'date'
p1749
sg18
S''
sg42
S'Date'
p1750
sg19
S''
sg15
g1749
sg28
Nsg44
S'The date value itself'
p1751
stRp1752
atRp1753
sg98
g1726
sg99
S'0'
sg100
g101
sg44
S'Job data for date-valued attributes'
p1754
sg42
S'BodyDate'
p1755
sg104
S'34'
p1756
sg40
S'db.boddate'
p1757
stRp1758
sS'review'
p1759
g3
(g4
g5
(dp1760
g7
S'user, seq'
p1761
sg9
g3
(g10
g11
(lp1762
g3
(g4
g5
(dp1763
g14
S''
sg15
g16
sg17
g16
sg18
S''
sg19
S''
sg20
g21
sg22
g23
stRp1764
ag3
(g4
g5
(dp1765
g14
S''
sg17
g26
sg18
S''
sg20
g27
sg19
S''
sg15
g26
sg28
Nsg22
g29
stRp1766
ag3
(g4
g5
(dp1767
g14
S''
sg17
g32
sg18
S''
sg20
g21
sg19
S''
sg15
g32
sg28
Nsg22
g33
stRp1768
ag3
(g4
g5
(dp1769
g14
S''
sg17
g36
sg18
S''
sg20
g27
sg19
S''
sg15
g36
sg28
Nsg22
g37
stRp1770
ag3
(g4
g5
(dp1771
g14
S''
sg40
S'user'
p1772
sg18
S''
sg42
S'User'
p1773
sg19
S''
sg15
g1772
sg28
Nsg44
S'A user name'
p1774
stRp1775
ag3
(g4
g5
(dp1776
g14
S''
sg40
S'seq'
p1777
sg18
S''
sg42
S'Int'
p1778
sg19
S''
sg15
g1777
sg28
Nsg44
S'Sequence number: used for ordering multi-line views'
p1779
stRp1780
ag3
(g4
g5
(dp1781
g14
S''
sg40
S'mapFlag'
p1782
sg18
S''
sg42
S'MapFlag'
p1783
sg19
S''
sg15
g1782
sg28
Nsg44
S'Type of mapping'
p1784
stRp1785
ag3
(g4
g5
(dp1786
g14
S''
sg40
S'depotFile'
p1787
sg18
S''
sg42
S'Mapping'
p1788
sg19
S''
sg15
g1787
sg28
Nsg44
S'The files to be reviewed'
p1789
stRp1790
ag3
(g4
g5
(dp1791
g14
S''
sg40
S'type'
p1792
sg18
S''
sg42
S'Reviewer'
p1793
sg19
S''
sg15
g1792
sg28
Nsg44
S'Type of reviewer'
p1794
stRp1795
atRp1796
sg98
g1759
sg99
S'1'
sg100
g101
sg44
S"Contains user's review mappings"
p1797
sg42
S'Review'
p1798
sg104
S'8'
sg40
S'db.review'
p1799
stRp1800
sS'view'
p1801
g3
(g4
g5
(dp1802
g7
S'name, seq'
p1803
sg9
g3
(g10
g11
(lp1804
g3
(g4
g5
(dp1805
g14
S''
sg15
g16
sg17
g16
sg18
S''
sg19
S''
sg20
g21
sg22
g23
stRp1806
ag3
(g4
g5
(dp1807
g14
S''
sg17
g26
sg18
S''
sg20
g27
sg19
S''
sg15
g26
sg28
Nsg22
g29
stRp1808
ag3
(g4
g5
(dp1809
g14
S''
sg17
g32
sg18
S''
sg20
g21
sg19
S''
sg15
g32
sg28
Nsg22
g33
stRp1810
ag3
(g4
g5
(dp1811
g14
S''
sg17
g36
sg18
S''
sg20
g27
sg19
S''
sg15
g36
sg28
Nsg22
g37
stRp1812
ag3
(g4
g5
(dp1813
g14
S''
sg40
S'name'
p1814
sg18
S''
sg42
S'Domain'
p1815
sg19
S''
sg15
g1814
sg28
Nsg44
S'Domain name to which this view applies'
p1816
stRp1817
ag3
(g4
g5
(dp1818
g14
S''
sg40
S'seq'
p1819
sg18
S''
sg42
S'Int'
p1820
sg19
S''
sg15
g1819
sg28
Nsg44
S'Sequence number: for ordering multi-line views'
p1821
stRp1822
ag3
(g4
g5
(dp1823
g14
S''
sg40
S'mapFlag'
p1824
sg18
S''
sg42
S'MapFlag'
p1825
sg19
S''
sg15
g1824
sg28
Nsg44
S'Type of mapping'
p1826
stRp1827
ag3
(g4
g5
(dp1828
g14
S''
sg40
S'viewFile'
p1829
sg18
S''
sg42
S'Mapping'
p1830
sg19
S''
sg15
g1829
sg28
Nsg44
S"The right-hand-side of the view. For clients, this is\n\t\t    the client-side, for labels it's the generated label \n\t\t    view. For branches, it's the target side of the branch\n\t\t    view."
p1831
stRp1832
ag3
(g4
g5
(dp1833
g14
S''
sg40
S'depotFile'
p1834
sg18
S''
sg42
S'Mapping'
p1835
sg19
S''
sg15
g1834
sg28
Nsg44
S'The left-hand-side of the view - a mapping to file(s)\n\t\t    in the depot.'
p1836
stRp1837
atRp1838
sg98
g1801
sg99
S'1'
sg100
g101
sg44
S'Contains views for domains'
p1839
sg42
S'View'
p1840
sg104
S'7'
sg40
S'db.view'
p1841
stRp1842
s.