(dp1
S'svrview'
p2
ccopy_reg
_reconstructor
p3
(clib.sqUtils
Storage
p4
c__builtin__
dict
p5
(dp6
S'keying'
p7
S'id, type, seq'
p8
sS'fields'
p9
g3
(clib.sqUtils
Lst
p10
c__builtin__
list
p11
(lp12
g3
(g4
g5
(dp13
S'comment'
p14
S''
sS'fieldname'
p15
S'id'
p16
sS'name'
p17
g16
sS'default'
p18
S''
sS'label'
p19
S''
sS'type'
p20
S'integer'
p21
sS'desc'
p22
S'Record number as read in'
p23
stRp24
ag3
(g4
g5
(dp25
g14
S''
sg17
S'db_action'
p26
sg18
S''
sg20
S'string'
p27
sg19
S''
sg15
g26
sS'requires'
p28
Nsg22
S'Operation on table'
p29
stRp30
ag3
(g4
g5
(dp31
g14
S''
sg17
S'table_revision'
p32
sg18
S''
sg20
g21
sg19
S''
sg15
g32
sg28
Nsg22
S'Revision of the p4 schema table'
p33
stRp34
ag3
(g4
g5
(dp35
g14
S''
sg17
S'table_name'
p36
sg18
S''
sg20
g27
sg19
S''
sg15
g36
sg28
Nsg22
S'Redundant... but this is the table name'
p37
stRp38
ag3
(g4
g5
(dp39
g14
S''
sS'name'
p40
S'id'
p41
sg18
S''
sS'type'
p42
S'Key'
p43
sg19
S''
sg15
g41
sg28
NsS'desc'
p44
S'Server name'
p45
stRp46
ag3
(g4
g5
(dp47
g14
S''
sg40
S'type'
p48
sg18
S''
sg42
S'SvrViewType'
p49
sg19
S''
sg15
g48
sg28
Nsg44
S'View type'
p50
stRp51
ag3
(g4
g5
(dp52
g14
S''
sg40
S'seq'
p53
sg18
S''
sg42
S'Int'
p54
sg19
S''
sg15
g53
sg28
Nsg44
S'Sequence (line) number'
p55
stRp56
ag3
(g4
g5
(dp57
g14
S''
sg40
S'mapFlag'
p58
sg18
S''
sg42
S'MapFlag'
p59
sg19
S''
sg15
g58
sg28
Nsg44
S'Type of mapping'
p60
stRp61
ag3
(g4
g5
(dp62
g14
S''
sg40
S'viewFile'
p63
sg18
S''
sg42
S'Mapping'
p64
sg19
S''
sg15
g63
sg28
Nsg44
S'View file'
p65
stRp66
atRp67
sS'tablename'
p68
g2
sS'version'
p69
S'0'
sS'schemaversion'
p70
S'2020.2'
p71
sg44
S'View data for servers specifications'
p72
sg42
S'SvrView'
p73
sS'lockseq'
p74
S'10'
p75
sg40
S'db.svrview'
p76
stRp77
sS'rev'
p78
g3
(g4
g5
(dp79
g7
S'depotFile, depotRev'
p80
sg9
g3
(g10
g11
(lp81
g3
(g4
g5
(dp82
g14
S''
sg15
g16
sg17
g16
sg18
S''
sg19
S''
sg20
g21
sg22
g23
stRp83
ag3
(g4
g5
(dp84
g14
S''
sg17
g26
sg18
S''
sg20
g27
sg19
S''
sg15
g26
sg28
Nsg22
g29
stRp85
ag3
(g4
g5
(dp86
g14
S''
sg17
g32
sg18
S''
sg20
g21
sg19
S''
sg15
g32
sg28
Nsg22
g33
stRp87
ag3
(g4
g5
(dp88
g14
S''
sg17
g36
sg18
S''
sg20
g27
sg19
S''
sg15
g36
sg28
Nsg22
g37
stRp89
ag3
(g4
g5
(dp90
g14
S''
sg40
S'depotFile'
p91
sg18
S''
sg42
S'File'
p92
sg19
S''
sg15
g91
sg28
Nsg44
S'The file name'
p93
stRp94
ag3
(g4
g5
(dp95
g14
S''
sg40
S'depotRev'
p96
sg18
S''
sg42
S'Rev'
p97
sg19
S''
sg15
g96
sg28
Nsg44
S'The revision number'
p98
stRp99
ag3
(g4
g5
(dp100
g14
S''
sg40
S'type'
p101
sg18
S''
sg42
S'FileType'
p102
sg19
S''
sg15
g101
sg28
Nsg44
S'The file type of the revision'
p103
stRp104
ag3
(g4
g5
(dp105
g14
S''
sg40
S'action'
p106
sg18
S''
sg42
S'Action'
p107
sg19
S''
sg15
g106
sg28
Nsg44
S'The action that created the revision'
p108
stRp109
ag3
(g4
g5
(dp110
g14
S''
sg40
S'change'
p111
sg18
S''
sg42
S'Change'
p112
sg19
S''
sg15
g111
sg28
Nsg44
S'The changelist that created the revision'
p113
stRp114
ag3
(g4
g5
(dp115
g14
S''
sg40
S'date'
p116
sg18
S''
sg42
S'Date'
p117
sg19
S''
sg15
g116
sg28
Nsg44
S'The date/time the changelist that created the revision\n                    was submitted'
p118
stRp119
ag3
(g4
g5
(dp120
g14
S''
sg40
S'modTime'
p121
sg18
S''
sg42
S'Date'
p122
sg19
S''
sg15
g121
sg28
Nsg44
S"The timestamp on the file in the user's workspace when\n                    the revision was submitted."
p123
stRp124
ag3
(g4
g5
(dp125
g14
S''
sg40
S'digest'
p126
sg18
S''
sg42
S'Digest'
p127
sg19
S''
sg15
g126
sg28
Nsg44
S'The MD5 digest of the revision.'
p128
stRp129
ag3
(g4
g5
(dp130
g14
S''
sg40
S'size'
p131
sg18
S''
sg42
S'FileSize'
p132
sg19
S''
sg15
g131
sg28
Nsg44
S'The size of the file in bytes'
p133
stRp134
ag3
(g4
g5
(dp135
g14
S''
sg40
S'traitLot'
p136
sg18
S''
sg42
S'TraitLot'
p137
sg19
S''
sg15
g136
sg28
Nsg44
S'Group of traits (attributes) associated with the revision.'
p138
stRp139
ag3
(g4
g5
(dp140
g14
S''
sg40
S'lbrIsLazy'
p141
sg18
S''
sg42
S'RevStatus'
p142
sg19
S''
sg15
g141
sg28
Nsg44
S'Specifies whether or not the revision gets its content from\n                    another file (lazy copy), data about promotion of revision\n                    content from task streams, and data about revision charset\n                    information.'
p143
stRp144
ag3
(g4
g5
(dp145
g14
S''
sg40
S'lbrFile'
p146
sg18
S''
sg42
S'File'
p147
sg19
S''
sg15
g146
sg28
Nsg44
S"Filename for librarian's purposes. Specifies location in\n                    the archives where the file containing the revision may\n                    be found. Usually the same as depotFile, but differs in\n                    the case of branched/copied revisions."
p148
stRp149
ag3
(g4
g5
(dp150
g14
S''
sg40
S'lbrRev'
p151
sg18
S''
sg42
S'String'
p152
sg19
S''
sg15
g151
sg28
Nsg44
S'The revision of lbrFile that contains the revision content.'
p153
stRp154
ag3
(g4
g5
(dp155
g14
S''
sg40
S'lbrType'
p156
sg18
S''
sg42
S'FileType'
p157
sg19
S''
sg15
g156
sg28
Nsg44
S'The file type of the librarian revision. Usually the same\n                    as type, but differs in the case of branched/copied\n                    revisions.'
p158
stRp159
atRp160
sg68
g78
sg69
S'9'
sg70
g71
sg44
S'Revision records'
p161
sg42
S'Rev'
p162
sg74
S'58'
p163
sg40
S'db.rev'
p164
stRp165
sS'revpx'
p166
g3
(g4
g5
(dp167
g7
S'depotFile, depotRev'
p168
sg9
g3
(g10
g11
(lp169
g3
(g4
g5
(dp170
g14
S''
sg15
g16
sg17
g16
sg18
S''
sg19
S''
sg20
g21
sg22
g23
stRp171
ag3
(g4
g5
(dp172
g14
S''
sg17
g26
sg18
S''
sg20
g27
sg19
S''
sg15
g26
sg28
Nsg22
g29
stRp173
ag3
(g4
g5
(dp174
g14
S''
sg17
g32
sg18
S''
sg20
g21
sg19
S''
sg15
g32
sg28
Nsg22
g33
stRp175
ag3
(g4
g5
(dp176
g14
S''
sg17
g36
sg18
S''
sg20
g27
sg19
S''
sg15
g36
sg28
Nsg22
g37
stRp177
ag3
(g4
g5
(dp178
g14
S''
sg40
g91
sg18
S''
sg42
g92
sg19
S''
sg15
g91
sg28
Nsg44
g93
stRp179
ag3
(g4
g5
(dp180
g14
S''
sg40
g96
sg18
S''
sg42
g97
sg19
S''
sg15
g96
sg28
Nsg44
g98
stRp181
ag3
(g4
g5
(dp182
g14
S''
sg40
g101
sg18
S''
sg42
g102
sg19
S''
sg15
g101
sg28
Nsg44
g103
stRp183
ag3
(g4
g5
(dp184
g14
S''
sg40
g106
sg18
S''
sg42
g107
sg19
S''
sg15
g106
sg28
Nsg44
g108
stRp185
ag3
(g4
g5
(dp186
g14
S''
sg40
g111
sg18
S''
sg42
g112
sg19
S''
sg15
g111
sg28
Nsg44
g113
stRp187
ag3
(g4
g5
(dp188
g14
S''
sg40
g116
sg18
S''
sg42
g117
sg19
S''
sg15
g116
sg28
Nsg44
g118
stRp189
ag3
(g4
g5
(dp190
g14
S''
sg40
g121
sg18
S''
sg42
g122
sg19
S''
sg15
g121
sg28
Nsg44
g123
stRp191
ag3
(g4
g5
(dp192
g14
S''
sg40
g126
sg18
S''
sg42
g127
sg19
S''
sg15
g126
sg28
Nsg44
g128
stRp193
ag3
(g4
g5
(dp194
g14
S''
sg40
g131
sg18
S''
sg42
g132
sg19
S''
sg15
g131
sg28
Nsg44
g133
stRp195
ag3
(g4
g5
(dp196
g14
S''
sg40
g136
sg18
S''
sg42
g137
sg19
S''
sg15
g136
sg28
Nsg44
g138
stRp197
ag3
(g4
g5
(dp198
g14
S''
sg40
g141
sg18
S''
sg42
g142
sg19
S''
sg15
g141
sg28
Nsg44
g143
stRp199
ag3
(g4
g5
(dp200
g14
S''
sg40
g146
sg18
S''
sg42
g147
sg19
S''
sg15
g146
sg28
Nsg44
g148
stRp201
ag3
(g4
g5
(dp202
g14
S''
sg40
g151
sg18
S''
sg42
g152
sg19
S''
sg15
g151
sg28
Nsg44
g153
stRp203
ag3
(g4
g5
(dp204
g14
S''
sg40
g156
sg18
S''
sg42
g157
sg19
S''
sg15
g156
sg28
Nsg44
g158
stRp205
atRp206
sg68
g166
sS'note'
p207
S'Only populated during content trigger execution to allow\n                triggers access to the revisions being submitted.'
p208
sg69
S'9'
sg70
g71
sg44
S'Pending revision records'
p209
sg42
S'Rev'
p210
sg74
S'52'
p211
sg40
S'db.revpx'
p212
stRp213
sS'bodtextcx'
p214
g3
(g4
g5
(dp215
g7
S'type, key, change, attr'
p216
sg9
g3
(g10
g11
(lp217
g3
(g4
g5
(dp218
g14
S''
sg15
g16
sg17
g16
sg18
S''
sg19
S''
sg20
g21
sg22
g23
stRp219
ag3
(g4
g5
(dp220
g14
S''
sg17
g26
sg18
S''
sg20
g27
sg19
S''
sg15
g26
sg28
Nsg22
g29
stRp221
ag3
(g4
g5
(dp222
g14
S''
sg17
g32
sg18
S''
sg20
g21
sg19
S''
sg15
g32
sg28
Nsg22
g33
stRp223
ag3
(g4
g5
(dp224
g14
S''
sg17
g36
sg18
S''
sg20
g27
sg19
S''
sg15
g36
sg28
Nsg22
g37
stRp225
ag3
(g4
g5
(dp226
g14
S''
sg40
S'type'
p227
sg18
S''
sg42
S'Int'
p228
sg19
S''
sg15
g227
sg28
Nsg44
S'The type of spec'
p229
stRp230
ag3
(g4
g5
(dp231
g14
S''
sg40
S'key'
p232
sg18
S''
sg42
S'Key'
p233
sg19
S''
sg15
g232
sg28
Nsg44
S'The spec to which this attribute belongs'
p234
stRp235
ag3
(g4
g5
(dp236
g14
S''
sg40
S'change'
p237
sg18
S''
sg42
S'Change'
p238
sg19
S''
sg15
g237
sg28
Nsg44
S'The change to which this attribute belongs'
p239
stRp240
ag3
(g4
g5
(dp241
g14
S''
sg40
S'attr'
p242
sg18
S''
sg42
S'Int'
p243
sg19
S''
sg15
g242
sg28
Nsg44
S'The attribute number of this attribute'
p244
stRp245
ag3
(g4
g5
(dp246
g14
S''
sg40
S'text'
p247
sg18
S''
sg42
S'Text'
p248
sg19
S''
sg15
g247
sg28
Nsg44
S'The attribute value'
p249
stRp250
atRp251
sg68
g214
sg69
S'0'
sg70
g71
sg44
S'Versioned openable spec fields'
p252
sg42
S'BodyTextCx'
p253
sg74
S'93'
p254
sg40
S'db.bodtextcx'
p255
stRp256
sS'revtx'
p257
g3
(g4
g5
(dp258
g7
S'depotFile, depotRev'
p259
sg9
g3
(g10
g11
(lp260
g3
(g4
g5
(dp261
g14
S''
sg15
g16
sg17
g16
sg18
S''
sg19
S''
sg20
g21
sg22
g23
stRp262
ag3
(g4
g5
(dp263
g14
S''
sg17
g26
sg18
S''
sg20
g27
sg19
S''
sg15
g26
sg28
Nsg22
g29
stRp264
ag3
(g4
g5
(dp265
g14
S''
sg17
g32
sg18
S''
sg20
g21
sg19
S''
sg15
g32
sg28
Nsg22
g33
stRp266
ag3
(g4
g5
(dp267
g14
S''
sg17
g36
sg18
S''
sg20
g27
sg19
S''
sg15
g36
sg28
Nsg22
g37
stRp268
ag3
(g4
g5
(dp269
g14
S''
sg40
g91
sg18
S''
sg42
g92
sg19
S''
sg15
g91
sg28
Nsg44
g93
stRp270
ag3
(g4
g5
(dp271
g14
S''
sg40
g96
sg18
S''
sg42
g97
sg19
S''
sg15
g96
sg28
Nsg44
g98
stRp272
ag3
(g4
g5
(dp273
g14
S''
sg40
g101
sg18
S''
sg42
g102
sg19
S''
sg15
g101
sg28
Nsg44
g103
stRp274
ag3
(g4
g5
(dp275
g14
S''
sg40
g106
sg18
S''
sg42
g107
sg19
S''
sg15
g106
sg28
Nsg44
g108
stRp276
ag3
(g4
g5
(dp277
g14
S''
sg40
g111
sg18
S''
sg42
g112
sg19
S''
sg15
g111
sg28
Nsg44
g113
stRp278
ag3
(g4
g5
(dp279
g14
S''
sg40
g116
sg18
S''
sg42
g117
sg19
S''
sg15
g116
sg28
Nsg44
g118
stRp280
ag3
(g4
g5
(dp281
g14
S''
sg40
g121
sg18
S''
sg42
g122
sg19
S''
sg15
g121
sg28
Nsg44
g123
stRp282
ag3
(g4
g5
(dp283
g14
S''
sg40
g126
sg18
S''
sg42
g127
sg19
S''
sg15
g126
sg28
Nsg44
g128
stRp284
ag3
(g4
g5
(dp285
g14
S''
sg40
g131
sg18
S''
sg42
g132
sg19
S''
sg15
g131
sg28
Nsg44
g133
stRp286
ag3
(g4
g5
(dp287
g14
S''
sg40
g136
sg18
S''
sg42
g137
sg19
S''
sg15
g136
sg28
Nsg44
g138
stRp288
ag3
(g4
g5
(dp289
g14
S''
sg40
g141
sg18
S''
sg42
g142
sg19
S''
sg15
g141
sg28
Nsg44
g143
stRp290
ag3
(g4
g5
(dp291
g14
S''
sg40
g146
sg18
S''
sg42
g147
sg19
S''
sg15
g146
sg28
Nsg44
g148
stRp292
ag3
(g4
g5
(dp293
g14
S''
sg40
g151
sg18
S''
sg42
g152
sg19
S''
sg15
g151
sg28
Nsg44
g153
stRp294
ag3
(g4
g5
(dp295
g14
S''
sg40
g156
sg18
S''
sg42
g157
sg19
S''
sg15
g156
sg28
Nsg44
g158
stRp296
atRp297
sg68
g257
sg69
S'9'
sg70
g71
sg44
S'Task stream revision records'
p298
sg42
S'Rev'
p299
sg74
S'59'
p300
sg40
S'db.revtx'
p301
stRp302
sS'upgrades'
p303
g3
(g4
g5
(dp304
g7
S'seq'
p305
sg9
g3
(g10
g11
(lp306
g3
(g4
g5
(dp307
g14
S''
sg15
g16
sg17
g16
sg18
S''
sg19
S''
sg20
g21
sg22
g23
stRp308
ag3
(g4
g5
(dp309
g14
S''
sg17
g26
sg18
S''
sg20
g27
sg19
S''
sg15
g26
sg28
Nsg22
g29
stRp310
ag3
(g4
g5
(dp311
g14
S''
sg17
g32
sg18
S''
sg20
g21
sg19
S''
sg15
g32
sg28
Nsg22
g33
stRp312
ag3
(g4
g5
(dp313
g14
S''
sg17
g36
sg18
S''
sg20
g27
sg19
S''
sg15
g36
sg28
Nsg22
g37
stRp314
ag3
(g4
g5
(dp315
g14
S''
sg40
S'seq'
p316
sg18
S''
sg42
S'Int'
p317
sg19
S''
sg15
g316
sg28
Nsg44
S'Sequence'
p318
stRp319
ag3
(g4
g5
(dp320
g14
S''
sg40
S'name'
p321
sg18
S''
sg42
S'Text'
p322
sg19
S''
sg15
g321
sg28
Nsg44
S'name of upgrade'
p323
stRp324
ag3
(g4
g5
(dp325
g14
S''
sg40
S'state'
p326
sg18
S''
sg42
S'UpgradeState'
p327
sg19
S''
sg15
g326
sg28
Nsg44
S'current state'
p328
stRp329
ag3
(g4
g5
(dp330
g14
S''
sg40
S'startdate'
p331
sg18
S''
sg42
S'Date'
p332
sg19
S''
sg15
g331
sg28
Nsg44
S'upgrade started'
p333
stRp334
ag3
(g4
g5
(dp335
g14
S''
sg40
S'enddate'
p336
sg18
S''
sg42
S'Date'
p337
sg19
S''
sg15
g336
sg28
Nsg44
S'upgrade ended'
p338
stRp339
ag3
(g4
g5
(dp340
g14
S''
sg40
S'info'
p341
sg18
S''
sg42
S'Text'
p342
sg19
S''
sg15
g341
sg28
Nsg44
S'optional information specific to the upgrade step'
p343
stRp344
atRp345
sg68
g303
sg69
S'0'
sg70
g71
sg44
S'Store server upgrade info'
p346
sg42
S'Upgrades'
p347
sg74
S'6'
sg40
S'db.upgrades'
p348
stRp349
sS'ixtext'
p350
g3
(g4
g5
(dp351
g7
S'word, attr, value'
p352
sg9
g3
(g10
g11
(lp353
g3
(g4
g5
(dp354
g14
S''
sg15
g16
sg17
g16
sg18
S''
sg19
S''
sg20
g21
sg22
g23
stRp355
ag3
(g4
g5
(dp356
g14
S''
sg17
g26
sg18
S''
sg20
g27
sg19
S''
sg15
g26
sg28
Nsg22
g29
stRp357
ag3
(g4
g5
(dp358
g14
S''
sg17
g32
sg18
S''
sg20
g21
sg19
S''
sg15
g32
sg28
Nsg22
g33
stRp359
ag3
(g4
g5
(dp360
g14
S''
sg17
g36
sg18
S''
sg20
g27
sg19
S''
sg15
g36
sg28
Nsg22
g37
stRp361
ag3
(g4
g5
(dp362
g14
S''
sg40
S'word'
p363
sg18
S''
sg42
S'Key'
p364
sg19
S''
sg15
g363
sg28
Nsg44
S'The word being indexed'
p365
stRp366
ag3
(g4
g5
(dp367
g14
S''
sg40
S'attr'
p368
sg18
S''
sg42
S'Int'
p369
sg19
S''
sg15
g368
sg28
Nsg44
S'The attribute number to which this word belongs. For\n                    job data, the attribute number from the jobspec.'
p370
stRp371
ag3
(g4
g5
(dp372
g14
S''
sg40
S'value'
p373
sg18
S''
sg42
S'Key'
p374
sg19
S''
sg15
g373
sg28
Nsg44
S'For job data, a job name. For generic data, the value\n                    of the index keyed by the word.'
p375
stRp376
atRp377
sg68
g350
sg69
S'0'
sg70
g71
sg44
S'Indexing data for generic and job attributes'
p378
sg42
S'IndexText'
p379
sg74
S'98'
p380
sg40
S'db.ixtext'
p381
stRp382
sS'rmtview'
p383
g3
(g4
g5
(dp384
g7
S'id, seq'
p385
sg9
g3
(g10
g11
(lp386
g3
(g4
g5
(dp387
g14
S''
sg15
g16
sg17
g16
sg18
S''
sg19
S''
sg20
g21
sg22
g23
stRp388
ag3
(g4
g5
(dp389
g14
S''
sg17
g26
sg18
S''
sg20
g27
sg19
S''
sg15
g26
sg28
Nsg22
g29
stRp390
ag3
(g4
g5
(dp391
g14
S''
sg17
g32
sg18
S''
sg20
g21
sg19
S''
sg15
g32
sg28
Nsg22
g33
stRp392
ag3
(g4
g5
(dp393
g14
S''
sg17
g36
sg18
S''
sg20
g27
sg19
S''
sg15
g36
sg28
Nsg22
g37
stRp394
ag3
(g4
g5
(dp395
g14
S''
sg40
S'id'
p396
sg18
S''
sg42
S'RemoteID'
p397
sg19
S''
sg15
g396
sg28
Nsg44
S'Remote name'
p398
stRp399
ag3
(g4
g5
(dp400
g14
S''
sg40
S'seq'
p401
sg18
S''
sg42
S'Int'
p402
sg19
S''
sg15
g401
sg28
Nsg44
S'Sequence number: for ordering multi-line views'
p403
stRp404
ag3
(g4
g5
(dp405
g14
S''
sg40
S'mapFlag'
p406
sg18
S''
sg42
S'MapFlag'
p407
sg19
S''
sg15
g406
sg28
Nsg44
S'Type of mapping'
p408
stRp409
ag3
(g4
g5
(dp410
g14
S''
sg40
S'localFile'
p411
sg18
S''
sg42
S'Mapping'
p412
sg19
S''
sg15
g411
sg28
Nsg44
S'Local file'
p413
stRp414
ag3
(g4
g5
(dp415
g14
S''
sg40
S'remoteFile'
p416
sg18
S''
sg42
S'Mapping'
p417
sg19
S''
sg15
g416
sg28
Nsg44
S'Remote file'
p418
stRp419
ag3
(g4
g5
(dp420
g14
S''
sg40
S'retain'
p421
sg18
S''
sg42
S'Int'
p422
sg19
S''
sg15
g421
sg28
Nsg44
S'ArchiveLimits'
p423
stRp424
atRp425
sg68
g383
sg69
S'1'
sg70
g71
sg44
S'View data for remote specifications'
p426
sg42
S'RmtView'
p427
sg74
S'12'
p428
sg40
S'db.rmtview'
p429
stRp430
sS'message'
p431
g3
(g4
g5
(dp432
g7
S'language, id'
p433
sg9
g3
(g10
g11
(lp434
g3
(g4
g5
(dp435
g14
S''
sg15
g16
sg17
g16
sg18
S''
sg19
S''
sg20
g21
sg22
g23
stRp436
ag3
(g4
g5
(dp437
g14
S''
sg17
g26
sg18
S''
sg20
g27
sg19
S''
sg15
g26
sg28
Nsg22
g29
stRp438
ag3
(g4
g5
(dp439
g14
S''
sg17
g32
sg18
S''
sg20
g21
sg19
S''
sg15
g32
sg28
Nsg22
g33
stRp440
ag3
(g4
g5
(dp441
g14
S''
sg17
g36
sg18
S''
sg20
g27
sg19
S''
sg15
g36
sg28
Nsg22
g37
stRp442
ag3
(g4
g5
(dp443
g14
S''
sg40
S'language'
p444
sg18
S''
sg42
S'Key'
p445
sg19
S''
sg15
g444
sg28
Nsg44
S'The language for which this message applies'
p446
stRp447
ag3
(g4
g5
(dp448
g14
S''
sg40
S'id'
p449
sg18
S''
sg42
S'Int'
p450
sg19
S''
sg15
g449
sg28
Nsg44
S'The message number'
p451
stRp452
ag3
(g4
g5
(dp453
g14
S''
sg40
S'message'
p454
sg18
S''
sg42
S'String'
p455
sg19
S''
sg15
g454
sg28
Nsg44
S'The message text'
p456
stRp457
atRp458
sg68
g431
sg69
S'0'
sg70
g71
sg44
S'System messages'
p459
sg42
S'Message'
p460
sg74
S'103'
p461
sg40
S'db.message'
p462
stRp463
sS'ticket'
p464
g3
(g4
g5
(dp465
g7
S'user, host'
p466
sg9
g3
(g10
g11
(lp467
g3
(g4
g5
(dp468
g14
S''
sg15
g16
sg17
g16
sg18
S''
sg19
S''
sg20
g21
sg22
g23
stRp469
ag3
(g4
g5
(dp470
g14
S''
sg17
g26
sg18
S''
sg20
g27
sg19
S''
sg15
g26
sg28
Nsg22
g29
stRp471
ag3
(g4
g5
(dp472
g14
S''
sg17
g32
sg18
S''
sg20
g21
sg19
S''
sg15
g32
sg28
Nsg22
g33
stRp473
ag3
(g4
g5
(dp474
g14
S''
sg17
g36
sg18
S''
sg20
g27
sg19
S''
sg15
g36
sg28
Nsg22
g37
stRp475
ag3
(g4
g5
(dp476
g14
S''
sg40
S'user'
p477
sg18
S''
sg42
S'User'
p478
sg19
S''
sg15
g477
sg28
Nsg44
S'User the ticket was issued for'
p479
stRp480
ag3
(g4
g5
(dp481
g14
S''
sg40
S'host'
p482
sg18
S''
sg42
S'Key'
p483
sg19
S''
sg15
g482
sg28
Nsg44
S'Host the ticket was issued for'
p484
stRp485
ag3
(g4
g5
(dp486
g14
S''
sg40
S'ticket'
p487
sg18
S''
sg42
S'Password'
p488
sg19
S''
sg15
g487
sg28
Nsg44
S"The 'p4 login' ticket for this user"
p489
stRp490
ag3
(g4
g5
(dp491
g14
S''
sg40
S'state'
p492
sg18
S''
sg42
S'2FAState'
p493
sg19
S''
sg15
g492
sg28
Nsg44
S'The state of 2 Factor Authentication'
p494
stRp495
ag3
(g4
g5
(dp496
g14
S''
sg40
S'token'
p497
sg18
S''
sg42
S'String'
p498
sg19
S''
sg15
g497
sg28
Nsg44
S'The 2 Factor Authentication token'
p499
stRp500
ag3
(g4
g5
(dp501
g14
S''
sg40
S'updateDate'
p502
sg18
S''
sg42
S'Date'
p503
sg19
S''
sg15
g502
sg28
Nsg44
S'The date of the last ticket update'
p504
stRp505
atRp506
sg68
g464
sg69
S'0'
sg70
g71
sg44
S'Second factor authentication state on a per user/host basis'
p507
sg42
S'Ticket'
p508
sg74
S'17'
p509
sg40
S'db.ticket'
p510
stRp511
sS'bodtext'
p512
g3
(g4
g5
(dp513
g7
S'key, attr'
p514
sg9
g3
(g10
g11
(lp515
g3
(g4
g5
(dp516
g14
S''
sg15
g16
sg17
g16
sg18
S''
sg19
S''
sg20
g21
sg22
g23
stRp517
ag3
(g4
g5
(dp518
g14
S''
sg17
g26
sg18
S''
sg20
g27
sg19
S''
sg15
g26
sg28
Nsg22
g29
stRp519
ag3
(g4
g5
(dp520
g14
S''
sg17
g32
sg18
S''
sg20
g21
sg19
S''
sg15
g32
sg28
Nsg22
g33
stRp521
ag3
(g4
g5
(dp522
g14
S''
sg17
g36
sg18
S''
sg20
g27
sg19
S''
sg15
g36
sg28
Nsg22
g37
stRp523
ag3
(g4
g5
(dp524
g14
S''
sg40
S'key'
p525
sg18
S''
sg42
S'Key'
p526
sg19
S''
sg15
g525
sg28
Nsg44
S'The job to which this attribute belongs'
p527
stRp528
ag3
(g4
g5
(dp529
g14
S''
sg40
S'attr'
p530
sg18
S''
sg42
S'Int'
p531
sg19
S''
sg15
g530
sg28
Nsg44
S'The attribute number (from the jobspec) of this attribute'
p532
stRp533
ag3
(g4
g5
(dp534
g14
S''
sg40
S'isBulk'
p535
sg18
S''
sg42
S'Int'
p536
sg19
S''
sg15
g535
sg28
Nsg44
S'Indicates whether (1), or not (0) the field is a bulk\n                    text field that should not be indexed.'
p537
stRp538
ag3
(g4
g5
(dp539
g14
S''
sg40
S'text'
p540
sg18
S''
sg42
S'Text'
p541
sg19
S''
sg15
g540
sg28
Nsg44
S'The attribute value'
p542
stRp543
atRp544
sg68
g512
sg69
S'1'
sg70
g71
sg44
S'Job data for job attributes'
p545
sg42
S'BodyText'
p546
sg74
S'92'
p547
sg40
S'db.bodtext'
p548
stRp549
sS'havept'
p550
g3
(g4
g5
(dp551
g7
S'clientFile'
p552
sg9
g3
(g10
g11
(lp553
g3
(g4
g5
(dp554
g14
S''
sg15
g16
sg17
g16
sg18
S''
sg19
S''
sg20
g21
sg22
g23
stRp555
ag3
(g4
g5
(dp556
g14
S''
sg17
g26
sg18
S''
sg20
g27
sg19
S''
sg15
g26
sg28
Nsg22
g29
stRp557
ag3
(g4
g5
(dp558
g14
S''
sg17
g32
sg18
S''
sg20
g21
sg19
S''
sg15
g32
sg28
Nsg22
g33
stRp559
ag3
(g4
g5
(dp560
g14
S''
sg17
g36
sg18
S''
sg20
g27
sg19
S''
sg15
g36
sg28
Nsg22
g37
stRp561
ag3
(g4
g5
(dp562
g14
S''
sg40
S'clientFile'
p563
sg18
S''
sg42
S'File'
p564
sg19
S''
sg15
g563
sg28
Nsg44
S'The file in its location on the client'
p565
stRp566
ag3
(g4
g5
(dp567
g14
S''
sg40
S'depotFile'
p568
sg18
S''
sg42
S'File'
p569
sg19
S''
sg15
g568
sg28
Nsg44
S'The file in the depot'
p570
stRp571
ag3
(g4
g5
(dp572
g14
S''
sg40
S'haveRev'
p573
sg18
S''
sg42
S'Rev'
p574
sg19
S''
sg15
g573
sg28
Nsg44
S'The revision synced to the client'
p575
stRp576
ag3
(g4
g5
(dp577
g14
S''
sg40
S'type'
p578
sg18
S''
sg42
S'FileType'
p579
sg19
S''
sg15
g578
sg28
Nsg44
S'The filetype of the synced file'
p580
stRp581
ag3
(g4
g5
(dp582
g14
S''
sg40
S'time'
p583
sg18
S''
sg42
S'Date'
p584
sg19
S''
sg15
g583
sg28
Nsg44
S'The sync time of the synced revision'
p585
stRp586
atRp587
sg68
g550
sg69
S'3'
sg70
g71
sg44
S'Placeholder for read-only clients'
p588
sg42
S'Have'
p589
sg74
S'34'
p590
sg40
S'db.have.pt'
p591
stRp592
sS'submodule'
p593
g3
(g4
g5
(dp594
g7
S'repo, path'
p595
sg9
g3
(g10
g11
(lp596
g3
(g4
g5
(dp597
g14
S''
sg15
g16
sg17
g16
sg18
S''
sg19
S''
sg20
g21
sg22
g23
stRp598
ag3
(g4
g5
(dp599
g14
S''
sg17
g26
sg18
S''
sg20
g27
sg19
S''
sg15
g26
sg28
Nsg22
g29
stRp600
ag3
(g4
g5
(dp601
g14
S''
sg17
g32
sg18
S''
sg20
g21
sg19
S''
sg15
g32
sg28
Nsg22
g33
stRp602
ag3
(g4
g5
(dp603
g14
S''
sg17
g36
sg18
S''
sg20
g27
sg19
S''
sg15
g36
sg28
Nsg22
g37
stRp604
ag3
(g4
g5
(dp605
g14
S''
sg40
S'repo'
p606
sg18
S''
sg42
S'Key'
p607
sg19
S''
sg15
g606
sg28
Nsg44
S'Repository name'
p608
stRp609
ag3
(g4
g5
(dp610
g14
S''
sg40
S'path'
p611
sg18
S''
sg42
S'Key'
p612
sg19
S''
sg15
g611
sg28
Nsg44
S'Path at which the submodule is linked'
p613
stRp614
ag3
(g4
g5
(dp615
g14
S''
sg40
S'subrepo'
p616
sg18
S''
sg42
S'Key'
p617
sg19
S''
sg15
g616
sg28
Nsg44
S'Submodule repository name'
p618
stRp619
atRp620
sg68
g593
sg69
S'0'
sg70
g71
sg44
S'Submodule configuration data'
p621
sg42
S'Submodule'
p622
sg74
S'82'
p623
sg40
S'db.submodule'
p624
stRp625
sS'group'
p626
g3
(g4
g5
(dp627
g7
S'user, group'
p628
sg9
g3
(g10
g11
(lp629
g3
(g4
g5
(dp630
g14
S''
sg15
g16
sg17
g16
sg18
S''
sg19
S''
sg20
g21
sg22
g23
stRp631
ag3
(g4
g5
(dp632
g14
S''
sg17
g26
sg18
S''
sg20
g27
sg19
S''
sg15
g26
sg28
Nsg22
g29
stRp633
ag3
(g4
g5
(dp634
g14
S''
sg17
g32
sg18
S''
sg20
g21
sg19
S''
sg15
g32
sg28
Nsg22
g33
stRp635
ag3
(g4
g5
(dp636
g14
S''
sg17
g36
sg18
S''
sg20
g27
sg19
S''
sg15
g36
sg28
Nsg22
g37
stRp637
ag3
(g4
g5
(dp638
g14
S''
sg40
S'user'
p639
sg18
S''
sg42
S'User'
p640
sg19
S''
sg15
g639
sg28
Nsg44
S'User name'
p641
stRp642
ag3
(g4
g5
(dp643
g14
S''
sg40
S'group'
p644
sg18
S''
sg42
S'User'
p645
sg19
S''
sg15
g644
sg28
Nsg44
S'Group name'
p646
stRp647
ag3
(g4
g5
(dp648
g14
S''
sg40
S'type'
p649
sg18
S''
sg42
S'UserType'
p650
sg19
S''
sg15
g649
sg28
Nsg44
S'Type of user in this group.'
p651
stRp652
ag3
(g4
g5
(dp653
g14
S''
sg40
S'maxResults'
p654
sg18
S''
sg42
S'MaxResults'
p655
sg19
S''
sg15
g654
sg28
Nsg44
S'MaxResults setting for the group.'
p656
stRp657
ag3
(g4
g5
(dp658
g14
S''
sg40
S'maxScanRows'
p659
sg18
S''
sg42
S'MaxScanRows'
p660
sg19
S''
sg15
g659
sg28
Nsg44
S'MaxScanRows setting for the group.'
p661
stRp662
ag3
(g4
g5
(dp663
g14
S''
sg40
S'maxLockTime'
p664
sg18
S''
sg42
S'MaxLockTime'
p665
sg19
S''
sg15
g664
sg28
Nsg44
S'MaxLockTime setting for the group.'
p666
stRp667
ag3
(g4
g5
(dp668
g14
S''
sg40
S'maxOpenFiles'
p669
sg18
S''
sg42
S'MaxOpenFiles'
p670
sg19
S''
sg15
g669
sg28
Nsg44
S'MaxOpenFiles setting for the group.'
p671
stRp672
ag3
(g4
g5
(dp673
g14
S''
sg40
S'timeout'
p674
sg18
S''
sg42
S'Int'
p675
sg19
S''
sg15
g674
sg28
Nsg44
S'Length of time (in seconds) a login ticket remains valid.'
p676
stRp677
ag3
(g4
g5
(dp678
g14
S''
sg40
S'passwordTimeout'
p679
sg18
S''
sg42
S'Int'
p680
sg19
S''
sg15
g679
sg28
Nsg44
S'Length of time (in seconds) a password remains valid for users in the group.'
p681
stRp682
atRp683
sg68
g626
sg69
S'9'
sg70
g71
sg44
S'Group specifications'
p684
sg42
S'Group'
p685
sg74
S'18'
p686
sg40
S'db.group'
p687
stRp688
sS'monitor'
p689
g3
(g4
g5
(dp690
g7
S'id'
p691
sg9
g3
(g10
g11
(lp692
g3
(g4
g5
(dp693
g14
S''
sg15
g16
sg17
g16
sg18
S''
sg19
S''
sg20
g21
sg22
g23
stRp694
ag3
(g4
g5
(dp695
g14
S''
sg17
g26
sg18
S''
sg20
g27
sg19
S''
sg15
g26
sg28
Nsg22
g29
stRp696
ag3
(g4
g5
(dp697
g14
S''
sg17
g32
sg18
S''
sg20
g21
sg19
S''
sg15
g32
sg28
Nsg22
g33
stRp698
ag3
(g4
g5
(dp699
g14
S''
sg17
g36
sg18
S''
sg20
g27
sg19
S''
sg15
g36
sg28
Nsg22
g37
stRp700
ag3
(g4
g5
(dp701
g14
S''
sg40
S'id'
p702
sg18
S''
sg42
S'Int'
p703
sg19
S''
sg15
g702
sg28
Nsg44
S'Thread/process id'
p704
stRp705
ag3
(g4
g5
(dp706
g14
S''
sg40
S'user'
p707
sg18
S''
sg42
S'User'
p708
sg19
S''
sg15
g707
sg28
Nsg44
S'Username of the user running the command'
p709
stRp710
ag3
(g4
g5
(dp711
g14
S''
sg40
S'function'
p712
sg18
S''
sg42
S'String'
p713
sg19
S''
sg15
g712
sg28
Nsg44
S'The command being executed.'
p714
stRp715
ag3
(g4
g5
(dp716
g14
S''
sg40
S'args'
p717
sg18
S''
sg42
S'String'
p718
sg19
S''
sg15
g717
sg28
Nsg44
S'Arguments passed to the command'
p719
stRp720
ag3
(g4
g5
(dp721
g14
S''
sg40
S'startDate'
p722
sg18
S''
sg42
S'Date'
p723
sg19
S''
sg15
g722
sg28
Nsg44
S'The date and time the command started'
p724
stRp725
ag3
(g4
g5
(dp726
g14
S''
sg40
S'runstate'
p727
sg18
S''
sg42
S'Int'
p728
sg19
S''
sg15
g727
sg28
Nsg44
S'Flag: 0 for running, 1 for terminated, 2 for paused'
p729
stRp730
ag3
(g4
g5
(dp731
g14
S''
sg40
S'client'
p732
sg18
S''
sg42
S'Domain'
p733
sg19
S''
sg15
g732
sg28
Nsg44
S'The client workspace'
p734
stRp735
ag3
(g4
g5
(dp736
g14
S''
sg40
S'host'
p737
sg18
S''
sg42
S'Text'
p738
sg19
S''
sg15
g737
sg28
Nsg44
S'The IP address of the client'
p739
stRp740
ag3
(g4
g5
(dp741
g14
S''
sg40
S'prog'
p742
sg18
S''
sg42
S'Text'
p743
sg19
S''
sg15
g742
sg28
Nsg44
S'The name (and version) of the client program'
p744
stRp745
ag3
(g4
g5
(dp746
g14
S''
sg40
S'lockInfo'
p747
sg18
S''
sg42
S'Text'
p748
sg19
S''
sg15
g747
sg28
Nsg44
S'Table locking information for command'
p749
stRp750
atRp751
sg68
g689
sg69
S'2'
sg70
g71
sg44
S'Helix Server process information'
p752
sg42
S'Monitor'
p753
sg74
S'107'
p754
sg40
S'db.monitor'
p755
stRp756
sS'working'
p757
g3
(g4
g5
(dp758
g7
S'clientFile'
p759
sg9
g3
(g10
g11
(lp760
g3
(g4
g5
(dp761
g14
S''
sg15
g16
sg17
g16
sg18
S''
sg19
S''
sg20
g21
sg22
g23
stRp762
ag3
(g4
g5
(dp763
g14
S''
sg17
g26
sg18
S''
sg20
g27
sg19
S''
sg15
g26
sg28
Nsg22
g29
stRp764
ag3
(g4
g5
(dp765
g14
S''
sg17
g32
sg18
S''
sg20
g21
sg19
S''
sg15
g32
sg28
Nsg22
g33
stRp766
ag3
(g4
g5
(dp767
g14
S''
sg17
g36
sg18
S''
sg20
g27
sg19
S''
sg15
g36
sg28
Nsg22
g37
stRp768
ag3
(g4
g5
(dp769
g14
S''
sg40
S'clientFile'
p770
sg18
S''
sg42
S'File'
p771
sg19
S''
sg15
g770
sg28
Nsg44
S'File on the client'
p772
stRp773
ag3
(g4
g5
(dp774
g14
S''
sg40
S'depotFile'
p775
sg18
S''
sg42
S'File'
p776
sg19
S''
sg15
g775
sg28
Nsg44
S'File in the depot'
p777
stRp778
ag3
(g4
g5
(dp779
g14
S''
sg40
S'client'
p780
sg18
S''
sg42
S'Domain'
p781
sg19
S''
sg15
g780
sg28
Nsg44
S'The client the file is opened on'
p782
stRp783
ag3
(g4
g5
(dp784
g14
S''
sg40
S'user'
p785
sg18
S''
sg42
S'User'
p786
sg19
S''
sg15
g785
sg28
Nsg44
S'The user who has the file opened'
p787
stRp788
ag3
(g4
g5
(dp789
g14
S''
sg40
S'haveRev'
p790
sg18
S''
sg42
S'Rev'
p791
sg19
S''
sg15
g790
sg28
Nsg44
S"Revision presently in user's client workspace"
p792
stRp793
ag3
(g4
g5
(dp794
g14
S''
sg40
S'workRev'
p795
sg18
S''
sg42
S'Rev'
p796
sg19
S''
sg15
g795
sg28
Nsg44
S'Working revision; normally identical to the haveRev'
p797
stRp798
ag3
(g4
g5
(dp799
g14
S''
sg40
S'isVirtual'
p800
sg18
S''
sg42
S'Int'
p801
sg19
S''
sg15
g800
sg28
Nsg44
S'Flag: if 1, file was opened with "p4 integ -v".'
p802
stRp803
ag3
(g4
g5
(dp804
g14
S''
sg40
S'type'
p805
sg18
S''
sg42
S'FileType'
p806
sg19
S''
sg15
g805
sg28
Nsg44
S'File type'
p807
stRp808
ag3
(g4
g5
(dp809
g14
S''
sg40
S'action'
p810
sg18
S''
sg42
S'Action'
p811
sg19
S''
sg15
g810
sg28
Nsg44
S"What the user's doing with the file"
p812
stRp813
ag3
(g4
g5
(dp814
g14
S''
sg40
S'change'
p815
sg18
S''
sg42
S'Change'
p816
sg19
S''
sg15
g815
sg28
Nsg44
S'Associated changelist, or zero for the default changelist.'
p817
stRp818
ag3
(g4
g5
(dp819
g14
S''
sg40
S'modTime'
p820
sg18
S''
sg42
S'Date'
p821
sg19
S''
sg15
g820
sg28
Nsg44
S"Modification timestamp on the file in the user's workspace."
p822
stRp823
ag3
(g4
g5
(dp824
g14
S''
sg40
S'isLocked'
p825
sg18
S''
sg42
S'LockedType'
p826
sg19
S''
sg15
g825
sg28
Nsg44
S'Bitmask of locked flags'
p827
stRp828
ag3
(g4
g5
(dp829
g14
S''
sg40
S'digest'
p830
sg18
S''
sg42
S'Digest'
p831
sg19
S''
sg15
g830
sg28
Nsg44
S'MD5 digest of working file.'
p832
stRp833
ag3
(g4
g5
(dp834
g14
S''
sg40
S'size'
p835
sg18
S''
sg42
S'FileSize'
p836
sg19
S''
sg15
g835
sg28
Nsg44
S'File size'
p837
stRp838
ag3
(g4
g5
(dp839
g14
S''
sg40
S'traitLot'
p840
sg18
S''
sg42
S'TraitLot'
p841
sg19
S''
sg15
g840
sg28
Nsg44
S'Group of traits associated with file revision.'
p842
stRp843
ag3
(g4
g5
(dp844
g14
S''
sg40
S'tampered'
p845
sg18
S''
sg42
S'TamperCheck'
p846
sg19
S''
sg15
g845
sg28
Nsg44
S'Flag indicating the tamper-state of the file in the\n                    workspace.'
p847
stRp848
ag3
(g4
g5
(dp849
g14
S''
sg40
S'clientType'
p850
sg18
S''
sg42
S'FileType'
p851
sg19
S''
sg15
g850
sg28
Nsg44
S'Type of the file in the client workspace.'
p852
stRp853
ag3
(g4
g5
(dp854
g14
S''
sg40
S'movedFile'
p855
sg18
S''
sg42
S'File'
p856
sg19
S''
sg15
g855
sg28
Nsg44
S'Moved from filename'
p857
stRp858
ag3
(g4
g5
(dp859
g14
S''
sg40
S'status'
p860
sg18
S''
sg42
S'WorkStatus'
p861
sg19
S''
sg15
g860
sg28
Nsg44
S'Working status'
p862
stRp863
atRp864
sg68
g757
sg69
S'10'
p865
sg70
g71
sg44
S'Records for work in progress'
p866
sg42
S'Working'
p867
sg74
S'63'
p868
sg40
S'db.working'
p869
stRp870
sS'fix'
p871
g3
(g4
g5
(dp872
g7
S'job, change'
p873
sg9
g3
(g10
g11
(lp874
g3
(g4
g5
(dp875
g14
S''
sg15
g16
sg17
g16
sg18
S''
sg19
S''
sg20
g21
sg22
g23
stRp876
ag3
(g4
g5
(dp877
g14
S''
sg17
g26
sg18
S''
sg20
g27
sg19
S''
sg15
g26
sg28
Nsg22
g29
stRp878
ag3
(g4
g5
(dp879
g14
S''
sg17
g32
sg18
S''
sg20
g21
sg19
S''
sg15
g32
sg28
Nsg22
g33
stRp880
ag3
(g4
g5
(dp881
g14
S''
sg17
g36
sg18
S''
sg20
g27
sg19
S''
sg15
g36
sg28
Nsg22
g37
stRp882
ag3
(g4
g5
(dp883
g14
S''
sg40
S'job'
p884
sg18
S''
sg42
S'Key'
p885
sg19
S''
sg15
g884
sg28
Nsg44
S'Job name'
p886
stRp887
ag3
(g4
g5
(dp888
g14
S''
sg40
S'change'
p889
sg18
S''
sg42
S'Change'
p890
sg19
S''
sg15
g889
sg28
Nsg44
S'Changelist number'
p891
stRp892
ag3
(g4
g5
(dp893
g14
S''
sg40
S'date'
p894
sg18
S''
sg42
S'Date'
p895
sg19
S''
sg15
g894
sg28
Nsg44
S'Date fix was recorded (may differ from date change was\n                    submitted).'
p896
stRp897
ag3
(g4
g5
(dp898
g14
S''
sg40
S'status'
p899
sg18
S''
sg42
S'FixStatus'
p900
sg19
S''
sg15
g899
sg28
Nsg44
S'Status of the job'
p901
stRp902
ag3
(g4
g5
(dp903
g14
S''
sg40
S'client'
p904
sg18
S''
sg42
S'Domain'
p905
sg19
S''
sg15
g904
sg28
Nsg44
S'The client where the fix originated'
p906
stRp907
ag3
(g4
g5
(dp908
g14
S''
sg40
S'user'
p909
sg18
S''
sg42
S'User'
p910
sg19
S''
sg15
g909
sg28
Nsg44
S'The user who fixed the job'
p911
stRp912
atRp913
sg68
g871
sg40
S'db.fix'
p914
sg69
S'1'
sg70
g71
sS'seeAlso'
p915
S'db.fixrev'
p916
sg42
S'Fix'
p917
sg74
S'87'
p918
sg44
S'Fix records - indexed by job'
p919
stRp920
sS'tiny'
p921
g3
(g4
g5
(dp922
g7
S'key'
p923
sg9
g3
(g10
g11
(lp924
g3
(g4
g5
(dp925
g14
S''
sg15
g16
sg17
g16
sg18
S''
sg19
S''
sg20
g21
sg22
g23
stRp926
ag3
(g4
g5
(dp927
g14
S''
sg17
g26
sg18
S''
sg20
g27
sg19
S''
sg15
g26
sg28
Nsg22
g29
stRp928
ag3
(g4
g5
(dp929
g14
S''
sg17
g32
sg18
S''
sg20
g21
sg19
S''
sg15
g32
sg28
Nsg22
g33
stRp930
ag3
(g4
g5
(dp931
g14
S''
sg17
g36
sg18
S''
sg20
g27
sg19
S''
sg15
g36
sg28
Nsg22
g37
stRp932
ag3
(g4
g5
(dp933
g14
S''
sg40
S'key'
p934
sg18
S''
sg42
S'Key'
p935
sg19
S''
sg15
g934
sg28
Nsg44
S'The file name and revision'
p936
stRp937
ag3
(g4
g5
(dp938
g14
S''
sg40
S'value'
p939
sg18
S''
sg42
S'Octet String'
p940
sg19
S''
sg15
g939
sg28
Nsg44
S'The (encoded) file content'
p941
stRp942
atRp943
sg68
g921
sg69
S'0'
sg70
g71
sg44
S'Records content data for tiny files using the +T file type modifier'
p944
sg42
S'TinyDb'
p945
sg40
S'tiny.db'
p946
stRp947
sS'groupx'
p948
g3
(g4
g5
(dp949
g7
S'group'
p950
sg9
g3
(g10
g11
(lp951
g3
(g4
g5
(dp952
g14
S''
sg15
g16
sg17
g16
sg18
S''
sg19
S''
sg20
g21
sg22
g23
stRp953
ag3
(g4
g5
(dp954
g14
S''
sg17
g26
sg18
S''
sg20
g27
sg19
S''
sg15
g26
sg28
Nsg22
g29
stRp955
ag3
(g4
g5
(dp956
g14
S''
sg17
g32
sg18
S''
sg20
g21
sg19
S''
sg15
g32
sg28
Nsg22
g33
stRp957
ag3
(g4
g5
(dp958
g14
S''
sg17
g36
sg18
S''
sg20
g27
sg19
S''
sg15
g36
sg28
Nsg22
g37
stRp959
ag3
(g4
g5
(dp960
g14
S''
sg40
S'group'
p961
sg18
S''
sg42
S'User'
p962
sg19
S''
sg15
g961
sg28
Nsg44
S'Group name'
p963
stRp964
ag3
(g4
g5
(dp965
g14
S''
sg40
S'ldapConf'
p966
sg18
S''
sg42
S'String'
p967
sg19
S''
sg15
g966
sg28
Nsg44
S"The LDAP configuration to use when populating the group's user list from an LDAP query"
p968
stRp969
ag3
(g4
g5
(dp970
g14
S''
sg40
S'ldapSearchQuery'
p971
sg18
S''
sg42
S'String'
p972
sg19
S''
sg15
g971
sg28
Nsg44
S'The LDAP query used to identify the members of the group'
p973
stRp974
ag3
(g4
g5
(dp975
g14
S''
sg40
S'ldapUserAttribute'
p976
sg18
S''
sg42
S'String'
p977
sg19
S''
sg15
g976
sg28
Nsg44
S"The LDAP attribute that represents the user's username"
p978
stRp979
ag3
(g4
g5
(dp980
g14
S''
sg40
S'ldapDNAttribute'
p981
sg18
S''
sg42
S'String'
p982
sg19
S''
sg15
g981
sg28
Nsg44
S"The LDAP attribute that represents the user's DN"
p983
stRp984
atRp985
sg68
g948
sg69
S'1'
sg70
g71
sg44
S'Per-group data to support group membership controlled by AD/LDAP group membership'
p986
sg42
S'GroupX'
p987
sg74
S'19'
p988
sg40
S'db.groupx'
p989
stRp990
sS'trigger'
p991
g3
(g4
g5
(dp992
g7
S'seq'
p993
sg9
g3
(g10
g11
(lp994
g3
(g4
g5
(dp995
g14
S''
sg15
g16
sg17
g16
sg18
S''
sg19
S''
sg20
g21
sg22
g23
stRp996
ag3
(g4
g5
(dp997
g14
S''
sg17
g26
sg18
S''
sg20
g27
sg19
S''
sg15
g26
sg28
Nsg22
g29
stRp998
ag3
(g4
g5
(dp999
g14
S''
sg17
g32
sg18
S''
sg20
g21
sg19
S''
sg15
g32
sg28
Nsg22
g33
stRp1000
ag3
(g4
g5
(dp1001
g14
S''
sg17
g36
sg18
S''
sg20
g27
sg19
S''
sg15
g36
sg28
Nsg22
g37
stRp1002
ag3
(g4
g5
(dp1003
g14
S''
sg40
S'seq'
p1004
sg18
S''
sg42
S'Int'
p1005
sg19
S''
sg15
g1004
sg28
Nsg44
S'Sequence number: for ordering the trigger list'
p1006
stRp1007
ag3
(g4
g5
(dp1008
g14
S''
sg40
S'name'
p1009
sg18
S''
sg42
S'Key'
p1010
sg19
S''
sg15
g1009
sg28
Nsg44
S'Name of the trigger'
p1011
stRp1012
ag3
(g4
g5
(dp1013
g14
S''
sg40
S'mapFlag'
p1014
sg18
S''
sg42
S'MapFlag'
p1015
sg19
S''
sg15
g1014
sg28
Nsg44
S'Type of mapping: specifies whether the trigger applies\n                    to the files or not.'
p1016
stRp1017
ag3
(g4
g5
(dp1018
g14
S''
sg40
S'depotFile'
p1019
sg18
S''
sg42
S'Mapping'
p1020
sg19
S''
sg15
g1019
sg28
Nsg44
S'The files to apply the trigger to'
p1021
stRp1022
ag3
(g4
g5
(dp1023
g14
S''
sg40
S'triggerDepotFile'
p1024
sg18
S''
sg42
S'File'
p1025
sg19
S''
sg15
g1024
sg28
Nsg44
S'Depot path to the trigger'
p1026
stRp1027
ag3
(g4
g5
(dp1028
g14
S''
sg40
S'trigger'
p1029
sg18
S''
sg42
S'Trigger'
p1030
sg19
S''
sg15
g1029
sg28
Nsg44
S'Type of trigger'
p1031
stRp1032
ag3
(g4
g5
(dp1033
g14
S''
sg40
S'action'
p1034
sg18
S''
sg42
S'Text'
p1035
sg19
S''
sg15
g1034
sg28
Nsg44
S'Command to execute when trigger runs'
p1036
stRp1037
atRp1038
sg68
g991
sg69
S'3'
sg70
g71
sg44
S'Trigger specifications'
p1039
sg42
S'Trigger'
p1040
sg74
S'71'
p1041
sg40
S'db.trigger'
p1042
stRp1043
sS'change'
p1044
g3
(g4
g5
(dp1045
g7
S'change'
p1046
sg9
g3
(g10
g11
(lp1047
g3
(g4
g5
(dp1048
g14
S''
sg15
g16
sg17
g16
sg18
S''
sg19
S''
sg20
g21
sg22
g23
stRp1049
ag3
(g4
g5
(dp1050
g14
S''
sg17
g26
sg18
S''
sg20
g27
sg19
S''
sg15
g26
sg28
Nsg22
g29
stRp1051
ag3
(g4
g5
(dp1052
g14
S''
sg17
g32
sg18
S''
sg20
g21
sg19
S''
sg15
g32
sg28
Nsg22
g33
stRp1053
ag3
(g4
g5
(dp1054
g14
S''
sg17
g36
sg18
S''
sg20
g27
sg19
S''
sg15
g36
sg28
Nsg22
g37
stRp1055
ag3
(g4
g5
(dp1056
g14
S''
sg40
S'change'
p1057
sg18
S''
sg42
S'Change'
p1058
sg19
S''
sg15
g1057
sg28
Nsg44
S'The change number'
p1059
stRp1060
ag3
(g4
g5
(dp1061
g14
S''
sg40
S'descKey'
p1062
sg18
S''
sg42
S'Change'
p1063
sg19
S''
sg15
g1062
sg28
Nsg44
S"The description key. Normally the same as 'change', but\n                    may differ if a changelist was renumbered on submission."
p1064
stRp1065
ag3
(g4
g5
(dp1066
g14
S''
sg40
S'client'
p1067
sg18
S''
sg42
S'Domain'
p1068
sg19
S''
sg15
g1067
sg28
Nsg44
S'The client from which the change originates'
p1069
stRp1070
ag3
(g4
g5
(dp1071
g14
S''
sg40
S'user'
p1072
sg18
S''
sg42
S'User'
p1073
sg19
S''
sg15
g1072
sg28
Nsg44
S'The user who owns the change'
p1074
stRp1075
ag3
(g4
g5
(dp1076
g14
S''
sg40
S'date'
p1077
sg18
S''
sg42
S'Date'
p1078
sg19
S''
sg15
g1077
sg28
Nsg44
S'Date and time the changelist was submitted'
p1079
stRp1080
ag3
(g4
g5
(dp1081
g14
S''
sg40
S'status'
p1082
sg18
S''
sg42
S'ChangeStatus'
p1083
sg19
S''
sg15
g1082
sg28
Nsg44
S'Status of the change'
p1084
stRp1085
ag3
(g4
g5
(dp1086
g14
S''
sg40
S'description'
p1087
sg18
S''
sg42
S'DescShort'
p1088
sg19
S''
sg15
g1087
sg28
Nsg44
S'Short description of the change.'
p1089
stRp1090
ag3
(g4
g5
(dp1091
g14
S''
sg40
S'root'
p1092
sg18
S''
sg42
S'Mapping'
p1093
sg19
S''
sg15
g1092
sg28
Nsg44
S'Common path for all files in the changelist'
p1094
stRp1095
ag3
(g4
g5
(dp1096
g14
S''
sg40
S'importer'
p1097
sg18
S''
sg42
S'User'
p1098
sg19
S''
sg15
g1097
sg28
Nsg44
S'The user who fetched or pushed this change to this server'
p1099
stRp1100
ag3
(g4
g5
(dp1101
g14
S''
sg40
S'identity'
p1102
sg18
S''
sg42
S'Key'
p1103
sg19
S''
sg15
g1102
sg28
Nsg44
S'Identifier for this change'
p1104
stRp1105
ag3
(g4
g5
(dp1106
g14
S''
sg40
S'access'
p1107
sg18
S''
sg42
S'Date'
p1108
sg19
S''
sg15
g1107
sg28
Nsg44
S'Shelve last access'
p1109
stRp1110
ag3
(g4
g5
(dp1111
g14
S''
sg40
S'update'
p1112
sg18
S''
sg42
S'Date'
p1113
sg19
S''
sg15
g1112
sg28
Nsg44
S'Shelve last update'
p1114
stRp1115
ag3
(g4
g5
(dp1116
g14
S''
sg40
S'stream'
p1117
sg18
S''
sg42
S'Domain'
p1118
sg19
S''
sg15
g1117
sg28
Nsg44
S'Stream spec name in changelist'
p1119
stRp1120
atRp1121
sg68
g1044
sg69
S'6'
sg70
g71
sg44
S'Changelists'
p1122
sg42
S'Change'
p1123
sg74
S'72'
p1124
sg40
S'db.change'
p1125
stRp1126
sS'ldap'
p1127
g3
(g4
g5
(dp1128
g7
S'name'
p1129
sg9
g3
(g10
g11
(lp1130
g3
(g4
g5
(dp1131
g14
S''
sg15
g16
sg17
g16
sg18
S''
sg19
S''
sg20
g21
sg22
g23
stRp1132
ag3
(g4
g5
(dp1133
g14
S''
sg17
g26
sg18
S''
sg20
g27
sg19
S''
sg15
g26
sg28
Nsg22
g29
stRp1134
ag3
(g4
g5
(dp1135
g14
S''
sg17
g32
sg18
S''
sg20
g21
sg19
S''
sg15
g32
sg28
Nsg22
g33
stRp1136
ag3
(g4
g5
(dp1137
g14
S''
sg17
g36
sg18
S''
sg20
g27
sg19
S''
sg15
g36
sg28
Nsg22
g37
stRp1138
ag3
(g4
g5
(dp1139
g14
S''
sg40
S'name'
p1140
sg18
S''
sg42
S'Key'
p1141
sg19
S''
sg15
g1140
sg28
Nsg44
S'The LDAP configuration name'
p1142
stRp1143
ag3
(g4
g5
(dp1144
g14
S''
sg40
S'host'
p1145
sg18
S''
sg42
S'String'
p1146
sg19
S''
sg15
g1145
sg28
Nsg44
S'The FQDN of the directory server'
p1147
stRp1148
ag3
(g4
g5
(dp1149
g14
S''
sg40
S'port'
p1150
sg18
S''
sg42
S'Int'
p1151
sg19
S''
sg15
g1150
sg28
Nsg44
S'The port number on which to connect to the directory server'
p1152
stRp1153
ag3
(g4
g5
(dp1154
g14
S''
sg40
S'ssl'
p1155
sg18
S''
sg42
S'Int'
p1156
sg19
S''
sg15
g1155
sg28
Nsg44
S"The encryption method to use when connecting to the The FQDN of the directory server.\n                    Options are: 0='none', 1='ssl' and 2='tls'"
p1157
stRp1158
ag3
(g4
g5
(dp1159
g14
S''
sg40
S'type'
p1160
sg18
S''
sg42
S'Int'
p1161
sg19
S''
sg15
g1160
sg28
Nsg44
S"The bind method to use with this directory. Options are: 0='simple', 1='search' and 2='sasl'."
p1162
stRp1163
ag3
(g4
g5
(dp1164
g14
S''
sg40
S'pattern'
p1165
sg18
S''
sg42
S'Text'
p1166
sg19
S''
sg15
g1165
sg28
Nsg44
S"The DN used to bind against to validate the user's credentials."
p1167
stRp1168
ag3
(g4
g5
(dp1169
g14
S''
sg40
S'baseDN'
p1170
sg18
S''
sg42
S'Text'
p1171
sg19
S''
sg15
g1170
sg28
Nsg44
S'The DN from which to start the search for the user object'
p1172
stRp1173
ag3
(g4
g5
(dp1174
g14
S''
sg40
S'filter'
p1175
sg18
S''
sg42
S'Text'
p1176
sg19
S''
sg15
g1175
sg28
Nsg44
S'The LDAP query filter to use to identify the user object which will be used to bind against'
p1177
stRp1178
ag3
(g4
g5
(dp1179
g14
S''
sg40
S'scope'
p1180
sg18
S''
sg42
S'Int'
p1181
sg19
S''
sg15
g1180
sg28
Nsg44
S'The scope to use when searching for the user records. Options are:\n                    0 = baseonly - Just the BaseDN object\n                    1 = children - The BaseDN and its direct children\n                    2 = subtree - The BaseDN and all objects below it'
p1182
stRp1183
ag3
(g4
g5
(dp1184
g14
S''
sg40
S'bindDN'
p1185
sg18
S''
sg42
S'Text'
p1186
sg19
S''
sg15
g1185
sg28
Nsg44
S'The DN to bind against in order to search the directory'
p1187
stRp1188
ag3
(g4
g5
(dp1189
g14
S''
sg40
S'bindpass'
p1190
sg18
S''
sg42
S'Text'
p1191
sg19
S''
sg15
g1190
sg28
Nsg44
S'The password for the BindDN record'
p1192
stRp1193
ag3
(g4
g5
(dp1194
g14
S''
sg40
S'realm'
p1195
sg18
S''
sg42
S'Text'
p1196
sg19
S''
sg15
g1195
sg28
Nsg44
S'The optional realm to use when authenticating the user via SASL'
p1197
stRp1198
ag3
(g4
g5
(dp1199
g14
S''
sg40
S'groupBaseDN'
p1200
sg18
S''
sg42
S'Text'
p1201
sg19
S''
sg15
g1200
sg28
Nsg44
S'The search base for performing the group search. If unset this will default to the SearchBaseDN'
p1202
stRp1203
ag3
(g4
g5
(dp1204
g14
S''
sg40
S'groupFilter'
p1205
sg18
S''
sg42
S'Text'
p1206
sg19
S''
sg15
g1205
sg28
Nsg44
S'The filter to use for the group search'
p1207
stRp1208
ag3
(g4
g5
(dp1209
g14
S''
sg40
S'groupScope'
p1210
sg18
S''
sg42
S'Int'
p1211
sg19
S''
sg15
g1210
sg28
Nsg44
S'The scope to use when performing the group search.Options are:\n                    0 = baseonly - Just the BaseDN object\n                    1 = children - The BaseDN and its direct children\n                    2 = subtree - The BaseDN and all objects below it'
p1212
stRp1213
ag3
(g4
g5
(dp1214
g14
S''
sg40
S'options'
p1215
sg18
S''
sg42
S'Int'
p1216
sg19
S''
sg15
g1215
sg28
Nsg44
S'LDAP options bitmask: 1=[no]downcase, 2=[no]getattrs and 4=[no]realminusername'
p1217
stRp1218
ag3
(g4
g5
(dp1219
g14
S''
sg40
S'attrUid'
p1220
sg18
S''
sg42
S'Text'
p1221
sg19
S''
sg15
g1220
sg28
Nsg44
S"The name of the attribute in the directory's user records that contain the users' UIDs"
p1222
stRp1223
ag3
(g4
g5
(dp1224
g14
S''
sg40
S'attrEmail'
p1225
sg18
S''
sg42
S'Text'
p1226
sg19
S''
sg15
g1225
sg28
Nsg44
S"The name of the attribute in the directory's user records that contain the users' email addresses."
p1227
stRp1228
ag3
(g4
g5
(dp1229
g14
S''
sg40
S'attrName'
p1230
sg18
S''
sg42
S'Text'
p1231
sg19
S''
sg15
g1230
sg28
Nsg44
S"The name(s) of the attribute(s) in the directory's user records that contain the users' full names."
p1232
stRp1233
atRp1234
sg68
g1127
sg69
S'0'
sg70
g71
sg44
S'LDAP specifications'
p1235
sg42
S'Ldap'
p1236
sg74
S'8'
sg40
S'db.ldap'
p1237
stRp1238
sS'logger'
p1239
g3
(g4
g5
(dp1240
g7
S'seq'
p1241
sg9
g3
(g10
g11
(lp1242
g3
(g4
g5
(dp1243
g14
S''
sg15
g16
sg17
g16
sg18
S''
sg19
S''
sg20
g21
sg22
g23
stRp1244
ag3
(g4
g5
(dp1245
g14
S''
sg17
g26
sg18
S''
sg20
g27
sg19
S''
sg15
g26
sg28
Nsg22
g29
stRp1246
ag3
(g4
g5
(dp1247
g14
S''
sg17
g32
sg18
S''
sg20
g21
sg19
S''
sg15
g32
sg28
Nsg22
g33
stRp1248
ag3
(g4
g5
(dp1249
g14
S''
sg17
g36
sg18
S''
sg20
g27
sg19
S''
sg15
g36
sg28
Nsg22
g37
stRp1250
ag3
(g4
g5
(dp1251
g14
S''
sg40
S'seq'
p1252
sg18
S''
sg42
S'Int'
p1253
sg19
S''
sg15
g1252
sg28
Nsg44
S'Sequence number of event'
p1254
stRp1255
ag3
(g4
g5
(dp1256
g14
S''
sg40
S'key'
p1257
sg18
S''
sg42
S'Key'
p1258
sg19
S''
sg15
g1257
sg28
Nsg44
S"Either the word 'change' or the word 'job'"
p1259
stRp1260
ag3
(g4
g5
(dp1261
g14
S''
sg40
S'attr'
p1262
sg18
S''
sg42
S'Key'
p1263
sg19
S''
sg15
g1262
sg28
Nsg44
S'The number of the change, or name of the job that was\n                    altered.'
p1264
stRp1265
atRp1266
sg68
g1239
sg69
S'0'
sg70
g71
sg44
S"Support for 'p4 logger' command. Logs any changes to\n                changelists and jobs"
p1267
sg42
S'Logger'
p1268
sg74
S'7'
sg40
S'db.logger'
p1269
stRp1270
sS'pubkey'
p1271
g3
(g4
g5
(dp1272
g7
S'user, scope'
p1273
sg9
g3
(g10
g11
(lp1274
g3
(g4
g5
(dp1275
g14
S''
sg15
g16
sg17
g16
sg18
S''
sg19
S''
sg20
g21
sg22
g23
stRp1276
ag3
(g4
g5
(dp1277
g14
S''
sg17
g26
sg18
S''
sg20
g27
sg19
S''
sg15
g26
sg28
Nsg22
g29
stRp1278
ag3
(g4
g5
(dp1279
g14
S''
sg17
g32
sg18
S''
sg20
g21
sg19
S''
sg15
g32
sg28
Nsg22
g33
stRp1280
ag3
(g4
g5
(dp1281
g14
S''
sg17
g36
sg18
S''
sg20
g27
sg19
S''
sg15
g36
sg28
Nsg22
g37
stRp1282
ag3
(g4
g5
(dp1283
g14
S''
sg40
S'user'
p1284
sg18
S''
sg42
S'User'
p1285
sg19
S''
sg15
g1284
sg28
Nsg44
S'User'
p1286
stRp1287
ag3
(g4
g5
(dp1288
g14
S''
sg40
S'scope'
p1289
sg18
S''
sg42
S'Key'
p1290
sg19
S''
sg15
g1289
sg28
Nsg44
S'Scope'
p1291
stRp1292
ag3
(g4
g5
(dp1293
g14
S''
sg40
S'key'
p1294
sg18
S''
sg42
S'Text'
p1295
sg19
S''
sg15
g1294
sg28
Nsg44
S'Key'
p1296
stRp1297
ag3
(g4
g5
(dp1298
g14
S''
sg40
S'digest'
p1299
sg18
S''
sg42
S'Digest'
p1300
sg19
S''
sg15
g1299
sg28
Nsg44
S'Digest'
p1301
stRp1302
ag3
(g4
g5
(dp1303
g14
S''
sg40
S'update'
p1304
sg18
S''
sg42
S'Date'
p1305
sg19
S''
sg15
g1304
sg28
Nsg44
S'Update date'
p1306
stRp1307
atRp1308
sg68
g1271
sg69
S'0'
sg70
g71
sg44
S'SSH Public keys'
p1309
sg42
S'PublicKey'
p1310
sg74
S'83'
p1311
sg40
S'db.pubkey'
p1312
stRp1313
sS'fixrev'
p1314
g3
(g4
g5
(dp1315
g7
S'change, job'
p1316
sg9
g3
(g10
g11
(lp1317
g3
(g4
g5
(dp1318
g14
S''
sg15
g16
sg17
g16
sg18
S''
sg19
S''
sg20
g21
sg22
g23
stRp1319
ag3
(g4
g5
(dp1320
g14
S''
sg17
g26
sg18
S''
sg20
g27
sg19
S''
sg15
g26
sg28
Nsg22
g29
stRp1321
ag3
(g4
g5
(dp1322
g14
S''
sg17
g32
sg18
S''
sg20
g21
sg19
S''
sg15
g32
sg28
Nsg22
g33
stRp1323
ag3
(g4
g5
(dp1324
g14
S''
sg17
g36
sg18
S''
sg20
g27
sg19
S''
sg15
g36
sg28
Nsg22
g37
stRp1325
ag3
(g4
g5
(dp1326
g14
S''
sg40
g884
sg18
S''
sg42
g885
sg19
S''
sg15
g884
sg28
Nsg44
g886
stRp1327
ag3
(g4
g5
(dp1328
g14
S''
sg40
g889
sg18
S''
sg42
g890
sg19
S''
sg15
g889
sg28
Nsg44
g891
stRp1329
ag3
(g4
g5
(dp1330
g14
S''
sg40
g894
sg18
S''
sg42
g895
sg19
S''
sg15
g894
sg28
Nsg44
g896
stRp1331
ag3
(g4
g5
(dp1332
g14
S''
sg40
g899
sg18
S''
sg42
g900
sg19
S''
sg15
g899
sg28
Nsg44
g901
stRp1333
ag3
(g4
g5
(dp1334
g14
S''
sg40
g904
sg18
S''
sg42
g905
sg19
S''
sg15
g904
sg28
Nsg44
g906
stRp1335
ag3
(g4
g5
(dp1336
g14
S''
sg40
g909
sg18
S''
sg42
g910
sg19
S''
sg15
g909
sg28
Nsg44
g911
stRp1337
atRp1338
sg68
g1314
sg40
S'db.fixrev'
p1339
sg69
S'1'
sg70
g71
sg915
S'db.fix'
p1340
sg42
S'Fix'
p1341
sg74
S'88'
p1342
sg44
S'Fix records - indexed by change'
p1343
stRp1344
sS'resolveg'
p1345
g3
(g4
g5
(dp1346
g7
S'toFile, fromFile, baseSha'
p1347
sg9
g3
(g10
g11
(lp1348
g3
(g4
g5
(dp1349
g14
S''
sg15
g16
sg17
g16
sg18
S''
sg19
S''
sg20
g21
sg22
g23
stRp1350
ag3
(g4
g5
(dp1351
g14
S''
sg17
g26
sg18
S''
sg20
g27
sg19
S''
sg15
g26
sg28
Nsg22
g29
stRp1352
ag3
(g4
g5
(dp1353
g14
S''
sg17
g32
sg18
S''
sg20
g21
sg19
S''
sg15
g32
sg28
Nsg22
g33
stRp1354
ag3
(g4
g5
(dp1355
g14
S''
sg17
g36
sg18
S''
sg20
g27
sg19
S''
sg15
g36
sg28
Nsg22
g37
stRp1356
ag3
(g4
g5
(dp1357
g14
S''
sg40
S'toFile'
p1358
sg18
S''
sg42
S'File'
p1359
sg19
S''
sg15
g1358
sg28
Nsg44
S'ToFile'
p1360
stRp1361
ag3
(g4
g5
(dp1362
g14
S''
sg40
S'fromFile'
p1363
sg18
S''
sg42
S'File'
p1364
sg19
S''
sg15
g1363
sg28
Nsg44
S'FromFile'
p1365
stRp1366
ag3
(g4
g5
(dp1367
g14
S''
sg40
S'baseSHA'
p1368
sg18
S''
sg42
S'SHA1'
p1369
sg19
S''
sg15
g1368
sg28
Nsg44
S'Base SHA'
p1370
stRp1371
ag3
(g4
g5
(dp1372
g14
S''
sg40
S'wantsSHA'
p1373
sg18
S''
sg42
S'SHA1'
p1374
sg19
S''
sg15
g1373
sg28
Nsg44
S'Wants SHA'
p1375
stRp1376
ag3
(g4
g5
(dp1377
g14
S''
sg40
S'how'
p1378
sg18
S''
sg42
S'IntegHow'
p1379
sg19
S''
sg15
g1378
sg28
Nsg44
S'Integration method: variations on merge/branch/copy/ignore/delete.'
p1380
stRp1381
ag3
(g4
g5
(dp1382
g14
S''
sg40
S'state'
p1383
sg18
S''
sg42
S'ResolvedStatus'
p1384
sg19
S''
sg15
g1383
sg28
Nsg44
S'State'
p1385
stRp1386
atRp1387
sg68
g1345
sg69
S'0'
sg70
g71
sg44
S'Resolve records for clients of type graph'
p1388
sg42
S'ResolveG'
p1389
sg74
S'41'
p1390
sg40
S'db.resolveg'
p1391
stRp1392
sS'revdx'
p1393
g3
(g4
g5
(dp1394
g7
S'depotFile'
p1395
sg9
g3
(g10
g11
(lp1396
g3
(g4
g5
(dp1397
g14
S''
sg15
g16
sg17
g16
sg18
S''
sg19
S''
sg20
g21
sg22
g23
stRp1398
ag3
(g4
g5
(dp1399
g14
S''
sg17
g26
sg18
S''
sg20
g27
sg19
S''
sg15
g26
sg28
Nsg22
g29
stRp1400
ag3
(g4
g5
(dp1401
g14
S''
sg17
g32
sg18
S''
sg20
g21
sg19
S''
sg15
g32
sg28
Nsg22
g33
stRp1402
ag3
(g4
g5
(dp1403
g14
S''
sg17
g36
sg18
S''
sg20
g27
sg19
S''
sg15
g36
sg28
Nsg22
g37
stRp1404
ag3
(g4
g5
(dp1405
g14
S''
sg40
g91
sg18
S''
sg42
g92
sg19
S''
sg15
g91
sg28
Nsg44
g93
stRp1406
ag3
(g4
g5
(dp1407
g14
S''
sg40
g96
sg18
S''
sg42
g97
sg19
S''
sg15
g96
sg28
Nsg44
g98
stRp1408
ag3
(g4
g5
(dp1409
g14
S''
sg40
g101
sg18
S''
sg42
g102
sg19
S''
sg15
g101
sg28
Nsg44
g103
stRp1410
ag3
(g4
g5
(dp1411
g14
S''
sg40
g106
sg18
S''
sg42
g107
sg19
S''
sg15
g106
sg28
Nsg44
g108
stRp1412
ag3
(g4
g5
(dp1413
g14
S''
sg40
g111
sg18
S''
sg42
g112
sg19
S''
sg15
g111
sg28
Nsg44
g113
stRp1414
ag3
(g4
g5
(dp1415
g14
S''
sg40
g116
sg18
S''
sg42
g117
sg19
S''
sg15
g116
sg28
Nsg44
g118
stRp1416
ag3
(g4
g5
(dp1417
g14
S''
sg40
g121
sg18
S''
sg42
g122
sg19
S''
sg15
g121
sg28
Nsg44
g123
stRp1418
ag3
(g4
g5
(dp1419
g14
S''
sg40
g126
sg18
S''
sg42
g127
sg19
S''
sg15
g126
sg28
Nsg44
g128
stRp1420
ag3
(g4
g5
(dp1421
g14
S''
sg40
g131
sg18
S''
sg42
g132
sg19
S''
sg15
g131
sg28
Nsg44
g133
stRp1422
ag3
(g4
g5
(dp1423
g14
S''
sg40
g136
sg18
S''
sg42
g137
sg19
S''
sg15
g136
sg28
Nsg44
g138
stRp1424
ag3
(g4
g5
(dp1425
g14
S''
sg40
g141
sg18
S''
sg42
g142
sg19
S''
sg15
g141
sg28
Nsg44
g143
stRp1426
ag3
(g4
g5
(dp1427
g14
S''
sg40
g146
sg18
S''
sg42
g147
sg19
S''
sg15
g146
sg28
Nsg44
g148
stRp1428
ag3
(g4
g5
(dp1429
g14
S''
sg40
g151
sg18
S''
sg42
g152
sg19
S''
sg15
g151
sg28
Nsg44
g153
stRp1430
ag3
(g4
g5
(dp1431
g14
S''
sg40
g156
sg18
S''
sg42
g157
sg19
S''
sg15
g156
sg28
Nsg44
g158
stRp1432
atRp1433
sg68
g1393
sg69
S'9'
sg70
g71
sg44
S'Revision records for revisions deleted at the head revision'
p1434
sg42
S'Rev'
p1435
sg74
S'50'
p1436
sg40
S'db.revdx'
p1437
stRp1438
sS'bodresolvex'
p1439
g3
(g4
g5
(dp1440
g7
S'type, shelf, toKey, attr, fromKey, fromChange'
p1441
sg9
g3
(g10
g11
(lp1442
g3
(g4
g5
(dp1443
g14
S''
sg15
g16
sg17
g16
sg18
S''
sg19
S''
sg20
g21
sg22
g23
stRp1444
ag3
(g4
g5
(dp1445
g14
S''
sg17
g26
sg18
S''
sg20
g27
sg19
S''
sg15
g26
sg28
Nsg22
g29
stRp1446
ag3
(g4
g5
(dp1447
g14
S''
sg17
g32
sg18
S''
sg20
g21
sg19
S''
sg15
g32
sg28
Nsg22
g33
stRp1448
ag3
(g4
g5
(dp1449
g14
S''
sg17
g36
sg18
S''
sg20
g27
sg19
S''
sg15
g36
sg28
Nsg22
g37
stRp1450
ag3
(g4
g5
(dp1451
g14
S''
sg40
S'type'
p1452
sg18
S''
sg42
S'SpecType'
p1453
sg19
S''
sg15
g1452
sg28
Nsg44
S'The spec type'
p1454
stRp1455
ag3
(g4
g5
(dp1456
g14
S''
sg40
S'shelf'
p1457
sg18
S''
sg42
S'Change'
p1458
sg19
S''
sg15
g1457
sg28
Nsg44
S'Shelf change ID'
p1459
stRp1460
ag3
(g4
g5
(dp1461
g14
S''
sg40
S'toKey'
p1462
sg18
S''
sg42
S'Key'
p1463
sg19
S''
sg15
g1462
sg28
Nsg44
S'To Key'
p1464
stRp1465
ag3
(g4
g5
(dp1466
g14
S''
sg40
S'attr'
p1467
sg18
S''
sg42
S'Int'
p1468
sg19
S''
sg15
g1467
sg28
Nsg44
S'The attribute value'
p1469
stRp1470
ag3
(g4
g5
(dp1471
g14
S''
sg40
S'fromKey'
p1472
sg18
S''
sg42
S'Key'
p1473
sg19
S''
sg15
g1472
sg28
Nsg44
S'From key'
p1474
stRp1475
ag3
(g4
g5
(dp1476
g14
S''
sg40
S'fromChange'
p1477
sg18
S''
sg42
S'Change'
p1478
sg19
S''
sg15
g1477
sg28
Nsg44
S'From change'
p1479
stRp1480
ag3
(g4
g5
(dp1481
g14
S''
sg40
S'baseKey'
p1482
sg18
S''
sg42
S'Key'
p1483
sg19
S''
sg15
g1482
sg28
Nsg44
S'Base Key'
p1484
stRp1485
ag3
(g4
g5
(dp1486
g14
S''
sg40
S'baseChange'
p1487
sg18
S''
sg42
S'Change'
p1488
sg19
S''
sg15
g1487
sg28
Nsg44
S'Base change'
p1489
stRp1490
ag3
(g4
g5
(dp1491
g14
S''
sg40
S'how'
p1492
sg18
S''
sg42
S'IntegHow'
p1493
sg19
S''
sg15
g1492
sg28
Nsg44
S'Integration method: variations on\n                    merge/branch/copy/ignore/delete.'
p1494
stRp1495
ag3
(g4
g5
(dp1496
g14
S''
sg40
S'state'
p1497
sg18
S''
sg42
S'ResolveState'
p1498
sg19
S''
sg15
g1497
sg28
Nsg44
S'How the user performed the resolve'
p1499
stRp1500
ag3
(g4
g5
(dp1501
g14
S''
sg40
S'client'
p1502
sg18
S''
sg42
S'Domain'
p1503
sg19
S''
sg15
g1502
sg28
Nsg44
S'The client used for the resolve'
p1504
stRp1505
atRp1506
sg68
g1439
sg69
S'0'
sg70
g71
sg44
S'Pending integration records for shelved stream specifications'
p1507
sg42
S'BodyResolveX'
p1508
sg74
S'91'
p1509
sg40
S'db.bodresolvex'
p1510
stRp1511
sS'exclgx'
p1512
g3
(g4
g5
(dp1513
g7
S'lockId'
p1514
sg9
g3
(g10
g11
(lp1515
g3
(g4
g5
(dp1516
g14
S''
sg15
g16
sg17
g16
sg18
S''
sg19
S''
sg20
g21
sg22
g23
stRp1517
ag3
(g4
g5
(dp1518
g14
S''
sg17
g26
sg18
S''
sg20
g27
sg19
S''
sg15
g26
sg28
Nsg22
g29
stRp1519
ag3
(g4
g5
(dp1520
g14
S''
sg17
g32
sg18
S''
sg20
g21
sg19
S''
sg15
g32
sg28
Nsg22
g33
stRp1521
ag3
(g4
g5
(dp1522
g14
S''
sg17
g36
sg18
S''
sg20
g27
sg19
S''
sg15
g36
sg28
Nsg22
g37
stRp1523
ag3
(g4
g5
(dp1524
g14
S''
sg40
S'lockId'
p1525
sg18
S''
sg42
S'String'
p1526
sg19
S''
sg15
g1525
sg28
Nsg44
S'The git LFS lock identifier'
p1527
stRp1528
ag3
(g4
g5
(dp1529
g14
S''
sg40
S'repo'
p1530
sg18
S''
sg42
S'Key'
p1531
sg19
S''
sg15
g1530
sg28
Nsg44
S'The name of the repository on which the lock is applied'
p1532
stRp1533
ag3
(g4
g5
(dp1534
g14
S''
sg40
S'ref'
p1535
sg18
S''
sg42
S'Text'
p1536
sg19
S''
sg15
g1535
sg28
Nsg44
S'The reference on which the lock is applied'
p1537
stRp1538
ag3
(g4
g5
(dp1539
g14
S''
sg40
S'file'
p1540
sg18
S''
sg42
S'File'
p1541
sg19
S''
sg15
g1540
sg28
Nsg44
S'The git file path'
p1542
stRp1543
ag3
(g4
g5
(dp1544
g14
S''
sg40
S'user'
p1545
sg18
S''
sg42
S'User'
p1546
sg19
S''
sg15
g1545
sg28
Nsg44
S'The user for which the file is locked'
p1547
stRp1548
ag3
(g4
g5
(dp1549
g14
S''
sg40
S'created'
p1550
sg18
S''
sg42
S'String'
p1551
sg19
S''
sg15
g1550
sg28
Nsg44
S'The lock creation date stored in git data format'
p1552
stRp1553
atRp1554
sg68
g1512
sg69
S'0'
sg70
g71
sg44
S'Graph depot LFS locks indexed by lockId'
p1555
sg42
S'ExclGX'
p1556
sg74
S'69'
p1557
sg40
S'db.exclgx'
p1558
stRp1559
sS'bodtexthx'
p1560
g3
(g4
g5
(dp1561
g7
S'type, key, attr'
p1562
sg9
g3
(g10
g11
(lp1563
g3
(g4
g5
(dp1564
g14
S''
sg15
g16
sg17
g16
sg18
S''
sg19
S''
sg20
g21
sg22
g23
stRp1565
ag3
(g4
g5
(dp1566
g14
S''
sg17
g26
sg18
S''
sg20
g27
sg19
S''
sg15
g26
sg28
Nsg22
g29
stRp1567
ag3
(g4
g5
(dp1568
g14
S''
sg17
g32
sg18
S''
sg20
g21
sg19
S''
sg15
g32
sg28
Nsg22
g33
stRp1569
ag3
(g4
g5
(dp1570
g14
S''
sg17
g36
sg18
S''
sg20
g27
sg19
S''
sg15
g36
sg28
Nsg22
g37
stRp1571
ag3
(g4
g5
(dp1572
g14
S''
sg40
S'type'
p1573
sg18
S''
sg42
S'Int'
p1574
sg19
S''
sg15
g1573
sg28
Nsg44
S'The type of spec'
p1575
stRp1576
ag3
(g4
g5
(dp1577
g14
S''
sg40
S'key'
p1578
sg18
S''
sg42
S'Key'
p1579
sg19
S''
sg15
g1578
sg28
Nsg44
S'The spec to which this attribute belongs'
p1580
stRp1581
ag3
(g4
g5
(dp1582
g14
S''
sg40
S'attr'
p1583
sg18
S''
sg42
S'Int'
p1584
sg19
S''
sg15
g1583
sg28
Nsg44
S'The attribute number of this attribute'
p1585
stRp1586
ag3
(g4
g5
(dp1587
g14
S''
sg40
S'bulk'
p1588
sg18
S''
sg42
S'Int'
p1589
sg19
S''
sg15
g1588
sg28
Nsg44
S'Indicates whether (1), or not (0) the field is a bulk\n                    text field that should not be indexed.'
p1590
stRp1591
ag3
(g4
g5
(dp1592
g14
S''
sg40
S'text'
p1593
sg18
S''
sg42
S'Text'
p1594
sg19
S''
sg15
g1593
sg28
Nsg44
S'The attribute value'
p1595
stRp1596
atRp1597
sg68
g1560
sg69
S'0'
sg70
g71
sg44
S'Head revision of spec fields'
p1598
sg42
S'BodyTextHx'
p1599
sg74
S'94'
p1600
sg40
S'db.bodtexthx'
p1601
stRp1602
sS'integed'
p1603
g3
(g4
g5
(dp1604
g7
S'toFile, fromFile, startFromRev, endFromRev,\n                startToRev, endToRev'
p1605
sg9
g3
(g10
g11
(lp1606
g3
(g4
g5
(dp1607
g14
S''
sg15
g16
sg17
g16
sg18
S''
sg19
S''
sg20
g21
sg22
g23
stRp1608
ag3
(g4
g5
(dp1609
g14
S''
sg17
g26
sg18
S''
sg20
g27
sg19
S''
sg15
g26
sg28
Nsg22
g29
stRp1610
ag3
(g4
g5
(dp1611
g14
S''
sg17
g32
sg18
S''
sg20
g21
sg19
S''
sg15
g32
sg28
Nsg22
g33
stRp1612
ag3
(g4
g5
(dp1613
g14
S''
sg17
g36
sg18
S''
sg20
g27
sg19
S''
sg15
g36
sg28
Nsg22
g37
stRp1614
ag3
(g4
g5
(dp1615
g14
S''
sg40
S'toFile'
p1616
sg18
S''
sg42
S'File'
p1617
sg19
S''
sg15
g1616
sg28
Nsg44
S'File to which integration is being performed (target).'
p1618
stRp1619
ag3
(g4
g5
(dp1620
g14
S''
sg40
S'fromFile'
p1621
sg18
S''
sg42
S'File'
p1622
sg19
S''
sg15
g1621
sg28
Nsg44
S'File from which integration is being performed (source).'
p1623
stRp1624
ag3
(g4
g5
(dp1625
g14
S''
sg40
S'startFromRev'
p1626
sg18
S''
sg42
S'Rev'
p1627
sg19
S''
sg15
g1626
sg28
Nsg44
S'Starting revision of fromFile'
p1628
stRp1629
ag3
(g4
g5
(dp1630
g14
S''
sg40
S'endFromRev'
p1631
sg18
S''
sg42
S'Rev'
p1632
sg19
S''
sg15
g1631
sg28
Nsg44
S'Ending revision of fromFile'
p1633
stRp1634
ag3
(g4
g5
(dp1635
g14
S''
sg40
S'startToRev'
p1636
sg18
S''
sg42
S'Rev'
p1637
sg19
S''
sg15
g1636
sg28
Nsg44
S'Start revision of toFile into which integration was\n                    performed.'
p1638
stRp1639
ag3
(g4
g5
(dp1640
g14
S''
sg40
S'endToRev'
p1641
sg18
S''
sg42
S'Rev'
p1642
sg19
S''
sg15
g1641
sg28
Nsg44
S'End revision of toFile into which integration was\n                    performed. Only varies from startToRev for reverse\n                    integration records.'
p1643
stRp1644
ag3
(g4
g5
(dp1645
g14
S''
sg40
S'how'
p1646
sg18
S''
sg42
S'IntegHow'
p1647
sg19
S''
sg15
g1646
sg28
Nsg44
S'Integration method: variations on\n                    merge/branch/copy/ignore/delete.'
p1648
stRp1649
ag3
(g4
g5
(dp1650
g14
S''
sg40
S'change'
p1651
sg18
S''
sg42
S'Change'
p1652
sg19
S''
sg15
g1651
sg28
Nsg44
S'Changelist associated with the integration.'
p1653
stRp1654
atRp1655
sg68
g1603
sg40
S'db.integed'
p1656
sg69
S'0'
sg70
g71
sg915
S'db.resolve'
p1657
sg42
S'Integed'
p1658
sg74
S'37'
p1659
sg44
S'Permanent integration records'
p1660
stRp1661
sS'repo'
p1662
g3
(g4
g5
(dp1663
g7
S'repo'
p1664
sg9
g3
(g10
g11
(lp1665
g3
(g4
g5
(dp1666
g14
S''
sg15
g16
sg17
g16
sg18
S''
sg19
S''
sg20
g21
sg22
g23
stRp1667
ag3
(g4
g5
(dp1668
g14
S''
sg17
g26
sg18
S''
sg20
g27
sg19
S''
sg15
g26
sg28
Nsg22
g29
stRp1669
ag3
(g4
g5
(dp1670
g14
S''
sg17
g32
sg18
S''
sg20
g21
sg19
S''
sg15
g32
sg28
Nsg22
g33
stRp1671
ag3
(g4
g5
(dp1672
g14
S''
sg17
g36
sg18
S''
sg20
g27
sg19
S''
sg15
g36
sg28
Nsg22
g37
stRp1673
ag3
(g4
g5
(dp1674
g14
S''
sg40
S'repo'
p1675
sg18
S''
sg42
S'Key'
p1676
sg19
S''
sg15
g1675
sg28
Nsg44
S'Name of the repo'
p1677
stRp1678
ag3
(g4
g5
(dp1679
g14
S''
sg40
S'owner'
p1680
sg18
S''
sg42
S'User'
p1681
sg19
S''
sg15
g1680
sg28
Nsg44
S'Owner of the repo'
p1682
stRp1683
ag3
(g4
g5
(dp1684
g14
S''
sg40
S'created'
p1685
sg18
S''
sg42
S'Date'
p1686
sg19
S''
sg15
g1685
sg28
Nsg44
S'Date the repo specification was created'
p1687
stRp1688
ag3
(g4
g5
(dp1689
g14
S''
sg40
S'pushed'
p1690
sg18
S''
sg42
S'Date'
p1691
sg19
S''
sg15
g1690
sg28
Nsg44
S'Date of the last push to the repo'
p1692
stRp1693
ag3
(g4
g5
(dp1694
g14
S''
sg40
S'forked'
p1695
sg18
S''
sg42
S'Key'
p1696
sg19
S''
sg15
g1695
sg28
Nsg44
S'Name of the repo from which this repo was forked'
p1697
stRp1698
ag3
(g4
g5
(dp1699
g14
S''
sg40
S'desc'
p1700
sg18
S''
sg42
S'Text'
p1701
sg19
S''
sg15
g1700
sg28
Nsg44
S'Repo Description'
p1702
stRp1703
ag3
(g4
g5
(dp1704
g14
S''
sg40
S'branch'
p1705
sg18
S''
sg42
S'Text'
p1706
sg19
S''
sg15
g1705
sg28
Nsg44
S'Default branch to clone from the repo'
p1707
stRp1708
ag3
(g4
g5
(dp1709
g14
S''
sg40
S'mirror'
p1710
sg18
S''
sg42
S'Text'
p1711
sg19
S''
sg15
g1710
sg28
Nsg44
S'Upstream URL that this repo is mirrored (readonly) from'
p1712
stRp1713
ag3
(g4
g5
(dp1714
g14
S''
sg40
S'options'
p1715
sg18
S''
sg42
S'Int'
p1716
sg19
S''
sg15
g1715
sg28
Nsg44
S'Repo options: 0 = nolfs, 1 = lfs'
p1717
stRp1718
ag3
(g4
g5
(dp1719
g14
S''
sg40
S'id'
p1720
sg18
S''
sg42
S'Int'
p1721
sg19
S''
sg15
g1720
sg28
Nsg44
S'Repo index ID'
p1722
stRp1723
ag3
(g4
g5
(dp1724
g14
S''
sg40
S'gcmrrserver'
p1725
sg18
S''
sg42
S'Text'
p1726
sg19
S''
sg15
g1725
sg28
Nsg44
S'gconn Mirror Server ID'
p1727
stRp1728
atRp1729
sg68
g1662
sg69
S'3'
sg70
g71
sg44
S'Repository specifications'
p1730
sg42
S'Repo'
p1731
sg74
S'76'
p1732
sg40
S'db.repo'
p1733
stRp1734
sS'revhx'
p1735
g3
(g4
g5
(dp1736
g7
S'depotFile'
p1737
sg9
g3
(g10
g11
(lp1738
g3
(g4
g5
(dp1739
g14
S''
sg15
g16
sg17
g16
sg18
S''
sg19
S''
sg20
g21
sg22
g23
stRp1740
ag3
(g4
g5
(dp1741
g14
S''
sg17
g26
sg18
S''
sg20
g27
sg19
S''
sg15
g26
sg28
Nsg22
g29
stRp1742
ag3
(g4
g5
(dp1743
g14
S''
sg17
g32
sg18
S''
sg20
g21
sg19
S''
sg15
g32
sg28
Nsg22
g33
stRp1744
ag3
(g4
g5
(dp1745
g14
S''
sg17
g36
sg18
S''
sg20
g27
sg19
S''
sg15
g36
sg28
Nsg22
g37
stRp1746
ag3
(g4
g5
(dp1747
g14
S''
sg40
g91
sg18
S''
sg42
g92
sg19
S''
sg15
g91
sg28
Nsg44
g93
stRp1748
ag3
(g4
g5
(dp1749
g14
S''
sg40
g96
sg18
S''
sg42
g97
sg19
S''
sg15
g96
sg28
Nsg44
g98
stRp1750
ag3
(g4
g5
(dp1751
g14
S''
sg40
g101
sg18
S''
sg42
g102
sg19
S''
sg15
g101
sg28
Nsg44
g103
stRp1752
ag3
(g4
g5
(dp1753
g14
S''
sg40
g106
sg18
S''
sg42
g107
sg19
S''
sg15
g106
sg28
Nsg44
g108
stRp1754
ag3
(g4
g5
(dp1755
g14
S''
sg40
g111
sg18
S''
sg42
g112
sg19
S''
sg15
g111
sg28
Nsg44
g113
stRp1756
ag3
(g4
g5
(dp1757
g14
S''
sg40
g116
sg18
S''
sg42
g117
sg19
S''
sg15
g116
sg28
Nsg44
g118
stRp1758
ag3
(g4
g5
(dp1759
g14
S''
sg40
g121
sg18
S''
sg42
g122
sg19
S''
sg15
g121
sg28
Nsg44
g123
stRp1760
ag3
(g4
g5
(dp1761
g14
S''
sg40
g126
sg18
S''
sg42
g127
sg19
S''
sg15
g126
sg28
Nsg44
g128
stRp1762
ag3
(g4
g5
(dp1763
g14
S''
sg40
g131
sg18
S''
sg42
g132
sg19
S''
sg15
g131
sg28
Nsg44
g133
stRp1764
ag3
(g4
g5
(dp1765
g14
S''
sg40
g136
sg18
S''
sg42
g137
sg19
S''
sg15
g136
sg28
Nsg44
g138
stRp1766
ag3
(g4
g5
(dp1767
g14
S''
sg40
g141
sg18
S''
sg42
g142
sg19
S''
sg15
g141
sg28
Nsg44
g143
stRp1768
ag3
(g4
g5
(dp1769
g14
S''
sg40
g146
sg18
S''
sg42
g147
sg19
S''
sg15
g146
sg28
Nsg44
g148
stRp1770
ag3
(g4
g5
(dp1771
g14
S''
sg40
g151
sg18
S''
sg42
g152
sg19
S''
sg15
g151
sg28
Nsg44
g153
stRp1772
ag3
(g4
g5
(dp1773
g14
S''
sg40
g156
sg18
S''
sg42
g157
sg19
S''
sg15
g156
sg28
Nsg44
g158
stRp1774
atRp1775
sg68
g1735
sg69
S'9'
sg70
g71
sg44
S'Revision records for revisions NOT deleted at the head revision'
p1776
sg42
S'Rev'
p1777
sg74
S'51'
p1778
sg40
S'db.revhx'
p1779
stRp1780
sS'haveg'
p1781
g3
(g4
g5
(dp1782
g7
S'repo, clientFile'
p1783
sg9
g3
(g10
g11
(lp1784
g3
(g4
g5
(dp1785
g14
S''
sg15
g16
sg17
g16
sg18
S''
sg19
S''
sg20
g21
sg22
g23
stRp1786
ag3
(g4
g5
(dp1787
g14
S''
sg17
g26
sg18
S''
sg20
g27
sg19
S''
sg15
g26
sg28
Nsg22
g29
stRp1788
ag3
(g4
g5
(dp1789
g14
S''
sg17
g32
sg18
S''
sg20
g21
sg19
S''
sg15
g32
sg28
Nsg22
g33
stRp1790
ag3
(g4
g5
(dp1791
g14
S''
sg17
g36
sg18
S''
sg20
g27
sg19
S''
sg15
g36
sg28
Nsg22
g37
stRp1792
ag3
(g4
g5
(dp1793
g14
S''
sg40
S'repo'
p1794
sg18
S''
sg42
S'Key'
p1795
sg19
S''
sg15
g1794
sg28
Nsg44
S'Repository name'
p1796
stRp1797
ag3
(g4
g5
(dp1798
g14
S''
sg40
S'clientFile'
p1799
sg18
S''
sg42
S'File'
p1800
sg19
S''
sg15
g1799
sg28
Nsg44
S'The file in its location on the client'
p1801
stRp1802
ag3
(g4
g5
(dp1803
g14
S''
sg40
S'depotFile'
p1804
sg18
S''
sg42
S'File'
p1805
sg19
S''
sg15
g1804
sg28
Nsg44
S'The git file path'
p1806
stRp1807
ag3
(g4
g5
(dp1808
g14
S''
sg40
S'client'
p1809
sg18
S''
sg42
S'Domain'
p1810
sg19
S''
sg15
g1809
sg28
Nsg44
S'Domain (client) in which file is synced'
p1811
stRp1812
ag3
(g4
g5
(dp1813
g14
S''
sg40
S'type'
p1814
sg18
S''
sg42
S'FileType'
p1815
sg19
S''
sg15
g1814
sg28
Nsg44
S'The filetype of the synced revision'
p1816
stRp1817
ag3
(g4
g5
(dp1818
g14
S''
sg40
S'action'
p1819
sg18
S''
sg42
S'Action'
p1820
sg19
S''
sg15
g1819
sg28
Nsg44
S'Action file is open for: add, edit, delete, branch, integrate, or import'
p1821
stRp1822
ag3
(g4
g5
(dp1823
g14
S''
sg40
S'blobSha'
p1824
sg18
S''
sg42
S'SHA1'
p1825
sg19
S''
sg15
g1824
sg28
Nsg44
S'SHA of blob'
p1826
stRp1827
ag3
(g4
g5
(dp1828
g14
S''
sg40
S'commitSha'
p1829
sg18
S''
sg42
S'SHA1'
p1830
sg19
S''
sg15
g1829
sg28
Nsg44
S'SHA of commit that added/edited this file'
p1831
stRp1832
ag3
(g4
g5
(dp1833
g14
S''
sg40
S'flags'
p1834
sg18
S''
sg42
S'Int'
p1835
sg19
S''
sg15
g1834
sg28
Nsg44
S'Miscellaneous flags'
p1836
stRp1837
atRp1838
sg68
g1781
sg69
S'0'
sg70
g71
sg44
S"Contains the 'have-list' for graph depot files that are not at the same revision as defined by the\n                client's have reference."
p1839
sg42
S'Haveg'
p1840
sg74
S'66'
p1841
sg40
S'db.haveg'
p1842
stRp1843
sS'revux'
p1844
g3
(g4
g5
(dp1845
g7
S'depotFile, depotRev'
p1846
sg9
g3
(g10
g11
(lp1847
g3
(g4
g5
(dp1848
g14
S''
sg15
g16
sg17
g16
sg18
S''
sg19
S''
sg20
g21
sg22
g23
stRp1849
ag3
(g4
g5
(dp1850
g14
S''
sg17
g26
sg18
S''
sg20
g27
sg19
S''
sg15
g26
sg28
Nsg22
g29
stRp1851
ag3
(g4
g5
(dp1852
g14
S''
sg17
g32
sg18
S''
sg20
g21
sg19
S''
sg15
g32
sg28
Nsg22
g33
stRp1853
ag3
(g4
g5
(dp1854
g14
S''
sg17
g36
sg18
S''
sg20
g27
sg19
S''
sg15
g36
sg28
Nsg22
g37
stRp1855
ag3
(g4
g5
(dp1856
g14
S''
sg40
g91
sg18
S''
sg42
g92
sg19
S''
sg15
g91
sg28
Nsg44
g93
stRp1857
ag3
(g4
g5
(dp1858
g14
S''
sg40
g96
sg18
S''
sg42
g97
sg19
S''
sg15
g96
sg28
Nsg44
g98
stRp1859
ag3
(g4
g5
(dp1860
g14
S''
sg40
g101
sg18
S''
sg42
g102
sg19
S''
sg15
g101
sg28
Nsg44
g103
stRp1861
ag3
(g4
g5
(dp1862
g14
S''
sg40
g106
sg18
S''
sg42
g107
sg19
S''
sg15
g106
sg28
Nsg44
g108
stRp1863
ag3
(g4
g5
(dp1864
g14
S''
sg40
g111
sg18
S''
sg42
g112
sg19
S''
sg15
g111
sg28
Nsg44
g113
stRp1865
ag3
(g4
g5
(dp1866
g14
S''
sg40
g116
sg18
S''
sg42
g117
sg19
S''
sg15
g116
sg28
Nsg44
g118
stRp1867
ag3
(g4
g5
(dp1868
g14
S''
sg40
g121
sg18
S''
sg42
g122
sg19
S''
sg15
g121
sg28
Nsg44
g123
stRp1869
ag3
(g4
g5
(dp1870
g14
S''
sg40
g126
sg18
S''
sg42
g127
sg19
S''
sg15
g126
sg28
Nsg44
g128
stRp1871
ag3
(g4
g5
(dp1872
g14
S''
sg40
g131
sg18
S''
sg42
g132
sg19
S''
sg15
g131
sg28
Nsg44
g133
stRp1873
ag3
(g4
g5
(dp1874
g14
S''
sg40
g136
sg18
S''
sg42
g137
sg19
S''
sg15
g136
sg28
Nsg44
g138
stRp1875
ag3
(g4
g5
(dp1876
g14
S''
sg40
g141
sg18
S''
sg42
g142
sg19
S''
sg15
g141
sg28
Nsg44
g143
stRp1877
ag3
(g4
g5
(dp1878
g14
S''
sg40
g146
sg18
S''
sg42
g147
sg19
S''
sg15
g146
sg28
Nsg44
g148
stRp1879
ag3
(g4
g5
(dp1880
g14
S''
sg40
g151
sg18
S''
sg42
g152
sg19
S''
sg15
g151
sg28
Nsg44
g153
stRp1881
ag3
(g4
g5
(dp1882
g14
S''
sg40
g156
sg18
S''
sg42
g157
sg19
S''
sg15
g156
sg28
Nsg44
g158
stRp1883
atRp1884
sg68
g1844
sg69
S'9'
sg70
g71
sg44
S'Revision records for unload depot files'
p1885
sg42
S'Rev'
p1886
sg74
S'56'
p1887
sg40
S'db.revux'
p1888
stRp1889
sS'jnlack'
p1890
g3
(g4
g5
(dp1891
g7
S'serverId'
p1892
sg9
g3
(g10
g11
(lp1893
g3
(g4
g5
(dp1894
g14
S''
sg15
g16
sg17
g16
sg18
S''
sg19
S''
sg20
g21
sg22
g23
stRp1895
ag3
(g4
g5
(dp1896
g14
S''
sg17
g26
sg18
S''
sg20
g27
sg19
S''
sg15
g26
sg28
Nsg22
g29
stRp1897
ag3
(g4
g5
(dp1898
g14
S''
sg17
g32
sg18
S''
sg20
g21
sg19
S''
sg15
g32
sg28
Nsg22
g33
stRp1899
ag3
(g4
g5
(dp1900
g14
S''
sg17
g36
sg18
S''
sg20
g27
sg19
S''
sg15
g36
sg28
Nsg22
g37
stRp1901
ag3
(g4
g5
(dp1902
g14
S''
sg40
S'serverId'
p1903
sg18
S''
sg42
S'Key'
p1904
sg19
S''
sg15
g1903
sg28
Nsg44
S'The serverId of the replica for whom this record applies'
p1905
stRp1906
ag3
(g4
g5
(dp1907
g14
S''
sg40
S'lastUpdate'
p1908
sg18
S''
sg42
S'Date'
p1909
sg19
S''
sg15
g1908
sg28
Nsg44
S'The date and time of last update'
p1910
stRp1911
ag3
(g4
g5
(dp1912
g14
S''
sg40
S'serverType'
p1913
sg18
S''
sg42
S'ServerServiceType'
p1914
sg19
S''
sg15
g1913
sg28
Nsg44
S'The server services offered by this replica'
p1915
stRp1916
ag3
(g4
g5
(dp1917
g14
S''
sg40
S'persistedJnl'
p1918
sg18
S''
sg42
S'Int'
p1919
sg19
S''
sg15
g1918
sg28
Nsg44
S'The last journal number persisted by this replica'
p1920
stRp1921
ag3
(g4
g5
(dp1922
g14
S''
sg40
S'appliedJnl'
p1923
sg18
S''
sg42
S'Int'
p1924
sg19
S''
sg15
g1923
sg28
Nsg44
S'The last journal number applied by this replica'
p1925
stRp1926
ag3
(g4
g5
(dp1927
g14
S''
sg40
S'persistedPos'
p1928
sg18
S''
sg42
S'Int64'
p1929
sg19
S''
sg15
g1928
sg28
Nsg44
S'The last journal position persisted by this replica'
p1930
stRp1931
ag3
(g4
g5
(dp1932
g14
S''
sg40
S'appliedPos'
p1933
sg18
S''
sg42
S'Int64'
p1934
sg19
S''
sg15
g1933
sg28
Nsg44
S'The last journal position applied by this replica'
p1935
stRp1936
ag3
(g4
g5
(dp1937
g14
S''
sg40
S'jcflags'
p1938
sg18
S''
sg42
S'JournalCopyFlags'
p1939
sg19
S''
sg15
g1938
sg28
Nsg44
S'Journalcopy Flags'
p1940
stRp1941
ag3
(g4
g5
(dp1942
g14
S''
sg40
S'isAlive'
p1943
sg18
S''
sg42
S'Int'
p1944
sg19
S''
sg15
g1943
sg28
Nsg44
S'1 = alive'
p1945
stRp1946
ag3
(g4
g5
(dp1947
g14
S''
sg40
S'serverOptions'
p1948
sg18
S''
sg42
S'ServerOptionsType'
p1949
sg19
S''
sg15
g1948
sg28
Nsg44
S'Server Options'
p1950
stRp1951
ag3
(g4
g5
(dp1952
g14
S''
sg40
S'failoverSeen'
p1953
sg18
S''
sg42
S'Text'
p1954
sg19
S''
sg15
g1953
sg28
Nsg44
S'Failover was seen'
p1955
stRp1956
atRp1957
sg68
g1890
sg69
S'1'
sg70
g71
sg44
S'Tracks journal positions of all replicas'
p1958
sg42
S'JnlAck'
p1959
sg74
S'106'
p1960
sg40
S'db.jnlack'
p1961
stRp1962
sS'excl'
p1963
g3
(g4
g5
(dp1964
g7
S'depotFile'
p1965
sg9
g3
(g10
g11
(lp1966
g3
(g4
g5
(dp1967
g14
S''
sg15
g16
sg17
g16
sg18
S''
sg19
S''
sg20
g21
sg22
g23
stRp1968
ag3
(g4
g5
(dp1969
g14
S''
sg17
g26
sg18
S''
sg20
g27
sg19
S''
sg15
g26
sg28
Nsg22
g29
stRp1970
ag3
(g4
g5
(dp1971
g14
S''
sg17
g32
sg18
S''
sg20
g21
sg19
S''
sg15
g32
sg28
Nsg22
g33
stRp1972
ag3
(g4
g5
(dp1973
g14
S''
sg17
g36
sg18
S''
sg20
g27
sg19
S''
sg15
g36
sg28
Nsg22
g37
stRp1974
ag3
(g4
g5
(dp1975
g14
S''
sg40
S'depotFile'
p1976
sg18
S''
sg42
S'File'
p1977
sg19
S''
sg15
g1976
sg28
Nsg44
S'The file locked'
p1978
stRp1979
ag3
(g4
g5
(dp1980
g14
S''
sg40
S'client'
p1981
sg18
S''
sg42
S'Domain'
p1982
sg19
S''
sg15
g1981
sg28
Nsg44
S'The client for which the file is locked'
p1983
stRp1984
ag3
(g4
g5
(dp1985
g14
S''
sg40
S'user'
p1986
sg18
S''
sg42
S'User'
p1987
sg19
S''
sg15
g1986
sg28
Nsg44
S'The user for which the file is locked'
p1988
stRp1989
atRp1990
sg68
g1963
sg69
S'1'
sg70
g71
sg44
S'Exclusively locked (+l) files - enables coordinated file locking in commit/edge server environments'
p1991
sg42
S'ExclusiveLock'
p1992
sg74
S'67'
p1993
sg40
S'db.excl'
p1994
stRp1995
sS'resolvex'
p1996
g3
(g4
g5
(dp1997
g7
S'toFile, fromFile, startFromRev'
p1998
sg9
g3
(g10
g11
(lp1999
g3
(g4
g5
(dp2000
g14
S''
sg15
g16
sg17
g16
sg18
S''
sg19
S''
sg20
g21
sg22
g23
stRp2001
ag3
(g4
g5
(dp2002
g14
S''
sg17
g26
sg18
S''
sg20
g27
sg19
S''
sg15
g26
sg28
Nsg22
g29
stRp2003
ag3
(g4
g5
(dp2004
g14
S''
sg17
g32
sg18
S''
sg20
g21
sg19
S''
sg15
g32
sg28
Nsg22
g33
stRp2005
ag3
(g4
g5
(dp2006
g14
S''
sg17
g36
sg18
S''
sg20
g27
sg19
S''
sg15
g36
sg28
Nsg22
g37
stRp2007
ag3
(g4
g5
(dp2008
g14
S''
sg40
S'toFile'
p2009
sg18
S''
sg42
S'File'
p2010
sg19
S''
sg15
g2009
sg28
Nsg44
S'File to which integration is being performed (target).'
p2011
stRp2012
ag3
(g4
g5
(dp2013
g14
S''
sg40
S'fromFile'
p2014
sg18
S''
sg42
S'File'
p2015
sg19
S''
sg15
g2014
sg28
Nsg44
S'File from which integration is being performed (source).'
p2016
stRp2017
ag3
(g4
g5
(dp2018
g14
S''
sg40
S'startFromRev'
p2019
sg18
S''
sg42
S'Rev'
p2020
sg19
S''
sg15
g2019
sg28
Nsg44
S'Starting revision of fromFile'
p2021
stRp2022
ag3
(g4
g5
(dp2023
g14
S''
sg40
S'endFromRev'
p2024
sg18
S''
sg42
S'Rev'
p2025
sg19
S''
sg15
g2024
sg28
Nsg44
S'Ending revision of fromFile'
p2026
stRp2027
ag3
(g4
g5
(dp2028
g14
S''
sg40
S'startToRev'
p2029
sg18
S''
sg42
S'Rev'
p2030
sg19
S''
sg15
g2029
sg28
Nsg44
S'Start revision of toFile into which integration was\n                    performed.'
p2031
stRp2032
ag3
(g4
g5
(dp2033
g14
S''
sg40
S'endToRev'
p2034
sg18
S''
sg42
S'Rev'
p2035
sg19
S''
sg15
g2034
sg28
Nsg44
S'End revision of toFile into which integration was\n                    performed. Only varies from startToRev for reverse\n                    integration records.'
p2036
stRp2037
ag3
(g4
g5
(dp2038
g14
S''
sg40
S'how'
p2039
sg18
S''
sg42
S'IntegHow'
p2040
sg19
S''
sg15
g2039
sg28
Nsg44
S'Integration method: variations on\n                    merge/branch/copy/ignore/delete.'
p2041
stRp2042
ag3
(g4
g5
(dp2043
g14
S''
sg40
S'state'
p2044
sg18
S''
sg42
S'ResolveState'
p2045
sg19
S''
sg15
g2044
sg28
Nsg44
S'How the user performed the resolve.'
p2046
stRp2047
ag3
(g4
g5
(dp2048
g14
S''
sg40
S'baseFile'
p2049
sg18
S''
sg42
S'File'
p2050
sg19
S''
sg15
g2049
sg28
Nsg44
S'File used as the base for merging.'
p2051
stRp2052
ag3
(g4
g5
(dp2053
g14
S''
sg40
S'baseRev'
p2054
sg18
S''
sg42
S'Rev'
p2055
sg19
S''
sg15
g2054
sg28
Nsg44
S'Revision of baseFile used as the merge base.'
p2056
stRp2057
atRp2058
sg68
g1996
sg40
S'db.resolvex'
p2059
sg69
S'1'
sg70
g71
sg915
S'db.integed'
p2060
sg42
S'Resolve'
p2061
sg74
S'40'
p2062
sg44
S'Pending integration records for shelved files'
p2063
stRp2064
sS'desc'
p2065
g3
(g4
g5
(dp2066
g7
S'descKey'
p2067
sg9
g3
(g10
g11
(lp2068
g3
(g4
g5
(dp2069
g14
S''
sg15
g16
sg17
g16
sg18
S''
sg19
S''
sg20
g21
sg22
g23
stRp2070
ag3
(g4
g5
(dp2071
g14
S''
sg17
g26
sg18
S''
sg20
g27
sg19
S''
sg15
g26
sg28
Nsg22
g29
stRp2072
ag3
(g4
g5
(dp2073
g14
S''
sg17
g32
sg18
S''
sg20
g21
sg19
S''
sg15
g32
sg28
Nsg22
g33
stRp2074
ag3
(g4
g5
(dp2075
g14
S''
sg17
g36
sg18
S''
sg20
g27
sg19
S''
sg15
g36
sg28
Nsg22
g37
stRp2076
ag3
(g4
g5
(dp2077
g14
S''
sg40
S'descKey'
p2078
sg18
S''
sg42
S'Change'
p2079
sg19
S''
sg15
g2078
sg28
Nsg44
S'Original number of the change to which this description\n                    applies. This may differ from the final change number if\n                    the change is renumbered on submission.'
p2080
stRp2081
ag3
(g4
g5
(dp2082
g14
S''
sg40
S'description'
p2083
sg18
S''
sg42
S'Text'
p2084
sg19
S''
sg15
g2083
sg28
Nsg44
S'The change description itself'
p2085
stRp2086
atRp2087
sg68
g2065
sg69
S'0'
sg70
g71
sg44
S'Change descriptions'
p2088
sg42
S'Desc'
p2089
sg74
S'75'
p2090
sg40
S'db.desc'
p2091
stRp2092
sS'resolve'
p2093
g3
(g4
g5
(dp2094
g7
S'toFile, fromFile, startFromRev'
p2095
sg9
g3
(g10
g11
(lp2096
g3
(g4
g5
(dp2097
g14
S''
sg15
g16
sg17
g16
sg18
S''
sg19
S''
sg20
g21
sg22
g23
stRp2098
ag3
(g4
g5
(dp2099
g14
S''
sg17
g26
sg18
S''
sg20
g27
sg19
S''
sg15
g26
sg28
Nsg22
g29
stRp2100
ag3
(g4
g5
(dp2101
g14
S''
sg17
g32
sg18
S''
sg20
g21
sg19
S''
sg15
g32
sg28
Nsg22
g33
stRp2102
ag3
(g4
g5
(dp2103
g14
S''
sg17
g36
sg18
S''
sg20
g27
sg19
S''
sg15
g36
sg28
Nsg22
g37
stRp2104
ag3
(g4
g5
(dp2105
g14
S''
sg40
g2009
sg18
S''
sg42
g2010
sg19
S''
sg15
g2009
sg28
Nsg44
g2011
stRp2106
ag3
(g4
g5
(dp2107
g14
S''
sg40
g2014
sg18
S''
sg42
g2015
sg19
S''
sg15
g2014
sg28
Nsg44
g2016
stRp2108
ag3
(g4
g5
(dp2109
g14
S''
sg40
g2019
sg18
S''
sg42
g2020
sg19
S''
sg15
g2019
sg28
Nsg44
g2021
stRp2110
ag3
(g4
g5
(dp2111
g14
S''
sg40
g2024
sg18
S''
sg42
g2025
sg19
S''
sg15
g2024
sg28
Nsg44
g2026
stRp2112
ag3
(g4
g5
(dp2113
g14
S''
sg40
g2029
sg18
S''
sg42
g2030
sg19
S''
sg15
g2029
sg28
Nsg44
g2031
stRp2114
ag3
(g4
g5
(dp2115
g14
S''
sg40
g2034
sg18
S''
sg42
g2035
sg19
S''
sg15
g2034
sg28
Nsg44
g2036
stRp2116
ag3
(g4
g5
(dp2117
g14
S''
sg40
g2039
sg18
S''
sg42
g2040
sg19
S''
sg15
g2039
sg28
Nsg44
g2041
stRp2118
ag3
(g4
g5
(dp2119
g14
S''
sg40
g2044
sg18
S''
sg42
g2045
sg19
S''
sg15
g2044
sg28
Nsg44
g2046
stRp2120
ag3
(g4
g5
(dp2121
g14
S''
sg40
g2049
sg18
S''
sg42
g2050
sg19
S''
sg15
g2049
sg28
Nsg44
g2051
stRp2122
ag3
(g4
g5
(dp2123
g14
S''
sg40
g2054
sg18
S''
sg42
g2055
sg19
S''
sg15
g2054
sg28
Nsg44
g2056
stRp2124
atRp2125
sg68
g2093
sg40
S'db.resolve'
p2126
sg69
S'1'
sg70
g71
sg915
S'db.integed'
p2127
sg42
S'Resolve'
p2128
sg74
S'39'
p2129
sg44
S'Pending integration records'
p2130
stRp2131
sS'integedss'
p2132
g3
(g4
g5
(dp2133
g7
S'toKey, attr, fromKey, endfromChange'
p2134
sg9
g3
(g10
g11
(lp2135
g3
(g4
g5
(dp2136
g14
S''
sg15
g16
sg17
g16
sg18
S''
sg19
S''
sg20
g21
sg22
g23
stRp2137
ag3
(g4
g5
(dp2138
g14
S''
sg17
g26
sg18
S''
sg20
g27
sg19
S''
sg15
g26
sg28
Nsg22
g29
stRp2139
ag3
(g4
g5
(dp2140
g14
S''
sg17
g32
sg18
S''
sg20
g21
sg19
S''
sg15
g32
sg28
Nsg22
g33
stRp2141
ag3
(g4
g5
(dp2142
g14
S''
sg17
g36
sg18
S''
sg20
g27
sg19
S''
sg15
g36
sg28
Nsg22
g37
stRp2143
ag3
(g4
g5
(dp2144
g14
S''
sg40
S'toKey'
p2145
sg18
S''
sg42
S'Key'
p2146
sg19
S''
sg15
g2145
sg28
Nsg44
S'Stream specification to which integration is being performed (target)'
p2147
stRp2148
ag3
(g4
g5
(dp2149
g14
S''
sg40
S'attr'
p2150
sg18
S''
sg42
S'Int'
p2151
sg19
S''
sg15
g2150
sg28
Nsg44
S'The specification field id which is being integrated'
p2152
stRp2153
ag3
(g4
g5
(dp2154
g14
S''
sg40
S'fromKey'
p2155
sg18
S''
sg42
S'Key'
p2156
sg19
S''
sg15
g2155
sg28
Nsg44
S'Stream specification from which integration is being performed (source)'
p2157
stRp2158
ag3
(g4
g5
(dp2159
g14
S''
sg40
S'endfromChange'
p2160
sg18
S''
sg42
S'Change'
p2161
sg19
S''
sg15
g2160
sg28
Nsg44
S'The ending change of the from stream spec.'
p2162
stRp2163
ag3
(g4
g5
(dp2164
g14
S''
sg40
S'startfromChange'
p2165
sg18
S''
sg42
S'Change'
p2166
sg19
S''
sg15
g2165
sg28
Nsg44
S'The starting change of the from stream spec.'
p2167
stRp2168
ag3
(g4
g5
(dp2169
g14
S''
sg40
S'endtoChange'
p2170
sg18
S''
sg42
S'Change'
p2171
sg19
S''
sg15
g2170
sg28
Nsg44
S'The ending change of the to stream spec'
p2172
stRp2173
ag3
(g4
g5
(dp2174
g14
S''
sg40
S'starttoChange'
p2175
sg18
S''
sg42
S'Change'
p2176
sg19
S''
sg15
g2175
sg28
Nsg44
S'The starting change of the to stream spec'
p2177
stRp2178
ag3
(g4
g5
(dp2179
g14
S''
sg40
S'baseKey'
p2180
sg18
S''
sg42
S'Key'
p2181
sg19
S''
sg15
g2180
sg28
Nsg44
S'The base stream specification from which the integration is being performed (source)'
p2182
stRp2183
ag3
(g4
g5
(dp2184
g14
S''
sg40
S'baseChange'
p2185
sg18
S''
sg42
S'Change'
p2186
sg19
S''
sg15
g2185
sg28
Nsg44
S'The base changelist number of the baseKey'
p2187
stRp2188
ag3
(g4
g5
(dp2189
g14
S''
sg40
S'how'
p2190
sg18
S''
sg42
S'IntegHow'
p2191
sg19
S''
sg15
g2190
sg28
Nsg44
S'Integration method: variations on merge/branch/copy/ignore/delete'
p2192
stRp2193
ag3
(g4
g5
(dp2194
g14
S''
sg40
S'change'
p2195
sg18
S''
sg42
S'Change'
p2196
sg19
S''
sg15
g2195
sg28
Nsg44
S'End changelist number of the toKey into which integration was performed'
p2197
stRp2198
atRp2199
sg68
g2132
sg69
S'1'
sg70
g71
sg44
S'Stream specification integration history'
p2200
sg42
S'StreamSpecInteged'
p2201
sg74
S'22'
p2202
sg40
S'db.integedss'
p2203
stRp2204
sS'traits'
p2205
g3
(g4
g5
(dp2206
g7
S'traitLot, name'
p2207
sg9
g3
(g10
g11
(lp2208
g3
(g4
g5
(dp2209
g14
S''
sg15
g16
sg17
g16
sg18
S''
sg19
S''
sg20
g21
sg22
g23
stRp2210
ag3
(g4
g5
(dp2211
g14
S''
sg17
g26
sg18
S''
sg20
g27
sg19
S''
sg15
g26
sg28
Nsg22
g29
stRp2212
ag3
(g4
g5
(dp2213
g14
S''
sg17
g32
sg18
S''
sg20
g21
sg19
S''
sg15
g32
sg28
Nsg22
g33
stRp2214
ag3
(g4
g5
(dp2215
g14
S''
sg17
g36
sg18
S''
sg20
g27
sg19
S''
sg15
g36
sg28
Nsg22
g37
stRp2216
ag3
(g4
g5
(dp2217
g14
S''
sg40
S'traitLot'
p2218
sg18
S''
sg42
S'Int'
p2219
sg19
S''
sg15
g2218
sg28
Nsg44
S'Indicates a specific collection of traits (referred to\n                    externally as "attributes".)'
p2220
stRp2221
ag3
(g4
g5
(dp2222
g14
S''
sg40
S'name'
p2223
sg18
S''
sg42
S'Key'
p2224
sg19
S''
sg15
g2223
sg28
Nsg44
S'Trait (attribute) name'
p2225
stRp2226
ag3
(g4
g5
(dp2227
g14
S''
sg40
S'type'
p2228
sg18
S''
sg42
S'TraitType'
p2229
sg19
S''
sg15
g2228
sg28
Nsg44
S'Type of trait'
p2230
stRp2231
ag3
(g4
g5
(dp2232
g14
S''
sg40
S'value'
p2233
sg18
S''
sg42
S'Octet String'
p2234
sg19
S''
sg15
g2233
sg28
Nsg44
S'The value'
p2235
stRp2236
atRp2237
sg68
g2205
sg69
S'0'
sg70
g71
sg44
S'Attributes associated with file revisions'
p2238
sg42
S'Trait'
p2239
sg74
S'70'
p2240
sg40
S'db.traits'
p2241
stRp2242
sS'ref'
p2243
g3
(g4
g5
(dp2244
g7
S'repo, type, name'
p2245
sg9
g3
(g10
g11
(lp2246
g3
(g4
g5
(dp2247
g14
S''
sg15
g16
sg17
g16
sg18
S''
sg19
S''
sg20
g21
sg22
g23
stRp2248
ag3
(g4
g5
(dp2249
g14
S''
sg17
g26
sg18
S''
sg20
g27
sg19
S''
sg15
g26
sg28
Nsg22
g29
stRp2250
ag3
(g4
g5
(dp2251
g14
S''
sg17
g32
sg18
S''
sg20
g21
sg19
S''
sg15
g32
sg28
Nsg22
g33
stRp2252
ag3
(g4
g5
(dp2253
g14
S''
sg17
g36
sg18
S''
sg20
g27
sg19
S''
sg15
g36
sg28
Nsg22
g37
stRp2254
ag3
(g4
g5
(dp2255
g14
S''
sg40
S'repo'
p2256
sg18
S''
sg42
S'Key'
p2257
sg19
S''
sg15
g2256
sg28
Nsg44
S'Repository name'
p2258
stRp2259
ag3
(g4
g5
(dp2260
g14
S''
sg40
S'name'
p2261
sg18
S''
sg42
S'Key'
p2262
sg19
S''
sg15
g2261
sg28
Nsg44
S'Reference name'
p2263
stRp2264
ag3
(g4
g5
(dp2265
g14
S''
sg40
S'type'
p2266
sg18
S''
sg42
S'RefType'
p2267
sg19
S''
sg15
g2266
sg28
Nsg44
S'Reference type'
p2268
stRp2269
ag3
(g4
g5
(dp2270
g14
S''
sg40
S'ref'
p2271
sg18
S''
sg42
S'SHA1'
p2272
sg19
S''
sg15
g2271
sg28
Nsg44
S'Target of the reference'
p2273
stRp2274
ag3
(g4
g5
(dp2275
g14
S''
sg40
S'symref'
p2276
sg18
S''
sg42
S'Text'
p2277
sg19
S''
sg15
g2276
sg28
Nsg44
S'Target of symbolic reference'
p2278
stRp2279
atRp2280
sg68
g2243
sg69
S'0'
sg70
g71
sg44
S'Reference content for graph depots'
p2281
sg42
S'Ref'
p2282
sg74
S'78'
p2283
sg40
S'db.ref'
p2284
stRp2285
sS'server'
p2286
g3
(g4
g5
(dp2287
g7
S'id'
p2288
sg9
g3
(g10
g11
(lp2289
g3
(g4
g5
(dp2290
g14
S''
sg15
g16
sg17
g16
sg18
S''
sg19
S''
sg20
g21
sg22
g23
stRp2291
ag3
(g4
g5
(dp2292
g14
S''
sg17
g26
sg18
S''
sg20
g27
sg19
S''
sg15
g26
sg28
Nsg22
g29
stRp2293
ag3
(g4
g5
(dp2294
g14
S''
sg17
g32
sg18
S''
sg20
g21
sg19
S''
sg15
g32
sg28
Nsg22
g33
stRp2295
ag3
(g4
g5
(dp2296
g14
S''
sg17
g36
sg18
S''
sg20
g27
sg19
S''
sg15
g36
sg28
Nsg22
g37
stRp2297
ag3
(g4
g5
(dp2298
g14
S''
sg40
S'id'
p2299
sg18
S''
sg42
S'Key'
p2300
sg19
S''
sg15
g2299
sg28
Nsg44
S'The server identifier'
p2301
stRp2302
ag3
(g4
g5
(dp2303
g14
S''
sg40
S'type'
p2304
sg18
S''
sg42
S'ServerType'
p2305
sg19
S''
sg15
g2304
sg28
Nsg44
S'The server type: server/broker/proxy'
p2306
stRp2307
ag3
(g4
g5
(dp2308
g14
S''
sg40
S'name'
p2309
sg18
S''
sg42
S'Text'
p2310
sg19
S''
sg15
g2309
sg28
Nsg44
S'The P4NAME used by this server'
p2311
stRp2312
ag3
(g4
g5
(dp2313
g14
S''
sg40
S'address'
p2314
sg18
S''
sg42
S'Text'
p2315
sg19
S''
sg15
g2314
sg28
Nsg44
S'The P4PORT used by this server'
p2316
stRp2317
ag3
(g4
g5
(dp2318
g14
S''
sg40
S'externalAddress'
p2319
sg18
S''
sg42
S'Text'
p2320
sg19
S''
sg15
g2319
sg28
Nsg44
S'For an edge server, this optional field contains its external address for connections from the\n                    commit server. This field is required for federated parallel submit.'
p2321
stRp2322
ag3
(g4
g5
(dp2323
g14
S''
sg40
S'services'
p2324
sg18
S''
sg42
S'ServerServiceType'
p2325
sg19
S''
sg15
g2324
sg28
Nsg44
S'Service provided by this server'
p2326
stRp2327
ag3
(g4
g5
(dp2328
g14
S''
sg40
S'desc'
p2329
sg18
S''
sg42
S'Text'
p2330
sg19
S''
sg15
g2329
sg28
Nsg44
S'Server description'
p2331
stRp2332
ag3
(g4
g5
(dp2333
g14
S''
sg40
S'user'
p2334
sg18
S''
sg42
S'User'
p2335
sg19
S''
sg15
g2334
sg28
Nsg44
S'The service user used by this server'
p2336
stRp2337
ag3
(g4
g5
(dp2338
g14
S''
sg40
S'options'
p2339
sg18
S''
sg42
S'ServerOptionsType'
p2340
sg19
S''
sg15
g2339
sg28
Nsg44
S'Server options'
p2341
stRp2342
ag3
(g4
g5
(dp2343
g14
S''
sg40
S'rplFrom'
p2344
sg18
S''
sg42
S'Key'
p2345
sg19
S''
sg15
g2344
sg28
Nsg44
S'Replication from Server ID'
p2346
stRp2347
ag3
(g4
g5
(dp2348
g14
S''
sg40
S'failoverSeen'
p2349
sg18
S''
sg42
S'Text'
p2350
sg19
S''
sg15
g2349
sg28
Nsg44
S'Mark failover as seen'
p2351
stRp2352
atRp2353
sg68
g2286
sg69
S'3'
sg70
g71
sg44
S'Server specifications'
p2354
sg42
S'Server'
p2355
sg74
S'9'
sg40
S'db.server'
p2356
stRp2357
sS'scanctl'
p2358
g3
(g4
g5
(dp2359
g7
S'file'
p2360
sg9
g3
(g10
g11
(lp2361
g3
(g4
g5
(dp2362
g14
S''
sg15
g16
sg17
g16
sg18
S''
sg19
S''
sg20
g21
sg22
g23
stRp2363
ag3
(g4
g5
(dp2364
g14
S''
sg17
g26
sg18
S''
sg20
g27
sg19
S''
sg15
g26
sg28
Nsg22
g29
stRp2365
ag3
(g4
g5
(dp2366
g14
S''
sg17
g32
sg18
S''
sg20
g21
sg19
S''
sg15
g32
sg28
Nsg22
g33
stRp2367
ag3
(g4
g5
(dp2368
g14
S''
sg17
g36
sg18
S''
sg20
g27
sg19
S''
sg15
g36
sg28
Nsg22
g37
stRp2369
ag3
(g4
g5
(dp2370
g14
S''
sg40
S'depotPath'
p2371
sg18
S''
sg42
S'File'
p2372
sg19
S''
sg15
g2371
sg28
Nsg44
S'name of scanner task'
p2373
stRp2374
ag3
(g4
g5
(dp2375
g14
S''
sg40
S'state'
p2376
sg18
S''
sg42
S'ScanState'
p2377
sg19
S''
sg15
g2376
sg28
Nsg44
S'scan state'
p2378
stRp2379
ag3
(g4
g5
(dp2380
g14
S''
sg40
S'seq'
p2381
sg18
S''
sg42
S'Int'
p2382
sg19
S''
sg15
g2381
sg28
Nsg44
S'Next internal sequence number of working directories'
p2383
stRp2384
ag3
(g4
g5
(dp2385
g14
S''
sg40
S'dirs'
p2386
sg18
S''
sg42
S'Int'
p2387
sg19
S''
sg15
g2386
sg28
Nsg44
S'directories processed'
p2388
stRp2389
ag3
(g4
g5
(dp2390
g14
S''
sg40
S'files'
p2391
sg18
S''
sg42
S'Int'
p2392
sg19
S''
sg15
g2391
sg28
Nsg44
S'files processed'
p2393
stRp2394
ag3
(g4
g5
(dp2395
g14
S''
sg40
S'zeros'
p2396
sg18
S''
sg42
S'Int'
p2397
sg19
S''
sg15
g2396
sg28
Nsg44
S'orphaned revisions'
p2398
stRp2399
ag3
(g4
g5
(dp2400
g14
S''
sg40
S'dirserr'
p2401
sg18
S''
sg42
S'Int'
p2402
sg19
S''
sg15
g2401
sg28
Nsg44
S'directories skipped due to errors'
p2403
stRp2404
ag3
(g4
g5
(dp2405
g14
S''
sg40
S'pri'
p2406
sg18
S''
sg42
S'Int'
p2407
sg19
S''
sg15
g2406
sg28
Nsg44
S'Priority (unused)'
p2408
stRp2409
ag3
(g4
g5
(dp2410
g14
S''
sg40
S'reqpause'
p2411
sg18
S''
sg42
S'Int'
p2412
sg19
S''
sg15
g2411
sg28
Nsg44
S'request paused'
p2413
stRp2414
ag3
(g4
g5
(dp2415
g14
S''
sg40
S'err'
p2416
sg18
S''
sg42
S'Text'
p2417
sg19
S''
sg15
g2416
sg28
Nsg44
S'background process error'
p2418
stRp2419
atRp2420
sg68
g2358
sg69
S'0'
sg70
g71
sg44
S'ScanCtl'
p2421
sg42
S'ScanCtl'
p2422
sg74
S'45'
p2423
sg40
S'db.scanctl'
p2424
stRp2425
sS'upgradesrp'
p2426
g3
(g4
g5
(dp2427
g7
S'seq'
p2428
sg9
g3
(g10
g11
(lp2429
g3
(g4
g5
(dp2430
g14
S''
sg15
g16
sg17
g16
sg18
S''
sg19
S''
sg20
g21
sg22
g23
stRp2431
ag3
(g4
g5
(dp2432
g14
S''
sg17
g26
sg18
S''
sg20
g27
sg19
S''
sg15
g26
sg28
Nsg22
g29
stRp2433
ag3
(g4
g5
(dp2434
g14
S''
sg17
g32
sg18
S''
sg20
g21
sg19
S''
sg15
g32
sg28
Nsg22
g33
stRp2435
ag3
(g4
g5
(dp2436
g14
S''
sg17
g36
sg18
S''
sg20
g27
sg19
S''
sg15
g36
sg28
Nsg22
g37
stRp2437
ag3
(g4
g5
(dp2438
g14
S''
sg40
g316
sg18
S''
sg42
g317
sg19
S''
sg15
g316
sg28
Nsg44
g318
stRp2439
ag3
(g4
g5
(dp2440
g14
S''
sg40
g321
sg18
S''
sg42
g322
sg19
S''
sg15
g321
sg28
Nsg44
g323
stRp2441
ag3
(g4
g5
(dp2442
g14
S''
sg40
g326
sg18
S''
sg42
g327
sg19
S''
sg15
g326
sg28
Nsg44
g328
stRp2443
ag3
(g4
g5
(dp2444
g14
S''
sg40
g331
sg18
S''
sg42
g332
sg19
S''
sg15
g331
sg28
Nsg44
g333
stRp2445
ag3
(g4
g5
(dp2446
g14
S''
sg40
g336
sg18
S''
sg42
g337
sg19
S''
sg15
g336
sg28
Nsg44
g338
stRp2447
ag3
(g4
g5
(dp2448
g14
S''
sg40
g341
sg18
S''
sg42
g342
sg19
S''
sg15
g341
sg28
Nsg44
g343
stRp2449
atRp2450
sg68
g2426
sg69
S'0'
sg70
g71
sg44
S'Store replica upgrade info'
p2451
sg42
S'Upgrades'
p2452
sg74
S'5'
sg40
S'db.upgrades.rp'
p2453
stRp2454
sS'property'
p2455
g3
(g4
g5
(dp2456
g7
S'name, seq, type, scope'
p2457
sg9
g3
(g10
g11
(lp2458
g3
(g4
g5
(dp2459
g14
S''
sg15
g16
sg17
g16
sg18
S''
sg19
S''
sg20
g21
sg22
g23
stRp2460
ag3
(g4
g5
(dp2461
g14
S''
sg17
g26
sg18
S''
sg20
g27
sg19
S''
sg15
g26
sg28
Nsg22
g29
stRp2462
ag3
(g4
g5
(dp2463
g14
S''
sg17
g32
sg18
S''
sg20
g21
sg19
S''
sg15
g32
sg28
Nsg22
g33
stRp2464
ag3
(g4
g5
(dp2465
g14
S''
sg17
g36
sg18
S''
sg20
g27
sg19
S''
sg15
g36
sg28
Nsg22
g37
stRp2466
ag3
(g4
g5
(dp2467
g14
S''
sg40
S'name'
p2468
sg18
S''
sg42
S'Key'
p2469
sg19
S''
sg15
g2468
sg28
Nsg44
S'The property name'
p2470
stRp2471
ag3
(g4
g5
(dp2472
g14
S''
sg40
S'seq'
p2473
sg18
S''
sg42
S'Int'
p2474
sg19
S''
sg15
g2473
sg28
Nsg44
S'Sequence number of property'
p2475
stRp2476
ag3
(g4
g5
(dp2477
g14
S''
sg40
S'type'
p2478
sg18
S''
sg42
S'UserType'
p2479
sg19
S''
sg15
g2478
sg28
Nsg44
S'Only uses 1=user or 2=group and only applies when scope is set'
p2480
stRp2481
ag3
(g4
g5
(dp2482
g14
S''
sg40
S'scope'
p2483
sg18
S''
sg42
S'User'
p2484
sg19
S''
sg15
g2483
sg28
Nsg44
S'The user or group the property applies to (may be empty)'
p2485
stRp2486
ag3
(g4
g5
(dp2487
g14
S''
sg40
S'value'
p2488
sg18
S''
sg42
S'Value'
p2489
sg19
S''
sg15
g2488
sg28
Nsg44
S'The property value'
p2490
stRp2491
ag3
(g4
g5
(dp2492
g14
S''
sg40
S'date'
p2493
sg18
S''
sg42
S'Date'
p2494
sg19
S''
sg15
g2493
sg28
Nsg44
S'The date/time the property was last updated'
p2495
stRp2496
ag3
(g4
g5
(dp2497
g14
S''
sg40
S'user'
p2498
sg18
S''
sg42
S'User'
p2499
sg19
S''
sg15
g2498
sg28
Nsg44
S'The user that last modified the property'
p2500
stRp2501
atRp2502
sg68
g2455
sg69
S'0'
sg70
g71
sg44
S'Properties'
p2503
sg42
S'Property'
p2504
sg74
S'102'
p2505
sg40
S'db.property'
p2506
stRp2507
sS'view'
p2508
g3
(g4
g5
(dp2509
g7
S'name, seq'
p2510
sg9
g3
(g10
g11
(lp2511
g3
(g4
g5
(dp2512
g14
S''
sg15
g16
sg17
g16
sg18
S''
sg19
S''
sg20
g21
sg22
g23
stRp2513
ag3
(g4
g5
(dp2514
g14
S''
sg17
g26
sg18
S''
sg20
g27
sg19
S''
sg15
g26
sg28
Nsg22
g29
stRp2515
ag3
(g4
g5
(dp2516
g14
S''
sg17
g32
sg18
S''
sg20
g21
sg19
S''
sg15
g32
sg28
Nsg22
g33
stRp2517
ag3
(g4
g5
(dp2518
g14
S''
sg17
g36
sg18
S''
sg20
g27
sg19
S''
sg15
g36
sg28
Nsg22
g37
stRp2519
ag3
(g4
g5
(dp2520
g14
S''
sg40
S'name'
p2521
sg18
S''
sg42
S'Domain'
p2522
sg19
S''
sg15
g2521
sg28
Nsg44
S'Domain name to which this view applies'
p2523
stRp2524
ag3
(g4
g5
(dp2525
g14
S''
sg40
S'seq'
p2526
sg18
S''
sg42
S'Int'
p2527
sg19
S''
sg15
g2526
sg28
Nsg44
S'Sequence number: for ordering multi-line views'
p2528
stRp2529
ag3
(g4
g5
(dp2530
g14
S''
sg40
S'mapFlag'
p2531
sg18
S''
sg42
S'MapFlag'
p2532
sg19
S''
sg15
g2531
sg28
Nsg44
S'Type of mapping'
p2533
stRp2534
ag3
(g4
g5
(dp2535
g14
S''
sg40
S'viewFile'
p2536
sg18
S''
sg42
S'Mapping'
p2537
sg19
S''
sg15
g2536
sg28
Nsg44
S"The right-hand-side of the view. For clients, this is\n                    the client-side, for labels it's the generated label\n                    view. For branches, it's the target side of the branch\n                    view."
p2538
stRp2539
ag3
(g4
g5
(dp2540
g14
S''
sg40
S'depotFile'
p2541
sg18
S''
sg42
S'Mapping'
p2542
sg19
S''
sg15
g2541
sg28
Nsg44
S'The left-hand-side of the view - a mapping to file(s)\n                    in the depot.'
p2543
stRp2544
atRp2545
sg68
g2508
sg69
S'1'
sg70
g71
sg44
S'View data for domain records'
p2546
sg42
S'View'
p2547
sg74
S'28'
p2548
sg40
S'db.view'
p2549
stRp2550
sS'user'
p2551
g3
(g4
g5
(dp2552
g7
S'user'
p2553
sg9
g3
(g10
g11
(lp2554
g3
(g4
g5
(dp2555
g14
S''
sg15
g16
sg17
g16
sg18
S''
sg19
S''
sg20
g21
sg22
g23
stRp2556
ag3
(g4
g5
(dp2557
g14
S''
sg17
g26
sg18
S''
sg20
g27
sg19
S''
sg15
g26
sg28
Nsg22
g29
stRp2558
ag3
(g4
g5
(dp2559
g14
S''
sg17
g32
sg18
S''
sg20
g21
sg19
S''
sg15
g32
sg28
Nsg22
g33
stRp2560
ag3
(g4
g5
(dp2561
g14
S''
sg17
g36
sg18
S''
sg20
g27
sg19
S''
sg15
g36
sg28
Nsg22
g37
stRp2562
ag3
(g4
g5
(dp2563
g14
S''
sg40
S'user'
p2564
sg18
S''
sg42
S'User'
p2565
sg19
S''
sg15
g2564
sg28
Nsg44
S'The username'
p2566
stRp2567
ag3
(g4
g5
(dp2568
g14
S''
sg40
S'email'
p2569
sg18
S''
sg42
S'Text'
p2570
sg19
S''
sg15
g2569
sg28
Nsg44
S"The user's email address"
p2571
stRp2572
ag3
(g4
g5
(dp2573
g14
S''
sg40
S'jobView'
p2574
sg18
S''
sg42
S'Text'
p2575
sg19
S''
sg15
g2574
sg28
Nsg44
S"The user's job view"
p2576
stRp2577
ag3
(g4
g5
(dp2578
g14
S''
sg40
S'updateDate'
p2579
sg18
S''
sg42
S'Date'
p2580
sg19
S''
sg15
g2579
sg28
Nsg44
S'The date/time the user record was last updated'
p2581
stRp2582
ag3
(g4
g5
(dp2583
g14
S''
sg40
S'accessDate'
p2584
sg18
S''
sg42
S'Date'
p2585
sg19
S''
sg15
g2584
sg28
Nsg44
S'The date/time the user record was last used'
p2586
stRp2587
ag3
(g4
g5
(dp2588
g14
S''
sg40
S'fullName'
p2589
sg18
S''
sg42
S'Text'
p2590
sg19
S''
sg15
g2589
sg28
Nsg44
S"The user's full name"
p2591
stRp2592
ag3
(g4
g5
(dp2593
g14
S''
sg40
S'password'
p2594
sg18
S''
sg42
S'Password'
p2595
sg19
S''
sg15
g2594
sg28
Nsg44
S'The MD5 hash of the users (encrypted) password'
p2596
stRp2597
ag3
(g4
g5
(dp2598
g14
S''
sg40
S'strength'
p2599
sg18
S''
sg42
S'Strength'
p2600
sg19
S''
sg15
g2599
sg28
Nsg44
S"Measure of the strength of the user's password"
p2601
stRp2602
ag3
(g4
g5
(dp2603
g14
S''
sg40
S'ticket'
p2604
sg18
S''
sg42
S'Password'
p2605
sg19
S''
sg15
g2604
sg28
Nsg44
S"'p4 login' ticket for this user"
p2606
stRp2607
ag3
(g4
g5
(dp2608
g14
S''
sg40
S'endDate'
p2609
sg18
S''
sg42
S'Date'
p2610
sg19
S''
sg15
g2609
sg28
Nsg44
S"Date/time the user's ticket expires"
p2611
stRp2612
ag3
(g4
g5
(dp2613
g14
S''
sg40
S'type'
p2614
sg18
S''
sg42
S'UserLevel'
p2615
sg19
S''
sg15
g2614
sg28
Nsg44
S'Type of user'
p2616
stRp2617
ag3
(g4
g5
(dp2618
g14
S''
sg40
S'passDate'
p2619
sg18
S''
sg42
S'Date'
p2620
sg19
S''
sg15
g2619
sg28
Nsg44
S'Date password was last changed'
p2621
stRp2622
ag3
(g4
g5
(dp2623
g14
S''
sg40
S'passExpire'
p2624
sg18
S''
sg42
S'Date'
p2625
sg19
S''
sg15
g2624
sg28
Nsg44
S'Date of password expiration'
p2626
stRp2627
ag3
(g4
g5
(dp2628
g14
S''
sg40
S'attempts'
p2629
sg18
S''
sg42
S'Date'
p2630
sg19
S''
sg15
g2629
sg28
Nsg44
S'Failed login attempts'
p2631
stRp2632
ag3
(g4
g5
(dp2633
g14
S''
sg40
S'auth'
p2634
sg18
S''
sg42
S'UserAuthType'
p2635
sg19
S''
sg15
g2634
sg28
Nsg44
S'Authentication method (AuthMethod) for the user'
p2636
stRp2637
atRp2638
sg68
g2551
sg69
S'7'
sg70
g71
sg44
S'User specifications'
p2639
sg42
S'User'
p2640
sg74
S'15'
p2641
sg40
S'db.user'
p2642
stRp2643
sS'domain'
p2644
g3
(g4
g5
(dp2645
g7
S'name'
p2646
sg9
g3
(g10
g11
(lp2647
g3
(g4
g5
(dp2648
g14
S''
sg15
g16
sg17
g16
sg18
S''
sg19
S''
sg20
g21
sg22
g23
stRp2649
ag3
(g4
g5
(dp2650
g14
S''
sg17
g26
sg18
S''
sg20
g27
sg19
S''
sg15
g26
sg28
Nsg22
g29
stRp2651
ag3
(g4
g5
(dp2652
g14
S''
sg17
g32
sg18
S''
sg20
g21
sg19
S''
sg15
g32
sg28
Nsg22
g33
stRp2653
ag3
(g4
g5
(dp2654
g14
S''
sg17
g36
sg18
S''
sg20
g27
sg19
S''
sg15
g36
sg28
Nsg22
g37
stRp2655
ag3
(g4
g5
(dp2656
g14
S''
sg40
S'name'
p2657
sg18
S''
sg42
S'Domain'
p2658
sg19
S''
sg15
g2657
sg28
Nsg44
S'Domain name'
p2659
stRp2660
ag3
(g4
g5
(dp2661
g14
S''
sg40
S'type'
p2662
sg18
S''
sg42
S'DomainType'
p2663
sg19
S''
sg15
g2662
sg28
Nsg44
S'Type of domain'
p2664
stRp2665
ag3
(g4
g5
(dp2666
g14
S''
sg40
S'extra'
p2667
sg18
S''
sg42
S'Text'
p2668
sg19
S''
sg15
g2667
sg28
Nsg44
S'Formerly "host". Associated host or, for labels, revision\n                    number.'
p2669
stRp2670
ag3
(g4
g5
(dp2671
g14
S''
sg40
S'mount'
p2672
sg18
S''
sg42
S'Text'
p2673
sg19
S''
sg15
g2672
sg28
Nsg44
S'The client root'
p2674
stRp2675
ag3
(g4
g5
(dp2676
g14
S''
sg40
S'mount2'
p2677
sg18
S''
sg42
S'Text'
p2678
sg19
S''
sg15
g2677
sg28
Nsg44
S'Alternate client root'
p2679
stRp2680
ag3
(g4
g5
(dp2681
g14
S''
sg40
S'mount3'
p2682
sg18
S''
sg42
S'Text'
p2683
sg19
S''
sg15
g2682
sg28
Nsg44
S'Alternate client root'
p2684
stRp2685
ag3
(g4
g5
(dp2686
g14
S''
sg40
S'owner'
p2687
sg18
S''
sg42
S'User'
p2688
sg19
S''
sg15
g2687
sg28
Nsg44
S'Name of user who owns the domain.'
p2689
stRp2690
ag3
(g4
g5
(dp2691
g14
S''
sg40
S'updateDate'
p2692
sg18
S''
sg42
S'Date'
p2693
sg19
S''
sg15
g2692
sg28
Nsg44
S'Date of last update to domain specification.'
p2694
stRp2695
ag3
(g4
g5
(dp2696
g14
S''
sg40
S'accessDate'
p2697
sg18
S''
sg42
S'Date'
p2698
sg19
S''
sg15
g2697
sg28
Nsg44
S'Date of last access to domain specification.'
p2699
stRp2700
ag3
(g4
g5
(dp2701
g14
S''
sg40
S'options'
p2702
sg18
S''
sg42
S'DomainOpts'
p2703
sg19
S''
sg15
g2702
sg28
Nsg44
S'Options for client, label, and branch domains.'
p2704
stRp2705
ag3
(g4
g5
(dp2706
g14
S''
sg40
S'description'
p2707
sg18
S''
sg42
S'Text'
p2708
sg19
S''
sg15
g2707
sg28
Nsg44
S'Description of domain.'
p2709
stRp2710
ag3
(g4
g5
(dp2711
g14
S''
sg40
S'stream'
p2712
sg18
S''
sg42
S'Domain'
p2713
sg19
S''
sg15
g2712
sg28
Nsg44
S'Associated stream for client records'
p2714
stRp2715
ag3
(g4
g5
(dp2716
g14
S''
sg40
S'serverId'
p2717
sg18
S''
sg42
S'Key'
p2718
sg19
S''
sg15
g2717
sg28
Nsg44
S'Associated server ID for client records'
p2719
stRp2720
ag3
(g4
g5
(dp2721
g14
S''
sg40
S'contents'
p2722
sg18
S''
sg42
S'Int'
p2723
sg19
S''
sg15
g2722
sg28
Nsg44
S'Client domain contents. 1: Maps only classic depot files, 2: Maps only graph depot files, 3: Maps\n                    both classic and graph depot files'
p2724
stRp2725
atRp2726
sg68
g2644
sg69
S'7'
sg70
g71
sg44
S'Domains: depots, clients, labels, branches, streams, and typemap'
p2727
sg42
S'Domain'
p2728
sg74
S'23'
p2729
sg40
S'db.domain'
p2730
stRp2731
sS'stream'
p2732
g3
(g4
g5
(dp2733
g7
S'stream'
p2734
sg9
g3
(g10
g11
(lp2735
g3
(g4
g5
(dp2736
g14
S''
sg15
g16
sg17
g16
sg18
S''
sg19
S''
sg20
g21
sg22
g23
stRp2737
ag3
(g4
g5
(dp2738
g14
S''
sg17
g26
sg18
S''
sg20
g27
sg19
S''
sg15
g26
sg28
Nsg22
g29
stRp2739
ag3
(g4
g5
(dp2740
g14
S''
sg17
g32
sg18
S''
sg20
g21
sg19
S''
sg15
g32
sg28
Nsg22
g33
stRp2741
ag3
(g4
g5
(dp2742
g14
S''
sg17
g36
sg18
S''
sg20
g27
sg19
S''
sg15
g36
sg28
Nsg22
g37
stRp2743
ag3
(g4
g5
(dp2744
g14
S''
sg40
S'stream'
p2745
sg18
S''
sg42
S'Domain'
p2746
sg19
S''
sg15
g2745
sg28
Nsg44
S'Stream name'
p2747
stRp2748
ag3
(g4
g5
(dp2749
g14
S''
sg40
S'parent'
p2750
sg18
S''
sg42
S'Domain'
p2751
sg19
S''
sg15
g2750
sg28
Nsg44
S'Parent stream name'
p2752
stRp2753
ag3
(g4
g5
(dp2754
g14
S''
sg40
S'title'
p2755
sg18
S''
sg42
S'Text'
p2756
sg19
S''
sg15
g2755
sg28
Nsg44
S'Stream title (alias for the stream name)'
p2757
stRp2758
ag3
(g4
g5
(dp2759
g14
S''
sg40
S'type'
p2760
sg18
S''
sg42
S'StreamType'
p2761
sg19
S''
sg15
g2760
sg28
Nsg44
S'The type of stream'
p2762
stRp2763
ag3
(g4
g5
(dp2764
g14
S''
sg40
S'preview'
p2765
sg18
S''
sg42
S'Date'
p2766
sg19
S''
sg15
g2765
sg28
Nsg44
S'Stream template modification time'
p2767
stRp2768
ag3
(g4
g5
(dp2769
g14
S''
sg40
S'change'
p2770
sg18
S''
sg42
S'Change'
p2771
sg19
S''
sg15
g2770
sg28
Nsg44
S'Last submit to stream'
p2772
stRp2773
ag3
(g4
g5
(dp2774
g14
S''
sg40
S'copyChange'
p2775
sg18
S''
sg42
S'Change'
p2776
sg19
S''
sg15
g2775
sg28
Nsg44
S'Parent change at last copy'
p2777
stRp2778
ag3
(g4
g5
(dp2779
g14
S''
sg40
S'mergeChange'
p2780
sg18
S''
sg42
S'Change'
p2781
sg19
S''
sg15
g2780
sg28
Nsg44
S'Parent change at last merge'
p2782
stRp2783
ag3
(g4
g5
(dp2784
g14
S''
sg40
S'highChange'
p2785
sg18
S''
sg42
S'Change'
p2786
sg19
S''
sg15
g2785
sg28
Nsg44
S'Highest change at last merge'
p2787
stRp2788
ag3
(g4
g5
(dp2789
g14
S''
sg40
S'hash'
p2790
sg18
S''
sg42
S'Int'
p2791
sg19
S''
sg15
g2790
sg28
Nsg44
S'Hash value of dynamic branch'
p2792
stRp2793
ag3
(g4
g5
(dp2794
g14
S''
sg40
S'status'
p2795
sg18
S''
sg42
S'StreamStatus'
p2796
sg19
S''
sg15
g2795
sg28
Nsg44
S'Flow status'
p2797
stRp2798
ag3
(g4
g5
(dp2799
g14
S''
sg40
S'parentview'
p2800
sg18
S''
sg42
S'Int'
p2801
sg19
S''
sg15
g2800
sg28
Nsg44
S'Parent view inheritance mode'
p2802
stRp2803
atRp2804
sg68
g2732
sg69
S'1'
sg70
g71
sg44
S'Stream specifications'
p2805
sg42
S'Stream'
p2806
sg74
S'21'
p2807
sg40
S'db.stream'
p2808
stRp2809
sS'sendq'
p2810
g3
(g4
g5
(dp2811
g7
S'taskid, seq'
p2812
sg9
g3
(g10
g11
(lp2813
g3
(g4
g5
(dp2814
g14
S''
sg15
g16
sg17
g16
sg18
S''
sg19
S''
sg20
g21
sg22
g23
stRp2815
ag3
(g4
g5
(dp2816
g14
S''
sg17
g26
sg18
S''
sg20
g27
sg19
S''
sg15
g26
sg28
Nsg22
g29
stRp2817
ag3
(g4
g5
(dp2818
g14
S''
sg17
g32
sg18
S''
sg20
g21
sg19
S''
sg15
g32
sg28
Nsg22
g33
stRp2819
ag3
(g4
g5
(dp2820
g14
S''
sg17
g36
sg18
S''
sg20
g27
sg19
S''
sg15
g36
sg28
Nsg22
g37
stRp2821
ag3
(g4
g5
(dp2822
g14
S''
sg40
S'taskid'
p2823
sg18
S''
sg42
S'Int'
p2824
sg19
S''
sg15
g2823
sg28
Nsg44
S'The process id (PID) of the sync'
p2825
stRp2826
ag3
(g4
g5
(dp2827
g14
S''
sg40
S'seq'
p2828
sg18
S''
sg42
S'Int'
p2829
sg19
S''
sg15
g2828
sg28
Nsg44
S'Sequence number'
p2830
stRp2831
ag3
(g4
g5
(dp2832
g14
S''
sg40
S'handle'
p2833
sg18
S''
sg42
S'Text'
p2834
sg19
S''
sg15
g2833
sg28
Nsg44
S'Handle'
p2835
stRp2836
ag3
(g4
g5
(dp2837
g14
S''
sg40
S'depotFile'
p2838
sg18
S''
sg42
S'File'
p2839
sg19
S''
sg15
g2838
sg28
Nsg44
S'The file in the depot'
p2840
stRp2841
ag3
(g4
g5
(dp2842
g14
S''
sg40
S'clientFile'
p2843
sg18
S''
sg42
S'File'
p2844
sg19
S''
sg15
g2843
sg28
Nsg44
S'The file in its location on the client'
p2845
stRp2846
ag3
(g4
g5
(dp2847
g14
S''
sg40
S'haveRev'
p2848
sg18
S''
sg42
S'Rev'
p2849
sg19
S''
sg15
g2848
sg28
Nsg44
S'Have revision'
p2850
stRp2851
ag3
(g4
g5
(dp2852
g14
S''
sg40
S'type'
p2853
sg18
S''
sg42
S'FileType'
p2854
sg19
S''
sg15
g2853
sg28
Nsg44
S'File type'
p2855
stRp2856
ag3
(g4
g5
(dp2857
g14
S''
sg40
S'modtime'
p2858
sg18
S''
sg42
S'Date'
p2859
sg19
S''
sg15
g2858
sg28
Nsg44
S'Modification time'
p2860
stRp2861
ag3
(g4
g5
(dp2862
g14
S''
sg40
S'digest'
p2863
sg18
S''
sg42
S'Digest'
p2864
sg19
S''
sg15
g2863
sg28
Nsg44
S'The MD5 digest of the revision'
p2865
stRp2866
ag3
(g4
g5
(dp2867
g14
S''
sg40
S'size'
p2868
sg18
S''
sg42
S'FileSize'
p2869
sg19
S''
sg15
g2868
sg28
Nsg44
S'The size of the file in bytes'
p2870
stRp2871
ag3
(g4
g5
(dp2872
g14
S''
sg40
S'lbrFile'
p2873
sg18
S''
sg42
S'File'
p2874
sg19
S''
sg15
g2873
sg28
Nsg44
S'Librarian filename'
p2875
stRp2876
ag3
(g4
g5
(dp2877
g14
S''
sg40
S'lbrRev'
p2878
sg18
S''
sg42
S'String'
p2879
sg19
S''
sg15
g2878
sg28
Nsg44
S'The librarian revision number'
p2880
stRp2881
ag3
(g4
g5
(dp2882
g14
S''
sg40
S'lbrType'
p2883
sg18
S''
sg42
S'FileType'
p2884
sg19
S''
sg15
g2883
sg28
Nsg44
S'The file type of the librarian revision'
p2885
stRp2886
ag3
(g4
g5
(dp2887
g14
S''
sg40
S'flags'
p2888
sg18
S''
sg42
S'Int'
p2889
sg19
S''
sg15
g2888
sg28
Nsg44
S'Miscellaneous flags'
p2890
stRp2891
ag3
(g4
g5
(dp2892
g14
S''
sg40
S'clientType'
p2893
sg18
S''
sg42
S'FileType'
p2894
sg19
S''
sg15
g2893
sg28
Nsg44
S'The client file type of the revision'
p2895
stRp2896
ag3
(g4
g5
(dp2897
g14
S''
sg40
S'depotRev'
p2898
sg18
S''
sg42
S'Rev'
p2899
sg19
S''
sg15
g2898
sg28
Nsg44
S'The revision number of depotFile'
p2900
stRp2901
ag3
(g4
g5
(dp2902
g14
S''
sg40
S'change'
p2903
sg18
S''
sg42
S'Change'
p2904
sg19
S''
sg15
g2903
sg28
Nsg44
S'The changelist that created the depotRev of depotFile'
p2905
stRp2906
ag3
(g4
g5
(dp2907
g14
S''
sg40
S'date'
p2908
sg18
S''
sg42
S'Date'
p2909
sg19
S''
sg15
g2908
sg28
Nsg44
S'The date/time when the changelist that created depotRev of depotFile was submitted'
p2910
stRp2911
ag3
(g4
g5
(dp2912
g14
S''
sg40
S'blobSha'
p2913
sg18
S''
sg42
S'SHA1'
p2914
sg19
S''
sg15
g2913
sg28
Nsg44
S'The Blob SHA'
p2915
stRp2916
ag3
(g4
g5
(dp2917
g14
S''
sg40
S'repoSlot'
p2918
sg18
S''
sg42
S'Int'
p2919
sg19
S''
sg15
g2918
sg28
Nsg44
S'The repo slot (internal repo ordering)'
p2920
stRp2921
ag3
(g4
g5
(dp2922
g14
S''
sg40
S'shelveDigest'
p2923
sg18
S''
sg42
S'Digest'
p2924
sg19
S''
sg15
g2923
sg28
Nsg44
S'Digest of previous shelved revision'
p2925
stRp2926
atRp2927
sg68
g2810
sg69
S'4'
sg70
g71
sg44
S'Parallel file transmission work queue'
p2928
sg42
S'SendQ'
p2929
sg74
S'104'
p2930
sg40
S'db.sendq'
p2931
stRp2932
sS'revstg'
p2933
g3
(g4
g5
(dp2934
g7
S'depotFile, depotRev'
p2935
sg9
g3
(g10
g11
(lp2936
g3
(g4
g5
(dp2937
g14
S''
sg15
g16
sg17
g16
sg18
S''
sg19
S''
sg20
g21
sg22
g23
stRp2938
ag3
(g4
g5
(dp2939
g14
S''
sg17
g26
sg18
S''
sg20
g27
sg19
S''
sg15
g26
sg28
Nsg22
g29
stRp2940
ag3
(g4
g5
(dp2941
g14
S''
sg17
g32
sg18
S''
sg20
g21
sg19
S''
sg15
g32
sg28
Nsg22
g33
stRp2942
ag3
(g4
g5
(dp2943
g14
S''
sg17
g36
sg18
S''
sg20
g27
sg19
S''
sg15
g36
sg28
Nsg22
g37
stRp2944
ag3
(g4
g5
(dp2945
g14
S''
sg40
g91
sg18
S''
sg42
g92
sg19
S''
sg15
g91
sg28
Nsg44
g93
stRp2946
ag3
(g4
g5
(dp2947
g14
S''
sg40
g96
sg18
S''
sg42
g97
sg19
S''
sg15
g96
sg28
Nsg44
g98
stRp2948
ag3
(g4
g5
(dp2949
g14
S''
sg40
g101
sg18
S''
sg42
g102
sg19
S''
sg15
g101
sg28
Nsg44
g103
stRp2950
ag3
(g4
g5
(dp2951
g14
S''
sg40
g106
sg18
S''
sg42
g107
sg19
S''
sg15
g106
sg28
Nsg44
g108
stRp2952
ag3
(g4
g5
(dp2953
g14
S''
sg40
g111
sg18
S''
sg42
g112
sg19
S''
sg15
g111
sg28
Nsg44
g113
stRp2954
ag3
(g4
g5
(dp2955
g14
S''
sg40
g116
sg18
S''
sg42
g117
sg19
S''
sg15
g116
sg28
Nsg44
g118
stRp2956
ag3
(g4
g5
(dp2957
g14
S''
sg40
g121
sg18
S''
sg42
g122
sg19
S''
sg15
g121
sg28
Nsg44
g123
stRp2958
ag3
(g4
g5
(dp2959
g14
S''
sg40
g126
sg18
S''
sg42
g127
sg19
S''
sg15
g126
sg28
Nsg44
g128
stRp2960
ag3
(g4
g5
(dp2961
g14
S''
sg40
g131
sg18
S''
sg42
g132
sg19
S''
sg15
g131
sg28
Nsg44
g133
stRp2962
ag3
(g4
g5
(dp2963
g14
S''
sg40
g136
sg18
S''
sg42
g137
sg19
S''
sg15
g136
sg28
Nsg44
g138
stRp2964
ag3
(g4
g5
(dp2965
g14
S''
sg40
g141
sg18
S''
sg42
g142
sg19
S''
sg15
g141
sg28
Nsg44
g143
stRp2966
ag3
(g4
g5
(dp2967
g14
S''
sg40
g146
sg18
S''
sg42
g147
sg19
S''
sg15
g146
sg28
Nsg44
g148
stRp2968
ag3
(g4
g5
(dp2969
g14
S''
sg40
g151
sg18
S''
sg42
g152
sg19
S''
sg15
g151
sg28
Nsg44
g153
stRp2970
ag3
(g4
g5
(dp2971
g14
S''
sg40
g156
sg18
S''
sg42
g157
sg19
S''
sg15
g156
sg28
Nsg44
g158
stRp2972
atRp2973
sg68
g2933
sg69
S'9'
sg70
g71
sg44
S'Temporary revision records for storage upgrade process'
p2974
sg42
S'Rev'
p2975
sg74
S'60'
p2976
sg40
S'db.revstg'
p2977
stRp2978
sS'locks'
p2979
g3
(g4
g5
(dp2980
g7
S'depotFile, client'
p2981
sg9
g3
(g10
g11
(lp2982
g3
(g4
g5
(dp2983
g14
S''
sg15
g16
sg17
g16
sg18
S''
sg19
S''
sg20
g21
sg22
g23
stRp2984
ag3
(g4
g5
(dp2985
g14
S''
sg17
g26
sg18
S''
sg20
g27
sg19
S''
sg15
g26
sg28
Nsg22
g29
stRp2986
ag3
(g4
g5
(dp2987
g14
S''
sg17
g32
sg18
S''
sg20
g21
sg19
S''
sg15
g32
sg28
Nsg22
g33
stRp2988
ag3
(g4
g5
(dp2989
g14
S''
sg17
g36
sg18
S''
sg20
g27
sg19
S''
sg15
g36
sg28
Nsg22
g37
stRp2990
ag3
(g4
g5
(dp2991
g14
S''
sg40
S'depotFile'
p2992
sg18
S''
sg42
S'File'
p2993
sg19
S''
sg15
g2992
sg28
Nsg44
S'File in depot'
p2994
stRp2995
ag3
(g4
g5
(dp2996
g14
S''
sg40
S'client'
p2997
sg18
S''
sg42
S'Domain'
p2998
sg19
S''
sg15
g2997
sg28
Nsg44
S'Domain (client) in which file is open'
p2999
stRp3000
ag3
(g4
g5
(dp3001
g14
S''
sg40
S'user'
p3002
sg18
S''
sg42
S'User'
p3003
sg19
S''
sg15
g3002
sg28
Nsg44
S'User who presently has the file open'
p3004
stRp3005
ag3
(g4
g5
(dp3006
g14
S''
sg40
S'action'
p3007
sg18
S''
sg42
S'Action'
p3008
sg19
S''
sg15
g3007
sg28
Nsg44
S'Action file is open for: add, edit, delete, branch,\n                    integrate, or import'
p3009
stRp3010
ag3
(g4
g5
(dp3011
g14
S''
sg40
S'isLocked'
p3012
sg18
S''
sg42
S'LockedType'
p3013
sg19
S''
sg15
g3012
sg28
Nsg44
S'Bitmask of locked flags'
p3014
stRp3015
ag3
(g4
g5
(dp3016
g14
S''
sg40
S'change'
p3017
sg18
S''
sg42
S'Change'
p3018
sg19
S''
sg15
g3017
sg28
Nsg44
S'Changelist in which the revision is open: 0 for the\n                    default changelist'
p3019
stRp3020
atRp3021
sg68
g2979
sg69
S'2'
sg70
g71
sg44
S'Locked/Unlocked files'
p3022
sg42
S'Locks'
p3023
sg74
S'61'
p3024
sg40
S'db.locks'
p3025
stRp3026
sS'pdblbr'
p3027
g3
(g4
g5
(dp3028
g7
S'file, rev'
p3029
sg9
g3
(g10
g11
(lp3030
g3
(g4
g5
(dp3031
g14
S''
sg15
g16
sg17
g16
sg18
S''
sg19
S''
sg20
g21
sg22
g23
stRp3032
ag3
(g4
g5
(dp3033
g14
S''
sg17
g26
sg18
S''
sg20
g27
sg19
S''
sg15
g26
sg28
Nsg22
g29
stRp3034
ag3
(g4
g5
(dp3035
g14
S''
sg17
g32
sg18
S''
sg20
g21
sg19
S''
sg15
g32
sg28
Nsg22
g33
stRp3036
ag3
(g4
g5
(dp3037
g14
S''
sg17
g36
sg18
S''
sg20
g27
sg19
S''
sg15
g36
sg28
Nsg22
g37
stRp3038
ag3
(g4
g5
(dp3039
g14
S''
sg40
S'file'
p3040
sg18
S''
sg42
S'File'
p3041
sg19
S''
sg15
g3040
sg28
Nsg44
S'The file name'
p3042
stRp3043
ag3
(g4
g5
(dp3044
g14
S''
sg40
S'rev'
p3045
sg18
S''
sg42
S'String'
p3046
sg19
S''
sg15
g3045
sg28
Nsg44
S'The librarian revision'
p3047
stRp3048
ag3
(g4
g5
(dp3049
g14
S''
sg40
S'type'
p3050
sg18
S''
sg42
S'FileType'
p3051
sg19
S''
sg15
g3050
sg28
Nsg44
S'The file type of the revision'
p3052
stRp3053
ag3
(g4
g5
(dp3054
g14
S''
sg40
S'status'
p3055
sg18
S''
sg42
S'PullStatus'
p3056
sg19
S''
sg15
g3055
sg28
Nsg44
S'The status of the archive transfer'
p3057
stRp3058
ag3
(g4
g5
(dp3059
g14
S''
sg40
S'who'
p3060
sg18
S''
sg42
S'Int'
p3061
sg19
S''
sg15
g3060
sg28
Nsg44
S'The process / thread id ID of the pull process'
p3062
stRp3063
ag3
(g4
g5
(dp3064
g14
S''
sg40
S'when'
p3065
sg18
S''
sg42
S'Int'
p3066
sg19
S''
sg15
g3065
sg28
Nsg44
S'The timestamp from when the transfer was scheduled'
p3067
stRp3068
ag3
(g4
g5
(dp3069
g14
S''
sg40
S'action'
p3070
sg18
S''
sg42
S'Action'
p3071
sg19
S''
sg15
g3070
sg28
Nsg44
S'The action that created the revision'
p3072
stRp3073
ag3
(g4
g5
(dp3074
g14
S''
sg40
S'digest'
p3075
sg18
S''
sg42
S'Digest'
p3076
sg19
S''
sg15
g3075
sg28
Nsg44
S'The MD5 digest of the revision'
p3077
stRp3078
ag3
(g4
g5
(dp3079
g14
S''
sg40
S'size'
p3080
sg18
S''
sg42
S'FileSize'
p3081
sg19
S''
sg15
g3080
sg28
Nsg44
S'The size of the file in bytes'
p3082
stRp3083
ag3
(g4
g5
(dp3084
g14
S''
sg40
S'retries'
p3085
sg18
S''
sg42
S'Int'
p3086
sg19
S''
sg15
g3085
sg28
Nsg44
S'Error retry count'
p3087
stRp3088
ag3
(g4
g5
(dp3089
g14
S''
sg40
S'errmsg'
p3090
sg18
S''
sg42
S'Octet String'
p3091
sg19
S''
sg15
g3090
sg28
Nsg44
S'Last Error Message'
p3092
stRp3093
ag3
(g4
g5
(dp3094
g14
S''
sg40
S'change'
p3095
sg18
S''
sg42
S'Change'
p3096
sg19
S''
sg15
g3095
sg28
Nsg44
S'The changelist that created the revision'
p3097
stRp3098
ag3
(g4
g5
(dp3099
g14
S''
sg40
S'date'
p3100
sg18
S''
sg42
S'Date'
p3101
sg19
S''
sg15
g3100
sg28
Nsg44
S'Librarian date'
p3102
stRp3103
ag3
(g4
g5
(dp3104
g14
S''
sg40
S'modTime'
p3105
sg18
S''
sg42
S'Date'
p3106
sg19
S''
sg15
g3105
sg28
Nsg44
S'Librarian modtime'
p3107
stRp3108
ag3
(g4
g5
(dp3109
g14
S''
sg40
S'origin'
p3110
sg18
S''
sg42
S'Int'
p3111
sg19
S''
sg15
g3110
sg28
Nsg44
S'The revision type that this transfer originates from:\n                    1 = db.rev\n                    2 = db.revsh\n                    3 = db.revsx\n                    4 = db.revux\n                    5 = db.object'
p3112
stRp3113
ag3
(g4
g5
(dp3114
g14
S''
sg40
S'target'
p3115
sg18
S''
sg42
S'Text'
p3116
sg19
S''
sg15
g3115
sg28
Nsg44
S'Edge server to transfer from (reverse replication only)'
p3117
stRp3118
ag3
(g4
g5
(dp3119
g14
S''
sg40
S'retryMissing'
p3120
sg18
S''
sg42
S'Int'
p3121
sg19
S''
sg15
g3120
sg28
Nsg44
S'0 or 1: 1 indicates that pull should retry the fetch if this archive is missing.\n                    Set when background submit is used.'
p3122
stRp3123
atRp3124
sg68
g3027
sg69
S'3'
sg70
g71
sg44
S'Proxy server pending archive transfer table'
p3125
sg42
S'ReplicaArchiveTransfer'
p3126
sg40
S'pdb.lbr'
p3127
stRp3128
sS'have'
p3129
g3
(g4
g5
(dp3130
g7
S'clientFile'
p3131
sg9
g3
(g10
g11
(lp3132
g3
(g4
g5
(dp3133
g14
S''
sg15
g16
sg17
g16
sg18
S''
sg19
S''
sg20
g21
sg22
g23
stRp3134
ag3
(g4
g5
(dp3135
g14
S''
sg17
g26
sg18
S''
sg20
g27
sg19
S''
sg15
g26
sg28
Nsg22
g29
stRp3136
ag3
(g4
g5
(dp3137
g14
S''
sg17
g32
sg18
S''
sg20
g21
sg19
S''
sg15
g32
sg28
Nsg22
g33
stRp3138
ag3
(g4
g5
(dp3139
g14
S''
sg17
g36
sg18
S''
sg20
g27
sg19
S''
sg15
g36
sg28
Nsg22
g37
stRp3140
ag3
(g4
g5
(dp3141
g14
S''
sg40
g563
sg18
S''
sg42
g564
sg19
S''
sg15
g563
sg28
Nsg44
g565
stRp3142
ag3
(g4
g5
(dp3143
g14
S''
sg40
g568
sg18
S''
sg42
g569
sg19
S''
sg15
g568
sg28
Nsg44
g570
stRp3144
ag3
(g4
g5
(dp3145
g14
S''
sg40
g573
sg18
S''
sg42
g574
sg19
S''
sg15
g573
sg28
Nsg44
g575
stRp3146
ag3
(g4
g5
(dp3147
g14
S''
sg40
g578
sg18
S''
sg42
g579
sg19
S''
sg15
g578
sg28
Nsg44
g580
stRp3148
ag3
(g4
g5
(dp3149
g14
S''
sg40
g583
sg18
S''
sg42
g584
sg19
S''
sg15
g583
sg28
Nsg44
g585
stRp3150
atRp3151
sg68
g3129
sg69
S'3'
sg70
g71
sg44
S"Contains the 'have-list' for all clients"
p3152
sg42
S'Have'
p3153
sg74
S'35'
p3154
sg40
S'db.have'
p3155
stRp3156
sS'graphindex'
p3157
g3
(g4
g5
(dp3158
g7
S'id, name, date, blobSha, commitSha'
p3159
sg9
g3
(g10
g11
(lp3160
g3
(g4
g5
(dp3161
g14
S''
sg15
g16
sg17
g16
sg18
S''
sg19
S''
sg20
g21
sg22
g23
stRp3162
ag3
(g4
g5
(dp3163
g14
S''
sg17
g26
sg18
S''
sg20
g27
sg19
S''
sg15
g26
sg28
Nsg22
g29
stRp3164
ag3
(g4
g5
(dp3165
g14
S''
sg17
g32
sg18
S''
sg20
g21
sg19
S''
sg15
g32
sg28
Nsg22
g33
stRp3166
ag3
(g4
g5
(dp3167
g14
S''
sg17
g36
sg18
S''
sg20
g27
sg19
S''
sg15
g36
sg28
Nsg22
g37
stRp3168
ag3
(g4
g5
(dp3169
g14
S''
sg40
S'id'
p3170
sg18
S''
sg42
S'Int'
p3171
sg19
S''
sg15
g3170
sg28
Nsg44
S'ID of repo index belongs to'
p3172
stRp3173
ag3
(g4
g5
(dp3174
g14
S''
sg40
S'name'
p3175
sg18
S''
sg42
S'File'
p3176
sg19
S''
sg15
g3175
sg28
Nsg44
S'File name (minus the repo name)'
p3177
stRp3178
ag3
(g4
g5
(dp3179
g14
S''
sg40
S'date'
p3180
sg18
S''
sg42
S'Date'
p3181
sg19
S''
sg15
g3180
sg28
Nsg44
S'Descending historical commit sequence'
p3182
stRp3183
ag3
(g4
g5
(dp3184
g14
S''
sg40
S'blobSha'
p3185
sg18
S''
sg42
S'SHA1'
p3186
sg19
S''
sg15
g3185
sg28
Nsg44
S'SHA of blob'
p3187
stRp3188
ag3
(g4
g5
(dp3189
g14
S''
sg40
S'commitSha'
p3190
sg18
S''
sg42
S'SHA1'
p3191
sg19
S''
sg15
g3190
sg28
Nsg44
S'SHA of commit that added/edited this file'
p3192
stRp3193
ag3
(g4
g5
(dp3194
g14
S''
sg40
S'flags'
p3195
sg18
S''
sg42
S'Int'
p3196
sg19
S''
sg15
g3195
sg28
Nsg44
S'Miscellaneous flags'
p3197
stRp3198
ag3
(g4
g5
(dp3199
g14
S''
sg40
S'size'
p3200
sg18
S''
sg42
S'FileSize'
p3201
sg19
S''
sg15
g3200
sg28
Nsg44
S'The size of the file (or target LFS file)'
p3202
stRp3203
ag3
(g4
g5
(dp3204
g14
S''
sg40
S'type'
p3205
sg18
S''
sg42
S'FileType'
p3206
sg19
S''
sg15
g3205
sg28
Nsg44
S'The filetype of the graph file'
p3207
stRp3208
ag3
(g4
g5
(dp3209
g14
S''
sg40
S'lfsoid'
p3210
sg18
S''
sg42
S'Text'
p3211
sg19
S''
sg15
g3210
sg28
Nsg44
S'LFS Object ID'
p3212
stRp3213
atRp3214
sg68
g3157
sg69
S'1'
sg70
g71
sg44
S'Graph depot repository index data'
p3215
sg42
S'GraphIndex'
p3216
sg74
S'80'
p3217
sg40
S'db.graphindex'
p3218
stRp3219
sS'revcx'
p3220
g3
(g4
g5
(dp3221
g7
S'change, depotFile'
p3222
sg9
g3
(g10
g11
(lp3223
g3
(g4
g5
(dp3224
g14
S''
sg15
g16
sg17
g16
sg18
S''
sg19
S''
sg20
g21
sg22
g23
stRp3225
ag3
(g4
g5
(dp3226
g14
S''
sg17
g26
sg18
S''
sg20
g27
sg19
S''
sg15
g26
sg28
Nsg22
g29
stRp3227
ag3
(g4
g5
(dp3228
g14
S''
sg17
g32
sg18
S''
sg20
g21
sg19
S''
sg15
g32
sg28
Nsg22
g33
stRp3229
ag3
(g4
g5
(dp3230
g14
S''
sg17
g36
sg18
S''
sg20
g27
sg19
S''
sg15
g36
sg28
Nsg22
g37
stRp3231
ag3
(g4
g5
(dp3232
g14
S''
sg40
S'change'
p3233
sg18
S''
sg42
S'Change'
p3234
sg19
S''
sg15
g3233
sg28
Nsg44
S'The changelist that created the revision'
p3235
stRp3236
ag3
(g4
g5
(dp3237
g14
S''
sg40
S'depotFile'
p3238
sg18
S''
sg42
S'File'
p3239
sg19
S''
sg15
g3238
sg28
Nsg44
S'The file name'
p3240
stRp3241
ag3
(g4
g5
(dp3242
g14
S''
sg40
S'depotRev'
p3243
sg18
S''
sg42
S'Rev'
p3244
sg19
S''
sg15
g3243
sg28
Nsg44
S'The revision number'
p3245
stRp3246
ag3
(g4
g5
(dp3247
g14
S''
sg40
S'action'
p3248
sg18
S''
sg42
S'Action'
p3249
sg19
S''
sg15
g3248
sg28
Nsg44
S'The action that created the revision'
p3250
stRp3251
atRp3252
sg68
g3220
sg69
S'0'
sg70
g71
sg44
S'Secondary index of db.rev'
p3253
sg42
S'RevCx'
p3254
sg74
S'57'
p3255
sg40
S'db.revcx'
p3256
stRp3257
sS'refhist'
p3258
g3
(g4
g5
(dp3259
g7
S'repo, type, name, date, action, user, ref'
p3260
sg9
g3
(g10
g11
(lp3261
g3
(g4
g5
(dp3262
g14
S''
sg15
g16
sg17
g16
sg18
S''
sg19
S''
sg20
g21
sg22
g23
stRp3263
ag3
(g4
g5
(dp3264
g14
S''
sg17
g26
sg18
S''
sg20
g27
sg19
S''
sg15
g26
sg28
Nsg22
g29
stRp3265
ag3
(g4
g5
(dp3266
g14
S''
sg17
g32
sg18
S''
sg20
g21
sg19
S''
sg15
g32
sg28
Nsg22
g33
stRp3267
ag3
(g4
g5
(dp3268
g14
S''
sg17
g36
sg18
S''
sg20
g27
sg19
S''
sg15
g36
sg28
Nsg22
g37
stRp3269
ag3
(g4
g5
(dp3270
g14
S''
sg40
S'repo'
p3271
sg18
S''
sg42
S'Key'
p3272
sg19
S''
sg15
g3271
sg28
Nsg44
S'Repository name'
p3273
stRp3274
ag3
(g4
g5
(dp3275
g14
S''
sg40
S'name'
p3276
sg18
S''
sg42
S'Key'
p3277
sg19
S''
sg15
g3276
sg28
Nsg44
S'Reference name'
p3278
stRp3279
ag3
(g4
g5
(dp3280
g14
S''
sg40
S'type'
p3281
sg18
S''
sg42
S'RefType'
p3282
sg19
S''
sg15
g3281
sg28
Nsg44
S'Reference type'
p3283
stRp3284
ag3
(g4
g5
(dp3285
g14
S''
sg40
S'action'
p3286
sg18
S''
sg42
S'RefAction'
p3287
sg19
S''
sg15
g3286
sg28
Nsg44
S'Reference action'
p3288
stRp3289
ag3
(g4
g5
(dp3290
g14
S''
sg40
S'date'
p3291
sg18
S''
sg42
S'Date'
p3292
sg19
S''
sg15
g3291
sg28
Nsg44
S'The date the reference was updated'
p3293
stRp3294
ag3
(g4
g5
(dp3295
g14
S''
sg40
S'user'
p3296
sg18
S''
sg42
S'User'
p3297
sg19
S''
sg15
g3296
sg28
Nsg44
S'The user who made the reference update'
p3298
stRp3299
ag3
(g4
g5
(dp3300
g14
S''
sg40
S'ref'
p3301
sg18
S''
sg42
S'SHA1'
p3302
sg19
S''
sg15
g3301
sg28
Nsg44
S'Encoded reference value'
p3303
stRp3304
ag3
(g4
g5
(dp3305
g14
S''
sg40
S'symref'
p3306
sg18
S''
sg42
S'Text'
p3307
sg19
S''
sg15
g3306
sg28
Nsg44
S'Symbolic reference'
p3308
stRp3309
atRp3310
sg68
g3258
sg69
S'0'
sg70
g71
sg44
S'Reference history for graph depots'
p3311
sg42
S'RefHist'
p3312
sg74
S'77'
p3313
sg40
S'db.refhist'
p3314
stRp3315
sS'rdblbr'
p3316
g3
(g4
g5
(dp3317
g7
S'file, rev'
p3318
sg9
g3
(g10
g11
(lp3319
g3
(g4
g5
(dp3320
g14
S''
sg15
g16
sg17
g16
sg18
S''
sg19
S''
sg20
g21
sg22
g23
stRp3321
ag3
(g4
g5
(dp3322
g14
S''
sg17
g26
sg18
S''
sg20
g27
sg19
S''
sg15
g26
sg28
Nsg22
g29
stRp3323
ag3
(g4
g5
(dp3324
g14
S''
sg17
g32
sg18
S''
sg20
g21
sg19
S''
sg15
g32
sg28
Nsg22
g33
stRp3325
ag3
(g4
g5
(dp3326
g14
S''
sg17
g36
sg18
S''
sg20
g27
sg19
S''
sg15
g36
sg28
Nsg22
g37
stRp3327
ag3
(g4
g5
(dp3328
g14
S''
sg40
g3040
sg18
S''
sg42
g3041
sg19
S''
sg15
g3040
sg28
Nsg44
g3042
stRp3329
ag3
(g4
g5
(dp3330
g14
S''
sg40
g3045
sg18
S''
sg42
g3046
sg19
S''
sg15
g3045
sg28
Nsg44
g3047
stRp3331
ag3
(g4
g5
(dp3332
g14
S''
sg40
g3050
sg18
S''
sg42
g3051
sg19
S''
sg15
g3050
sg28
Nsg44
g3052
stRp3333
ag3
(g4
g5
(dp3334
g14
S''
sg40
g3055
sg18
S''
sg42
g3056
sg19
S''
sg15
g3055
sg28
Nsg44
g3057
stRp3335
ag3
(g4
g5
(dp3336
g14
S''
sg40
g3060
sg18
S''
sg42
g3061
sg19
S''
sg15
g3060
sg28
Nsg44
g3062
stRp3337
ag3
(g4
g5
(dp3338
g14
S''
sg40
g3065
sg18
S''
sg42
g3066
sg19
S''
sg15
g3065
sg28
Nsg44
g3067
stRp3339
ag3
(g4
g5
(dp3340
g14
S''
sg40
g3070
sg18
S''
sg42
g3071
sg19
S''
sg15
g3070
sg28
Nsg44
g3072
stRp3341
ag3
(g4
g5
(dp3342
g14
S''
sg40
g3075
sg18
S''
sg42
g3076
sg19
S''
sg15
g3075
sg28
Nsg44
g3077
stRp3343
ag3
(g4
g5
(dp3344
g14
S''
sg40
g3080
sg18
S''
sg42
g3081
sg19
S''
sg15
g3080
sg28
Nsg44
g3082
stRp3345
ag3
(g4
g5
(dp3346
g14
S''
sg40
g3085
sg18
S''
sg42
g3086
sg19
S''
sg15
g3085
sg28
Nsg44
g3087
stRp3347
ag3
(g4
g5
(dp3348
g14
S''
sg40
g3090
sg18
S''
sg42
g3091
sg19
S''
sg15
g3090
sg28
Nsg44
g3092
stRp3349
ag3
(g4
g5
(dp3350
g14
S''
sg40
g3095
sg18
S''
sg42
g3096
sg19
S''
sg15
g3095
sg28
Nsg44
g3097
stRp3351
ag3
(g4
g5
(dp3352
g14
S''
sg40
g3100
sg18
S''
sg42
g3101
sg19
S''
sg15
g3100
sg28
Nsg44
g3102
stRp3353
ag3
(g4
g5
(dp3354
g14
S''
sg40
g3105
sg18
S''
sg42
g3106
sg19
S''
sg15
g3105
sg28
Nsg44
g3107
stRp3355
ag3
(g4
g5
(dp3356
g14
S''
sg40
g3110
sg18
S''
sg42
g3111
sg19
S''
sg15
g3110
sg28
Nsg44
g3112
stRp3357
ag3
(g4
g5
(dp3358
g14
S''
sg40
g3115
sg18
S''
sg42
g3116
sg19
S''
sg15
g3115
sg28
Nsg44
g3117
stRp3359
ag3
(g4
g5
(dp3360
g14
S''
sg40
g3120
sg18
S''
sg42
g3121
sg19
S''
sg15
g3120
sg28
Nsg44
g3122
stRp3361
atRp3362
sg68
g3316
sg69
S'3'
sg70
g71
sg44
S'Replica server pending archive transfer table'
p3363
sg42
S'ReplicaArchiveTransfer'
p3364
sg40
S'rdb.lbr'
p3365
stRp3366
sS'bodresolve'
p3367
g3
(g4
g5
(dp3368
g7
S'type, client, toKey, attr, fromKey, fromChange'
p3369
sg9
g3
(g10
g11
(lp3370
g3
(g4
g5
(dp3371
g14
S''
sg15
g16
sg17
g16
sg18
S''
sg19
S''
sg20
g21
sg22
g23
stRp3372
ag3
(g4
g5
(dp3373
g14
S''
sg17
g26
sg18
S''
sg20
g27
sg19
S''
sg15
g26
sg28
Nsg22
g29
stRp3374
ag3
(g4
g5
(dp3375
g14
S''
sg17
g32
sg18
S''
sg20
g21
sg19
S''
sg15
g32
sg28
Nsg22
g33
stRp3376
ag3
(g4
g5
(dp3377
g14
S''
sg17
g36
sg18
S''
sg20
g27
sg19
S''
sg15
g36
sg28
Nsg22
g37
stRp3378
ag3
(g4
g5
(dp3379
g14
S''
sg40
S'type'
p3380
sg18
S''
sg42
S'SpecType'
p3381
sg19
S''
sg15
g3380
sg28
Nsg44
S'The spec type'
p3382
stRp3383
ag3
(g4
g5
(dp3384
g14
S''
sg40
S'client'
p3385
sg18
S''
sg42
S'Domain'
p3386
sg19
S''
sg15
g3385
sg28
Nsg44
S'The client name'
p3387
stRp3388
ag3
(g4
g5
(dp3389
g14
S''
sg40
S'toKey'
p3390
sg18
S''
sg42
S'Key'
p3391
sg19
S''
sg15
g3390
sg28
Nsg44
S'To Key'
p3392
stRp3393
ag3
(g4
g5
(dp3394
g14
S''
sg40
S'attr'
p3395
sg18
S''
sg42
S'Int'
p3396
sg19
S''
sg15
g3395
sg28
Nsg44
S'The attribute value'
p3397
stRp3398
ag3
(g4
g5
(dp3399
g14
S''
sg40
S'fromKey'
p3400
sg18
S''
sg42
S'Key'
p3401
sg19
S''
sg15
g3400
sg28
Nsg44
S'From key'
p3402
stRp3403
ag3
(g4
g5
(dp3404
g14
S''
sg40
S'fromChange'
p3405
sg18
S''
sg42
S'Change'
p3406
sg19
S''
sg15
g3405
sg28
Nsg44
S'From change'
p3407
stRp3408
ag3
(g4
g5
(dp3409
g14
S''
sg40
S'baseKey'
p3410
sg18
S''
sg42
S'Key'
p3411
sg19
S''
sg15
g3410
sg28
Nsg44
S'Base Key'
p3412
stRp3413
ag3
(g4
g5
(dp3414
g14
S''
sg40
S'baseChange'
p3415
sg18
S''
sg42
S'Change'
p3416
sg19
S''
sg15
g3415
sg28
Nsg44
S'Base change'
p3417
stRp3418
ag3
(g4
g5
(dp3419
g14
S''
sg40
S'how'
p3420
sg18
S''
sg42
S'IntegHow'
p3421
sg19
S''
sg15
g3420
sg28
Nsg44
S'Integration method: variations on\n                    merge/branch/copy/ignore/delete.'
p3422
stRp3423
ag3
(g4
g5
(dp3424
g14
S''
sg40
S'state'
p3425
sg18
S''
sg42
S'ResolveState'
p3426
sg19
S''
sg15
g3425
sg28
Nsg44
S'How the user performed the resolve'
p3427
stRp3428
atRp3429
sg68
g3367
sg69
S'1'
sg70
g71
sg44
S'Resolve data for stream specifications'
p3430
sg42
S'BodyResolve'
p3431
sg74
S'90'
p3432
sg40
S'db.bodresolve'
p3433
stRp3434
sS'review'
p3435
g3
(g4
g5
(dp3436
g7
S'user, seq'
p3437
sg9
g3
(g10
g11
(lp3438
g3
(g4
g5
(dp3439
g14
S''
sg15
g16
sg17
g16
sg18
S''
sg19
S''
sg20
g21
sg22
g23
stRp3440
ag3
(g4
g5
(dp3441
g14
S''
sg17
g26
sg18
S''
sg20
g27
sg19
S''
sg15
g26
sg28
Nsg22
g29
stRp3442
ag3
(g4
g5
(dp3443
g14
S''
sg17
g32
sg18
S''
sg20
g21
sg19
S''
sg15
g32
sg28
Nsg22
g33
stRp3444
ag3
(g4
g5
(dp3445
g14
S''
sg17
g36
sg18
S''
sg20
g27
sg19
S''
sg15
g36
sg28
Nsg22
g37
stRp3446
ag3
(g4
g5
(dp3447
g14
S''
sg40
S'user'
p3448
sg18
S''
sg42
S'User'
p3449
sg19
S''
sg15
g3448
sg28
Nsg44
S'A user name'
p3450
stRp3451
ag3
(g4
g5
(dp3452
g14
S''
sg40
S'seq'
p3453
sg18
S''
sg42
S'Int'
p3454
sg19
S''
sg15
g3453
sg28
Nsg44
S'Sequence number: used for ordering multi-line views'
p3455
stRp3456
ag3
(g4
g5
(dp3457
g14
S''
sg40
S'mapFlag'
p3458
sg18
S''
sg42
S'MapFlag'
p3459
sg19
S''
sg15
g3458
sg28
Nsg44
S'Type of mapping'
p3460
stRp3461
ag3
(g4
g5
(dp3462
g14
S''
sg40
S'depotFile'
p3463
sg18
S''
sg42
S'Mapping'
p3464
sg19
S''
sg15
g3463
sg28
Nsg44
S'The files to be reviewed'
p3465
stRp3466
ag3
(g4
g5
(dp3467
g14
S''
sg40
S'type'
p3468
sg18
S''
sg42
S'Reviewer'
p3469
sg19
S''
sg15
g3468
sg28
Nsg44
S'Type of reviewer'
p3470
stRp3471
atRp3472
sg68
g3435
sg69
S'1'
sg70
g71
sg44
S"User's review mappings"
p3473
sg42
S'Review'
p3474
sg74
S'31'
p3475
sg40
S'db.review'
p3476
stRp3477
sS'storage'
p3478
g3
(g4
g5
(dp3479
g7
S'file, rev, type'
p3480
sg9
g3
(g10
g11
(lp3481
g3
(g4
g5
(dp3482
g14
S''
sg15
g16
sg17
g16
sg18
S''
sg19
S''
sg20
g21
sg22
g23
stRp3483
ag3
(g4
g5
(dp3484
g14
S''
sg17
g26
sg18
S''
sg20
g27
sg19
S''
sg15
g26
sg28
Nsg22
g29
stRp3485
ag3
(g4
g5
(dp3486
g14
S''
sg17
g32
sg18
S''
sg20
g21
sg19
S''
sg15
g32
sg28
Nsg22
g33
stRp3487
ag3
(g4
g5
(dp3488
g14
S''
sg17
g36
sg18
S''
sg20
g27
sg19
S''
sg15
g36
sg28
Nsg22
g37
stRp3489
ag3
(g4
g5
(dp3490
g14
S''
sg40
S'file'
p3491
sg18
S''
sg42
S'File'
p3492
sg19
S''
sg15
g3491
sg28
Nsg44
S'Librarian file'
p3493
stRp3494
ag3
(g4
g5
(dp3495
g14
S''
sg40
S'rev'
p3496
sg18
S''
sg42
S'String'
p3497
sg19
S''
sg15
g3496
sg28
Nsg44
S'Librarian revision'
p3498
stRp3499
ag3
(g4
g5
(dp3500
g14
S''
sg40
S'type'
p3501
sg18
S''
sg42
S'FileType'
p3502
sg19
S''
sg15
g3501
sg28
Nsg44
S'The file type of the librarian revision'
p3503
stRp3504
ag3
(g4
g5
(dp3505
g14
S''
sg40
S'refCount'
p3506
sg18
S''
sg42
S'Int'
p3507
sg19
S''
sg15
g3506
sg28
Nsg44
S'Reference count'
p3508
stRp3509
ag3
(g4
g5
(dp3510
g14
S''
sg40
S'digest'
p3511
sg18
S''
sg42
S'Digest'
p3512
sg19
S''
sg15
g3511
sg28
Nsg44
S'MD5 of librarian file (ktext collapsed)'
p3513
stRp3514
ag3
(g4
g5
(dp3515
g14
S''
sg40
S'size'
p3516
sg18
S''
sg42
S'FileSize'
p3517
sg19
S''
sg15
g3516
sg28
Nsg44
S'Size of file'
p3518
stRp3519
ag3
(g4
g5
(dp3520
g14
S''
sg40
S'serverSize'
p3521
sg18
S''
sg42
S'FileSize'
p3522
sg19
S''
sg15
g3521
sg28
Nsg44
S'Size of librarian file on server at time of submit / shelve operation'
p3523
stRp3524
ag3
(g4
g5
(dp3525
g14
S''
sg40
S'compCksum'
p3526
sg18
S''
sg42
S'Digest'
p3527
sg19
S''
sg15
g3526
sg28
Nsg44
S'Digest of compressed librarian file'
p3528
stRp3529
ag3
(g4
g5
(dp3530
g14
S''
sg40
S'date'
p3531
sg18
S''
sg42
S'Date'
p3532
sg19
S''
sg15
g3531
sg28
Nsg44
S'Date of last update to the storage record'
p3533
stRp3534
atRp3535
sg68
g3478
sg207
S'Supersedes db.archmap in 2019.1'
p3536
sg69
S'1'
sg70
g71
sg44
S'Track references to archive files'
p3537
sg42
S'Storage'
p3538
sg74
S'47'
p3539
sg40
S'db.storage'
p3540
stRp3541
sS'storageg'
p3542
g3
(g4
g5
(dp3543
g7
S'repo, sha, type'
p3544
sg9
g3
(g10
g11
(lp3545
g3
(g4
g5
(dp3546
g14
S''
sg15
g16
sg17
g16
sg18
S''
sg19
S''
sg20
g21
sg22
g23
stRp3547
ag3
(g4
g5
(dp3548
g14
S''
sg17
g26
sg18
S''
sg20
g27
sg19
S''
sg15
g26
sg28
Nsg22
g29
stRp3549
ag3
(g4
g5
(dp3550
g14
S''
sg17
g32
sg18
S''
sg20
g21
sg19
S''
sg15
g32
sg28
Nsg22
g33
stRp3551
ag3
(g4
g5
(dp3552
g14
S''
sg17
g36
sg18
S''
sg20
g27
sg19
S''
sg15
g36
sg28
Nsg22
g37
stRp3553
ag3
(g4
g5
(dp3554
g14
S''
sg40
S'repo'
p3555
sg18
S''
sg42
S'Key'
p3556
sg19
S''
sg15
g3555
sg28
Nsg44
S'Repository name'
p3557
stRp3558
ag3
(g4
g5
(dp3559
g14
S''
sg40
S'sha'
p3560
sg18
S''
sg42
S'Key'
p3561
sg19
S''
sg15
g3560
sg28
Nsg44
S'Digest of the file in type appropriate format'
p3562
stRp3563
ag3
(g4
g5
(dp3564
g14
S''
sg40
S'type'
p3565
sg18
S''
sg42
S'ObjectType'
p3566
sg19
S''
sg15
g3565
sg28
Nsg44
S'Type of graph object'
p3567
stRp3568
ag3
(g4
g5
(dp3569
g14
S''
sg40
S'refCount'
p3570
sg18
S''
sg42
S'Int'
p3571
sg19
S''
sg15
g3570
sg28
Nsg44
S'Reference count'
p3572
stRp3573
ag3
(g4
g5
(dp3574
g14
S''
sg40
S'date'
p3575
sg18
S''
sg42
S'Date'
p3576
sg19
S''
sg15
g3575
sg28
Nsg44
S'Date of last update to the storage record'
p3577
stRp3578
atRp3579
sg68
g3542
sg69
S'0'
sg70
g71
sg44
S'Track references to Graph Depot archive files (for future use)'
p3580
sg42
S'StorageG'
p3581
sg74
S'48'
p3582
sg40
S'db.storageg'
p3583
stRp3584
sS'label'
p3585
g3
(g4
g5
(dp3586
g7
S'name, depotFile'
p3587
sg9
g3
(g10
g11
(lp3588
g3
(g4
g5
(dp3589
g14
S''
sg15
g16
sg17
g16
sg18
S''
sg19
S''
sg20
g21
sg22
g23
stRp3590
ag3
(g4
g5
(dp3591
g14
S''
sg17
g26
sg18
S''
sg20
g27
sg19
S''
sg15
g26
sg28
Nsg22
g29
stRp3592
ag3
(g4
g5
(dp3593
g14
S''
sg17
g32
sg18
S''
sg20
g21
sg19
S''
sg15
g32
sg28
Nsg22
g33
stRp3594
ag3
(g4
g5
(dp3595
g14
S''
sg17
g36
sg18
S''
sg20
g27
sg19
S''
sg15
g36
sg28
Nsg22
g37
stRp3596
ag3
(g4
g5
(dp3597
g14
S''
sg40
S'name'
p3598
sg18
S''
sg42
S'Domain'
p3599
sg19
S''
sg15
g3598
sg28
Nsg44
S'Name of the label'
p3600
stRp3601
ag3
(g4
g5
(dp3602
g14
S''
sg40
S'depotFile'
p3603
sg18
S''
sg42
S'File'
p3604
sg19
S''
sg15
g3603
sg28
Nsg44
S'File name'
p3605
stRp3606
ag3
(g4
g5
(dp3607
g14
S''
sg40
S'haveRev'
p3608
sg18
S''
sg42
S'Rev'
p3609
sg19
S''
sg15
g3608
sg28
Nsg44
S'The revision of the file in the label'
p3610
stRp3611
atRp3612
sg68
g3585
sg69
S'0'
sg70
g71
sg44
S'Revisions of files in labels'
p3613
sg42
S'Label'
p3614
sg74
S'32'
p3615
sg40
S'db.label'
p3616
stRp3617
sS'revbx'
p3618
g3
(g4
g5
(dp3619
g7
S'depotFile, depotRev'
p3620
sg9
g3
(g10
g11
(lp3621
g3
(g4
g5
(dp3622
g14
S''
sg15
g16
sg17
g16
sg18
S''
sg19
S''
sg20
g21
sg22
g23
stRp3623
ag3
(g4
g5
(dp3624
g14
S''
sg17
g26
sg18
S''
sg20
g27
sg19
S''
sg15
g26
sg28
Nsg22
g29
stRp3625
ag3
(g4
g5
(dp3626
g14
S''
sg17
g32
sg18
S''
sg20
g21
sg19
S''
sg15
g32
sg28
Nsg22
g33
stRp3627
ag3
(g4
g5
(dp3628
g14
S''
sg17
g36
sg18
S''
sg20
g27
sg19
S''
sg15
g36
sg28
Nsg22
g37
stRp3629
ag3
(g4
g5
(dp3630
g14
S''
sg40
g91
sg18
S''
sg42
g92
sg19
S''
sg15
g91
sg28
Nsg44
g93
stRp3631
ag3
(g4
g5
(dp3632
g14
S''
sg40
g96
sg18
S''
sg42
g97
sg19
S''
sg15
g96
sg28
Nsg44
g98
stRp3633
ag3
(g4
g5
(dp3634
g14
S''
sg40
g101
sg18
S''
sg42
g102
sg19
S''
sg15
g101
sg28
Nsg44
g103
stRp3635
ag3
(g4
g5
(dp3636
g14
S''
sg40
g106
sg18
S''
sg42
g107
sg19
S''
sg15
g106
sg28
Nsg44
g108
stRp3637
ag3
(g4
g5
(dp3638
g14
S''
sg40
g111
sg18
S''
sg42
g112
sg19
S''
sg15
g111
sg28
Nsg44
g113
stRp3639
ag3
(g4
g5
(dp3640
g14
S''
sg40
g116
sg18
S''
sg42
g117
sg19
S''
sg15
g116
sg28
Nsg44
g118
stRp3641
ag3
(g4
g5
(dp3642
g14
S''
sg40
g121
sg18
S''
sg42
g122
sg19
S''
sg15
g121
sg28
Nsg44
g123
stRp3643
ag3
(g4
g5
(dp3644
g14
S''
sg40
g126
sg18
S''
sg42
g127
sg19
S''
sg15
g126
sg28
Nsg44
g128
stRp3645
ag3
(g4
g5
(dp3646
g14
S''
sg40
g131
sg18
S''
sg42
g132
sg19
S''
sg15
g131
sg28
Nsg44
g133
stRp3647
ag3
(g4
g5
(dp3648
g14
S''
sg40
g136
sg18
S''
sg42
g137
sg19
S''
sg15
g136
sg28
Nsg44
g138
stRp3649
ag3
(g4
g5
(dp3650
g14
S''
sg40
g141
sg18
S''
sg42
g142
sg19
S''
sg15
g141
sg28
Nsg44
g143
stRp3651
ag3
(g4
g5
(dp3652
g14
S''
sg40
g146
sg18
S''
sg42
g147
sg19
S''
sg15
g146
sg28
Nsg44
g148
stRp3653
ag3
(g4
g5
(dp3654
g14
S''
sg40
g151
sg18
S''
sg42
g152
sg19
S''
sg15
g151
sg28
Nsg44
g153
stRp3655
ag3
(g4
g5
(dp3656
g14
S''
sg40
g156
sg18
S''
sg42
g157
sg19
S''
sg15
g156
sg28
Nsg44
g158
stRp3657
atRp3658
sg68
g3618
sg69
S'9'
sg70
g71
sg44
S'Revision records for archived files'
p3659
sg42
S'Rev'
p3660
sg74
S'55'
p3661
sg40
S'db.revbx'
p3662
stRp3663
sS'nameval'
p3664
g3
(g4
g5
(dp3665
g7
S'name'
p3666
sg9
g3
(g10
g11
(lp3667
g3
(g4
g5
(dp3668
g14
S''
sg15
g16
sg17
g16
sg18
S''
sg19
S''
sg20
g21
sg22
g23
stRp3669
ag3
(g4
g5
(dp3670
g14
S''
sg17
g26
sg18
S''
sg20
g27
sg19
S''
sg15
g26
sg28
Nsg22
g29
stRp3671
ag3
(g4
g5
(dp3672
g14
S''
sg17
g32
sg18
S''
sg20
g21
sg19
S''
sg15
g32
sg28
Nsg22
g33
stRp3673
ag3
(g4
g5
(dp3674
g14
S''
sg17
g36
sg18
S''
sg20
g27
sg19
S''
sg15
g36
sg28
Nsg22
g37
stRp3675
ag3
(g4
g5
(dp3676
g14
S''
sg40
S'name'
p3677
sg18
S''
sg42
S'Key'
p3678
sg19
S''
sg15
g3677
sg28
Nsg44
S'Key name'
p3679
stRp3680
ag3
(g4
g5
(dp3681
g14
S''
sg40
S'value'
p3682
sg18
S''
sg42
S'Value'
p3683
sg19
S''
sg15
g3682
sg28
Nsg44
S'Key value'
p3684
stRp3685
atRp3686
sg68
g3664
sg69
S'1'
sg70
g71
sg44
S'A table to store key/value pairs'
p3687
sg42
S'Keys'
p3688
sg74
S'4'
sg40
S'db.nameval'
p3689
stRp3690
sS'template'
p3691
g3
(g4
g5
(dp3692
g7
S'name, change, seq'
p3693
sg9
g3
(g10
g11
(lp3694
g3
(g4
g5
(dp3695
g14
S''
sg15
g16
sg17
g16
sg18
S''
sg19
S''
sg20
g21
sg22
g23
stRp3696
ag3
(g4
g5
(dp3697
g14
S''
sg17
g26
sg18
S''
sg20
g27
sg19
S''
sg15
g26
sg28
Nsg22
g29
stRp3698
ag3
(g4
g5
(dp3699
g14
S''
sg17
g32
sg18
S''
sg20
g21
sg19
S''
sg15
g32
sg28
Nsg22
g33
stRp3700
ag3
(g4
g5
(dp3701
g14
S''
sg17
g36
sg18
S''
sg20
g27
sg19
S''
sg15
g36
sg28
Nsg22
g37
stRp3702
ag3
(g4
g5
(dp3703
g14
S''
sg40
S'name'
p3704
sg18
S''
sg42
S'Domain'
p3705
sg19
S''
sg15
g3704
sg28
Nsg44
S'Stream name'
p3706
stRp3707
ag3
(g4
g5
(dp3708
g14
S''
sg40
S'change'
p3709
sg18
S''
sg42
S'Change'
p3710
sg19
S''
sg15
g3709
sg28
Nsg44
S'Versioned at change'
p3711
stRp3712
ag3
(g4
g5
(dp3713
g14
S''
sg40
S'seq'
p3714
sg18
S''
sg42
S'Int'
p3715
sg19
S''
sg15
g3714
sg28
Nsg44
S'Sequence (line) number'
p3716
stRp3717
ag3
(g4
g5
(dp3718
g14
S''
sg40
S'parent'
p3719
sg18
S''
sg42
S'Domain'
p3720
sg19
S''
sg15
g3719
sg28
Nsg44
S'Parent stream name'
p3721
stRp3722
ag3
(g4
g5
(dp3723
g14
S''
sg40
S'type'
p3724
sg18
S''
sg42
S'StreamType'
p3725
sg19
S''
sg15
g3724
sg28
Nsg44
S'Type of stream'
p3726
stRp3727
ag3
(g4
g5
(dp3728
g14
S''
sg40
S'path'
p3729
sg18
S''
sg42
S'StreamPathType'
p3730
sg19
S''
sg15
g3729
sg28
Nsg44
S'Stream path type'
p3731
stRp3732
ag3
(g4
g5
(dp3733
g14
S''
sg40
S'viewFile'
p3734
sg18
S''
sg42
S'Mapping'
p3735
sg19
S''
sg15
g3734
sg28
Nsg44
S'View file (left hand side of path)'
p3736
stRp3737
ag3
(g4
g5
(dp3738
g14
S''
sg40
S'depotFile'
p3739
sg18
S''
sg42
S'Mapping'
p3740
sg19
S''
sg15
g3739
sg28
Nsg44
S'Depot file (right hand side of path)'
p3741
stRp3742
ag3
(g4
g5
(dp3743
g14
S''
sg40
S'changeMap'
p3744
sg18
S''
sg42
S'Value'
p3745
sg19
S''
sg15
g3744
sg28
Nsg44
S"Stream 'import' path changelist specifier. The changelist\n                    limits in effect for a given client are displayed in a\n                    read-only client spec field called 'ChangeView'"
p3746
stRp3747
atRp3748
sg68
g3691
sg69
S'2'
sg70
g71
sg44
S'Streams templates'
p3749
sg42
S'Template'
p3750
sg74
S'24'
p3751
sg40
S'db.template'
p3752
stRp3753
sS'haverp'
p3754
g3
(g4
g5
(dp3755
g7
S'clientFile'
p3756
sg9
g3
(g10
g11
(lp3757
g3
(g4
g5
(dp3758
g14
S''
sg15
g16
sg17
g16
sg18
S''
sg19
S''
sg20
g21
sg22
g23
stRp3759
ag3
(g4
g5
(dp3760
g14
S''
sg17
g26
sg18
S''
sg20
g27
sg19
S''
sg15
g26
sg28
Nsg22
g29
stRp3761
ag3
(g4
g5
(dp3762
g14
S''
sg17
g32
sg18
S''
sg20
g21
sg19
S''
sg15
g32
sg28
Nsg22
g33
stRp3763
ag3
(g4
g5
(dp3764
g14
S''
sg17
g36
sg18
S''
sg20
g27
sg19
S''
sg15
g36
sg28
Nsg22
g37
stRp3765
ag3
(g4
g5
(dp3766
g14
S''
sg40
g563
sg18
S''
sg42
g564
sg19
S''
sg15
g563
sg28
Nsg44
g565
stRp3767
ag3
(g4
g5
(dp3768
g14
S''
sg40
g568
sg18
S''
sg42
g569
sg19
S''
sg15
g568
sg28
Nsg44
g570
stRp3769
ag3
(g4
g5
(dp3770
g14
S''
sg40
g573
sg18
S''
sg42
g574
sg19
S''
sg15
g573
sg28
Nsg44
g575
stRp3771
ag3
(g4
g5
(dp3772
g14
S''
sg40
g578
sg18
S''
sg42
g579
sg19
S''
sg15
g578
sg28
Nsg44
g580
stRp3773
ag3
(g4
g5
(dp3774
g14
S''
sg40
g583
sg18
S''
sg42
g584
sg19
S''
sg15
g583
sg28
Nsg44
g585
stRp3775
atRp3776
sg68
g3754
sg69
S'3'
sg70
g71
sg44
S"Contains the 'have-list' for clients of build-server replicas"
p3777
sg42
S'Have'
p3778
sg74
S'33'
p3779
sg40
S'db.have.rp'
p3780
stRp3781
sS'depot'
p3782
g3
(g4
g5
(dp3783
g7
S'name'
p3784
sg9
g3
(g10
g11
(lp3785
g3
(g4
g5
(dp3786
g14
S''
sg15
g16
sg17
g16
sg18
S''
sg19
S''
sg20
g21
sg22
g23
stRp3787
ag3
(g4
g5
(dp3788
g14
S''
sg17
g26
sg18
S''
sg20
g27
sg19
S''
sg15
g26
sg28
Nsg22
g29
stRp3789
ag3
(g4
g5
(dp3790
g14
S''
sg17
g32
sg18
S''
sg20
g21
sg19
S''
sg15
g32
sg28
Nsg22
g33
stRp3791
ag3
(g4
g5
(dp3792
g14
S''
sg17
g36
sg18
S''
sg20
g27
sg19
S''
sg15
g36
sg28
Nsg22
g37
stRp3793
ag3
(g4
g5
(dp3794
g14
S''
sg40
S'name'
p3795
sg18
S''
sg42
S'Domain'
p3796
sg19
S''
sg15
g3795
sg28
Nsg44
S'Depot name'
p3797
stRp3798
ag3
(g4
g5
(dp3799
g14
S''
sg40
S'type'
p3800
sg18
S''
sg42
S'DepotType'
p3801
sg19
S''
sg15
g3800
sg28
Nsg44
S'Type of depot'
p3802
stRp3803
ag3
(g4
g5
(dp3804
g14
S''
sg40
S'extra'
p3805
sg18
S''
sg42
S'Text'
p3806
sg19
S''
sg15
g3805
sg28
Nsg44
S'For remote depots, the P4PORT address of the remote server.\n                    For spec depots, a suffix to append to the filename.\n                    For stream depots, stream depth'
p3807
stRp3808
ag3
(g4
g5
(dp3809
g14
S''
sg40
S'map'
p3810
sg18
S''
sg42
S'Text'
p3811
sg19
S''
sg15
g3810
sg28
Nsg44
S"The depot's map (path translation information). For local\n                    depots, this will be a path relative to the root directory.\n                    For remote depots, this will be specified in terms of the\n                    remote server's namespace."
p3812
stRp3813
atRp3814
sg68
g3782
sg69
S'1'
sg70
g71
sg44
S'Depot specifications'
p3815
sg42
S'Depot'
p3816
sg74
S'20'
p3817
sg40
S'db.depot'
p3818
stRp3819
sS'config'
p3820
g3
(g4
g5
(dp3821
g7
S'serverName, name'
p3822
sg9
g3
(g10
g11
(lp3823
g3
(g4
g5
(dp3824
g14
S''
sg15
g16
sg17
g16
sg18
S''
sg19
S''
sg20
g21
sg22
g23
stRp3825
ag3
(g4
g5
(dp3826
g14
S''
sg17
g26
sg18
S''
sg20
g27
sg19
S''
sg15
g26
sg28
Nsg22
g29
stRp3827
ag3
(g4
g5
(dp3828
g14
S''
sg17
g32
sg18
S''
sg20
g21
sg19
S''
sg15
g32
sg28
Nsg22
g33
stRp3829
ag3
(g4
g5
(dp3830
g14
S''
sg17
g36
sg18
S''
sg20
g27
sg19
S''
sg15
g36
sg28
Nsg22
g37
stRp3831
ag3
(g4
g5
(dp3832
g14
S''
sg40
S'serverName'
p3833
sg18
S''
sg42
S'Key'
p3834
sg19
S''
sg15
g3833
sg28
Nsg44
S'Server name'
p3835
stRp3836
ag3
(g4
g5
(dp3837
g14
S''
sg40
S'name'
p3838
sg18
S''
sg42
S'Key'
p3839
sg19
S''
sg15
g3838
sg28
Nsg44
S'Configuration variable name'
p3840
stRp3841
ag3
(g4
g5
(dp3842
g14
S''
sg40
S'value'
p3843
sg18
S''
sg42
S'Value'
p3844
sg19
S''
sg15
g3843
sg28
Nsg44
S'Configuration variable value'
p3845
stRp3846
atRp3847
sg68
g3820
sg69
S'1'
sg70
g71
sg44
S'Server configurations table'
p3848
sg42
S'Config'
p3849
sg74
S'1'
sg40
S'db.config'
p3850
stRp3851
sS'counters'
p3852
g3
(g4
g5
(dp3853
g7
S'name'
p3854
sg9
g3
(g10
g11
(lp3855
g3
(g4
g5
(dp3856
g14
S''
sg15
g16
sg17
g16
sg18
S''
sg19
S''
sg20
g21
sg22
g23
stRp3857
ag3
(g4
g5
(dp3858
g14
S''
sg17
g26
sg18
S''
sg20
g27
sg19
S''
sg15
g26
sg28
Nsg22
g29
stRp3859
ag3
(g4
g5
(dp3860
g14
S''
sg17
g32
sg18
S''
sg20
g21
sg19
S''
sg15
g32
sg28
Nsg22
g33
stRp3861
ag3
(g4
g5
(dp3862
g14
S''
sg17
g36
sg18
S''
sg20
g27
sg19
S''
sg15
g36
sg28
Nsg22
g37
stRp3863
ag3
(g4
g5
(dp3864
g14
S''
sg40
S'name'
p3865
sg18
S''
sg42
S'Counter'
p3866
sg19
S''
sg15
g3865
sg28
Nsg44
S'Counter name'
p3867
stRp3868
ag3
(g4
g5
(dp3869
g14
S''
sg40
S'value'
p3870
sg18
S''
sg42
S'Value'
p3871
sg19
S''
sg15
g3870
sg28
Nsg44
S'Counter value'
p3872
stRp3873
atRp3874
sg68
g3852
sg69
S'1'
sg70
g71
sg44
S'Counters table'
p3875
sg42
S'Counters'
p3876
sg74
S'3'
sg40
S'db.counters'
p3877
stRp3878
sS'configh'
p3879
g3
(g4
g5
(dp3880
g7
S'sName, name, version, date, server'
p3881
sg9
g3
(g10
g11
(lp3882
g3
(g4
g5
(dp3883
g14
S''
sg15
g16
sg17
g16
sg18
S''
sg19
S''
sg20
g21
sg22
g23
stRp3884
ag3
(g4
g5
(dp3885
g14
S''
sg17
g26
sg18
S''
sg20
g27
sg19
S''
sg15
g26
sg28
Nsg22
g29
stRp3886
ag3
(g4
g5
(dp3887
g14
S''
sg17
g32
sg18
S''
sg20
g21
sg19
S''
sg15
g32
sg28
Nsg22
g33
stRp3888
ag3
(g4
g5
(dp3889
g14
S''
sg17
g36
sg18
S''
sg20
g27
sg19
S''
sg15
g36
sg28
Nsg22
g37
stRp3890
ag3
(g4
g5
(dp3891
g14
S''
sg40
S'sName'
p3892
sg18
S''
sg42
S'Key'
p3893
sg19
S''
sg15
g3892
sg28
Nsg44
S'Server name where configurable applies'
p3894
stRp3895
ag3
(g4
g5
(dp3896
g14
S''
sg40
S'name'
p3897
sg18
S''
sg42
S'Key'
p3898
sg19
S''
sg15
g3897
sg28
Nsg44
S'variable name'
p3899
stRp3900
ag3
(g4
g5
(dp3901
g14
S''
sg40
S'version'
p3902
sg18
S''
sg42
S'Int'
p3903
sg19
S''
sg15
g3902
sg28
Nsg44
S'configuration version'
p3904
stRp3905
ag3
(g4
g5
(dp3906
g14
S''
sg40
S'date'
p3907
sg18
S''
sg42
S'Date'
p3908
sg19
S''
sg15
g3907
sg28
Nsg44
S'date'
p3909
stRp3910
ag3
(g4
g5
(dp3911
g14
S''
sg40
S'server'
p3912
sg18
S''
sg42
S'Key'
p3913
sg19
S''
sg15
g3912
sg28
Nsg44
S'server ID where the configurable was set'
p3914
stRp3915
ag3
(g4
g5
(dp3916
g14
S''
sg40
S'user'
p3917
sg18
S''
sg42
S'User'
p3918
sg19
S''
sg15
g3917
sg28
Nsg44
S'user'
p3919
stRp3920
ag3
(g4
g5
(dp3921
g14
S''
sg40
S'ovalue'
p3922
sg18
S''
sg42
S'Value'
p3923
sg19
S''
sg15
g3922
sg28
Nsg44
S'old value'
p3924
stRp3925
ag3
(g4
g5
(dp3926
g14
S''
sg40
S'nvalue'
p3927
sg18
S''
sg42
S'Value'
p3928
sg19
S''
sg15
g3927
sg28
Nsg44
S'new value'
p3929
stRp3930
atRp3931
sg68
g3879
sg69
S'0'
sg70
g71
sg44
S'Server configuration history'
p3932
sg42
S'ConfigHist'
p3933
sg74
S'2'
sg40
S'db.configh'
p3934
stRp3935
sS'sendqpt'
p3936
g3
(g4
g5
(dp3937
g7
S'taskid, seq'
p3938
sg9
g3
(g10
g11
(lp3939
g3
(g4
g5
(dp3940
g14
S''
sg15
g16
sg17
g16
sg18
S''
sg19
S''
sg20
g21
sg22
g23
stRp3941
ag3
(g4
g5
(dp3942
g14
S''
sg17
g26
sg18
S''
sg20
g27
sg19
S''
sg15
g26
sg28
Nsg22
g29
stRp3943
ag3
(g4
g5
(dp3944
g14
S''
sg17
g32
sg18
S''
sg20
g21
sg19
S''
sg15
g32
sg28
Nsg22
g33
stRp3945
ag3
(g4
g5
(dp3946
g14
S''
sg17
g36
sg18
S''
sg20
g27
sg19
S''
sg15
g36
sg28
Nsg22
g37
stRp3947
ag3
(g4
g5
(dp3948
g14
S''
sg40
g2823
sg18
S''
sg42
g2824
sg19
S''
sg15
g2823
sg28
Nsg44
g2825
stRp3949
ag3
(g4
g5
(dp3950
g14
S''
sg40
g2828
sg18
S''
sg42
g2829
sg19
S''
sg15
g2828
sg28
Nsg44
g2830
stRp3951
ag3
(g4
g5
(dp3952
g14
S''
sg40
g2833
sg18
S''
sg42
g2834
sg19
S''
sg15
g2833
sg28
Nsg44
g2835
stRp3953
ag3
(g4
g5
(dp3954
g14
S''
sg40
g2838
sg18
S''
sg42
g2839
sg19
S''
sg15
g2838
sg28
Nsg44
g2840
stRp3955
ag3
(g4
g5
(dp3956
g14
S''
sg40
g2843
sg18
S''
sg42
g2844
sg19
S''
sg15
g2843
sg28
Nsg44
g2845
stRp3957
ag3
(g4
g5
(dp3958
g14
S''
sg40
g2848
sg18
S''
sg42
g2849
sg19
S''
sg15
g2848
sg28
Nsg44
g2850
stRp3959
ag3
(g4
g5
(dp3960
g14
S''
sg40
g2853
sg18
S''
sg42
g2854
sg19
S''
sg15
g2853
sg28
Nsg44
g2855
stRp3961
ag3
(g4
g5
(dp3962
g14
S''
sg40
g2858
sg18
S''
sg42
g2859
sg19
S''
sg15
g2858
sg28
Nsg44
g2860
stRp3963
ag3
(g4
g5
(dp3964
g14
S''
sg40
g2863
sg18
S''
sg42
g2864
sg19
S''
sg15
g2863
sg28
Nsg44
g2865
stRp3965
ag3
(g4
g5
(dp3966
g14
S''
sg40
g2868
sg18
S''
sg42
g2869
sg19
S''
sg15
g2868
sg28
Nsg44
g2870
stRp3967
ag3
(g4
g5
(dp3968
g14
S''
sg40
g2873
sg18
S''
sg42
g2874
sg19
S''
sg15
g2873
sg28
Nsg44
g2875
stRp3969
ag3
(g4
g5
(dp3970
g14
S''
sg40
g2878
sg18
S''
sg42
g2879
sg19
S''
sg15
g2878
sg28
Nsg44
g2880
stRp3971
ag3
(g4
g5
(dp3972
g14
S''
sg40
g2883
sg18
S''
sg42
g2884
sg19
S''
sg15
g2883
sg28
Nsg44
g2885
stRp3973
ag3
(g4
g5
(dp3974
g14
S''
sg40
g2888
sg18
S''
sg42
g2889
sg19
S''
sg15
g2888
sg28
Nsg44
g2890
stRp3975
ag3
(g4
g5
(dp3976
g14
S''
sg40
g2893
sg18
S''
sg42
g2894
sg19
S''
sg15
g2893
sg28
Nsg44
g2895
stRp3977
ag3
(g4
g5
(dp3978
g14
S''
sg40
g2898
sg18
S''
sg42
g2899
sg19
S''
sg15
g2898
sg28
Nsg44
g2900
stRp3979
ag3
(g4
g5
(dp3980
g14
S''
sg40
g2903
sg18
S''
sg42
g2904
sg19
S''
sg15
g2903
sg28
Nsg44
g2905
stRp3981
ag3
(g4
g5
(dp3982
g14
S''
sg40
g2908
sg18
S''
sg42
g2909
sg19
S''
sg15
g2908
sg28
Nsg44
g2910
stRp3983
ag3
(g4
g5
(dp3984
g14
S''
sg40
g2913
sg18
S''
sg42
g2914
sg19
S''
sg15
g2913
sg28
Nsg44
g2915
stRp3985
ag3
(g4
g5
(dp3986
g14
S''
sg40
g2918
sg18
S''
sg42
g2919
sg19
S''
sg15
g2918
sg28
Nsg44
g2920
stRp3987
ag3
(g4
g5
(dp3988
g14
S''
sg40
g2923
sg18
S''
sg42
g2924
sg19
S''
sg15
g2923
sg28
Nsg44
g2925
stRp3989
atRp3990
sg68
g3936
sg69
S'4'
sg70
g71
sg44
S'Per Client transmission work queue'
p3991
sg42
S'SendQ'
p3992
sg74
S'105'
p3993
sg40
S'db.sendq.pt'
p3994
stRp3995
sS'revsx'
p3996
g3
(g4
g5
(dp3997
g7
S'depotFile, depotRev'
p3998
sg9
g3
(g10
g11
(lp3999
g3
(g4
g5
(dp4000
g14
S''
sg15
g16
sg17
g16
sg18
S''
sg19
S''
sg20
g21
sg22
g23
stRp4001
ag3
(g4
g5
(dp4002
g14
S''
sg17
g26
sg18
S''
sg20
g27
sg19
S''
sg15
g26
sg28
Nsg22
g29
stRp4003
ag3
(g4
g5
(dp4004
g14
S''
sg17
g32
sg18
S''
sg20
g21
sg19
S''
sg15
g32
sg28
Nsg22
g33
stRp4005
ag3
(g4
g5
(dp4006
g14
S''
sg17
g36
sg18
S''
sg20
g27
sg19
S''
sg15
g36
sg28
Nsg22
g37
stRp4007
ag3
(g4
g5
(dp4008
g14
S''
sg40
g91
sg18
S''
sg42
g92
sg19
S''
sg15
g91
sg28
Nsg44
g93
stRp4009
ag3
(g4
g5
(dp4010
g14
S''
sg40
g96
sg18
S''
sg42
g97
sg19
S''
sg15
g96
sg28
Nsg44
g98
stRp4011
ag3
(g4
g5
(dp4012
g14
S''
sg40
g101
sg18
S''
sg42
g102
sg19
S''
sg15
g101
sg28
Nsg44
g103
stRp4013
ag3
(g4
g5
(dp4014
g14
S''
sg40
g106
sg18
S''
sg42
g107
sg19
S''
sg15
g106
sg28
Nsg44
g108
stRp4015
ag3
(g4
g5
(dp4016
g14
S''
sg40
g111
sg18
S''
sg42
g112
sg19
S''
sg15
g111
sg28
Nsg44
g113
stRp4017
ag3
(g4
g5
(dp4018
g14
S''
sg40
g116
sg18
S''
sg42
g117
sg19
S''
sg15
g116
sg28
Nsg44
g118
stRp4019
ag3
(g4
g5
(dp4020
g14
S''
sg40
g121
sg18
S''
sg42
g122
sg19
S''
sg15
g121
sg28
Nsg44
g123
stRp4021
ag3
(g4
g5
(dp4022
g14
S''
sg40
g126
sg18
S''
sg42
g127
sg19
S''
sg15
g126
sg28
Nsg44
g128
stRp4023
ag3
(g4
g5
(dp4024
g14
S''
sg40
g131
sg18
S''
sg42
g132
sg19
S''
sg15
g131
sg28
Nsg44
g133
stRp4025
ag3
(g4
g5
(dp4026
g14
S''
sg40
g136
sg18
S''
sg42
g137
sg19
S''
sg15
g136
sg28
Nsg44
g138
stRp4027
ag3
(g4
g5
(dp4028
g14
S''
sg40
g141
sg18
S''
sg42
g142
sg19
S''
sg15
g141
sg28
Nsg44
g143
stRp4029
ag3
(g4
g5
(dp4030
g14
S''
sg40
g146
sg18
S''
sg42
g147
sg19
S''
sg15
g146
sg28
Nsg44
g148
stRp4031
ag3
(g4
g5
(dp4032
g14
S''
sg40
g151
sg18
S''
sg42
g152
sg19
S''
sg15
g151
sg28
Nsg44
g153
stRp4033
ag3
(g4
g5
(dp4034
g14
S''
sg40
g156
sg18
S''
sg42
g157
sg19
S''
sg15
g156
sg28
Nsg44
g158
stRp4035
atRp4036
sg68
g3996
sg69
S'9'
sg70
g71
sg44
S'Revision records for spec depot files'
p4037
sg42
S'Rev'
p4038
sg74
S'53'
p4039
sg40
S'db.revsx'
p4040
stRp4041
sS'ticketrp'
p4042
g3
(g4
g5
(dp4043
g7
S'user, host'
p4044
sg9
g3
(g10
g11
(lp4045
g3
(g4
g5
(dp4046
g14
S''
sg15
g16
sg17
g16
sg18
S''
sg19
S''
sg20
g21
sg22
g23
stRp4047
ag3
(g4
g5
(dp4048
g14
S''
sg17
g26
sg18
S''
sg20
g27
sg19
S''
sg15
g26
sg28
Nsg22
g29
stRp4049
ag3
(g4
g5
(dp4050
g14
S''
sg17
g32
sg18
S''
sg20
g21
sg19
S''
sg15
g32
sg28
Nsg22
g33
stRp4051
ag3
(g4
g5
(dp4052
g14
S''
sg17
g36
sg18
S''
sg20
g27
sg19
S''
sg15
g36
sg28
Nsg22
g37
stRp4053
ag3
(g4
g5
(dp4054
g14
S''
sg40
g477
sg18
S''
sg42
g478
sg19
S''
sg15
g477
sg28
Nsg44
g479
stRp4055
ag3
(g4
g5
(dp4056
g14
S''
sg40
g482
sg18
S''
sg42
g483
sg19
S''
sg15
g482
sg28
Nsg44
g484
stRp4057
ag3
(g4
g5
(dp4058
g14
S''
sg40
g487
sg18
S''
sg42
g488
sg19
S''
sg15
g487
sg28
Nsg44
g489
stRp4059
ag3
(g4
g5
(dp4060
g14
S''
sg40
g492
sg18
S''
sg42
g493
sg19
S''
sg15
g492
sg28
Nsg44
g494
stRp4061
ag3
(g4
g5
(dp4062
g14
S''
sg40
g497
sg18
S''
sg42
g498
sg19
S''
sg15
g497
sg28
Nsg44
g499
stRp4063
ag3
(g4
g5
(dp4064
g14
S''
sg40
g502
sg18
S''
sg42
g503
sg19
S''
sg15
g502
sg28
Nsg44
g504
stRp4065
atRp4066
sg68
g4042
sg69
S'0'
sg70
g71
sg44
S'Second factor authentication state on a per user/host basis (replica)'
p4067
sg42
S'Ticket'
p4068
sg74
S'16'
p4069
sg40
S'db.ticket.rp'
p4070
stRp4071
sS'object'
p4072
g3
(g4
g5
(dp4073
g7
S'sha'
p4074
sg9
g3
(g10
g11
(lp4075
g3
(g4
g5
(dp4076
g14
S''
sg15
g16
sg17
g16
sg18
S''
sg19
S''
sg20
g21
sg22
g23
stRp4077
ag3
(g4
g5
(dp4078
g14
S''
sg17
g26
sg18
S''
sg20
g27
sg19
S''
sg15
g26
sg28
Nsg22
g29
stRp4079
ag3
(g4
g5
(dp4080
g14
S''
sg17
g32
sg18
S''
sg20
g21
sg19
S''
sg15
g32
sg28
Nsg22
g33
stRp4081
ag3
(g4
g5
(dp4082
g14
S''
sg17
g36
sg18
S''
sg20
g27
sg19
S''
sg15
g36
sg28
Nsg22
g37
stRp4083
ag3
(g4
g5
(dp4084
g14
S''
sg40
S'sha'
p4085
sg18
S''
sg42
S'SHA1'
p4086
sg19
S''
sg15
g4085
sg28
Nsg44
S'The SHA1 of the object'
p4087
stRp4088
ag3
(g4
g5
(dp4089
g14
S''
sg40
S'type'
p4090
sg18
S''
sg42
S'ObjectType'
p4091
sg19
S''
sg15
g4090
sg28
Nsg44
S'The object type'
p4092
stRp4093
ag3
(g4
g5
(dp4094
g14
S''
sg40
S'data'
p4095
sg18
S''
sg42
S'Octet String'
p4096
sg19
S''
sg15
g4095
sg28
Nsg44
S'The object content'
p4097
stRp4098
atRp4099
sg68
g4072
sg69
S'0'
sg70
g71
sg44
S'Object storage for graph depots'
p4100
sg42
S'Object'
p4101
sg74
S'79'
p4102
sg40
S'db.object'
p4103
stRp4104
sS'workingg'
p4105
g3
(g4
g5
(dp4106
g7
S'clientFile'
p4107
sg9
g3
(g10
g11
(lp4108
g3
(g4
g5
(dp4109
g14
S''
sg15
g16
sg17
g16
sg18
S''
sg19
S''
sg20
g21
sg22
g23
stRp4110
ag3
(g4
g5
(dp4111
g14
S''
sg17
g26
sg18
S''
sg20
g27
sg19
S''
sg15
g26
sg28
Nsg22
g29
stRp4112
ag3
(g4
g5
(dp4113
g14
S''
sg17
g32
sg18
S''
sg20
g21
sg19
S''
sg15
g32
sg28
Nsg22
g33
stRp4114
ag3
(g4
g5
(dp4115
g14
S''
sg17
g36
sg18
S''
sg20
g27
sg19
S''
sg15
g36
sg28
Nsg22
g37
stRp4116
ag3
(g4
g5
(dp4117
g14
S''
sg40
S'clientFile'
p4118
sg18
S''
sg42
S'File'
p4119
sg19
S''
sg15
g4118
sg28
Nsg44
S'File on the client'
p4120
stRp4121
ag3
(g4
g5
(dp4122
g14
S''
sg40
S'depotFile'
p4123
sg18
S''
sg42
S'File'
p4124
sg19
S''
sg15
g4123
sg28
Nsg44
S'File in the depot'
p4125
stRp4126
ag3
(g4
g5
(dp4127
g14
S''
sg40
S'client'
p4128
sg18
S''
sg42
S'Domain'
p4129
sg19
S''
sg15
g4128
sg28
Nsg44
S'The client on which the file is opened'
p4130
stRp4131
ag3
(g4
g5
(dp4132
g14
S''
sg40
S'user'
p4133
sg18
S''
sg42
S'User'
p4134
sg19
S''
sg15
g4133
sg28
Nsg44
S'The user who has the file opened'
p4135
stRp4136
ag3
(g4
g5
(dp4137
g14
S''
sg40
S'haveRev'
p4138
sg18
S''
sg42
S'Rev'
p4139
sg19
S''
sg15
g4138
sg28
Nsg44
S"Revision presently in user's client workspace"
p4140
stRp4141
ag3
(g4
g5
(dp4142
g14
S''
sg40
S'workRev'
p4143
sg18
S''
sg42
S'Rev'
p4144
sg19
S''
sg15
g4143
sg28
Nsg44
S'Working revision; normally identical to the haveRev'
p4145
stRp4146
ag3
(g4
g5
(dp4147
g14
S''
sg40
S'isVirtual'
p4148
sg18
S''
sg42
S'Int'
p4149
sg19
S''
sg15
g4148
sg28
Nsg44
S'Flag: if 1, file was opened with "p4 integ -v".'
p4150
stRp4151
ag3
(g4
g5
(dp4152
g14
S''
sg40
S'type'
p4153
sg18
S''
sg42
S'FileType'
p4154
sg19
S''
sg15
g4153
sg28
Nsg44
S'File type'
p4155
stRp4156
ag3
(g4
g5
(dp4157
g14
S''
sg40
S'action'
p4158
sg18
S''
sg42
S'Action'
p4159
sg19
S''
sg15
g4158
sg28
Nsg44
S"What the user's doing with the file"
p4160
stRp4161
ag3
(g4
g5
(dp4162
g14
S''
sg40
S'change'
p4163
sg18
S''
sg42
S'Change'
p4164
sg19
S''
sg15
g4163
sg28
Nsg44
S'Associated changelist, or zero for the default changelist.'
p4165
stRp4166
ag3
(g4
g5
(dp4167
g14
S''
sg40
S'modTime'
p4168
sg18
S''
sg42
S'Date'
p4169
sg19
S''
sg15
g4168
sg28
Nsg44
S"Modification timestamp on the file in the user's workspace."
p4170
stRp4171
ag3
(g4
g5
(dp4172
g14
S''
sg40
S'isLocked'
p4173
sg18
S''
sg42
S'LockedType'
p4174
sg19
S''
sg15
g4173
sg28
Nsg44
S'Bitmask of locked flags'
p4175
stRp4176
ag3
(g4
g5
(dp4177
g14
S''
sg40
S'digest'
p4178
sg18
S''
sg42
S'Digest'
p4179
sg19
S''
sg15
g4178
sg28
Nsg44
S'MD5 digest of working file.'
p4180
stRp4181
ag3
(g4
g5
(dp4182
g14
S''
sg40
S'size'
p4183
sg18
S''
sg42
S'FileSize'
p4184
sg19
S''
sg15
g4183
sg28
Nsg44
S'File size'
p4185
stRp4186
ag3
(g4
g5
(dp4187
g14
S''
sg40
S'traitLot'
p4188
sg18
S''
sg42
S'TraitLot'
p4189
sg19
S''
sg15
g4188
sg28
Nsg44
S'Group of traits associated with file revision.'
p4190
stRp4191
ag3
(g4
g5
(dp4192
g14
S''
sg40
S'tampered'
p4193
sg18
S''
sg42
S'TamperCheck'
p4194
sg19
S''
sg15
g4193
sg28
Nsg44
S'Flag indicating the tamper-state of the file in the\n                    workspace.'
p4195
stRp4196
ag3
(g4
g5
(dp4197
g14
S''
sg40
S'clientType'
p4198
sg18
S''
sg42
S'FileType'
p4199
sg19
S''
sg15
g4198
sg28
Nsg44
S'Type of the file in the client workspace.'
p4200
stRp4201
ag3
(g4
g5
(dp4202
g14
S''
sg40
S'movedFile'
p4203
sg18
S''
sg42
S'File'
p4204
sg19
S''
sg15
g4203
sg28
Nsg44
S'Moved from filename'
p4205
stRp4206
ag3
(g4
g5
(dp4207
g14
S''
sg40
S'status'
p4208
sg18
S''
sg42
S'WorkStatus'
p4209
sg19
S''
sg15
g4208
sg28
Nsg44
S'Working status'
p4210
stRp4211
ag3
(g4
g5
(dp4212
g14
S''
sg40
S'blobSha'
p4213
sg18
S''
sg42
S'SHA1'
p4214
sg19
S''
sg15
g4213
sg28
Nsg44
S'Blob SHA'
p4215
stRp4216
ag3
(g4
g5
(dp4217
g14
S''
sg40
S'repo'
p4218
sg18
S''
sg42
S'Key'
p4219
sg19
S''
sg15
g4218
sg28
Nsg44
S'Repository name'
p4220
stRp4221
atRp4222
sg68
g4105
sg69
S'0'
sg70
g71
sg44
S'Working records for clients of type graph'
p4223
sg42
S'WorkingG'
p4224
sg74
S'65'
p4225
sg40
S'db.workingg'
p4226
stRp4227
sS'job'
p4228
g3
(g4
g5
(dp4229
g7
S'job'
p4230
sg9
g3
(g10
g11
(lp4231
g3
(g4
g5
(dp4232
g14
S''
sg15
g16
sg17
g16
sg18
S''
sg19
S''
sg20
g21
sg22
g23
stRp4233
ag3
(g4
g5
(dp4234
g14
S''
sg17
g26
sg18
S''
sg20
g27
sg19
S''
sg15
g26
sg28
Nsg22
g29
stRp4235
ag3
(g4
g5
(dp4236
g14
S''
sg17
g32
sg18
S''
sg20
g21
sg19
S''
sg15
g32
sg28
Nsg22
g33
stRp4237
ag3
(g4
g5
(dp4238
g14
S''
sg17
g36
sg18
S''
sg20
g27
sg19
S''
sg15
g36
sg28
Nsg22
g37
stRp4239
ag3
(g4
g5
(dp4240
g14
S''
sg40
S'job'
p4241
sg18
S''
sg42
S'Key'
p4242
sg19
S''
sg15
g4241
sg28
Nsg44
S'The job name'
p4243
stRp4244
ag3
(g4
g5
(dp4245
g14
S''
sg40
S'xuser'
p4246
sg18
S''
sg42
S'User'
p4247
sg19
S''
sg15
g4246
sg28
Nsg44
S'User name: defunct'
p4248
stRp4249
ag3
(g4
g5
(dp4250
g14
S''
sg40
S'xdate'
p4251
sg18
S''
sg42
S'Date'
p4252
sg19
S''
sg15
g4251
sg28
Nsg44
S'The date: defunct'
p4253
stRp4254
ag3
(g4
g5
(dp4255
g14
S''
sg40
S'xstatus'
p4256
sg18
S''
sg42
S'JobStat'
p4257
sg19
S''
sg15
g4256
sg28
Nsg44
S'Job status: defunct'
p4258
stRp4259
ag3
(g4
g5
(dp4260
g14
S''
sg40
S'description'
p4261
sg18
S''
sg42
S'DescShort'
p4262
sg19
S''
sg15
g4261
sg28
Nsg44
S'Short description'
p4263
stRp4264
atRp4265
sg68
g4228
sg40
S'db.job'
p4266
sg69
S'0'
sg70
g71
sg915
S'db.bodtext'
p4267
sg42
S'Job'
p4268
sg74
S'84'
p4269
sg44
S'Job records'
p4270
stRp4271
sS'workingx'
p4272
g3
(g4
g5
(dp4273
g7
S'clientFile'
p4274
sg9
g3
(g10
g11
(lp4275
g3
(g4
g5
(dp4276
g14
S''
sg15
g16
sg17
g16
sg18
S''
sg19
S''
sg20
g21
sg22
g23
stRp4277
ag3
(g4
g5
(dp4278
g14
S''
sg17
g26
sg18
S''
sg20
g27
sg19
S''
sg15
g26
sg28
Nsg22
g29
stRp4279
ag3
(g4
g5
(dp4280
g14
S''
sg17
g32
sg18
S''
sg20
g21
sg19
S''
sg15
g32
sg28
Nsg22
g33
stRp4281
ag3
(g4
g5
(dp4282
g14
S''
sg17
g36
sg18
S''
sg20
g27
sg19
S''
sg15
g36
sg28
Nsg22
g37
stRp4283
ag3
(g4
g5
(dp4284
g14
S''
sg40
g770
sg18
S''
sg42
g771
sg19
S''
sg15
g770
sg28
Nsg44
g772
stRp4285
ag3
(g4
g5
(dp4286
g14
S''
sg40
g775
sg18
S''
sg42
g776
sg19
S''
sg15
g775
sg28
Nsg44
g777
stRp4287
ag3
(g4
g5
(dp4288
g14
S''
sg40
g780
sg18
S''
sg42
g781
sg19
S''
sg15
g780
sg28
Nsg44
g782
stRp4289
ag3
(g4
g5
(dp4290
g14
S''
sg40
g785
sg18
S''
sg42
g786
sg19
S''
sg15
g785
sg28
Nsg44
g787
stRp4291
ag3
(g4
g5
(dp4292
g14
S''
sg40
g790
sg18
S''
sg42
g791
sg19
S''
sg15
g790
sg28
Nsg44
g792
stRp4293
ag3
(g4
g5
(dp4294
g14
S''
sg40
g795
sg18
S''
sg42
g796
sg19
S''
sg15
g795
sg28
Nsg44
g797
stRp4295
ag3
(g4
g5
(dp4296
g14
S''
sg40
g800
sg18
S''
sg42
g801
sg19
S''
sg15
g800
sg28
Nsg44
g802
stRp4297
ag3
(g4
g5
(dp4298
g14
S''
sg40
g805
sg18
S''
sg42
g806
sg19
S''
sg15
g805
sg28
Nsg44
g807
stRp4299
ag3
(g4
g5
(dp4300
g14
S''
sg40
g810
sg18
S''
sg42
g811
sg19
S''
sg15
g810
sg28
Nsg44
g812
stRp4301
ag3
(g4
g5
(dp4302
g14
S''
sg40
g815
sg18
S''
sg42
g816
sg19
S''
sg15
g815
sg28
Nsg44
g817
stRp4303
ag3
(g4
g5
(dp4304
g14
S''
sg40
g820
sg18
S''
sg42
g821
sg19
S''
sg15
g820
sg28
Nsg44
g822
stRp4305
ag3
(g4
g5
(dp4306
g14
S''
sg40
g825
sg18
S''
sg42
g826
sg19
S''
sg15
g825
sg28
Nsg44
g827
stRp4307
ag3
(g4
g5
(dp4308
g14
S''
sg40
g830
sg18
S''
sg42
g831
sg19
S''
sg15
g830
sg28
Nsg44
g832
stRp4309
ag3
(g4
g5
(dp4310
g14
S''
sg40
g835
sg18
S''
sg42
g836
sg19
S''
sg15
g835
sg28
Nsg44
g837
stRp4311
ag3
(g4
g5
(dp4312
g14
S''
sg40
g840
sg18
S''
sg42
g841
sg19
S''
sg15
g840
sg28
Nsg44
g842
stRp4313
ag3
(g4
g5
(dp4314
g14
S''
sg40
g845
sg18
S''
sg42
g846
sg19
S''
sg15
g845
sg28
Nsg44
g847
stRp4315
ag3
(g4
g5
(dp4316
g14
S''
sg40
g850
sg18
S''
sg42
g851
sg19
S''
sg15
g850
sg28
Nsg44
g852
stRp4317
ag3
(g4
g5
(dp4318
g14
S''
sg40
g855
sg18
S''
sg42
g856
sg19
S''
sg15
g855
sg28
Nsg44
g857
stRp4319
ag3
(g4
g5
(dp4320
g14
S''
sg40
g860
sg18
S''
sg42
g861
sg19
S''
sg15
g860
sg28
Nsg44
g862
stRp4321
atRp4322
sg68
g4272
sg69
S'10'
p4323
sg70
g71
sg44
S'Records for shelved open files'
p4324
sg42
S'Working'
p4325
sg74
S'64'
p4326
sg40
S'db.workingx'
p4327
stRp4328
sS'templatewx'
p4329
g3
(g4
g5
(dp4330
g7
S'client, name, seq'
p4331
sg9
g3
(g10
g11
(lp4332
g3
(g4
g5
(dp4333
g14
S''
sg15
g16
sg17
g16
sg18
S''
sg19
S''
sg20
g21
sg22
g23
stRp4334
ag3
(g4
g5
(dp4335
g14
S''
sg17
g26
sg18
S''
sg20
g27
sg19
S''
sg15
g26
sg28
Nsg22
g29
stRp4336
ag3
(g4
g5
(dp4337
g14
S''
sg17
g32
sg18
S''
sg20
g21
sg19
S''
sg15
g32
sg28
Nsg22
g33
stRp4338
ag3
(g4
g5
(dp4339
g14
S''
sg17
g36
sg18
S''
sg20
g27
sg19
S''
sg15
g36
sg28
Nsg22
g37
stRp4340
ag3
(g4
g5
(dp4341
g14
S''
sg40
S'client'
p4342
sg18
S''
sg42
S'Domain'
p4343
sg19
S''
sg15
g4342
sg28
Nsg44
S'Stream client'
p4344
stRp4345
ag3
(g4
g5
(dp4346
g14
S''
sg40
S'name'
p4347
sg18
S''
sg42
S'Domain'
p4348
sg19
S''
sg15
g4347
sg28
Nsg44
S'Stream name'
p4349
stRp4350
ag3
(g4
g5
(dp4351
g14
S''
sg40
S'seq'
p4352
sg18
S''
sg42
S'Int'
p4353
sg19
S''
sg15
g4352
sg28
Nsg44
S'Sequence (line) number'
p4354
stRp4355
ag3
(g4
g5
(dp4356
g14
S''
sg40
S'change'
p4357
sg18
S''
sg42
S'Change'
p4358
sg19
S''
sg15
g4357
sg28
Nsg44
S'Versioned at change'
p4359
stRp4360
ag3
(g4
g5
(dp4361
g14
S''
sg40
S'parent'
p4362
sg18
S''
sg42
S'Domain'
p4363
sg19
S''
sg15
g4362
sg28
Nsg44
S'Parent stream name'
p4364
stRp4365
ag3
(g4
g5
(dp4366
g14
S''
sg40
S'type'
p4367
sg18
S''
sg42
S'StreamType'
p4368
sg19
S''
sg15
g4367
sg28
Nsg44
S'Type of stream'
p4369
stRp4370
ag3
(g4
g5
(dp4371
g14
S''
sg40
S'path'
p4372
sg18
S''
sg42
S'StreamPathType'
p4373
sg19
S''
sg15
g4372
sg28
Nsg44
S'Stream path type'
p4374
stRp4375
ag3
(g4
g5
(dp4376
g14
S''
sg40
S'viewFile'
p4377
sg18
S''
sg42
S'Mapping'
p4378
sg19
S''
sg15
g4377
sg28
Nsg44
S'View file (left hand side of path)'
p4379
stRp4380
ag3
(g4
g5
(dp4381
g14
S''
sg40
S'depotFile'
p4382
sg18
S''
sg42
S'Mapping'
p4383
sg19
S''
sg15
g4382
sg28
Nsg44
S'Depot file (right hand side of path)'
p4384
stRp4385
ag3
(g4
g5
(dp4386
g14
S''
sg40
S'changeMap'
p4387
sg18
S''
sg42
S'Value'
p4388
sg19
S''
sg15
g4387
sg28
Nsg44
S"Stream 'import' path changelist specifier. The changelist\n                    limits in effect for a given client are displayed in a\n                    read-only client spec field called 'ChangeView'"
p4389
stRp4390
ag3
(g4
g5
(dp4391
g14
S''
sg40
S'changeAtOpen'
p4392
sg18
S''
sg42
S'Change'
p4393
sg19
S''
sg15
g4392
sg28
Nsg44
S'Base change at time of opening'
p4394
stRp4395
ag3
(g4
g5
(dp4396
g14
S''
sg40
S'user'
p4397
sg18
S''
sg42
S'User'
p4398
sg19
S''
sg15
g4397
sg28
Nsg44
S'The user that created the change'
p4399
stRp4400
ag3
(g4
g5
(dp4401
g14
S''
sg40
S'action'
p4402
sg18
S''
sg42
S'Action'
p4403
sg19
S''
sg15
g4402
sg28
Nsg44
S'The action that created the change'
p4404
stRp4405
atRp4406
sg68
g4329
sg69
S'2'
sg70
g71
sg44
S'Pending stream templates'
p4407
sg42
S'TemplateWx'
p4408
sg74
S'26'
p4409
sg40
S'db.templatewx'
p4410
stRp4411
sS'revsh'
p4412
g3
(g4
g5
(dp4413
g7
S'depotFile, depotRev, type, action, change'
p4414
sg9
g3
(g10
g11
(lp4415
g3
(g4
g5
(dp4416
g14
S''
sg15
g16
sg17
g16
sg18
S''
sg19
S''
sg20
g21
sg22
g23
stRp4417
ag3
(g4
g5
(dp4418
g14
S''
sg17
g26
sg18
S''
sg20
g27
sg19
S''
sg15
g26
sg28
Nsg22
g29
stRp4419
ag3
(g4
g5
(dp4420
g14
S''
sg17
g32
sg18
S''
sg20
g21
sg19
S''
sg15
g32
sg28
Nsg22
g33
stRp4421
ag3
(g4
g5
(dp4422
g14
S''
sg17
g36
sg18
S''
sg20
g27
sg19
S''
sg15
g36
sg28
Nsg22
g37
stRp4423
ag3
(g4
g5
(dp4424
g14
S''
sg40
g91
sg18
S''
sg42
g92
sg19
S''
sg15
g91
sg28
Nsg44
g93
stRp4425
ag3
(g4
g5
(dp4426
g14
S''
sg40
g96
sg18
S''
sg42
g97
sg19
S''
sg15
g96
sg28
Nsg44
g98
stRp4427
ag3
(g4
g5
(dp4428
g14
S''
sg40
g101
sg18
S''
sg42
g102
sg19
S''
sg15
g101
sg28
Nsg44
g103
stRp4429
ag3
(g4
g5
(dp4430
g14
S''
sg40
g106
sg18
S''
sg42
g107
sg19
S''
sg15
g106
sg28
Nsg44
g108
stRp4431
ag3
(g4
g5
(dp4432
g14
S''
sg40
g111
sg18
S''
sg42
g112
sg19
S''
sg15
g111
sg28
Nsg44
g113
stRp4433
ag3
(g4
g5
(dp4434
g14
S''
sg40
g116
sg18
S''
sg42
g117
sg19
S''
sg15
g116
sg28
Nsg44
g118
stRp4435
ag3
(g4
g5
(dp4436
g14
S''
sg40
g121
sg18
S''
sg42
g122
sg19
S''
sg15
g121
sg28
Nsg44
g123
stRp4437
ag3
(g4
g5
(dp4438
g14
S''
sg40
g126
sg18
S''
sg42
g127
sg19
S''
sg15
g126
sg28
Nsg44
g128
stRp4439
ag3
(g4
g5
(dp4440
g14
S''
sg40
g131
sg18
S''
sg42
g132
sg19
S''
sg15
g131
sg28
Nsg44
g133
stRp4441
ag3
(g4
g5
(dp4442
g14
S''
sg40
g136
sg18
S''
sg42
g137
sg19
S''
sg15
g136
sg28
Nsg44
g138
stRp4443
ag3
(g4
g5
(dp4444
g14
S''
sg40
g141
sg18
S''
sg42
g142
sg19
S''
sg15
g141
sg28
Nsg44
g143
stRp4445
ag3
(g4
g5
(dp4446
g14
S''
sg40
g146
sg18
S''
sg42
g147
sg19
S''
sg15
g146
sg28
Nsg44
g148
stRp4447
ag3
(g4
g5
(dp4448
g14
S''
sg40
g151
sg18
S''
sg42
g152
sg19
S''
sg15
g151
sg28
Nsg44
g153
stRp4449
ag3
(g4
g5
(dp4450
g14
S''
sg40
g156
sg18
S''
sg42
g157
sg19
S''
sg15
g156
sg28
Nsg44
g158
stRp4451
atRp4452
sg68
g4412
sg69
S'9'
sg70
g71
sg44
S'Revision records for shelved files'
p4453
sg42
S'Rev'
p4454
sg74
S'54'
p4455
sg40
S'db.revsh'
p4456
stRp4457
sS'changeidx'
p4458
g3
(g4
g5
(dp4459
g7
S'identity'
p4460
sg9
g3
(g10
g11
(lp4461
g3
(g4
g5
(dp4462
g14
S''
sg15
g16
sg17
g16
sg18
S''
sg19
S''
sg20
g21
sg22
g23
stRp4463
ag3
(g4
g5
(dp4464
g14
S''
sg17
g26
sg18
S''
sg20
g27
sg19
S''
sg15
g26
sg28
Nsg22
g29
stRp4465
ag3
(g4
g5
(dp4466
g14
S''
sg17
g32
sg18
S''
sg20
g21
sg19
S''
sg15
g32
sg28
Nsg22
g33
stRp4467
ag3
(g4
g5
(dp4468
g14
S''
sg17
g36
sg18
S''
sg20
g27
sg19
S''
sg15
g36
sg28
Nsg22
g37
stRp4469
ag3
(g4
g5
(dp4470
g14
S''
sg40
S'identity'
p4471
sg18
S''
sg42
S'Key'
p4472
sg19
S''
sg15
g4471
sg28
Nsg44
S'Identifier for this change'
p4473
stRp4474
ag3
(g4
g5
(dp4475
g14
S''
sg40
S'change'
p4476
sg18
S''
sg42
S'Change'
p4477
sg19
S''
sg15
g4476
sg28
Nsg44
S'Changelist'
p4478
stRp4479
atRp4480
sg68
g4458
sg69
S'1'
sg70
g71
sg44
S'Secondary index of db.change/db.changex'
p4481
sg42
S'ChangeIdx'
p4482
sg74
S'74'
p4483
sg40
S'db.changeidx'
p4484
stRp4485
sS'locksg'
p4486
g3
(g4
g5
(dp4487
g7
S'depotFile, client'
p4488
sg9
g3
(g10
g11
(lp4489
g3
(g4
g5
(dp4490
g14
S''
sg15
g16
sg17
g16
sg18
S''
sg19
S''
sg20
g21
sg22
g23
stRp4491
ag3
(g4
g5
(dp4492
g14
S''
sg17
g26
sg18
S''
sg20
g27
sg19
S''
sg15
g26
sg28
Nsg22
g29
stRp4493
ag3
(g4
g5
(dp4494
g14
S''
sg17
g32
sg18
S''
sg20
g21
sg19
S''
sg15
g32
sg28
Nsg22
g33
stRp4495
ag3
(g4
g5
(dp4496
g14
S''
sg17
g36
sg18
S''
sg20
g27
sg19
S''
sg15
g36
sg28
Nsg22
g37
stRp4497
ag3
(g4
g5
(dp4498
g14
S''
sg40
g2992
sg18
S''
sg42
g2993
sg19
S''
sg15
g2992
sg28
Nsg44
g2994
stRp4499
ag3
(g4
g5
(dp4500
g14
S''
sg40
g2997
sg18
S''
sg42
g2998
sg19
S''
sg15
g2997
sg28
Nsg44
g2999
stRp4501
ag3
(g4
g5
(dp4502
g14
S''
sg40
g3002
sg18
S''
sg42
g3003
sg19
S''
sg15
g3002
sg28
Nsg44
g3004
stRp4503
ag3
(g4
g5
(dp4504
g14
S''
sg40
g3007
sg18
S''
sg42
g3008
sg19
S''
sg15
g3007
sg28
Nsg44
g3009
stRp4505
ag3
(g4
g5
(dp4506
g14
S''
sg40
g3012
sg18
S''
sg42
g3013
sg19
S''
sg15
g3012
sg28
Nsg44
g3014
stRp4507
ag3
(g4
g5
(dp4508
g14
S''
sg40
g3017
sg18
S''
sg42
g3018
sg19
S''
sg15
g3017
sg28
Nsg44
g3019
stRp4509
atRp4510
sg68
g4486
sg69
S'2'
sg70
g71
sg44
S'Lock records for clients of type graph'
p4511
sg42
S'Locks'
p4512
sg74
S'62'
p4513
sg40
S'db.locksg'
p4514
stRp4515
sS'bodtextsx'
p4516
g3
(g4
g5
(dp4517
g7
S'type, shelf, key, attr'
p4518
sg9
g3
(g10
g11
(lp4519
g3
(g4
g5
(dp4520
g14
S''
sg15
g16
sg17
g16
sg18
S''
sg19
S''
sg20
g21
sg22
g23
stRp4521
ag3
(g4
g5
(dp4522
g14
S''
sg17
g26
sg18
S''
sg20
g27
sg19
S''
sg15
g26
sg28
Nsg22
g29
stRp4523
ag3
(g4
g5
(dp4524
g14
S''
sg17
g32
sg18
S''
sg20
g21
sg19
S''
sg15
g32
sg28
Nsg22
g33
stRp4525
ag3
(g4
g5
(dp4526
g14
S''
sg17
g36
sg18
S''
sg20
g27
sg19
S''
sg15
g36
sg28
Nsg22
g37
stRp4527
ag3
(g4
g5
(dp4528
g14
S''
sg40
S'type'
p4529
sg18
S''
sg42
S'Int'
p4530
sg19
S''
sg15
g4529
sg28
Nsg44
S'The type of spec'
p4531
stRp4532
ag3
(g4
g5
(dp4533
g14
S''
sg40
S'shelf'
p4534
sg18
S''
sg42
S'Change'
p4535
sg19
S''
sg15
g4534
sg28
Nsg44
S'The shelf to which this attribute belongs'
p4536
stRp4537
ag3
(g4
g5
(dp4538
g14
S''
sg40
S'key'
p4539
sg18
S''
sg42
S'Key'
p4540
sg19
S''
sg15
g4539
sg28
Nsg44
S'The spec to which this attribute belongs'
p4541
stRp4542
ag3
(g4
g5
(dp4543
g14
S''
sg40
S'attr'
p4544
sg18
S''
sg42
S'Int'
p4545
sg19
S''
sg15
g4544
sg28
Nsg44
S'The attribute number of this attribute'
p4546
stRp4547
ag3
(g4
g5
(dp4548
g14
S''
sg40
S'text'
p4549
sg18
S''
sg42
S'Text'
p4550
sg19
S''
sg15
g4549
sg28
Nsg44
S'The attribute value'
p4551
stRp4552
ag3
(g4
g5
(dp4553
g14
S''
sg40
S'workChange'
p4554
sg18
S''
sg42
S'Change'
p4555
sg19
S''
sg15
g4554
sg28
Nsg44
S'The working change'
p4556
stRp4557
ag3
(g4
g5
(dp4558
g14
S''
sg40
S'user'
p4559
sg18
S''
sg42
S'User'
p4560
sg19
S''
sg15
g4559
sg28
Nsg44
S'The user that created the change'
p4561
stRp4562
ag3
(g4
g5
(dp4563
g14
S''
sg40
S'action'
p4564
sg18
S''
sg42
S'Action'
p4565
sg19
S''
sg15
g4564
sg28
Nsg44
S'The Action that created the change'
p4566
stRp4567
atRp4568
sg68
g4516
sg69
S'1'
sg70
g71
sg44
S'Shelved openable spec fields'
p4569
sg42
S'BodyTextSx'
p4570
sg74
S'95'
p4571
sg40
S'db.bodtextsx'
p4572
stRp4573
sS'integtx'
p4574
g3
(g4
g5
(dp4575
g7
S'toFile, fromFile, startFromRev, endFromRev,\n                startToRev, endToRev'
p4576
sg9
g3
(g10
g11
(lp4577
g3
(g4
g5
(dp4578
g14
S''
sg15
g16
sg17
g16
sg18
S''
sg19
S''
sg20
g21
sg22
g23
stRp4579
ag3
(g4
g5
(dp4580
g14
S''
sg17
g26
sg18
S''
sg20
g27
sg19
S''
sg15
g26
sg28
Nsg22
g29
stRp4581
ag3
(g4
g5
(dp4582
g14
S''
sg17
g32
sg18
S''
sg20
g21
sg19
S''
sg15
g32
sg28
Nsg22
g33
stRp4583
ag3
(g4
g5
(dp4584
g14
S''
sg17
g36
sg18
S''
sg20
g27
sg19
S''
sg15
g36
sg28
Nsg22
g37
stRp4585
ag3
(g4
g5
(dp4586
g14
S''
sg40
g1616
sg18
S''
sg42
g1617
sg19
S''
sg15
g1616
sg28
Nsg44
g1618
stRp4587
ag3
(g4
g5
(dp4588
g14
S''
sg40
g1621
sg18
S''
sg42
g1622
sg19
S''
sg15
g1621
sg28
Nsg44
g1623
stRp4589
ag3
(g4
g5
(dp4590
g14
S''
sg40
g1626
sg18
S''
sg42
g1627
sg19
S''
sg15
g1626
sg28
Nsg44
g1628
stRp4591
ag3
(g4
g5
(dp4592
g14
S''
sg40
g1631
sg18
S''
sg42
g1632
sg19
S''
sg15
g1631
sg28
Nsg44
g1633
stRp4593
ag3
(g4
g5
(dp4594
g14
S''
sg40
g1636
sg18
S''
sg42
g1637
sg19
S''
sg15
g1636
sg28
Nsg44
g1638
stRp4595
ag3
(g4
g5
(dp4596
g14
S''
sg40
g1641
sg18
S''
sg42
g1642
sg19
S''
sg15
g1641
sg28
Nsg44
g1643
stRp4597
ag3
(g4
g5
(dp4598
g14
S''
sg40
g1646
sg18
S''
sg42
g1647
sg19
S''
sg15
g1646
sg28
Nsg44
g1648
stRp4599
ag3
(g4
g5
(dp4600
g14
S''
sg40
g1651
sg18
S''
sg42
g1652
sg19
S''
sg15
g1651
sg28
Nsg44
g1653
stRp4601
atRp4602
sg68
g4574
sg40
S'db.integtx'
p4603
sg69
S'0'
sg70
g71
sg915
S'db.resolve'
p4604
sg42
S'Integed'
p4605
sg74
S'38'
p4606
sg44
S'Temporary integration records used by task streams'
p4607
stRp4608
sS'protect'
p4609
g3
(g4
g5
(dp4610
g7
S'seq'
p4611
sg9
g3
(g10
g11
(lp4612
g3
(g4
g5
(dp4613
g14
S''
sg15
g16
sg17
g16
sg18
S''
sg19
S''
sg20
g21
sg22
g23
stRp4614
ag3
(g4
g5
(dp4615
g14
S''
sg17
g26
sg18
S''
sg20
g27
sg19
S''
sg15
g26
sg28
Nsg22
g29
stRp4616
ag3
(g4
g5
(dp4617
g14
S''
sg17
g32
sg18
S''
sg20
g21
sg19
S''
sg15
g32
sg28
Nsg22
g33
stRp4618
ag3
(g4
g5
(dp4619
g14
S''
sg17
g36
sg18
S''
sg20
g27
sg19
S''
sg15
g36
sg28
Nsg22
g37
stRp4620
ag3
(g4
g5
(dp4621
g14
S''
sg40
S'seq'
p4622
sg18
S''
sg42
S'Int'
p4623
sg19
S''
sg15
g4622
sg28
Nsg44
S'Sequence number: for ordering the protections table'
p4624
stRp4625
ag3
(g4
g5
(dp4626
g14
S''
sg40
S'isGroup'
p4627
sg18
S''
sg42
S'Int'
p4628
sg19
S''
sg15
g4627
sg28
Nsg44
S'Flag: 0 for a per-user setting, 1 for a per-group setting.'
p4629
stRp4630
ag3
(g4
g5
(dp4631
g14
S''
sg40
S'user'
p4632
sg18
S''
sg42
S'UserWild'
p4633
sg19
S''
sg15
g4632
sg28
Nsg44
S'User(s), or Group(s) for whom this record applies.'
p4634
stRp4635
ag3
(g4
g5
(dp4636
g14
S''
sg40
S'host'
p4637
sg18
S''
sg42
S'DomainWild'
p4638
sg19
S''
sg15
g4637
sg28
Nsg44
S'Domain(s) (IP addresses) for which this record applies.'
p4639
stRp4640
ag3
(g4
g5
(dp4641
g14
S''
sg40
S'perm'
p4642
sg18
S''
sg42
S'Perm'
p4643
sg19
S''
sg15
g4642
sg28
Nsg44
S'Permissions to be granted/revoked'
p4644
stRp4645
ag3
(g4
g5
(dp4646
g14
S''
sg40
S'mapFlag'
p4647
sg18
S''
sg42
S'MapFlag'
p4648
sg19
S''
sg15
g4647
sg28
Nsg44
S'Flag: Map the files in or out?'
p4649
stRp4650
ag3
(g4
g5
(dp4651
g14
S''
sg40
S'depotFile'
p4652
sg18
S''
sg42
S'Mapping'
p4653
sg19
S''
sg15
g4652
sg28
Nsg44
S'Files to be mapped in or out.'
p4654
stRp4655
ag3
(g4
g5
(dp4656
g14
S''
sg40
S'subPath'
p4657
sg18
S''
sg42
S'Mapping'
p4658
sg19
S''
sg15
g4657
sg28
Nsg44
S'Root path of the sub-protections table'
p4659
stRp4660
ag3
(g4
g5
(dp4661
g14
S''
sg40
S'update'
p4662
sg18
S''
sg42
S'Date'
p4663
sg19
S''
sg15
g4662
sg28
Nsg44
S'Date this specification was last modified'
p4664
stRp4665
atRp4666
sg68
g4609
sg69
S'5'
sg70
g71
sg44
S'The protections table'
p4667
sg42
S'Protect'
p4668
sg74
S'101'
p4669
sg40
S'db.protect'
p4670
stRp4671
sS'remote'
p4672
g3
(g4
g5
(dp4673
g7
S'id'
p4674
sg9
g3
(g10
g11
(lp4675
g3
(g4
g5
(dp4676
g14
S''
sg15
g16
sg17
g16
sg18
S''
sg19
S''
sg20
g21
sg22
g23
stRp4677
ag3
(g4
g5
(dp4678
g14
S''
sg17
g26
sg18
S''
sg20
g27
sg19
S''
sg15
g26
sg28
Nsg22
g29
stRp4679
ag3
(g4
g5
(dp4680
g14
S''
sg17
g32
sg18
S''
sg20
g21
sg19
S''
sg15
g32
sg28
Nsg22
g33
stRp4681
ag3
(g4
g5
(dp4682
g14
S''
sg17
g36
sg18
S''
sg20
g27
sg19
S''
sg15
g36
sg28
Nsg22
g37
stRp4683
ag3
(g4
g5
(dp4684
g14
S''
sg40
S'id'
p4685
sg18
S''
sg42
S'RemoteID'
p4686
sg19
S''
sg15
g4685
sg28
Nsg44
S'The remote identifier'
p4687
stRp4688
ag3
(g4
g5
(dp4689
g14
S''
sg40
S'owner'
p4690
sg18
S''
sg42
S'User'
p4691
sg19
S''
sg15
g4690
sg28
Nsg44
S'The user who created this remote'
p4692
stRp4693
ag3
(g4
g5
(dp4694
g14
S''
sg40
S'options'
p4695
sg18
S''
sg42
S'Int'
p4696
sg19
S''
sg15
g4695
sg28
Nsg44
S'Remote options bitmask: 0: unlocked/nocompress, 1: locked/nocompress, 2: unlocked/compress, 4:\n                    locked/compress'
p4697
stRp4698
ag3
(g4
g5
(dp4699
g14
S''
sg40
S'address'
p4700
sg18
S''
sg42
S'Text'
p4701
sg19
S''
sg15
g4700
sg28
Nsg44
S'The P4PORT used by the remote server'
p4702
stRp4703
ag3
(g4
g5
(dp4704
g14
S''
sg40
S'desc'
p4705
sg18
S''
sg42
S'Text'
p4706
sg19
S''
sg15
g4705
sg28
Nsg44
S'Description of the remote server'
p4707
stRp4708
ag3
(g4
g5
(dp4709
g14
S''
sg40
S'update'
p4710
sg18
S''
sg42
S'Date'
p4711
sg19
S''
sg15
g4710
sg28
Nsg44
S'The date this specification was last modified'
p4712
stRp4713
ag3
(g4
g5
(dp4714
g14
S''
sg40
S'access'
p4715
sg18
S''
sg42
S'Date'
p4716
sg19
S''
sg15
g4715
sg28
Nsg44
S'The date of the last push/fetch on this remote'
p4717
stRp4718
ag3
(g4
g5
(dp4719
g14
S''
sg40
S'fetch'
p4720
sg18
S''
sg42
S'Change'
p4721
sg19
S''
sg15
g4720
sg28
Nsg44
S'The last changelist that was fetched'
p4722
stRp4723
ag3
(g4
g5
(dp4724
g14
S''
sg40
S'push'
p4725
sg18
S''
sg42
S'Change'
p4726
sg19
S''
sg15
g4725
sg28
Nsg44
S'The last changelist that was pushed'
p4727
stRp4728
ag3
(g4
g5
(dp4729
g14
S''
sg40
S'rmtuser'
p4730
sg18
S''
sg42
S'User'
p4731
sg19
S''
sg15
g4730
sg28
Nsg44
S'The user to use when connecting to the remote server'
p4732
stRp4733
atRp4734
sg68
g4672
sg69
S'1'
sg70
g71
sg44
S'Remote specifications'
p4735
sg42
S'Remote'
p4736
sg74
S'11'
p4737
sg40
S'db.remote'
p4738
stRp4739
sS'haveview'
p4740
g3
(g4
g5
(dp4741
g7
S'name, seq'
p4742
sg9
g3
(g10
g11
(lp4743
g3
(g4
g5
(dp4744
g14
S''
sg15
g16
sg17
g16
sg18
S''
sg19
S''
sg20
g21
sg22
g23
stRp4745
ag3
(g4
g5
(dp4746
g14
S''
sg17
g26
sg18
S''
sg20
g27
sg19
S''
sg15
g26
sg28
Nsg22
g29
stRp4747
ag3
(g4
g5
(dp4748
g14
S''
sg17
g32
sg18
S''
sg20
g21
sg19
S''
sg15
g32
sg28
Nsg22
g33
stRp4749
ag3
(g4
g5
(dp4750
g14
S''
sg17
g36
sg18
S''
sg20
g27
sg19
S''
sg15
g36
sg28
Nsg22
g37
stRp4751
ag3
(g4
g5
(dp4752
g14
S''
sg40
g2521
sg18
S''
sg42
g2522
sg19
S''
sg15
g2521
sg28
Nsg44
g2523
stRp4753
ag3
(g4
g5
(dp4754
g14
S''
sg40
g2526
sg18
S''
sg42
g2527
sg19
S''
sg15
g2526
sg28
Nsg44
g2528
stRp4755
ag3
(g4
g5
(dp4756
g14
S''
sg40
g2531
sg18
S''
sg42
g2532
sg19
S''
sg15
g2531
sg28
Nsg44
g2533
stRp4757
ag3
(g4
g5
(dp4758
g14
S''
sg40
g2536
sg18
S''
sg42
g2537
sg19
S''
sg15
g2536
sg28
Nsg44
g2538
stRp4759
ag3
(g4
g5
(dp4760
g14
S''
sg40
g2541
sg18
S''
sg42
g2542
sg19
S''
sg15
g2541
sg28
Nsg44
g2543
stRp4761
atRp4762
sg68
g4740
sg69
S'1'
sg70
g71
sg44
S'Stores mapping changes for clients mapping graph depot content'
p4763
sg42
S'View'
p4764
sg74
S'30'
p4765
sg40
S'db.haveview'
p4766
stRp4767
sS'ixtexthx'
p4768
g3
(g4
g5
(dp4769
g7
S'type, word, attr, value'
p4770
sg9
g3
(g10
g11
(lp4771
g3
(g4
g5
(dp4772
g14
S''
sg15
g16
sg17
g16
sg18
S''
sg19
S''
sg20
g21
sg22
g23
stRp4773
ag3
(g4
g5
(dp4774
g14
S''
sg17
g26
sg18
S''
sg20
g27
sg19
S''
sg15
g26
sg28
Nsg22
g29
stRp4775
ag3
(g4
g5
(dp4776
g14
S''
sg17
g32
sg18
S''
sg20
g21
sg19
S''
sg15
g32
sg28
Nsg22
g33
stRp4777
ag3
(g4
g5
(dp4778
g14
S''
sg17
g36
sg18
S''
sg20
g27
sg19
S''
sg15
g36
sg28
Nsg22
g37
stRp4779
ag3
(g4
g5
(dp4780
g14
S''
sg40
S'type'
p4781
sg18
S''
sg42
S'SpecType'
p4782
sg19
S''
sg15
g4781
sg28
Nsg44
S'The type'
p4783
stRp4784
ag3
(g4
g5
(dp4785
g14
S''
sg40
S'word'
p4786
sg18
S''
sg42
S'Key'
p4787
sg19
S''
sg15
g4786
sg28
Nsg44
S'The word being indexed'
p4788
stRp4789
ag3
(g4
g5
(dp4790
g14
S''
sg40
S'attr'
p4791
sg18
S''
sg42
S'Int'
p4792
sg19
S''
sg15
g4791
sg28
Nsg44
S'The attribute number to which this word belongs.'
p4793
stRp4794
ag3
(g4
g5
(dp4795
g14
S''
sg40
S'value'
p4796
sg18
S''
sg42
S'Key'
p4797
sg19
S''
sg15
g4796
sg28
Nsg44
S'The value of the index keyed by the word.'
p4798
stRp4799
atRp4800
sg68
g4768
sg69
S'0'
sg70
g71
sg44
S'Indexing data for head revision of all spec fields'
p4801
sg42
S'IndexTextHx'
p4802
sg74
S'99'
p4803
sg40
S'db.ixtexthx'
p4804
stRp4805
sS'storagesx'
p4806
g3
(g4
g5
(dp4807
g7
S'digest,size,file,rev,type'
p4808
sg9
g3
(g10
g11
(lp4809
g3
(g4
g5
(dp4810
g14
S''
sg15
g16
sg17
g16
sg18
S''
sg19
S''
sg20
g21
sg22
g23
stRp4811
ag3
(g4
g5
(dp4812
g14
S''
sg17
g26
sg18
S''
sg20
g27
sg19
S''
sg15
g26
sg28
Nsg22
g29
stRp4813
ag3
(g4
g5
(dp4814
g14
S''
sg17
g32
sg18
S''
sg20
g21
sg19
S''
sg15
g32
sg28
Nsg22
g33
stRp4815
ag3
(g4
g5
(dp4816
g14
S''
sg17
g36
sg18
S''
sg20
g27
sg19
S''
sg15
g36
sg28
Nsg22
g37
stRp4817
ag3
(g4
g5
(dp4818
g14
S''
sg40
S'digest'
p4819
sg18
S''
sg42
S'Digest'
p4820
sg19
S''
sg15
g4819
sg28
Nsg44
S'digest'
p4821
stRp4822
ag3
(g4
g5
(dp4823
g14
S''
sg40
S'size'
p4824
sg18
S''
sg42
S'FileSize'
p4825
sg19
S''
sg15
g4824
sg28
Nsg44
S'file size'
p4826
stRp4827
ag3
(g4
g5
(dp4828
g14
S''
sg40
S'file'
p4829
sg18
S''
sg42
S'Key'
p4830
sg19
S''
sg15
g4829
sg28
Nsg44
S'lbrFile'
p4831
stRp4832
ag3
(g4
g5
(dp4833
g14
S''
sg40
S'rev'
p4834
sg18
S''
sg42
S'lbrRev'
p4835
sg19
S''
sg15
g4834
sg28
Nsg44
S'lbrRev'
p4836
stRp4837
ag3
(g4
g5
(dp4838
g14
S''
sg40
S'type'
p4839
sg18
S''
sg42
S'FileType'
p4840
sg19
S''
sg15
g4839
sg28
Nsg44
S'lbrType'
p4841
stRp4842
atRp4843
sg68
g4806
sg69
S'0'
sg70
g71
sg44
S'Digest and filesize based index for db.storagesh, for finding shelved files with identical content'
p4844
sg42
S'StorageIdx'
p4845
sg74
S'49'
p4846
sg40
S'db.storagesx'
p4847
stRp4848
sS'templatesx'
p4849
g3
(g4
g5
(dp4850
g7
S'shelf, name, seq'
p4851
sg9
g3
(g10
g11
(lp4852
g3
(g4
g5
(dp4853
g14
S''
sg15
g16
sg17
g16
sg18
S''
sg19
S''
sg20
g21
sg22
g23
stRp4854
ag3
(g4
g5
(dp4855
g14
S''
sg17
g26
sg18
S''
sg20
g27
sg19
S''
sg15
g26
sg28
Nsg22
g29
stRp4856
ag3
(g4
g5
(dp4857
g14
S''
sg17
g32
sg18
S''
sg20
g21
sg19
S''
sg15
g32
sg28
Nsg22
g33
stRp4858
ag3
(g4
g5
(dp4859
g14
S''
sg17
g36
sg18
S''
sg20
g27
sg19
S''
sg15
g36
sg28
Nsg22
g37
stRp4860
ag3
(g4
g5
(dp4861
g14
S''
sg40
S'shelf'
p4862
sg18
S''
sg42
S'Change'
p4863
sg19
S''
sg15
g4862
sg28
Nsg44
S'Shelf changelist number'
p4864
stRp4865
ag3
(g4
g5
(dp4866
g14
S''
sg40
S'name'
p4867
sg18
S''
sg42
S'Domain'
p4868
sg19
S''
sg15
g4867
sg28
Nsg44
S'Stream name'
p4869
stRp4870
ag3
(g4
g5
(dp4871
g14
S''
sg40
S'seq'
p4872
sg18
S''
sg42
S'Int'
p4873
sg19
S''
sg15
g4872
sg28
Nsg44
S'Sequence (line) number'
p4874
stRp4875
ag3
(g4
g5
(dp4876
g14
S''
sg40
S'change'
p4877
sg18
S''
sg42
S'Change'
p4878
sg19
S''
sg15
g4877
sg28
Nsg44
S'Versioned at change'
p4879
stRp4880
ag3
(g4
g5
(dp4881
g14
S''
sg40
S'parent'
p4882
sg18
S''
sg42
S'Domain'
p4883
sg19
S''
sg15
g4882
sg28
Nsg44
S'Parent stream name'
p4884
stRp4885
ag3
(g4
g5
(dp4886
g14
S''
sg40
S'type'
p4887
sg18
S''
sg42
S'StreamType'
p4888
sg19
S''
sg15
g4887
sg28
Nsg44
S'Type of stream'
p4889
stRp4890
ag3
(g4
g5
(dp4891
g14
S''
sg40
S'path'
p4892
sg18
S''
sg42
S'StreamPathType'
p4893
sg19
S''
sg15
g4892
sg28
Nsg44
S'Stream path type'
p4894
stRp4895
ag3
(g4
g5
(dp4896
g14
S''
sg40
S'viewFile'
p4897
sg18
S''
sg42
S'Mapping'
p4898
sg19
S''
sg15
g4897
sg28
Nsg44
S'View file (left hand side of path)'
p4899
stRp4900
ag3
(g4
g5
(dp4901
g14
S''
sg40
S'depotFile'
p4902
sg18
S''
sg42
S'Mapping'
p4903
sg19
S''
sg15
g4902
sg28
Nsg44
S'Depot file (right hand side of path)'
p4904
stRp4905
ag3
(g4
g5
(dp4906
g14
S''
sg40
S'changeMap'
p4907
sg18
S''
sg42
S'Value'
p4908
sg19
S''
sg15
g4907
sg28
Nsg44
S"Stream 'import' path changelist specifier. The changelist\n                    limits in effect for a given client are displayed in a\n                    read-only client spec field called 'ChangeView'"
p4909
stRp4910
ag3
(g4
g5
(dp4911
g14
S''
sg40
S'changeAtOpen'
p4912
sg18
S''
sg42
S'Change'
p4913
sg19
S''
sg15
g4912
sg28
Nsg44
S'Base change at time of opening'
p4914
stRp4915
ag3
(g4
g5
(dp4916
g14
S''
sg40
S'user'
p4917
sg18
S''
sg42
S'User'
p4918
sg19
S''
sg15
g4917
sg28
Nsg44
S'The user that created the change'
p4919
stRp4920
ag3
(g4
g5
(dp4921
g14
S''
sg40
S'action'
p4922
sg18
S''
sg42
S'Action'
p4923
sg19
S''
sg15
g4922
sg28
Nsg44
S'The action that created the change'
p4924
stRp4925
atRp4926
sg68
g4849
sg69
S'2'
sg70
g71
sg44
S'Shelved stream templates'
p4927
sg42
S'TemplateSx'
p4928
sg74
S'25'
p4929
sg40
S'db.templatesx'
p4930
stRp4931
sS'uxtext'
p4932
g3
(g4
g5
(dp4933
g7
S'word, attr, value'
p4934
sg9
g3
(g10
g11
(lp4935
g3
(g4
g5
(dp4936
g14
S''
sg15
g16
sg17
g16
sg18
S''
sg19
S''
sg20
g21
sg22
g23
stRp4937
ag3
(g4
g5
(dp4938
g14
S''
sg17
g26
sg18
S''
sg20
g27
sg19
S''
sg15
g26
sg28
Nsg22
g29
stRp4939
ag3
(g4
g5
(dp4940
g14
S''
sg17
g32
sg18
S''
sg20
g21
sg19
S''
sg15
g32
sg28
Nsg22
g33
stRp4941
ag3
(g4
g5
(dp4942
g14
S''
sg17
g36
sg18
S''
sg20
g27
sg19
S''
sg15
g36
sg28
Nsg22
g37
stRp4943
ag3
(g4
g5
(dp4944
g14
S''
sg40
g363
sg18
S''
sg42
g364
sg19
S''
sg15
g363
sg28
Nsg44
g365
stRp4945
ag3
(g4
g5
(dp4946
g14
S''
sg40
g368
sg18
S''
sg42
g369
sg19
S''
sg15
g368
sg28
Nsg44
g370
stRp4947
ag3
(g4
g5
(dp4948
g14
S''
sg40
g373
sg18
S''
sg42
g374
sg19
S''
sg15
g373
sg28
Nsg44
g375
stRp4949
atRp4950
sg68
g4932
sg69
S'0'
sg70
g71
sg44
S'Indexing data for Swarm'
p4951
sg42
S'IndexText'
p4952
sg74
S'100'
p4953
sg40
S'db.uxtext'
p4954
stRp4955
sS'bodtextwx'
p4956
g3
(g4
g5
(dp4957
g7
S'type, client, key, attr'
p4958
sg9
g3
(g10
g11
(lp4959
g3
(g4
g5
(dp4960
g14
S''
sg15
g16
sg17
g16
sg18
S''
sg19
S''
sg20
g21
sg22
g23
stRp4961
ag3
(g4
g5
(dp4962
g14
S''
sg17
g26
sg18
S''
sg20
g27
sg19
S''
sg15
g26
sg28
Nsg22
g29
stRp4963
ag3
(g4
g5
(dp4964
g14
S''
sg17
g32
sg18
S''
sg20
g21
sg19
S''
sg15
g32
sg28
Nsg22
g33
stRp4965
ag3
(g4
g5
(dp4966
g14
S''
sg17
g36
sg18
S''
sg20
g27
sg19
S''
sg15
g36
sg28
Nsg22
g37
stRp4967
ag3
(g4
g5
(dp4968
g14
S''
sg40
S'type'
p4969
sg18
S''
sg42
S'Int'
p4970
sg19
S''
sg15
g4969
sg28
Nsg44
S'The type of spec'
p4971
stRp4972
ag3
(g4
g5
(dp4973
g14
S''
sg40
S'client'
p4974
sg18
S''
sg42
S'Domain'
p4975
sg19
S''
sg15
g4974
sg28
Nsg44
S'The client the spec is opened on'
p4976
stRp4977
ag3
(g4
g5
(dp4978
g14
S''
sg40
S'key'
p4979
sg18
S''
sg42
S'Key'
p4980
sg19
S''
sg15
g4979
sg28
Nsg44
S'The spec to which this attribute belongs'
p4981
stRp4982
ag3
(g4
g5
(dp4983
g14
S''
sg40
S'attr'
p4984
sg18
S''
sg42
S'Int'
p4985
sg19
S''
sg15
g4984
sg28
Nsg44
S'The attribute number of this attribute'
p4986
stRp4987
ag3
(g4
g5
(dp4988
g14
S''
sg40
S'text'
p4989
sg18
S''
sg42
S'Text'
p4990
sg19
S''
sg15
g4989
sg28
Nsg44
S'The attribute value'
p4991
stRp4992
ag3
(g4
g5
(dp4993
g14
S''
sg40
S'workChange'
p4994
sg18
S''
sg42
S'Change'
p4995
sg19
S''
sg15
g4994
sg28
Nsg44
S'The working change'
p4996
stRp4997
ag3
(g4
g5
(dp4998
g14
S''
sg40
S'user'
p4999
sg18
S''
sg42
S'User'
p5000
sg19
S''
sg15
g4999
sg28
Nsg44
S'The user that created the change'
p5001
stRp5002
ag3
(g4
g5
(dp5003
g14
S''
sg40
S'action'
p5004
sg18
S''
sg42
S'Action'
p5005
sg19
S''
sg15
g5004
sg28
Nsg44
S'The action that created the change'
p5006
stRp5007
atRp5008
sg68
g4956
sg69
S'1'
sg70
g71
sg44
S'Open openable spec fields'
p5009
sg42
S'BodyTextWx'
p5010
sg74
S'96'
p5011
sg40
S'db.bodtextwx'
p5012
stRp5013
sS'stash'
p5014
g3
(g4
g5
(dp5015
g7
S'client, stream, type, seq'
p5016
sg9
g3
(g10
g11
(lp5017
g3
(g4
g5
(dp5018
g14
S''
sg15
g16
sg17
g16
sg18
S''
sg19
S''
sg20
g21
sg22
g23
stRp5019
ag3
(g4
g5
(dp5020
g14
S''
sg17
g26
sg18
S''
sg20
g27
sg19
S''
sg15
g26
sg28
Nsg22
g29
stRp5021
ag3
(g4
g5
(dp5022
g14
S''
sg17
g32
sg18
S''
sg20
g21
sg19
S''
sg15
g32
sg28
Nsg22
g33
stRp5023
ag3
(g4
g5
(dp5024
g14
S''
sg17
g36
sg18
S''
sg20
g27
sg19
S''
sg15
g36
sg28
Nsg22
g37
stRp5025
ag3
(g4
g5
(dp5026
g14
S''
sg40
S'client'
p5027
sg18
S''
sg42
S'Domain'
p5028
sg19
S''
sg15
g5027
sg28
Nsg44
S'Client the stash refers to'
p5029
stRp5030
ag3
(g4
g5
(dp5031
g14
S''
sg40
S'stream'
p5032
sg18
S''
sg42
S'Domain'
p5033
sg19
S''
sg15
g5032
sg28
Nsg44
S'Stream the stash refers to'
p5034
stRp5035
ag3
(g4
g5
(dp5036
g14
S''
sg40
S'type'
p5037
sg18
S''
sg42
S'StashType'
p5038
sg19
S''
sg15
g5037
sg28
Nsg44
S'Stash type'
p5039
stRp5040
ag3
(g4
g5
(dp5041
g14
S''
sg40
S'seq'
p5042
sg18
S''
sg42
S'Int'
p5043
sg19
S''
sg15
g5042
sg28
Nsg44
S'Sequence number'
p5044
stRp5045
ag3
(g4
g5
(dp5046
g14
S''
sg40
S'change'
p5047
sg18
S''
sg42
S'Change'
p5048
sg19
S''
sg15
g5047
sg28
Nsg44
S'Stash change number'
p5049
stRp5050
atRp5051
sg68
g5014
sg69
S'0'
sg70
g71
sg44
S'Stash data'
p5052
sg42
S'Stash'
p5053
sg74
S'13'
p5054
sg40
S'db.stash'
p5055
stRp5056
sS'graphperm'
p5057
g3
(g4
g5
(dp5058
g7
S'name, repo, ref, type, user, perm'
p5059
sg9
g3
(g10
g11
(lp5060
g3
(g4
g5
(dp5061
g14
S''
sg15
g16
sg17
g16
sg18
S''
sg19
S''
sg20
g21
sg22
g23
stRp5062
ag3
(g4
g5
(dp5063
g14
S''
sg17
g26
sg18
S''
sg20
g27
sg19
S''
sg15
g26
sg28
Nsg22
g29
stRp5064
ag3
(g4
g5
(dp5065
g14
S''
sg17
g32
sg18
S''
sg20
g21
sg19
S''
sg15
g32
sg28
Nsg22
g33
stRp5066
ag3
(g4
g5
(dp5067
g14
S''
sg17
g36
sg18
S''
sg20
g27
sg19
S''
sg15
g36
sg28
Nsg22
g37
stRp5068
ag3
(g4
g5
(dp5069
g14
S''
sg40
S'name'
p5070
sg18
S''
sg42
S'Domain'
p5071
sg19
S''
sg15
g5070
sg28
Nsg44
S'Graph depot name'
p5072
stRp5073
ag3
(g4
g5
(dp5074
g14
S''
sg40
S'repo'
p5075
sg18
S''
sg42
S'Mapping'
p5076
sg19
S''
sg15
g5075
sg28
Nsg44
S'Repository name'
p5077
stRp5078
ag3
(g4
g5
(dp5079
g14
S''
sg40
S'ref'
p5080
sg18
S''
sg42
S'Mapping'
p5081
sg19
S''
sg15
g5080
sg28
Nsg44
S'Reference'
p5082
stRp5083
ag3
(g4
g5
(dp5084
g14
S''
sg40
S'type'
p5085
sg18
S''
sg42
S'UserType'
p5086
sg19
S''
sg15
g5085
sg28
Nsg44
S'Type of user'
p5087
stRp5088
ag3
(g4
g5
(dp5089
g14
S''
sg40
S'user'
p5090
sg18
S''
sg42
S'UserWild'
p5091
sg19
S''
sg15
g5090
sg28
Nsg44
S'User or Group for permission'
p5092
stRp5093
ag3
(g4
g5
(dp5094
g14
S''
sg40
S'perm'
p5095
sg18
S''
sg42
S'GraphPermType'
p5096
sg19
S''
sg15
g5095
sg28
Nsg44
S'Permission'
p5097
stRp5098
atRp5099
sg68
g5057
sg69
S'0'
sg70
g71
sg44
S'Graph depot permissions'
p5100
sg42
S'GraphPerm'
p5101
sg74
S'81'
p5102
sg40
S'db.graphperm'
p5103
stRp5104
sS'changex'
p5105
g3
(g4
g5
(dp5106
g7
S'change'
p5107
sg9
g3
(g10
g11
(lp5108
g3
(g4
g5
(dp5109
g14
S''
sg15
g16
sg17
g16
sg18
S''
sg19
S''
sg20
g21
sg22
g23
stRp5110
ag3
(g4
g5
(dp5111
g14
S''
sg17
g26
sg18
S''
sg20
g27
sg19
S''
sg15
g26
sg28
Nsg22
g29
stRp5112
ag3
(g4
g5
(dp5113
g14
S''
sg17
g32
sg18
S''
sg20
g21
sg19
S''
sg15
g32
sg28
Nsg22
g33
stRp5114
ag3
(g4
g5
(dp5115
g14
S''
sg17
g36
sg18
S''
sg20
g27
sg19
S''
sg15
g36
sg28
Nsg22
g37
stRp5116
ag3
(g4
g5
(dp5117
g14
S''
sg40
g1057
sg18
S''
sg42
g1058
sg19
S''
sg15
g1057
sg28
Nsg44
g1059
stRp5118
ag3
(g4
g5
(dp5119
g14
S''
sg40
g1062
sg18
S''
sg42
g1063
sg19
S''
sg15
g1062
sg28
Nsg44
g1064
stRp5120
ag3
(g4
g5
(dp5121
g14
S''
sg40
g1067
sg18
S''
sg42
g1068
sg19
S''
sg15
g1067
sg28
Nsg44
g1069
stRp5122
ag3
(g4
g5
(dp5123
g14
S''
sg40
g1072
sg18
S''
sg42
g1073
sg19
S''
sg15
g1072
sg28
Nsg44
g1074
stRp5124
ag3
(g4
g5
(dp5125
g14
S''
sg40
g1077
sg18
S''
sg42
g1078
sg19
S''
sg15
g1077
sg28
Nsg44
g1079
stRp5126
ag3
(g4
g5
(dp5127
g14
S''
sg40
g1082
sg18
S''
sg42
g1083
sg19
S''
sg15
g1082
sg28
Nsg44
g1084
stRp5128
ag3
(g4
g5
(dp5129
g14
S''
sg40
g1087
sg18
S''
sg42
g1088
sg19
S''
sg15
g1087
sg28
Nsg44
g1089
stRp5130
ag3
(g4
g5
(dp5131
g14
S''
sg40
g1092
sg18
S''
sg42
g1093
sg19
S''
sg15
g1092
sg28
Nsg44
g1094
stRp5132
ag3
(g4
g5
(dp5133
g14
S''
sg40
g1097
sg18
S''
sg42
g1098
sg19
S''
sg15
g1097
sg28
Nsg44
g1099
stRp5134
ag3
(g4
g5
(dp5135
g14
S''
sg40
g1102
sg18
S''
sg42
g1103
sg19
S''
sg15
g1102
sg28
Nsg44
g1104
stRp5136
ag3
(g4
g5
(dp5137
g14
S''
sg40
g1107
sg18
S''
sg42
g1108
sg19
S''
sg15
g1107
sg28
Nsg44
g1109
stRp5138
ag3
(g4
g5
(dp5139
g14
S''
sg40
g1112
sg18
S''
sg42
g1113
sg19
S''
sg15
g1112
sg28
Nsg44
g1114
stRp5140
ag3
(g4
g5
(dp5141
g14
S''
sg40
g1117
sg18
S''
sg42
g1118
sg19
S''
sg15
g1117
sg28
Nsg44
g1119
stRp5142
atRp5143
sg68
g5105
sg207
S'contains records for pending changelists only.'
p5144
sg69
S'6'
sg70
g71
sg44
S'Subset of db.change - records for pending changelists only'
p5145
sg42
S'Change'
p5146
sg74
S'73'
p5147
sg40
S'db.changex'
p5148
stRp5149
sS'userrp'
p5150
g3
(g4
g5
(dp5151
g7
S'user'
p5152
sg9
g3
(g10
g11
(lp5153
g3
(g4
g5
(dp5154
g14
S''
sg15
g16
sg17
g16
sg18
S''
sg19
S''
sg20
g21
sg22
g23
stRp5155
ag3
(g4
g5
(dp5156
g14
S''
sg17
g26
sg18
S''
sg20
g27
sg19
S''
sg15
g26
sg28
Nsg22
g29
stRp5157
ag3
(g4
g5
(dp5158
g14
S''
sg17
g32
sg18
S''
sg20
g21
sg19
S''
sg15
g32
sg28
Nsg22
g33
stRp5159
ag3
(g4
g5
(dp5160
g14
S''
sg17
g36
sg18
S''
sg20
g27
sg19
S''
sg15
g36
sg28
Nsg22
g37
stRp5161
ag3
(g4
g5
(dp5162
g14
S''
sg40
g2564
sg18
S''
sg42
g2565
sg19
S''
sg15
g2564
sg28
Nsg44
g2566
stRp5163
ag3
(g4
g5
(dp5164
g14
S''
sg40
g2569
sg18
S''
sg42
g2570
sg19
S''
sg15
g2569
sg28
Nsg44
g2571
stRp5165
ag3
(g4
g5
(dp5166
g14
S''
sg40
g2574
sg18
S''
sg42
g2575
sg19
S''
sg15
g2574
sg28
Nsg44
g2576
stRp5167
ag3
(g4
g5
(dp5168
g14
S''
sg40
g2579
sg18
S''
sg42
g2580
sg19
S''
sg15
g2579
sg28
Nsg44
g2581
stRp5169
ag3
(g4
g5
(dp5170
g14
S''
sg40
g2584
sg18
S''
sg42
g2585
sg19
S''
sg15
g2584
sg28
Nsg44
g2586
stRp5171
ag3
(g4
g5
(dp5172
g14
S''
sg40
g2589
sg18
S''
sg42
g2590
sg19
S''
sg15
g2589
sg28
Nsg44
g2591
stRp5173
ag3
(g4
g5
(dp5174
g14
S''
sg40
g2594
sg18
S''
sg42
g2595
sg19
S''
sg15
g2594
sg28
Nsg44
g2596
stRp5175
ag3
(g4
g5
(dp5176
g14
S''
sg40
g2599
sg18
S''
sg42
g2600
sg19
S''
sg15
g2599
sg28
Nsg44
g2601
stRp5177
ag3
(g4
g5
(dp5178
g14
S''
sg40
g2604
sg18
S''
sg42
g2605
sg19
S''
sg15
g2604
sg28
Nsg44
g2606
stRp5179
ag3
(g4
g5
(dp5180
g14
S''
sg40
g2609
sg18
S''
sg42
g2610
sg19
S''
sg15
g2609
sg28
Nsg44
g2611
stRp5181
ag3
(g4
g5
(dp5182
g14
S''
sg40
g2614
sg18
S''
sg42
g2615
sg19
S''
sg15
g2614
sg28
Nsg44
g2616
stRp5183
ag3
(g4
g5
(dp5184
g14
S''
sg40
g2619
sg18
S''
sg42
g2620
sg19
S''
sg15
g2619
sg28
Nsg44
g2621
stRp5185
ag3
(g4
g5
(dp5186
g14
S''
sg40
g2624
sg18
S''
sg42
g2625
sg19
S''
sg15
g2624
sg28
Nsg44
g2626
stRp5187
ag3
(g4
g5
(dp5188
g14
S''
sg40
g2629
sg18
S''
sg42
g2630
sg19
S''
sg15
g2629
sg28
Nsg44
g2631
stRp5189
ag3
(g4
g5
(dp5190
g14
S''
sg40
g2634
sg18
S''
sg42
g2635
sg19
S''
sg15
g2634
sg28
Nsg44
g2636
stRp5191
atRp5192
sg68
g5150
sg69
S'7'
sg70
g71
sg44
S"Used by replica server's to store login information"
p5193
sg42
S'User'
p5194
sg74
S'14'
p5195
sg40
S'db.user.rp'
p5196
stRp5197
sS'storagesh'
p5198
g3
(g4
g5
(dp5199
g7
S'file, rev, type'
p5200
sg9
g3
(g10
g11
(lp5201
g3
(g4
g5
(dp5202
g14
S''
sg15
g16
sg17
g16
sg18
S''
sg19
S''
sg20
g21
sg22
g23
stRp5203
ag3
(g4
g5
(dp5204
g14
S''
sg17
g26
sg18
S''
sg20
g27
sg19
S''
sg15
g26
sg28
Nsg22
g29
stRp5205
ag3
(g4
g5
(dp5206
g14
S''
sg17
g32
sg18
S''
sg20
g21
sg19
S''
sg15
g32
sg28
Nsg22
g33
stRp5207
ag3
(g4
g5
(dp5208
g14
S''
sg17
g36
sg18
S''
sg20
g27
sg19
S''
sg15
g36
sg28
Nsg22
g37
stRp5209
ag3
(g4
g5
(dp5210
g14
S''
sg40
g3491
sg18
S''
sg42
g3492
sg19
S''
sg15
g3491
sg28
Nsg44
g3493
stRp5211
ag3
(g4
g5
(dp5212
g14
S''
sg40
g3496
sg18
S''
sg42
g3497
sg19
S''
sg15
g3496
sg28
Nsg44
g3498
stRp5213
ag3
(g4
g5
(dp5214
g14
S''
sg40
g3501
sg18
S''
sg42
g3502
sg19
S''
sg15
g3501
sg28
Nsg44
g3503
stRp5215
ag3
(g4
g5
(dp5216
g14
S''
sg40
g3506
sg18
S''
sg42
g3507
sg19
S''
sg15
g3506
sg28
Nsg44
g3508
stRp5217
ag3
(g4
g5
(dp5218
g14
S''
sg40
g3511
sg18
S''
sg42
g3512
sg19
S''
sg15
g3511
sg28
Nsg44
g3513
stRp5219
ag3
(g4
g5
(dp5220
g14
S''
sg40
g3516
sg18
S''
sg42
g3517
sg19
S''
sg15
g3516
sg28
Nsg44
g3518
stRp5221
ag3
(g4
g5
(dp5222
g14
S''
sg40
g3521
sg18
S''
sg42
g3522
sg19
S''
sg15
g3521
sg28
Nsg44
g3523
stRp5223
ag3
(g4
g5
(dp5224
g14
S''
sg40
g3526
sg18
S''
sg42
g3527
sg19
S''
sg15
g3526
sg28
Nsg44
g3528
stRp5225
ag3
(g4
g5
(dp5226
g14
S''
sg40
g3531
sg18
S''
sg42
g3532
sg19
S''
sg15
g3531
sg28
Nsg44
g3533
stRp5227
atRp5228
sg68
g5198
sg69
S'1'
sg70
g71
sg44
S'Track references to shelved archive files'
p5229
sg42
S'Storage'
p5230
sg74
S'46'
p5231
sg40
S'db.storagesh'
p5232
stRp5233
sS'exclg'
p5234
g3
(g4
g5
(dp5235
g7
S'repo, ref, file'
p5236
sg9
g3
(g10
g11
(lp5237
g3
(g4
g5
(dp5238
g14
S''
sg15
g16
sg17
g16
sg18
S''
sg19
S''
sg20
g21
sg22
g23
stRp5239
ag3
(g4
g5
(dp5240
g14
S''
sg17
g26
sg18
S''
sg20
g27
sg19
S''
sg15
g26
sg28
Nsg22
g29
stRp5241
ag3
(g4
g5
(dp5242
g14
S''
sg17
g32
sg18
S''
sg20
g21
sg19
S''
sg15
g32
sg28
Nsg22
g33
stRp5243
ag3
(g4
g5
(dp5244
g14
S''
sg17
g36
sg18
S''
sg20
g27
sg19
S''
sg15
g36
sg28
Nsg22
g37
stRp5245
ag3
(g4
g5
(dp5246
g14
S''
sg40
S'repo'
p5247
sg18
S''
sg42
S'Key'
p5248
sg19
S''
sg15
g5247
sg28
Nsg44
S'The name of the repository on which the lock is applied'
p5249
stRp5250
ag3
(g4
g5
(dp5251
g14
S''
sg40
S'ref'
p5252
sg18
S''
sg42
S'Text'
p5253
sg19
S''
sg15
g5252
sg28
Nsg44
S'The reference on which the lock is applied'
p5254
stRp5255
ag3
(g4
g5
(dp5256
g14
S''
sg40
S'file'
p5257
sg18
S''
sg42
S'File'
p5258
sg19
S''
sg15
g5257
sg28
Nsg44
S'The git file path'
p5259
stRp5260
ag3
(g4
g5
(dp5261
g14
S''
sg40
S'lockId'
p5262
sg18
S''
sg42
S'String'
p5263
sg19
S''
sg15
g5262
sg28
Nsg44
S'The git LFS lock identifier'
p5264
stRp5265
ag3
(g4
g5
(dp5266
g14
S''
sg40
S'user'
p5267
sg18
S''
sg42
S'User'
p5268
sg19
S''
sg15
g5267
sg28
Nsg44
S'The user for which the file is locked'
p5269
stRp5270
ag3
(g4
g5
(dp5271
g14
S''
sg40
S'created'
p5272
sg18
S''
sg42
S'String'
p5273
sg19
S''
sg15
g5272
sg28
Nsg44
S'The lock creation date stored in git data format'
p5274
stRp5275
atRp5276
sg68
g5234
sg69
S'0'
sg70
g71
sg44
S'Graph depot LFS locks'
p5277
sg42
S'ExclG'
p5278
sg74
S'68'
p5279
sg40
S'db.exclg'
p5280
stRp5281
sS'scandir'
p5282
g3
(g4
g5
(dp5283
g7
S'lskey, seq'
p5284
sg9
g3
(g10
g11
(lp5285
g3
(g4
g5
(dp5286
g14
S''
sg15
g16
sg17
g16
sg18
S''
sg19
S''
sg20
g21
sg22
g23
stRp5287
ag3
(g4
g5
(dp5288
g14
S''
sg17
g26
sg18
S''
sg20
g27
sg19
S''
sg15
g26
sg28
Nsg22
g29
stRp5289
ag3
(g4
g5
(dp5290
g14
S''
sg17
g32
sg18
S''
sg20
g21
sg19
S''
sg15
g32
sg28
Nsg22
g33
stRp5291
ag3
(g4
g5
(dp5292
g14
S''
sg17
g36
sg18
S''
sg20
g27
sg19
S''
sg15
g36
sg28
Nsg22
g37
stRp5293
ag3
(g4
g5
(dp5294
g14
S''
sg40
S'lskey'
p5295
sg18
S''
sg42
S'File'
p5296
sg19
S''
sg15
g5295
sg28
Nsg44
S'library scan key'
p5297
stRp5298
ag3
(g4
g5
(dp5299
g14
S''
sg40
S'seq'
p5300
sg18
S''
sg42
S'Int'
p5301
sg19
S''
sg15
g5300
sg28
Nsg44
S'The sequence of the work directory'
p5302
stRp5303
ag3
(g4
g5
(dp5304
g14
S''
sg40
S'file'
p5305
sg18
S''
sg42
S'File'
p5306
sg19
S''
sg15
g5305
sg28
Nsg44
S'The path of the pending work directory'
p5307
stRp5308
atRp5309
sg68
g5282
sg69
S'0'
sg70
g71
sg44
S'Scandir'
p5310
sg42
S'ScanDir'
p5311
sg74
S'44'
p5312
sg40
S'db.scandir'
p5313
stRp5314
sS'viewrp'
p5315
g3
(g4
g5
(dp5316
g7
S'name, seq'
p5317
sg9
g3
(g10
g11
(lp5318
g3
(g4
g5
(dp5319
g14
S''
sg15
g16
sg17
g16
sg18
S''
sg19
S''
sg20
g21
sg22
g23
stRp5320
ag3
(g4
g5
(dp5321
g14
S''
sg17
g26
sg18
S''
sg20
g27
sg19
S''
sg15
g26
sg28
Nsg22
g29
stRp5322
ag3
(g4
g5
(dp5323
g14
S''
sg17
g32
sg18
S''
sg20
g21
sg19
S''
sg15
g32
sg28
Nsg22
g33
stRp5324
ag3
(g4
g5
(dp5325
g14
S''
sg17
g36
sg18
S''
sg20
g27
sg19
S''
sg15
g36
sg28
Nsg22
g37
stRp5326
ag3
(g4
g5
(dp5327
g14
S''
sg40
g2521
sg18
S''
sg42
g2522
sg19
S''
sg15
g2521
sg28
Nsg44
g2523
stRp5328
ag3
(g4
g5
(dp5329
g14
S''
sg40
g2526
sg18
S''
sg42
g2527
sg19
S''
sg15
g2526
sg28
Nsg44
g2528
stRp5330
ag3
(g4
g5
(dp5331
g14
S''
sg40
g2531
sg18
S''
sg42
g2532
sg19
S''
sg15
g2531
sg28
Nsg44
g2533
stRp5332
ag3
(g4
g5
(dp5333
g14
S''
sg40
g2536
sg18
S''
sg42
g2537
sg19
S''
sg15
g2536
sg28
Nsg44
g2538
stRp5334
ag3
(g4
g5
(dp5335
g14
S''
sg40
g2541
sg18
S''
sg42
g2542
sg19
S''
sg15
g2541
sg28
Nsg44
g2543
stRp5336
atRp5337
sg68
g5315
sg69
S'1'
sg70
g71
sg44
S'View data for clients of build-server replicas'
p5338
sg42
S'View'
p5339
sg74
S'27'
p5340
sg40
S'db.view.rp'
p5341
stRp5342
s.