(dp1
S'domain'
p2
ccopy_reg
_reconstructor
p3
(clib.sqUtils
Storage
p4
c__builtin__
dict
p5
(dp6
S'keying'
p7
S'name'
p8
sS'fields'
p9
g3
(clib.sqUtils
Lst
p10
c__builtin__
list
p11
(lp12
g3
(g4
g5
(dp13
S'comment'
p14
S''
sS'fieldname'
p15
S'id'
p16
sS'name'
p17
g16
sS'default'
p18
S''
sS'label'
p19
S''
sS'type'
p20
S'integer'
p21
sS'desc'
p22
S'Record number as read in'
p23
stRp24
ag3
(g4
g5
(dp25
g14
S''
sg17
S'db_action'
p26
sg18
S''
sg20
S'string'
p27
sg19
S''
sg15
g26
sS'requires'
p28
Nsg22
S'Operation on table'
p29
stRp30
ag3
(g4
g5
(dp31
g14
S''
sg17
S'table_revision'
p32
sg18
S''
sg20
g21
sg19
S''
sg15
g32
sg28
Nsg22
S'Revision of the p4 schema table'
p33
stRp34
ag3
(g4
g5
(dp35
g14
S''
sg17
S'table_name'
p36
sg18
S''
sg20
g27
sg19
S''
sg15
g36
sg28
Nsg22
S'Redundant... but this is the table name'
p37
stRp38
ag3
(g4
g5
(dp39
g14
S''
sS'name'
p40
S'name'
p41
sg18
S''
sS'type'
p42
S'Domain'
p43
sg19
S''
sg15
g41
sg28
NsS'desc'
p44
S'Domain name'
p45
stRp46
ag3
(g4
g5
(dp47
g14
S''
sg40
S'type'
p48
sg18
S''
sg42
S'DomainType'
p49
sg19
S''
sg15
g48
sg28
Nsg44
S'Type of domain'
p50
stRp51
ag3
(g4
g5
(dp52
g14
S''
sg40
S'extra'
p53
sg18
S''
sg42
S'Text'
p54
sg19
S''
sg15
g53
sg28
Nsg44
S'Formerly "host". Associated host or, for labels, revision \n\t\t    number.'
p55
stRp56
ag3
(g4
g5
(dp57
g14
S''
sg40
S'mount'
p58
sg18
S''
sg42
S'Text'
p59
sg19
S''
sg15
g58
sg28
Nsg44
S'The client root'
p60
stRp61
ag3
(g4
g5
(dp62
g14
S''
sg40
S'mount2'
p63
sg18
S''
sg42
S'Text'
p64
sg19
S''
sg15
g63
sg28
Nsg44
S'Alternate client root'
p65
stRp66
ag3
(g4
g5
(dp67
g14
S''
sg40
S'mount3'
p68
sg18
S''
sg42
S'Text'
p69
sg19
S''
sg15
g68
sg28
Nsg44
S'Alternate client root'
p70
stRp71
ag3
(g4
g5
(dp72
g14
S''
sg40
S'owner'
p73
sg18
S''
sg42
S'User'
p74
sg19
S''
sg15
g73
sg28
Nsg44
S'Name of user who owns the domain.'
p75
stRp76
ag3
(g4
g5
(dp77
g14
S''
sg40
S'updateDate'
p78
sg18
S''
sg42
S'Date'
p79
sg19
S''
sg15
g78
sg28
Nsg44
S'Date of last update to domain specification.'
p80
stRp81
ag3
(g4
g5
(dp82
g14
S''
sg40
S'accessDate'
p83
sg18
S''
sg42
S'Date'
p84
sg19
S''
sg15
g83
sg28
Nsg44
S'Date of last access to domain specification.'
p85
stRp86
ag3
(g4
g5
(dp87
g14
S''
sg40
S'options'
p88
sg18
S''
sg42
S'DomainOpts'
p89
sg19
S''
sg15
g88
sg28
Nsg44
S'Options for client, label, and branch domains.'
p90
stRp91
ag3
(g4
g5
(dp92
g14
S''
sg40
S'description'
p93
sg18
S''
sg42
S'Text'
p94
sg19
S''
sg15
g93
sg28
Nsg44
S'Description of domain.'
p95
stRp96
atRp97
sS'tablename'
p98
g2
sS'version'
p99
S'5'
sS'schemaversion'
p100
S'2009.2'
p101
sg44
S'Domains: depots, clients, labels, branches and typemap'
p102
sg42
S'Domain'
p103
sS'lockseq'
p104
S'6'
sg40
S'db.domain'
p105
stRp106
sS'fixrev'
p107
g3
(g4
g5
(dp108
g7
S'change, job'
p109
sg9
g3
(g10
g11
(lp110
g3
(g4
g5
(dp111
g14
S''
sg15
g16
sg17
g16
sg18
S''
sg19
S''
sg20
g21
sg22
g23
stRp112
ag3
(g4
g5
(dp113
g14
S''
sg17
g26
sg18
S''
sg20
g27
sg19
S''
sg15
g26
sg28
Nsg22
g29
stRp114
ag3
(g4
g5
(dp115
g14
S''
sg17
g32
sg18
S''
sg20
g21
sg19
S''
sg15
g32
sg28
Nsg22
g33
stRp116
ag3
(g4
g5
(dp117
g14
S''
sg17
g36
sg18
S''
sg20
g27
sg19
S''
sg15
g36
sg28
Nsg22
g37
stRp118
ag3
(g4
g5
(dp119
g14
S''
sg40
S'job'
p120
sg18
S''
sg42
S'String'
p121
sg19
S''
sg15
g120
sg28
Nsg44
S'Job name'
p122
stRp123
ag3
(g4
g5
(dp124
g14
S''
sg40
S'change'
p125
sg18
S''
sg42
S'Change'
p126
sg19
S''
sg15
g125
sg28
Nsg44
S'Changelist number'
p127
stRp128
ag3
(g4
g5
(dp129
g14
S''
sg40
S'date'
p130
sg18
S''
sg42
S'Date'
p131
sg19
S''
sg15
g130
sg28
Nsg44
S'Date fix was recorded (may differ from date change was\n\t\t    submitted).'
p132
stRp133
ag3
(g4
g5
(dp134
g14
S''
sg40
S'status'
p135
sg18
S''
sg42
S'FixStatus'
p136
sg19
S''
sg15
g135
sg28
Nsg44
S'Status of the job'
p137
stRp138
ag3
(g4
g5
(dp139
g14
S''
sg40
S'client'
p140
sg18
S''
sg42
S'Domain'
p141
sg19
S''
sg15
g140
sg28
Nsg44
S'The client where the fix originated'
p142
stRp143
ag3
(g4
g5
(dp144
g14
S''
sg40
S'user'
p145
sg18
S''
sg42
S'User'
p146
sg19
S''
sg15
g145
sg28
Nsg44
S'The user who fixed the job'
p147
stRp148
atRp149
sg98
g107
sg40
S'db.fixrev'
p150
sg99
S'1'
sg100
g101
sS'seeAlso'
p151
S'db.fix'
p152
sg42
S'Fix'
p153
sg104
S'37'
p154
sg44
S'Fix records - indexed by change'
p155
stRp156
sS'traits'
p157
g3
(g4
g5
(dp158
g7
S'traitLot, name'
p159
sg9
g3
(g10
g11
(lp160
g3
(g4
g5
(dp161
g14
S''
sg15
g16
sg17
g16
sg18
S''
sg19
S''
sg20
g21
sg22
g23
stRp162
ag3
(g4
g5
(dp163
g14
S''
sg17
g26
sg18
S''
sg20
g27
sg19
S''
sg15
g26
sg28
Nsg22
g29
stRp164
ag3
(g4
g5
(dp165
g14
S''
sg17
g32
sg18
S''
sg20
g21
sg19
S''
sg15
g32
sg28
Nsg22
g33
stRp166
ag3
(g4
g5
(dp167
g14
S''
sg17
g36
sg18
S''
sg20
g27
sg19
S''
sg15
g36
sg28
Nsg22
g37
stRp168
ag3
(g4
g5
(dp169
g14
S''
sg40
S'traitLot'
p170
sg18
S''
sg42
S'Int'
p171
sg19
S''
sg15
g170
sg28
Nsg44
S'Indicates a specific collection of traits (referred to \n\t\t    externally as "attributes".)'
p172
stRp173
ag3
(g4
g5
(dp174
g14
S''
sg40
S'name'
p175
sg18
S''
sg42
S'String'
p176
sg19
S''
sg15
g175
sg28
Nsg44
S'Trait (attribute) name'
p177
stRp178
ag3
(g4
g5
(dp179
g14
S''
sg40
S'type'
p180
sg18
S''
sg42
S'TraitType'
p181
sg19
S''
sg15
g180
sg28
Nsg44
S'Type of trait'
p182
stRp183
ag3
(g4
g5
(dp184
g14
S''
sg40
S'value'
p185
sg18
S''
sg42
S'Octet String'
p186
sg19
S''
sg15
g185
sg28
Nsg44
S'The value'
p187
stRp188
atRp189
sg98
g157
sg99
S'0'
sg100
g101
sg44
S'Attributes associated with file revisions'
p190
sg42
S'Trait'
p191
sg104
S'27'
p192
sg40
S'db.traits'
p193
stRp194
sS'have'
p195
g3
(g4
g5
(dp196
g7
S'clientFile'
p197
sg9
g3
(g10
g11
(lp198
g3
(g4
g5
(dp199
g14
S''
sg15
g16
sg17
g16
sg18
S''
sg19
S''
sg20
g21
sg22
g23
stRp200
ag3
(g4
g5
(dp201
g14
S''
sg17
g26
sg18
S''
sg20
g27
sg19
S''
sg15
g26
sg28
Nsg22
g29
stRp202
ag3
(g4
g5
(dp203
g14
S''
sg17
g32
sg18
S''
sg20
g21
sg19
S''
sg15
g32
sg28
Nsg22
g33
stRp204
ag3
(g4
g5
(dp205
g14
S''
sg17
g36
sg18
S''
sg20
g27
sg19
S''
sg15
g36
sg28
Nsg22
g37
stRp206
ag3
(g4
g5
(dp207
g14
S''
sg40
S'clientFile'
p208
sg18
S''
sg42
S'File'
p209
sg19
S''
sg15
g208
sg28
Nsg44
S'The file in its location on the client'
p210
stRp211
ag3
(g4
g5
(dp212
g14
S''
sg40
S'depotFile'
p213
sg18
S''
sg42
S'File'
p214
sg19
S''
sg15
g213
sg28
Nsg44
S'The file in the depot'
p215
stRp216
ag3
(g4
g5
(dp217
g14
S''
sg40
S'haveRev'
p218
sg18
S''
sg42
S'Rev'
p219
sg19
S''
sg15
g218
sg28
Nsg44
S'The revision synced to the client'
p220
stRp221
ag3
(g4
g5
(dp222
g14
S''
sg40
S'type'
p223
sg18
S''
sg42
S'FileType'
p224
sg19
S''
sg15
g223
sg28
Nsg44
S'The filetype of the synced revision'
p225
stRp226
atRp227
sg98
g195
sg99
S'2'
sg100
g101
sg44
S"Contains the 'have-list' for all clients"
p228
sg42
S'Have'
p229
sg104
S'13'
p230
sg40
S'db.have'
p231
stRp232
sS'ixtext'
p233
g3
(g4
g5
(dp234
g7
S'word, attr, value'
p235
sg9
g3
(g10
g11
(lp236
g3
(g4
g5
(dp237
g14
S''
sg15
g16
sg17
g16
sg18
S''
sg19
S''
sg20
g21
sg22
g23
stRp238
ag3
(g4
g5
(dp239
g14
S''
sg17
g26
sg18
S''
sg20
g27
sg19
S''
sg15
g26
sg28
Nsg22
g29
stRp240
ag3
(g4
g5
(dp241
g14
S''
sg17
g32
sg18
S''
sg20
g21
sg19
S''
sg15
g32
sg28
Nsg22
g33
stRp242
ag3
(g4
g5
(dp243
g14
S''
sg17
g36
sg18
S''
sg20
g27
sg19
S''
sg15
g36
sg28
Nsg22
g37
stRp244
ag3
(g4
g5
(dp245
g14
S''
sg40
S'word'
p246
sg18
S''
sg42
S'String'
p247
sg19
S''
sg15
g246
sg28
Nsg44
S'The word being indexed'
p248
stRp249
ag3
(g4
g5
(dp250
g14
S''
sg40
S'attr'
p251
sg18
S''
sg42
S'Int'
p252
sg19
S''
sg15
g251
sg28
Nsg44
S'The attribute number (from the jobspec) to which this\n\t\t    word belongs'
p253
stRp254
ag3
(g4
g5
(dp255
g14
S''
sg40
S'value'
p256
sg18
S''
sg42
S'String'
p257
sg19
S''
sg15
g256
sg28
Nsg44
S'A job name'
p258
stRp259
atRp260
sg98
g233
sg99
S'0'
sg100
g101
sg44
S'Indexing data for job attributes.'
p261
sg42
S'IndexText'
p262
sg104
S'41'
p263
sg40
S'db.ixtext'
p264
stRp265
sS'message'
p266
g3
(g4
g5
(dp267
g7
S'language, id'
p268
sg9
g3
(g10
g11
(lp269
g3
(g4
g5
(dp270
g14
S''
sg15
g16
sg17
g16
sg18
S''
sg19
S''
sg20
g21
sg22
g23
stRp271
ag3
(g4
g5
(dp272
g14
S''
sg17
g26
sg18
S''
sg20
g27
sg19
S''
sg15
g26
sg28
Nsg22
g29
stRp273
ag3
(g4
g5
(dp274
g14
S''
sg17
g32
sg18
S''
sg20
g21
sg19
S''
sg15
g32
sg28
Nsg22
g33
stRp275
ag3
(g4
g5
(dp276
g14
S''
sg17
g36
sg18
S''
sg20
g27
sg19
S''
sg15
g36
sg28
Nsg22
g37
stRp277
ag3
(g4
g5
(dp278
g14
S''
sg40
S'language'
p279
sg18
S''
sg42
S'String'
p280
sg19
S''
sg15
g279
sg28
Nsg44
S'The language for which this message applies'
p281
stRp282
ag3
(g4
g5
(dp283
g14
S''
sg40
S'id'
p284
sg18
S''
sg42
S'Int'
p285
sg19
S''
sg15
g284
sg28
Nsg44
S'The message number'
p286
stRp287
ag3
(g4
g5
(dp288
g14
S''
sg40
S'message'
p289
sg18
S''
sg42
S'String'
p290
sg19
S''
sg15
g289
sg28
Nsg44
S'The message text'
p291
stRp292
atRp293
sg98
g266
sg99
S'0'
sg100
g101
sg44
S'System messages'
p294
sg42
S'Message'
p295
sg104
S'43'
p296
sg40
S'db.message'
p297
stRp298
sS'label'
p299
g3
(g4
g5
(dp300
g7
S'name, depotFile'
p301
sg9
g3
(g10
g11
(lp302
g3
(g4
g5
(dp303
g14
S''
sg15
g16
sg17
g16
sg18
S''
sg19
S''
sg20
g21
sg22
g23
stRp304
ag3
(g4
g5
(dp305
g14
S''
sg17
g26
sg18
S''
sg20
g27
sg19
S''
sg15
g26
sg28
Nsg22
g29
stRp306
ag3
(g4
g5
(dp307
g14
S''
sg17
g32
sg18
S''
sg20
g21
sg19
S''
sg15
g32
sg28
Nsg22
g33
stRp308
ag3
(g4
g5
(dp309
g14
S''
sg17
g36
sg18
S''
sg20
g27
sg19
S''
sg15
g36
sg28
Nsg22
g37
stRp310
ag3
(g4
g5
(dp311
g14
S''
sg40
S'name'
p312
sg18
S''
sg42
S'Domain'
p313
sg19
S''
sg15
g312
sg28
Nsg44
S'Name of the label'
p314
stRp315
ag3
(g4
g5
(dp316
g14
S''
sg40
S'depotFile'
p317
sg18
S''
sg42
S'File'
p318
sg19
S''
sg15
g317
sg28
Nsg44
S'File name'
p319
stRp320
ag3
(g4
g5
(dp321
g14
S''
sg40
S'haveRev'
p322
sg18
S''
sg42
S'Rev'
p323
sg19
S''
sg15
g322
sg28
Nsg44
S'The revision of the file in the label'
p324
stRp325
atRp326
sg98
g299
sg99
S'0'
sg100
g101
sg44
S'Lists the revisions of files in labels.'
p327
sg42
S'Label'
p328
sg104
S'14'
p329
sg40
S'db.label'
p330
stRp331
sS'jobdesc'
p332
g3
(g4
g5
(dp333
g7
S'job'
p334
sg9
g3
(g10
g11
(lp335
g3
(g4
g5
(dp336
g14
S''
sg15
g16
sg17
g16
sg18
S''
sg19
S''
sg20
g21
sg22
g23
stRp337
ag3
(g4
g5
(dp338
g14
S''
sg17
g26
sg18
S''
sg20
g27
sg19
S''
sg15
g26
sg28
Nsg22
g29
stRp339
ag3
(g4
g5
(dp340
g14
S''
sg17
g32
sg18
S''
sg20
g21
sg19
S''
sg15
g32
sg28
Nsg22
g33
stRp341
ag3
(g4
g5
(dp342
g14
S''
sg17
g36
sg18
S''
sg20
g27
sg19
S''
sg15
g36
sg28
Nsg22
g37
stRp343
ag3
(g4
g5
(dp344
g14
S''
sg40
S'xjob'
p345
sg18
S''
sg42
S'String'
p346
sg19
S''
sg15
g345
sg28
Nsg44
S'The job name'
p347
stRp348
ag3
(g4
g5
(dp349
g14
S''
sg40
S'xdescription'
p350
sg18
S''
sg42
S'Text'
p351
sg19
S''
sg15
g350
sg28
Nsg44
S'Jobdescription'
p352
stRp353
atRp354
sg98
g332
sg40
S'db.jobdesc'
p355
sg99
S'0'
sg100
g101
sg151
S'db.bodtext'
p356
sg42
S'JobDesc'
p357
sg104
S'35'
p358
sg44
S'Obsolete in 98.2'
p359
stRp360
sS'group'
p361
g3
(g4
g5
(dp362
g7
S'user, group'
p363
sg9
g3
(g10
g11
(lp364
g3
(g4
g5
(dp365
g14
S''
sg15
g16
sg17
g16
sg18
S''
sg19
S''
sg20
g21
sg22
g23
stRp366
ag3
(g4
g5
(dp367
g14
S''
sg17
g26
sg18
S''
sg20
g27
sg19
S''
sg15
g26
sg28
Nsg22
g29
stRp368
ag3
(g4
g5
(dp369
g14
S''
sg17
g32
sg18
S''
sg20
g21
sg19
S''
sg15
g32
sg28
Nsg22
g33
stRp370
ag3
(g4
g5
(dp371
g14
S''
sg17
g36
sg18
S''
sg20
g27
sg19
S''
sg15
g36
sg28
Nsg22
g37
stRp372
ag3
(g4
g5
(dp373
g14
S''
sg40
S'user'
p374
sg18
S''
sg42
S'User'
p375
sg19
S''
sg15
g374
sg28
Nsg44
S'User name'
p376
stRp377
ag3
(g4
g5
(dp378
g14
S''
sg40
S'group'
p379
sg18
S''
sg42
S'User'
p380
sg19
S''
sg15
g379
sg28
Nsg44
S'Group name'
p381
stRp382
ag3
(g4
g5
(dp383
g14
S''
sg40
S'type'
p384
sg18
S''
sg42
S'UserType'
p385
sg19
S''
sg15
g384
sg28
Nsg44
S'Type of user in this group.'
p386
stRp387
ag3
(g4
g5
(dp388
g14
S''
sg40
S'maxResults'
p389
sg18
S''
sg42
S'MaxResults'
p390
sg19
S''
sg15
g389
sg28
Nsg44
S'MaxResults setting for the group.'
p391
stRp392
ag3
(g4
g5
(dp393
g14
S''
sg40
S'maxScanRows'
p394
sg18
S''
sg42
S'MaxScanRows'
p395
sg19
S''
sg15
g394
sg28
Nsg44
S'MaxScanRows setting for the group.'
p396
stRp397
ag3
(g4
g5
(dp398
g14
S''
sg40
S'maxLockTime'
p399
sg18
S''
sg42
S'MaxLockTime'
p400
sg19
S''
sg15
g399
sg28
Nsg44
S'MaxLockTime setting for the group.'
p401
stRp402
ag3
(g4
g5
(dp403
g14
S''
sg40
S'timeout'
p404
sg18
S''
sg42
S'Int'
p405
sg19
S''
sg15
g404
sg28
Nsg44
S'Length of time (in seconds) a login ticket remains valid.'
p406
stRp407
atRp408
sg98
g361
sg99
S'7'
sg100
g101
sg44
S'Lists groups known to Perforce'
p409
sg42
S'Group'
p410
sg104
S'4'
sg40
S'db.group'
p411
stRp412
sS'monitor'
p413
g3
(g4
g5
(dp414
g7
S'id'
p415
sg9
g3
(g10
g11
(lp416
g3
(g4
g5
(dp417
g14
S''
sg15
g16
sg17
g16
sg18
S''
sg19
S''
sg20
g21
sg22
g23
stRp418
ag3
(g4
g5
(dp419
g14
S''
sg17
g26
sg18
S''
sg20
g27
sg19
S''
sg15
g26
sg28
Nsg22
g29
stRp420
ag3
(g4
g5
(dp421
g14
S''
sg17
g32
sg18
S''
sg20
g21
sg19
S''
sg15
g32
sg28
Nsg22
g33
stRp422
ag3
(g4
g5
(dp423
g14
S''
sg17
g36
sg18
S''
sg20
g27
sg19
S''
sg15
g36
sg28
Nsg22
g37
stRp424
ag3
(g4
g5
(dp425
g14
S''
sg40
S'id'
p426
sg18
S''
sg42
S'Int'
p427
sg19
S''
sg15
g426
sg28
Nsg44
S'Thread/process id'
p428
stRp429
ag3
(g4
g5
(dp430
g14
S''
sg40
S'user'
p431
sg18
S''
sg42
S'User'
p432
sg19
S''
sg15
g431
sg28
Nsg44
S'Username of the user running the command'
p433
stRp434
ag3
(g4
g5
(dp435
g14
S''
sg40
S'function'
p436
sg18
S''
sg42
S'String'
p437
sg19
S''
sg15
g436
sg28
Nsg44
S'The command being executed.'
p438
stRp439
ag3
(g4
g5
(dp440
g14
S''
sg40
S'args'
p441
sg18
S''
sg42
S'String'
p442
sg19
S''
sg15
g441
sg28
Nsg44
S'Arguments passed to the command'
p443
stRp444
ag3
(g4
g5
(dp445
g14
S''
sg40
S'startDate'
p446
sg18
S''
sg42
S'Date'
p447
sg19
S''
sg15
g446
sg28
Nsg44
S'The date and time the command started'
p448
stRp449
ag3
(g4
g5
(dp450
g14
S''
sg40
S'runstate'
p451
sg18
S''
sg42
S'Int'
p452
sg19
S''
sg15
g451
sg28
Nsg44
S'Flag: 0 for running, 1 for terminated'
p453
stRp454
ag3
(g4
g5
(dp455
g14
S''
sg40
S'client'
p456
sg18
S''
sg42
S'Domain'
p457
sg19
S''
sg15
g456
sg28
Nsg44
S'The client workspace'
p458
stRp459
ag3
(g4
g5
(dp460
g14
S''
sg40
S'host'
p461
sg18
S''
sg42
S'Text'
p462
sg19
S''
sg15
g461
sg28
Nsg44
S'The IP address of the client'
p463
stRp464
ag3
(g4
g5
(dp465
g14
S''
sg40
S'prog'
p466
sg18
S''
sg42
S'Text'
p467
sg19
S''
sg15
g466
sg28
Nsg44
S'The name (and version) of the client program'
p468
stRp469
atRp470
sg98
g413
sg99
S'1'
sg100
g101
sg44
S'System messages'
p471
sg42
S'Monitor'
p472
sg104
S'44'
p473
sg40
S'db.monitor'
p474
stRp475
sS'working'
p476
g3
(g4
g5
(dp477
g7
S'clientFile'
p478
sg9
g3
(g10
g11
(lp479
g3
(g4
g5
(dp480
g14
S''
sg15
g16
sg17
g16
sg18
S''
sg19
S''
sg20
g21
sg22
g23
stRp481
ag3
(g4
g5
(dp482
g14
S''
sg17
g26
sg18
S''
sg20
g27
sg19
S''
sg15
g26
sg28
Nsg22
g29
stRp483
ag3
(g4
g5
(dp484
g14
S''
sg17
g32
sg18
S''
sg20
g21
sg19
S''
sg15
g32
sg28
Nsg22
g33
stRp485
ag3
(g4
g5
(dp486
g14
S''
sg17
g36
sg18
S''
sg20
g27
sg19
S''
sg15
g36
sg28
Nsg22
g37
stRp487
ag3
(g4
g5
(dp488
g14
S''
sg40
S'clientFile'
p489
sg18
S''
sg42
S'File'
p490
sg19
S''
sg15
g489
sg28
Nsg44
S'File on the client'
p491
stRp492
ag3
(g4
g5
(dp493
g14
S''
sg40
S'depotFile'
p494
sg18
S''
sg42
S'File'
p495
sg19
S''
sg15
g494
sg28
Nsg44
S'File in the depot'
p496
stRp497
ag3
(g4
g5
(dp498
g14
S''
sg40
S'client'
p499
sg18
S''
sg42
S'Domain'
p500
sg19
S''
sg15
g499
sg28
Nsg44
S'The client the file is opened on'
p501
stRp502
ag3
(g4
g5
(dp503
g14
S''
sg40
S'user'
p504
sg18
S''
sg42
S'User'
p505
sg19
S''
sg15
g504
sg28
Nsg44
S'The user who has the file opened'
p506
stRp507
ag3
(g4
g5
(dp508
g14
S''
sg40
S'haveRev'
p509
sg18
S''
sg42
S'Rev'
p510
sg19
S''
sg15
g509
sg28
Nsg44
S"Revision presently in user's client workspace.  This is \n\t\t    normally identical to workRev except for the case in which \n\t\t    you've tried to submit a file where you no longer have the \n\t\t    head revision. Perforce schedules the integrate (moves \n\t\t    workRev to headRev, but doesn't change the haveRev, so that \n\t\t    a p4 revert will return the file originally checked-out \n\t\t    instead of the new head revision."
p511
stRp512
ag3
(g4
g5
(dp513
g14
S''
sg40
S'workRev'
p514
sg18
S''
sg42
S'Rev'
p515
sg19
S''
sg15
g514
sg28
Nsg44
S'Working revision; this is identical to the haveRev except \n\t\t    in the case described above.'
p516
stRp517
ag3
(g4
g5
(dp518
g14
S''
sg40
S'isVirtual'
p519
sg18
S''
sg42
S'Int'
p520
sg19
S''
sg15
g519
sg28
Nsg44
S'Flag: if 1, file was opened with "p4 integ -v".'
p521
stRp522
ag3
(g4
g5
(dp523
g14
S''
sg40
S'type'
p524
sg18
S''
sg42
S'FileType'
p525
sg19
S''
sg15
g524
sg28
Nsg44
S'File type'
p526
stRp527
ag3
(g4
g5
(dp528
g14
S''
sg40
S'action'
p529
sg18
S''
sg42
S'Action'
p530
sg19
S''
sg15
g529
sg28
Nsg44
S"What the user's doing with the file"
p531
stRp532
ag3
(g4
g5
(dp533
g14
S''
sg40
S'change'
p534
sg18
S''
sg42
S'Change'
p535
sg19
S''
sg15
g534
sg28
Nsg44
S'Associated changelist, or zero for the default changelist.'
p536
stRp537
ag3
(g4
g5
(dp538
g14
S''
sg40
S'modTime'
p539
sg18
S''
sg42
S'Date'
p540
sg19
S''
sg15
g539
sg28
Nsg44
S'Date when file was opened and added to the pending \n\t\t    changelist.'
p541
stRp542
ag3
(g4
g5
(dp543
g14
S''
sg40
S'isLocked'
p544
sg18
S''
sg42
S'Int'
p545
sg19
S''
sg15
g544
sg28
Nsg44
S'Flag: 0 for unlocked, 1 for locked.'
p546
stRp547
ag3
(g4
g5
(dp548
g14
S''
sg40
S'digest'
p549
sg18
S''
sg42
S'Digest'
p550
sg19
S''
sg15
g549
sg28
Nsg44
S'MD5 digest of working file.'
p551
stRp552
ag3
(g4
g5
(dp553
g14
S''
sg40
S'size'
p554
sg18
S''
sg42
S'Int64'
p555
sg19
S''
sg15
g554
sg28
Nsg44
S'File size'
p556
stRp557
ag3
(g4
g5
(dp558
g14
S''
sg40
S'traitLot'
p559
sg18
S''
sg42
S'int'
p560
sg19
S''
sg15
g559
sg28
Nsg44
S'Group of traits associated with file revision.'
p561
stRp562
ag3
(g4
g5
(dp563
g14
S''
sg40
S'tampered'
p564
sg18
S''
sg42
S'TamperCheck'
p565
sg19
S''
sg15
g564
sg28
Nsg44
S'Flag indicating the tamper-state of the file in the\n\t\t    workspace.'
p566
stRp567
ag3
(g4
g5
(dp568
g14
S''
sg40
S'clntType'
p569
sg18
S''
sg42
S'FileType'
p570
sg19
S''
sg15
g569
sg28
Nsg44
S'Type of the file in the client workspace.'
p571
stRp572
ag3
(g4
g5
(dp573
g14
S''
sg40
S'mFile'
p574
sg18
S''
sg42
S'File'
p575
sg19
S''
sg15
g574
sg28
Nsg44
S'Moved filename'
p576
stRp577
atRp578
sg98
g476
sg99
S'9'
sg100
g101
sg44
S'Records for work in progress'
p579
sg42
S'Working'
p580
sg104
S'25'
p581
sg40
S'db.working'
p582
stRp583
sS'fix'
p584
g3
(g4
g5
(dp585
g7
S'job, change'
p586
sg9
g3
(g10
g11
(lp587
g3
(g4
g5
(dp588
g14
S''
sg15
g16
sg17
g16
sg18
S''
sg19
S''
sg20
g21
sg22
g23
stRp589
ag3
(g4
g5
(dp590
g14
S''
sg17
g26
sg18
S''
sg20
g27
sg19
S''
sg15
g26
sg28
Nsg22
g29
stRp591
ag3
(g4
g5
(dp592
g14
S''
sg17
g32
sg18
S''
sg20
g21
sg19
S''
sg15
g32
sg28
Nsg22
g33
stRp593
ag3
(g4
g5
(dp594
g14
S''
sg17
g36
sg18
S''
sg20
g27
sg19
S''
sg15
g36
sg28
Nsg22
g37
stRp595
ag3
(g4
g5
(dp596
g14
S''
sg40
g120
sg18
S''
sg42
g121
sg19
S''
sg15
g120
sg28
Nsg44
g122
stRp597
ag3
(g4
g5
(dp598
g14
S''
sg40
g125
sg18
S''
sg42
g126
sg19
S''
sg15
g125
sg28
Nsg44
g127
stRp599
ag3
(g4
g5
(dp600
g14
S''
sg40
g130
sg18
S''
sg42
g131
sg19
S''
sg15
g130
sg28
Nsg44
g132
stRp601
ag3
(g4
g5
(dp602
g14
S''
sg40
g135
sg18
S''
sg42
g136
sg19
S''
sg15
g135
sg28
Nsg44
g137
stRp603
ag3
(g4
g5
(dp604
g14
S''
sg40
g140
sg18
S''
sg42
g141
sg19
S''
sg15
g140
sg28
Nsg44
g142
stRp605
ag3
(g4
g5
(dp606
g14
S''
sg40
g145
sg18
S''
sg42
g146
sg19
S''
sg15
g145
sg28
Nsg44
g147
stRp607
atRp608
sg98
g584
sg40
S'db.fix'
p609
sg99
S'1'
sg100
g101
sg151
S'db.fixrev'
p610
sg42
S'Fix'
p611
sg104
S'36'
p612
sg44
S'Fix records - indexed by job'
p613
stRp614
sS'rev'
p615
g3
(g4
g5
(dp616
g7
S'depotFile, depotRev'
p617
sg9
g3
(g10
g11
(lp618
g3
(g4
g5
(dp619
g14
S''
sg15
g16
sg17
g16
sg18
S''
sg19
S''
sg20
g21
sg22
g23
stRp620
ag3
(g4
g5
(dp621
g14
S''
sg17
g26
sg18
S''
sg20
g27
sg19
S''
sg15
g26
sg28
Nsg22
g29
stRp622
ag3
(g4
g5
(dp623
g14
S''
sg17
g32
sg18
S''
sg20
g21
sg19
S''
sg15
g32
sg28
Nsg22
g33
stRp624
ag3
(g4
g5
(dp625
g14
S''
sg17
g36
sg18
S''
sg20
g27
sg19
S''
sg15
g36
sg28
Nsg22
g37
stRp626
ag3
(g4
g5
(dp627
g14
S''
sg40
S'depotFile'
p628
sg18
S''
sg42
S'File'
p629
sg19
S''
sg15
g628
sg28
Nsg44
S'The file name'
p630
stRp631
ag3
(g4
g5
(dp632
g14
S''
sg40
S'depotRev'
p633
sg18
S''
sg42
S'Rev'
p634
sg19
S''
sg15
g633
sg28
Nsg44
S'The revision number'
p635
stRp636
ag3
(g4
g5
(dp637
g14
S''
sg40
S'type'
p638
sg18
S''
sg42
S'FileType'
p639
sg19
S''
sg15
g638
sg28
Nsg44
S'The file type of the revision'
p640
stRp641
ag3
(g4
g5
(dp642
g14
S''
sg40
S'action'
p643
sg18
S''
sg42
S'Action'
p644
sg19
S''
sg15
g643
sg28
Nsg44
S'The action that created the revision'
p645
stRp646
ag3
(g4
g5
(dp647
g14
S''
sg40
S'change'
p648
sg18
S''
sg42
S'Change'
p649
sg19
S''
sg15
g648
sg28
Nsg44
S'The changelist that created the revision'
p650
stRp651
ag3
(g4
g5
(dp652
g14
S''
sg40
S'date'
p653
sg18
S''
sg42
S'Date'
p654
sg19
S''
sg15
g653
sg28
Nsg44
S'The date/time the changelist that created the revision\n\t\t    was submitted'
p655
stRp656
ag3
(g4
g5
(dp657
g14
S''
sg40
S'modTime'
p658
sg18
S''
sg42
S'Date'
p659
sg19
S''
sg15
g658
sg28
Nsg44
S"The timestamp on the file in the user's workspace when\n\t\t    the revision was submitted."
p660
stRp661
ag3
(g4
g5
(dp662
g14
S''
sg40
S'digest'
p663
sg18
S''
sg42
S'Digest'
p664
sg19
S''
sg15
g663
sg28
Nsg44
S'The MD5 digest of the revision.'
p665
stRp666
ag3
(g4
g5
(dp667
g14
S''
sg40
S'size'
p668
sg18
S''
sg42
S'FileSize'
p669
sg19
S''
sg15
g668
sg28
Nsg44
S'The size of the file in bytes'
p670
stRp671
ag3
(g4
g5
(dp672
g14
S''
sg40
S'traitLot'
p673
sg18
S''
sg42
S'TraitLot'
p674
sg19
S''
sg15
g673
sg28
Nsg44
S'Group of traits (attributes) associated with the revision.'
p675
stRp676
ag3
(g4
g5
(dp677
g14
S''
sg40
S'lbrIsLazy'
p678
sg18
S''
sg42
S'Int'
p679
sg19
S''
sg15
g678
sg28
Nsg44
S'Flag specifying whether or not the revision gets its\n\t\t    content from another file (i.e. whether or not depotFile\n\t\t    and lbrFile differ)'
p680
stRp681
ag3
(g4
g5
(dp682
g14
S''
sg40
S'lbrFile'
p683
sg18
S''
sg42
S'File'
p684
sg19
S''
sg15
g683
sg28
Nsg44
S"Filename for librarian's purposes.  Specifies location in \n\t\t    the archives where the file containing the revision may\n\t\t    be found. Usually the same as depotFile, but differs in\n\t\t    the case of branched/copied revisions."
p685
stRp686
ag3
(g4
g5
(dp687
g14
S''
sg40
S'lbrRev'
p688
sg18
S''
sg42
S'String'
p689
sg19
S''
sg15
g688
sg28
Nsg44
S'The revision of lbrFile that contains the revision content.'
p690
stRp691
ag3
(g4
g5
(dp692
g14
S''
sg40
S'lbrType'
p693
sg18
S''
sg42
S'FileType'
p694
sg19
S''
sg15
g693
sg28
Nsg44
S'The file type of the librarian revision. Usually the same\n\t\t    as type, but differs in the case of branched/copied \n\t\t    revisions.'
p695
stRp696
atRp697
sg98
g615
sg99
S'8'
sg100
g101
sg44
S'Revision records'
p698
sg42
S'Rev'
p699
sg104
S'18'
p700
sg40
S'db.rev'
p701
stRp702
sS'archive'
p703
g3
(g4
g5
(dp704
g7
S'lbrFile, lbrRev, depotFile, depotRev'
p705
sg9
g3
(g10
g11
(lp706
g3
(g4
g5
(dp707
g14
S''
sg15
g16
sg17
g16
sg18
S''
sg19
S''
sg20
g21
sg22
g23
stRp708
ag3
(g4
g5
(dp709
g14
S''
sg17
g26
sg18
S''
sg20
g27
sg19
S''
sg15
g26
sg28
Nsg22
g29
stRp710
ag3
(g4
g5
(dp711
g14
S''
sg17
g32
sg18
S''
sg20
g21
sg19
S''
sg15
g32
sg28
Nsg22
g33
stRp712
ag3
(g4
g5
(dp713
g14
S''
sg17
g36
sg18
S''
sg20
g27
sg19
S''
sg15
g36
sg28
Nsg22
g37
stRp714
ag3
(g4
g5
(dp715
g14
S''
sg40
S'lbrFile'
p716
sg18
S''
sg42
S'File'
p717
sg19
S''
sg15
g716
sg28
Nsg44
S"Specifies the location in the librarian's archives where\n\t\t    the revision may be found"
p718
stRp719
ag3
(g4
g5
(dp720
g14
S''
sg40
S'lbrRev'
p721
sg18
S''
sg42
S'String'
p722
sg19
S''
sg15
g721
sg28
Nsg44
S"Revision in the librarian's archives"
p723
stRp724
ag3
(g4
g5
(dp725
g14
S''
sg40
S'depotFile'
p726
sg18
S''
sg42
S'File'
p727
sg19
S''
sg15
g726
sg28
Nsg44
S'Name of the file in the depot'
p728
stRp729
ag3
(g4
g5
(dp730
g14
S''
sg40
S'depotRev'
p731
sg18
S''
sg42
S'Rev'
p732
sg19
S''
sg15
g731
sg28
Nsg44
S'Name of the file in the depot'
p733
stRp734
ag3
(g4
g5
(dp735
g14
S''
sg40
S'lbrType'
p736
sg18
S''
sg42
S'FileType'
p737
sg19
S''
sg15
g736
sg28
Nsg44
S"File type for librarian's purposes"
p738
stRp739
atRp740
sg98
g703
sS'note'
p741
S'Obsoleted in 2006.2.'
p742
sg99
S'1'
sg100
g101
sg44
S'Archive information for each revision that is \n\t\tlazy-copied.'
p743
sg42
S'Archive'
p744
sg104
S'16'
p745
sg40
S'db.archive'
p746
stRp747
sS'trigger'
p748
g3
(g4
g5
(dp749
g7
S'seq'
p750
sg9
g3
(g10
g11
(lp751
g3
(g4
g5
(dp752
g14
S''
sg15
g16
sg17
g16
sg18
S''
sg19
S''
sg20
g21
sg22
g23
stRp753
ag3
(g4
g5
(dp754
g14
S''
sg17
g26
sg18
S''
sg20
g27
sg19
S''
sg15
g26
sg28
Nsg22
g29
stRp755
ag3
(g4
g5
(dp756
g14
S''
sg17
g32
sg18
S''
sg20
g21
sg19
S''
sg15
g32
sg28
Nsg22
g33
stRp757
ag3
(g4
g5
(dp758
g14
S''
sg17
g36
sg18
S''
sg20
g27
sg19
S''
sg15
g36
sg28
Nsg22
g37
stRp759
ag3
(g4
g5
(dp760
g14
S''
sg40
S'seq'
p761
sg18
S''
sg42
S'Int'
p762
sg19
S''
sg15
g761
sg28
Nsg44
S'Sequence number: for ordering the trigger list'
p763
stRp764
ag3
(g4
g5
(dp765
g14
S''
sg40
S'name'
p766
sg18
S''
sg42
S'String'
p767
sg19
S''
sg15
g766
sg28
Nsg44
S'Name of the trigger'
p768
stRp769
ag3
(g4
g5
(dp770
g14
S''
sg40
S'mapFlag'
p771
sg18
S''
sg42
S'MapFlag'
p772
sg19
S''
sg15
g771
sg28
Nsg44
S'Type of mapping: specifies whether the trigger applies \n\t\t    to the files or not.'
p773
stRp774
ag3
(g4
g5
(dp775
g14
S''
sg40
S'depotFile'
p776
sg18
S''
sg42
S'Mapping'
p777
sg19
S''
sg15
g776
sg28
Nsg44
S'The files to apply the trigger to'
p778
stRp779
ag3
(g4
g5
(dp780
g14
S''
sg40
S'trigger'
p781
sg18
S''
sg42
S'Trigger'
p782
sg19
S''
sg15
g781
sg28
Nsg44
S'Type of trigger'
p783
stRp784
ag3
(g4
g5
(dp785
g14
S''
sg40
S'action'
p786
sg18
S''
sg42
S'Text'
p787
sg19
S''
sg15
g786
sg28
Nsg44
S'Command to execute when trigger runs'
p788
stRp789
atRp790
sg98
g748
sg99
S'2'
sg100
g101
sg44
S'Trigger specifications'
p791
sg42
S'Trigger'
p792
sg104
S'28'
p793
sg40
S'db.trigger'
p794
stRp795
sS'logger'
p796
g3
(g4
g5
(dp797
g7
S'seq'
p798
sg9
g3
(g10
g11
(lp799
g3
(g4
g5
(dp800
g14
S''
sg15
g16
sg17
g16
sg18
S''
sg19
S''
sg20
g21
sg22
g23
stRp801
ag3
(g4
g5
(dp802
g14
S''
sg17
g26
sg18
S''
sg20
g27
sg19
S''
sg15
g26
sg28
Nsg22
g29
stRp803
ag3
(g4
g5
(dp804
g14
S''
sg17
g32
sg18
S''
sg20
g21
sg19
S''
sg15
g32
sg28
Nsg22
g33
stRp805
ag3
(g4
g5
(dp806
g14
S''
sg17
g36
sg18
S''
sg20
g27
sg19
S''
sg15
g36
sg28
Nsg22
g37
stRp807
ag3
(g4
g5
(dp808
g14
S''
sg40
S'seq'
p809
sg18
S''
sg42
S'Int'
p810
sg19
S''
sg15
g809
sg28
Nsg44
S'Sequence number of event'
p811
stRp812
ag3
(g4
g5
(dp813
g14
S''
sg40
S'key'
p814
sg18
S''
sg42
S'String'
p815
sg19
S''
sg15
g814
sg28
Nsg44
S"Either the word 'change' or the word 'job'"
p816
stRp817
ag3
(g4
g5
(dp818
g14
S''
sg40
S'attr'
p819
sg18
S''
sg42
S'String'
p820
sg19
S''
sg15
g819
sg28
Nsg44
S'The number of the change, or name of the job that was \n\t\t    altered.'
p821
stRp822
atRp823
sg98
g796
sg99
S'1'
sg100
g101
sg44
S"Support for 'p4 logger' command. Logs any changes to \n\t\tchangelists and jobs"
p824
sg42
S'Logger'
p825
sg104
S'2'
sg40
S'db.logger'
p826
stRp827
sS'depot'
p828
g3
(g4
g5
(dp829
g7
S'name'
p830
sg9
g3
(g10
g11
(lp831
g3
(g4
g5
(dp832
g14
S''
sg15
g16
sg17
g16
sg18
S''
sg19
S''
sg20
g21
sg22
g23
stRp833
ag3
(g4
g5
(dp834
g14
S''
sg17
g26
sg18
S''
sg20
g27
sg19
S''
sg15
g26
sg28
Nsg22
g29
stRp835
ag3
(g4
g5
(dp836
g14
S''
sg17
g32
sg18
S''
sg20
g21
sg19
S''
sg15
g32
sg28
Nsg22
g33
stRp837
ag3
(g4
g5
(dp838
g14
S''
sg17
g36
sg18
S''
sg20
g27
sg19
S''
sg15
g36
sg28
Nsg22
g37
stRp839
ag3
(g4
g5
(dp840
g14
S''
sg40
S'name'
p841
sg18
S''
sg42
S'Domain'
p842
sg19
S''
sg15
g841
sg28
Nsg44
S'Depot name'
p843
stRp844
ag3
(g4
g5
(dp845
g14
S''
sg40
S'type'
p846
sg18
S''
sg42
S'DepotType'
p847
sg19
S''
sg15
g846
sg28
Nsg44
S'Type of depot'
p848
stRp849
ag3
(g4
g5
(dp850
g14
S''
sg40
S'extra'
p851
sg18
S''
sg42
S'Text'
p852
sg19
S''
sg15
g851
sg28
Nsg44
S'For remote depots, the P4PORT address of the remote server.\n\t\t    For spec depots, the field contains a suffix to append to \n\t\t    the filename.'
p853
stRp854
ag3
(g4
g5
(dp855
g14
S''
sg40
S'map'
p856
sg18
S''
sg42
S'Text'
p857
sg19
S''
sg15
g856
sg28
Nsg44
S"The depot's map (path translation information).  For local \n\t\t    depots, this will be a path relative to the root directory.\n\t\t    For remote depots, this will be specified in terms of the \n\t\t    remote server's namespace."
p858
stRp859
atRp860
sg98
g828
sg99
S'1'
sg100
g101
sg44
S'Lists depots known to Perforce'
p861
sg42
S'Depot'
p862
sg104
S'5'
sg40
S'db.depot'
p863
stRp864
sS'revpx'
p865
g3
(g4
g5
(dp866
g7
S'depotFile, depotRev'
p867
sg9
g3
(g10
g11
(lp868
g3
(g4
g5
(dp869
g14
S''
sg15
g16
sg17
g16
sg18
S''
sg19
S''
sg20
g21
sg22
g23
stRp870
ag3
(g4
g5
(dp871
g14
S''
sg17
g26
sg18
S''
sg20
g27
sg19
S''
sg15
g26
sg28
Nsg22
g29
stRp872
ag3
(g4
g5
(dp873
g14
S''
sg17
g32
sg18
S''
sg20
g21
sg19
S''
sg15
g32
sg28
Nsg22
g33
stRp874
ag3
(g4
g5
(dp875
g14
S''
sg17
g36
sg18
S''
sg20
g27
sg19
S''
sg15
g36
sg28
Nsg22
g37
stRp876
ag3
(g4
g5
(dp877
g14
S''
sg40
g628
sg18
S''
sg42
g629
sg19
S''
sg15
g628
sg28
Nsg44
g630
stRp878
ag3
(g4
g5
(dp879
g14
S''
sg40
g633
sg18
S''
sg42
g634
sg19
S''
sg15
g633
sg28
Nsg44
g635
stRp880
ag3
(g4
g5
(dp881
g14
S''
sg40
g638
sg18
S''
sg42
g639
sg19
S''
sg15
g638
sg28
Nsg44
g640
stRp882
ag3
(g4
g5
(dp883
g14
S''
sg40
g643
sg18
S''
sg42
g644
sg19
S''
sg15
g643
sg28
Nsg44
g645
stRp884
ag3
(g4
g5
(dp885
g14
S''
sg40
g648
sg18
S''
sg42
g649
sg19
S''
sg15
g648
sg28
Nsg44
g650
stRp886
ag3
(g4
g5
(dp887
g14
S''
sg40
g653
sg18
S''
sg42
g654
sg19
S''
sg15
g653
sg28
Nsg44
g655
stRp888
ag3
(g4
g5
(dp889
g14
S''
sg40
g658
sg18
S''
sg42
g659
sg19
S''
sg15
g658
sg28
Nsg44
g660
stRp890
ag3
(g4
g5
(dp891
g14
S''
sg40
g663
sg18
S''
sg42
g664
sg19
S''
sg15
g663
sg28
Nsg44
g665
stRp892
ag3
(g4
g5
(dp893
g14
S''
sg40
g668
sg18
S''
sg42
g669
sg19
S''
sg15
g668
sg28
Nsg44
g670
stRp894
ag3
(g4
g5
(dp895
g14
S''
sg40
g673
sg18
S''
sg42
g674
sg19
S''
sg15
g673
sg28
Nsg44
g675
stRp896
ag3
(g4
g5
(dp897
g14
S''
sg40
g678
sg18
S''
sg42
g679
sg19
S''
sg15
g678
sg28
Nsg44
g680
stRp898
ag3
(g4
g5
(dp899
g14
S''
sg40
g683
sg18
S''
sg42
g684
sg19
S''
sg15
g683
sg28
Nsg44
g685
stRp900
ag3
(g4
g5
(dp901
g14
S''
sg40
g688
sg18
S''
sg42
g689
sg19
S''
sg15
g688
sg28
Nsg44
g690
stRp902
ag3
(g4
g5
(dp903
g14
S''
sg40
g693
sg18
S''
sg42
g694
sg19
S''
sg15
g693
sg28
Nsg44
g695
stRp904
atRp905
sg98
g865
sg741
S'Only populated during content trigger execution to allow \n\t\ttriggers access to the revisions being submitted.'
p906
sg99
S'7'
sg100
g101
sg44
S'Pending revision records.'
p907
sg42
S'Rev'
p908
sg104
S'22'
p909
sg40
S'db.revpx'
p910
stRp911
sS'counters'
p912
g3
(g4
g5
(dp913
g7
S'name'
p914
sg9
g3
(g10
g11
(lp915
g3
(g4
g5
(dp916
g14
S''
sg15
g16
sg17
g16
sg18
S''
sg19
S''
sg20
g21
sg22
g23
stRp917
ag3
(g4
g5
(dp918
g14
S''
sg17
g26
sg18
S''
sg20
g27
sg19
S''
sg15
g26
sg28
Nsg22
g29
stRp919
ag3
(g4
g5
(dp920
g14
S''
sg17
g32
sg18
S''
sg20
g21
sg19
S''
sg15
g32
sg28
Nsg22
g33
stRp921
ag3
(g4
g5
(dp922
g14
S''
sg17
g36
sg18
S''
sg20
g27
sg19
S''
sg15
g36
sg28
Nsg22
g37
stRp923
ag3
(g4
g5
(dp924
g14
S''
sg40
S'name'
p925
sg18
S''
sg42
S'Counter'
p926
sg19
S''
sg15
g925
sg28
Nsg44
S'Counter name'
p927
stRp928
ag3
(g4
g5
(dp929
g14
S''
sg40
S'value'
p930
sg18
S''
sg42
S'Value'
p931
sg19
S''
sg15
g930
sg28
Nsg44
S'Counter value'
p932
stRp933
atRp934
sg98
g912
sg99
S'1'
sg100
g101
sg44
S'Perforce counters table'
p935
sg42
S'Counters'
p936
sg104
S'1'
sg40
S'db.counters'
p937
stRp938
sS'revdx'
p939
g3
(g4
g5
(dp940
g7
S'depotFile'
p941
sg9
g3
(g10
g11
(lp942
g3
(g4
g5
(dp943
g14
S''
sg15
g16
sg17
g16
sg18
S''
sg19
S''
sg20
g21
sg22
g23
stRp944
ag3
(g4
g5
(dp945
g14
S''
sg17
g26
sg18
S''
sg20
g27
sg19
S''
sg15
g26
sg28
Nsg22
g29
stRp946
ag3
(g4
g5
(dp947
g14
S''
sg17
g32
sg18
S''
sg20
g21
sg19
S''
sg15
g32
sg28
Nsg22
g33
stRp948
ag3
(g4
g5
(dp949
g14
S''
sg17
g36
sg18
S''
sg20
g27
sg19
S''
sg15
g36
sg28
Nsg22
g37
stRp950
ag3
(g4
g5
(dp951
g14
S''
sg40
g628
sg18
S''
sg42
g629
sg19
S''
sg15
g628
sg28
Nsg44
g630
stRp952
ag3
(g4
g5
(dp953
g14
S''
sg40
g633
sg18
S''
sg42
g634
sg19
S''
sg15
g633
sg28
Nsg44
g635
stRp954
ag3
(g4
g5
(dp955
g14
S''
sg40
g638
sg18
S''
sg42
g639
sg19
S''
sg15
g638
sg28
Nsg44
g640
stRp956
ag3
(g4
g5
(dp957
g14
S''
sg40
g643
sg18
S''
sg42
g644
sg19
S''
sg15
g643
sg28
Nsg44
g645
stRp958
ag3
(g4
g5
(dp959
g14
S''
sg40
g648
sg18
S''
sg42
g649
sg19
S''
sg15
g648
sg28
Nsg44
g650
stRp960
ag3
(g4
g5
(dp961
g14
S''
sg40
g653
sg18
S''
sg42
g654
sg19
S''
sg15
g653
sg28
Nsg44
g655
stRp962
ag3
(g4
g5
(dp963
g14
S''
sg40
g658
sg18
S''
sg42
g659
sg19
S''
sg15
g658
sg28
Nsg44
g660
stRp964
ag3
(g4
g5
(dp965
g14
S''
sg40
g663
sg18
S''
sg42
g664
sg19
S''
sg15
g663
sg28
Nsg44
g665
stRp966
ag3
(g4
g5
(dp967
g14
S''
sg40
g668
sg18
S''
sg42
g669
sg19
S''
sg15
g668
sg28
Nsg44
g670
stRp968
ag3
(g4
g5
(dp969
g14
S''
sg40
g673
sg18
S''
sg42
g674
sg19
S''
sg15
g673
sg28
Nsg44
g675
stRp970
ag3
(g4
g5
(dp971
g14
S''
sg40
g678
sg18
S''
sg42
g679
sg19
S''
sg15
g678
sg28
Nsg44
g680
stRp972
ag3
(g4
g5
(dp973
g14
S''
sg40
g683
sg18
S''
sg42
g684
sg19
S''
sg15
g683
sg28
Nsg44
g685
stRp974
ag3
(g4
g5
(dp975
g14
S''
sg40
g688
sg18
S''
sg42
g689
sg19
S''
sg15
g688
sg28
Nsg44
g690
stRp976
ag3
(g4
g5
(dp977
g14
S''
sg40
g693
sg18
S''
sg42
g694
sg19
S''
sg15
g693
sg28
Nsg44
g695
stRp978
atRp979
sg98
g939
sg99
S'7'
sg100
g101
sg44
S'Revision records for revisions deleted at the head revision.'
p980
sg42
S'Rev'
p981
sg104
S'20'
p982
sg40
S'db.revdx'
p983
stRp984
sS'revsx'
p985
g3
(g4
g5
(dp986
g7
S'depotFile, depotRev'
p987
sg9
g3
(g10
g11
(lp988
g3
(g4
g5
(dp989
g14
S''
sg15
g16
sg17
g16
sg18
S''
sg19
S''
sg20
g21
sg22
g23
stRp990
ag3
(g4
g5
(dp991
g14
S''
sg17
g26
sg18
S''
sg20
g27
sg19
S''
sg15
g26
sg28
Nsg22
g29
stRp992
ag3
(g4
g5
(dp993
g14
S''
sg17
g32
sg18
S''
sg20
g21
sg19
S''
sg15
g32
sg28
Nsg22
g33
stRp994
ag3
(g4
g5
(dp995
g14
S''
sg17
g36
sg18
S''
sg20
g27
sg19
S''
sg15
g36
sg28
Nsg22
g37
stRp996
ag3
(g4
g5
(dp997
g14
S''
sg40
g628
sg18
S''
sg42
g629
sg19
S''
sg15
g628
sg28
Nsg44
g630
stRp998
ag3
(g4
g5
(dp999
g14
S''
sg40
g633
sg18
S''
sg42
g634
sg19
S''
sg15
g633
sg28
Nsg44
g635
stRp1000
ag3
(g4
g5
(dp1001
g14
S''
sg40
g638
sg18
S''
sg42
g639
sg19
S''
sg15
g638
sg28
Nsg44
g640
stRp1002
ag3
(g4
g5
(dp1003
g14
S''
sg40
g643
sg18
S''
sg42
g644
sg19
S''
sg15
g643
sg28
Nsg44
g645
stRp1004
ag3
(g4
g5
(dp1005
g14
S''
sg40
g648
sg18
S''
sg42
g649
sg19
S''
sg15
g648
sg28
Nsg44
g650
stRp1006
ag3
(g4
g5
(dp1007
g14
S''
sg40
g653
sg18
S''
sg42
g654
sg19
S''
sg15
g653
sg28
Nsg44
g655
stRp1008
ag3
(g4
g5
(dp1009
g14
S''
sg40
g658
sg18
S''
sg42
g659
sg19
S''
sg15
g658
sg28
Nsg44
g660
stRp1010
ag3
(g4
g5
(dp1011
g14
S''
sg40
g663
sg18
S''
sg42
g664
sg19
S''
sg15
g663
sg28
Nsg44
g665
stRp1012
ag3
(g4
g5
(dp1013
g14
S''
sg40
g668
sg18
S''
sg42
g669
sg19
S''
sg15
g668
sg28
Nsg44
g670
stRp1014
ag3
(g4
g5
(dp1015
g14
S''
sg40
g673
sg18
S''
sg42
g674
sg19
S''
sg15
g673
sg28
Nsg44
g675
stRp1016
ag3
(g4
g5
(dp1017
g14
S''
sg40
g678
sg18
S''
sg42
g679
sg19
S''
sg15
g678
sg28
Nsg44
g680
stRp1018
ag3
(g4
g5
(dp1019
g14
S''
sg40
g683
sg18
S''
sg42
g684
sg19
S''
sg15
g683
sg28
Nsg44
g685
stRp1020
ag3
(g4
g5
(dp1021
g14
S''
sg40
g688
sg18
S''
sg42
g689
sg19
S''
sg15
g688
sg28
Nsg44
g690
stRp1022
ag3
(g4
g5
(dp1023
g14
S''
sg40
g693
sg18
S''
sg42
g694
sg19
S''
sg15
g693
sg28
Nsg44
g695
stRp1024
atRp1025
sg98
g985
sg99
S'7'
sg100
g101
sg44
S'Revision records for spec depot files.'
p1026
sg42
S'Rev'
p1027
sg104
S'23'
p1028
sg40
S'db.revsx'
p1029
stRp1030
sS'revcx'
p1031
g3
(g4
g5
(dp1032
g7
S'change, depotFile'
p1033
sg9
g3
(g10
g11
(lp1034
g3
(g4
g5
(dp1035
g14
S''
sg15
g16
sg17
g16
sg18
S''
sg19
S''
sg20
g21
sg22
g23
stRp1036
ag3
(g4
g5
(dp1037
g14
S''
sg17
g26
sg18
S''
sg20
g27
sg19
S''
sg15
g26
sg28
Nsg22
g29
stRp1038
ag3
(g4
g5
(dp1039
g14
S''
sg17
g32
sg18
S''
sg20
g21
sg19
S''
sg15
g32
sg28
Nsg22
g33
stRp1040
ag3
(g4
g5
(dp1041
g14
S''
sg17
g36
sg18
S''
sg20
g27
sg19
S''
sg15
g36
sg28
Nsg22
g37
stRp1042
ag3
(g4
g5
(dp1043
g14
S''
sg40
S'change'
p1044
sg18
S''
sg42
S'Change'
p1045
sg19
S''
sg15
g1044
sg28
Nsg44
S'The changelist that created the revision'
p1046
stRp1047
ag3
(g4
g5
(dp1048
g14
S''
sg40
S'depotFile'
p1049
sg18
S''
sg42
S'File'
p1050
sg19
S''
sg15
g1049
sg28
Nsg44
S'The file name'
p1051
stRp1052
ag3
(g4
g5
(dp1053
g14
S''
sg40
S'depotRev'
p1054
sg18
S''
sg42
S'Rev'
p1055
sg19
S''
sg15
g1054
sg28
Nsg44
S'The revision number'
p1056
stRp1057
ag3
(g4
g5
(dp1058
g14
S''
sg40
S'action'
p1059
sg18
S''
sg42
S'Action'
p1060
sg19
S''
sg15
g1059
sg28
Nsg44
S'The action that created the revision'
p1061
stRp1062
atRp1063
sg98
g1031
sg99
S'0'
sg100
g101
sg44
S'Secondary index of db.rev'
p1064
sg42
S'RevCx'
p1065
sg104
S'19'
p1066
sg40
S'db.revcx'
p1067
stRp1068
sS'integed'
p1069
g3
(g4
g5
(dp1070
g7
S'toFile, fromFile, startFromRev, endFromRev, \n\t\tstartToRev, endToRev'
p1071
sg9
g3
(g10
g11
(lp1072
g3
(g4
g5
(dp1073
g14
S''
sg15
g16
sg17
g16
sg18
S''
sg19
S''
sg20
g21
sg22
g23
stRp1074
ag3
(g4
g5
(dp1075
g14
S''
sg17
g26
sg18
S''
sg20
g27
sg19
S''
sg15
g26
sg28
Nsg22
g29
stRp1076
ag3
(g4
g5
(dp1077
g14
S''
sg17
g32
sg18
S''
sg20
g21
sg19
S''
sg15
g32
sg28
Nsg22
g33
stRp1078
ag3
(g4
g5
(dp1079
g14
S''
sg17
g36
sg18
S''
sg20
g27
sg19
S''
sg15
g36
sg28
Nsg22
g37
stRp1080
ag3
(g4
g5
(dp1081
g14
S''
sg40
S'toFile'
p1082
sg18
S''
sg42
S'File'
p1083
sg19
S''
sg15
g1082
sg28
Nsg44
S'File to which integration is being performed (target).'
p1084
stRp1085
ag3
(g4
g5
(dp1086
g14
S''
sg40
S'fromFile'
p1087
sg18
S''
sg42
S'File'
p1088
sg19
S''
sg15
g1087
sg28
Nsg44
S'File from which integration is being performed (source).'
p1089
stRp1090
ag3
(g4
g5
(dp1091
g14
S''
sg40
S'startFromRev'
p1092
sg18
S''
sg42
S'Rev'
p1093
sg19
S''
sg15
g1092
sg28
Nsg44
S'Starting revision of fromFile'
p1094
stRp1095
ag3
(g4
g5
(dp1096
g14
S''
sg40
S'endFromRev'
p1097
sg18
S''
sg42
S'Rev'
p1098
sg19
S''
sg15
g1097
sg28
Nsg44
S'Ending revision of fromFile. If integrating from a single \n\t\t    revision (not a revision range), the startFromRev and \n\t\t    endFromRev fields will be identical.'
p1099
stRp1100
ag3
(g4
g5
(dp1101
g14
S''
sg40
S'startToRev'
p1102
sg18
S''
sg42
S'Rev'
p1103
sg19
S''
sg15
g1102
sg28
Nsg44
S'Start revision of toFile into which integration was \n\t\t    performed.'
p1104
stRp1105
ag3
(g4
g5
(dp1106
g14
S''
sg40
S'endToRev'
p1107
sg18
S''
sg42
S'Rev'
p1108
sg19
S''
sg15
g1107
sg28
Nsg44
S'End revision of toFile into which integration was \n\t\t    performed. Only varies from startToRev for reverse \n\t\t    integration records.'
p1109
stRp1110
ag3
(g4
g5
(dp1111
g14
S''
sg40
S'how'
p1112
sg18
S''
sg42
S'IntegHow'
p1113
sg19
S''
sg15
g1112
sg28
Nsg44
S'Integration method: variations on \n\t\t    merge/branch/copy/ignore/delete.'
p1114
stRp1115
ag3
(g4
g5
(dp1116
g14
S''
sg40
S'change'
p1117
sg18
S''
sg42
S'Change'
p1118
sg19
S''
sg15
g1117
sg28
Nsg44
S'Changelist associated with the integration.'
p1119
stRp1120
atRp1121
sg98
g1069
sg40
S'db.integed'
p1122
sg99
S'0'
sg100
g101
sg151
S'db.resolve'
p1123
sg42
S'Integed'
p1124
sg104
S'10'
p1125
sg44
S'Permanent integration records'
p1126
stRp1127
sS'job'
p1128
g3
(g4
g5
(dp1129
g7
S'job'
p1130
sg9
g3
(g10
g11
(lp1131
g3
(g4
g5
(dp1132
g14
S''
sg15
g16
sg17
g16
sg18
S''
sg19
S''
sg20
g21
sg22
g23
stRp1133
ag3
(g4
g5
(dp1134
g14
S''
sg17
g26
sg18
S''
sg20
g27
sg19
S''
sg15
g26
sg28
Nsg22
g29
stRp1135
ag3
(g4
g5
(dp1136
g14
S''
sg17
g32
sg18
S''
sg20
g21
sg19
S''
sg15
g32
sg28
Nsg22
g33
stRp1137
ag3
(g4
g5
(dp1138
g14
S''
sg17
g36
sg18
S''
sg20
g27
sg19
S''
sg15
g36
sg28
Nsg22
g37
stRp1139
ag3
(g4
g5
(dp1140
g14
S''
sg40
S'job'
p1141
sg18
S''
sg42
S'String'
p1142
sg19
S''
sg15
g1141
sg28
Nsg44
S'The job name'
p1143
stRp1144
ag3
(g4
g5
(dp1145
g14
S''
sg40
S'xuser'
p1146
sg18
S''
sg42
S'User'
p1147
sg19
S''
sg15
g1146
sg28
Nsg44
S'User name: defunct'
p1148
stRp1149
ag3
(g4
g5
(dp1150
g14
S''
sg40
S'xdate'
p1151
sg18
S''
sg42
S'Date'
p1152
sg19
S''
sg15
g1151
sg28
Nsg44
S'The date: defunct'
p1153
stRp1154
ag3
(g4
g5
(dp1155
g14
S''
sg40
S'xstatus'
p1156
sg18
S''
sg42
S'JobStat'
p1157
sg19
S''
sg15
g1156
sg28
Nsg44
S'Job status: defunct'
p1158
stRp1159
ag3
(g4
g5
(dp1160
g14
S''
sg40
S'description'
p1161
sg18
S''
sg42
S'DescShort'
p1162
sg19
S''
sg15
g1161
sg28
Nsg44
S'Short description'
p1163
stRp1164
atRp1165
sg98
g1128
sg40
S'db.job'
p1166
sg99
S'0'
sg100
g101
sg151
S'db.bodtext'
p1167
sg42
S'Job'
p1168
sg104
S'33'
p1169
sg44
S'Job records'
p1170
stRp1171
sS'workingx'
p1172
g3
(g4
g5
(dp1173
g7
S'clientFile'
p1174
sg9
g3
(g10
g11
(lp1175
g3
(g4
g5
(dp1176
g14
S''
sg15
g16
sg17
g16
sg18
S''
sg19
S''
sg20
g21
sg22
g23
stRp1177
ag3
(g4
g5
(dp1178
g14
S''
sg17
g26
sg18
S''
sg20
g27
sg19
S''
sg15
g26
sg28
Nsg22
g29
stRp1179
ag3
(g4
g5
(dp1180
g14
S''
sg17
g32
sg18
S''
sg20
g21
sg19
S''
sg15
g32
sg28
Nsg22
g33
stRp1181
ag3
(g4
g5
(dp1182
g14
S''
sg17
g36
sg18
S''
sg20
g27
sg19
S''
sg15
g36
sg28
Nsg22
g37
stRp1183
ag3
(g4
g5
(dp1184
g14
S''
sg40
g489
sg18
S''
sg42
g490
sg19
S''
sg15
g489
sg28
Nsg44
g491
stRp1185
ag3
(g4
g5
(dp1186
g14
S''
sg40
g494
sg18
S''
sg42
g495
sg19
S''
sg15
g494
sg28
Nsg44
g496
stRp1187
ag3
(g4
g5
(dp1188
g14
S''
sg40
g499
sg18
S''
sg42
g500
sg19
S''
sg15
g499
sg28
Nsg44
g501
stRp1189
ag3
(g4
g5
(dp1190
g14
S''
sg40
g504
sg18
S''
sg42
g505
sg19
S''
sg15
g504
sg28
Nsg44
g506
stRp1191
ag3
(g4
g5
(dp1192
g14
S''
sg40
g509
sg18
S''
sg42
g510
sg19
S''
sg15
g509
sg28
Nsg44
g511
stRp1193
ag3
(g4
g5
(dp1194
g14
S''
sg40
g514
sg18
S''
sg42
g515
sg19
S''
sg15
g514
sg28
Nsg44
g516
stRp1195
ag3
(g4
g5
(dp1196
g14
S''
sg40
g519
sg18
S''
sg42
g520
sg19
S''
sg15
g519
sg28
Nsg44
g521
stRp1197
ag3
(g4
g5
(dp1198
g14
S''
sg40
g524
sg18
S''
sg42
g525
sg19
S''
sg15
g524
sg28
Nsg44
g526
stRp1199
ag3
(g4
g5
(dp1200
g14
S''
sg40
g529
sg18
S''
sg42
g530
sg19
S''
sg15
g529
sg28
Nsg44
g531
stRp1201
ag3
(g4
g5
(dp1202
g14
S''
sg40
g534
sg18
S''
sg42
g535
sg19
S''
sg15
g534
sg28
Nsg44
g536
stRp1203
ag3
(g4
g5
(dp1204
g14
S''
sg40
g539
sg18
S''
sg42
g540
sg19
S''
sg15
g539
sg28
Nsg44
g541
stRp1205
ag3
(g4
g5
(dp1206
g14
S''
sg40
g544
sg18
S''
sg42
g545
sg19
S''
sg15
g544
sg28
Nsg44
g546
stRp1207
ag3
(g4
g5
(dp1208
g14
S''
sg40
g549
sg18
S''
sg42
g550
sg19
S''
sg15
g549
sg28
Nsg44
g551
stRp1209
ag3
(g4
g5
(dp1210
g14
S''
sg40
g554
sg18
S''
sg42
g555
sg19
S''
sg15
g554
sg28
Nsg44
g556
stRp1211
ag3
(g4
g5
(dp1212
g14
S''
sg40
g559
sg18
S''
sg42
g560
sg19
S''
sg15
g559
sg28
Nsg44
g561
stRp1213
ag3
(g4
g5
(dp1214
g14
S''
sg40
g564
sg18
S''
sg42
g565
sg19
S''
sg15
g564
sg28
Nsg44
g566
stRp1215
ag3
(g4
g5
(dp1216
g14
S''
sg40
g569
sg18
S''
sg42
g570
sg19
S''
sg15
g569
sg28
Nsg44
g571
stRp1217
ag3
(g4
g5
(dp1218
g14
S''
sg40
g574
sg18
S''
sg42
g575
sg19
S''
sg15
g574
sg28
Nsg44
g576
stRp1219
atRp1220
sg98
g1172
sg99
S'9'
sg100
g101
sg44
S'Records for shelved open files'
p1221
sg42
S'Working'
p1222
sg104
S'26'
p1223
sg40
S'db.workingx'
p1224
stRp1225
sS'user'
p1226
g3
(g4
g5
(dp1227
g7
S'user'
p1228
sg9
g3
(g10
g11
(lp1229
g3
(g4
g5
(dp1230
g14
S''
sg15
g16
sg17
g16
sg18
S''
sg19
S''
sg20
g21
sg22
g23
stRp1231
ag3
(g4
g5
(dp1232
g14
S''
sg17
g26
sg18
S''
sg20
g27
sg19
S''
sg15
g26
sg28
Nsg22
g29
stRp1233
ag3
(g4
g5
(dp1234
g14
S''
sg17
g32
sg18
S''
sg20
g21
sg19
S''
sg15
g32
sg28
Nsg22
g33
stRp1235
ag3
(g4
g5
(dp1236
g14
S''
sg17
g36
sg18
S''
sg20
g27
sg19
S''
sg15
g36
sg28
Nsg22
g37
stRp1237
ag3
(g4
g5
(dp1238
g14
S''
sg40
S'user'
p1239
sg18
S''
sg42
S'User'
p1240
sg19
S''
sg15
g1239
sg28
Nsg44
S'The username'
p1241
stRp1242
ag3
(g4
g5
(dp1243
g14
S''
sg40
S'email'
p1244
sg18
S''
sg42
S'Text'
p1245
sg19
S''
sg15
g1244
sg28
Nsg44
S"The user's email address"
p1246
stRp1247
ag3
(g4
g5
(dp1248
g14
S''
sg40
S'jobView'
p1249
sg18
S''
sg42
S'Text'
p1250
sg19
S''
sg15
g1249
sg28
Nsg44
S"The user's job view"
p1251
stRp1252
ag3
(g4
g5
(dp1253
g14
S''
sg40
S'updateDate'
p1254
sg18
S''
sg42
S'Date'
p1255
sg19
S''
sg15
g1254
sg28
Nsg44
S'The date/time the user record was last updated'
p1256
stRp1257
ag3
(g4
g5
(dp1258
g14
S''
sg40
S'accessDate'
p1259
sg18
S''
sg42
S'Date'
p1260
sg19
S''
sg15
g1259
sg28
Nsg44
S'The date/time the user record was last used'
p1261
stRp1262
ag3
(g4
g5
(dp1263
g14
S''
sg40
S'fullName'
p1264
sg18
S''
sg42
S'Text'
p1265
sg19
S''
sg15
g1264
sg28
Nsg44
S"The user's full name"
p1266
stRp1267
ag3
(g4
g5
(dp1268
g14
S''
sg40
S'password'
p1269
sg18
S''
sg42
S'Password'
p1270
sg19
S''
sg15
g1269
sg28
Nsg44
S'The MD5 hash of the users (encrypted) password'
p1271
stRp1272
ag3
(g4
g5
(dp1273
g14
S''
sg40
S'strength'
p1274
sg18
S''
sg42
S'Strength'
p1275
sg19
S''
sg15
g1274
sg28
Nsg44
S"Measure of the strength of the user's password"
p1276
stRp1277
ag3
(g4
g5
(dp1278
g14
S''
sg40
S'ticket'
p1279
sg18
S''
sg42
S'Password'
p1280
sg19
S''
sg15
g1279
sg28
Nsg44
S"'p4 login' ticket for this user"
p1281
stRp1282
ag3
(g4
g5
(dp1283
g14
S''
sg40
S'endDate'
p1284
sg18
S''
sg42
S'Date'
p1285
sg19
S''
sg15
g1284
sg28
Nsg44
S"Date/time the user's ticket expires"
p1286
stRp1287
atRp1288
sg98
g1226
sg99
S'3'
sg100
g101
sg44
S'Lists users known to Perforce'
p1289
sg42
S'User'
p1290
sg104
S'3'
sg40
S'db.user'
p1291
stRp1292
sS'revsh'
p1293
g3
(g4
g5
(dp1294
g7
S'depotFile,depotRev,type,action,change'
p1295
sg9
g3
(g10
g11
(lp1296
g3
(g4
g5
(dp1297
g14
S''
sg15
g16
sg17
g16
sg18
S''
sg19
S''
sg20
g21
sg22
g23
stRp1298
ag3
(g4
g5
(dp1299
g14
S''
sg17
g26
sg18
S''
sg20
g27
sg19
S''
sg15
g26
sg28
Nsg22
g29
stRp1300
ag3
(g4
g5
(dp1301
g14
S''
sg17
g32
sg18
S''
sg20
g21
sg19
S''
sg15
g32
sg28
Nsg22
g33
stRp1302
ag3
(g4
g5
(dp1303
g14
S''
sg17
g36
sg18
S''
sg20
g27
sg19
S''
sg15
g36
sg28
Nsg22
g37
stRp1304
ag3
(g4
g5
(dp1305
g14
S''
sg40
g628
sg18
S''
sg42
g629
sg19
S''
sg15
g628
sg28
Nsg44
g630
stRp1306
ag3
(g4
g5
(dp1307
g14
S''
sg40
g633
sg18
S''
sg42
g634
sg19
S''
sg15
g633
sg28
Nsg44
g635
stRp1308
ag3
(g4
g5
(dp1309
g14
S''
sg40
g638
sg18
S''
sg42
g639
sg19
S''
sg15
g638
sg28
Nsg44
g640
stRp1310
ag3
(g4
g5
(dp1311
g14
S''
sg40
g643
sg18
S''
sg42
g644
sg19
S''
sg15
g643
sg28
Nsg44
g645
stRp1312
ag3
(g4
g5
(dp1313
g14
S''
sg40
g648
sg18
S''
sg42
g649
sg19
S''
sg15
g648
sg28
Nsg44
g650
stRp1314
ag3
(g4
g5
(dp1315
g14
S''
sg40
g653
sg18
S''
sg42
g654
sg19
S''
sg15
g653
sg28
Nsg44
g655
stRp1316
ag3
(g4
g5
(dp1317
g14
S''
sg40
g658
sg18
S''
sg42
g659
sg19
S''
sg15
g658
sg28
Nsg44
g660
stRp1318
ag3
(g4
g5
(dp1319
g14
S''
sg40
g663
sg18
S''
sg42
g664
sg19
S''
sg15
g663
sg28
Nsg44
g665
stRp1320
ag3
(g4
g5
(dp1321
g14
S''
sg40
g668
sg18
S''
sg42
g669
sg19
S''
sg15
g668
sg28
Nsg44
g670
stRp1322
ag3
(g4
g5
(dp1323
g14
S''
sg40
g673
sg18
S''
sg42
g674
sg19
S''
sg15
g673
sg28
Nsg44
g675
stRp1324
ag3
(g4
g5
(dp1325
g14
S''
sg40
g678
sg18
S''
sg42
g679
sg19
S''
sg15
g678
sg28
Nsg44
g680
stRp1326
ag3
(g4
g5
(dp1327
g14
S''
sg40
g683
sg18
S''
sg42
g684
sg19
S''
sg15
g683
sg28
Nsg44
g685
stRp1328
ag3
(g4
g5
(dp1329
g14
S''
sg40
g688
sg18
S''
sg42
g689
sg19
S''
sg15
g688
sg28
Nsg44
g690
stRp1330
ag3
(g4
g5
(dp1331
g14
S''
sg40
g693
sg18
S''
sg42
g694
sg19
S''
sg15
g693
sg28
Nsg44
g695
stRp1332
atRp1333
sg98
g1293
sg99
S'7'
sg100
g101
sg44
S'Revision records for shelved files.'
p1334
sg42
S'Rev'
p1335
sg104
S'24'
p1336
sg40
S'db.revsh'
p1337
stRp1338
sS'resolvex'
p1339
g3
(g4
g5
(dp1340
g7
S'toFile, fromFile, startFromRev'
p1341
sg9
g3
(g10
g11
(lp1342
g3
(g4
g5
(dp1343
g14
S''
sg15
g16
sg17
g16
sg18
S''
sg19
S''
sg20
g21
sg22
g23
stRp1344
ag3
(g4
g5
(dp1345
g14
S''
sg17
g26
sg18
S''
sg20
g27
sg19
S''
sg15
g26
sg28
Nsg22
g29
stRp1346
ag3
(g4
g5
(dp1347
g14
S''
sg17
g32
sg18
S''
sg20
g21
sg19
S''
sg15
g32
sg28
Nsg22
g33
stRp1348
ag3
(g4
g5
(dp1349
g14
S''
sg17
g36
sg18
S''
sg20
g27
sg19
S''
sg15
g36
sg28
Nsg22
g37
stRp1350
ag3
(g4
g5
(dp1351
g14
S''
sg40
S'toFile'
p1352
sg18
S''
sg42
S'File'
p1353
sg19
S''
sg15
g1352
sg28
Nsg44
S'File to which integration is being performed (target).'
p1354
stRp1355
ag3
(g4
g5
(dp1356
g14
S''
sg40
S'fromFile'
p1357
sg18
S''
sg42
S'File'
p1358
sg19
S''
sg15
g1357
sg28
Nsg44
S'File from which integration is being performed (source).'
p1359
stRp1360
ag3
(g4
g5
(dp1361
g14
S''
sg40
S'startFromRev'
p1362
sg18
S''
sg42
S'Rev'
p1363
sg19
S''
sg15
g1362
sg28
Nsg44
S'Starting revision of fromFile'
p1364
stRp1365
ag3
(g4
g5
(dp1366
g14
S''
sg40
S'endFromRev'
p1367
sg18
S''
sg42
S'Rev'
p1368
sg19
S''
sg15
g1367
sg28
Nsg44
S'Ending revision of fromFile. If integrating from a single \n\t\t    revision (not a revision range), the startFromRev and \n\t\t    endFromRev fields will be identical.'
p1369
stRp1370
ag3
(g4
g5
(dp1371
g14
S''
sg40
S'startToRev'
p1372
sg18
S''
sg42
S'Rev'
p1373
sg19
S''
sg15
g1372
sg28
Nsg44
S'Start revision of toFile into which integration was \n\t\t    performed.'
p1374
stRp1375
ag3
(g4
g5
(dp1376
g14
S''
sg40
S'endToRev'
p1377
sg18
S''
sg42
S'Rev'
p1378
sg19
S''
sg15
g1377
sg28
Nsg44
S'End revision of toFile into which integration was \n\t\t    performed. Only varies from startToRev for reverse \n\t\t    integration records.'
p1379
stRp1380
ag3
(g4
g5
(dp1381
g14
S''
sg40
S'how'
p1382
sg18
S''
sg42
S'IntegHow'
p1383
sg19
S''
sg15
g1382
sg28
Nsg44
S'Integration method: variations on \n\t\t    merge/branch/copy/ignore/delete.'
p1384
stRp1385
ag3
(g4
g5
(dp1386
g14
S''
sg40
S'resolved'
p1387
sg18
S''
sg42
S'ResolvedStatus'
p1388
sg19
S''
sg15
g1387
sg28
Nsg44
S'How the user performed the resolve.'
p1389
stRp1390
ag3
(g4
g5
(dp1391
g14
S''
sg40
S'baseFile'
p1392
sg18
S''
sg42
S'File'
p1393
sg19
S''
sg15
g1392
sg28
Nsg44
S'File used as the base for merging.'
p1394
stRp1395
ag3
(g4
g5
(dp1396
g14
S''
sg40
S'baseRev'
p1397
sg18
S''
sg42
S'Rev'
p1398
sg19
S''
sg15
g1397
sg28
Nsg44
S'Revision of baseFile used as the merge base.'
p1399
stRp1400
atRp1401
sg98
g1339
sg40
S'db.resolvex'
p1402
sg99
S'0'
sg100
g101
sg151
S'db.integed'
p1403
sg42
S'Resolve'
p1404
sg104
S'12'
p1405
sg44
S'Pending integration records'
p1406
stRp1407
sS'archmap'
p1408
g3
(g4
g5
(dp1409
g7
S'lbrFile, depotFile'
p1410
sg9
g3
(g10
g11
(lp1411
g3
(g4
g5
(dp1412
g14
S''
sg15
g16
sg17
g16
sg18
S''
sg19
S''
sg20
g21
sg22
g23
stRp1413
ag3
(g4
g5
(dp1414
g14
S''
sg17
g26
sg18
S''
sg20
g27
sg19
S''
sg15
g26
sg28
Nsg22
g29
stRp1415
ag3
(g4
g5
(dp1416
g14
S''
sg17
g32
sg18
S''
sg20
g21
sg19
S''
sg15
g32
sg28
Nsg22
g33
stRp1417
ag3
(g4
g5
(dp1418
g14
S''
sg17
g36
sg18
S''
sg20
g27
sg19
S''
sg15
g36
sg28
Nsg22
g37
stRp1419
ag3
(g4
g5
(dp1420
g14
S''
sg40
S'lbrFile'
p1421
sg18
S''
sg42
S'File'
p1422
sg19
S''
sg15
g1421
sg28
Nsg44
S'Paths in the librarian namespace that recieve lazy\n\t\t    copies.'
p1423
stRp1424
ag3
(g4
g5
(dp1425
g14
S''
sg40
S'depotFile'
p1426
sg18
S''
sg42
S'File'
p1427
sg19
S''
sg15
g1426
sg28
Nsg44
S'Paths in the depot namespace that provide lazy copies.'
p1428
stRp1429
atRp1430
sg98
g1408
sg741
S'Supercedes db.archive'
p1431
sg99
S'0'
sg100
g101
sg44
S'Mappings entries for lazy-copies.'
p1432
sg42
S'ArchMap'
p1433
sg104
S'17'
p1434
sg40
S'db.archmap'
p1435
stRp1436
sS'change'
p1437
g3
(g4
g5
(dp1438
g7
S'change'
p1439
sg9
g3
(g10
g11
(lp1440
g3
(g4
g5
(dp1441
g14
S''
sg15
g16
sg17
g16
sg18
S''
sg19
S''
sg20
g21
sg22
g23
stRp1442
ag3
(g4
g5
(dp1443
g14
S''
sg17
g26
sg18
S''
sg20
g27
sg19
S''
sg15
g26
sg28
Nsg22
g29
stRp1444
ag3
(g4
g5
(dp1445
g14
S''
sg17
g32
sg18
S''
sg20
g21
sg19
S''
sg15
g32
sg28
Nsg22
g33
stRp1446
ag3
(g4
g5
(dp1447
g14
S''
sg17
g36
sg18
S''
sg20
g27
sg19
S''
sg15
g36
sg28
Nsg22
g37
stRp1448
ag3
(g4
g5
(dp1449
g14
S''
sg40
S'change'
p1450
sg18
S''
sg42
S'Change'
p1451
sg19
S''
sg15
g1450
sg28
Nsg44
S'The change number'
p1452
stRp1453
ag3
(g4
g5
(dp1454
g14
S''
sg40
S'descKey'
p1455
sg18
S''
sg42
S'Change'
p1456
sg19
S''
sg15
g1455
sg28
Nsg44
S"The description key. Normally the same as 'change', but\n\t\t    may differ if a changelist was renumbered on submission."
p1457
stRp1458
ag3
(g4
g5
(dp1459
g14
S''
sg40
S'client'
p1460
sg18
S''
sg42
S'Domain'
p1461
sg19
S''
sg15
g1460
sg28
Nsg44
S'The client from which the change originates'
p1462
stRp1463
ag3
(g4
g5
(dp1464
g14
S''
sg40
S'user'
p1465
sg18
S''
sg42
S'User'
p1466
sg19
S''
sg15
g1465
sg28
Nsg44
S'The user who owns the change'
p1467
stRp1468
ag3
(g4
g5
(dp1469
g14
S''
sg40
S'date'
p1470
sg18
S''
sg42
S'Date'
p1471
sg19
S''
sg15
g1470
sg28
Nsg44
S'Date and time the changelist was submitted'
p1472
stRp1473
ag3
(g4
g5
(dp1474
g14
S''
sg40
S'status'
p1475
sg18
S''
sg42
S'ChangeStatus'
p1476
sg19
S''
sg15
g1475
sg28
Nsg44
S'Status of the change'
p1477
stRp1478
ag3
(g4
g5
(dp1479
g14
S''
sg40
S'description'
p1480
sg18
S''
sg42
S'DescShort'
p1481
sg19
S''
sg15
g1480
sg28
Nsg44
S'Short description of the change.'
p1482
stRp1483
ag3
(g4
g5
(dp1484
g14
S''
sg40
S'root'
p1485
sg18
S''
sg42
S'Mapping'
p1486
sg19
S''
sg15
g1485
sg28
Nsg44
S'Common path for all files in the changelist'
p1487
stRp1488
atRp1489
sg98
g1437
sg99
S'1'
sg100
g101
sg44
S'Changelists'
p1490
sg42
S'Change'
p1491
sg104
S'29'
p1492
sg40
S'db.change'
p1493
stRp1494
sS'desc'
p1495
g3
(g4
g5
(dp1496
g7
S'descKey'
p1497
sg9
g3
(g10
g11
(lp1498
g3
(g4
g5
(dp1499
g14
S''
sg15
g16
sg17
g16
sg18
S''
sg19
S''
sg20
g21
sg22
g23
stRp1500
ag3
(g4
g5
(dp1501
g14
S''
sg17
g26
sg18
S''
sg20
g27
sg19
S''
sg15
g26
sg28
Nsg22
g29
stRp1502
ag3
(g4
g5
(dp1503
g14
S''
sg17
g32
sg18
S''
sg20
g21
sg19
S''
sg15
g32
sg28
Nsg22
g33
stRp1504
ag3
(g4
g5
(dp1505
g14
S''
sg17
g36
sg18
S''
sg20
g27
sg19
S''
sg15
g36
sg28
Nsg22
g37
stRp1506
ag3
(g4
g5
(dp1507
g14
S''
sg40
S'descKey'
p1508
sg18
S''
sg42
S'Change'
p1509
sg19
S''
sg15
g1508
sg28
Nsg44
S'Original number of the change to which this description\n\t\t    applies. This may differ from the final change number if\n\t\t    the change is renumbered on submission.'
p1510
stRp1511
ag3
(g4
g5
(dp1512
g14
S''
sg40
S'description'
p1513
sg18
S''
sg42
S'Text'
p1514
sg19
S''
sg15
g1513
sg28
Nsg44
S'The change description itself'
p1515
stRp1516
atRp1517
sg98
g1495
sg99
S'0'
sg100
g101
sg44
S'Change descriptions'
p1518
sg42
S'Desc'
p1519
sg104
S'31'
p1520
sg40
S'db.desc'
p1521
stRp1522
sS'protect'
p1523
g3
(g4
g5
(dp1524
g7
S'seq'
p1525
sg9
g3
(g10
g11
(lp1526
g3
(g4
g5
(dp1527
g14
S''
sg15
g16
sg17
g16
sg18
S''
sg19
S''
sg20
g21
sg22
g23
stRp1528
ag3
(g4
g5
(dp1529
g14
S''
sg17
g26
sg18
S''
sg20
g27
sg19
S''
sg15
g26
sg28
Nsg22
g29
stRp1530
ag3
(g4
g5
(dp1531
g14
S''
sg17
g32
sg18
S''
sg20
g21
sg19
S''
sg15
g32
sg28
Nsg22
g33
stRp1532
ag3
(g4
g5
(dp1533
g14
S''
sg17
g36
sg18
S''
sg20
g27
sg19
S''
sg15
g36
sg28
Nsg22
g37
stRp1534
ag3
(g4
g5
(dp1535
g14
S''
sg40
S'seq'
p1536
sg18
S''
sg42
S'Int'
p1537
sg19
S''
sg15
g1536
sg28
Nsg44
S'Sequence number: for ordering the protections table'
p1538
stRp1539
ag3
(g4
g5
(dp1540
g14
S''
sg40
S'isGroup'
p1541
sg18
S''
sg42
S'Int'
p1542
sg19
S''
sg15
g1541
sg28
Nsg44
S'Flag: 0 for a per-user setting, 1 for a per-group setting.'
p1543
stRp1544
ag3
(g4
g5
(dp1545
g14
S''
sg40
S'user'
p1546
sg18
S''
sg42
S'UserWild'
p1547
sg19
S''
sg15
g1546
sg28
Nsg44
S'User(s), or Group(s) for whom this record applies.'
p1548
stRp1549
ag3
(g4
g5
(dp1550
g14
S''
sg40
S'host'
p1551
sg18
S''
sg42
S'DomainWild'
p1552
sg19
S''
sg15
g1551
sg28
Nsg44
S'Domain(s) (IP addresses) for which this record applies.'
p1553
stRp1554
ag3
(g4
g5
(dp1555
g14
S''
sg40
S'perm'
p1556
sg18
S''
sg42
S'Perm'
p1557
sg19
S''
sg15
g1556
sg28
Nsg44
S'Permissions to be granted/revoked'
p1558
stRp1559
ag3
(g4
g5
(dp1560
g14
S''
sg40
S'mapFlag'
p1561
sg18
S''
sg42
S'MapFlag'
p1562
sg19
S''
sg15
g1561
sg28
Nsg44
S'Flag: Map the files in or out?'
p1563
stRp1564
ag3
(g4
g5
(dp1565
g14
S''
sg40
S'depotFile'
p1566
sg18
S''
sg42
S'Mapping'
p1567
sg19
S''
sg15
g1566
sg28
Nsg44
S'Files to be mapped in or out.'
p1568
stRp1569
atRp1570
sg98
g1523
sg99
S'4'
sg100
g101
sg44
S'The protections table'
p1571
sg42
S'Protect'
p1572
sg104
S'42'
p1573
sg40
S'db.protect'
p1574
stRp1575
sS'resolve'
p1576
g3
(g4
g5
(dp1577
g7
S'toFile, fromFile, startFromRev'
p1578
sg9
g3
(g10
g11
(lp1579
g3
(g4
g5
(dp1580
g14
S''
sg15
g16
sg17
g16
sg18
S''
sg19
S''
sg20
g21
sg22
g23
stRp1581
ag3
(g4
g5
(dp1582
g14
S''
sg17
g26
sg18
S''
sg20
g27
sg19
S''
sg15
g26
sg28
Nsg22
g29
stRp1583
ag3
(g4
g5
(dp1584
g14
S''
sg17
g32
sg18
S''
sg20
g21
sg19
S''
sg15
g32
sg28
Nsg22
g33
stRp1585
ag3
(g4
g5
(dp1586
g14
S''
sg17
g36
sg18
S''
sg20
g27
sg19
S''
sg15
g36
sg28
Nsg22
g37
stRp1587
ag3
(g4
g5
(dp1588
g14
S''
sg40
g1352
sg18
S''
sg42
g1353
sg19
S''
sg15
g1352
sg28
Nsg44
g1354
stRp1589
ag3
(g4
g5
(dp1590
g14
S''
sg40
g1357
sg18
S''
sg42
g1358
sg19
S''
sg15
g1357
sg28
Nsg44
g1359
stRp1591
ag3
(g4
g5
(dp1592
g14
S''
sg40
g1362
sg18
S''
sg42
g1363
sg19
S''
sg15
g1362
sg28
Nsg44
g1364
stRp1593
ag3
(g4
g5
(dp1594
g14
S''
sg40
g1367
sg18
S''
sg42
g1368
sg19
S''
sg15
g1367
sg28
Nsg44
g1369
stRp1595
ag3
(g4
g5
(dp1596
g14
S''
sg40
g1372
sg18
S''
sg42
g1373
sg19
S''
sg15
g1372
sg28
Nsg44
g1374
stRp1597
ag3
(g4
g5
(dp1598
g14
S''
sg40
g1377
sg18
S''
sg42
g1378
sg19
S''
sg15
g1377
sg28
Nsg44
g1379
stRp1599
ag3
(g4
g5
(dp1600
g14
S''
sg40
g1382
sg18
S''
sg42
g1383
sg19
S''
sg15
g1382
sg28
Nsg44
g1384
stRp1601
ag3
(g4
g5
(dp1602
g14
S''
sg40
g1387
sg18
S''
sg42
g1388
sg19
S''
sg15
g1387
sg28
Nsg44
g1389
stRp1603
ag3
(g4
g5
(dp1604
g14
S''
sg40
g1392
sg18
S''
sg42
g1393
sg19
S''
sg15
g1392
sg28
Nsg44
g1394
stRp1605
ag3
(g4
g5
(dp1606
g14
S''
sg40
g1397
sg18
S''
sg42
g1398
sg19
S''
sg15
g1397
sg28
Nsg44
g1399
stRp1607
atRp1608
sg98
g1576
sg40
S'db.resolve'
p1609
sg99
S'0'
sg100
g101
sg151
S'db.integed'
p1610
sg42
S'Resolve'
p1611
sg104
S'11'
p1612
sg44
S'Pending integration records'
p1613
stRp1614
sS'locks'
p1615
g3
(g4
g5
(dp1616
g7
S'depotFile, client'
p1617
sg9
g3
(g10
g11
(lp1618
g3
(g4
g5
(dp1619
g14
S''
sg15
g16
sg17
g16
sg18
S''
sg19
S''
sg20
g21
sg22
g23
stRp1620
ag3
(g4
g5
(dp1621
g14
S''
sg17
g26
sg18
S''
sg20
g27
sg19
S''
sg15
g26
sg28
Nsg22
g29
stRp1622
ag3
(g4
g5
(dp1623
g14
S''
sg17
g32
sg18
S''
sg20
g21
sg19
S''
sg15
g32
sg28
Nsg22
g33
stRp1624
ag3
(g4
g5
(dp1625
g14
S''
sg17
g36
sg18
S''
sg20
g27
sg19
S''
sg15
g36
sg28
Nsg22
g37
stRp1626
ag3
(g4
g5
(dp1627
g14
S''
sg40
S'depotFile'
p1628
sg18
S''
sg42
S'File'
p1629
sg19
S''
sg15
g1628
sg28
Nsg44
S'File in depot'
p1630
stRp1631
ag3
(g4
g5
(dp1632
g14
S''
sg40
S'client'
p1633
sg18
S''
sg42
S'Domain'
p1634
sg19
S''
sg15
g1633
sg28
Nsg44
S'Domain (client) in which file is open'
p1635
stRp1636
ag3
(g4
g5
(dp1637
g14
S''
sg40
S'user'
p1638
sg18
S''
sg42
S'User'
p1639
sg19
S''
sg15
g1638
sg28
Nsg44
S'User who presently has the file open'
p1640
stRp1641
ag3
(g4
g5
(dp1642
g14
S''
sg40
S'action'
p1643
sg18
S''
sg42
S'Action'
p1644
sg19
S''
sg15
g1643
sg28
Nsg44
S'Action file is open for: add, edit, delete, branch,\n\t\t    integrate, or import'
p1645
stRp1646
ag3
(g4
g5
(dp1647
g14
S''
sg40
S'isLocked'
p1648
sg18
S''
sg42
S'Int'
p1649
sg19
S''
sg15
g1648
sg28
Nsg44
S'Flag: 0 for unlocked, 1 for locked'
p1650
stRp1651
ag3
(g4
g5
(dp1652
g14
S''
sg40
S'change'
p1653
sg18
S''
sg42
S'Int'
p1654
sg19
S''
sg15
g1653
sg28
Nsg44
S'Changelist in which the revision is open: 0 for the\n\t\t    default changelist'
p1655
stRp1656
atRp1657
sg98
g1615
sg99
S'2'
sg100
g101
sg44
S'Locked/Unlocked files'
p1658
sg42
S'Locks'
p1659
sg104
S'15'
p1660
sg40
S'db.locks'
p1661
stRp1662
sS'revhx'
p1663
g3
(g4
g5
(dp1664
g7
S'depotFile'
p1665
sg9
g3
(g10
g11
(lp1666
g3
(g4
g5
(dp1667
g14
S''
sg15
g16
sg17
g16
sg18
S''
sg19
S''
sg20
g21
sg22
g23
stRp1668
ag3
(g4
g5
(dp1669
g14
S''
sg17
g26
sg18
S''
sg20
g27
sg19
S''
sg15
g26
sg28
Nsg22
g29
stRp1670
ag3
(g4
g5
(dp1671
g14
S''
sg17
g32
sg18
S''
sg20
g21
sg19
S''
sg15
g32
sg28
Nsg22
g33
stRp1672
ag3
(g4
g5
(dp1673
g14
S''
sg17
g36
sg18
S''
sg20
g27
sg19
S''
sg15
g36
sg28
Nsg22
g37
stRp1674
ag3
(g4
g5
(dp1675
g14
S''
sg40
g628
sg18
S''
sg42
g629
sg19
S''
sg15
g628
sg28
Nsg44
g630
stRp1676
ag3
(g4
g5
(dp1677
g14
S''
sg40
g633
sg18
S''
sg42
g634
sg19
S''
sg15
g633
sg28
Nsg44
g635
stRp1678
ag3
(g4
g5
(dp1679
g14
S''
sg40
g638
sg18
S''
sg42
g639
sg19
S''
sg15
g638
sg28
Nsg44
g640
stRp1680
ag3
(g4
g5
(dp1681
g14
S''
sg40
g643
sg18
S''
sg42
g644
sg19
S''
sg15
g643
sg28
Nsg44
g645
stRp1682
ag3
(g4
g5
(dp1683
g14
S''
sg40
g648
sg18
S''
sg42
g649
sg19
S''
sg15
g648
sg28
Nsg44
g650
stRp1684
ag3
(g4
g5
(dp1685
g14
S''
sg40
g653
sg18
S''
sg42
g654
sg19
S''
sg15
g653
sg28
Nsg44
g655
stRp1686
ag3
(g4
g5
(dp1687
g14
S''
sg40
g658
sg18
S''
sg42
g659
sg19
S''
sg15
g658
sg28
Nsg44
g660
stRp1688
ag3
(g4
g5
(dp1689
g14
S''
sg40
g663
sg18
S''
sg42
g664
sg19
S''
sg15
g663
sg28
Nsg44
g665
stRp1690
ag3
(g4
g5
(dp1691
g14
S''
sg40
g668
sg18
S''
sg42
g669
sg19
S''
sg15
g668
sg28
Nsg44
g670
stRp1692
ag3
(g4
g5
(dp1693
g14
S''
sg40
g673
sg18
S''
sg42
g674
sg19
S''
sg15
g673
sg28
Nsg44
g675
stRp1694
ag3
(g4
g5
(dp1695
g14
S''
sg40
g678
sg18
S''
sg42
g679
sg19
S''
sg15
g678
sg28
Nsg44
g680
stRp1696
ag3
(g4
g5
(dp1697
g14
S''
sg40
g683
sg18
S''
sg42
g684
sg19
S''
sg15
g683
sg28
Nsg44
g685
stRp1698
ag3
(g4
g5
(dp1699
g14
S''
sg40
g688
sg18
S''
sg42
g689
sg19
S''
sg15
g688
sg28
Nsg44
g690
stRp1700
ag3
(g4
g5
(dp1701
g14
S''
sg40
g693
sg18
S''
sg42
g694
sg19
S''
sg15
g693
sg28
Nsg44
g695
stRp1702
atRp1703
sg98
g1663
sg99
S'7'
sg100
g101
sg44
S'Revision records for revisions NOT deleted at the head revision.'
p1704
sg42
S'Rev'
p1705
sg104
S'21'
p1706
sg40
S'db.revhx'
p1707
stRp1708
sS'integ'
p1709
g3
(g4
g5
(dp1710
g7
S'toFile, fromFile, startFromRev'
p1711
sg9
g3
(g10
g11
(lp1712
g3
(g4
g5
(dp1713
g14
S''
sg15
g16
sg17
g16
sg18
S''
sg19
S''
sg20
g21
sg22
g23
stRp1714
ag3
(g4
g5
(dp1715
g14
S''
sg17
g26
sg18
S''
sg20
g27
sg19
S''
sg15
g26
sg28
Nsg22
g29
stRp1716
ag3
(g4
g5
(dp1717
g14
S''
sg17
g32
sg18
S''
sg20
g21
sg19
S''
sg15
g32
sg28
Nsg22
g33
stRp1718
ag3
(g4
g5
(dp1719
g14
S''
sg17
g36
sg18
S''
sg20
g27
sg19
S''
sg15
g36
sg28
Nsg22
g37
stRp1720
ag3
(g4
g5
(dp1721
g14
S''
sg40
S'toFile'
p1722
sg18
S''
sg42
S'File'
p1723
sg19
S''
sg15
g1722
sg28
Nsg44
S'File to which integration is being performed (target).'
p1724
stRp1725
ag3
(g4
g5
(dp1726
g14
S''
sg40
S'fromFile'
p1727
sg18
S''
sg42
S'File'
p1728
sg19
S''
sg15
g1727
sg28
Nsg44
S'File from which integration is being performed (source).'
p1729
stRp1730
ag3
(g4
g5
(dp1731
g14
S''
sg40
S'startFromRev'
p1732
sg18
S''
sg42
S'Rev'
p1733
sg19
S''
sg15
g1732
sg28
Nsg44
S'Starting revision of fromFile'
p1734
stRp1735
ag3
(g4
g5
(dp1736
g14
S''
sg40
S'endFromRev'
p1737
sg18
S''
sg42
S'Rev'
p1738
sg19
S''
sg15
g1737
sg28
Nsg44
S'Ending revision of fromFile. If integrating from a single \n\t\t    revision (not a revision range), the startFromRev and \n\t\t    endFromRev fields will be identical.'
p1739
stRp1740
ag3
(g4
g5
(dp1741
g14
S''
sg40
S'toRev'
p1742
sg18
S''
sg42
S'Rev'
p1743
sg19
S''
sg15
g1742
sg28
Nsg44
S'Revision of toFile into which integration is being \n\t\t    performed.'
p1744
stRp1745
ag3
(g4
g5
(dp1746
g14
S''
sg40
S'how'
p1747
sg18
S''
sg42
S'IntegHow'
p1748
sg19
S''
sg15
g1747
sg28
Nsg44
S'Integration method: variations on \n\t\t    merge/branch/copy/ignore/delete.'
p1749
stRp1750
ag3
(g4
g5
(dp1751
g14
S''
sg40
S'committed'
p1752
sg18
S''
sg42
S'Int'
p1753
sg19
S''
sg15
g1752
sg28
Nsg44
S'Flag: 0 for pending, 1 for committed.'
p1754
stRp1755
ag3
(g4
g5
(dp1756
g14
S''
sg40
S'resolved'
p1757
sg18
S''
sg42
S'ResolvedStatus'
p1758
sg19
S''
sg15
g1757
sg28
Nsg44
S'Resolution method: unresolved, resolved manually, \n\t\t    or resolved as part of a branch or delete.'
p1759
stRp1760
ag3
(g4
g5
(dp1761
g14
S''
sg40
S'change'
p1762
sg18
S''
sg42
S'Change'
p1763
sg19
S''
sg15
g1762
sg28
Nsg44
S'Changelist associated with the integration.'
p1764
stRp1765
atRp1766
sg98
g1709
sg40
S'db.integ'
p1767
sg99
S'0'
sg100
g101
sg151
g3
(g10
g11
(lp1768
S'db.integed'
p1769
aS'db.resolve'
p1770
atRp1771
sg42
S'Integ'
p1772
sg104
S'9'
sg44
S'Integration records: obsolete since 2001.1'
p1773
stRp1774
sS'ixdate'
p1775
g3
(g4
g5
(dp1776
g7
S'date, attr, value'
p1777
sg9
g3
(g10
g11
(lp1778
g3
(g4
g5
(dp1779
g14
S''
sg15
g16
sg17
g16
sg18
S''
sg19
S''
sg20
g21
sg22
g23
stRp1780
ag3
(g4
g5
(dp1781
g14
S''
sg17
g26
sg18
S''
sg20
g27
sg19
S''
sg15
g26
sg28
Nsg22
g29
stRp1782
ag3
(g4
g5
(dp1783
g14
S''
sg17
g32
sg18
S''
sg20
g21
sg19
S''
sg15
g32
sg28
Nsg22
g33
stRp1784
ag3
(g4
g5
(dp1785
g14
S''
sg17
g36
sg18
S''
sg20
g27
sg19
S''
sg15
g36
sg28
Nsg22
g37
stRp1786
ag3
(g4
g5
(dp1787
g14
S''
sg40
S'date'
p1788
sg18
S''
sg42
S'Date'
p1789
sg19
S''
sg15
g1788
sg28
Nsg44
S'Date value'
p1790
stRp1791
ag3
(g4
g5
(dp1792
g14
S''
sg40
S'attr'
p1793
sg18
S''
sg42
S'Int'
p1794
sg19
S''
sg15
g1793
sg28
Nsg44
S'The attribute number (from the jobspec) to which this\n\t\t    date belongs'
p1795
stRp1796
ag3
(g4
g5
(dp1797
g14
S''
sg40
S'value'
p1798
sg18
S''
sg42
S'String'
p1799
sg19
S''
sg15
g1798
sg28
Nsg44
S'A job name'
p1800
stRp1801
atRp1802
sg98
g1775
sg40
S'db.ixdate'
p1803
sg741
S'Obsoleted in 2009.2'
p1804
sg99
S'0'
sg100
g101
sg151
S'db.ixtext'
p1805
sg42
S'IndexDate'
p1806
sg104
S'40'
p1807
sg44
S'Indexing data for date-valued job attributes.'
p1808
stRp1809
sS'bodtext'
p1810
g3
(g4
g5
(dp1811
g7
S'key, attr'
p1812
sg9
g3
(g10
g11
(lp1813
g3
(g4
g5
(dp1814
g14
S''
sg15
g16
sg17
g16
sg18
S''
sg19
S''
sg20
g21
sg22
g23
stRp1815
ag3
(g4
g5
(dp1816
g14
S''
sg17
g26
sg18
S''
sg20
g27
sg19
S''
sg15
g26
sg28
Nsg22
g29
stRp1817
ag3
(g4
g5
(dp1818
g14
S''
sg17
g32
sg18
S''
sg20
g21
sg19
S''
sg15
g32
sg28
Nsg22
g33
stRp1819
ag3
(g4
g5
(dp1820
g14
S''
sg17
g36
sg18
S''
sg20
g27
sg19
S''
sg15
g36
sg28
Nsg22
g37
stRp1821
ag3
(g4
g5
(dp1822
g14
S''
sg40
S'key'
p1823
sg18
S''
sg42
S'String'
p1824
sg19
S''
sg15
g1823
sg28
Nsg44
S'The job to which this attribute belongs'
p1825
stRp1826
ag3
(g4
g5
(dp1827
g14
S''
sg40
S'attr'
p1828
sg18
S''
sg42
S'Int'
p1829
sg19
S''
sg15
g1828
sg28
Nsg44
S'The attribute number (from the jobspec) of this attribute'
p1830
stRp1831
ag3
(g4
g5
(dp1832
g14
S''
sg40
S'isBulk'
p1833
sg18
S''
sg42
S'Int'
p1834
sg19
S''
sg15
g1833
sg28
Nsg44
S'Indicates whether (1), or not (0) the field is a bulk\n\t\t    text field that should not be indexed.'
p1835
stRp1836
ag3
(g4
g5
(dp1837
g14
S''
sg40
S'text'
p1838
sg18
S''
sg42
S'Text'
p1839
sg19
S''
sg15
g1838
sg28
Nsg44
S'The attribute value'
p1840
stRp1841
atRp1842
sg98
g1810
sg99
S'1'
sg100
g101
sg44
S'Job data for job attributes.'
p1843
sg42
S'BodyText'
p1844
sg104
S'39'
p1845
sg40
S'db.bodtext'
p1846
stRp1847
sS'changex'
p1848
g3
(g4
g5
(dp1849
g7
S'change'
p1850
sg9
g3
(g10
g11
(lp1851
g3
(g4
g5
(dp1852
g14
S''
sg15
g16
sg17
g16
sg18
S''
sg19
S''
sg20
g21
sg22
g23
stRp1853
ag3
(g4
g5
(dp1854
g14
S''
sg17
g26
sg18
S''
sg20
g27
sg19
S''
sg15
g26
sg28
Nsg22
g29
stRp1855
ag3
(g4
g5
(dp1856
g14
S''
sg17
g32
sg18
S''
sg20
g21
sg19
S''
sg15
g32
sg28
Nsg22
g33
stRp1857
ag3
(g4
g5
(dp1858
g14
S''
sg17
g36
sg18
S''
sg20
g27
sg19
S''
sg15
g36
sg28
Nsg22
g37
stRp1859
ag3
(g4
g5
(dp1860
g14
S''
sg40
g1450
sg18
S''
sg42
g1451
sg19
S''
sg15
g1450
sg28
Nsg44
g1452
stRp1861
ag3
(g4
g5
(dp1862
g14
S''
sg40
g1455
sg18
S''
sg42
g1456
sg19
S''
sg15
g1455
sg28
Nsg44
g1457
stRp1863
ag3
(g4
g5
(dp1864
g14
S''
sg40
g1460
sg18
S''
sg42
g1461
sg19
S''
sg15
g1460
sg28
Nsg44
g1462
stRp1865
ag3
(g4
g5
(dp1866
g14
S''
sg40
g1465
sg18
S''
sg42
g1466
sg19
S''
sg15
g1465
sg28
Nsg44
g1467
stRp1867
ag3
(g4
g5
(dp1868
g14
S''
sg40
g1470
sg18
S''
sg42
g1471
sg19
S''
sg15
g1470
sg28
Nsg44
g1472
stRp1869
ag3
(g4
g5
(dp1870
g14
S''
sg40
g1475
sg18
S''
sg42
g1476
sg19
S''
sg15
g1475
sg28
Nsg44
g1477
stRp1871
ag3
(g4
g5
(dp1872
g14
S''
sg40
g1480
sg18
S''
sg42
g1481
sg19
S''
sg15
g1480
sg28
Nsg44
g1482
stRp1873
ag3
(g4
g5
(dp1874
g14
S''
sg40
g1485
sg18
S''
sg42
g1486
sg19
S''
sg15
g1485
sg28
Nsg44
g1487
stRp1875
atRp1876
sg98
g1848
sg741
S'contains records for pending changelists only.'
p1877
sg99
S'1'
sg100
g101
sg44
S'Subset of db.change'
p1878
sg42
S'Change'
p1879
sg104
S'30'
p1880
sg40
S'db.changex'
p1881
stRp1882
sS'boddate'
p1883
g3
(g4
g5
(dp1884
g7
S'key, attr'
p1885
sg9
g3
(g10
g11
(lp1886
g3
(g4
g5
(dp1887
g14
S''
sg15
g16
sg17
g16
sg18
S''
sg19
S''
sg20
g21
sg22
g23
stRp1888
ag3
(g4
g5
(dp1889
g14
S''
sg17
g26
sg18
S''
sg20
g27
sg19
S''
sg15
g26
sg28
Nsg22
g29
stRp1890
ag3
(g4
g5
(dp1891
g14
S''
sg17
g32
sg18
S''
sg20
g21
sg19
S''
sg15
g32
sg28
Nsg22
g33
stRp1892
ag3
(g4
g5
(dp1893
g14
S''
sg17
g36
sg18
S''
sg20
g27
sg19
S''
sg15
g36
sg28
Nsg22
g37
stRp1894
ag3
(g4
g5
(dp1895
g14
S''
sg40
S'key'
p1896
sg18
S''
sg42
S'String'
p1897
sg19
S''
sg15
g1896
sg28
Nsg44
S'The job to which this attribute belongs'
p1898
stRp1899
ag3
(g4
g5
(dp1900
g14
S''
sg40
S'attr'
p1901
sg18
S''
sg42
S'Int'
p1902
sg19
S''
sg15
g1901
sg28
Nsg44
S'The attribute number (from the jobspec) of this attribute'
p1903
stRp1904
ag3
(g4
g5
(dp1905
g14
S''
sg40
S'date'
p1906
sg18
S''
sg42
S'Date'
p1907
sg19
S''
sg15
g1906
sg28
Nsg44
S'The date value itself'
p1908
stRp1909
atRp1910
sg98
g1883
sg741
S'Obsoleted in 2009.2'
p1911
sg99
S'0'
sg100
g101
sg44
S'Job data for date-valued attributes'
p1912
sg42
S'BodyDate'
p1913
sg104
S'38'
p1914
sg40
S'db.boddate'
p1915
stRp1916
sS'review'
p1917
g3
(g4
g5
(dp1918
g7
S'user, seq'
p1919
sg9
g3
(g10
g11
(lp1920
g3
(g4
g5
(dp1921
g14
S''
sg15
g16
sg17
g16
sg18
S''
sg19
S''
sg20
g21
sg22
g23
stRp1922
ag3
(g4
g5
(dp1923
g14
S''
sg17
g26
sg18
S''
sg20
g27
sg19
S''
sg15
g26
sg28
Nsg22
g29
stRp1924
ag3
(g4
g5
(dp1925
g14
S''
sg17
g32
sg18
S''
sg20
g21
sg19
S''
sg15
g32
sg28
Nsg22
g33
stRp1926
ag3
(g4
g5
(dp1927
g14
S''
sg17
g36
sg18
S''
sg20
g27
sg19
S''
sg15
g36
sg28
Nsg22
g37
stRp1928
ag3
(g4
g5
(dp1929
g14
S''
sg40
S'user'
p1930
sg18
S''
sg42
S'User'
p1931
sg19
S''
sg15
g1930
sg28
Nsg44
S'A user name'
p1932
stRp1933
ag3
(g4
g5
(dp1934
g14
S''
sg40
S'seq'
p1935
sg18
S''
sg42
S'Int'
p1936
sg19
S''
sg15
g1935
sg28
Nsg44
S'Sequence number: used for ordering multi-line views'
p1937
stRp1938
ag3
(g4
g5
(dp1939
g14
S''
sg40
S'mapFlag'
p1940
sg18
S''
sg42
S'MapFlag'
p1941
sg19
S''
sg15
g1940
sg28
Nsg44
S'Type of mapping'
p1942
stRp1943
ag3
(g4
g5
(dp1944
g14
S''
sg40
S'depotFile'
p1945
sg18
S''
sg42
S'Mapping'
p1946
sg19
S''
sg15
g1945
sg28
Nsg44
S'The files to be reviewed'
p1947
stRp1948
ag3
(g4
g5
(dp1949
g14
S''
sg40
S'type'
p1950
sg18
S''
sg42
S'Reviewer'
p1951
sg19
S''
sg15
g1950
sg28
Nsg44
S'Type of reviewer'
p1952
stRp1953
atRp1954
sg98
g1917
sg99
S'1'
sg100
g101
sg44
S"Contains user's review mappings"
p1955
sg42
S'Review'
p1956
sg104
S'8'
sg40
S'db.review'
p1957
stRp1958
sS'view'
p1959
g3
(g4
g5
(dp1960
g7
S'name, seq'
p1961
sg9
g3
(g10
g11
(lp1962
g3
(g4
g5
(dp1963
g14
S''
sg15
g16
sg17
g16
sg18
S''
sg19
S''
sg20
g21
sg22
g23
stRp1964
ag3
(g4
g5
(dp1965
g14
S''
sg17
g26
sg18
S''
sg20
g27
sg19
S''
sg15
g26
sg28
Nsg22
g29
stRp1966
ag3
(g4
g5
(dp1967
g14
S''
sg17
g32
sg18
S''
sg20
g21
sg19
S''
sg15
g32
sg28
Nsg22
g33
stRp1968
ag3
(g4
g5
(dp1969
g14
S''
sg17
g36
sg18
S''
sg20
g27
sg19
S''
sg15
g36
sg28
Nsg22
g37
stRp1970
ag3
(g4
g5
(dp1971
g14
S''
sg40
S'name'
p1972
sg18
S''
sg42
S'Domain'
p1973
sg19
S''
sg15
g1972
sg28
Nsg44
S'Domain name to which this view applies'
p1974
stRp1975
ag3
(g4
g5
(dp1976
g14
S''
sg40
S'seq'
p1977
sg18
S''
sg42
S'Int'
p1978
sg19
S''
sg15
g1977
sg28
Nsg44
S'Sequence number: for ordering multi-line views'
p1979
stRp1980
ag3
(g4
g5
(dp1981
g14
S''
sg40
S'mapFlag'
p1982
sg18
S''
sg42
S'MapFlag'
p1983
sg19
S''
sg15
g1982
sg28
Nsg44
S'Type of mapping'
p1984
stRp1985
ag3
(g4
g5
(dp1986
g14
S''
sg40
S'viewFile'
p1987
sg18
S''
sg42
S'Mapping'
p1988
sg19
S''
sg15
g1987
sg28
Nsg44
S"The right-hand-side of the view. For clients, this is\n\t\t    the client-side, for labels it's the generated label \n\t\t    view. For branches, it's the target side of the branch\n\t\t    view."
p1989
stRp1990
ag3
(g4
g5
(dp1991
g14
S''
sg40
S'depotFile'
p1992
sg18
S''
sg42
S'Mapping'
p1993
sg19
S''
sg15
g1992
sg28
Nsg44
S'The left-hand-side of the view - a mapping to file(s)\n\t\t    in the depot.'
p1994
stRp1995
atRp1996
sg98
g1959
sg99
S'1'
sg100
g101
sg44
S'Contains views for domains'
p1997
sg42
S'View'
p1998
sg104
S'7'
sg40
S'db.view'
p1999
stRp2000
s.