(dp1
S'domain'
p2
ccopy_reg
_reconstructor
p3
(clib.sqUtils
Storage
p4
c__builtin__
dict
p5
(dp6
S'keying'
p7
S'name'
p8
sS'peek_lockseq'
p9
S'12'
p10
sS'fields'
p11
g3
(clib.sqUtils
Lst
p12
c__builtin__
list
p13
(lp14
g3
(g4
g5
(dp15
S'comment'
p16
S''
sS'fieldname'
p17
S'id'
p18
sS'name'
p19
g18
sS'default'
p20
S''
sS'label'
p21
S''
sS'type'
p22
S'integer'
p23
sS'desc'
p24
S'Record number as read in'
p25
stRp26
ag3
(g4
g5
(dp27
g16
S''
sg19
S'db_action'
p28
sg20
S''
sg22
S'string'
p29
sg21
S''
sg17
g28
sS'requires'
p30
Nsg24
S'Operation on table'
p31
stRp32
ag3
(g4
g5
(dp33
g16
S''
sg19
S'table_revision'
p34
sg20
S''
sg22
g23
sg21
S''
sg17
g34
sg30
Nsg24
S'Revision of the p4 schema table'
p35
stRp36
ag3
(g4
g5
(dp37
g16
S''
sg19
S'table_name'
p38
sg20
S''
sg22
g29
sg21
S''
sg17
g38
sg30
Nsg24
S'Redundant... but this is the table name'
p39
stRp40
ag3
(g4
g5
(dp41
g16
S''
sS'name'
p42
S'name'
p43
sg20
S''
sS'type'
p44
S'Domain'
p45
sg21
S''
sg17
g43
sg30
NsS'desc'
p46
S'Domain name'
p47
stRp48
ag3
(g4
g5
(dp49
g16
S''
sg42
S'type'
p50
sg20
S''
sg44
S'DomainType'
p51
sg21
S''
sg17
g50
sg30
Nsg46
S'Type of domain'
p52
stRp53
ag3
(g4
g5
(dp54
g16
S''
sg42
S'extra'
p55
sg20
S''
sg44
S'Text'
p56
sg21
S''
sg17
g55
sg30
Nsg46
S'Formerly "host". Associated host or, for labels, revision \n\t\t    number.'
p57
stRp58
ag3
(g4
g5
(dp59
g16
S''
sg42
S'mount'
p60
sg20
S''
sg44
S'Text'
p61
sg21
S''
sg17
g60
sg30
Nsg46
S'The client root'
p62
stRp63
ag3
(g4
g5
(dp64
g16
S''
sg42
S'mount2'
p65
sg20
S''
sg44
S'Text'
p66
sg21
S''
sg17
g65
sg30
Nsg46
S'Alternate client root'
p67
stRp68
ag3
(g4
g5
(dp69
g16
S''
sg42
S'mount3'
p70
sg20
S''
sg44
S'Text'
p71
sg21
S''
sg17
g70
sg30
Nsg46
S'Alternate client root'
p72
stRp73
ag3
(g4
g5
(dp74
g16
S''
sg42
S'owner'
p75
sg20
S''
sg44
S'User'
p76
sg21
S''
sg17
g75
sg30
Nsg46
S'Name of user who owns the domain.'
p77
stRp78
ag3
(g4
g5
(dp79
g16
S''
sg42
S'updateDate'
p80
sg20
S''
sg44
S'Date'
p81
sg21
S''
sg17
g80
sg30
Nsg46
S'Date of last update to domain specification.'
p82
stRp83
ag3
(g4
g5
(dp84
g16
S''
sg42
S'accessDate'
p85
sg20
S''
sg44
S'Date'
p86
sg21
S''
sg17
g85
sg30
Nsg46
S'Date of last access to domain specification.'
p87
stRp88
ag3
(g4
g5
(dp89
g16
S''
sg42
S'options'
p90
sg20
S''
sg44
S'DomainOpts'
p91
sg21
S''
sg17
g90
sg30
Nsg46
S'Options for client, label, and branch domains.'
p92
stRp93
ag3
(g4
g5
(dp94
g16
S''
sg42
S'description'
p95
sg20
S''
sg44
S'Text'
p96
sg21
S''
sg17
g95
sg30
Nsg46
S'Description of domain.'
p97
stRp98
ag3
(g4
g5
(dp99
g16
S''
sg42
S'stream'
p100
sg20
S''
sg44
S'Text'
p101
sg21
S''
sg17
g100
sg30
Nsg46
S'Associated stream for client records'
p102
stRp103
ag3
(g4
g5
(dp104
g16
S''
sg42
S'serverid'
p105
sg20
S''
sg44
S'Text'
p106
sg21
S''
sg17
g105
sg30
Nsg46
S'Associated server ID for client records'
p107
stRp108
ag3
(g4
g5
(dp109
g16
S''
sg42
S'partition'
p110
sg20
S''
sg44
S'Int'
p111
sg21
S''
sg17
g110
sg30
Nsg46
S'Currently unused. Reserved for future use'
p112
stRp113
atRp114
sS'tablename'
p115
g2
sg42
S'db.domain'
p116
sS'version'
p117
S'6'
sS'classic_lockseq'
p118
S'12'
p119
sS'schemaversion'
p120
S'2014.2'
p121
sg44
S'Domain'
p122
sg46
S'Domains: depots, clients, labels, branches, streams, and typemap'
p123
stRp124
sS'have'
p125
g3
(g4
g5
(dp126
g7
S'clientFile'
p127
sg9
S'19'
p128
sg11
g3
(g12
g13
(lp129
g3
(g4
g5
(dp130
g16
S''
sg17
g18
sg19
g18
sg20
S''
sg21
S''
sg22
g23
sg24
g25
stRp131
ag3
(g4
g5
(dp132
g16
S''
sg19
g28
sg20
S''
sg22
g29
sg21
S''
sg17
g28
sg30
Nsg24
g31
stRp133
ag3
(g4
g5
(dp134
g16
S''
sg19
g34
sg20
S''
sg22
g23
sg21
S''
sg17
g34
sg30
Nsg24
g35
stRp135
ag3
(g4
g5
(dp136
g16
S''
sg19
g38
sg20
S''
sg22
g29
sg21
S''
sg17
g38
sg30
Nsg24
g39
stRp137
ag3
(g4
g5
(dp138
g16
S''
sg42
S'clientFile'
p139
sg20
S''
sg44
S'File'
p140
sg21
S''
sg17
g139
sg30
Nsg46
S'The file in its location on the client'
p141
stRp142
ag3
(g4
g5
(dp143
g16
S''
sg42
S'depotFile'
p144
sg20
S''
sg44
S'File'
p145
sg21
S''
sg17
g144
sg30
Nsg46
S'The file in the depot'
p146
stRp147
ag3
(g4
g5
(dp148
g16
S''
sg42
S'haveRev'
p149
sg20
S''
sg44
S'Rev'
p150
sg21
S''
sg17
g149
sg30
Nsg46
S'The revision synced to the client'
p151
stRp152
ag3
(g4
g5
(dp153
g16
S''
sg42
S'type'
p154
sg20
S''
sg44
S'FileType'
p155
sg21
S''
sg17
g154
sg30
Nsg46
S'The filetype of the synced revision'
p156
stRp157
atRp158
sg115
g125
sg42
S'db.have'
p159
sg117
S'2'
sg118
S'22'
p160
sg120
g121
sg44
S'Have'
p161
sg46
S"Contains the 'have-list' for all clients"
p162
stRp163
sS'stream'
p164
g3
(g4
g5
(dp165
g7
S'stream'
p166
sg9
S'11'
p167
sg11
g3
(g12
g13
(lp168
g3
(g4
g5
(dp169
g16
S''
sg17
g18
sg19
g18
sg20
S''
sg21
S''
sg22
g23
sg24
g25
stRp170
ag3
(g4
g5
(dp171
g16
S''
sg19
g28
sg20
S''
sg22
g29
sg21
S''
sg17
g28
sg30
Nsg24
g31
stRp172
ag3
(g4
g5
(dp173
g16
S''
sg19
g34
sg20
S''
sg22
g23
sg21
S''
sg17
g34
sg30
Nsg24
g35
stRp174
ag3
(g4
g5
(dp175
g16
S''
sg19
g38
sg20
S''
sg22
g29
sg21
S''
sg17
g38
sg30
Nsg24
g39
stRp176
ag3
(g4
g5
(dp177
g16
S''
sg42
S'stream'
p178
sg20
S''
sg44
S'Domain'
p179
sg21
S''
sg17
g178
sg30
Nsg46
S'Stream name'
p180
stRp181
ag3
(g4
g5
(dp182
g16
S''
sg42
S'parent'
p183
sg20
S''
sg44
S'Domain'
p184
sg21
S''
sg17
g183
sg30
Nsg46
S'Parent stream name'
p185
stRp186
ag3
(g4
g5
(dp187
g16
S''
sg42
S'title'
p188
sg20
S''
sg44
S'Text'
p189
sg21
S''
sg17
g188
sg30
Nsg46
S'Stream title (alias for the stream name)'
p190
stRp191
ag3
(g4
g5
(dp192
g16
S''
sg42
S'type'
p193
sg20
S''
sg44
S'StreamType'
p194
sg21
S''
sg17
g193
sg30
Nsg46
S'The type of stream'
p195
stRp196
ag3
(g4
g5
(dp197
g16
S''
sg42
S'preview'
p198
sg20
S''
sg44
S'Date'
p199
sg21
S''
sg17
g198
sg30
Nsg46
S'Stream template modification time'
p200
stRp201
ag3
(g4
g5
(dp202
g16
S''
sg42
S'change'
p203
sg20
S''
sg44
S'Change'
p204
sg21
S''
sg17
g203
sg30
Nsg46
S'Last submit to stream'
p205
stRp206
ag3
(g4
g5
(dp207
g16
S''
sg42
S'copychg'
p208
sg20
S''
sg44
S'Change'
p209
sg21
S''
sg17
g208
sg30
Nsg46
S'Parent change at last copy'
p210
stRp211
ag3
(g4
g5
(dp212
g16
S''
sg42
S'mergechg'
p213
sg20
S''
sg44
S'Change'
p214
sg21
S''
sg17
g213
sg30
Nsg46
S'Parent change at last merge'
p215
stRp216
ag3
(g4
g5
(dp217
g16
S''
sg42
S'highchg'
p218
sg20
S''
sg44
S'Change'
p219
sg21
S''
sg17
g218
sg30
Nsg46
S'Highest change at last merge'
p220
stRp221
ag3
(g4
g5
(dp222
g16
S''
sg42
S'hash'
p223
sg20
S''
sg44
S'Int'
p224
sg21
S''
sg17
g223
sg30
Nsg46
S'Hash value of dynamic branch'
p225
stRp226
ag3
(g4
g5
(dp227
g16
S''
sg42
S'status'
p228
sg20
S''
sg44
S'StreamStatus'
p229
sg21
S''
sg17
g228
sg30
Nsg46
S'Flow status'
p230
stRp231
atRp232
sg115
g164
sg42
S'db.stream'
p233
sg117
S'1'
sg118
S'11'
p234
sg120
g121
sg44
S'Stream'
p235
sg46
S'Perforce streams'
p236
stRp237
sS'svrview'
p238
g3
(g4
g5
(dp239
g7
S'id, type, seq'
p240
sg9
S'6'
sg11
g3
(g12
g13
(lp241
g3
(g4
g5
(dp242
g16
S''
sg17
g18
sg19
g18
sg20
S''
sg21
S''
sg22
g23
sg24
g25
stRp243
ag3
(g4
g5
(dp244
g16
S''
sg19
g28
sg20
S''
sg22
g29
sg21
S''
sg17
g28
sg30
Nsg24
g31
stRp245
ag3
(g4
g5
(dp246
g16
S''
sg19
g34
sg20
S''
sg22
g23
sg21
S''
sg17
g34
sg30
Nsg24
g35
stRp247
ag3
(g4
g5
(dp248
g16
S''
sg19
g38
sg20
S''
sg22
g29
sg21
S''
sg17
g38
sg30
Nsg24
g39
stRp249
ag3
(g4
g5
(dp250
g16
S''
sg42
S'id'
p251
sg20
S''
sg44
S'Text'
p252
sg21
S''
sg17
g251
sg30
Nsg46
S'Server name'
p253
stRp254
ag3
(g4
g5
(dp255
g16
S''
sg42
S'type'
p256
sg20
S''
sg44
S'SvrViewType'
p257
sg21
S''
sg17
g256
sg30
Nsg46
S'View type'
p258
stRp259
ag3
(g4
g5
(dp260
g16
S''
sg42
S'seq'
p261
sg20
S''
sg44
S'Int'
p262
sg21
S''
sg17
g261
sg30
Nsg46
S'Sequence (line) number'
p263
stRp264
ag3
(g4
g5
(dp265
g16
S''
sg42
S'mapFlag'
p266
sg20
S''
sg44
S'MapFlag'
p267
sg21
S''
sg17
g266
sg30
Nsg46
S'Type of mapping'
p268
stRp269
ag3
(g4
g5
(dp270
g16
S''
sg42
S'viewFile'
p271
sg20
S''
sg44
S'Mapping'
p272
sg21
S''
sg17
g271
sg30
Nsg46
S'View file'
p273
stRp274
atRp275
sg115
g238
sg42
S'db.svrview'
p276
sg117
S'0'
sg118
S'6'
sg120
g121
sg44
S'SvrView'
p277
sg46
S'View data for servers specifications'
p278
stRp279
sS'revpx'
p280
g3
(g4
g5
(dp281
g7
S'depotFile, depotRev'
p282
sg9
S'27'
p283
sg11
g3
(g12
g13
(lp284
g3
(g4
g5
(dp285
g16
S''
sg17
g18
sg19
g18
sg20
S''
sg21
S''
sg22
g23
sg24
g25
stRp286
ag3
(g4
g5
(dp287
g16
S''
sg19
g28
sg20
S''
sg22
g29
sg21
S''
sg17
g28
sg30
Nsg24
g31
stRp288
ag3
(g4
g5
(dp289
g16
S''
sg19
g34
sg20
S''
sg22
g23
sg21
S''
sg17
g34
sg30
Nsg24
g35
stRp290
ag3
(g4
g5
(dp291
g16
S''
sg19
g38
sg20
S''
sg22
g29
sg21
S''
sg17
g38
sg30
Nsg24
g39
stRp292
ag3
(g4
g5
(dp293
g16
S''
sg42
S'depotFile'
p294
sg20
S''
sg44
S'File'
p295
sg21
S''
sg17
g294
sg30
Nsg46
S'The file name'
p296
stRp297
ag3
(g4
g5
(dp298
g16
S''
sg42
S'depotRev'
p299
sg20
S''
sg44
S'Rev'
p300
sg21
S''
sg17
g299
sg30
Nsg46
S'The revision number'
p301
stRp302
ag3
(g4
g5
(dp303
g16
S''
sg42
S'type'
p304
sg20
S''
sg44
S'FileType'
p305
sg21
S''
sg17
g304
sg30
Nsg46
S'The file type of the revision'
p306
stRp307
ag3
(g4
g5
(dp308
g16
S''
sg42
S'action'
p309
sg20
S''
sg44
S'Action'
p310
sg21
S''
sg17
g309
sg30
Nsg46
S'The action that created the revision'
p311
stRp312
ag3
(g4
g5
(dp313
g16
S''
sg42
S'change'
p314
sg20
S''
sg44
S'Change'
p315
sg21
S''
sg17
g314
sg30
Nsg46
S'The changelist that created the revision'
p316
stRp317
ag3
(g4
g5
(dp318
g16
S''
sg42
S'date'
p319
sg20
S''
sg44
S'Date'
p320
sg21
S''
sg17
g319
sg30
Nsg46
S'The date/time the changelist that created the revision\n\t\t    was submitted'
p321
stRp322
ag3
(g4
g5
(dp323
g16
S''
sg42
S'modTime'
p324
sg20
S''
sg44
S'Date'
p325
sg21
S''
sg17
g324
sg30
Nsg46
S"The timestamp on the file in the user's workspace when\n\t\t    the revision was submitted."
p326
stRp327
ag3
(g4
g5
(dp328
g16
S''
sg42
S'digest'
p329
sg20
S''
sg44
S'Digest'
p330
sg21
S''
sg17
g329
sg30
Nsg46
S'The MD5 digest of the revision.'
p331
stRp332
ag3
(g4
g5
(dp333
g16
S''
sg42
S'size'
p334
sg20
S''
sg44
S'FileSize'
p335
sg21
S''
sg17
g334
sg30
Nsg46
S'The size of the file in bytes'
p336
stRp337
ag3
(g4
g5
(dp338
g16
S''
sg42
S'traitLot'
p339
sg20
S''
sg44
S'TraitLot'
p340
sg21
S''
sg17
g339
sg30
Nsg46
S'Group of traits (attributes) associated with the revision.'
p341
stRp342
ag3
(g4
g5
(dp343
g16
S''
sg42
S'lbrIsLazy'
p344
sg20
S''
sg44
S'RevStatus'
p345
sg21
S''
sg17
g344
sg30
Nsg46
S'Specifies whether or not the revision gets its content from \n\t  \t    another file (lazy copy), data about promotion of revision\n\t \t    content from task streams, and data about revision charset \n            information.'
p346
stRp347
ag3
(g4
g5
(dp348
g16
S''
sg42
S'lbrFile'
p349
sg20
S''
sg44
S'File'
p350
sg21
S''
sg17
g349
sg30
Nsg46
S"Filename for librarian's purposes.  Specifies location in \n\t\t    the archives where the file containing the revision may\n\t\t    be found. Usually the same as depotFile, but differs in\n\t\t    the case of branched/copied revisions."
p351
stRp352
ag3
(g4
g5
(dp353
g16
S''
sg42
S'lbrRev'
p354
sg20
S''
sg44
S'String'
p355
sg21
S''
sg17
g354
sg30
Nsg46
S'The revision of lbrFile that contains the revision content.'
p356
stRp357
ag3
(g4
g5
(dp358
g16
S''
sg42
S'lbrType'
p359
sg20
S''
sg44
S'FileType'
p360
sg21
S''
sg17
g359
sg30
Nsg46
S'The file type of the librarian revision. Usually the same\n\t\t    as type, but differs in the case of branched/copied \n\t\t    revisions.'
p361
stRp362
atRp363
sg115
g280
sg42
S'db.revpx'
p364
sS'note'
p365
S'Only populated during content trigger execution to allow \n\t\ttriggers access to the revisions being submitted.'
p366
sg117
S'9'
sg118
S'32'
p367
sg120
g121
sg44
S'Rev'
p368
sg46
S'Pending revision records'
p369
stRp370
sS'traits'
p371
g3
(g4
g5
(dp372
g7
S'traitLot, name'
p373
sg9
S'39'
p374
sg11
g3
(g12
g13
(lp375
g3
(g4
g5
(dp376
g16
S''
sg17
g18
sg19
g18
sg20
S''
sg21
S''
sg22
g23
sg24
g25
stRp377
ag3
(g4
g5
(dp378
g16
S''
sg19
g28
sg20
S''
sg22
g29
sg21
S''
sg17
g28
sg30
Nsg24
g31
stRp379
ag3
(g4
g5
(dp380
g16
S''
sg19
g34
sg20
S''
sg22
g23
sg21
S''
sg17
g34
sg30
Nsg24
g35
stRp381
ag3
(g4
g5
(dp382
g16
S''
sg19
g38
sg20
S''
sg22
g29
sg21
S''
sg17
g38
sg30
Nsg24
g39
stRp383
ag3
(g4
g5
(dp384
g16
S''
sg42
S'traitLot'
p385
sg20
S''
sg44
S'Int'
p386
sg21
S''
sg17
g385
sg30
Nsg46
S'Indicates a specific collection of traits (referred to \n\t\t    externally as "attributes".)'
p387
stRp388
ag3
(g4
g5
(dp389
g16
S''
sg42
S'name'
p390
sg20
S''
sg44
S'String'
p391
sg21
S''
sg17
g390
sg30
Nsg46
S'Trait (attribute) name'
p392
stRp393
ag3
(g4
g5
(dp394
g16
S''
sg42
S'type'
p395
sg20
S''
sg44
S'TraitType'
p396
sg21
S''
sg17
g395
sg30
Nsg46
S'Type of trait'
p397
stRp398
ag3
(g4
g5
(dp399
g16
S''
sg42
S'value'
p400
sg20
S''
sg44
S'Octet String'
p401
sg21
S''
sg17
g400
sg30
Nsg46
S'The value'
p402
stRp403
atRp404
sg115
g371
sg42
S'db.traits'
p405
sg117
S'0'
sg118
S'39'
p406
sg120
g121
sg44
S'Trait'
p407
sg46
S'Attributes associated with file revisions'
p408
stRp409
sS'revtx'
p410
g3
(g4
g5
(dp411
g7
S'depotFile, depotRev'
p412
sg9
S'34'
p413
sg11
g3
(g12
g13
(lp414
g3
(g4
g5
(dp415
g16
S''
sg17
g18
sg19
g18
sg20
S''
sg21
S''
sg22
g23
sg24
g25
stRp416
ag3
(g4
g5
(dp417
g16
S''
sg19
g28
sg20
S''
sg22
g29
sg21
S''
sg17
g28
sg30
Nsg24
g31
stRp418
ag3
(g4
g5
(dp419
g16
S''
sg19
g34
sg20
S''
sg22
g23
sg21
S''
sg17
g34
sg30
Nsg24
g35
stRp420
ag3
(g4
g5
(dp421
g16
S''
sg19
g38
sg20
S''
sg22
g29
sg21
S''
sg17
g38
sg30
Nsg24
g39
stRp422
ag3
(g4
g5
(dp423
g16
S''
sg42
g294
sg20
S''
sg44
g295
sg21
S''
sg17
g294
sg30
Nsg46
g296
stRp424
ag3
(g4
g5
(dp425
g16
S''
sg42
g299
sg20
S''
sg44
g300
sg21
S''
sg17
g299
sg30
Nsg46
g301
stRp426
ag3
(g4
g5
(dp427
g16
S''
sg42
g304
sg20
S''
sg44
g305
sg21
S''
sg17
g304
sg30
Nsg46
g306
stRp428
ag3
(g4
g5
(dp429
g16
S''
sg42
g309
sg20
S''
sg44
g310
sg21
S''
sg17
g309
sg30
Nsg46
g311
stRp430
ag3
(g4
g5
(dp431
g16
S''
sg42
g314
sg20
S''
sg44
g315
sg21
S''
sg17
g314
sg30
Nsg46
g316
stRp432
ag3
(g4
g5
(dp433
g16
S''
sg42
g319
sg20
S''
sg44
g320
sg21
S''
sg17
g319
sg30
Nsg46
g321
stRp434
ag3
(g4
g5
(dp435
g16
S''
sg42
g324
sg20
S''
sg44
g325
sg21
S''
sg17
g324
sg30
Nsg46
g326
stRp436
ag3
(g4
g5
(dp437
g16
S''
sg42
g329
sg20
S''
sg44
g330
sg21
S''
sg17
g329
sg30
Nsg46
g331
stRp438
ag3
(g4
g5
(dp439
g16
S''
sg42
g334
sg20
S''
sg44
g335
sg21
S''
sg17
g334
sg30
Nsg46
g336
stRp440
ag3
(g4
g5
(dp441
g16
S''
sg42
g339
sg20
S''
sg44
g340
sg21
S''
sg17
g339
sg30
Nsg46
g341
stRp442
ag3
(g4
g5
(dp443
g16
S''
sg42
g344
sg20
S''
sg44
g345
sg21
S''
sg17
g344
sg30
Nsg46
g346
stRp444
ag3
(g4
g5
(dp445
g16
S''
sg42
g349
sg20
S''
sg44
g350
sg21
S''
sg17
g349
sg30
Nsg46
g351
stRp446
ag3
(g4
g5
(dp447
g16
S''
sg42
g354
sg20
S''
sg44
g355
sg21
S''
sg17
g354
sg30
Nsg46
g356
stRp448
ag3
(g4
g5
(dp449
g16
S''
sg42
g359
sg20
S''
sg44
g360
sg21
S''
sg17
g359
sg30
Nsg46
g361
stRp450
atRp451
sg115
g410
sg42
S'db.revtx'
p452
sg117
S'9'
sg118
S'28'
p453
sg120
g121
sg44
S'Rev'
p454
sg46
S'Temporary revision records'
p455
stRp456
sS'viewrp'
p457
g3
(g4
g5
(dp458
g7
S'name seq'
p459
sg9
S'14'
p460
sg11
g3
(g12
g13
(lp461
g3
(g4
g5
(dp462
g16
S''
sg17
g18
sg19
g18
sg20
S''
sg21
S''
sg22
g23
sg24
g25
stRp463
ag3
(g4
g5
(dp464
g16
S''
sg19
g28
sg20
S''
sg22
g29
sg21
S''
sg17
g28
sg30
Nsg24
g31
stRp465
ag3
(g4
g5
(dp466
g16
S''
sg19
g34
sg20
S''
sg22
g23
sg21
S''
sg17
g34
sg30
Nsg24
g35
stRp467
ag3
(g4
g5
(dp468
g16
S''
sg19
g38
sg20
S''
sg22
g29
sg21
S''
sg17
g38
sg30
Nsg24
g39
stRp469
ag3
(g4
g5
(dp470
g16
S''
sg42
S'name'
p471
sg20
S''
sg44
S'Domain'
p472
sg21
S''
sg17
g471
sg30
Nsg46
S'Domain name to which this view applies'
p473
stRp474
ag3
(g4
g5
(dp475
g16
S''
sg42
S'seq'
p476
sg20
S''
sg44
S'Int'
p477
sg21
S''
sg17
g476
sg30
Nsg46
S'Sequence number: for ordering multi-line views'
p478
stRp479
ag3
(g4
g5
(dp480
g16
S''
sg42
S'mapFlag'
p481
sg20
S''
sg44
S'MapFlag'
p482
sg21
S''
sg17
g481
sg30
Nsg46
S'Type of mapping'
p483
stRp484
ag3
(g4
g5
(dp485
g16
S''
sg42
S'viewFile'
p486
sg20
S''
sg44
S'Mapping'
p487
sg21
S''
sg17
g486
sg30
Nsg46
S"The right-hand-side of the view. For clients, this is\n\t\t    the client-side, for labels it's the generated label \n\t\t    view. For branches, it's the target side of the branch\n\t\t    view."
p488
stRp489
ag3
(g4
g5
(dp490
g16
S''
sg42
S'depotFile'
p491
sg20
S''
sg44
S'Mapping'
p492
sg21
S''
sg17
g491
sg30
Nsg46
S'The left-hand-side of the view - a mapping to file(s)\n\t\t    in the depot.'
p493
stRp494
atRp495
sg115
g457
sg42
S'db.view.rp'
p496
sg117
S'1'
sg118
S'14'
p497
sg120
g121
sg44
S'View'
p498
sg46
S'Contains views for clients of build-server replicas'
p499
stRp500
sS'ixtext'
p501
g3
(g4
g5
(dp502
g7
S'word, attr, value'
p503
sg9
S'48'
p504
sg11
g3
(g12
g13
(lp505
g3
(g4
g5
(dp506
g16
S''
sg17
g18
sg19
g18
sg20
S''
sg21
S''
sg22
g23
sg24
g25
stRp507
ag3
(g4
g5
(dp508
g16
S''
sg19
g28
sg20
S''
sg22
g29
sg21
S''
sg17
g28
sg30
Nsg24
g31
stRp509
ag3
(g4
g5
(dp510
g16
S''
sg19
g34
sg20
S''
sg22
g23
sg21
S''
sg17
g34
sg30
Nsg24
g35
stRp511
ag3
(g4
g5
(dp512
g16
S''
sg19
g38
sg20
S''
sg22
g29
sg21
S''
sg17
g38
sg30
Nsg24
g39
stRp513
ag3
(g4
g5
(dp514
g16
S''
sg42
S'word'
p515
sg20
S''
sg44
S'String'
p516
sg21
S''
sg17
g515
sg30
Nsg46
S'The word being indexed'
p517
stRp518
ag3
(g4
g5
(dp519
g16
S''
sg42
S'attr'
p520
sg20
S''
sg44
S'Int'
p521
sg21
S''
sg17
g520
sg30
Nsg46
S'The attribute number to which this word belongs. For\n\t\t    job data, the attribute number from the jobspec.'
p522
stRp523
ag3
(g4
g5
(dp524
g16
S''
sg42
S'value'
p525
sg20
S''
sg44
S'String'
p526
sg21
S''
sg17
g525
sg30
Nsg46
S'For job data, a job name. For generic data, the value\n\t\t    of the index keyed by the word.'
p527
stRp528
atRp529
sg115
g501
sg42
S'db.ixtext'
p530
sg117
S'0'
sg118
S'48'
p531
sg120
g121
sg44
S'IndexText'
p532
sg46
S'Indexing data for generic and job attributes'
p533
stRp534
sS'message'
p535
g3
(g4
g5
(dp536
g7
S'language, id'
p537
sg9
S'52'
p538
sg11
g3
(g12
g13
(lp539
g3
(g4
g5
(dp540
g16
S''
sg17
g18
sg19
g18
sg20
S''
sg21
S''
sg22
g23
sg24
g25
stRp541
ag3
(g4
g5
(dp542
g16
S''
sg19
g28
sg20
S''
sg22
g29
sg21
S''
sg17
g28
sg30
Nsg24
g31
stRp543
ag3
(g4
g5
(dp544
g16
S''
sg19
g34
sg20
S''
sg22
g23
sg21
S''
sg17
g34
sg30
Nsg24
g35
stRp545
ag3
(g4
g5
(dp546
g16
S''
sg19
g38
sg20
S''
sg22
g29
sg21
S''
sg17
g38
sg30
Nsg24
g39
stRp547
ag3
(g4
g5
(dp548
g16
S''
sg42
S'language'
p549
sg20
S''
sg44
S'String'
p550
sg21
S''
sg17
g549
sg30
Nsg46
S'The language for which this message applies'
p551
stRp552
ag3
(g4
g5
(dp553
g16
S''
sg42
S'id'
p554
sg20
S''
sg44
S'Int'
p555
sg21
S''
sg17
g554
sg30
Nsg46
S'The message number'
p556
stRp557
ag3
(g4
g5
(dp558
g16
S''
sg42
S'message'
p559
sg20
S''
sg44
S'String'
p560
sg21
S''
sg17
g559
sg30
Nsg46
S'The message text'
p561
stRp562
atRp563
sg115
g535
sg42
S'db.message'
p564
sg117
S'0'
sg118
S'52'
p565
sg120
g121
sg44
S'Message'
p566
sg46
S'System messages'
p567
stRp568
sS'rdblbr'
p569
g3
(g4
g5
(dp570
g42
S'rdb.lbr'
p571
sg115
g569
sg11
g3
(g12
g13
(lp572
g3
(g4
g5
(dp573
g16
S''
sg17
g18
sg19
g18
sg20
S''
sg21
S''
sg22
g23
sg24
g25
stRp574
ag3
(g4
g5
(dp575
g16
S''
sg19
g28
sg20
S''
sg22
g29
sg21
S''
sg17
g28
sg30
Nsg24
g31
stRp576
ag3
(g4
g5
(dp577
g16
S''
sg19
g34
sg20
S''
sg22
g23
sg21
S''
sg17
g34
sg30
Nsg24
g35
stRp578
ag3
(g4
g5
(dp579
g16
S''
sg19
g38
sg20
S''
sg22
g29
sg21
S''
sg17
g38
sg30
Nsg24
g39
stRp580
ag3
(g4
g5
(dp581
g16
S''
sg42
S'depotFile'
p582
sg20
S''
sg44
S'File'
p583
sg21
S''
sg17
g582
sg30
Nsg46
S'The file name'
p584
stRp585
ag3
(g4
g5
(dp586
g16
S''
sg42
S'lbrRev'
p587
sg20
S''
sg44
S'String'
p588
sg21
S''
sg17
g587
sg30
Nsg46
S'The librarian revision'
p589
stRp590
ag3
(g4
g5
(dp591
g16
S''
sg42
S'type'
p592
sg20
S''
sg44
S'String'
p593
sg21
S''
sg17
g592
sg30
Nsg46
S'The file type of the revision'
p594
stRp595
ag3
(g4
g5
(dp596
g16
S''
sg42
S'status'
p597
sg20
S''
sg44
S'PullStatus'
p598
sg21
S''
sg17
g597
sg30
Nsg46
S'The status of the archive transfer'
p599
stRp600
ag3
(g4
g5
(dp601
g16
S''
sg42
S'action'
p602
sg20
S''
sg44
S'Action'
p603
sg21
S''
sg17
g602
sg30
Nsg46
S'The action that created the revision'
p604
stRp605
ag3
(g4
g5
(dp606
g16
S''
sg42
S'digest'
p607
sg20
S''
sg44
S'Digest'
p608
sg21
S''
sg17
g607
sg30
Nsg46
S'The MD5 digest of the revision'
p609
stRp610
ag3
(g4
g5
(dp611
g16
S''
sg42
S'size'
p612
sg20
S''
sg44
S'FileSize'
p613
sg21
S''
sg17
g612
sg30
Nsg46
S'The size of the file in bytes'
p614
stRp615
ag3
(g4
g5
(dp616
g16
S''
sg42
S'change'
p617
sg20
S''
sg44
S'Change'
p618
sg21
S''
sg17
g617
sg30
Nsg46
S'The changelist that created the revision'
p619
stRp620
ag3
(g4
g5
(dp621
g16
S''
sg42
S'lbrDate'
p622
sg20
S''
sg44
S'Date'
p623
sg21
S''
sg17
g622
sg30
Nsg46
S'Librarian date'
p624
stRp625
ag3
(g4
g5
(dp626
g16
S''
sg42
S'lbrModTime'
p627
sg20
S''
sg44
S'Date'
p628
sg21
S''
sg17
g627
sg30
Nsg46
S'Librarian modtime'
p629
stRp630
ag3
(g4
g5
(dp631
g16
S''
sg42
S'pid'
p632
sg20
S''
sg44
S'Int'
p633
sg21
S''
sg17
g632
sg30
Nsg46
S'The process id (PID) of the pull process'
p634
stRp635
ag3
(g4
g5
(dp636
g16
S''
sg42
S'requestTime'
p637
sg20
S''
sg44
S'Date'
p638
sg21
S''
sg17
g637
sg30
Nsg46
S'Pull request time'
p639
stRp640
ag3
(g4
g5
(dp641
g16
S''
sg42
S'retries'
p642
sg20
S''
sg44
S'Int'
p643
sg21
S''
sg17
g642
sg30
Nsg46
S'The number of retries that have occurred after transfer error'
p644
stRp645
ag3
(g4
g5
(dp646
g16
S''
sg42
S'transferError'
p647
sg20
S''
sg44
S'String'
p648
sg21
S''
sg17
g647
sg30
Nsg46
S'The error message for a failed transfer'
p649
stRp650
atRp651
sg120
g121
sg44
S'ReplicaArchiveTransfer'
p652
sg46
S'Replica server pending archive transfer table'
p653
stRp654
sS'bodtext'
p655
g3
(g4
g5
(dp656
g7
S'key, attr'
p657
sg9
S'47'
p658
sg11
g3
(g12
g13
(lp659
g3
(g4
g5
(dp660
g16
S''
sg17
g18
sg19
g18
sg20
S''
sg21
S''
sg22
g23
sg24
g25
stRp661
ag3
(g4
g5
(dp662
g16
S''
sg19
g28
sg20
S''
sg22
g29
sg21
S''
sg17
g28
sg30
Nsg24
g31
stRp663
ag3
(g4
g5
(dp664
g16
S''
sg19
g34
sg20
S''
sg22
g23
sg21
S''
sg17
g34
sg30
Nsg24
g35
stRp665
ag3
(g4
g5
(dp666
g16
S''
sg19
g38
sg20
S''
sg22
g29
sg21
S''
sg17
g38
sg30
Nsg24
g39
stRp667
ag3
(g4
g5
(dp668
g16
S''
sg42
S'key'
p669
sg20
S''
sg44
S'String'
p670
sg21
S''
sg17
g669
sg30
Nsg46
S'The job to which this attribute belongs'
p671
stRp672
ag3
(g4
g5
(dp673
g16
S''
sg42
S'attr'
p674
sg20
S''
sg44
S'Int'
p675
sg21
S''
sg17
g674
sg30
Nsg46
S'The attribute number (from the jobspec) of this attribute'
p676
stRp677
ag3
(g4
g5
(dp678
g16
S''
sg42
S'isBulk'
p679
sg20
S''
sg44
S'Int'
p680
sg21
S''
sg17
g679
sg30
Nsg46
S'Indicates whether (1), or not (0) the field is a bulk\n\t\t    text field that should not be indexed.'
p681
stRp682
ag3
(g4
g5
(dp683
g16
S''
sg42
S'text'
p684
sg20
S''
sg44
S'Text'
p685
sg21
S''
sg17
g684
sg30
Nsg46
S'The attribute value'
p686
stRp687
atRp688
sg115
g655
sg42
S'db.bodtext'
p689
sg117
S'1'
sg118
S'47'
p690
sg120
g121
sg44
S'BodyText'
p691
sg46
S'Job data for job attributes'
p692
stRp693
sS'group'
p694
g3
(g4
g5
(dp695
g7
S'user, group'
p696
sg9
S'9'
sg11
g3
(g12
g13
(lp697
g3
(g4
g5
(dp698
g16
S''
sg17
g18
sg19
g18
sg20
S''
sg21
S''
sg22
g23
sg24
g25
stRp699
ag3
(g4
g5
(dp700
g16
S''
sg19
g28
sg20
S''
sg22
g29
sg21
S''
sg17
g28
sg30
Nsg24
g31
stRp701
ag3
(g4
g5
(dp702
g16
S''
sg19
g34
sg20
S''
sg22
g23
sg21
S''
sg17
g34
sg30
Nsg24
g35
stRp703
ag3
(g4
g5
(dp704
g16
S''
sg19
g38
sg20
S''
sg22
g29
sg21
S''
sg17
g38
sg30
Nsg24
g39
stRp705
ag3
(g4
g5
(dp706
g16
S''
sg42
S'user'
p707
sg20
S''
sg44
S'User'
p708
sg21
S''
sg17
g707
sg30
Nsg46
S'User name'
p709
stRp710
ag3
(g4
g5
(dp711
g16
S''
sg42
S'group'
p712
sg20
S''
sg44
S'User'
p713
sg21
S''
sg17
g712
sg30
Nsg46
S'Group name'
p714
stRp715
ag3
(g4
g5
(dp716
g16
S''
sg42
S'type'
p717
sg20
S''
sg44
S'UserType'
p718
sg21
S''
sg17
g717
sg30
Nsg46
S'Type of user in this group.'
p719
stRp720
ag3
(g4
g5
(dp721
g16
S''
sg42
S'maxResults'
p722
sg20
S''
sg44
S'MaxResults'
p723
sg21
S''
sg17
g722
sg30
Nsg46
S'MaxResults setting for the group.'
p724
stRp725
ag3
(g4
g5
(dp726
g16
S''
sg42
S'maxScanRows'
p727
sg20
S''
sg44
S'MaxScanRows'
p728
sg21
S''
sg17
g727
sg30
Nsg46
S'MaxScanRows setting for the group.'
p729
stRp730
ag3
(g4
g5
(dp731
g16
S''
sg42
S'maxLockTime'
p732
sg20
S''
sg44
S'MaxLockTime'
p733
sg21
S''
sg17
g732
sg30
Nsg46
S'MaxLockTime setting for the group.'
p734
stRp735
ag3
(g4
g5
(dp736
g16
S''
sg42
S'timeout'
p737
sg20
S''
sg44
S'Int'
p738
sg21
S''
sg17
g737
sg30
Nsg46
S'Length of time (in seconds) a login ticket remains valid.'
p739
stRp740
ag3
(g4
g5
(dp741
g16
S''
sg42
S'passwordTimeout'
p742
sg20
S''
sg44
S'Int'
p743
sg21
S''
sg17
g742
sg30
Nsg46
S'Length of time (in seconds) a password remains valid for users in the group.'
p744
stRp745
atRp746
sg115
g694
sg42
S'db.group'
p747
sg117
S'8'
sg118
S'9'
sg120
g121
sg44
S'Group'
p748
sg46
S'Groups of Perforce users'
p749
stRp750
sS'monitor'
p751
g3
(g4
g5
(dp752
g7
S'id'
p753
sg9
S'55'
p754
sg11
g3
(g12
g13
(lp755
g3
(g4
g5
(dp756
g16
S''
sg17
g18
sg19
g18
sg20
S''
sg21
S''
sg22
g23
sg24
g25
stRp757
ag3
(g4
g5
(dp758
g16
S''
sg19
g28
sg20
S''
sg22
g29
sg21
S''
sg17
g28
sg30
Nsg24
g31
stRp759
ag3
(g4
g5
(dp760
g16
S''
sg19
g34
sg20
S''
sg22
g23
sg21
S''
sg17
g34
sg30
Nsg24
g35
stRp761
ag3
(g4
g5
(dp762
g16
S''
sg19
g38
sg20
S''
sg22
g29
sg21
S''
sg17
g38
sg30
Nsg24
g39
stRp763
ag3
(g4
g5
(dp764
g16
S''
sg42
S'id'
p765
sg20
S''
sg44
S'Int'
p766
sg21
S''
sg17
g765
sg30
Nsg46
S'Thread/process id'
p767
stRp768
ag3
(g4
g5
(dp769
g16
S''
sg42
S'user'
p770
sg20
S''
sg44
S'User'
p771
sg21
S''
sg17
g770
sg30
Nsg46
S'Username of the user running the command'
p772
stRp773
ag3
(g4
g5
(dp774
g16
S''
sg42
S'function'
p775
sg20
S''
sg44
S'String'
p776
sg21
S''
sg17
g775
sg30
Nsg46
S'The command being executed.'
p777
stRp778
ag3
(g4
g5
(dp779
g16
S''
sg42
S'args'
p780
sg20
S''
sg44
S'String'
p781
sg21
S''
sg17
g780
sg30
Nsg46
S'Arguments passed to the command'
p782
stRp783
ag3
(g4
g5
(dp784
g16
S''
sg42
S'startDate'
p785
sg20
S''
sg44
S'Date'
p786
sg21
S''
sg17
g785
sg30
Nsg46
S'The date and time the command started'
p787
stRp788
ag3
(g4
g5
(dp789
g16
S''
sg42
S'runstate'
p790
sg20
S''
sg44
S'Int'
p791
sg21
S''
sg17
g790
sg30
Nsg46
S'Flag: 0 for running, 1 for terminated, 2 for paused'
p792
stRp793
ag3
(g4
g5
(dp794
g16
S''
sg42
S'client'
p795
sg20
S''
sg44
S'Domain'
p796
sg21
S''
sg17
g795
sg30
Nsg46
S'The client workspace'
p797
stRp798
ag3
(g4
g5
(dp799
g16
S''
sg42
S'host'
p800
sg20
S''
sg44
S'Text'
p801
sg21
S''
sg17
g800
sg30
Nsg46
S'The IP address of the client'
p802
stRp803
ag3
(g4
g5
(dp804
g16
S''
sg42
S'prog'
p805
sg20
S''
sg44
S'Text'
p806
sg21
S''
sg17
g805
sg30
Nsg46
S'The name (and version) of the client program'
p807
stRp808
ag3
(g4
g5
(dp809
g16
S''
sg42
S'lockInfo'
p810
sg20
S''
sg44
S'Text'
p811
sg21
S''
sg17
g810
sg30
Nsg46
S'Table locking information for command'
p812
stRp813
atRp814
sg115
g751
sg42
S'db.monitor'
p815
sg117
S'2'
sg118
S'55'
p816
sg120
g121
sg44
S'Monitor'
p817
sg46
S'Perforce process information'
p818
stRp819
sS'working'
p820
g3
(g4
g5
(dp821
g7
S'clientFile'
p822
sg9
S'36'
p823
sg11
g3
(g12
g13
(lp824
g3
(g4
g5
(dp825
g16
S''
sg17
g18
sg19
g18
sg20
S''
sg21
S''
sg22
g23
sg24
g25
stRp826
ag3
(g4
g5
(dp827
g16
S''
sg19
g28
sg20
S''
sg22
g29
sg21
S''
sg17
g28
sg30
Nsg24
g31
stRp828
ag3
(g4
g5
(dp829
g16
S''
sg19
g34
sg20
S''
sg22
g23
sg21
S''
sg17
g34
sg30
Nsg24
g35
stRp830
ag3
(g4
g5
(dp831
g16
S''
sg19
g38
sg20
S''
sg22
g29
sg21
S''
sg17
g38
sg30
Nsg24
g39
stRp832
ag3
(g4
g5
(dp833
g16
S''
sg42
S'clientFile'
p834
sg20
S''
sg44
S'File'
p835
sg21
S''
sg17
g834
sg30
Nsg46
S'File on the client'
p836
stRp837
ag3
(g4
g5
(dp838
g16
S''
sg42
S'depotFile'
p839
sg20
S''
sg44
S'File'
p840
sg21
S''
sg17
g839
sg30
Nsg46
S'File in the depot'
p841
stRp842
ag3
(g4
g5
(dp843
g16
S''
sg42
S'client'
p844
sg20
S''
sg44
S'Domain'
p845
sg21
S''
sg17
g844
sg30
Nsg46
S'The client the file is opened on'
p846
stRp847
ag3
(g4
g5
(dp848
g16
S''
sg42
S'user'
p849
sg20
S''
sg44
S'User'
p850
sg21
S''
sg17
g849
sg30
Nsg46
S'The user who has the file opened'
p851
stRp852
ag3
(g4
g5
(dp853
g16
S''
sg42
S'haveRev'
p854
sg20
S''
sg44
S'Rev'
p855
sg21
S''
sg17
g854
sg30
Nsg46
S"Revision presently in user's client workspace"
p856
stRp857
ag3
(g4
g5
(dp858
g16
S''
sg42
S'workRev'
p859
sg20
S''
sg44
S'Rev'
p860
sg21
S''
sg17
g859
sg30
Nsg46
S'Working revision; normally identical to the haveRev'
p861
stRp862
ag3
(g4
g5
(dp863
g16
S''
sg42
S'isVirtual'
p864
sg20
S''
sg44
S'Int'
p865
sg21
S''
sg17
g864
sg30
Nsg46
S'Flag: if 1, file was opened with "p4 integ -v".'
p866
stRp867
ag3
(g4
g5
(dp868
g16
S''
sg42
S'type'
p869
sg20
S''
sg44
S'FileType'
p870
sg21
S''
sg17
g869
sg30
Nsg46
S'File type'
p871
stRp872
ag3
(g4
g5
(dp873
g16
S''
sg42
S'action'
p874
sg20
S''
sg44
S'Action'
p875
sg21
S''
sg17
g874
sg30
Nsg46
S"What the user's doing with the file"
p876
stRp877
ag3
(g4
g5
(dp878
g16
S''
sg42
S'change'
p879
sg20
S''
sg44
S'Change'
p880
sg21
S''
sg17
g879
sg30
Nsg46
S'Associated changelist, or zero for the default changelist.'
p881
stRp882
ag3
(g4
g5
(dp883
g16
S''
sg42
S'modTime'
p884
sg20
S''
sg44
S'Date'
p885
sg21
S''
sg17
g884
sg30
Nsg46
S"Modification timestamp on the file in the user's workspace."
p886
stRp887
ag3
(g4
g5
(dp888
g16
S''
sg42
S'isLocked'
p889
sg20
S''
sg44
S'Int'
p890
sg21
S''
sg17
g889
sg30
Nsg46
S'Flag: 0 for unlocked, 1 for locked.'
p891
stRp892
ag3
(g4
g5
(dp893
g16
S''
sg42
S'digest'
p894
sg20
S''
sg44
S'Digest'
p895
sg21
S''
sg17
g894
sg30
Nsg46
S'MD5 digest of working file.'
p896
stRp897
ag3
(g4
g5
(dp898
g16
S''
sg42
S'size'
p899
sg20
S''
sg44
S'Int64'
p900
sg21
S''
sg17
g899
sg30
Nsg46
S'File size'
p901
stRp902
ag3
(g4
g5
(dp903
g16
S''
sg42
S'traitLot'
p904
sg20
S''
sg44
S'Int'
p905
sg21
S''
sg17
g904
sg30
Nsg46
S'Group of traits associated with file revision.'
p906
stRp907
ag3
(g4
g5
(dp908
g16
S''
sg42
S'tampered'
p909
sg20
S''
sg44
S'TamperCheck'
p910
sg21
S''
sg17
g909
sg30
Nsg46
S'Flag indicating the tamper-state of the file in the\n\t\t    workspace.'
p911
stRp912
ag3
(g4
g5
(dp913
g16
S''
sg42
S'clntType'
p914
sg20
S''
sg44
S'FileType'
p915
sg21
S''
sg17
g914
sg30
Nsg46
S'Type of the file in the client workspace.'
p916
stRp917
ag3
(g4
g5
(dp918
g16
S''
sg42
S'mFile'
p919
sg20
S''
sg44
S'File'
p920
sg21
S''
sg17
g919
sg30
Nsg46
S'Moved filename'
p921
stRp922
ag3
(g4
g5
(dp923
g16
S''
sg42
S'status'
p924
sg20
S''
sg44
S'Int'
p925
sg21
S''
sg17
g924
sg30
Nsg46
S'Working status'
p926
stRp927
atRp928
sg115
g820
sg42
S'db.working'
p929
sg117
S'10'
p930
sg118
S'37'
p931
sg120
g121
sg44
S'Working'
p932
sg46
S'Records for work in progress'
p933
stRp934
sS'fix'
p935
g3
(g4
g5
(dp936
g7
S'job, change'
p937
sg9
S'45'
p938
sg11
g3
(g12
g13
(lp939
g3
(g4
g5
(dp940
g16
S''
sg17
g18
sg19
g18
sg20
S''
sg21
S''
sg22
g23
sg24
g25
stRp941
ag3
(g4
g5
(dp942
g16
S''
sg19
g28
sg20
S''
sg22
g29
sg21
S''
sg17
g28
sg30
Nsg24
g31
stRp943
ag3
(g4
g5
(dp944
g16
S''
sg19
g34
sg20
S''
sg22
g23
sg21
S''
sg17
g34
sg30
Nsg24
g35
stRp945
ag3
(g4
g5
(dp946
g16
S''
sg19
g38
sg20
S''
sg22
g29
sg21
S''
sg17
g38
sg30
Nsg24
g39
stRp947
ag3
(g4
g5
(dp948
g16
S''
sg42
S'job'
p949
sg20
S''
sg44
S'String'
p950
sg21
S''
sg17
g949
sg30
Nsg46
S'Job name'
p951
stRp952
ag3
(g4
g5
(dp953
g16
S''
sg42
S'change'
p954
sg20
S''
sg44
S'Change'
p955
sg21
S''
sg17
g954
sg30
Nsg46
S'Changelist number'
p956
stRp957
ag3
(g4
g5
(dp958
g16
S''
sg42
S'date'
p959
sg20
S''
sg44
S'Date'
p960
sg21
S''
sg17
g959
sg30
Nsg46
S'Date fix was recorded (may differ from date change was\n\t\t    submitted).'
p961
stRp962
ag3
(g4
g5
(dp963
g16
S''
sg42
S'status'
p964
sg20
S''
sg44
S'FixStatus'
p965
sg21
S''
sg17
g964
sg30
Nsg46
S'Status of the job'
p966
stRp967
ag3
(g4
g5
(dp968
g16
S''
sg42
S'client'
p969
sg20
S''
sg44
S'Domain'
p970
sg21
S''
sg17
g969
sg30
Nsg46
S'The client where the fix originated'
p971
stRp972
ag3
(g4
g5
(dp973
g16
S''
sg42
S'user'
p974
sg20
S''
sg44
S'User'
p975
sg21
S''
sg17
g974
sg30
Nsg46
S'The user who fixed the job'
p976
stRp977
atRp978
sg115
g935
sg42
S'db.fix'
p979
sg117
S'1'
sg118
S'45'
p980
sg120
g121
sg46
S'Fix records - indexed by job'
p981
sg44
S'Fix'
p982
sS'seeAlso'
p983
S'db.fixrev'
p984
stRp985
sS'archmap'
p986
g3
(g4
g5
(dp987
g7
S'lbrFile, depotFile'
p988
sg9
S'24'
p989
sg11
g3
(g12
g13
(lp990
g3
(g4
g5
(dp991
g16
S''
sg17
g18
sg19
g18
sg20
S''
sg21
S''
sg22
g23
sg24
g25
stRp992
ag3
(g4
g5
(dp993
g16
S''
sg19
g28
sg20
S''
sg22
g29
sg21
S''
sg17
g28
sg30
Nsg24
g31
stRp994
ag3
(g4
g5
(dp995
g16
S''
sg19
g34
sg20
S''
sg22
g23
sg21
S''
sg17
g34
sg30
Nsg24
g35
stRp996
ag3
(g4
g5
(dp997
g16
S''
sg19
g38
sg20
S''
sg22
g29
sg21
S''
sg17
g38
sg30
Nsg24
g39
stRp998
ag3
(g4
g5
(dp999
g16
S''
sg42
S'lbrFile'
p1000
sg20
S''
sg44
S'File'
p1001
sg21
S''
sg17
g1000
sg30
Nsg46
S'Paths in the librarian namespace that recieve lazy\n\t\t    copies.'
p1002
stRp1003
ag3
(g4
g5
(dp1004
g16
S''
sg42
S'depotFile'
p1005
sg20
S''
sg44
S'File'
p1006
sg21
S''
sg17
g1005
sg30
Nsg46
S'Paths in the depot namespace that provide lazy copies.'
p1007
stRp1008
atRp1009
sg115
g986
sg42
S'db.archmap'
p1010
sg365
S'Supercedes db.archive'
p1011
sg117
S'0'
sg118
S'26'
p1012
sg120
g121
sg44
S'ArchMap'
p1013
sg46
S'Mappings entries for lazy-copies'
p1014
stRp1015
sS'rev'
p1016
g3
(g4
g5
(dp1017
g7
S'depotFile, depotRev'
p1018
sg9
S'33'
p1019
sg11
g3
(g12
g13
(lp1020
g3
(g4
g5
(dp1021
g16
S''
sg17
g18
sg19
g18
sg20
S''
sg21
S''
sg22
g23
sg24
g25
stRp1022
ag3
(g4
g5
(dp1023
g16
S''
sg19
g28
sg20
S''
sg22
g29
sg21
S''
sg17
g28
sg30
Nsg24
g31
stRp1024
ag3
(g4
g5
(dp1025
g16
S''
sg19
g34
sg20
S''
sg22
g23
sg21
S''
sg17
g34
sg30
Nsg24
g35
stRp1026
ag3
(g4
g5
(dp1027
g16
S''
sg19
g38
sg20
S''
sg22
g29
sg21
S''
sg17
g38
sg30
Nsg24
g39
stRp1028
ag3
(g4
g5
(dp1029
g16
S''
sg42
g294
sg20
S''
sg44
g295
sg21
S''
sg17
g294
sg30
Nsg46
g296
stRp1030
ag3
(g4
g5
(dp1031
g16
S''
sg42
g299
sg20
S''
sg44
g300
sg21
S''
sg17
g299
sg30
Nsg46
g301
stRp1032
ag3
(g4
g5
(dp1033
g16
S''
sg42
g304
sg20
S''
sg44
g305
sg21
S''
sg17
g304
sg30
Nsg46
g306
stRp1034
ag3
(g4
g5
(dp1035
g16
S''
sg42
g309
sg20
S''
sg44
g310
sg21
S''
sg17
g309
sg30
Nsg46
g311
stRp1036
ag3
(g4
g5
(dp1037
g16
S''
sg42
g314
sg20
S''
sg44
g315
sg21
S''
sg17
g314
sg30
Nsg46
g316
stRp1038
ag3
(g4
g5
(dp1039
g16
S''
sg42
g319
sg20
S''
sg44
g320
sg21
S''
sg17
g319
sg30
Nsg46
g321
stRp1040
ag3
(g4
g5
(dp1041
g16
S''
sg42
g324
sg20
S''
sg44
g325
sg21
S''
sg17
g324
sg30
Nsg46
g326
stRp1042
ag3
(g4
g5
(dp1043
g16
S''
sg42
g329
sg20
S''
sg44
g330
sg21
S''
sg17
g329
sg30
Nsg46
g331
stRp1044
ag3
(g4
g5
(dp1045
g16
S''
sg42
g334
sg20
S''
sg44
g335
sg21
S''
sg17
g334
sg30
Nsg46
g336
stRp1046
ag3
(g4
g5
(dp1047
g16
S''
sg42
g339
sg20
S''
sg44
g340
sg21
S''
sg17
g339
sg30
Nsg46
g341
stRp1048
ag3
(g4
g5
(dp1049
g16
S''
sg42
g344
sg20
S''
sg44
g345
sg21
S''
sg17
g344
sg30
Nsg46
g346
stRp1050
ag3
(g4
g5
(dp1051
g16
S''
sg42
g349
sg20
S''
sg44
g350
sg21
S''
sg17
g349
sg30
Nsg46
g351
stRp1052
ag3
(g4
g5
(dp1053
g16
S''
sg42
g354
sg20
S''
sg44
g355
sg21
S''
sg17
g354
sg30
Nsg46
g356
stRp1054
ag3
(g4
g5
(dp1055
g16
S''
sg42
g359
sg20
S''
sg44
g360
sg21
S''
sg17
g359
sg30
Nsg46
g361
stRp1056
atRp1057
sg115
g1016
sg42
S'db.rev'
p1058
sg117
S'9'
sg118
S'27'
p1059
sg120
g121
sg44
S'Rev'
p1060
sg46
S'Revision records'
p1061
stRp1062
sS'tiny'
p1063
g3
(g4
g5
(dp1064
g7
S'fileAndRev'
p1065
sg115
g1063
sg11
g3
(g12
g13
(lp1066
g3
(g4
g5
(dp1067
g16
S''
sg17
g18
sg19
g18
sg20
S''
sg21
S''
sg22
g23
sg24
g25
stRp1068
ag3
(g4
g5
(dp1069
g16
S''
sg19
g28
sg20
S''
sg22
g29
sg21
S''
sg17
g28
sg30
Nsg24
g31
stRp1070
ag3
(g4
g5
(dp1071
g16
S''
sg19
g34
sg20
S''
sg22
g23
sg21
S''
sg17
g34
sg30
Nsg24
g35
stRp1072
ag3
(g4
g5
(dp1073
g16
S''
sg19
g38
sg20
S''
sg22
g29
sg21
S''
sg17
g38
sg30
Nsg24
g39
stRp1074
ag3
(g4
g5
(dp1075
g16
S''
sg42
S'fileAndRev'
p1076
sg20
S''
sg44
S'String'
p1077
sg21
S''
sg17
g1076
sg30
Nsg46
S'The file name and revision'
p1078
stRp1079
ag3
(g4
g5
(dp1080
g16
S''
sg42
S'fileContent'
p1081
sg20
S''
sg44
S'Octet String'
p1082
sg21
S''
sg17
g1081
sg30
Nsg46
S'The (encoded) file content'
p1083
stRp1084
atRp1085
sg120
g121
sg46
S'Records revision and content data for files using the +T file type modifier'
p1086
sg44
S'TinyDb'
p1087
sg42
S'tiny.db'
p1088
stRp1089
sS'label'
p1090
g3
(g4
g5
(dp1091
g7
S'name, depotFile'
p1092
sg9
S'17'
p1093
sg11
g3
(g12
g13
(lp1094
g3
(g4
g5
(dp1095
g16
S''
sg17
g18
sg19
g18
sg20
S''
sg21
S''
sg22
g23
sg24
g25
stRp1096
ag3
(g4
g5
(dp1097
g16
S''
sg19
g28
sg20
S''
sg22
g29
sg21
S''
sg17
g28
sg30
Nsg24
g31
stRp1098
ag3
(g4
g5
(dp1099
g16
S''
sg19
g34
sg20
S''
sg22
g23
sg21
S''
sg17
g34
sg30
Nsg24
g35
stRp1100
ag3
(g4
g5
(dp1101
g16
S''
sg19
g38
sg20
S''
sg22
g29
sg21
S''
sg17
g38
sg30
Nsg24
g39
stRp1102
ag3
(g4
g5
(dp1103
g16
S''
sg42
S'name'
p1104
sg20
S''
sg44
S'Domain'
p1105
sg21
S''
sg17
g1104
sg30
Nsg46
S'Name of the label'
p1106
stRp1107
ag3
(g4
g5
(dp1108
g16
S''
sg42
S'depotFile'
p1109
sg20
S''
sg44
S'File'
p1110
sg21
S''
sg17
g1109
sg30
Nsg46
S'File name'
p1111
stRp1112
ag3
(g4
g5
(dp1113
g16
S''
sg42
S'haveRev'
p1114
sg20
S''
sg44
S'Rev'
p1115
sg21
S''
sg17
g1114
sg30
Nsg46
S'The revision of the file in the label'
p1116
stRp1117
atRp1118
sg115
g1090
sg42
S'db.label'
p1119
sg117
S'0'
sg118
S'23'
p1120
sg120
g121
sg44
S'Label'
p1121
sg46
S'Lists the revisions of files in labels'
p1122
stRp1123
sS'revbx'
p1124
g3
(g4
g5
(dp1125
g7
S'depotFile, depotRev'
p1126
sg9
S'30'
p1127
sg11
g3
(g12
g13
(lp1128
g3
(g4
g5
(dp1129
g16
S''
sg17
g18
sg19
g18
sg20
S''
sg21
S''
sg22
g23
sg24
g25
stRp1130
ag3
(g4
g5
(dp1131
g16
S''
sg19
g28
sg20
S''
sg22
g29
sg21
S''
sg17
g28
sg30
Nsg24
g31
stRp1132
ag3
(g4
g5
(dp1133
g16
S''
sg19
g34
sg20
S''
sg22
g23
sg21
S''
sg17
g34
sg30
Nsg24
g35
stRp1134
ag3
(g4
g5
(dp1135
g16
S''
sg19
g38
sg20
S''
sg22
g29
sg21
S''
sg17
g38
sg30
Nsg24
g39
stRp1136
ag3
(g4
g5
(dp1137
g16
S''
sg42
g294
sg20
S''
sg44
g295
sg21
S''
sg17
g294
sg30
Nsg46
g296
stRp1138
ag3
(g4
g5
(dp1139
g16
S''
sg42
g299
sg20
S''
sg44
g300
sg21
S''
sg17
g299
sg30
Nsg46
g301
stRp1140
ag3
(g4
g5
(dp1141
g16
S''
sg42
g304
sg20
S''
sg44
g305
sg21
S''
sg17
g304
sg30
Nsg46
g306
stRp1142
ag3
(g4
g5
(dp1143
g16
S''
sg42
g309
sg20
S''
sg44
g310
sg21
S''
sg17
g309
sg30
Nsg46
g311
stRp1144
ag3
(g4
g5
(dp1145
g16
S''
sg42
g314
sg20
S''
sg44
g315
sg21
S''
sg17
g314
sg30
Nsg46
g316
stRp1146
ag3
(g4
g5
(dp1147
g16
S''
sg42
g319
sg20
S''
sg44
g320
sg21
S''
sg17
g319
sg30
Nsg46
g321
stRp1148
ag3
(g4
g5
(dp1149
g16
S''
sg42
g324
sg20
S''
sg44
g325
sg21
S''
sg17
g324
sg30
Nsg46
g326
stRp1150
ag3
(g4
g5
(dp1151
g16
S''
sg42
g329
sg20
S''
sg44
g330
sg21
S''
sg17
g329
sg30
Nsg46
g331
stRp1152
ag3
(g4
g5
(dp1153
g16
S''
sg42
g334
sg20
S''
sg44
g335
sg21
S''
sg17
g334
sg30
Nsg46
g336
stRp1154
ag3
(g4
g5
(dp1155
g16
S''
sg42
g339
sg20
S''
sg44
g340
sg21
S''
sg17
g339
sg30
Nsg46
g341
stRp1156
ag3
(g4
g5
(dp1157
g16
S''
sg42
g344
sg20
S''
sg44
g345
sg21
S''
sg17
g344
sg30
Nsg46
g346
stRp1158
ag3
(g4
g5
(dp1159
g16
S''
sg42
g349
sg20
S''
sg44
g350
sg21
S''
sg17
g349
sg30
Nsg46
g351
stRp1160
ag3
(g4
g5
(dp1161
g16
S''
sg42
g354
sg20
S''
sg44
g355
sg21
S''
sg17
g354
sg30
Nsg46
g356
stRp1162
ag3
(g4
g5
(dp1163
g16
S''
sg42
g359
sg20
S''
sg44
g360
sg21
S''
sg17
g359
sg30
Nsg46
g361
stRp1164
atRp1165
sg115
g1124
sg42
S'db.revbx'
p1166
sg117
S'9'
sg118
S'35'
p1167
sg120
g121
sg44
S'Rev'
p1168
sg46
S'Revision records for archived files'
p1169
stRp1170
sS'nameval'
p1171
g3
(g4
g5
(dp1172
g7
S'name'
p1173
sg9
S'3'
sg11
g3
(g12
g13
(lp1174
g3
(g4
g5
(dp1175
g16
S''
sg17
g18
sg19
g18
sg20
S''
sg21
S''
sg22
g23
sg24
g25
stRp1176
ag3
(g4
g5
(dp1177
g16
S''
sg19
g28
sg20
S''
sg22
g29
sg21
S''
sg17
g28
sg30
Nsg24
g31
stRp1178
ag3
(g4
g5
(dp1179
g16
S''
sg19
g34
sg20
S''
sg22
g23
sg21
S''
sg17
g34
sg30
Nsg24
g35
stRp1180
ag3
(g4
g5
(dp1181
g16
S''
sg19
g38
sg20
S''
sg22
g29
sg21
S''
sg17
g38
sg30
Nsg24
g39
stRp1182
ag3
(g4
g5
(dp1183
g16
S''
sg42
S'name'
p1184
sg20
S''
sg44
S'Key'
p1185
sg21
S''
sg17
g1184
sg30
Nsg46
S'Key name'
p1186
stRp1187
ag3
(g4
g5
(dp1188
g16
S''
sg42
S'value'
p1189
sg20
S''
sg44
S'Value'
p1190
sg21
S''
sg17
g1189
sg30
Nsg46
S'Key value'
p1191
stRp1192
atRp1193
sg115
g1171
sg42
S'db.nameval'
p1194
sg117
S'1'
sg118
S'3'
sg120
g121
sg44
S'Keys'
p1195
sg46
S'A table to store key/value pairs'
p1196
stRp1197
sS'trigger'
p1198
g3
(g4
g5
(dp1199
g7
S'seq'
p1200
sg9
S'40'
p1201
sg11
g3
(g12
g13
(lp1202
g3
(g4
g5
(dp1203
g16
S''
sg17
g18
sg19
g18
sg20
S''
sg21
S''
sg22
g23
sg24
g25
stRp1204
ag3
(g4
g5
(dp1205
g16
S''
sg19
g28
sg20
S''
sg22
g29
sg21
S''
sg17
g28
sg30
Nsg24
g31
stRp1206
ag3
(g4
g5
(dp1207
g16
S''
sg19
g34
sg20
S''
sg22
g23
sg21
S''
sg17
g34
sg30
Nsg24
g35
stRp1208
ag3
(g4
g5
(dp1209
g16
S''
sg19
g38
sg20
S''
sg22
g29
sg21
S''
sg17
g38
sg30
Nsg24
g39
stRp1210
ag3
(g4
g5
(dp1211
g16
S''
sg42
S'seq'
p1212
sg20
S''
sg44
S'Int'
p1213
sg21
S''
sg17
g1212
sg30
Nsg46
S'Sequence number: for ordering the trigger list'
p1214
stRp1215
ag3
(g4
g5
(dp1216
g16
S''
sg42
S'name'
p1217
sg20
S''
sg44
S'String'
p1218
sg21
S''
sg17
g1217
sg30
Nsg46
S'Name of the trigger'
p1219
stRp1220
ag3
(g4
g5
(dp1221
g16
S''
sg42
S'mapFlag'
p1222
sg20
S''
sg44
S'MapFlag'
p1223
sg21
S''
sg17
g1222
sg30
Nsg46
S'Type of mapping: specifies whether the trigger applies \n\t\t    to the files or not.'
p1224
stRp1225
ag3
(g4
g5
(dp1226
g16
S''
sg42
S'depotFile'
p1227
sg20
S''
sg44
S'Mapping'
p1228
sg21
S''
sg17
g1227
sg30
Nsg46
S'The files to apply the trigger to'
p1229
stRp1230
ag3
(g4
g5
(dp1231
g16
S''
sg42
S'triggerDepotFile'
p1232
sg20
S''
sg44
S'File'
p1233
sg21
S''
sg17
g1232
sg30
Nsg46
S'Depot path to the trigger'
p1234
stRp1235
ag3
(g4
g5
(dp1236
g16
S''
sg42
S'trigger'
p1237
sg20
S''
sg44
S'Trigger'
p1238
sg21
S''
sg17
g1237
sg30
Nsg46
S'Type of trigger'
p1239
stRp1240
ag3
(g4
g5
(dp1241
g16
S''
sg42
S'action'
p1242
sg20
S''
sg44
S'Text'
p1243
sg21
S''
sg17
g1242
sg30
Nsg46
S'Command to execute when trigger runs'
p1244
stRp1245
atRp1246
sg115
g1198
sg42
S'db.trigger'
p1247
sg117
S'2'
sg118
S'40'
p1248
sg120
g121
sg44
S'Trigger'
p1249
sg46
S'Trigger specifications'
p1250
stRp1251
sS'template'
p1252
g3
(g4
g5
(dp1253
g7
S'name, change, sequence'
p1254
sg9
S'13'
p1255
sg11
g3
(g12
g13
(lp1256
g3
(g4
g5
(dp1257
g16
S''
sg17
g18
sg19
g18
sg20
S''
sg21
S''
sg22
g23
sg24
g25
stRp1258
ag3
(g4
g5
(dp1259
g16
S''
sg19
g28
sg20
S''
sg22
g29
sg21
S''
sg17
g28
sg30
Nsg24
g31
stRp1260
ag3
(g4
g5
(dp1261
g16
S''
sg19
g34
sg20
S''
sg22
g23
sg21
S''
sg17
g34
sg30
Nsg24
g35
stRp1262
ag3
(g4
g5
(dp1263
g16
S''
sg19
g38
sg20
S''
sg22
g29
sg21
S''
sg17
g38
sg30
Nsg24
g39
stRp1264
ag3
(g4
g5
(dp1265
g16
S''
sg42
S'name'
p1266
sg20
S''
sg44
S'Domain'
p1267
sg21
S''
sg17
g1266
sg30
Nsg46
S'Stream name'
p1268
stRp1269
ag3
(g4
g5
(dp1270
g16
S''
sg42
S'change'
p1271
sg20
S''
sg44
S'Change'
p1272
sg21
S''
sg17
g1271
sg30
Nsg46
S'Versioned at change'
p1273
stRp1274
ag3
(g4
g5
(dp1275
g16
S''
sg42
S'seq'
p1276
sg20
S''
sg44
S'Int'
p1277
sg21
S''
sg17
g1276
sg30
Nsg46
S'Sequence (line) number'
p1278
stRp1279
ag3
(g4
g5
(dp1280
g16
S''
sg42
S'parent'
p1281
sg20
S''
sg44
S'Domain'
p1282
sg21
S''
sg17
g1281
sg30
Nsg46
S'Parent stream name'
p1283
stRp1284
ag3
(g4
g5
(dp1285
g16
S''
sg42
S'type'
p1286
sg20
S''
sg44
S'StreamType'
p1287
sg21
S''
sg17
g1286
sg30
Nsg46
S'Type of stream'
p1288
stRp1289
ag3
(g4
g5
(dp1290
g16
S''
sg42
S'path'
p1291
sg20
S''
sg44
S'StreamPathType'
p1292
sg21
S''
sg17
g1291
sg30
Nsg46
S'Stream path type'
p1293
stRp1294
ag3
(g4
g5
(dp1295
g16
S''
sg42
S'viewFile'
p1296
sg20
S''
sg44
S'Mapping'
p1297
sg21
S''
sg17
g1296
sg30
Nsg46
S'View file (left hand side of path)'
p1298
stRp1299
ag3
(g4
g5
(dp1300
g16
S''
sg42
S'depotFile'
p1301
sg20
S''
sg44
S'Mapping'
p1302
sg21
S''
sg17
g1301
sg30
Nsg46
S'Depot file (right hand side of path)'
p1303
stRp1304
ag3
(g4
g5
(dp1305
g16
S''
sg42
S'changeMap'
p1306
sg20
S''
sg44
S'Change'
p1307
sg21
S''
sg17
g1306
sg30
Nsg46
S"Stream 'import' path changelist specifier. The changelist\n\t\t\tlimits in effect for a given client are displayed in a\n\t    \tread-only client spec field called 'ChangeView'"
p1308
stRp1309
atRp1310
sg115
g1252
sg42
S'db.template'
p1311
sg117
S'1'
sg118
S'13'
p1312
sg120
g121
sg44
S'Template'
p1313
sg46
S'Streams templates'
p1314
stRp1315
sS'haverp'
p1316
g3
(g4
g5
(dp1317
g7
S'clientFile depotFile haveRev'
p1318
sg9
S'18'
p1319
sg11
g3
(g12
g13
(lp1320
g3
(g4
g5
(dp1321
g16
S''
sg17
g18
sg19
g18
sg20
S''
sg21
S''
sg22
g23
sg24
g25
stRp1322
ag3
(g4
g5
(dp1323
g16
S''
sg19
g28
sg20
S''
sg22
g29
sg21
S''
sg17
g28
sg30
Nsg24
g31
stRp1324
ag3
(g4
g5
(dp1325
g16
S''
sg19
g34
sg20
S''
sg22
g23
sg21
S''
sg17
g34
sg30
Nsg24
g35
stRp1326
ag3
(g4
g5
(dp1327
g16
S''
sg19
g38
sg20
S''
sg22
g29
sg21
S''
sg17
g38
sg30
Nsg24
g39
stRp1328
ag3
(g4
g5
(dp1329
g16
S''
sg42
g139
sg20
S''
sg44
g140
sg21
S''
sg17
g139
sg30
Nsg46
g141
stRp1330
ag3
(g4
g5
(dp1331
g16
S''
sg42
g144
sg20
S''
sg44
g145
sg21
S''
sg17
g144
sg30
Nsg46
g146
stRp1332
ag3
(g4
g5
(dp1333
g16
S''
sg42
g149
sg20
S''
sg44
g150
sg21
S''
sg17
g149
sg30
Nsg46
g151
stRp1334
ag3
(g4
g5
(dp1335
g16
S''
sg42
g154
sg20
S''
sg44
g155
sg21
S''
sg17
g154
sg30
Nsg46
g156
stRp1336
atRp1337
sg115
g1316
sg42
S'db.have.rp'
p1338
sg117
S'2'
sg118
S'21'
p1339
sg120
g121
sg44
S'Have'
p1340
sg46
S"Contains the 'have-list' for clients of build-server replicas"
p1341
stRp1342
sS'depot'
p1343
g3
(g4
g5
(dp1344
g7
S'name'
p1345
sg9
S'10'
p1346
sg11
g3
(g12
g13
(lp1347
g3
(g4
g5
(dp1348
g16
S''
sg17
g18
sg19
g18
sg20
S''
sg21
S''
sg22
g23
sg24
g25
stRp1349
ag3
(g4
g5
(dp1350
g16
S''
sg19
g28
sg20
S''
sg22
g29
sg21
S''
sg17
g28
sg30
Nsg24
g31
stRp1351
ag3
(g4
g5
(dp1352
g16
S''
sg19
g34
sg20
S''
sg22
g23
sg21
S''
sg17
g34
sg30
Nsg24
g35
stRp1353
ag3
(g4
g5
(dp1354
g16
S''
sg19
g38
sg20
S''
sg22
g29
sg21
S''
sg17
g38
sg30
Nsg24
g39
stRp1355
ag3
(g4
g5
(dp1356
g16
S''
sg42
S'name'
p1357
sg20
S''
sg44
S'Domain'
p1358
sg21
S''
sg17
g1357
sg30
Nsg46
S'Depot name'
p1359
stRp1360
ag3
(g4
g5
(dp1361
g16
S''
sg42
S'type'
p1362
sg20
S''
sg44
S'DepotType'
p1363
sg21
S''
sg17
g1362
sg30
Nsg46
S'Type of depot'
p1364
stRp1365
ag3
(g4
g5
(dp1366
g16
S''
sg42
S'extra'
p1367
sg20
S''
sg44
S'Text'
p1368
sg21
S''
sg17
g1367
sg30
Nsg46
S'For remote depots, the P4PORT address of the remote server.\n\t\t    For spec depots, the field contains a suffix to append to \n\t\t    the filename.'
p1369
stRp1370
ag3
(g4
g5
(dp1371
g16
S''
sg42
S'map'
p1372
sg20
S''
sg44
S'Text'
p1373
sg21
S''
sg17
g1372
sg30
Nsg46
S"The depot's map (path translation information).  For local \n\t\t    depots, this will be a path relative to the root directory.\n\t\t    For remote depots, this will be specified in terms of the \n\t\t    remote server's namespace."
p1374
stRp1375
atRp1376
sg115
g1343
sg42
S'db.depot'
p1377
sg117
S'1'
sg118
S'10'
p1378
sg120
g121
sg44
S'Depot'
p1379
sg46
S'Perforce depots'
p1380
stRp1381
sS'config'
p1382
g3
(g4
g5
(dp1383
g7
S'serverName, name'
p1384
sg9
S'1'
sg11
g3
(g12
g13
(lp1385
g3
(g4
g5
(dp1386
g16
S''
sg17
g18
sg19
g18
sg20
S''
sg21
S''
sg22
g23
sg24
g25
stRp1387
ag3
(g4
g5
(dp1388
g16
S''
sg19
g28
sg20
S''
sg22
g29
sg21
S''
sg17
g28
sg30
Nsg24
g31
stRp1389
ag3
(g4
g5
(dp1390
g16
S''
sg19
g34
sg20
S''
sg22
g23
sg21
S''
sg17
g34
sg30
Nsg24
g35
stRp1391
ag3
(g4
g5
(dp1392
g16
S''
sg19
g38
sg20
S''
sg22
g29
sg21
S''
sg17
g38
sg30
Nsg24
g39
stRp1393
ag3
(g4
g5
(dp1394
g16
S''
sg42
S'sname'
p1395
sg20
S''
sg44
S'String'
p1396
sg21
S''
sg17
g1395
sg30
Nsg46
S'Server name'
p1397
stRp1398
ag3
(g4
g5
(dp1399
g16
S''
sg42
S'name'
p1400
sg20
S''
sg44
S'String'
p1401
sg21
S''
sg17
g1400
sg30
Nsg46
S'Configuration variable name'
p1402
stRp1403
ag3
(g4
g5
(dp1404
g16
S''
sg42
S'value'
p1405
sg20
S''
sg44
S'Value'
p1406
sg21
S''
sg17
g1405
sg30
Nsg46
S'Configuration variable value'
p1407
stRp1408
atRp1409
sg115
g1382
sg42
S'db.config'
p1410
sg117
S'1'
sg118
S'1'
sg120
g121
sg44
S'Config'
p1411
sg46
S'Perforce server configurations table'
p1412
stRp1413
sS'sendq'
p1414
g3
(g4
g5
(dp1415
g7
S'taskid, seq'
p1416
sg9
S'53'
p1417
sg11
g3
(g12
g13
(lp1418
g3
(g4
g5
(dp1419
g16
S''
sg17
g18
sg19
g18
sg20
S''
sg21
S''
sg22
g23
sg24
g25
stRp1420
ag3
(g4
g5
(dp1421
g16
S''
sg19
g28
sg20
S''
sg22
g29
sg21
S''
sg17
g28
sg30
Nsg24
g31
stRp1422
ag3
(g4
g5
(dp1423
g16
S''
sg19
g34
sg20
S''
sg22
g23
sg21
S''
sg17
g34
sg30
Nsg24
g35
stRp1424
ag3
(g4
g5
(dp1425
g16
S''
sg19
g38
sg20
S''
sg22
g29
sg21
S''
sg17
g38
sg30
Nsg24
g39
stRp1426
ag3
(g4
g5
(dp1427
g16
S''
sg42
S'taskID'
p1428
sg20
S''
sg44
S'Int'
p1429
sg21
S''
sg17
g1428
sg30
Nsg46
S'The process id (PID) of the sync'
p1430
stRp1431
ag3
(g4
g5
(dp1432
g16
S''
sg42
S'seq'
p1433
sg20
S''
sg44
S'Int'
p1434
sg21
S''
sg17
g1433
sg30
Nsg46
S'Sequence number'
p1435
stRp1436
ag3
(g4
g5
(dp1437
g16
S''
sg42
S'handle'
p1438
sg20
S''
sg44
S'text'
p1439
sg21
S''
sg17
g1438
sg30
Nsg46
S'Handle'
p1440
stRp1441
ag3
(g4
g5
(dp1442
g16
S''
sg42
S'depotFile'
p1443
sg20
S''
sg44
S'File'
p1444
sg21
S''
sg17
g1443
sg30
Nsg46
S'The file in the depot'
p1445
stRp1446
ag3
(g4
g5
(dp1447
g16
S''
sg42
S'clientFile'
p1448
sg20
S''
sg44
S'File'
p1449
sg21
S''
sg17
g1448
sg30
Nsg46
S'The file in its location on the client'
p1450
stRp1451
ag3
(g4
g5
(dp1452
g16
S''
sg42
S'haveRev'
p1453
sg20
S''
sg44
S'Rev'
p1454
sg21
S''
sg17
g1453
sg30
Nsg46
S'Have revision'
p1455
stRp1456
ag3
(g4
g5
(dp1457
g16
S''
sg42
S'type'
p1458
sg20
S''
sg44
S'FileType'
p1459
sg21
S''
sg17
g1458
sg30
Nsg46
S'File type'
p1460
stRp1461
ag3
(g4
g5
(dp1462
g16
S''
sg42
S'modtime'
p1463
sg20
S''
sg44
S'Date'
p1464
sg21
S''
sg17
g1463
sg30
Nsg46
S'Modification time'
p1465
stRp1466
ag3
(g4
g5
(dp1467
g16
S''
sg42
S'digest'
p1468
sg20
S''
sg44
S'Digest'
p1469
sg21
S''
sg17
g1468
sg30
Nsg46
S'The MD5 digest of the revision'
p1470
stRp1471
ag3
(g4
g5
(dp1472
g16
S''
sg42
S'size'
p1473
sg20
S''
sg44
S'FileSize'
p1474
sg21
S''
sg17
g1473
sg30
Nsg46
S'The size of the file in bytes'
p1475
stRp1476
ag3
(g4
g5
(dp1477
g16
S''
sg42
S'lbrFile'
p1478
sg20
S''
sg44
S'File'
p1479
sg21
S''
sg17
g1478
sg30
Nsg46
S'Librarian filename'
p1480
stRp1481
ag3
(g4
g5
(dp1482
g16
S''
sg42
S'lbrRev'
p1483
sg20
S''
sg44
S'LbrRev'
p1484
sg21
S''
sg17
g1483
sg30
Nsg46
S'The revision of lbrFile that contains the revision content'
p1485
stRp1486
ag3
(g4
g5
(dp1487
g16
S''
sg42
S'lbrType'
p1488
sg20
S''
sg44
S'FileType'
p1489
sg21
S''
sg17
g1488
sg30
Nsg46
S'The file type of the librarian revision'
p1490
stRp1491
ag3
(g4
g5
(dp1492
g16
S''
sg42
S'flags'
p1493
sg20
S''
sg44
S'Int'
p1494
sg21
S''
sg17
g1493
sg30
Nsg46
S'Flags'
p1495
stRp1496
ag3
(g4
g5
(dp1497
g16
S''
sg42
S'clientType'
p1498
sg20
S''
sg44
S'FileType'
p1499
sg21
S''
sg17
g1498
sg30
Nsg46
S'The client file type of the revision'
p1500
stRp1501
atRp1502
sg115
g1414
sg42
S'db.sendq'
p1503
sg117
S'1'
sg118
S'53'
p1504
sg120
g121
sg44
S'SendQ'
p1505
sg46
S'Parallel file transmission work queue'
p1506
stRp1507
sS'counters'
p1508
g3
(g4
g5
(dp1509
g7
S'name'
p1510
sg9
S'2'
sg11
g3
(g12
g13
(lp1511
g3
(g4
g5
(dp1512
g16
S''
sg17
g18
sg19
g18
sg20
S''
sg21
S''
sg22
g23
sg24
g25
stRp1513
ag3
(g4
g5
(dp1514
g16
S''
sg19
g28
sg20
S''
sg22
g29
sg21
S''
sg17
g28
sg30
Nsg24
g31
stRp1515
ag3
(g4
g5
(dp1516
g16
S''
sg19
g34
sg20
S''
sg22
g23
sg21
S''
sg17
g34
sg30
Nsg24
g35
stRp1517
ag3
(g4
g5
(dp1518
g16
S''
sg19
g38
sg20
S''
sg22
g29
sg21
S''
sg17
g38
sg30
Nsg24
g39
stRp1519
ag3
(g4
g5
(dp1520
g16
S''
sg42
S'name'
p1521
sg20
S''
sg44
S'Counter'
p1522
sg21
S''
sg17
g1521
sg30
Nsg46
S'Counter name'
p1523
stRp1524
ag3
(g4
g5
(dp1525
g16
S''
sg42
S'value'
p1526
sg20
S''
sg44
S'Value'
p1527
sg21
S''
sg17
g1526
sg30
Nsg46
S'Counter value'
p1528
stRp1529
atRp1530
sg115
g1508
sg42
S'db.counters'
p1531
sg117
S'1'
sg118
S'2'
sg120
g121
sg44
S'Counters'
p1532
sg46
S'Perforce counters table'
p1533
stRp1534
sS'fixrev'
p1535
g3
(g4
g5
(dp1536
g7
S'change, job'
p1537
sg9
S'46'
p1538
sg11
g3
(g12
g13
(lp1539
g3
(g4
g5
(dp1540
g16
S''
sg17
g18
sg19
g18
sg20
S''
sg21
S''
sg22
g23
sg24
g25
stRp1541
ag3
(g4
g5
(dp1542
g16
S''
sg19
g28
sg20
S''
sg22
g29
sg21
S''
sg17
g28
sg30
Nsg24
g31
stRp1543
ag3
(g4
g5
(dp1544
g16
S''
sg19
g34
sg20
S''
sg22
g23
sg21
S''
sg17
g34
sg30
Nsg24
g35
stRp1545
ag3
(g4
g5
(dp1546
g16
S''
sg19
g38
sg20
S''
sg22
g29
sg21
S''
sg17
g38
sg30
Nsg24
g39
stRp1547
ag3
(g4
g5
(dp1548
g16
S''
sg42
g949
sg20
S''
sg44
g950
sg21
S''
sg17
g949
sg30
Nsg46
g951
stRp1549
ag3
(g4
g5
(dp1550
g16
S''
sg42
g954
sg20
S''
sg44
g955
sg21
S''
sg17
g954
sg30
Nsg46
g956
stRp1551
ag3
(g4
g5
(dp1552
g16
S''
sg42
g959
sg20
S''
sg44
g960
sg21
S''
sg17
g959
sg30
Nsg46
g961
stRp1553
ag3
(g4
g5
(dp1554
g16
S''
sg42
g964
sg20
S''
sg44
g965
sg21
S''
sg17
g964
sg30
Nsg46
g966
stRp1555
ag3
(g4
g5
(dp1556
g16
S''
sg42
g969
sg20
S''
sg44
g970
sg21
S''
sg17
g969
sg30
Nsg46
g971
stRp1557
ag3
(g4
g5
(dp1558
g16
S''
sg42
g974
sg20
S''
sg44
g975
sg21
S''
sg17
g974
sg30
Nsg46
g976
stRp1559
atRp1560
sg115
g1535
sg42
S'db.fixrev'
p1561
sg117
S'1'
sg118
S'46'
p1562
sg120
g121
sg46
S'Fix records - indexed by change'
p1563
sg44
S'Fix'
p1564
sg983
S'db.fix'
p1565
stRp1566
sS'revdx'
p1567
g3
(g4
g5
(dp1568
g7
S'depotFile'
p1569
sg9
S'25'
p1570
sg11
g3
(g12
g13
(lp1571
g3
(g4
g5
(dp1572
g16
S''
sg17
g18
sg19
g18
sg20
S''
sg21
S''
sg22
g23
sg24
g25
stRp1573
ag3
(g4
g5
(dp1574
g16
S''
sg19
g28
sg20
S''
sg22
g29
sg21
S''
sg17
g28
sg30
Nsg24
g31
stRp1575
ag3
(g4
g5
(dp1576
g16
S''
sg19
g34
sg20
S''
sg22
g23
sg21
S''
sg17
g34
sg30
Nsg24
g35
stRp1577
ag3
(g4
g5
(dp1578
g16
S''
sg19
g38
sg20
S''
sg22
g29
sg21
S''
sg17
g38
sg30
Nsg24
g39
stRp1579
ag3
(g4
g5
(dp1580
g16
S''
sg42
g294
sg20
S''
sg44
g295
sg21
S''
sg17
g294
sg30
Nsg46
g296
stRp1581
ag3
(g4
g5
(dp1582
g16
S''
sg42
g299
sg20
S''
sg44
g300
sg21
S''
sg17
g299
sg30
Nsg46
g301
stRp1583
ag3
(g4
g5
(dp1584
g16
S''
sg42
g304
sg20
S''
sg44
g305
sg21
S''
sg17
g304
sg30
Nsg46
g306
stRp1585
ag3
(g4
g5
(dp1586
g16
S''
sg42
g309
sg20
S''
sg44
g310
sg21
S''
sg17
g309
sg30
Nsg46
g311
stRp1587
ag3
(g4
g5
(dp1588
g16
S''
sg42
g314
sg20
S''
sg44
g315
sg21
S''
sg17
g314
sg30
Nsg46
g316
stRp1589
ag3
(g4
g5
(dp1590
g16
S''
sg42
g319
sg20
S''
sg44
g320
sg21
S''
sg17
g319
sg30
Nsg46
g321
stRp1591
ag3
(g4
g5
(dp1592
g16
S''
sg42
g324
sg20
S''
sg44
g325
sg21
S''
sg17
g324
sg30
Nsg46
g326
stRp1593
ag3
(g4
g5
(dp1594
g16
S''
sg42
g329
sg20
S''
sg44
g330
sg21
S''
sg17
g329
sg30
Nsg46
g331
stRp1595
ag3
(g4
g5
(dp1596
g16
S''
sg42
g334
sg20
S''
sg44
g335
sg21
S''
sg17
g334
sg30
Nsg46
g336
stRp1597
ag3
(g4
g5
(dp1598
g16
S''
sg42
g339
sg20
S''
sg44
g340
sg21
S''
sg17
g339
sg30
Nsg46
g341
stRp1599
ag3
(g4
g5
(dp1600
g16
S''
sg42
g344
sg20
S''
sg44
g345
sg21
S''
sg17
g344
sg30
Nsg46
g346
stRp1601
ag3
(g4
g5
(dp1602
g16
S''
sg42
g349
sg20
S''
sg44
g350
sg21
S''
sg17
g349
sg30
Nsg46
g351
stRp1603
ag3
(g4
g5
(dp1604
g16
S''
sg42
g354
sg20
S''
sg44
g355
sg21
S''
sg17
g354
sg30
Nsg46
g356
stRp1605
ag3
(g4
g5
(dp1606
g16
S''
sg42
g359
sg20
S''
sg44
g360
sg21
S''
sg17
g359
sg30
Nsg46
g361
stRp1607
atRp1608
sg115
g1567
sg42
S'db.revdx'
p1609
sg117
S'9'
sg118
S'30'
p1610
sg120
g121
sg44
S'Rev'
p1611
sg46
S'Revision records for revisions deleted at the head revision'
p1612
stRp1613
sS'revsx'
p1614
g3
(g4
g5
(dp1615
g7
S'depotFile, depotRev'
p1616
sg9
S'28'
p1617
sg11
g3
(g12
g13
(lp1618
g3
(g4
g5
(dp1619
g16
S''
sg17
g18
sg19
g18
sg20
S''
sg21
S''
sg22
g23
sg24
g25
stRp1620
ag3
(g4
g5
(dp1621
g16
S''
sg19
g28
sg20
S''
sg22
g29
sg21
S''
sg17
g28
sg30
Nsg24
g31
stRp1622
ag3
(g4
g5
(dp1623
g16
S''
sg19
g34
sg20
S''
sg22
g23
sg21
S''
sg17
g34
sg30
Nsg24
g35
stRp1624
ag3
(g4
g5
(dp1625
g16
S''
sg19
g38
sg20
S''
sg22
g29
sg21
S''
sg17
g38
sg30
Nsg24
g39
stRp1626
ag3
(g4
g5
(dp1627
g16
S''
sg42
g294
sg20
S''
sg44
g295
sg21
S''
sg17
g294
sg30
Nsg46
g296
stRp1628
ag3
(g4
g5
(dp1629
g16
S''
sg42
g299
sg20
S''
sg44
g300
sg21
S''
sg17
g299
sg30
Nsg46
g301
stRp1630
ag3
(g4
g5
(dp1631
g16
S''
sg42
g304
sg20
S''
sg44
g305
sg21
S''
sg17
g304
sg30
Nsg46
g306
stRp1632
ag3
(g4
g5
(dp1633
g16
S''
sg42
g309
sg20
S''
sg44
g310
sg21
S''
sg17
g309
sg30
Nsg46
g311
stRp1634
ag3
(g4
g5
(dp1635
g16
S''
sg42
g314
sg20
S''
sg44
g315
sg21
S''
sg17
g314
sg30
Nsg46
g316
stRp1636
ag3
(g4
g5
(dp1637
g16
S''
sg42
g319
sg20
S''
sg44
g320
sg21
S''
sg17
g319
sg30
Nsg46
g321
stRp1638
ag3
(g4
g5
(dp1639
g16
S''
sg42
g324
sg20
S''
sg44
g325
sg21
S''
sg17
g324
sg30
Nsg46
g326
stRp1640
ag3
(g4
g5
(dp1641
g16
S''
sg42
g329
sg20
S''
sg44
g330
sg21
S''
sg17
g329
sg30
Nsg46
g331
stRp1642
ag3
(g4
g5
(dp1643
g16
S''
sg42
g334
sg20
S''
sg44
g335
sg21
S''
sg17
g334
sg30
Nsg46
g336
stRp1644
ag3
(g4
g5
(dp1645
g16
S''
sg42
g339
sg20
S''
sg44
g340
sg21
S''
sg17
g339
sg30
Nsg46
g341
stRp1646
ag3
(g4
g5
(dp1647
g16
S''
sg42
g344
sg20
S''
sg44
g345
sg21
S''
sg17
g344
sg30
Nsg46
g346
stRp1648
ag3
(g4
g5
(dp1649
g16
S''
sg42
g349
sg20
S''
sg44
g350
sg21
S''
sg17
g349
sg30
Nsg46
g351
stRp1650
ag3
(g4
g5
(dp1651
g16
S''
sg42
g354
sg20
S''
sg44
g355
sg21
S''
sg17
g354
sg30
Nsg46
g356
stRp1652
ag3
(g4
g5
(dp1653
g16
S''
sg42
g359
sg20
S''
sg44
g360
sg21
S''
sg17
g359
sg30
Nsg46
g361
stRp1654
atRp1655
sg115
g1614
sg42
S'db.revsx'
p1656
sg117
S'9'
sg118
S'33'
p1657
sg120
g121
sg44
S'Rev'
p1658
sg46
S'Revision records for spec depot files'
p1659
stRp1660
sS'changex'
p1661
g3
(g4
g5
(dp1662
g7
S'change'
p1663
sg9
S'42'
p1664
sg11
g3
(g12
g13
(lp1665
g3
(g4
g5
(dp1666
g16
S''
sg17
g18
sg19
g18
sg20
S''
sg21
S''
sg22
g23
sg24
g25
stRp1667
ag3
(g4
g5
(dp1668
g16
S''
sg19
g28
sg20
S''
sg22
g29
sg21
S''
sg17
g28
sg30
Nsg24
g31
stRp1669
ag3
(g4
g5
(dp1670
g16
S''
sg19
g34
sg20
S''
sg22
g23
sg21
S''
sg17
g34
sg30
Nsg24
g35
stRp1671
ag3
(g4
g5
(dp1672
g16
S''
sg19
g38
sg20
S''
sg22
g29
sg21
S''
sg17
g38
sg30
Nsg24
g39
stRp1673
ag3
(g4
g5
(dp1674
g16
S''
sg42
S'change'
p1675
sg20
S''
sg44
S'Change'
p1676
sg21
S''
sg17
g1675
sg30
Nsg46
S'The change number'
p1677
stRp1678
ag3
(g4
g5
(dp1679
g16
S''
sg42
S'descKey'
p1680
sg20
S''
sg44
S'Change'
p1681
sg21
S''
sg17
g1680
sg30
Nsg46
S"The description key. Normally the same as 'change', but\n\t\t    may differ if a changelist was renumbered on submission."
p1682
stRp1683
ag3
(g4
g5
(dp1684
g16
S''
sg42
S'client'
p1685
sg20
S''
sg44
S'Domain'
p1686
sg21
S''
sg17
g1685
sg30
Nsg46
S'The client from which the change originates'
p1687
stRp1688
ag3
(g4
g5
(dp1689
g16
S''
sg42
S'user'
p1690
sg20
S''
sg44
S'User'
p1691
sg21
S''
sg17
g1690
sg30
Nsg46
S'The user who owns the change'
p1692
stRp1693
ag3
(g4
g5
(dp1694
g16
S''
sg42
S'date'
p1695
sg20
S''
sg44
S'Date'
p1696
sg21
S''
sg17
g1695
sg30
Nsg46
S'Date and time the changelist was submitted'
p1697
stRp1698
ag3
(g4
g5
(dp1699
g16
S''
sg42
S'status'
p1700
sg20
S''
sg44
S'ChangeStatus'
p1701
sg21
S''
sg17
g1700
sg30
Nsg46
S'Status of the change'
p1702
stRp1703
ag3
(g4
g5
(dp1704
g16
S''
sg42
S'description'
p1705
sg20
S''
sg44
S'DescShort'
p1706
sg21
S''
sg17
g1705
sg30
Nsg46
S'Short description of the change.'
p1707
stRp1708
ag3
(g4
g5
(dp1709
g16
S''
sg42
S'root'
p1710
sg20
S''
sg44
S'Mapping'
p1711
sg21
S''
sg17
g1710
sg30
Nsg46
S'Common path for all files in the changelist'
p1712
stRp1713
atRp1714
sg115
g1661
sg42
S'db.changex'
p1715
sg365
S'contains records for pending changelists only.'
p1716
sg117
S'2'
sg118
S'42'
p1717
sg120
g121
sg44
S'Change'
p1718
sg46
S'Subset of db.change - records for pending changelists only'
p1719
stRp1720
sS'integed'
p1721
g3
(g4
g5
(dp1722
g7
S'toFile, fromFile, startFromRev, endFromRev, \n\t\tstartToRev, endToRev'
p1723
sg9
S'20'
p1724
sg11
g3
(g12
g13
(lp1725
g3
(g4
g5
(dp1726
g16
S''
sg17
g18
sg19
g18
sg20
S''
sg21
S''
sg22
g23
sg24
g25
stRp1727
ag3
(g4
g5
(dp1728
g16
S''
sg19
g28
sg20
S''
sg22
g29
sg21
S''
sg17
g28
sg30
Nsg24
g31
stRp1729
ag3
(g4
g5
(dp1730
g16
S''
sg19
g34
sg20
S''
sg22
g23
sg21
S''
sg17
g34
sg30
Nsg24
g35
stRp1731
ag3
(g4
g5
(dp1732
g16
S''
sg19
g38
sg20
S''
sg22
g29
sg21
S''
sg17
g38
sg30
Nsg24
g39
stRp1733
ag3
(g4
g5
(dp1734
g16
S''
sg42
S'toFile'
p1735
sg20
S''
sg44
S'File'
p1736
sg21
S''
sg17
g1735
sg30
Nsg46
S'File to which integration is being performed (target).'
p1737
stRp1738
ag3
(g4
g5
(dp1739
g16
S''
sg42
S'fromFile'
p1740
sg20
S''
sg44
S'File'
p1741
sg21
S''
sg17
g1740
sg30
Nsg46
S'File from which integration is being performed (source).'
p1742
stRp1743
ag3
(g4
g5
(dp1744
g16
S''
sg42
S'startFromRev'
p1745
sg20
S''
sg44
S'Rev'
p1746
sg21
S''
sg17
g1745
sg30
Nsg46
S'Starting revision of fromFile'
p1747
stRp1748
ag3
(g4
g5
(dp1749
g16
S''
sg42
S'endFromRev'
p1750
sg20
S''
sg44
S'Rev'
p1751
sg21
S''
sg17
g1750
sg30
Nsg46
S'Ending revision of fromFile'
p1752
stRp1753
ag3
(g4
g5
(dp1754
g16
S''
sg42
S'startToRev'
p1755
sg20
S''
sg44
S'Rev'
p1756
sg21
S''
sg17
g1755
sg30
Nsg46
S'Start revision of toFile into which integration was \n\t\t    performed.'
p1757
stRp1758
ag3
(g4
g5
(dp1759
g16
S''
sg42
S'endToRev'
p1760
sg20
S''
sg44
S'Rev'
p1761
sg21
S''
sg17
g1760
sg30
Nsg46
S'End revision of toFile into which integration was \n\t\t    performed. Only varies from startToRev for reverse \n\t\t    integration records.'
p1762
stRp1763
ag3
(g4
g5
(dp1764
g16
S''
sg42
S'how'
p1765
sg20
S''
sg44
S'IntegHow'
p1766
sg21
S''
sg17
g1765
sg30
Nsg46
S'Integration method: variations on \n\t\t    merge/branch/copy/ignore/delete.'
p1767
stRp1768
ag3
(g4
g5
(dp1769
g16
S''
sg42
S'change'
p1770
sg20
S''
sg44
S'Change'
p1771
sg21
S''
sg17
g1770
sg30
Nsg46
S'Changelist associated with the integration.'
p1772
stRp1773
atRp1774
sg115
g1721
sg42
S'db.integed'
p1775
sg117
S'0'
sg118
S'17'
p1776
sg120
g121
sg46
S'Permanent integration records'
p1777
sg44
S'Integed'
p1778
sg983
S'db.resolve'
p1779
stRp1780
sS'job'
p1781
g3
(g4
g5
(dp1782
g7
S'job'
p1783
sg9
S'44'
p1784
sg11
g3
(g12
g13
(lp1785
g3
(g4
g5
(dp1786
g16
S''
sg17
g18
sg19
g18
sg20
S''
sg21
S''
sg22
g23
sg24
g25
stRp1787
ag3
(g4
g5
(dp1788
g16
S''
sg19
g28
sg20
S''
sg22
g29
sg21
S''
sg17
g28
sg30
Nsg24
g31
stRp1789
ag3
(g4
g5
(dp1790
g16
S''
sg19
g34
sg20
S''
sg22
g23
sg21
S''
sg17
g34
sg30
Nsg24
g35
stRp1791
ag3
(g4
g5
(dp1792
g16
S''
sg19
g38
sg20
S''
sg22
g29
sg21
S''
sg17
g38
sg30
Nsg24
g39
stRp1793
ag3
(g4
g5
(dp1794
g16
S''
sg42
S'job'
p1795
sg20
S''
sg44
S'String'
p1796
sg21
S''
sg17
g1795
sg30
Nsg46
S'The job name'
p1797
stRp1798
ag3
(g4
g5
(dp1799
g16
S''
sg42
S'xuser'
p1800
sg20
S''
sg44
S'User'
p1801
sg21
S''
sg17
g1800
sg30
Nsg46
S'User name: defunct'
p1802
stRp1803
ag3
(g4
g5
(dp1804
g16
S''
sg42
S'xdate'
p1805
sg20
S''
sg44
S'Date'
p1806
sg21
S''
sg17
g1805
sg30
Nsg46
S'The date: defunct'
p1807
stRp1808
ag3
(g4
g5
(dp1809
g16
S''
sg42
S'xstatus'
p1810
sg20
S''
sg44
S'JobStat'
p1811
sg21
S''
sg17
g1810
sg30
Nsg46
S'Job status: defunct'
p1812
stRp1813
ag3
(g4
g5
(dp1814
g16
S''
sg42
S'description'
p1815
sg20
S''
sg44
S'DescShort'
p1816
sg21
S''
sg17
g1815
sg30
Nsg46
S'Short description'
p1817
stRp1818
atRp1819
sg115
g1781
sg42
S'db.job'
p1820
sg117
S'0'
sg118
S'44'
p1821
sg120
g121
sg46
S'Job records'
p1822
sg44
S'Job'
p1823
sg983
S'db.bodtext'
p1824
stRp1825
sS'workingx'
p1826
g3
(g4
g5
(dp1827
g7
S'clientFile'
p1828
sg9
S'37'
p1829
sg11
g3
(g12
g13
(lp1830
g3
(g4
g5
(dp1831
g16
S''
sg17
g18
sg19
g18
sg20
S''
sg21
S''
sg22
g23
sg24
g25
stRp1832
ag3
(g4
g5
(dp1833
g16
S''
sg19
g28
sg20
S''
sg22
g29
sg21
S''
sg17
g28
sg30
Nsg24
g31
stRp1834
ag3
(g4
g5
(dp1835
g16
S''
sg19
g34
sg20
S''
sg22
g23
sg21
S''
sg17
g34
sg30
Nsg24
g35
stRp1836
ag3
(g4
g5
(dp1837
g16
S''
sg19
g38
sg20
S''
sg22
g29
sg21
S''
sg17
g38
sg30
Nsg24
g39
stRp1838
ag3
(g4
g5
(dp1839
g16
S''
sg42
g834
sg20
S''
sg44
g835
sg21
S''
sg17
g834
sg30
Nsg46
g836
stRp1840
ag3
(g4
g5
(dp1841
g16
S''
sg42
g839
sg20
S''
sg44
g840
sg21
S''
sg17
g839
sg30
Nsg46
g841
stRp1842
ag3
(g4
g5
(dp1843
g16
S''
sg42
g844
sg20
S''
sg44
g845
sg21
S''
sg17
g844
sg30
Nsg46
g846
stRp1844
ag3
(g4
g5
(dp1845
g16
S''
sg42
g849
sg20
S''
sg44
g850
sg21
S''
sg17
g849
sg30
Nsg46
g851
stRp1846
ag3
(g4
g5
(dp1847
g16
S''
sg42
g854
sg20
S''
sg44
g855
sg21
S''
sg17
g854
sg30
Nsg46
g856
stRp1848
ag3
(g4
g5
(dp1849
g16
S''
sg42
g859
sg20
S''
sg44
g860
sg21
S''
sg17
g859
sg30
Nsg46
g861
stRp1850
ag3
(g4
g5
(dp1851
g16
S''
sg42
g864
sg20
S''
sg44
g865
sg21
S''
sg17
g864
sg30
Nsg46
g866
stRp1852
ag3
(g4
g5
(dp1853
g16
S''
sg42
g869
sg20
S''
sg44
g870
sg21
S''
sg17
g869
sg30
Nsg46
g871
stRp1854
ag3
(g4
g5
(dp1855
g16
S''
sg42
g874
sg20
S''
sg44
g875
sg21
S''
sg17
g874
sg30
Nsg46
g876
stRp1856
ag3
(g4
g5
(dp1857
g16
S''
sg42
g879
sg20
S''
sg44
g880
sg21
S''
sg17
g879
sg30
Nsg46
g881
stRp1858
ag3
(g4
g5
(dp1859
g16
S''
sg42
g884
sg20
S''
sg44
g885
sg21
S''
sg17
g884
sg30
Nsg46
g886
stRp1860
ag3
(g4
g5
(dp1861
g16
S''
sg42
g889
sg20
S''
sg44
g890
sg21
S''
sg17
g889
sg30
Nsg46
g891
stRp1862
ag3
(g4
g5
(dp1863
g16
S''
sg42
g894
sg20
S''
sg44
g895
sg21
S''
sg17
g894
sg30
Nsg46
g896
stRp1864
ag3
(g4
g5
(dp1865
g16
S''
sg42
g899
sg20
S''
sg44
g900
sg21
S''
sg17
g899
sg30
Nsg46
g901
stRp1866
ag3
(g4
g5
(dp1867
g16
S''
sg42
g904
sg20
S''
sg44
g905
sg21
S''
sg17
g904
sg30
Nsg46
g906
stRp1868
ag3
(g4
g5
(dp1869
g16
S''
sg42
g909
sg20
S''
sg44
g910
sg21
S''
sg17
g909
sg30
Nsg46
g911
stRp1870
ag3
(g4
g5
(dp1871
g16
S''
sg42
g914
sg20
S''
sg44
g915
sg21
S''
sg17
g914
sg30
Nsg46
g916
stRp1872
ag3
(g4
g5
(dp1873
g16
S''
sg42
g919
sg20
S''
sg44
g920
sg21
S''
sg17
g919
sg30
Nsg46
g921
stRp1874
ag3
(g4
g5
(dp1875
g16
S''
sg42
g924
sg20
S''
sg44
g925
sg21
S''
sg17
g924
sg30
Nsg46
g926
stRp1876
atRp1877
sg115
g1826
sg42
S'db.workingx'
p1878
sg117
S'10'
p1879
sg118
S'38'
p1880
sg120
g121
sg44
S'Working'
p1881
sg46
S'Records for shelved open files'
p1882
stRp1883
sS'user'
p1884
g3
(g4
g5
(dp1885
g7
S'user'
p1886
sg9
S'8'
sg11
g3
(g12
g13
(lp1887
g3
(g4
g5
(dp1888
g16
S''
sg17
g18
sg19
g18
sg20
S''
sg21
S''
sg22
g23
sg24
g25
stRp1889
ag3
(g4
g5
(dp1890
g16
S''
sg19
g28
sg20
S''
sg22
g29
sg21
S''
sg17
g28
sg30
Nsg24
g31
stRp1891
ag3
(g4
g5
(dp1892
g16
S''
sg19
g34
sg20
S''
sg22
g23
sg21
S''
sg17
g34
sg30
Nsg24
g35
stRp1893
ag3
(g4
g5
(dp1894
g16
S''
sg19
g38
sg20
S''
sg22
g29
sg21
S''
sg17
g38
sg30
Nsg24
g39
stRp1895
ag3
(g4
g5
(dp1896
g16
S''
sg42
S'user'
p1897
sg20
S''
sg44
S'User'
p1898
sg21
S''
sg17
g1897
sg30
Nsg46
S'The username'
p1899
stRp1900
ag3
(g4
g5
(dp1901
g16
S''
sg42
S'email'
p1902
sg20
S''
sg44
S'Text'
p1903
sg21
S''
sg17
g1902
sg30
Nsg46
S"The user's email address"
p1904
stRp1905
ag3
(g4
g5
(dp1906
g16
S''
sg42
S'jobView'
p1907
sg20
S''
sg44
S'Text'
p1908
sg21
S''
sg17
g1907
sg30
Nsg46
S"The user's job view"
p1909
stRp1910
ag3
(g4
g5
(dp1911
g16
S''
sg42
S'updateDate'
p1912
sg20
S''
sg44
S'Date'
p1913
sg21
S''
sg17
g1912
sg30
Nsg46
S'The date/time the user record was last updated'
p1914
stRp1915
ag3
(g4
g5
(dp1916
g16
S''
sg42
S'accessDate'
p1917
sg20
S''
sg44
S'Date'
p1918
sg21
S''
sg17
g1917
sg30
Nsg46
S'The date/time the user record was last used'
p1919
stRp1920
ag3
(g4
g5
(dp1921
g16
S''
sg42
S'fullName'
p1922
sg20
S''
sg44
S'Text'
p1923
sg21
S''
sg17
g1922
sg30
Nsg46
S"The user's full name"
p1924
stRp1925
ag3
(g4
g5
(dp1926
g16
S''
sg42
S'password'
p1927
sg20
S''
sg44
S'Password'
p1928
sg21
S''
sg17
g1927
sg30
Nsg46
S'The MD5 hash of the users (encrypted) password'
p1929
stRp1930
ag3
(g4
g5
(dp1931
g16
S''
sg42
S'strength'
p1932
sg20
S''
sg44
S'Strength'
p1933
sg21
S''
sg17
g1932
sg30
Nsg46
S"Measure of the strength of the user's password"
p1934
stRp1935
ag3
(g4
g5
(dp1936
g16
S''
sg42
S'ticket'
p1937
sg20
S''
sg44
S'Password'
p1938
sg21
S''
sg17
g1937
sg30
Nsg46
S"'p4 login' ticket for this user"
p1939
stRp1940
ag3
(g4
g5
(dp1941
g16
S''
sg42
S'endDate'
p1942
sg20
S''
sg44
S'Date'
p1943
sg21
S''
sg17
g1942
sg30
Nsg46
S"Date/time the user's ticket expires"
p1944
stRp1945
ag3
(g4
g5
(dp1946
g16
S''
sg42
S'type'
p1947
sg20
S''
sg44
S'UserLevel'
p1948
sg21
S''
sg17
g1947
sg30
Nsg46
S'Type of user'
p1949
stRp1950
ag3
(g4
g5
(dp1951
g16
S''
sg42
S'passDate'
p1952
sg20
S''
sg44
S'Date'
p1953
sg21
S''
sg17
g1952
sg30
Nsg46
S'Date password was last changed'
p1954
stRp1955
ag3
(g4
g5
(dp1956
g16
S''
sg42
S'passExpire'
p1957
sg20
S''
sg44
S'Date'
p1958
sg21
S''
sg17
g1957
sg30
Nsg46
S'Date of password expiration'
p1959
stRp1960
ag3
(g4
g5
(dp1961
g16
S''
sg42
S'attempts'
p1962
sg20
S''
sg44
S'Date'
p1963
sg21
S''
sg17
g1962
sg30
Nsg46
S'Failed login attempts'
p1964
stRp1965
ag3
(g4
g5
(dp1966
g16
S''
sg42
S'auth'
p1967
sg20
S''
sg44
S'Int'
p1968
sg21
S''
sg17
g1967
sg30
Nsg46
S'Authentication method for user; 0=perforce, 1=ldap'
p1969
stRp1970
atRp1971
sg115
g1884
sg42
S'db.user'
p1972
sg117
S'7'
sg118
S'8'
sg120
g121
sg44
S'User'
p1973
sg46
S'Perforce users'
p1974
stRp1975
sS'revux'
p1976
g3
(g4
g5
(dp1977
g7
S'depotFile'
p1978
sg9
S'31'
p1979
sg11
g3
(g12
g13
(lp1980
g3
(g4
g5
(dp1981
g16
S''
sg17
g18
sg19
g18
sg20
S''
sg21
S''
sg22
g23
sg24
g25
stRp1982
ag3
(g4
g5
(dp1983
g16
S''
sg19
g28
sg20
S''
sg22
g29
sg21
S''
sg17
g28
sg30
Nsg24
g31
stRp1984
ag3
(g4
g5
(dp1985
g16
S''
sg19
g34
sg20
S''
sg22
g23
sg21
S''
sg17
g34
sg30
Nsg24
g35
stRp1986
ag3
(g4
g5
(dp1987
g16
S''
sg19
g38
sg20
S''
sg22
g29
sg21
S''
sg17
g38
sg30
Nsg24
g39
stRp1988
ag3
(g4
g5
(dp1989
g16
S''
sg42
g294
sg20
S''
sg44
g295
sg21
S''
sg17
g294
sg30
Nsg46
g296
stRp1990
ag3
(g4
g5
(dp1991
g16
S''
sg42
g299
sg20
S''
sg44
g300
sg21
S''
sg17
g299
sg30
Nsg46
g301
stRp1992
ag3
(g4
g5
(dp1993
g16
S''
sg42
g304
sg20
S''
sg44
g305
sg21
S''
sg17
g304
sg30
Nsg46
g306
stRp1994
ag3
(g4
g5
(dp1995
g16
S''
sg42
g309
sg20
S''
sg44
g310
sg21
S''
sg17
g309
sg30
Nsg46
g311
stRp1996
ag3
(g4
g5
(dp1997
g16
S''
sg42
g314
sg20
S''
sg44
g315
sg21
S''
sg17
g314
sg30
Nsg46
g316
stRp1998
ag3
(g4
g5
(dp1999
g16
S''
sg42
g319
sg20
S''
sg44
g320
sg21
S''
sg17
g319
sg30
Nsg46
g321
stRp2000
ag3
(g4
g5
(dp2001
g16
S''
sg42
g324
sg20
S''
sg44
g325
sg21
S''
sg17
g324
sg30
Nsg46
g326
stRp2002
ag3
(g4
g5
(dp2003
g16
S''
sg42
g329
sg20
S''
sg44
g330
sg21
S''
sg17
g329
sg30
Nsg46
g331
stRp2004
ag3
(g4
g5
(dp2005
g16
S''
sg42
g334
sg20
S''
sg44
g335
sg21
S''
sg17
g334
sg30
Nsg46
g336
stRp2006
ag3
(g4
g5
(dp2007
g16
S''
sg42
g339
sg20
S''
sg44
g340
sg21
S''
sg17
g339
sg30
Nsg46
g341
stRp2008
ag3
(g4
g5
(dp2009
g16
S''
sg42
g344
sg20
S''
sg44
g345
sg21
S''
sg17
g344
sg30
Nsg46
g346
stRp2010
ag3
(g4
g5
(dp2011
g16
S''
sg42
g349
sg20
S''
sg44
g350
sg21
S''
sg17
g349
sg30
Nsg46
g351
stRp2012
ag3
(g4
g5
(dp2013
g16
S''
sg42
g354
sg20
S''
sg44
g355
sg21
S''
sg17
g354
sg30
Nsg46
g356
stRp2014
ag3
(g4
g5
(dp2015
g16
S''
sg42
g359
sg20
S''
sg44
g360
sg21
S''
sg17
g359
sg30
Nsg46
g361
stRp2016
atRp2017
sg115
g1976
sg42
S'db.revux'
p2018
sg117
S'9'
sg118
S'36'
p2019
sg120
g121
sg44
S'Rev'
p2020
sg46
S'Revision records for unload depot files'
p2021
stRp2022
sS'revsh'
p2023
g3
(g4
g5
(dp2024
g7
S'depotFile, depotRev, type, action, change'
p2025
sg9
S'29'
p2026
sg11
g3
(g12
g13
(lp2027
g3
(g4
g5
(dp2028
g16
S''
sg17
g18
sg19
g18
sg20
S''
sg21
S''
sg22
g23
sg24
g25
stRp2029
ag3
(g4
g5
(dp2030
g16
S''
sg19
g28
sg20
S''
sg22
g29
sg21
S''
sg17
g28
sg30
Nsg24
g31
stRp2031
ag3
(g4
g5
(dp2032
g16
S''
sg19
g34
sg20
S''
sg22
g23
sg21
S''
sg17
g34
sg30
Nsg24
g35
stRp2033
ag3
(g4
g5
(dp2034
g16
S''
sg19
g38
sg20
S''
sg22
g29
sg21
S''
sg17
g38
sg30
Nsg24
g39
stRp2035
ag3
(g4
g5
(dp2036
g16
S''
sg42
g294
sg20
S''
sg44
g295
sg21
S''
sg17
g294
sg30
Nsg46
g296
stRp2037
ag3
(g4
g5
(dp2038
g16
S''
sg42
g299
sg20
S''
sg44
g300
sg21
S''
sg17
g299
sg30
Nsg46
g301
stRp2039
ag3
(g4
g5
(dp2040
g16
S''
sg42
g304
sg20
S''
sg44
g305
sg21
S''
sg17
g304
sg30
Nsg46
g306
stRp2041
ag3
(g4
g5
(dp2042
g16
S''
sg42
g309
sg20
S''
sg44
g310
sg21
S''
sg17
g309
sg30
Nsg46
g311
stRp2043
ag3
(g4
g5
(dp2044
g16
S''
sg42
g314
sg20
S''
sg44
g315
sg21
S''
sg17
g314
sg30
Nsg46
g316
stRp2045
ag3
(g4
g5
(dp2046
g16
S''
sg42
g319
sg20
S''
sg44
g320
sg21
S''
sg17
g319
sg30
Nsg46
g321
stRp2047
ag3
(g4
g5
(dp2048
g16
S''
sg42
g324
sg20
S''
sg44
g325
sg21
S''
sg17
g324
sg30
Nsg46
g326
stRp2049
ag3
(g4
g5
(dp2050
g16
S''
sg42
g329
sg20
S''
sg44
g330
sg21
S''
sg17
g329
sg30
Nsg46
g331
stRp2051
ag3
(g4
g5
(dp2052
g16
S''
sg42
g334
sg20
S''
sg44
g335
sg21
S''
sg17
g334
sg30
Nsg46
g336
stRp2053
ag3
(g4
g5
(dp2054
g16
S''
sg42
g339
sg20
S''
sg44
g340
sg21
S''
sg17
g339
sg30
Nsg46
g341
stRp2055
ag3
(g4
g5
(dp2056
g16
S''
sg42
g344
sg20
S''
sg44
g345
sg21
S''
sg17
g344
sg30
Nsg46
g346
stRp2057
ag3
(g4
g5
(dp2058
g16
S''
sg42
g349
sg20
S''
sg44
g350
sg21
S''
sg17
g349
sg30
Nsg46
g351
stRp2059
ag3
(g4
g5
(dp2060
g16
S''
sg42
g354
sg20
S''
sg44
g355
sg21
S''
sg17
g354
sg30
Nsg46
g356
stRp2061
ag3
(g4
g5
(dp2062
g16
S''
sg42
g359
sg20
S''
sg44
g360
sg21
S''
sg17
g359
sg30
Nsg46
g361
stRp2063
atRp2064
sg115
g2023
sg42
S'db.revsh'
p2065
sg117
S'9'
sg118
S'34'
p2066
sg120
g121
sg44
S'Rev'
p2067
sg46
S'Revision records for shelved files'
p2068
stRp2069
sS'jnlack'
p2070
g3
(g4
g5
(dp2071
g7
S'id'
p2072
sg9
S'54'
p2073
sg11
g3
(g12
g13
(lp2074
g3
(g4
g5
(dp2075
g16
S''
sg17
g18
sg19
g18
sg20
S''
sg21
S''
sg22
g23
sg24
g25
stRp2076
ag3
(g4
g5
(dp2077
g16
S''
sg19
g28
sg20
S''
sg22
g29
sg21
S''
sg17
g28
sg30
Nsg24
g31
stRp2078
ag3
(g4
g5
(dp2079
g16
S''
sg19
g34
sg20
S''
sg22
g23
sg21
S''
sg17
g34
sg30
Nsg24
g35
stRp2080
ag3
(g4
g5
(dp2081
g16
S''
sg19
g38
sg20
S''
sg22
g29
sg21
S''
sg17
g38
sg30
Nsg24
g39
stRp2082
ag3
(g4
g5
(dp2083
g16
S''
sg42
S'serverId'
p2084
sg20
S''
sg44
S'Domain'
p2085
sg21
S''
sg17
g2084
sg30
Nsg46
S'The serverId of the standby for whom this record applies'
p2086
stRp2087
ag3
(g4
g5
(dp2088
g16
S''
sg42
S'lastUpdate'
p2089
sg20
S''
sg44
S'Date'
p2090
sg21
S''
sg17
g2089
sg30
Nsg46
S'The date and time of last update'
p2091
stRp2092
ag3
(g4
g5
(dp2093
g16
S''
sg42
S'serverType'
p2094
sg20
S''
sg44
S'ServerServiceType'
p2095
sg21
S''
sg17
g2094
sg30
Nsg46
S'The server services offered by this standby'
p2096
stRp2097
ag3
(g4
g5
(dp2098
g16
S''
sg42
S'persistedJnl'
p2099
sg20
S''
sg44
S'Int'
p2100
sg21
S''
sg17
g2099
sg30
Nsg46
S'The last journal number persisted by this standby'
p2101
stRp2102
ag3
(g4
g5
(dp2103
g16
S''
sg42
S'persistedPos'
p2104
sg20
S''
sg44
S'Int64'
p2105
sg21
S''
sg17
g2104
sg30
Nsg46
S'The last journal position persisted by this standby'
p2106
stRp2107
ag3
(g4
g5
(dp2108
g16
S''
sg42
S'isAlive'
p2109
sg20
S''
sg44
S'Int'
p2110
sg21
S''
sg17
g2109
sg30
Nsg46
S'1 = alive'
p2111
stRp2112
ag3
(g4
g5
(dp2113
g16
S''
sg42
S'appliedJnl'
p2114
sg20
S''
sg44
S'Int'
p2115
sg21
S''
sg17
g2114
sg30
Nsg46
S'The last journal number applied to this standby'
p2116
stRp2117
ag3
(g4
g5
(dp2118
g16
S''
sg42
S'appliedPos'
p2119
sg20
S''
sg44
S'Int64'
p2120
sg21
S''
sg17
g2119
sg30
Nsg46
S'The last journal position applied to this standby'
p2121
stRp2122
atRp2123
sg115
g2070
sg42
S'db.jnlack'
p2124
sg117
S'0'
sg118
S'54'
p2125
sg120
g121
sg44
S'JnlAck'
p2126
sg46
S'Tracks journal positions of all standby servers'
p2127
stRp2128
sS'excl'
p2129
g3
(g4
g5
(dp2130
g7
S'depotFile'
p2131
sg9
S'38'
p2132
sg11
g3
(g12
g13
(lp2133
g3
(g4
g5
(dp2134
g16
S''
sg17
g18
sg19
g18
sg20
S''
sg21
S''
sg22
g23
sg24
g25
stRp2135
ag3
(g4
g5
(dp2136
g16
S''
sg19
g28
sg20
S''
sg22
g29
sg21
S''
sg17
g28
sg30
Nsg24
g31
stRp2137
ag3
(g4
g5
(dp2138
g16
S''
sg19
g34
sg20
S''
sg22
g23
sg21
S''
sg17
g34
sg30
Nsg24
g35
stRp2139
ag3
(g4
g5
(dp2140
g16
S''
sg19
g38
sg20
S''
sg22
g29
sg21
S''
sg17
g38
sg30
Nsg24
g39
stRp2141
ag3
(g4
g5
(dp2142
g16
S''
sg42
S'depotFile'
p2143
sg20
S''
sg44
S'File'
p2144
sg21
S''
sg17
g2143
sg30
Nsg46
S'The file locked'
p2145
stRp2146
ag3
(g4
g5
(dp2147
g16
S''
sg42
S'client'
p2148
sg20
S''
sg44
S'Domain'
p2149
sg21
S''
sg17
g2148
sg30
Nsg46
S'The client for which the file is locked'
p2150
stRp2151
ag3
(g4
g5
(dp2152
g16
S''
sg42
S'user'
p2153
sg20
S''
sg44
S'User'
p2154
sg21
S''
sg17
g2153
sg30
Nsg46
S'The user for which the file is locked'
p2155
stRp2156
atRp2157
sg115
g2129
sg42
S'db.excl'
p2158
sg117
S'1'
sg118
S'25'
p2159
sg120
g121
sg44
S'ExclusiveLock'
p2160
sg46
S'Exclusively locked files -  enables coordinated file locking in a Distributed Perforce environment (commit and edge servers)'
p2161
stRp2162
sS'resolvex'
p2163
g3
(g4
g5
(dp2164
g7
S'toFile, fromFile, startFromRev'
p2165
sg9
S'23'
p2166
sg11
g3
(g12
g13
(lp2167
g3
(g4
g5
(dp2168
g16
S''
sg17
g18
sg19
g18
sg20
S''
sg21
S''
sg22
g23
sg24
g25
stRp2169
ag3
(g4
g5
(dp2170
g16
S''
sg19
g28
sg20
S''
sg22
g29
sg21
S''
sg17
g28
sg30
Nsg24
g31
stRp2171
ag3
(g4
g5
(dp2172
g16
S''
sg19
g34
sg20
S''
sg22
g23
sg21
S''
sg17
g34
sg30
Nsg24
g35
stRp2173
ag3
(g4
g5
(dp2174
g16
S''
sg19
g38
sg20
S''
sg22
g29
sg21
S''
sg17
g38
sg30
Nsg24
g39
stRp2175
ag3
(g4
g5
(dp2176
g16
S''
sg42
S'toFile'
p2177
sg20
S''
sg44
S'File'
p2178
sg21
S''
sg17
g2177
sg30
Nsg46
S'File to which integration is being performed (target).'
p2179
stRp2180
ag3
(g4
g5
(dp2181
g16
S''
sg42
S'fromFile'
p2182
sg20
S''
sg44
S'File'
p2183
sg21
S''
sg17
g2182
sg30
Nsg46
S'File from which integration is being performed (source).'
p2184
stRp2185
ag3
(g4
g5
(dp2186
g16
S''
sg42
S'startFromRev'
p2187
sg20
S''
sg44
S'Rev'
p2188
sg21
S''
sg17
g2187
sg30
Nsg46
S'Starting revision of fromFile'
p2189
stRp2190
ag3
(g4
g5
(dp2191
g16
S''
sg42
S'endFromRev'
p2192
sg20
S''
sg44
S'Rev'
p2193
sg21
S''
sg17
g2192
sg30
Nsg46
S'Ending revision of fromFile'
p2194
stRp2195
ag3
(g4
g5
(dp2196
g16
S''
sg42
S'startToRev'
p2197
sg20
S''
sg44
S'Rev'
p2198
sg21
S''
sg17
g2197
sg30
Nsg46
S'Start revision of toFile into which integration was \n\t\t    performed.'
p2199
stRp2200
ag3
(g4
g5
(dp2201
g16
S''
sg42
S'endToRev'
p2202
sg20
S''
sg44
S'Rev'
p2203
sg21
S''
sg17
g2202
sg30
Nsg46
S'End revision of toFile into which integration was \n\t\t    performed. Only varies from startToRev for reverse \n\t\t    integration records.'
p2204
stRp2205
ag3
(g4
g5
(dp2206
g16
S''
sg42
S'how'
p2207
sg20
S''
sg44
S'IntegHow'
p2208
sg21
S''
sg17
g2207
sg30
Nsg46
S'Integration method: variations on \n\t\t    merge/branch/copy/ignore/delete.'
p2209
stRp2210
ag3
(g4
g5
(dp2211
g16
S''
sg42
S'state'
p2212
sg20
S''
sg44
S'ResolveState'
p2213
sg21
S''
sg17
g2212
sg30
Nsg46
S'How the user performed the resolve.'
p2214
stRp2215
ag3
(g4
g5
(dp2216
g16
S''
sg42
S'baseFile'
p2217
sg20
S''
sg44
S'File'
p2218
sg21
S''
sg17
g2217
sg30
Nsg46
S'File used as the base for merging.'
p2219
stRp2220
ag3
(g4
g5
(dp2221
g16
S''
sg42
S'baseRev'
p2222
sg20
S''
sg44
S'Rev'
p2223
sg21
S''
sg17
g2222
sg30
Nsg46
S'Revision of baseFile used as the merge base.'
p2224
stRp2225
atRp2226
sg115
g2163
sg42
S'db.resolvex'
p2227
sg117
S'1'
sg118
S'20'
p2228
sg120
g121
sg46
S'Pending integration records for shelved files'
p2229
sg44
S'Resolve'
p2230
sg983
S'db.integed'
p2231
stRp2232
sS'logger'
p2233
g3
(g4
g5
(dp2234
g7
S'seq'
p2235
sg9
S'4'
sg11
g3
(g12
g13
(lp2236
g3
(g4
g5
(dp2237
g16
S''
sg17
g18
sg19
g18
sg20
S''
sg21
S''
sg22
g23
sg24
g25
stRp2238
ag3
(g4
g5
(dp2239
g16
S''
sg19
g28
sg20
S''
sg22
g29
sg21
S''
sg17
g28
sg30
Nsg24
g31
stRp2240
ag3
(g4
g5
(dp2241
g16
S''
sg19
g34
sg20
S''
sg22
g23
sg21
S''
sg17
g34
sg30
Nsg24
g35
stRp2242
ag3
(g4
g5
(dp2243
g16
S''
sg19
g38
sg20
S''
sg22
g29
sg21
S''
sg17
g38
sg30
Nsg24
g39
stRp2244
ag3
(g4
g5
(dp2245
g16
S''
sg42
S'seq'
p2246
sg20
S''
sg44
S'Int'
p2247
sg21
S''
sg17
g2246
sg30
Nsg46
S'Sequence number of event'
p2248
stRp2249
ag3
(g4
g5
(dp2250
g16
S''
sg42
S'key'
p2251
sg20
S''
sg44
S'String'
p2252
sg21
S''
sg17
g2251
sg30
Nsg46
S"Either the word 'change' or the word 'job'"
p2253
stRp2254
ag3
(g4
g5
(dp2255
g16
S''
sg42
S'attr'
p2256
sg20
S''
sg44
S'String'
p2257
sg21
S''
sg17
g2256
sg30
Nsg46
S'The number of the change, or name of the job that was \n\t\t    altered.'
p2258
stRp2259
atRp2260
sg115
g2233
sg42
S'db.logger'
p2261
sg117
S'0'
sg118
S'4'
sg120
g121
sg44
S'Logger'
p2262
sg46
S"Support for 'p4 logger' command. Logs any changes to \n\t\tchangelists and jobs"
p2263
stRp2264
sS'change'
p2265
g3
(g4
g5
(dp2266
g7
S'change'
p2267
sg9
S'41'
p2268
sg11
g3
(g12
g13
(lp2269
g3
(g4
g5
(dp2270
g16
S''
sg17
g18
sg19
g18
sg20
S''
sg21
S''
sg22
g23
sg24
g25
stRp2271
ag3
(g4
g5
(dp2272
g16
S''
sg19
g28
sg20
S''
sg22
g29
sg21
S''
sg17
g28
sg30
Nsg24
g31
stRp2273
ag3
(g4
g5
(dp2274
g16
S''
sg19
g34
sg20
S''
sg22
g23
sg21
S''
sg17
g34
sg30
Nsg24
g35
stRp2275
ag3
(g4
g5
(dp2276
g16
S''
sg19
g38
sg20
S''
sg22
g29
sg21
S''
sg17
g38
sg30
Nsg24
g39
stRp2277
ag3
(g4
g5
(dp2278
g16
S''
sg42
g1675
sg20
S''
sg44
g1676
sg21
S''
sg17
g1675
sg30
Nsg46
g1677
stRp2279
ag3
(g4
g5
(dp2280
g16
S''
sg42
g1680
sg20
S''
sg44
g1681
sg21
S''
sg17
g1680
sg30
Nsg46
g1682
stRp2281
ag3
(g4
g5
(dp2282
g16
S''
sg42
g1685
sg20
S''
sg44
g1686
sg21
S''
sg17
g1685
sg30
Nsg46
g1687
stRp2283
ag3
(g4
g5
(dp2284
g16
S''
sg42
g1690
sg20
S''
sg44
g1691
sg21
S''
sg17
g1690
sg30
Nsg46
g1692
stRp2285
ag3
(g4
g5
(dp2286
g16
S''
sg42
g1695
sg20
S''
sg44
g1696
sg21
S''
sg17
g1695
sg30
Nsg46
g1697
stRp2287
ag3
(g4
g5
(dp2288
g16
S''
sg42
g1700
sg20
S''
sg44
g1701
sg21
S''
sg17
g1700
sg30
Nsg46
g1702
stRp2289
ag3
(g4
g5
(dp2290
g16
S''
sg42
g1705
sg20
S''
sg44
g1706
sg21
S''
sg17
g1705
sg30
Nsg46
g1707
stRp2291
ag3
(g4
g5
(dp2292
g16
S''
sg42
g1710
sg20
S''
sg44
g1711
sg21
S''
sg17
g1710
sg30
Nsg46
g1712
stRp2293
atRp2294
sg115
g2265
sg42
S'db.change'
p2295
sg117
S'2'
sg118
S'41'
p2296
sg120
g121
sg44
S'Change'
p2297
sg46
S'Changelists'
p2298
stRp2299
sS'desc'
p2300
g3
(g4
g5
(dp2301
g7
S'descKey'
p2302
sg9
S'43'
p2303
sg11
g3
(g12
g13
(lp2304
g3
(g4
g5
(dp2305
g16
S''
sg17
g18
sg19
g18
sg20
S''
sg21
S''
sg22
g23
sg24
g25
stRp2306
ag3
(g4
g5
(dp2307
g16
S''
sg19
g28
sg20
S''
sg22
g29
sg21
S''
sg17
g28
sg30
Nsg24
g31
stRp2308
ag3
(g4
g5
(dp2309
g16
S''
sg19
g34
sg20
S''
sg22
g23
sg21
S''
sg17
g34
sg30
Nsg24
g35
stRp2310
ag3
(g4
g5
(dp2311
g16
S''
sg19
g38
sg20
S''
sg22
g29
sg21
S''
sg17
g38
sg30
Nsg24
g39
stRp2312
ag3
(g4
g5
(dp2313
g16
S''
sg42
S'descKey'
p2314
sg20
S''
sg44
S'Change'
p2315
sg21
S''
sg17
g2314
sg30
Nsg46
S'Original number of the change to which this description\n\t\t    applies. This may differ from the final change number if\n\t\t    the change is renumbered on submission.'
p2316
stRp2317
ag3
(g4
g5
(dp2318
g16
S''
sg42
S'description'
p2319
sg20
S''
sg44
S'Text'
p2320
sg21
S''
sg17
g2319
sg30
Nsg46
S'The change description itself'
p2321
stRp2322
atRp2323
sg115
g2300
sg42
S'db.desc'
p2324
sg117
S'0'
sg118
S'43'
p2325
sg120
g121
sg44
S'Desc'
p2326
sg46
S'Change descriptions'
p2327
stRp2328
sS'integtx'
p2329
g3
(g4
g5
(dp2330
g7
S'toFile, fromFile, startFromRev, endFromRev, \n\t\tstartToRev, endToRev'
p2331
sg9
S'21'
p2332
sg11
g3
(g12
g13
(lp2333
g3
(g4
g5
(dp2334
g16
S''
sg17
g18
sg19
g18
sg20
S''
sg21
S''
sg22
g23
sg24
g25
stRp2335
ag3
(g4
g5
(dp2336
g16
S''
sg19
g28
sg20
S''
sg22
g29
sg21
S''
sg17
g28
sg30
Nsg24
g31
stRp2337
ag3
(g4
g5
(dp2338
g16
S''
sg19
g34
sg20
S''
sg22
g23
sg21
S''
sg17
g34
sg30
Nsg24
g35
stRp2339
ag3
(g4
g5
(dp2340
g16
S''
sg19
g38
sg20
S''
sg22
g29
sg21
S''
sg17
g38
sg30
Nsg24
g39
stRp2341
ag3
(g4
g5
(dp2342
g16
S''
sg42
g1735
sg20
S''
sg44
g1736
sg21
S''
sg17
g1735
sg30
Nsg46
g1737
stRp2343
ag3
(g4
g5
(dp2344
g16
S''
sg42
g1740
sg20
S''
sg44
g1741
sg21
S''
sg17
g1740
sg30
Nsg46
g1742
stRp2345
ag3
(g4
g5
(dp2346
g16
S''
sg42
g1745
sg20
S''
sg44
g1746
sg21
S''
sg17
g1745
sg30
Nsg46
g1747
stRp2347
ag3
(g4
g5
(dp2348
g16
S''
sg42
g1750
sg20
S''
sg44
g1751
sg21
S''
sg17
g1750
sg30
Nsg46
g1752
stRp2349
ag3
(g4
g5
(dp2350
g16
S''
sg42
g1755
sg20
S''
sg44
g1756
sg21
S''
sg17
g1755
sg30
Nsg46
g1757
stRp2351
ag3
(g4
g5
(dp2352
g16
S''
sg42
g1760
sg20
S''
sg44
g1761
sg21
S''
sg17
g1760
sg30
Nsg46
g1762
stRp2353
ag3
(g4
g5
(dp2354
g16
S''
sg42
g1765
sg20
S''
sg44
g1766
sg21
S''
sg17
g1765
sg30
Nsg46
g1767
stRp2355
ag3
(g4
g5
(dp2356
g16
S''
sg42
g1770
sg20
S''
sg44
g1771
sg21
S''
sg17
g1770
sg30
Nsg46
g1772
stRp2357
atRp2358
sg115
g2329
sg42
S'db.integtx'
p2359
sg117
S'0'
sg118
S'18'
p2360
sg120
g121
sg46
S'Temporary integration records'
p2361
sg44
S'Integed'
p2362
sg983
S'db.resolve'
p2363
stRp2364
sS'protect'
p2365
g3
(g4
g5
(dp2366
g7
S'seq'
p2367
sg9
S'50'
p2368
sg11
g3
(g12
g13
(lp2369
g3
(g4
g5
(dp2370
g16
S''
sg17
g18
sg19
g18
sg20
S''
sg21
S''
sg22
g23
sg24
g25
stRp2371
ag3
(g4
g5
(dp2372
g16
S''
sg19
g28
sg20
S''
sg22
g29
sg21
S''
sg17
g28
sg30
Nsg24
g31
stRp2373
ag3
(g4
g5
(dp2374
g16
S''
sg19
g34
sg20
S''
sg22
g23
sg21
S''
sg17
g34
sg30
Nsg24
g35
stRp2375
ag3
(g4
g5
(dp2376
g16
S''
sg19
g38
sg20
S''
sg22
g29
sg21
S''
sg17
g38
sg30
Nsg24
g39
stRp2377
ag3
(g4
g5
(dp2378
g16
S''
sg42
S'seq'
p2379
sg20
S''
sg44
S'Int'
p2380
sg21
S''
sg17
g2379
sg30
Nsg46
S'Sequence number: for ordering the protections table'
p2381
stRp2382
ag3
(g4
g5
(dp2383
g16
S''
sg42
S'isGroup'
p2384
sg20
S''
sg44
S'Int'
p2385
sg21
S''
sg17
g2384
sg30
Nsg46
S'Flag: 0 for a per-user setting, 1 for a per-group setting.'
p2386
stRp2387
ag3
(g4
g5
(dp2388
g16
S''
sg42
S'user'
p2389
sg20
S''
sg44
S'UserWild'
p2390
sg21
S''
sg17
g2389
sg30
Nsg46
S'User(s), or Group(s) for whom this record applies.'
p2391
stRp2392
ag3
(g4
g5
(dp2393
g16
S''
sg42
S'host'
p2394
sg20
S''
sg44
S'DomainWild'
p2395
sg21
S''
sg17
g2394
sg30
Nsg46
S'Domain(s) (IP addresses) for which this record applies.'
p2396
stRp2397
ag3
(g4
g5
(dp2398
g16
S''
sg42
S'perm'
p2399
sg20
S''
sg44
S'Perm'
p2400
sg21
S''
sg17
g2399
sg30
Nsg46
S'Permissions to be granted/revoked'
p2401
stRp2402
ag3
(g4
g5
(dp2403
g16
S''
sg42
S'mapFlag'
p2404
sg20
S''
sg44
S'MapFlag'
p2405
sg21
S''
sg17
g2404
sg30
Nsg46
S'Flag: Map the files in or out?'
p2406
stRp2407
ag3
(g4
g5
(dp2408
g16
S''
sg42
S'depotFile'
p2409
sg20
S''
sg44
S'Mapping'
p2410
sg21
S''
sg17
g2409
sg30
Nsg46
S'Files to be mapped in or out.'
p2411
stRp2412
atRp2413
sg115
g2365
sg42
S'db.protect'
p2414
sg117
S'4'
sg118
S'50'
p2415
sg120
g121
sg44
S'Protect'
p2416
sg46
S'The protections table'
p2417
stRp2418
sS'resolve'
p2419
g3
(g4
g5
(dp2420
g7
S'toFile, fromFile, startFromRev'
p2421
sg9
S'22'
p2422
sg11
g3
(g12
g13
(lp2423
g3
(g4
g5
(dp2424
g16
S''
sg17
g18
sg19
g18
sg20
S''
sg21
S''
sg22
g23
sg24
g25
stRp2425
ag3
(g4
g5
(dp2426
g16
S''
sg19
g28
sg20
S''
sg22
g29
sg21
S''
sg17
g28
sg30
Nsg24
g31
stRp2427
ag3
(g4
g5
(dp2428
g16
S''
sg19
g34
sg20
S''
sg22
g23
sg21
S''
sg17
g34
sg30
Nsg24
g35
stRp2429
ag3
(g4
g5
(dp2430
g16
S''
sg19
g38
sg20
S''
sg22
g29
sg21
S''
sg17
g38
sg30
Nsg24
g39
stRp2431
ag3
(g4
g5
(dp2432
g16
S''
sg42
g2177
sg20
S''
sg44
g2178
sg21
S''
sg17
g2177
sg30
Nsg46
g2179
stRp2433
ag3
(g4
g5
(dp2434
g16
S''
sg42
g2182
sg20
S''
sg44
g2183
sg21
S''
sg17
g2182
sg30
Nsg46
g2184
stRp2435
ag3
(g4
g5
(dp2436
g16
S''
sg42
g2187
sg20
S''
sg44
g2188
sg21
S''
sg17
g2187
sg30
Nsg46
g2189
stRp2437
ag3
(g4
g5
(dp2438
g16
S''
sg42
g2192
sg20
S''
sg44
g2193
sg21
S''
sg17
g2192
sg30
Nsg46
g2194
stRp2439
ag3
(g4
g5
(dp2440
g16
S''
sg42
g2197
sg20
S''
sg44
g2198
sg21
S''
sg17
g2197
sg30
Nsg46
g2199
stRp2441
ag3
(g4
g5
(dp2442
g16
S''
sg42
g2202
sg20
S''
sg44
g2203
sg21
S''
sg17
g2202
sg30
Nsg46
g2204
stRp2443
ag3
(g4
g5
(dp2444
g16
S''
sg42
g2207
sg20
S''
sg44
g2208
sg21
S''
sg17
g2207
sg30
Nsg46
g2209
stRp2445
ag3
(g4
g5
(dp2446
g16
S''
sg42
g2212
sg20
S''
sg44
g2213
sg21
S''
sg17
g2212
sg30
Nsg46
g2214
stRp2447
ag3
(g4
g5
(dp2448
g16
S''
sg42
g2217
sg20
S''
sg44
g2218
sg21
S''
sg17
g2217
sg30
Nsg46
g2219
stRp2449
ag3
(g4
g5
(dp2450
g16
S''
sg42
g2222
sg20
S''
sg44
g2223
sg21
S''
sg17
g2222
sg30
Nsg46
g2224
stRp2451
atRp2452
sg115
g2419
sg42
S'db.resolve'
p2453
sg117
S'1'
sg118
S'19'
p2454
sg120
g121
sg46
S'Pending integration records'
p2455
sg44
S'Resolve'
p2456
sg983
S'db.integed'
p2457
stRp2458
sS'locks'
p2459
g3
(g4
g5
(dp2460
g7
S'depotFile, client'
p2461
sg9
S'35'
p2462
sg11
g3
(g12
g13
(lp2463
g3
(g4
g5
(dp2464
g16
S''
sg17
g18
sg19
g18
sg20
S''
sg21
S''
sg22
g23
sg24
g25
stRp2465
ag3
(g4
g5
(dp2466
g16
S''
sg19
g28
sg20
S''
sg22
g29
sg21
S''
sg17
g28
sg30
Nsg24
g31
stRp2467
ag3
(g4
g5
(dp2468
g16
S''
sg19
g34
sg20
S''
sg22
g23
sg21
S''
sg17
g34
sg30
Nsg24
g35
stRp2469
ag3
(g4
g5
(dp2470
g16
S''
sg19
g38
sg20
S''
sg22
g29
sg21
S''
sg17
g38
sg30
Nsg24
g39
stRp2471
ag3
(g4
g5
(dp2472
g16
S''
sg42
S'depotFile'
p2473
sg20
S''
sg44
S'File'
p2474
sg21
S''
sg17
g2473
sg30
Nsg46
S'File in depot'
p2475
stRp2476
ag3
(g4
g5
(dp2477
g16
S''
sg42
S'client'
p2478
sg20
S''
sg44
S'Domain'
p2479
sg21
S''
sg17
g2478
sg30
Nsg46
S'Domain (client) in which file is open'
p2480
stRp2481
ag3
(g4
g5
(dp2482
g16
S''
sg42
S'user'
p2483
sg20
S''
sg44
S'User'
p2484
sg21
S''
sg17
g2483
sg30
Nsg46
S'User who presently has the file open'
p2485
stRp2486
ag3
(g4
g5
(dp2487
g16
S''
sg42
S'action'
p2488
sg20
S''
sg44
S'Action'
p2489
sg21
S''
sg17
g2488
sg30
Nsg46
S'Action file is open for: add, edit, delete, branch,\n\t\t    integrate, or import'
p2490
stRp2491
ag3
(g4
g5
(dp2492
g16
S''
sg42
S'isLocked'
p2493
sg20
S''
sg44
S'Int'
p2494
sg21
S''
sg17
g2493
sg30
Nsg46
S'Flag: 0 for unlocked, 1 for locked'
p2495
stRp2496
ag3
(g4
g5
(dp2497
g16
S''
sg42
S'change'
p2498
sg20
S''
sg44
S'Int'
p2499
sg21
S''
sg17
g2498
sg30
Nsg46
S'Changelist in which the revision is open: 0 for the\n\t\t    default changelist'
p2500
stRp2501
atRp2502
sg115
g2459
sg42
S'db.locks'
p2503
sg117
S'2'
sg118
S'24'
p2504
sg120
g121
sg44
S'Locks'
p2505
sg46
S'Locked/Unlocked files'
p2506
stRp2507
sS'uxtext'
p2508
g3
(g4
g5
(dp2509
g7
S'word, attr, value'
p2510
sg9
S'49'
p2511
sg11
g3
(g12
g13
(lp2512
g3
(g4
g5
(dp2513
g16
S''
sg17
g18
sg19
g18
sg20
S''
sg21
S''
sg22
g23
sg24
g25
stRp2514
ag3
(g4
g5
(dp2515
g16
S''
sg19
g28
sg20
S''
sg22
g29
sg21
S''
sg17
g28
sg30
Nsg24
g31
stRp2516
ag3
(g4
g5
(dp2517
g16
S''
sg19
g34
sg20
S''
sg22
g23
sg21
S''
sg17
g34
sg30
Nsg24
g35
stRp2518
ag3
(g4
g5
(dp2519
g16
S''
sg19
g38
sg20
S''
sg22
g29
sg21
S''
sg17
g38
sg30
Nsg24
g39
stRp2520
ag3
(g4
g5
(dp2521
g16
S''
sg42
g515
sg20
S''
sg44
g516
sg21
S''
sg17
g515
sg30
Nsg46
g517
stRp2522
ag3
(g4
g5
(dp2523
g16
S''
sg42
g520
sg20
S''
sg44
g521
sg21
S''
sg17
g520
sg30
Nsg46
g522
stRp2524
ag3
(g4
g5
(dp2525
g16
S''
sg42
g525
sg20
S''
sg44
g526
sg21
S''
sg17
g525
sg30
Nsg46
g527
stRp2526
atRp2527
sg115
g2508
sg42
S'db.uxtext'
p2528
sg117
S'0'
sg118
S'49'
p2529
sg120
g121
sg44
S'IndexText'
p2530
sg46
S'Indexing data for Swarm'
p2531
stRp2532
sS'revhx'
p2533
g3
(g4
g5
(dp2534
g7
S'depotFile'
p2535
sg9
S'26'
p2536
sg11
g3
(g12
g13
(lp2537
g3
(g4
g5
(dp2538
g16
S''
sg17
g18
sg19
g18
sg20
S''
sg21
S''
sg22
g23
sg24
g25
stRp2539
ag3
(g4
g5
(dp2540
g16
S''
sg19
g28
sg20
S''
sg22
g29
sg21
S''
sg17
g28
sg30
Nsg24
g31
stRp2541
ag3
(g4
g5
(dp2542
g16
S''
sg19
g34
sg20
S''
sg22
g23
sg21
S''
sg17
g34
sg30
Nsg24
g35
stRp2543
ag3
(g4
g5
(dp2544
g16
S''
sg19
g38
sg20
S''
sg22
g29
sg21
S''
sg17
g38
sg30
Nsg24
g39
stRp2545
ag3
(g4
g5
(dp2546
g16
S''
sg42
g294
sg20
S''
sg44
g295
sg21
S''
sg17
g294
sg30
Nsg46
g296
stRp2547
ag3
(g4
g5
(dp2548
g16
S''
sg42
g299
sg20
S''
sg44
g300
sg21
S''
sg17
g299
sg30
Nsg46
g301
stRp2549
ag3
(g4
g5
(dp2550
g16
S''
sg42
g304
sg20
S''
sg44
g305
sg21
S''
sg17
g304
sg30
Nsg46
g306
stRp2551
ag3
(g4
g5
(dp2552
g16
S''
sg42
g309
sg20
S''
sg44
g310
sg21
S''
sg17
g309
sg30
Nsg46
g311
stRp2553
ag3
(g4
g5
(dp2554
g16
S''
sg42
g314
sg20
S''
sg44
g315
sg21
S''
sg17
g314
sg30
Nsg46
g316
stRp2555
ag3
(g4
g5
(dp2556
g16
S''
sg42
g319
sg20
S''
sg44
g320
sg21
S''
sg17
g319
sg30
Nsg46
g321
stRp2557
ag3
(g4
g5
(dp2558
g16
S''
sg42
g324
sg20
S''
sg44
g325
sg21
S''
sg17
g324
sg30
Nsg46
g326
stRp2559
ag3
(g4
g5
(dp2560
g16
S''
sg42
g329
sg20
S''
sg44
g330
sg21
S''
sg17
g329
sg30
Nsg46
g331
stRp2561
ag3
(g4
g5
(dp2562
g16
S''
sg42
g334
sg20
S''
sg44
g335
sg21
S''
sg17
g334
sg30
Nsg46
g336
stRp2563
ag3
(g4
g5
(dp2564
g16
S''
sg42
g339
sg20
S''
sg44
g340
sg21
S''
sg17
g339
sg30
Nsg46
g341
stRp2565
ag3
(g4
g5
(dp2566
g16
S''
sg42
g344
sg20
S''
sg44
g345
sg21
S''
sg17
g344
sg30
Nsg46
g346
stRp2567
ag3
(g4
g5
(dp2568
g16
S''
sg42
g349
sg20
S''
sg44
g350
sg21
S''
sg17
g349
sg30
Nsg46
g351
stRp2569
ag3
(g4
g5
(dp2570
g16
S''
sg42
g354
sg20
S''
sg44
g355
sg21
S''
sg17
g354
sg30
Nsg46
g356
stRp2571
ag3
(g4
g5
(dp2572
g16
S''
sg42
g359
sg20
S''
sg44
g360
sg21
S''
sg17
g359
sg30
Nsg46
g361
stRp2573
atRp2574
sg115
g2533
sg42
S'db.revhx'
p2575
sg117
S'9'
sg118
S'31'
p2576
sg120
g121
sg44
S'Rev'
p2577
sg46
S'Revision records for revisions NOT deleted at the head revision'
p2578
stRp2579
sS'server'
p2580
g3
(g4
g5
(dp2581
g7
S'id'
p2582
sg9
S'5'
sg11
g3
(g12
g13
(lp2583
g3
(g4
g5
(dp2584
g16
S''
sg17
g18
sg19
g18
sg20
S''
sg21
S''
sg22
g23
sg24
g25
stRp2585
ag3
(g4
g5
(dp2586
g16
S''
sg19
g28
sg20
S''
sg22
g29
sg21
S''
sg17
g28
sg30
Nsg24
g31
stRp2587
ag3
(g4
g5
(dp2588
g16
S''
sg19
g34
sg20
S''
sg22
g23
sg21
S''
sg17
g34
sg30
Nsg24
g35
stRp2589
ag3
(g4
g5
(dp2590
g16
S''
sg19
g38
sg20
S''
sg22
g29
sg21
S''
sg17
g38
sg30
Nsg24
g39
stRp2591
ag3
(g4
g5
(dp2592
g16
S''
sg42
S'id'
p2593
sg20
S''
sg44
S'text'
p2594
sg21
S''
sg17
g2593
sg30
Nsg46
S'The server identifier'
p2595
stRp2596
ag3
(g4
g5
(dp2597
g16
S''
sg42
S'type'
p2598
sg20
S''
sg44
S'ServerType'
p2599
sg21
S''
sg17
g2598
sg30
Nsg46
S'The server type: server/broker/proxy'
p2600
stRp2601
ag3
(g4
g5
(dp2602
g16
S''
sg42
S'name'
p2603
sg20
S''
sg44
S'text'
p2604
sg21
S''
sg17
g2603
sg30
Nsg46
S'The P4NAME used by this server'
p2605
stRp2606
ag3
(g4
g5
(dp2607
g16
S''
sg42
S'address'
p2608
sg20
S''
sg44
S'text'
p2609
sg21
S''
sg17
g2608
sg30
Nsg46
S'The P4PORT used by this server'
p2610
stRp2611
ag3
(g4
g5
(dp2612
g16
S''
sg42
S'services'
p2613
sg20
S''
sg44
S'ServerServiceType'
p2614
sg21
S''
sg17
g2613
sg30
Nsg46
S'Service provided by this server'
p2615
stRp2616
ag3
(g4
g5
(dp2617
g16
S''
sg42
S'desc'
p2618
sg20
S''
sg44
S'text'
p2619
sg21
S''
sg17
g2618
sg30
Nsg46
S'Server description'
p2620
stRp2621
ag3
(g4
g5
(dp2622
g16
S''
sg42
S'user'
p2623
sg20
S''
sg44
S'User'
p2624
sg21
S''
sg17
g2623
sg30
Nsg46
S'The service user used by this server'
p2625
stRp2626
atRp2627
sg115
g2580
sg42
S'db.server'
p2628
sg117
S'1'
sg118
S'5'
sg120
g121
sg44
S'Server'
p2629
sg46
S'Perforce server specifications'
p2630
stRp2631
sS'userrp'
p2632
g3
(g4
g5
(dp2633
g7
S'user'
p2634
sg9
S'7'
sg11
g3
(g12
g13
(lp2635
g3
(g4
g5
(dp2636
g16
S''
sg17
g18
sg19
g18
sg20
S''
sg21
S''
sg22
g23
sg24
g25
stRp2637
ag3
(g4
g5
(dp2638
g16
S''
sg19
g28
sg20
S''
sg22
g29
sg21
S''
sg17
g28
sg30
Nsg24
g31
stRp2639
ag3
(g4
g5
(dp2640
g16
S''
sg19
g34
sg20
S''
sg22
g23
sg21
S''
sg17
g34
sg30
Nsg24
g35
stRp2641
ag3
(g4
g5
(dp2642
g16
S''
sg19
g38
sg20
S''
sg22
g29
sg21
S''
sg17
g38
sg30
Nsg24
g39
stRp2643
ag3
(g4
g5
(dp2644
g16
S''
sg42
g1897
sg20
S''
sg44
g1898
sg21
S''
sg17
g1897
sg30
Nsg46
g1899
stRp2645
ag3
(g4
g5
(dp2646
g16
S''
sg42
g1902
sg20
S''
sg44
g1903
sg21
S''
sg17
g1902
sg30
Nsg46
g1904
stRp2647
ag3
(g4
g5
(dp2648
g16
S''
sg42
g1907
sg20
S''
sg44
g1908
sg21
S''
sg17
g1907
sg30
Nsg46
g1909
stRp2649
ag3
(g4
g5
(dp2650
g16
S''
sg42
g1912
sg20
S''
sg44
g1913
sg21
S''
sg17
g1912
sg30
Nsg46
g1914
stRp2651
ag3
(g4
g5
(dp2652
g16
S''
sg42
g1917
sg20
S''
sg44
g1918
sg21
S''
sg17
g1917
sg30
Nsg46
g1919
stRp2653
ag3
(g4
g5
(dp2654
g16
S''
sg42
g1922
sg20
S''
sg44
g1923
sg21
S''
sg17
g1922
sg30
Nsg46
g1924
stRp2655
ag3
(g4
g5
(dp2656
g16
S''
sg42
g1927
sg20
S''
sg44
g1928
sg21
S''
sg17
g1927
sg30
Nsg46
g1929
stRp2657
ag3
(g4
g5
(dp2658
g16
S''
sg42
g1932
sg20
S''
sg44
g1933
sg21
S''
sg17
g1932
sg30
Nsg46
g1934
stRp2659
ag3
(g4
g5
(dp2660
g16
S''
sg42
g1937
sg20
S''
sg44
g1938
sg21
S''
sg17
g1937
sg30
Nsg46
g1939
stRp2661
ag3
(g4
g5
(dp2662
g16
S''
sg42
g1942
sg20
S''
sg44
g1943
sg21
S''
sg17
g1942
sg30
Nsg46
g1944
stRp2663
ag3
(g4
g5
(dp2664
g16
S''
sg42
g1947
sg20
S''
sg44
g1948
sg21
S''
sg17
g1947
sg30
Nsg46
g1949
stRp2665
ag3
(g4
g5
(dp2666
g16
S''
sg42
g1952
sg20
S''
sg44
g1953
sg21
S''
sg17
g1952
sg30
Nsg46
g1954
stRp2667
ag3
(g4
g5
(dp2668
g16
S''
sg42
g1957
sg20
S''
sg44
g1958
sg21
S''
sg17
g1957
sg30
Nsg46
g1959
stRp2669
ag3
(g4
g5
(dp2670
g16
S''
sg42
g1962
sg20
S''
sg44
g1963
sg21
S''
sg17
g1962
sg30
Nsg46
g1964
stRp2671
ag3
(g4
g5
(dp2672
g16
S''
sg42
g1967
sg20
S''
sg44
g1968
sg21
S''
sg17
g1967
sg30
Nsg46
g1969
stRp2673
atRp2674
sg115
g2632
sg42
S'db.user.rp'
p2675
sg117
S'7'
sg118
S'7'
sg120
g121
sg44
S'User'
p2676
sg46
S"Used by replica server's to store login information"
p2677
stRp2678
sS'revcx'
p2679
g3
(g4
g5
(dp2680
g7
S'change, depotFile'
p2681
sg9
S'32'
p2682
sg11
g3
(g12
g13
(lp2683
g3
(g4
g5
(dp2684
g16
S''
sg17
g18
sg19
g18
sg20
S''
sg21
S''
sg22
g23
sg24
g25
stRp2685
ag3
(g4
g5
(dp2686
g16
S''
sg19
g28
sg20
S''
sg22
g29
sg21
S''
sg17
g28
sg30
Nsg24
g31
stRp2687
ag3
(g4
g5
(dp2688
g16
S''
sg19
g34
sg20
S''
sg22
g23
sg21
S''
sg17
g34
sg30
Nsg24
g35
stRp2689
ag3
(g4
g5
(dp2690
g16
S''
sg19
g38
sg20
S''
sg22
g29
sg21
S''
sg17
g38
sg30
Nsg24
g39
stRp2691
ag3
(g4
g5
(dp2692
g16
S''
sg42
S'change'
p2693
sg20
S''
sg44
S'Change'
p2694
sg21
S''
sg17
g2693
sg30
Nsg46
S'The changelist that created the revision'
p2695
stRp2696
ag3
(g4
g5
(dp2697
g16
S''
sg42
S'depotFile'
p2698
sg20
S''
sg44
S'File'
p2699
sg21
S''
sg17
g2698
sg30
Nsg46
S'The file name'
p2700
stRp2701
ag3
(g4
g5
(dp2702
g16
S''
sg42
S'depotRev'
p2703
sg20
S''
sg44
S'Rev'
p2704
sg21
S''
sg17
g2703
sg30
Nsg46
S'The revision number'
p2705
stRp2706
ag3
(g4
g5
(dp2707
g16
S''
sg42
S'action'
p2708
sg20
S''
sg44
S'Action'
p2709
sg21
S''
sg17
g2708
sg30
Nsg46
S'The action that created the revision'
p2710
stRp2711
atRp2712
sg115
g2679
sg42
S'db.revcx'
p2713
sg117
S'0'
sg118
S'29'
p2714
sg120
g121
sg44
S'RevCx'
p2715
sg46
S'Secondary index of db.rev'
p2716
stRp2717
sS'property'
p2718
g3
(g4
g5
(dp2719
g7
S'name, seq, type, scope'
p2720
sg9
S'51'
p2721
sg11
g3
(g12
g13
(lp2722
g3
(g4
g5
(dp2723
g16
S''
sg17
g18
sg19
g18
sg20
S''
sg21
S''
sg22
g23
sg24
g25
stRp2724
ag3
(g4
g5
(dp2725
g16
S''
sg19
g28
sg20
S''
sg22
g29
sg21
S''
sg17
g28
sg30
Nsg24
g31
stRp2726
ag3
(g4
g5
(dp2727
g16
S''
sg19
g34
sg20
S''
sg22
g23
sg21
S''
sg17
g34
sg30
Nsg24
g35
stRp2728
ag3
(g4
g5
(dp2729
g16
S''
sg19
g38
sg20
S''
sg22
g29
sg21
S''
sg17
g38
sg30
Nsg24
g39
stRp2730
ag3
(g4
g5
(dp2731
g16
S''
sg42
S'name'
p2732
sg20
S''
sg44
S'String'
p2733
sg21
S''
sg17
g2732
sg30
Nsg46
S'The property name'
p2734
stRp2735
ag3
(g4
g5
(dp2736
g16
S''
sg42
S'sequence'
p2737
sg20
S''
sg44
S'String'
p2738
sg21
S''
sg17
g2737
sg30
Nsg46
S'Sequence number of property'
p2739
stRp2740
ag3
(g4
g5
(dp2741
g16
S''
sg42
S'type'
p2742
sg20
S''
sg44
S'Integer'
p2743
sg21
S''
sg17
g2742
sg30
Nsg46
S"1=user, 2=group; set if '-u | -g' option used with 'p4 property'"
p2744
stRp2745
ag3
(g4
g5
(dp2746
g16
S''
sg42
S'scope'
p2747
sg20
S''
sg44
S'String'
p2748
sg21
S''
sg17
g2747
sg30
Nsg46
S'The user or group the property applies to'
p2749
stRp2750
ag3
(g4
g5
(dp2751
g16
S''
sg42
S'value'
p2752
sg20
S''
sg44
S'String'
p2753
sg21
S''
sg17
g2752
sg30
Nsg46
S'The property value'
p2754
stRp2755
ag3
(g4
g5
(dp2756
g16
S''
sg42
S'date'
p2757
sg20
S''
sg44
S'String'
p2758
sg21
S''
sg17
g2757
sg30
Nsg46
S'The date/time the property was last updated'
p2759
stRp2760
ag3
(g4
g5
(dp2761
g16
S''
sg42
S'user'
p2762
sg20
S''
sg44
S'String'
p2763
sg21
S''
sg17
g2762
sg30
Nsg46
S'The user that last modified the property'
p2764
stRp2765
atRp2766
sg115
g2718
sg42
S'db.property'
p2767
sg117
S'0'
sg118
S'51'
p2768
sg120
g121
sg44
S'Property'
p2769
sg46
S'Properties'
p2770
stRp2771
sS'review'
p2772
g3
(g4
g5
(dp2773
g7
S'user, seq'
p2774
sg9
S'16'
p2775
sg11
g3
(g12
g13
(lp2776
g3
(g4
g5
(dp2777
g16
S''
sg17
g18
sg19
g18
sg20
S''
sg21
S''
sg22
g23
sg24
g25
stRp2778
ag3
(g4
g5
(dp2779
g16
S''
sg19
g28
sg20
S''
sg22
g29
sg21
S''
sg17
g28
sg30
Nsg24
g31
stRp2780
ag3
(g4
g5
(dp2781
g16
S''
sg19
g34
sg20
S''
sg22
g23
sg21
S''
sg17
g34
sg30
Nsg24
g35
stRp2782
ag3
(g4
g5
(dp2783
g16
S''
sg19
g38
sg20
S''
sg22
g29
sg21
S''
sg17
g38
sg30
Nsg24
g39
stRp2784
ag3
(g4
g5
(dp2785
g16
S''
sg42
S'user'
p2786
sg20
S''
sg44
S'User'
p2787
sg21
S''
sg17
g2786
sg30
Nsg46
S'A user name'
p2788
stRp2789
ag3
(g4
g5
(dp2790
g16
S''
sg42
S'seq'
p2791
sg20
S''
sg44
S'Int'
p2792
sg21
S''
sg17
g2791
sg30
Nsg46
S'Sequence number: used for ordering multi-line views'
p2793
stRp2794
ag3
(g4
g5
(dp2795
g16
S''
sg42
S'mapFlag'
p2796
sg20
S''
sg44
S'MapFlag'
p2797
sg21
S''
sg17
g2796
sg30
Nsg46
S'Type of mapping'
p2798
stRp2799
ag3
(g4
g5
(dp2800
g16
S''
sg42
S'depotFile'
p2801
sg20
S''
sg44
S'Mapping'
p2802
sg21
S''
sg17
g2801
sg30
Nsg46
S'The files to be reviewed'
p2803
stRp2804
ag3
(g4
g5
(dp2805
g16
S''
sg42
S'type'
p2806
sg20
S''
sg44
S'Reviewer'
p2807
sg21
S''
sg17
g2806
sg30
Nsg46
S'Type of reviewer'
p2808
stRp2809
atRp2810
sg115
g2772
sg42
S'db.review'
p2811
sg117
S'1'
sg118
S'16'
p2812
sg120
g121
sg44
S'Review'
p2813
sg46
S"Contains user's review mappings"
p2814
stRp2815
sS'view'
p2816
g3
(g4
g5
(dp2817
g7
S'name, seq'
p2818
sg9
S'15'
p2819
sg11
g3
(g12
g13
(lp2820
g3
(g4
g5
(dp2821
g16
S''
sg17
g18
sg19
g18
sg20
S''
sg21
S''
sg22
g23
sg24
g25
stRp2822
ag3
(g4
g5
(dp2823
g16
S''
sg19
g28
sg20
S''
sg22
g29
sg21
S''
sg17
g28
sg30
Nsg24
g31
stRp2824
ag3
(g4
g5
(dp2825
g16
S''
sg19
g34
sg20
S''
sg22
g23
sg21
S''
sg17
g34
sg30
Nsg24
g35
stRp2826
ag3
(g4
g5
(dp2827
g16
S''
sg19
g38
sg20
S''
sg22
g29
sg21
S''
sg17
g38
sg30
Nsg24
g39
stRp2828
ag3
(g4
g5
(dp2829
g16
S''
sg42
g471
sg20
S''
sg44
g472
sg21
S''
sg17
g471
sg30
Nsg46
g473
stRp2830
ag3
(g4
g5
(dp2831
g16
S''
sg42
g476
sg20
S''
sg44
g477
sg21
S''
sg17
g476
sg30
Nsg46
g478
stRp2832
ag3
(g4
g5
(dp2833
g16
S''
sg42
g481
sg20
S''
sg44
g482
sg21
S''
sg17
g481
sg30
Nsg46
g483
stRp2834
ag3
(g4
g5
(dp2835
g16
S''
sg42
g486
sg20
S''
sg44
g487
sg21
S''
sg17
g486
sg30
Nsg46
g488
stRp2836
ag3
(g4
g5
(dp2837
g16
S''
sg42
g491
sg20
S''
sg44
g492
sg21
S''
sg17
g491
sg30
Nsg46
g493
stRp2838
atRp2839
sg115
g2816
sg42
S'db.view'
p2840
sg117
S'1'
sg118
S'15'
p2841
sg120
g121
sg44
S'View'
p2842
sg46
S'Contains views for domains'
p2843
stRp2844
s.