(dp1
S'tables'
p2
ccopy_reg
_reconstructor
p3
(clib.sqUtils
Storage
p4
c__builtin__
dict
p5
(dp6
S'table'
p7
g3
(clib.sqUtils
Lst
p8
c__builtin__
list
p9
(lp10
g3
(g4
g5
(dp11
S'version'
p12
S'1'
sS'classic_lockseq'
p13
S'1'
sS'keying'
p14
S'serverName, name'
p15
sS'peek_lockseq'
p16
S'1'
sS'name'
p17
S'db.config'
p18
sS'type'
p19
S'Config'
p20
sS'desc'
p21
S'Server configurations table'
p22
stRp23
ag3
(g4
g5
(dp24
g12
S'1'
sg13
S'2'
sg14
S'name'
p25
sg16
S'2'
sg17
S'db.counters'
p26
sg19
S'Counters'
p27
sg21
S'Counters table'
p28
stRp29
ag3
(g4
g5
(dp30
g12
S'1'
sg13
S'3'
sg14
S'name'
p31
sg16
S'3'
sg17
S'db.nameval'
p32
sg19
S'Keys'
p33
sg21
S'A table to store key/value pairs'
p34
stRp35
ag3
(g4
g5
(dp36
g12
S'0'
sg13
S'4'
sg14
S'seq'
p37
sg16
S'4'
sg17
S'db.logger'
p38
sg19
S'Logger'
p39
sg21
S"Support for 'p4 logger' command. Logs any changes to \n\t\tchangelists and jobs"
p40
stRp41
ag3
(g4
g5
(dp42
g12
S'0'
sg13
S'5'
sg14
S'name'
p43
sg16
S'5'
sg17
S'db.ldap'
p44
sg19
S'Ldap'
p45
sg21
S'LDAP specifications'
p46
stRp47
ag3
(g4
g5
(dp48
g12
S'2'
sg13
S'6'
sg14
S'id'
p49
sg16
S'6'
sg17
S'db.server'
p50
sg19
S'Server'
p51
sg21
S'Server specifications'
p52
stRp53
ag3
(g4
g5
(dp54
g12
S'0'
sg13
S'7'
sg14
S'id, type, seq'
p55
sg16
S'7'
sg17
S'db.svrview'
p56
sg19
S'SvrView'
p57
sg21
S'View data for servers specifications'
p58
stRp59
ag3
(g4
g5
(dp60
g12
S'1'
sg13
S'8'
sg14
S'id'
p61
sg16
S'8'
sg17
S'db.remote'
p62
sg19
S'Remote'
p63
sg21
S'Remote specifications'
p64
stRp65
ag3
(g4
g5
(dp66
g12
S'0'
sg13
S'9'
sg14
S'id, seq'
p67
sg16
S'9'
sg17
S'db.rmtview'
p68
sg19
S'RmtView'
p69
sg21
S'View data for remote specifications'
p70
stRp71
ag3
(g4
g5
(dp72
g12
S'0'
sg13
S'10'
p73
sg14
S'client, stream, type, seq'
p74
sg16
S'10'
p75
sg17
S'db.stash'
p76
sg19
S'Stash'
p77
sg21
S'Stash data'
p78
stRp79
ag3
(g4
g5
(dp80
g12
S'7'
sg13
S'11'
p81
sg14
S'user'
p82
sg16
S'11'
p83
sg17
S'db.user.rp'
p84
sg19
S'User'
p85
sg21
S"Used by replica server's to store login information"
p86
stRp87
ag3
(g4
g5
(dp88
g12
S'7'
sg13
S'12'
p89
sg14
S'user'
p90
sg16
S'12'
p91
sg17
S'db.user'
p92
sg19
S'User'
p93
sg21
S'User specifications'
p94
stRp95
ag3
(g4
g5
(dp96
g12
S'8'
sg13
S'13'
p97
sg14
S'user, group'
p98
sg16
S'13'
p99
sg17
S'db.group'
p100
sg19
S'Group'
p101
sg21
S'Group specifications'
p102
stRp103
ag3
(g4
g5
(dp104
g12
S'0'
sg13
S'14'
p105
sg14
S'group'
p106
sg16
S'14'
p107
sg17
S'db.groupx'
p108
sg19
S'GroupX'
p109
sg21
S'Per-group data to support group membership controlled by AD/LDAP group membership'
p110
stRp111
ag3
(g4
g5
(dp112
g12
S'1'
sg13
S'15'
p113
sg14
S'name'
p114
sg16
S'15'
p115
sg17
S'db.depot'
p116
sg19
S'Depot'
p117
sg21
S'Depot specifications'
p118
stRp119
ag3
(g4
g5
(dp120
g12
S'1'
sg13
S'16'
p121
sg14
S'stream'
p122
sg16
S'16'
p123
sg17
S'db.stream'
p124
sg19
S'Stream'
p125
sg21
S'Stream specifications'
p126
stRp127
ag3
(g4
g5
(dp128
g12
S'6'
sg13
S'17'
p129
sg14
S'name'
p130
sg16
S'17'
p131
sg17
S'db.domain'
p132
sg19
S'Domain'
p133
sg21
S'Domains: depots, clients, labels, branches, streams, and typemap'
p134
stRp135
ag3
(g4
g5
(dp136
g12
S'3'
sg13
S'18'
p137
sg14
S'name, change, sequence'
p138
sg16
S'18'
p139
sg17
S'db.template'
p140
sg19
S'Template'
p141
sg21
S'Streams templates'
p142
stRp143
ag3
(g4
g5
(dp144
g12
S'1'
sg13
S'19'
p145
sg14
S'name seq'
p146
sg16
S'19'
p147
sg17
S'db.view.rp'
p148
sg19
S'View'
p149
sg21
S'View data for clients of build-server replicas'
p150
stRp151
ag3
(g4
g5
(dp152
g12
S'1'
sg13
S'20'
p153
sg14
S'name, seq'
p154
sg16
S'20'
p155
sg17
S'db.view'
p156
sg19
S'View'
p157
sg21
S'View data for domain records'
p158
stRp159
ag3
(g4
g5
(dp160
g12
S'1'
sg13
S'21'
p161
sg14
S'user, seq'
p162
sg16
S'21'
p163
sg17
S'db.review'
p164
sg19
S'Review'
p165
sg21
S"User's review mappings"
p166
stRp167
ag3
(g4
g5
(dp168
g14
S'toFile, fromFile, startFromRev, endFromRev, \n\t\tstartToRev, endToRev'
p169
sg16
S'26'
p170
sg17
S'db.integed'
p171
sg12
S'0'
sg13
S'22'
p172
sS'seeAlso'
p173
S'db.resolve'
p174
sg19
S'Integed'
p175
sg21
S'Permanent integration records'
p176
stRp177
ag3
(g4
g5
(dp178
g14
S'toFile, fromFile, startFromRev, endFromRev, \n\t\tstartToRev, endToRev'
p179
sg16
S'27'
p180
sg17
S'db.integtx'
p181
sg12
S'0'
sg13
S'23'
p182
sg173
S'db.resolve'
p183
sg19
S'Integed'
p184
sg21
S'Temporary integration records used by task streams'
p185
stRp186
ag3
(g4
g5
(dp187
g14
S'toFile, fromFile, startFromRev'
p188
sg16
S'28'
p189
sg17
S'db.resolve'
p190
sg12
S'1'
sg13
S'24'
p191
sg173
S'db.integed'
p192
sg19
S'Resolve'
p193
sg21
S'Pending integration records'
p194
stRp195
ag3
(g4
g5
(dp196
g14
S'toFile, fromFile, startFromRev'
p197
sg16
S'29'
p198
sg17
S'db.resolvex'
p199
sg12
S'1'
sg13
S'25'
p200
sg173
S'db.integed'
p201
sg19
S'Resolve'
p202
sg21
S'Pending integration records for shelved files'
p203
stRp204
ag3
(g4
g5
(dp205
g12
S'3'
sg13
S'26'
p206
sg14
S'clientFile depotFile haveRev'
p207
sg16
S'23'
p208
sg17
S'db.have.rp'
p209
sg19
S'Have'
p210
sg21
S"Contains the 'have-list' for clients of build-server replicas"
p211
stRp212
ag3
(g4
g5
(dp213
g12
S'3'
sg13
S'27'
p214
sg14
S'clientFile depotFile haveRev'
p215
sg16
S'24'
p216
sg17
S'db.have.pt'
p217
sg19
S'Have'
p218
sg21
S'Placeholder for read-only clients'
p219
stRp220
ag3
(g4
g5
(dp221
g12
S'3'
sg13
S'28'
p222
sg14
S'clientFile'
p223
sg16
S'25'
p224
sg17
S'db.have'
p225
sg19
S'Have'
p226
sg21
S"Contains the 'have-list' for all clients"
p227
stRp228
ag3
(g4
g5
(dp229
g12
S'0'
sg13
S'29'
p230
sg14
S'name, depotFile'
p231
sg16
S'22'
p232
sg17
S'db.label'
p233
sg19
S'Label'
p234
sg21
S'Revisions of files in labels'
p235
stRp236
ag3
(g4
g5
(dp237
g12
S'2'
sg13
S'30'
p238
sg14
S'depotFile, client'
p239
sg16
S'41'
p240
sg17
S'db.locks'
p241
sg19
S'Locks'
p242
sg21
S'Locked/Unlocked files'
p243
stRp244
ag3
(g4
g5
(dp245
g12
S'1'
sg13
S'31'
p246
sg14
S'depotFile'
p247
sg16
S'44'
p248
sg17
S'db.excl'
p249
sg19
S'ExclusiveLock'
p250
sg21
S'Exclusively locked (+l) files -  enables coordinated file locking in commit/edge server environments'
p251
stRp252
ag3
(g4
g5
(dp253
g14
S'lbrFile, depotFile'
p254
sg16
S'30'
p255
sg17
S'db.archmap'
p256
sS'note'
p257
S'Supercedes db.archive'
p258
sg12
S'0'
sg13
S'32'
p259
sg19
S'ArchMap'
p260
sg21
S'Mapping entries for lazy-copies'
p261
stRp262
ag3
(g4
g5
(dp263
g12
S'9'
sg13
S'33'
p264
sg14
S'depotFile, depotRev'
p265
sg16
S'39'
p266
sg17
S'db.rev'
p267
sg19
S'Rev'
p268
sg21
S'Revision records'
p269
stRp270
ag3
(g4
g5
(dp271
g12
S'9'
sg13
S'34'
p272
sg14
S'depotFile, depotRev'
p273
sg16
S'40'
p274
sg17
S'db.revtx'
p275
sg19
S'Rev'
p276
sg21
S'Task stream revision records'
p277
stRp278
ag3
(g4
g5
(dp279
g12
S'0'
sg13
S'35'
p280
sg14
S'change, depotFile'
p281
sg16
S'38'
p282
sg17
S'db.revcx'
p283
sg19
S'RevCx'
p284
sg21
S'Secondary index of db.rev'
p285
stRp286
ag3
(g4
g5
(dp287
g12
S'9'
sg13
S'36'
p288
sg14
S'depotFile'
p289
sg16
S'31'
p290
sg17
S'db.revdx'
p291
sg19
S'Rev'
p292
sg21
S'Revision records for revisions deleted at the head revision'
p293
stRp294
ag3
(g4
g5
(dp295
g12
S'9'
sg13
S'37'
p296
sg14
S'depotFile'
p297
sg16
S'32'
p298
sg17
S'db.revhx'
p299
sg19
S'Rev'
p300
sg21
S'Revision records for revisions NOT deleted at the head revision'
p301
stRp302
ag3
(g4
g5
(dp303
g14
S'depotFile, depotRev'
p304
sg16
S'33'
p305
sg17
S'db.revpx'
p306
sg257
S'Only populated during content trigger execution to allow \n\t\ttriggers access to the revisions being submitted.'
p307
sg12
S'9'
sg13
S'38'
p308
sg19
S'Rev'
p309
sg21
S'Pending revision records'
p310
stRp311
ag3
(g4
g5
(dp312
g12
S'9'
sg13
S'39'
p313
sg14
S'depotFile, depotRev'
p314
sg16
S'34'
p315
sg17
S'db.revsx'
p316
sg19
S'Rev'
p317
sg21
S'Revision records for spec depot files'
p318
stRp319
ag3
(g4
g5
(dp320
g12
S'9'
sg13
S'40'
p321
sg14
S'depotFile, depotRev, type, action, change'
p322
sg16
S'35'
p323
sg17
S'db.revsh'
p324
sg19
S'Rev'
p325
sg21
S'Revision records for shelved files'
p326
stRp327
ag3
(g4
g5
(dp328
g12
S'9'
sg13
S'41'
p329
sg14
S'depotFile, depotRev'
p330
sg16
S'36'
p331
sg17
S'db.revbx'
p332
sg19
S'Rev'
p333
sg21
S'Revision records for archived files'
p334
stRp335
ag3
(g4
g5
(dp336
g12
S'9'
sg13
S'42'
p337
sg14
S'depotFile'
p338
sg16
S'37'
p339
sg17
S'db.revux'
p340
sg19
S'Rev'
p341
sg21
S'Revision records for unload depot files'
p342
stRp343
ag3
(g4
g5
(dp344
g12
S'10'
p345
sg13
S'43'
p346
sg14
S'clientFile'
p347
sg16
S'42'
p348
sg17
S'db.working'
p349
sg19
S'Working'
p350
sg21
S'Records for work in progress'
p351
stRp352
ag3
(g4
g5
(dp353
g12
S'10'
p354
sg13
S'44'
p355
sg14
S'clientFile'
p356
sg16
S'43'
p357
sg17
S'db.workingx'
p358
sg19
S'Working'
p359
sg21
S'Records for shelved open files'
p360
stRp361
ag3
(g4
g5
(dp362
g12
S'0'
sg13
S'45'
p363
sg14
S'traitLot, name'
p364
sg16
S'45'
p365
sg17
S'db.traits'
p366
sg19
S'Trait'
p367
sg21
S'Attributes associated with file revisions'
p368
stRp369
ag3
(g4
g5
(dp370
g12
S'3'
sg13
S'46'
p371
sg14
S'seq'
p372
sg16
S'46'
p373
sg17
S'db.trigger'
p374
sg19
S'Trigger'
p375
sg21
S'Trigger specifications'
p376
stRp377
ag3
(g4
g5
(dp378
g12
S'3'
sg13
S'47'
p379
sg14
S'change'
p380
sg16
S'47'
p381
sg17
S'db.change'
p382
sg19
S'Change'
p383
sg21
S'Changelists'
p384
stRp385
ag3
(g4
g5
(dp386
g14
S'change'
p387
sg16
S'48'
p388
sg17
S'db.changex'
p389
sg257
S'contains records for pending changelists only.'
p390
sg12
S'3'
sg13
S'48'
p391
sg19
S'Change'
p392
sg21
S'Subset of db.change - records for pending changelists only'
p393
stRp394
ag3
(g4
g5
(dp395
g12
S'1'
sg13
S'49'
p396
sg14
S'identity'
p397
sg16
S'49'
p398
sg17
S'db.changeidx'
p399
sg19
S'ChangeIdx'
p400
sg21
S'Secondary index of db.change/db.changex'
p401
stRp402
ag3
(g4
g5
(dp403
g12
S'0'
sg13
S'50'
p404
sg14
S'descKey'
p405
sg16
S'50'
p406
sg17
S'db.desc'
p407
sg19
S'Desc'
p408
sg21
S'Change descriptions'
p409
stRp410
ag3
(g4
g5
(dp411
g14
S'job'
p412
sg16
S'51'
p413
sg17
S'db.job'
p414
sg12
S'0'
sg13
S'51'
p415
sg173
S'db.bodtext'
p416
sg19
S'Job'
p417
sg21
S'Job records'
p418
stRp419
ag3
(g4
g5
(dp420
g14
S'job, change'
p421
sg16
S'52'
p422
sg17
S'db.fix'
p423
sg12
S'1'
sg13
S'52'
p424
sg173
S'db.fixrev'
p425
sg19
S'Fix'
p426
sg21
S'Fix records - indexed by job'
p427
stRp428
ag3
(g4
g5
(dp429
g14
S'change, job'
p430
sg16
S'53'
p431
sg17
S'db.fixrev'
p432
sg12
S'1'
sg13
S'53'
p433
sg173
S'db.fix'
p434
sg19
S'Fix'
p435
sg21
S'Fix records - indexed by change'
p436
stRp437
ag3
(g4
g5
(dp438
g12
S'1'
sg13
S'54'
p439
sg14
S'key, attr'
p440
sg16
S'54'
p441
sg17
S'db.bodtext'
p442
sg19
S'BodyText'
p443
sg21
S'Job data for job attributes'
p444
stRp445
ag3
(g4
g5
(dp446
g12
S'0'
sg13
S'55'
p447
sg14
S'word, attr, value'
p448
sg16
S'55'
p449
sg17
S'db.ixtext'
p450
sg19
S'IndexText'
p451
sg21
S'Indexing data for generic and job attributes'
p452
stRp453
ag3
(g4
g5
(dp454
g12
S'0'
sg13
S'56'
p455
sg14
S'word, attr, value'
p456
sg16
S'56'
p457
sg17
S'db.uxtext'
p458
sg19
S'IndexText'
p459
sg21
S'Indexing data for Swarm'
p460
stRp461
ag3
(g4
g5
(dp462
g12
S'4'
sg13
S'57'
p463
sg14
S'seq'
p464
sg16
S'57'
p465
sg17
S'db.protect'
p466
sg19
S'Protect'
p467
sg21
S'The protections table'
p468
stRp469
ag3
(g4
g5
(dp470
g12
S'0'
sg13
S'58'
p471
sg14
S'name, seq, type, scope'
p472
sg16
S'58'
p473
sg17
S'db.property'
p474
sg19
S'Property'
p475
sg21
S'Properties'
p476
stRp477
ag3
(g4
g5
(dp478
g12
S'0'
sg13
S'59'
p479
sg14
S'language, id'
p480
sg16
S'59'
p481
sg17
S'db.message'
p482
sg19
S'Message'
p483
sg21
S'System messages'
p484
stRp485
ag3
(g4
g5
(dp486
g12
S'1'
sg13
S'60'
p487
sg14
S'taskid, seq'
p488
sg16
S'60'
p489
sg17
S'db.sendq'
p490
sg19
S'SendQ'
p491
sg21
S'Parallel file transmission work queue'
p492
stRp493
ag3
(g4
g5
(dp494
g12
S'0'
sg13
S'61'
p495
sg14
S'id'
p496
sg16
S'61'
p497
sg17
S'db.jnlack'
p498
sg19
S'JnlAck'
p499
sg21
S'Tracks journal positions of all standby servers'
p500
stRp501
ag3
(g4
g5
(dp502
g12
S'2'
sg13
S'62'
p503
sg14
S'id'
p504
sg16
S'62'
p505
sg17
S'db.monitor'
p506
sg19
S'Monitor'
p507
sg21
S'Helix Server process information'
p508
stRp509
ag3
(g4
g5
(dp510
g19
S'ReplicaArchiveTransfer'
p511
sg17
S'rdb.lbr'
p512
sg21
S'Replica server pending archive transfer table'
p513
stRp514
ag3
(g4
g5
(dp515
g19
S'TinyDb'
p516
sg14
S'fileAndRev'
p517
sg17
S'tiny.db'
p518
sg21
S'Records revision and content data for files using the +T file type modifier'
p519
stRp520
atRp521
stRp522
sg12
S'2015.2'
p523
sS'numUpgrades'
p524
S'24'
p525
sS'recordtypes'
p526
g3
(g4
g5
(dp527
S'record'
p528
g3
(g8
g9
(lp529
g3
(g4
g5
(dp530
S'column'
p531
g3
(g8
g9
(lp532
g3
(g4
g5
(dp533
g19
S'File'
p534
sg17
S'lbrFile'
p535
sg21
S"Specifies the location in the librarian's archives where\n\t\t    the revision may be found"
p536
stRp537
ag3
(g4
g5
(dp538
g19
S'String'
p539
sg17
S'lbrRev'
p540
sg21
S"Revision in the librarian's archives"
p541
stRp542
ag3
(g4
g5
(dp543
g19
S'File'
p544
sg17
S'depotFile'
p545
sg21
S'Name of the file in the depot'
p546
stRp547
ag3
(g4
g5
(dp548
g19
S'Rev'
p549
sg17
S'depotRev'
p550
sg21
S'Name of the file in the depot'
p551
stRp552
ag3
(g4
g5
(dp553
g19
S'FileType'
p554
sg17
S'lbrType'
p555
sg21
S"File type for librarian's purposes"
p556
stRp557
atRp558
sg17
S'Archive'
p559
stRp560
ag3
(g4
g5
(dp561
g531
g3
(g8
g9
(lp562
g3
(g4
g5
(dp563
g19
S'File'
p564
sg17
S'lbrFile'
p565
sg21
S'Paths in the librarian namespace that recieve lazy\n\t\t    copies.'
p566
stRp567
ag3
(g4
g5
(dp568
g19
S'File'
p569
sg17
S'depotFile'
p570
sg21
S'Paths in the depot namespace that provide lazy copies.'
p571
stRp572
atRp573
sg17
S'ArchMap'
p574
stRp575
ag3
(g4
g5
(dp576
g531
g3
(g8
g9
(lp577
g3
(g4
g5
(dp578
g19
S'String'
p579
sg17
S'key'
p580
sg21
S'The job to which this attribute belongs'
p581
stRp582
ag3
(g4
g5
(dp583
g19
S'Int'
p584
sg17
S'attr'
p585
sg21
S'The attribute number (from the jobspec) of this attribute'
p586
stRp587
ag3
(g4
g5
(dp588
g19
S'Date'
p589
sg17
S'date'
p590
sg21
S'The date value itself'
p591
stRp592
atRp593
sg17
S'BodyDate'
p594
stRp595
ag3
(g4
g5
(dp596
g531
g3
(g8
g9
(lp597
g3
(g4
g5
(dp598
g19
S'String'
p599
sg17
S'key'
p600
sg21
S'The job to which this attribute belongs'
p601
stRp602
ag3
(g4
g5
(dp603
g19
S'Int'
p604
sg17
S'attr'
p605
sg21
S'The attribute number (from the jobspec) of this attribute'
p606
stRp607
ag3
(g4
g5
(dp608
g19
S'Int'
p609
sg17
S'isBulk'
p610
sg21
S'Indicates whether (1), or not (0) the field is a bulk\n\t\t    text field that should not be indexed.'
p611
stRp612
ag3
(g4
g5
(dp613
g19
S'Text'
p614
sg17
S'text'
p615
sg21
S'The attribute value'
p616
stRp617
atRp618
sg17
S'BodyText'
p619
stRp620
ag3
(g4
g5
(dp621
g531
g3
(g8
g9
(lp622
g3
(g4
g5
(dp623
g19
S'Change'
p624
sg17
S'change'
p625
sg21
S'The change number'
p626
stRp627
ag3
(g4
g5
(dp628
g19
S'Change'
p629
sg17
S'descKey'
p630
sg21
S"The description key. Normally the same as 'change', but\n\t\t    may differ if a changelist was renumbered on submission."
p631
stRp632
ag3
(g4
g5
(dp633
g19
S'Domain'
p634
sg17
S'client'
p635
sg21
S'The client from which the change originates'
p636
stRp637
ag3
(g4
g5
(dp638
g19
S'User'
p639
sg17
S'user'
p640
sg21
S'The user who owns the change'
p641
stRp642
ag3
(g4
g5
(dp643
g19
S'Date'
p644
sg17
S'date'
p645
sg21
S'Date and time the changelist was submitted'
p646
stRp647
ag3
(g4
g5
(dp648
g19
S'ChangeStatus'
p649
sg17
S'status'
p650
sg21
S'Status of the change'
p651
stRp652
ag3
(g4
g5
(dp653
g19
S'DescShort'
p654
sg17
S'description'
p655
sg21
S'Short description of the change.'
p656
stRp657
ag3
(g4
g5
(dp658
g19
S'Mapping'
p659
sg17
S'root'
p660
sg21
S'Common path for all files in the changelist'
p661
stRp662
ag3
(g4
g5
(dp663
g19
S'String'
p664
sg17
S'importer'
p665
sg21
S'The user who fetched or pushed this change to this server'
p666
stRp667
ag3
(g4
g5
(dp668
g19
S'String'
p669
sg17
S'identify'
p670
sg21
S'Identifier for this change'
p671
stRp672
atRp673
sg17
S'Change'
p674
stRp675
ag3
(g4
g5
(dp676
g531
g3
(g8
g9
(lp677
g3
(g4
g5
(dp678
g19
S'String'
p679
sg17
S'identity'
p680
sg21
S'Identifier for this change'
p681
stRp682
ag3
(g4
g5
(dp683
g19
S'Change'
p684
sg17
S'change'
p685
sg21
S'Changelist'
p686
stRp687
atRp688
sg17
S'ChangeIdx'
p689
stRp690
ag3
(g4
g5
(dp691
g531
g3
(g8
g9
(lp692
g3
(g4
g5
(dp693
g19
S'String'
p694
sg17
S'sname'
p695
sg21
S'Server name'
p696
stRp697
ag3
(g4
g5
(dp698
g19
S'String'
p699
sg17
S'name'
p700
sg21
S'Configuration variable name'
p701
stRp702
ag3
(g4
g5
(dp703
g19
S'Value'
p704
sg17
S'value'
p705
sg21
S'Configuration variable value'
p706
stRp707
atRp708
sg17
S'Config'
p709
stRp710
ag3
(g4
g5
(dp711
g531
g3
(g8
g9
(lp712
g3
(g4
g5
(dp713
g19
S'Counter'
p714
sg17
S'name'
p715
sg21
S'Counter name'
p716
stRp717
ag3
(g4
g5
(dp718
g19
S'Value'
p719
sg17
S'value'
p720
sg21
S'Counter value'
p721
stRp722
atRp723
sg17
S'Counters'
p724
stRp725
ag3
(g4
g5
(dp726
g531
g3
(g8
g9
(lp727
g3
(g4
g5
(dp728
g19
S'Domain'
p729
sg17
S'name'
p730
sg21
S'Depot name'
p731
stRp732
ag3
(g4
g5
(dp733
g19
S'DepotType'
p734
sg17
S'type'
p735
sg21
S'Type of depot'
p736
stRp737
ag3
(g4
g5
(dp738
g19
S'Text'
p739
sg17
S'extra'
p740
sg21
S'For remote depots, the P4PORT address of the remote server.\n\t\t    For spec depots, the field contains a suffix to append to \n\t\t    the filename.'
p741
stRp742
ag3
(g4
g5
(dp743
g19
S'Text'
p744
sg17
S'map'
p745
sg21
S"The depot's map (path translation information).  For local \n\t\t    depots, this will be a path relative to the root directory.\n\t\t    For remote depots, this will be specified in terms of the \n\t\t    remote server's namespace."
p746
stRp747
atRp748
sg17
S'Depot'
p749
stRp750
ag3
(g4
g5
(dp751
g531
g3
(g8
g9
(lp752
g3
(g4
g5
(dp753
g19
S'Change'
p754
sg17
S'descKey'
p755
sg21
S'Original number of the change to which this description\n\t\t    applies. This may differ from the final change number if\n\t\t    the change is renumbered on submission.'
p756
stRp757
ag3
(g4
g5
(dp758
g19
S'Text'
p759
sg17
S'description'
p760
sg21
S'The change description itself'
p761
stRp762
atRp763
sg17
S'Desc'
p764
stRp765
ag3
(g4
g5
(dp766
g531
g3
(g8
g9
(lp767
g3
(g4
g5
(dp768
g19
S'Domain'
p769
sg17
S'name'
p770
sg21
S'Domain name'
p771
stRp772
ag3
(g4
g5
(dp773
g19
S'DomainType'
p774
sg17
S'type'
p775
sg21
S'Type of domain'
p776
stRp777
ag3
(g4
g5
(dp778
g19
S'Text'
p779
sg17
S'extra'
p780
sg21
S'Formerly "host". Associated host or, for labels, revision \n\t\t    number.'
p781
stRp782
ag3
(g4
g5
(dp783
g19
S'Text'
p784
sg17
S'mount'
p785
sg21
S'The client root'
p786
stRp787
ag3
(g4
g5
(dp788
g19
S'Text'
p789
sg17
S'mount2'
p790
sg21
S'Alternate client root'
p791
stRp792
ag3
(g4
g5
(dp793
g19
S'Text'
p794
sg17
S'mount3'
p795
sg21
S'Alternate client root'
p796
stRp797
ag3
(g4
g5
(dp798
g19
S'User'
p799
sg17
S'owner'
p800
sg21
S'Name of user who owns the domain.'
p801
stRp802
ag3
(g4
g5
(dp803
g19
S'Date'
p804
sg17
S'updateDate'
p805
sg21
S'Date of last update to domain specification.'
p806
stRp807
ag3
(g4
g5
(dp808
g19
S'Date'
p809
sg17
S'accessDate'
p810
sg21
S'Date of last access to domain specification.'
p811
stRp812
ag3
(g4
g5
(dp813
g19
S'DomainOpts'
p814
sg17
S'options'
p815
sg21
S'Options for client, label, and branch domains.'
p816
stRp817
ag3
(g4
g5
(dp818
g19
S'Text'
p819
sg17
S'description'
p820
sg21
S'Description of domain.'
p821
stRp822
ag3
(g4
g5
(dp823
g19
S'Text'
p824
sg17
S'stream'
p825
sg21
S'Associated stream for client records'
p826
stRp827
ag3
(g4
g5
(dp828
g19
S'Text'
p829
sg17
S'serverid'
p830
sg21
S'Associated server ID for client records'
p831
stRp832
ag3
(g4
g5
(dp833
g19
S'Int'
p834
sg17
S'partition'
p835
sg21
S'Currently unused. Reserved for future use'
p836
stRp837
atRp838
sg17
S'Domain'
p839
stRp840
ag3
(g4
g5
(dp841
g531
g3
(g8
g9
(lp842
g3
(g4
g5
(dp843
g19
S'File'
p844
sg17
S'depotFile'
p845
sg21
S'The file locked'
p846
stRp847
ag3
(g4
g5
(dp848
g19
S'Domain'
p849
sg17
S'client'
p850
sg21
S'The client for which the file is locked'
p851
stRp852
ag3
(g4
g5
(dp853
g19
S'User'
p854
sg17
S'user'
p855
sg21
S'The user for which the file is locked'
p856
stRp857
atRp858
sg17
S'ExclusiveLock'
p859
stRp860
ag3
(g4
g5
(dp861
g531
g3
(g8
g9
(lp862
g3
(g4
g5
(dp863
g19
S'String'
p864
sg17
S'job'
p865
sg21
S'Job name'
p866
stRp867
ag3
(g4
g5
(dp868
g19
S'Change'
p869
sg17
S'change'
p870
sg21
S'Changelist number'
p871
stRp872
ag3
(g4
g5
(dp873
g19
S'Date'
p874
sg17
S'date'
p875
sg21
S'Date fix was recorded (may differ from date change was\n\t\t    submitted).'
p876
stRp877
ag3
(g4
g5
(dp878
g19
S'FixStatus'
p879
sg17
S'status'
p880
sg21
S'Status of the job'
p881
stRp882
ag3
(g4
g5
(dp883
g19
S'Domain'
p884
sg17
S'client'
p885
sg21
S'The client where the fix originated'
p886
stRp887
ag3
(g4
g5
(dp888
g19
S'User'
p889
sg17
S'user'
p890
sg21
S'The user who fixed the job'
p891
stRp892
atRp893
sg17
S'Fix'
p894
stRp895
ag3
(g4
g5
(dp896
g531
g3
(g8
g9
(lp897
g3
(g4
g5
(dp898
g19
S'User'
p899
sg17
S'user'
p900
sg21
S'User name'
p901
stRp902
ag3
(g4
g5
(dp903
g19
S'User'
p904
sg17
S'group'
p905
sg21
S'Group name'
p906
stRp907
ag3
(g4
g5
(dp908
g19
S'UserType'
p909
sg17
S'type'
p910
sg21
S'Type of user in this group.'
p911
stRp912
ag3
(g4
g5
(dp913
g19
S'MaxResults'
p914
sg17
S'maxResults'
p915
sg21
S'MaxResults setting for the group.'
p916
stRp917
ag3
(g4
g5
(dp918
g19
S'MaxScanRows'
p919
sg17
S'maxScanRows'
p920
sg21
S'MaxScanRows setting for the group.'
p921
stRp922
ag3
(g4
g5
(dp923
g19
S'MaxLockTime'
p924
sg17
S'maxLockTime'
p925
sg21
S'MaxLockTime setting for the group.'
p926
stRp927
ag3
(g4
g5
(dp928
g19
S'Int'
p929
sg17
S'timeout'
p930
sg21
S'Length of time (in seconds) a login ticket remains valid.'
p931
stRp932
ag3
(g4
g5
(dp933
g19
S'Int'
p934
sg17
S'passwordTimeout'
p935
sg21
S'Length of time (in seconds) a password remains valid for users in the group.'
p936
stRp937
atRp938
sg17
S'Group'
p939
stRp940
ag3
(g4
g5
(dp941
g531
g3
(g8
g9
(lp942
g3
(g4
g5
(dp943
g19
S'User'
p944
sg17
S'group'
p945
sg21
S'Group name'
p946
stRp947
ag3
(g4
g5
(dp948
g19
S'String'
p949
sg17
S'ldapConf'
p950
sg21
S"The LDAP configuration to use when populating the group's user list from an LDAP query"
p951
stRp952
ag3
(g4
g5
(dp953
g19
S'String'
p954
sg17
S'ldapSearchQuery'
p955
sg21
S'The LDAP query used to identify the members of the group'
p956
stRp957
ag3
(g4
g5
(dp958
g19
S'String'
p959
sg17
S'ldapUserAttribute'
p960
sg21
S"The LDAP attribute that represents the user's username"
p961
stRp962
atRp963
sg17
S'GroupX'
p964
stRp965
ag3
(g4
g5
(dp966
g531
g3
(g8
g9
(lp967
g3
(g4
g5
(dp968
g19
S'File'
p969
sg17
S'clientFile'
p970
sg21
S'The file in its location on the client'
p971
stRp972
ag3
(g4
g5
(dp973
g19
S'File'
p974
sg17
S'depotFile'
p975
sg21
S'The file in the depot'
p976
stRp977
ag3
(g4
g5
(dp978
g19
S'Rev'
p979
sg17
S'haveRev'
p980
sg21
S'The revision synced to the client'
p981
stRp982
ag3
(g4
g5
(dp983
g19
S'FileType'
p984
sg17
S'type'
p985
sg21
S'The filetype of the synced revision'
p986
stRp987
ag3
(g4
g5
(dp988
g19
S'Date'
p989
sg17
S'time'
p990
sg21
S'The sync time of the synced revision'
p991
stRp992
atRp993
sg17
S'Have'
p994
stRp995
ag3
(g4
g5
(dp996
g531
g3
(g8
g9
(lp997
g3
(g4
g5
(dp998
g19
S'Date'
p999
sg17
S'date'
p1000
sg21
S'Date value'
p1001
stRp1002
ag3
(g4
g5
(dp1003
g19
S'Int'
p1004
sg17
S'attr'
p1005
sg21
S'The attribute number (from the jobspec) to which this\n\t\t    date belongs'
p1006
stRp1007
ag3
(g4
g5
(dp1008
g19
S'String'
p1009
sg17
S'value'
p1010
sg21
S'A job name'
p1011
stRp1012
atRp1013
sg17
S'IndexDate'
p1014
stRp1015
ag3
(g4
g5
(dp1016
g531
g3
(g8
g9
(lp1017
g3
(g4
g5
(dp1018
g19
S'String'
p1019
sg17
S'word'
p1020
sg21
S'The word being indexed'
p1021
stRp1022
ag3
(g4
g5
(dp1023
g19
S'Int'
p1024
sg17
S'attr'
p1025
sg21
S'The attribute number to which this word belongs. For\n\t\t    job data, the attribute number from the jobspec.'
p1026
stRp1027
ag3
(g4
g5
(dp1028
g19
S'String'
p1029
sg17
S'value'
p1030
sg21
S'For job data, a job name. For generic data, the value\n\t\t    of the index keyed by the word.'
p1031
stRp1032
atRp1033
sg17
S'IndexText'
p1034
stRp1035
ag3
(g4
g5
(dp1036
g531
g3
(g8
g9
(lp1037
g3
(g4
g5
(dp1038
g19
S'File'
p1039
sg17
S'toFile'
p1040
sg21
S'File to which integration is being performed (target).'
p1041
stRp1042
ag3
(g4
g5
(dp1043
g19
S'File'
p1044
sg17
S'fromFile'
p1045
sg21
S'File from which integration is being performed (source).'
p1046
stRp1047
ag3
(g4
g5
(dp1048
g19
S'Rev'
p1049
sg17
S'startFromRev'
p1050
sg21
S'Starting revision of fromFile'
p1051
stRp1052
ag3
(g4
g5
(dp1053
g19
S'Rev'
p1054
sg17
S'endFromRev'
p1055
sg21
S'Ending revision of fromFile'
p1056
stRp1057
ag3
(g4
g5
(dp1058
g19
S'Rev'
p1059
sg17
S'toRev'
p1060
sg21
S'Revision of toFile into which integration is being \n\t\t    performed.'
p1061
stRp1062
ag3
(g4
g5
(dp1063
g19
S'IntegHow'
p1064
sg17
S'how'
p1065
sg21
S'Integration method: variations on \n\t\t    merge/branch/copy/ignore/delete.'
p1066
stRp1067
ag3
(g4
g5
(dp1068
g19
S'Int'
p1069
sg17
S'committed'
p1070
sg21
S'Flag: 0 for pending, 1 for committed.'
p1071
stRp1072
ag3
(g4
g5
(dp1073
g19
S'ResolvedStatus'
p1074
sg17
S'resolved'
p1075
sg21
S'Resolution method: unresolved, resolved manually, \n\t\t    or resolved as part of a branch or delete.'
p1076
stRp1077
ag3
(g4
g5
(dp1078
g19
S'Change'
p1079
sg17
S'change'
p1080
sg21
S'Changelist associated with the integration.'
p1081
stRp1082
atRp1083
sg17
S'Integ'
p1084
stRp1085
ag3
(g4
g5
(dp1086
g531
g3
(g8
g9
(lp1087
g3
(g4
g5
(dp1088
g19
S'File'
p1089
sg17
S'toFile'
p1090
sg21
S'File to which integration is being performed (target).'
p1091
stRp1092
ag3
(g4
g5
(dp1093
g19
S'File'
p1094
sg17
S'fromFile'
p1095
sg21
S'File from which integration is being performed (source).'
p1096
stRp1097
ag3
(g4
g5
(dp1098
g19
S'Rev'
p1099
sg17
S'startFromRev'
p1100
sg21
S'Starting revision of fromFile'
p1101
stRp1102
ag3
(g4
g5
(dp1103
g19
S'Rev'
p1104
sg17
S'endFromRev'
p1105
sg21
S'Ending revision of fromFile'
p1106
stRp1107
ag3
(g4
g5
(dp1108
g19
S'Rev'
p1109
sg17
S'startToRev'
p1110
sg21
S'Start revision of toFile into which integration was \n\t\t    performed.'
p1111
stRp1112
ag3
(g4
g5
(dp1113
g19
S'Rev'
p1114
sg17
S'endToRev'
p1115
sg21
S'End revision of toFile into which integration was \n\t\t    performed. Only varies from startToRev for reverse \n\t\t    integration records.'
p1116
stRp1117
ag3
(g4
g5
(dp1118
g19
S'IntegHow'
p1119
sg17
S'how'
p1120
sg21
S'Integration method: variations on \n\t\t    merge/branch/copy/ignore/delete.'
p1121
stRp1122
ag3
(g4
g5
(dp1123
g19
S'Change'
p1124
sg17
S'change'
p1125
sg21
S'Changelist associated with the integration.'
p1126
stRp1127
atRp1128
sg17
S'Integed'
p1129
stRp1130
ag3
(g4
g5
(dp1131
g531
g3
(g8
g9
(lp1132
g3
(g4
g5
(dp1133
g19
S'Domain'
p1134
sg17
S'serverId'
p1135
sg21
S'The serverId of the standby for whom this record applies'
p1136
stRp1137
ag3
(g4
g5
(dp1138
g19
S'Date'
p1139
sg17
S'lastUpdate'
p1140
sg21
S'The date and time of last update'
p1141
stRp1142
ag3
(g4
g5
(dp1143
g19
S'ServerServiceType'
p1144
sg17
S'serverType'
p1145
sg21
S'The server services offered by this standby'
p1146
stRp1147
ag3
(g4
g5
(dp1148
g19
S'Int'
p1149
sg17
S'persistedJnl'
p1150
sg21
S'The last journal number persisted by this standby'
p1151
stRp1152
ag3
(g4
g5
(dp1153
g19
S'Int64'
p1154
sg17
S'persistedPos'
p1155
sg21
S'The last journal position persisted by this standby'
p1156
stRp1157
ag3
(g4
g5
(dp1158
g19
S'Int'
p1159
sg17
S'isAlive'
p1160
sg21
S'1 = alive'
p1161
stRp1162
ag3
(g4
g5
(dp1163
g19
S'Int'
p1164
sg17
S'appliedJnl'
p1165
sg21
S'The last journal number applied to this standby'
p1166
stRp1167
ag3
(g4
g5
(dp1168
g19
S'Int64'
p1169
sg17
S'appliedPos'
p1170
sg21
S'The last journal position applied to this standby'
p1171
stRp1172
atRp1173
sg17
S'JnlAck'
p1174
stRp1175
ag3
(g4
g5
(dp1176
g531
g3
(g8
g9
(lp1177
g3
(g4
g5
(dp1178
g19
S'String'
p1179
sg17
S'job'
p1180
sg21
S'The job name'
p1181
stRp1182
ag3
(g4
g5
(dp1183
g19
S'User'
p1184
sg17
S'xuser'
p1185
sg21
S'User name: defunct'
p1186
stRp1187
ag3
(g4
g5
(dp1188
g19
S'Date'
p1189
sg17
S'xdate'
p1190
sg21
S'The date: defunct'
p1191
stRp1192
ag3
(g4
g5
(dp1193
g19
S'JobStat'
p1194
sg17
S'xstatus'
p1195
sg21
S'Job status: defunct'
p1196
stRp1197
ag3
(g4
g5
(dp1198
g19
S'DescShort'
p1199
sg17
S'description'
p1200
sg21
S'Short description'
p1201
stRp1202
atRp1203
sg17
S'Job'
p1204
stRp1205
ag3
(g4
g5
(dp1206
g531
g3
(g8
g9
(lp1207
g3
(g4
g5
(dp1208
g19
S'String'
p1209
sg17
S'xjob'
p1210
sg21
S'The job name'
p1211
stRp1212
ag3
(g4
g5
(dp1213
g19
S'Text'
p1214
sg17
S'xdescription'
p1215
sg21
S'Jobdescription'
p1216
stRp1217
atRp1218
sg17
S'JobDesc'
p1219
stRp1220
ag3
(g4
g5
(dp1221
g531
g3
(g8
g9
(lp1222
g3
(g4
g5
(dp1223
g19
S'Key'
p1224
sg17
S'name'
p1225
sg21
S'Key name'
p1226
stRp1227
ag3
(g4
g5
(dp1228
g19
S'Value'
p1229
sg17
S'value'
p1230
sg21
S'Key value'
p1231
stRp1232
atRp1233
sg17
S'Keys'
p1234
stRp1235
ag3
(g4
g5
(dp1236
g531
g3
(g8
g9
(lp1237
g3
(g4
g5
(dp1238
g19
S'Domain'
p1239
sg17
S'name'
p1240
sg21
S'Name of the label'
p1241
stRp1242
ag3
(g4
g5
(dp1243
g19
S'File'
p1244
sg17
S'depotFile'
p1245
sg21
S'File name'
p1246
stRp1247
ag3
(g4
g5
(dp1248
g19
S'Rev'
p1249
sg17
S'haveRev'
p1250
sg21
S'The revision of the file in the label'
p1251
stRp1252
atRp1253
sg17
S'Label'
p1254
stRp1255
ag3
(g4
g5
(dp1256
g531
g3
(g8
g9
(lp1257
g3
(g4
g5
(dp1258
g19
S'String'
p1259
sg17
S'name'
p1260
sg21
S'The LDAP configuration name'
p1261
stRp1262
ag3
(g4
g5
(dp1263
g19
S'String'
p1264
sg17
S'host'
p1265
sg21
S'The FQDN of the directory server'
p1266
stRp1267
ag3
(g4
g5
(dp1268
g19
S'String'
p1269
sg17
S'port'
p1270
sg21
S'The port number on which to connect to the directory server'
p1271
stRp1272
ag3
(g4
g5
(dp1273
g19
S'String'
p1274
sg17
S'ssl'
p1275
sg21
S"The encryption method to use when connecting to the The FQDN of the directory server.\n\t\t\tOptions are: 'none', 'ssl' and 'tls'"
p1276
stRp1277
ag3
(g4
g5
(dp1278
g19
S'String'
p1279
sg17
S'type'
p1280
sg21
S"The bind method to use with this directory.  Options are: 'simple', 'search' and 'sasl'."
p1281
stRp1282
ag3
(g4
g5
(dp1283
g19
S'String'
p1284
sg17
S'pattern'
p1285
sg21
S"The DN used to bind against to validate the user's credentials."
p1286
stRp1287
ag3
(g4
g5
(dp1288
g19
S'String'
p1289
sg17
S'basedn'
p1290
sg21
S'The DN from which to start the search for the user object'
p1291
stRp1292
ag3
(g4
g5
(dp1293
g19
S'String'
p1294
sg17
S'filter'
p1295
sg21
S'The LDAP query filter to use to identify the user object which will be used to bind against'
p1296
stRp1297
ag3
(g4
g5
(dp1298
g19
S'String'
p1299
sg17
S'scope'
p1300
sg21
S'The scope to use when searching for the user records. Options are:\n                 0 = baseonly - Just the BaseDN object\n                 1 = children - The BaseDN and its direct children\n                 2 = subtree - The BaseDN and all objects below it'
p1301
stRp1302
ag3
(g4
g5
(dp1303
g19
S'String'
p1304
sg17
S'binddn'
p1305
sg21
S'The DN to bind against in order to search the directory'
p1306
stRp1307
ag3
(g4
g5
(dp1308
g19
S'String'
p1309
sg17
S'bindpass'
p1310
sg21
S'The password for the BindDN record'
p1311
stRp1312
ag3
(g4
g5
(dp1313
g19
S'String'
p1314
sg17
S'realm'
p1315
sg21
S'The optional realm to use when authenticating the user via SASL'
p1316
stRp1317
ag3
(g4
g5
(dp1318
g19
S'String'
p1319
sg17
S'grpbasedn'
p1320
sg21
S'The search base for performing the group search. If unset this will default to the SearchBaseDN'
p1321
stRp1322
ag3
(g4
g5
(dp1323
g19
S'String'
p1324
sg17
S'grpfilter'
p1325
sg21
S'The filter to use for the group search'
p1326
stRp1327
ag3
(g4
g5
(dp1328
g19
S'String'
p1329
sg17
S'grpscope'
p1330
sg21
S'The scope to use when performing the group search.Options are:\n \t\t\t\t0 = baseonly - Just the BaseDN object\n\t\t\t\t1 = children - The BaseDN and its direct children\n\t\t\t\t2 = subtree - The BaseDN and all objects below it'
p1331
stRp1332
ag3
(g4
g5
(dp1333
g19
S'String'
p1334
sg17
S'options'
p1335
sg21
S'LDAP Options: [no]downcase [no]getattrs [no]realminusername'
p1336
stRp1337
ag3
(g4
g5
(dp1338
g19
S'String'
p1339
sg17
S'attruid'
p1340
sg21
S"The name of the attribute in the directory's user records that contain the users' UIDs"
p1341
stRp1342
ag3
(g4
g5
(dp1343
g19
S'String'
p1344
sg17
S'attremail'
p1345
sg21
S"The name of the attribute in the directory's user records that contain the users' email addresses."
p1346
stRp1347
ag3
(g4
g5
(dp1348
g19
S'String'
p1349
sg17
S'attrename'
p1350
sg21
S"The name(s) of the attribute(s) in the directory's user records that contain the users' full names."
p1351
stRp1352
atRp1353
sg17
S'Ldap'
p1354
stRp1355
ag3
(g4
g5
(dp1356
g531
g3
(g8
g9
(lp1357
g3
(g4
g5
(dp1358
g19
S'File'
p1359
sg17
S'depotFile'
p1360
sg21
S'File in depot'
p1361
stRp1362
ag3
(g4
g5
(dp1363
g19
S'Domain'
p1364
sg17
S'client'
p1365
sg21
S'Domain (client) in which file is open'
p1366
stRp1367
ag3
(g4
g5
(dp1368
g19
S'User'
p1369
sg17
S'user'
p1370
sg21
S'User who presently has the file open'
p1371
stRp1372
ag3
(g4
g5
(dp1373
g19
S'Action'
p1374
sg17
S'action'
p1375
sg21
S'Action file is open for: add, edit, delete, branch,\n\t\t    integrate, or import'
p1376
stRp1377
ag3
(g4
g5
(dp1378
g19
S'Int'
p1379
sg17
S'isLocked'
p1380
sg21
S'Flag: 0 for unlocked, 1 for locked'
p1381
stRp1382
ag3
(g4
g5
(dp1383
g19
S'Int'
p1384
sg17
S'change'
p1385
sg21
S'Changelist in which the revision is open: 0 for the\n\t\t    default changelist'
p1386
stRp1387
atRp1388
sg17
S'Locks'
p1389
stRp1390
ag3
(g4
g5
(dp1391
g531
g3
(g8
g9
(lp1392
g3
(g4
g5
(dp1393
g19
S'Int'
p1394
sg17
S'seq'
p1395
sg21
S'Sequence number of event'
p1396
stRp1397
ag3
(g4
g5
(dp1398
g19
S'String'
p1399
sg17
S'key'
p1400
sg21
S"Either the word 'change' or the word 'job'"
p1401
stRp1402
ag3
(g4
g5
(dp1403
g19
S'String'
p1404
sg17
S'attr'
p1405
sg21
S'The number of the change, or name of the job that was \n\t\t    altered.'
p1406
stRp1407
atRp1408
sg17
S'Logger'
p1409
stRp1410
ag3
(g4
g5
(dp1411
g531
g3
(g8
g9
(lp1412
g3
(g4
g5
(dp1413
g19
S'String'
p1414
sg17
S'language'
p1415
sg21
S'The language for which this message applies'
p1416
stRp1417
ag3
(g4
g5
(dp1418
g19
S'Int'
p1419
sg17
S'id'
p1420
sg21
S'The message number'
p1421
stRp1422
ag3
(g4
g5
(dp1423
g19
S'String'
p1424
sg17
S'message'
p1425
sg21
S'The message text'
p1426
stRp1427
atRp1428
sg17
S'Message'
p1429
stRp1430
ag3
(g4
g5
(dp1431
g531
g3
(g8
g9
(lp1432
g3
(g4
g5
(dp1433
g19
S'Int'
p1434
sg17
S'id'
p1435
sg21
S'Thread/process id'
p1436
stRp1437
ag3
(g4
g5
(dp1438
g19
S'User'
p1439
sg17
S'user'
p1440
sg21
S'Username of the user running the command'
p1441
stRp1442
ag3
(g4
g5
(dp1443
g19
S'String'
p1444
sg17
S'function'
p1445
sg21
S'The command being executed.'
p1446
stRp1447
ag3
(g4
g5
(dp1448
g19
S'String'
p1449
sg17
S'args'
p1450
sg21
S'Arguments passed to the command'
p1451
stRp1452
ag3
(g4
g5
(dp1453
g19
S'Date'
p1454
sg17
S'startDate'
p1455
sg21
S'The date and time the command started'
p1456
stRp1457
ag3
(g4
g5
(dp1458
g19
S'Int'
p1459
sg17
S'runstate'
p1460
sg21
S'Flag: 0 for running, 1 for terminated, 2 for paused'
p1461
stRp1462
ag3
(g4
g5
(dp1463
g19
S'Domain'
p1464
sg17
S'client'
p1465
sg21
S'The client workspace'
p1466
stRp1467
ag3
(g4
g5
(dp1468
g19
S'Text'
p1469
sg17
S'host'
p1470
sg21
S'The IP address of the client'
p1471
stRp1472
ag3
(g4
g5
(dp1473
g19
S'Text'
p1474
sg17
S'prog'
p1475
sg21
S'The name (and version) of the client program'
p1476
stRp1477
ag3
(g4
g5
(dp1478
g19
S'Text'
p1479
sg17
S'lockInfo'
p1480
sg21
S'Table locking information for command'
p1481
stRp1482
atRp1483
sg17
S'Monitor'
p1484
stRp1485
ag3
(g4
g5
(dp1486
g531
g3
(g8
g9
(lp1487
g3
(g4
g5
(dp1488
g19
S'String'
p1489
sg17
S'name'
p1490
sg21
S'The property name'
p1491
stRp1492
ag3
(g4
g5
(dp1493
g19
S'String'
p1494
sg17
S'sequence'
p1495
sg21
S'Sequence number of property'
p1496
stRp1497
ag3
(g4
g5
(dp1498
g19
S'Int'
p1499
sg17
S'type'
p1500
sg21
S"1=user, 2=group; set if '-u | -g' option used with 'p4 property'"
p1501
stRp1502
ag3
(g4
g5
(dp1503
g19
S'String'
p1504
sg17
S'scope'
p1505
sg21
S'The user or group the property applies to'
p1506
stRp1507
ag3
(g4
g5
(dp1508
g19
S'String'
p1509
sg17
S'value'
p1510
sg21
S'The property value'
p1511
stRp1512
ag3
(g4
g5
(dp1513
g19
S'String'
p1514
sg17
S'date'
p1515
sg21
S'The date/time the property was last updated'
p1516
stRp1517
ag3
(g4
g5
(dp1518
g19
S'String'
p1519
sg17
S'user'
p1520
sg21
S'The user that last modified the property'
p1521
stRp1522
atRp1523
sg17
S'Property'
p1524
stRp1525
ag3
(g4
g5
(dp1526
g531
g3
(g8
g9
(lp1527
g3
(g4
g5
(dp1528
g19
S'Int'
p1529
sg17
S'seq'
p1530
sg21
S'Sequence number: for ordering the protections table'
p1531
stRp1532
ag3
(g4
g5
(dp1533
g19
S'Int'
p1534
sg17
S'isGroup'
p1535
sg21
S'Flag: 0 for a per-user setting, 1 for a per-group setting.'
p1536
stRp1537
ag3
(g4
g5
(dp1538
g19
S'UserWild'
p1539
sg17
S'user'
p1540
sg21
S'User(s), or Group(s) for whom this record applies.'
p1541
stRp1542
ag3
(g4
g5
(dp1543
g19
S'DomainWild'
p1544
sg17
S'host'
p1545
sg21
S'Domain(s) (IP addresses) for which this record applies.'
p1546
stRp1547
ag3
(g4
g5
(dp1548
g19
S'Perm'
p1549
sg17
S'perm'
p1550
sg21
S'Permissions to be granted/revoked'
p1551
stRp1552
ag3
(g4
g5
(dp1553
g19
S'MapFlag'
p1554
sg17
S'mapFlag'
p1555
sg21
S'Flag: Map the files in or out?'
p1556
stRp1557
ag3
(g4
g5
(dp1558
g19
S'Mapping'
p1559
sg17
S'depotFile'
p1560
sg21
S'Files to be mapped in or out.'
p1561
stRp1562
atRp1563
sg17
S'Protect'
p1564
stRp1565
ag3
(g4
g5
(dp1566
g531
g3
(g8
g9
(lp1567
g3
(g4
g5
(dp1568
g19
S'RemoteID'
p1569
sg17
S'id'
p1570
sg21
S'The remote identifier'
p1571
stRp1572
ag3
(g4
g5
(dp1573
g19
S'User'
p1574
sg17
S'owner'
p1575
sg21
S'The user who creatd this remote'
p1576
stRp1577
ag3
(g4
g5
(dp1578
g19
S'Int'
p1579
sg17
S'options'
p1580
sg21
S'Remote options: 0: unlocked/nocompress, 1: locked/nocompress, 2: unlocked/compress, 4: locked/compress'
p1581
stRp1582
ag3
(g4
g5
(dp1583
g19
S'Text'
p1584
sg17
S'address'
p1585
sg21
S'The P4PORT used by the remote server'
p1586
stRp1587
ag3
(g4
g5
(dp1588
g19
S'Text'
p1589
sg17
S'desc'
p1590
sg21
S'Description of the remote server'
p1591
stRp1592
ag3
(g4
g5
(dp1593
g19
S'Date'
p1594
sg17
S'update'
p1595
sg21
S'The date this specification was last modfied'
p1596
stRp1597
ag3
(g4
g5
(dp1598
g19
S'Date'
p1599
sg17
S'access'
p1600
sg21
S'The date of the last push/fetch on this remote'
p1601
stRp1602
ag3
(g4
g5
(dp1603
g19
S'Change'
p1604
sg17
S'fetch'
p1605
sg21
S'The last changelist that was fetched'
p1606
stRp1607
ag3
(g4
g5
(dp1608
g19
S'Change'
p1609
sg17
S'push'
p1610
sg21
S'The last changelist that was pushed'
p1611
stRp1612
ag3
(g4
g5
(dp1613
g19
S'User'
p1614
sg17
S'rmtuser'
p1615
sg21
S'The user to use when connecting to the remote server'
p1616
stRp1617
atRp1618
sg17
S'Remote'
p1619
stRp1620
ag3
(g4
g5
(dp1621
g531
g3
(g8
g9
(lp1622
g3
(g4
g5
(dp1623
g19
S'File'
p1624
sg17
S'depotFile'
p1625
sg21
S'The file name'
p1626
stRp1627
ag3
(g4
g5
(dp1628
g19
S'String'
p1629
sg17
S'lbrRev'
p1630
sg21
S'The librarian revision'
p1631
stRp1632
ag3
(g4
g5
(dp1633
g19
S'String'
p1634
sg17
S'type'
p1635
sg21
S'The file type of the revision'
p1636
stRp1637
ag3
(g4
g5
(dp1638
g19
S'PullStatus'
p1639
sg17
S'status'
p1640
sg21
S'The status of the archive transfer'
p1641
stRp1642
ag3
(g4
g5
(dp1643
g19
S'Action'
p1644
sg17
S'action'
p1645
sg21
S'The action that created the revision'
p1646
stRp1647
ag3
(g4
g5
(dp1648
g19
S'Digest'
p1649
sg17
S'digest'
p1650
sg21
S'The MD5 digest of the revision'
p1651
stRp1652
ag3
(g4
g5
(dp1653
g19
S'FileSize'
p1654
sg17
S'size'
p1655
sg21
S'The size of the file in bytes'
p1656
stRp1657
ag3
(g4
g5
(dp1658
g19
S'Change'
p1659
sg17
S'change'
p1660
sg21
S'The changelist that created the revision'
p1661
stRp1662
ag3
(g4
g5
(dp1663
g19
S'Date'
p1664
sg17
S'lbrDate'
p1665
sg21
S'Librarian date'
p1666
stRp1667
ag3
(g4
g5
(dp1668
g19
S'Date'
p1669
sg17
S'lbrModTime'
p1670
sg21
S'Librarian modtime'
p1671
stRp1672
ag3
(g4
g5
(dp1673
g19
S'Int'
p1674
sg17
S'pid'
p1675
sg21
S'The process id (PID) of the pull process'
p1676
stRp1677
ag3
(g4
g5
(dp1678
g19
S'Date'
p1679
sg17
S'requestTime'
p1680
sg21
S'Pull request time'
p1681
stRp1682
ag3
(g4
g5
(dp1683
g19
S'Int'
p1684
sg17
S'retries'
p1685
sg21
S'The number of retries that have occurred after transfer error'
p1686
stRp1687
ag3
(g4
g5
(dp1688
g19
S'String'
p1689
sg17
S'transferError'
p1690
sg21
S'The error message for a failed transfer'
p1691
stRp1692
atRp1693
sg17
S'ReplicaArchiveTransfer'
p1694
stRp1695
ag3
(g4
g5
(dp1696
g531
g3
(g8
g9
(lp1697
g3
(g4
g5
(dp1698
g19
S'File'
p1699
sg17
S'toFile'
p1700
sg21
S'File to which integration is being performed (target).'
p1701
stRp1702
ag3
(g4
g5
(dp1703
g19
S'File'
p1704
sg17
S'fromFile'
p1705
sg21
S'File from which integration is being performed (source).'
p1706
stRp1707
ag3
(g4
g5
(dp1708
g19
S'Rev'
p1709
sg17
S'startFromRev'
p1710
sg21
S'Starting revision of fromFile'
p1711
stRp1712
ag3
(g4
g5
(dp1713
g19
S'Rev'
p1714
sg17
S'endFromRev'
p1715
sg21
S'Ending revision of fromFile'
p1716
stRp1717
ag3
(g4
g5
(dp1718
g19
S'Rev'
p1719
sg17
S'startToRev'
p1720
sg21
S'Start revision of toFile into which integration was \n\t\t    performed.'
p1721
stRp1722
ag3
(g4
g5
(dp1723
g19
S'Rev'
p1724
sg17
S'endToRev'
p1725
sg21
S'End revision of toFile into which integration was \n\t\t    performed. Only varies from startToRev for reverse \n\t\t    integration records.'
p1726
stRp1727
ag3
(g4
g5
(dp1728
g19
S'IntegHow'
p1729
sg17
S'how'
p1730
sg21
S'Integration method: variations on \n\t\t    merge/branch/copy/ignore/delete.'
p1731
stRp1732
ag3
(g4
g5
(dp1733
g19
S'ResolveState'
p1734
sg17
S'state'
p1735
sg21
S'How the user performed the resolve.'
p1736
stRp1737
ag3
(g4
g5
(dp1738
g19
S'File'
p1739
sg17
S'baseFile'
p1740
sg21
S'File used as the base for merging.'
p1741
stRp1742
ag3
(g4
g5
(dp1743
g19
S'Rev'
p1744
sg17
S'baseRev'
p1745
sg21
S'Revision of baseFile used as the merge base.'
p1746
stRp1747
atRp1748
sg17
S'Resolve'
p1749
stRp1750
ag3
(g4
g5
(dp1751
g531
g3
(g8
g9
(lp1752
g3
(g4
g5
(dp1753
g19
S'File'
p1754
sg17
S'depotFile'
p1755
sg21
S'The file name'
p1756
stRp1757
ag3
(g4
g5
(dp1758
g19
S'Rev'
p1759
sg17
S'depotRev'
p1760
sg21
S'The revision number'
p1761
stRp1762
ag3
(g4
g5
(dp1763
g19
S'FileType'
p1764
sg17
S'type'
p1765
sg21
S'The file type of the revision'
p1766
stRp1767
ag3
(g4
g5
(dp1768
g19
S'Action'
p1769
sg17
S'action'
p1770
sg21
S'The action that created the revision'
p1771
stRp1772
ag3
(g4
g5
(dp1773
g19
S'Change'
p1774
sg17
S'change'
p1775
sg21
S'The changelist that created the revision'
p1776
stRp1777
ag3
(g4
g5
(dp1778
g19
S'Date'
p1779
sg17
S'date'
p1780
sg21
S'The date/time the changelist that created the revision\n\t\t    was submitted'
p1781
stRp1782
ag3
(g4
g5
(dp1783
g19
S'Date'
p1784
sg17
S'modTime'
p1785
sg21
S"The timestamp on the file in the user's workspace when\n\t\t    the revision was submitted."
p1786
stRp1787
ag3
(g4
g5
(dp1788
g19
S'Digest'
p1789
sg17
S'digest'
p1790
sg21
S'The MD5 digest of the revision.'
p1791
stRp1792
ag3
(g4
g5
(dp1793
g19
S'FileSize'
p1794
sg17
S'size'
p1795
sg21
S'The size of the file in bytes'
p1796
stRp1797
ag3
(g4
g5
(dp1798
g19
S'TraitLot'
p1799
sg17
S'traitLot'
p1800
sg21
S'Group of traits (attributes) associated with the revision.'
p1801
stRp1802
ag3
(g4
g5
(dp1803
g19
S'RevStatus'
p1804
sg17
S'lbrIsLazy'
p1805
sg21
S'Specifies whether or not the revision gets its content from \n\t  \t    another file (lazy copy), data about promotion of revision\n\t \t    content from task streams, and data about revision charset \n            information.'
p1806
stRp1807
ag3
(g4
g5
(dp1808
g19
S'File'
p1809
sg17
S'lbrFile'
p1810
sg21
S"Filename for librarian's purposes.  Specifies location in \n\t\t    the archives where the file containing the revision may\n\t\t    be found. Usually the same as depotFile, but differs in\n\t\t    the case of branched/copied revisions."
p1811
stRp1812
ag3
(g4
g5
(dp1813
g19
S'String'
p1814
sg17
S'lbrRev'
p1815
sg21
S'The revision of lbrFile that contains the revision content.'
p1816
stRp1817
ag3
(g4
g5
(dp1818
g19
S'FileType'
p1819
sg17
S'lbrType'
p1820
sg21
S'The file type of the librarian revision. Usually the same\n\t\t    as type, but differs in the case of branched/copied \n\t\t    revisions.'
p1821
stRp1822
atRp1823
sg17
S'Rev'
p1824
stRp1825
ag3
(g4
g5
(dp1826
g531
g3
(g8
g9
(lp1827
g3
(g4
g5
(dp1828
g19
S'Change'
p1829
sg17
S'change'
p1830
sg21
S'The changelist that created the revision'
p1831
stRp1832
ag3
(g4
g5
(dp1833
g19
S'File'
p1834
sg17
S'depotFile'
p1835
sg21
S'The file name'
p1836
stRp1837
ag3
(g4
g5
(dp1838
g19
S'Rev'
p1839
sg17
S'depotRev'
p1840
sg21
S'The revision number'
p1841
stRp1842
ag3
(g4
g5
(dp1843
g19
S'Action'
p1844
sg17
S'action'
p1845
sg21
S'The action that created the revision'
p1846
stRp1847
atRp1848
sg17
S'RevCx'
p1849
stRp1850
ag3
(g4
g5
(dp1851
g531
g3
(g8
g9
(lp1852
g3
(g4
g5
(dp1853
g19
S'User'
p1854
sg17
S'user'
p1855
sg21
S'A user name'
p1856
stRp1857
ag3
(g4
g5
(dp1858
g19
S'Int'
p1859
sg17
S'seq'
p1860
sg21
S'Sequence number: used for ordering multi-line views'
p1861
stRp1862
ag3
(g4
g5
(dp1863
g19
S'MapFlag'
p1864
sg17
S'mapFlag'
p1865
sg21
S'Type of mapping'
p1866
stRp1867
ag3
(g4
g5
(dp1868
g19
S'Mapping'
p1869
sg17
S'depotFile'
p1870
sg21
S'The files to be reviewed'
p1871
stRp1872
ag3
(g4
g5
(dp1873
g19
S'Reviewer'
p1874
sg17
S'type'
p1875
sg21
S'Type of reviewer'
p1876
stRp1877
atRp1878
sg17
S'Review'
p1879
stRp1880
ag3
(g4
g5
(dp1881
g531
g3
(g8
g9
(lp1882
g3
(g4
g5
(dp1883
g19
S'RemoteID'
p1884
sg17
S'id'
p1885
sg21
S'Remote name'
p1886
stRp1887
ag3
(g4
g5
(dp1888
g19
S'Int'
p1889
sg17
S'seq'
p1890
sg21
S'Sequence number: for ordering multi-line views'
p1891
stRp1892
ag3
(g4
g5
(dp1893
g19
S'MapFlag'
p1894
sg17
S'mapFlag'
p1895
sg21
S'Type of mapping'
p1896
stRp1897
ag3
(g4
g5
(dp1898
g19
S'Mapping'
p1899
sg17
S'localFile'
p1900
sg21
S'Local file'
p1901
stRp1902
ag3
(g4
g5
(dp1903
g19
S'Mapping'
p1904
sg17
S'remoteFile'
p1905
sg21
S'Remote file'
p1906
stRp1907
atRp1908
sg17
S'RmtView'
p1909
stRp1910
ag3
(g4
g5
(dp1911
g531
g3
(g8
g9
(lp1912
g3
(g4
g5
(dp1913
g19
S'Int'
p1914
sg17
S'taskID'
p1915
sg21
S'The process id (PID) of the sync'
p1916
stRp1917
ag3
(g4
g5
(dp1918
g19
S'Int'
p1919
sg17
S'seq'
p1920
sg21
S'Sequence number'
p1921
stRp1922
ag3
(g4
g5
(dp1923
g19
S'Text'
p1924
sg17
S'handle'
p1925
sg21
S'Handle'
p1926
stRp1927
ag3
(g4
g5
(dp1928
g19
S'File'
p1929
sg17
S'depotFile'
p1930
sg21
S'The file in the depot'
p1931
stRp1932
ag3
(g4
g5
(dp1933
g19
S'File'
p1934
sg17
S'clientFile'
p1935
sg21
S'The file in its location on the client'
p1936
stRp1937
ag3
(g4
g5
(dp1938
g19
S'Rev'
p1939
sg17
S'haveRev'
p1940
sg21
S'Have revision'
p1941
stRp1942
ag3
(g4
g5
(dp1943
g19
S'FileType'
p1944
sg17
S'type'
p1945
sg21
S'File type'
p1946
stRp1947
ag3
(g4
g5
(dp1948
g19
S'Date'
p1949
sg17
S'modtime'
p1950
sg21
S'Modification time'
p1951
stRp1952
ag3
(g4
g5
(dp1953
g19
S'Digest'
p1954
sg17
S'digest'
p1955
sg21
S'The MD5 digest of the revision'
p1956
stRp1957
ag3
(g4
g5
(dp1958
g19
S'FileSize'
p1959
sg17
S'size'
p1960
sg21
S'The size of the file in bytes'
p1961
stRp1962
ag3
(g4
g5
(dp1963
g19
S'File'
p1964
sg17
S'lbrFile'
p1965
sg21
S'Librarian filename'
p1966
stRp1967
ag3
(g4
g5
(dp1968
g19
S'LbrRev'
p1969
sg17
S'lbrRev'
p1970
sg21
S'The revision of lbrFile that contains the revision content'
p1971
stRp1972
ag3
(g4
g5
(dp1973
g19
S'FileType'
p1974
sg17
S'lbrType'
p1975
sg21
S'The file type of the librarian revision'
p1976
stRp1977
ag3
(g4
g5
(dp1978
g19
S'Int'
p1979
sg17
S'flags'
p1980
sg21
S'Flags'
p1981
stRp1982
ag3
(g4
g5
(dp1983
g19
S'FileType'
p1984
sg17
S'clientType'
p1985
sg21
S'The client file type of the revision'
p1986
stRp1987
atRp1988
sg17
S'SendQ'
p1989
stRp1990
ag3
(g4
g5
(dp1991
g531
g3
(g8
g9
(lp1992
g3
(g4
g5
(dp1993
g19
S'Text'
p1994
sg17
S'id'
p1995
sg21
S'The server identifier'
p1996
stRp1997
ag3
(g4
g5
(dp1998
g19
S'ServerType'
p1999
sg17
S'type'
p2000
sg21
S'The server type: server/broker/proxy'
p2001
stRp2002
ag3
(g4
g5
(dp2003
g19
S'Text'
p2004
sg17
S'name'
p2005
sg21
S'The P4NAME used by this server'
p2006
stRp2007
ag3
(g4
g5
(dp2008
g19
S'Text'
p2009
sg17
S'address'
p2010
sg21
S'The P4PORT used by this server'
p2011
stRp2012
ag3
(g4
g5
(dp2013
g19
S'Text'
p2014
sg17
S'externalAddress'
p2015
sg21
S'For an edge server, this optional field contains its external address for connections from the commit server. This field is required for federated parallel submit.'
p2016
stRp2017
ag3
(g4
g5
(dp2018
g19
S'ServerServiceType'
p2019
sg17
S'services'
p2020
sg21
S'Service provided by this server'
p2021
stRp2022
ag3
(g4
g5
(dp2023
g19
S'Text'
p2024
sg17
S'desc'
p2025
sg21
S'Server description'
p2026
stRp2027
ag3
(g4
g5
(dp2028
g19
S'User'
p2029
sg17
S'user'
p2030
sg21
S'The service user used by this server'
p2031
stRp2032
atRp2033
sg17
S'Server'
p2034
stRp2035
ag3
(g4
g5
(dp2036
g531
g3
(g8
g9
(lp2037
g3
(g4
g5
(dp2038
g19
S'Domain'
p2039
sg17
S'client'
p2040
sg21
S'Client the stash refers to'
p2041
stRp2042
ag3
(g4
g5
(dp2043
g19
S'Domain'
p2044
sg17
S'stream'
p2045
sg21
S'Stream the stash refers to'
p2046
stRp2047
ag3
(g4
g5
(dp2048
g19
S'StashType'
p2049
sg17
S'type'
p2050
sg21
S'Stash type'
p2051
stRp2052
ag3
(g4
g5
(dp2053
g19
S'Int'
p2054
sg17
S'seq'
p2055
sg21
S'Sequence number'
p2056
stRp2057
ag3
(g4
g5
(dp2058
g19
S'Change'
p2059
sg17
S'change'
p2060
sg21
S'Stash change number'
p2061
stRp2062
atRp2063
sg17
S'Stash'
p2064
stRp2065
ag3
(g4
g5
(dp2066
g531
g3
(g8
g9
(lp2067
g3
(g4
g5
(dp2068
g19
S'Domain'
p2069
sg17
S'stream'
p2070
sg21
S'Stream name'
p2071
stRp2072
ag3
(g4
g5
(dp2073
g19
S'Domain'
p2074
sg17
S'parent'
p2075
sg21
S'Parent stream name'
p2076
stRp2077
ag3
(g4
g5
(dp2078
g19
S'Text'
p2079
sg17
S'title'
p2080
sg21
S'Stream title (alias for the stream name)'
p2081
stRp2082
ag3
(g4
g5
(dp2083
g19
S'StreamType'
p2084
sg17
S'type'
p2085
sg21
S'The type of stream'
p2086
stRp2087
ag3
(g4
g5
(dp2088
g19
S'Date'
p2089
sg17
S'preview'
p2090
sg21
S'Stream template modification time'
p2091
stRp2092
ag3
(g4
g5
(dp2093
g19
S'Change'
p2094
sg17
S'change'
p2095
sg21
S'Last submit to stream'
p2096
stRp2097
ag3
(g4
g5
(dp2098
g19
S'Change'
p2099
sg17
S'copychg'
p2100
sg21
S'Parent change at last copy'
p2101
stRp2102
ag3
(g4
g5
(dp2103
g19
S'Change'
p2104
sg17
S'mergechg'
p2105
sg21
S'Parent change at last merge'
p2106
stRp2107
ag3
(g4
g5
(dp2108
g19
S'Change'
p2109
sg17
S'highchg'
p2110
sg21
S'Highest change at last merge'
p2111
stRp2112
ag3
(g4
g5
(dp2113
g19
S'Int'
p2114
sg17
S'hash'
p2115
sg21
S'Hash value of dynamic branch'
p2116
stRp2117
ag3
(g4
g5
(dp2118
g19
S'StreamStatus'
p2119
sg17
S'status'
p2120
sg21
S'Flow status'
p2121
stRp2122
atRp2123
sg17
S'Stream'
p2124
stRp2125
ag3
(g4
g5
(dp2126
g531
g3
(g8
g9
(lp2127
g3
(g4
g5
(dp2128
g19
S'Text'
p2129
sg17
S'id'
p2130
sg21
S'Server name'
p2131
stRp2132
ag3
(g4
g5
(dp2133
g19
S'SvrViewType'
p2134
sg17
S'type'
p2135
sg21
S'View type'
p2136
stRp2137
ag3
(g4
g5
(dp2138
g19
S'Int'
p2139
sg17
S'seq'
p2140
sg21
S'Sequence (line) number'
p2141
stRp2142
ag3
(g4
g5
(dp2143
g19
S'MapFlag'
p2144
sg17
S'mapFlag'
p2145
sg21
S'Type of mapping'
p2146
stRp2147
ag3
(g4
g5
(dp2148
g19
S'Mapping'
p2149
sg17
S'viewFile'
p2150
sg21
S'View file'
p2151
stRp2152
atRp2153
sg17
S'SvrView'
p2154
stRp2155
ag3
(g4
g5
(dp2156
g531
g3
(g8
g9
(lp2157
g3
(g4
g5
(dp2158
g19
S'Domain'
p2159
sg17
S'name'
p2160
sg21
S'Stream name'
p2161
stRp2162
ag3
(g4
g5
(dp2163
g19
S'Change'
p2164
sg17
S'change'
p2165
sg21
S'Versioned at change'
p2166
stRp2167
ag3
(g4
g5
(dp2168
g19
S'Int'
p2169
sg17
S'seq'
p2170
sg21
S'Sequence (line) number'
p2171
stRp2172
ag3
(g4
g5
(dp2173
g19
S'Domain'
p2174
sg17
S'parent'
p2175
sg21
S'Parent stream name'
p2176
stRp2177
ag3
(g4
g5
(dp2178
g19
S'StreamType'
p2179
sg17
S'type'
p2180
sg21
S'Type of stream'
p2181
stRp2182
ag3
(g4
g5
(dp2183
g19
S'StreamPathType'
p2184
sg17
S'path'
p2185
sg21
S'Stream path type'
p2186
stRp2187
ag3
(g4
g5
(dp2188
g19
S'Mapping'
p2189
sg17
S'viewFile'
p2190
sg21
S'View file (left hand side of path)'
p2191
stRp2192
ag3
(g4
g5
(dp2193
g19
S'Mapping'
p2194
sg17
S'depotFile'
p2195
sg21
S'Depot file (right hand side of path)'
p2196
stRp2197
ag3
(g4
g5
(dp2198
g19
S'Value'
p2199
sg17
S'changeMap'
p2200
sg21
S"Stream 'import' path changelist specifier. The changelist\n\t\t\tlimits in effect for a given client are displayed in a\n\t    \tread-only client spec field called 'ChangeView'"
p2201
stRp2202
atRp2203
sg17
S'Template'
p2204
stRp2205
ag3
(g4
g5
(dp2206
g531
g3
(g8
g9
(lp2207
g3
(g4
g5
(dp2208
g19
S'String'
p2209
sg17
S'fileAndRev'
p2210
sg21
S'The file name and revision'
p2211
stRp2212
ag3
(g4
g5
(dp2213
g19
S'Octet String'
p2214
sg17
S'fileContent'
p2215
sg21
S'The (encoded) file content'
p2216
stRp2217
atRp2218
sg17
S'TinyDb'
p2219
stRp2220
ag3
(g4
g5
(dp2221
g531
g3
(g8
g9
(lp2222
g3
(g4
g5
(dp2223
g19
S'Int'
p2224
sg17
S'traitLot'
p2225
sg21
S'Indicates a specific collection of traits (referred to \n\t\t    externally as "attributes".)'
p2226
stRp2227
ag3
(g4
g5
(dp2228
g19
S'String'
p2229
sg17
S'name'
p2230
sg21
S'Trait (attribute) name'
p2231
stRp2232
ag3
(g4
g5
(dp2233
g19
S'TraitType'
p2234
sg17
S'type'
p2235
sg21
S'Type of trait'
p2236
stRp2237
ag3
(g4
g5
(dp2238
g19
S'Octet String'
p2239
sg17
S'value'
p2240
sg21
S'The value'
p2241
stRp2242
atRp2243
sg17
S'Trait'
p2244
stRp2245
ag3
(g4
g5
(dp2246
g531
g3
(g8
g9
(lp2247
g3
(g4
g5
(dp2248
g19
S'Int'
p2249
sg17
S'seq'
p2250
sg21
S'Sequence number: for ordering the trigger list'
p2251
stRp2252
ag3
(g4
g5
(dp2253
g19
S'String'
p2254
sg17
S'name'
p2255
sg21
S'Name of the trigger'
p2256
stRp2257
ag3
(g4
g5
(dp2258
g19
S'MapFlag'
p2259
sg17
S'mapFlag'
p2260
sg21
S'Type of mapping: specifies whether the trigger applies \n\t\t    to the files or not.'
p2261
stRp2262
ag3
(g4
g5
(dp2263
g19
S'Mapping'
p2264
sg17
S'depotFile'
p2265
sg21
S'The files to apply the trigger to'
p2266
stRp2267
ag3
(g4
g5
(dp2268
g19
S'File'
p2269
sg17
S'triggerDepotFile'
p2270
sg21
S'Depot path to the trigger'
p2271
stRp2272
ag3
(g4
g5
(dp2273
g19
S'Trigger'
p2274
sg17
S'trigger'
p2275
sg21
S'Type of trigger'
p2276
stRp2277
ag3
(g4
g5
(dp2278
g19
S'Text'
p2279
sg17
S'action'
p2280
sg21
S'Command to execute when trigger runs'
p2281
stRp2282
atRp2283
sg17
S'Trigger'
p2284
stRp2285
ag3
(g4
g5
(dp2286
g531
g3
(g8
g9
(lp2287
g3
(g4
g5
(dp2288
g19
S'User'
p2289
sg17
S'user'
p2290
sg21
S'The username'
p2291
stRp2292
ag3
(g4
g5
(dp2293
g19
S'Text'
p2294
sg17
S'email'
p2295
sg21
S"The user's email address"
p2296
stRp2297
ag3
(g4
g5
(dp2298
g19
S'Text'
p2299
sg17
S'jobView'
p2300
sg21
S"The user's job view"
p2301
stRp2302
ag3
(g4
g5
(dp2303
g19
S'Date'
p2304
sg17
S'updateDate'
p2305
sg21
S'The date/time the user record was last updated'
p2306
stRp2307
ag3
(g4
g5
(dp2308
g19
S'Date'
p2309
sg17
S'accessDate'
p2310
sg21
S'The date/time the user record was last used'
p2311
stRp2312
ag3
(g4
g5
(dp2313
g19
S'Text'
p2314
sg17
S'fullName'
p2315
sg21
S"The user's full name"
p2316
stRp2317
ag3
(g4
g5
(dp2318
g19
S'Password'
p2319
sg17
S'password'
p2320
sg21
S'The MD5 hash of the users (encrypted) password'
p2321
stRp2322
ag3
(g4
g5
(dp2323
g19
S'Strength'
p2324
sg17
S'strength'
p2325
sg21
S"Measure of the strength of the user's password"
p2326
stRp2327
ag3
(g4
g5
(dp2328
g19
S'Password'
p2329
sg17
S'ticket'
p2330
sg21
S"'p4 login' ticket for this user"
p2331
stRp2332
ag3
(g4
g5
(dp2333
g19
S'Date'
p2334
sg17
S'endDate'
p2335
sg21
S"Date/time the user's ticket expires"
p2336
stRp2337
ag3
(g4
g5
(dp2338
g19
S'UserLevel'
p2339
sg17
S'type'
p2340
sg21
S'Type of user'
p2341
stRp2342
ag3
(g4
g5
(dp2343
g19
S'Date'
p2344
sg17
S'passDate'
p2345
sg21
S'Date password was last changed'
p2346
stRp2347
ag3
(g4
g5
(dp2348
g19
S'Date'
p2349
sg17
S'passExpire'
p2350
sg21
S'Date of password expiration'
p2351
stRp2352
ag3
(g4
g5
(dp2353
g19
S'Date'
p2354
sg17
S'attempts'
p2355
sg21
S'Failed login attempts'
p2356
stRp2357
ag3
(g4
g5
(dp2358
g19
S'Int'
p2359
sg17
S'auth'
p2360
sg21
S'Authentication method for user; 0=perforce, 1=ldap'
p2361
stRp2362
atRp2363
sg17
S'User'
p2364
stRp2365
ag3
(g4
g5
(dp2366
g531
g3
(g8
g9
(lp2367
g3
(g4
g5
(dp2368
g19
S'Domain'
p2369
sg17
S'name'
p2370
sg21
S'Domain name to which this view applies'
p2371
stRp2372
ag3
(g4
g5
(dp2373
g19
S'Int'
p2374
sg17
S'seq'
p2375
sg21
S'Sequence number: for ordering multi-line views'
p2376
stRp2377
ag3
(g4
g5
(dp2378
g19
S'MapFlag'
p2379
sg17
S'mapFlag'
p2380
sg21
S'Type of mapping'
p2381
stRp2382
ag3
(g4
g5
(dp2383
g19
S'Mapping'
p2384
sg17
S'viewFile'
p2385
sg21
S"The right-hand-side of the view. For clients, this is\n\t\t    the client-side, for labels it's the generated label \n\t\t    view. For branches, it's the target side of the branch\n\t\t    view."
p2386
stRp2387
ag3
(g4
g5
(dp2388
g19
S'Mapping'
p2389
sg17
S'depotFile'
p2390
sg21
S'The left-hand-side of the view - a mapping to file(s)\n\t\t    in the depot.'
p2391
stRp2392
atRp2393
sg17
S'View'
p2394
stRp2395
ag3
(g4
g5
(dp2396
g531
g3
(g8
g9
(lp2397
g3
(g4
g5
(dp2398
g19
S'File'
p2399
sg17
S'clientFile'
p2400
sg21
S'File on the client'
p2401
stRp2402
ag3
(g4
g5
(dp2403
g19
S'File'
p2404
sg17
S'depotFile'
p2405
sg21
S'File in the depot'
p2406
stRp2407
ag3
(g4
g5
(dp2408
g19
S'Domain'
p2409
sg17
S'client'
p2410
sg21
S'The client the file is opened on'
p2411
stRp2412
ag3
(g4
g5
(dp2413
g19
S'User'
p2414
sg17
S'user'
p2415
sg21
S'The user who has the file opened'
p2416
stRp2417
ag3
(g4
g5
(dp2418
g19
S'Rev'
p2419
sg17
S'haveRev'
p2420
sg21
S"Revision presently in user's client workspace"
p2421
stRp2422
ag3
(g4
g5
(dp2423
g19
S'Rev'
p2424
sg17
S'workRev'
p2425
sg21
S'Working revision; normally identical to the haveRev'
p2426
stRp2427
ag3
(g4
g5
(dp2428
g19
S'Int'
p2429
sg17
S'isVirtual'
p2430
sg21
S'Flag: if 1, file was opened with "p4 integ -v".'
p2431
stRp2432
ag3
(g4
g5
(dp2433
g19
S'FileType'
p2434
sg17
S'type'
p2435
sg21
S'File type'
p2436
stRp2437
ag3
(g4
g5
(dp2438
g19
S'Action'
p2439
sg17
S'action'
p2440
sg21
S"What the user's doing with the file"
p2441
stRp2442
ag3
(g4
g5
(dp2443
g19
S'Change'
p2444
sg17
S'change'
p2445
sg21
S'Associated changelist, or zero for the default changelist.'
p2446
stRp2447
ag3
(g4
g5
(dp2448
g19
S'Date'
p2449
sg17
S'modTime'
p2450
sg21
S"Modification timestamp on the file in the user's workspace."
p2451
stRp2452
ag3
(g4
g5
(dp2453
g19
S'Int'
p2454
sg17
S'isLocked'
p2455
sg21
S'Flag: 0 for unlocked, 1 for locked.'
p2456
stRp2457
ag3
(g4
g5
(dp2458
g19
S'Digest'
p2459
sg17
S'digest'
p2460
sg21
S'MD5 digest of working file.'
p2461
stRp2462
ag3
(g4
g5
(dp2463
g19
S'Int64'
p2464
sg17
S'size'
p2465
sg21
S'File size'
p2466
stRp2467
ag3
(g4
g5
(dp2468
g19
S'Int'
p2469
sg17
S'traitLot'
p2470
sg21
S'Group of traits associated with file revision.'
p2471
stRp2472
ag3
(g4
g5
(dp2473
g19
S'TamperCheck'
p2474
sg17
S'tampered'
p2475
sg21
S'Flag indicating the tamper-state of the file in the\n\t\t    workspace.'
p2476
stRp2477
ag3
(g4
g5
(dp2478
g19
S'FileType'
p2479
sg17
S'clntType'
p2480
sg21
S'Type of the file in the client workspace.'
p2481
stRp2482
ag3
(g4
g5
(dp2483
g19
S'File'
p2484
sg17
S'mFile'
p2485
sg21
S'Moved filename'
p2486
stRp2487
ag3
(g4
g5
(dp2488
g19
S'Int'
p2489
sg17
S'status'
p2490
sg21
S'Working status'
p2491
stRp2492
atRp2493
sg17
S'Working'
p2494
stRp2495
atRp2496
stRp2497
sS'upgrades'
p2498
g3
(g4
g5
(dp2499
S'upgrade'
p2500
g3
(g8
g9
(lp2501
g3
(g4
g5
(dp2502
S'release'
p2503
S'2001.1'
p2504
sS'index'
p2505
S'1'
sg21
S'Split db.integ into db.integed and db.resolve'
p2506
stRp2507
ag3
(g4
g5
(dp2508
g2503
S'2001.1'
p2509
sg2505
S'2'
sg21
S'Splt db.have into db.have and db.label'
p2510
stRp2511
ag3
(g4
g5
(dp2512
g2503
S'2002.1'
p2513
sg2505
S'3'
sg21
S'Split db.change into db.change and db.changex'
p2514
stRp2515
ag3
(g4
g5
(dp2516
g2503
S'2002.2'
p2517
sg2505
S'4'
sg21
S'Upgrade tempobj filetype in db.rev'
p2518
stRp2519
ag3
(g4
g5
(dp2520
g2503
S'2002.2'
p2521
sg2505
S'5'
sg21
S'Upgrade tempobj filetype in db.working'
p2522
stRp2523
ag3
(g4
g5
(dp2524
g2503
S'2003.1'
p2525
sg2505
S'6'
sg21
S'JnlInitialize default depot'
p2526
stRp2527
ag3
(g4
g5
(dp2528
g2503
S'2003.2'
p2529
sg2505
S'7'
sg21
S'Upgrade db.user'
p2530
stRp2531
ag3
(g4
g5
(dp2532
g2503
S'2005.1'
p2533
sg2505
S'8'
sg21
S'Build db.revhx (headrev) table'
p2534
stRp2535
ag3
(g4
g5
(dp2536
g2503
S'2005.1'
p2537
sg2505
S'9'
sg21
S'Rebuild db.locks from db.working'
p2538
stRp2539
ag3
(g4
g5
(dp2540
g2503
S'2005.1'
p2541
sg2505
S'10'
p2542
sg257
S'Removed in 2006.2'
p2543
sg21
S'Build lazy-copy index (db.archive)'
p2544
stRp2545
ag3
(g4
g5
(dp2546
g2503
S'2005.2'
p2547
sg2505
S'11'
p2548
sg21
S'Build db.revdx (delrev) table'
p2549
stRp2550
ag3
(g4
g5
(dp2551
g2503
S'2005.2'
p2552
sg2505
S'12'
p2553
sg257
S'Moved to 16 in 2007.3'
p2554
sg21
S'Build haveMap from db.have/db.working'
p2555
stRp2556
ag3
(g4
g5
(dp2557
g2503
S'2005.2'
p2558
sg2505
S'13'
p2559
sg21
S'Move spec depot entries into db.revsx'
p2560
stRp2561
ag3
(g4
g5
(dp2562
g2503
S'2006.2'
p2563
sg2505
S'14'
p2564
sg257
S'Moved to 17 in 2007.3'
p2565
sg21
S'Build db.archmap (lazy-copy map) table'
p2566
stRp2567
ag3
(g4
g5
(dp2568
g2503
S'2006.2'
p2569
sg2505
S'15'
p2570
sg257
S'Moved to 18 in 2007.3'
p2571
sg21
S'Remove (obsolete) db.archive table'
p2572
stRp2573
ag3
(g4
g5
(dp2574
g2503
S'2007.3'
p2575
sg2505
S'16'
p2576
sg257
S'Rewritten in 2007.3'
p2577
sg21
S'Build/Rebuild haveMap from db.have/db.working'
p2578
stRp2579
ag3
(g4
g5
(dp2580
g2503
S'2007.3'
p2581
sg2505
S'17'
p2582
sg257
S'Rewritten in 2007.3'
p2583
sg21
S'Build/Rebuild db.archmap (lazy-copy map) table'
p2584
stRp2585
ag3
(g4
g5
(dp2586
g2503
S'2007.3'
p2587
sg2505
S'18'
p2588
sg257
S'Moved from 15 in 2007.3'
p2589
sg21
S'Remove (obsolete) db.archive table'
p2590
stRp2591
ag3
(g4
g5
(dp2592
g2503
S'2008.1'
p2593
sg2505
S'19'
p2594
sg21
S'Build db.change common path'
p2595
stRp2596
ag3
(g4
g5
(dp2597
g2503
S'2009.2'
p2598
sg2505
S'20'
p2599
sg21
S'Move db.boddate/db.ixdate into db.bodtext/db.ixtext'
p2600
stRp2601
ag3
(g4
g5
(dp2602
g2503
S'2009.2'
p2603
sg2505
S'21'
p2604
sg21
S'Remove db.boddate/db.ixdate'
p2605
stRp2606
ag3
(g4
g5
(dp2607
g2503
S'2010.2'
p2608
sg2505
S'22'
p2609
sg21
S'Move system counters into db.config'
p2610
stRp2611
ag3
(g4
g5
(dp2612
g2503
S'2011.1'
p2613
sg2505
S'23'
p2614
sg21
S'Upgrade tiny.db'
p2615
stRp2616
ag3
(g4
g5
(dp2617
g2503
S'2015.2'
p2618
sg2505
S'24'
p2619
sg21
S'Move LDAP specs into db.ldap'
p2620
stRp2621
atRp2622
stRp2623
sS'commit_upgrades'
p2624
g3
(g4
g5
(dp2625
S'commit_upgrade'
p2626
g3
(g8
g9
(lp2627
g3
(g4
g5
(dp2628
g2503
S'2013.2'
p2629
sg2505
S'commit-server'
p2630
sg257
S'Generate exclusive lock records in db.excl based on db.working data.'
p2631
sg21
S'Generate exclusive locks'
p2632
stRp2633
ag3
(g4
g5
(dp2634
g2503
S'2014.1'
p2635
sg2505
S'commit-server'
p2636
sg257
S'Promote existing shelves by updating changeStatus in db.change and db.changex.'
p2637
sg21
S'Promote Shelves'
p2638
stRp2639
atRp2640
stRp2641
sS'datatypes'
p2642
g3
(g4
g5
(dp2643
S'datatype'
p2644
g3
(g8
g9
(lp2645
g3
(g4
g5
(dp2646
g19
S'flag'
p2647
sS'summary'
p2648
S'Type of action'
p2649
sS'values'
p2650
g3
(g8
g9
(lp2651
g3
(g4
g5
(dp2652
S'value'
p2653
S'0'
sg21
S'add; user adds a file'
p2654
stRp2655
ag3
(g4
g5
(dp2656
g2653
S'1'
sg21
S'edit; user edits a file'
p2657
stRp2658
ag3
(g4
g5
(dp2659
g2653
S'2'
sg21
S'delete; user deletes a file'
p2660
stRp2661
ag3
(g4
g5
(dp2662
g2653
S'3'
sg21
S'branch; add via integration'
p2663
stRp2664
ag3
(g4
g5
(dp2665
g2653
S'4'
sg21
S'integ; edit via integration'
p2666
stRp2667
ag3
(g4
g5
(dp2668
g2653
S'5'
sg21
S'import; add via remote depot'
p2669
stRp2670
ag3
(g4
g5
(dp2671
g2653
S'6'
sg21
S'purge; purged revision, no longer available'
p2672
stRp2673
ag3
(g4
g5
(dp2674
g2653
S'7'
sg21
S'movefrom; move from another filename'
p2675
stRp2676
ag3
(g4
g5
(dp2677
g2653
S'8'
sg21
S'moveto; move to another filename'
p2678
stRp2679
ag3
(g4
g5
(dp2680
g2653
S'9'
sg21
S'archive; stored in archive depot'
p2681
stRp2682
atRp2683
sg17
S'Action'
p2684
sg21
S'Revisions are produced by user actions. The Action\n\t\ttype defines the available actions and their internal values.'
p2685
stRp2686
ag3
(g4
g5
(dp2687
g2648
S'A changelist number'
p2688
sg19
S'integer'
p2689
sg17
S'Change'
p2690
sg21
S'The number of a changelist. The number 0 represents the\n\t\tdefault pending changelist.'
p2691
stRp2692
ag3
(g4
g5
(dp2693
g19
S'flag'
p2694
sg2648
S'The status of a change'
p2695
sg2650
g3
(g8
g9
(lp2696
g3
(g4
g5
(dp2697
g2653
S'0'
sg21
S'pending'
p2698
stRp2699
ag3
(g4
g5
(dp2700
g2653
S'1'
sg21
S'submitted'
p2701
stRp2702
ag3
(g4
g5
(dp2703
g2653
S'2'
sg21
S'shelved'
p2704
stRp2705
ag3
(g4
g5
(dp2706
g2653
S'4'
sg21
S'restricted, pending'
p2707
stRp2708
ag3
(g4
g5
(dp2709
g2653
S'5'
sg21
S'restricted, submitted'
p2710
stRp2711
ag3
(g4
g5
(dp2712
g2653
S'6'
sg21
S'restricted, shelved'
p2713
stRp2714
ag3
(g4
g5
(dp2715
g2653
S'18'
p2716
sg21
S'promoted shelf, public'
p2717
stRp2718
ag3
(g4
g5
(dp2719
g2653
S'22'
p2720
sg21
S'promoted shelf, restricted'
p2721
stRp2722
ag3
(g4
g5
(dp2723
g2653
S'34'
p2724
sg21
S'unsubmitted shelf, public'
p2725
stRp2726
ag3
(g4
g5
(dp2727
g2653
S'38'
p2728
sg21
S'unsubmitted shelf, restricted'
p2729
stRp2730
atRp2731
sg17
S'ChangeStatus'
p2732
sg21
S'A integer value representing the status of a change'
p2733
stRp2734
ag3
(g4
g5
(dp2735
g2648
S'A counter name'
p2736
sg19
S'string'
p2737
sg17
S'Counter'
p2738
sg21
S'A string representing the counter name. Counter names must \n\t\tcontain no spaces, contain no slashes, and be identifiers \n\t\t(cannot begin with a dash and cannot be all-numeric)'
p2739
stRp2740
ag3
(g4
g5
(dp2741
g2648
S'A unix-style date and time'
p2742
sg19
S'integer'
p2743
sg17
S'Date'
p2744
sg21
S'A date and time represented as the number of seconds since \n\t\tthe Epoch: 01 January 1970 00:00:00 UTC. This is the same \n\t\tconvention as that used on Unix platforms.'
p2745
stRp2746
ag3
(g4
g5
(dp2747
g19
S'flag'
p2748
sg2648
S'Type of Depot'
p2749
sg2650
g3
(g8
g9
(lp2750
g3
(g4
g5
(dp2751
g2653
S'0'
sg21
S'local depot'
p2752
stRp2753
ag3
(g4
g5
(dp2754
g2653
S'1'
sg21
S'remote depot'
p2755
stRp2756
ag3
(g4
g5
(dp2757
g2653
S'2'
sg21
S'spec depot'
p2758
stRp2759
ag3
(g4
g5
(dp2760
g2653
S'3'
sg21
S'stream depot'
p2761
stRp2762
ag3
(g4
g5
(dp2763
g2653
S'4'
sg21
S'archive depot'
p2764
stRp2765
ag3
(g4
g5
(dp2766
g2653
S'5'
sg21
S'unload depot'
p2767
stRp2768
ag3
(g4
g5
(dp2769
g2653
S'6'
sg21
S'tangent depot'
p2770
stRp2771
atRp2772
sg17
S'DepotType'
p2773
sg21
S'The type of a given depot'
p2774
stRp2775
ag3
(g4
g5
(dp2776
g2648
S'A short string value'
p2777
sg21
S'The first 31 characters of a Text string'
p2778
sg19
S'string'
p2779
sg17
S'DescShort'
p2780
sg173
S'Text'
p2781
stRp2782
ag3
(g4
g5
(dp2783
g2648
S'An MD5 digest'
p2784
sg19
S'string'
p2785
sg17
S'Digest'
p2786
sg21
S'A string containing an MD5 digest.'
p2787
stRp2788
ag3
(g4
g5
(dp2789
g2648
S'A domain name'
p2790
sg19
S'string'
p2791
sg17
S'Domain'
p2792
sg21
S'A string representing the name of a depot, label, client,\n\t\tbranch, typemap, or stream.'
p2793
stRp2794
ag3
(g4
g5
(dp2795
g2648
S'A string with optional wildcards'
p2796
sg19
S'string'
p2797
sg17
S'DomainWild'
p2798
sg21
S'A string that may contain wildcards - usually an IP address\n\t\tin the protections table.'
p2799
stRp2800
ag3
(g4
g5
(dp2801
g2650
g3
(g8
g9
(lp2802
g3
(g4
g5
(dp2803
S'mask'
p2804
S'Domain Flags'
p2805
sg2653
S'0x0001'
p2806
sg21
S'modtime'
p2807
stRp2808
ag3
(g4
g5
(dp2809
g2804
S'Domain Flags'
p2810
sg2653
S'0x0002'
p2811
sg21
S'clobber'
p2812
stRp2813
ag3
(g4
g5
(dp2814
g2804
S'Domain Flags'
p2815
sg2653
S'0x0004'
p2816
sg21
S'allwrite'
p2817
stRp2818
ag3
(g4
g5
(dp2819
g2804
S'Domain Flags'
p2820
sg2653
S'0x0008'
p2821
sg21
S'locked'
p2822
stRp2823
ag3
(g4
g5
(dp2824
g2804
S'Domain Flags'
p2825
sg2653
S'0x0020'
p2826
sg21
S'compress'
p2827
stRp2828
ag3
(g4
g5
(dp2829
g2804
S'Domain Flags'
p2830
sg2653
S'0x0040'
p2831
sg21
S'rmdir'
p2832
stRp2833
ag3
(g4
g5
(dp2834
g2804
S'Domain Flags'
p2835
sg2653
S'0x1000'
p2836
sg21
S'indirect (obsolete since 2004.2)'
p2837
stRp2838
ag3
(g4
g5
(dp2839
g2804
S'Domain Flags'
p2840
sg2653
S'0x8000'
p2841
sg21
S'autoreload'
p2842
stRp2843
ag3
(g4
g5
(dp2844
g2804
S'Domain LineEnd'
p2845
sg2653
S'0x0000'
p2846
sg21
S'local'
p2847
stRp2848
ag3
(g4
g5
(dp2849
g2804
S'Domain LineEnd'
p2850
sg2653
S'0x0010'
p2851
sg21
S'unix (LF)'
p2852
stRp2853
ag3
(g4
g5
(dp2854
g2804
S'Domain LineEnd'
p2855
sg2653
S'0x0200'
p2856
sg21
S'mac (CR)'
p2857
stRp2858
ag3
(g4
g5
(dp2859
g2804
S'Domain LineEnd'
p2860
sg2653
S'0x0300'
p2861
sg21
S'win (CRLF)'
p2862
stRp2863
ag3
(g4
g5
(dp2864
g2804
S'Domain LineEnd'
p2865
sg2653
S'0x0400'
p2866
sg21
S'share (LF/CRLF)'
p2867
stRp2868
ag3
(g4
g5
(dp2869
g2804
S'Domain SubmitMask'
p2870
sg2653
S'0x1000'
p2871
sg21
S'Revert unchanged files'
p2872
stRp2873
ag3
(g4
g5
(dp2874
g2804
S'Domain SubmitMask'
p2875
sg2653
S'0x2000'
p2876
sg21
S'Leave unchanged files'
p2877
stRp2878
ag3
(g4
g5
(dp2879
g2804
S'Domain SubmitMask'
p2880
sg2653
S'0x4000'
p2881
sg21
S'Submit, and re-open unchanged files'
p2882
stRp2883
ag3
(g4
g5
(dp2884
g2804
S'Domain StreamMask'
p2885
sg2653
S'0x0001'
p2886
sg21
S'allsubmit or ownersubmit'
p2887
stRp2888
ag3
(g4
g5
(dp2889
g2804
S'Domain StreamMask'
p2890
sg2653
S'0x0002'
p2891
sg21
S'locked or unlocked'
p2892
stRp2893
ag3
(g4
g5
(dp2894
g2804
S'Domain StreamMask'
p2895
sg2653
S'0x0004'
p2896
sg21
S'change flows to parent'
p2897
stRp2898
ag3
(g4
g5
(dp2899
g2804
S'Domain StreamMask'
p2900
sg2653
S'0x0008'
p2901
sg21
S'change flows from parent'
p2902
stRp2903
ag3
(g4
g5
(dp2904
g2804
S'Domain StreamMask'
p2905
sg2653
S'0x0010'
p2906
sg21
S'mergeany or mergedown'
p2907
stRp2908
atRp2909
sg17
S'DomainOpts'
p2910
sg2804
g3
(g8
g9
(lp2911
g3
(g4
g5
(dp2912
g17
S'Domain Flags'
p2913
sg2653
S'0x10EF'
p2914
sg21
S'Bits used to store client, label, and branch options'
p2915
stRp2916
ag3
(g4
g5
(dp2917
g17
S'Domain LineEnd'
p2918
sg2653
S'0x0710'
p2919
sg21
S'Bits used to store client line termination settings.'
p2920
stRp2921
ag3
(g4
g5
(dp2922
g17
S'Domain SubmitMask'
p2923
sg2653
S'0x7000'
p2924
sg21
S'Bits used to store client submit options'
p2925
stRp2926
ag3
(g4
g5
(dp2927
g17
S'Domain StreamMask'
p2928
sg2653
S'0x000C'
p2929
sg21
S'Bits used to store stream options'
p2930
stRp2931
atRp2932
sg2648
S'Options for domains'
p2933
sg19
S'bitmask'
p2934
sg21
S'A integer value representing the options for a domain'
p2935
stRp2936
ag3
(g4
g5
(dp2937
g19
S'flag'
p2938
sg2648
S'A domain type'
p2939
sg2650
g3
(g8
g9
(lp2940
g3
(g4
g5
(dp2941
g2653
S"67 (ASCII 'C')"
p2942
sg21
S'unloaded client'
p2943
stRp2944
ag3
(g4
g5
(dp2945
g2653
S"76 (ASCII 'L')"
p2946
sg21
S'unloaded label'
p2947
stRp2948
ag3
(g4
g5
(dp2949
g2653
S"83 (ASCII 'S')"
p2950
sg21
S'unloaded task stream'
p2951
stRp2952
ag3
(g4
g5
(dp2953
g2653
S"98 (ASCII 'b')"
p2954
sg21
S'branch'
p2955
stRp2956
ag3
(g4
g5
(dp2957
g2653
S"99 (ASCII 'c')"
p2958
sg21
S'client'
p2959
stRp2960
ag3
(g4
g5
(dp2961
g2653
S"100 (ASCII 'd')"
p2962
sg21
S'depot'
p2963
stRp2964
ag3
(g4
g5
(dp2965
g2653
S"108 (ASCII 'l')"
p2966
sg21
S'label'
p2967
stRp2968
ag3
(g4
g5
(dp2969
g2653
S"115 (ASCII 's')"
p2970
sg21
S'stream'
p2971
stRp2972
ag3
(g4
g5
(dp2973
g2653
S"116 (ASCII 't')"
p2974
sg21
S'typemap'
p2975
stRp2976
atRp2977
sg17
S'DomainType'
p2978
sg21
S'A integer value representing the type of a domain'
p2979
stRp2980
ag3
(g4
g5
(dp2981
g2648
S'A file name'
p2982
sg21
S'A string representing the filename'
p2983
sg19
S'string'
p2984
sg17
S'File'
p2985
sg173
S'FileType'
p2986
stRp2987
ag3
(g4
g5
(dp2988
g2648
S'A file size'
p2989
sg19
S'integer'
p2990
sg17
S'FileSize'
p2991
sg21
S'A 64-bit integer used to store file sizes. The value -1 is\n\t\tused to represent unknown filesizes.'
p2992
stRp2993
ag3
(g4
g5
(dp2994
g2650
g3
(g8
g9
(lp2995
g3
(g4
g5
(dp2996
g2804
S'Storage Type'
p2997
sg2653
S'0x0000'
p2998
sg21
S'RCS'
p2999
stRp3000
ag3
(g4
g5
(dp3001
g2804
S'Storage Type'
p3002
sg2653
S'0x0001'
p3003
sg21
S'Binary'
p3004
stRp3005
ag3
(g4
g5
(dp3006
g2804
S'Storage Type'
p3007
sg2653
S'0x0002'
p3008
sg21
S'Tiny'
p3009
stRp3010
ag3
(g4
g5
(dp3011
g2804
S'Storage Type'
p3012
sg2653
S'0x0003'
p3013
sg21
S'Compressed'
p3014
stRp3015
ag3
(g4
g5
(dp3016
g2804
S'Storage Type'
p3017
sg2653
S'0x0004'
p3018
sg21
S'tempobj (deprecated since 2002.1)'
p3019
stRp3020
ag3
(g4
g5
(dp3021
g2804
S'Storage Type'
p3022
sg2653
S'0x0005'
p3023
sg21
S'Detect type. Used internally when no type is\n\t\t    given by the user.'
p3024
stRp3025
ag3
(g4
g5
(dp3026
g2804
S'Storage Type'
p3027
sg2653
S'0x0006'
p3028
sg21
S'Comressed tempobj (deprecated since 2002.1)'
p3029
stRp3030
ag3
(g4
g5
(dp3031
g2804
S'Storage Type'
p3032
sg2653
S'0x0007'
p3033
sg21
S'Binary access to compressed data. Used internally.'
p3034
stRp3035
ag3
(g4
g5
(dp3036
g2804
S'Storage Type'
p3037
sg2653
S'0x0008'
p3038
sg21
S'Stored externally via librarian trigger'
p3039
stRp3040
ag3
(g4
g5
(dp3041
g2804
S'Storage Mods'
p3042
sg2653
S'0x0010'
p3043
sg21
S'99.2-style keyword expansion/contraction'
p3044
stRp3045
ag3
(g4
g5
(dp3046
g2804
S'Storage Mods'
p3047
sg2653
S'0x0020'
p3048
sg21
S'2000.1-style keyword expansion/contraction'
p3049
stRp3050
ag3
(g4
g5
(dp3051
g2804
S'Storage Mods'
p3052
sg2653
S'0x0030'
p3053
sg21
S'Any type of keyword expansion'
p3054
stRp3055
ag3
(g4
g5
(dp3056
g2804
S'Storage Mods'
p3057
sg2653
S'0x0040'
p3058
sg21
S'Exclusive open'
p3059
stRp3060
ag3
(g4
g5
(dp3061
g2804
S'Storage Mods'
p3062
sg2653
S'0x0080'
p3063
sg21
S'New tempobj (+S modifier)'
p3064
stRp3065
ag3
(g4
g5
(dp3066
g2804
S'Tempobj revisions'
p3067
sg2653
S'0x0000'
p3068
sg21
S'+S1'
p3069
stRp3070
ag3
(g4
g5
(dp3071
g2804
S'Tempobj revisions'
p3072
sg2653
S'0x0100'
p3073
sg21
S'+S2'
p3074
stRp3075
ag3
(g4
g5
(dp3076
g2804
S'Tempobj revisions'
p3077
sg2653
S'0x0200'
p3078
sg21
S'+S3'
p3079
stRp3080
ag3
(g4
g5
(dp3081
g2804
S'Tempobj revisions'
p3082
sg2653
S'0x0300'
p3083
sg21
S'+S4'
p3084
stRp3085
ag3
(g4
g5
(dp3086
g2804
S'Tempobj revisions'
p3087
sg2653
S'0x0400'
p3088
sg21
S'+S5'
p3089
stRp3090
ag3
(g4
g5
(dp3091
g2804
S'Tempobj revisions'
p3092
sg2653
S'0x0500'
p3093
sg21
S'+S6'
p3094
stRp3095
ag3
(g4
g5
(dp3096
g2804
S'Tempobj revisions'
p3097
sg2653
S'0x0600'
p3098
sg21
S'+S7'
p3099
stRp3100
ag3
(g4
g5
(dp3101
g2804
S'Tempobj revisions'
p3102
sg2653
S'0x0700'
p3103
sg21
S'+S8'
p3104
stRp3105
ag3
(g4
g5
(dp3106
g2804
S'Tempobj revisions'
p3107
sg2653
S'0x0800'
p3108
sg21
S'+S9'
p3109
stRp3110
ag3
(g4
g5
(dp3111
g2804
S'Tempobj revisions'
p3112
sg2653
S'0x0900'
p3113
sg21
S'+S10'
p3114
stRp3115
ag3
(g4
g5
(dp3116
g2804
S'Tempobj revisions'
p3117
sg2653
S'0x0A00'
p3118
sg21
S'+S16'
p3119
stRp3120
ag3
(g4
g5
(dp3121
g2804
S'Tempobj revisions'
p3122
sg2653
S'0x0B00'
p3123
sg21
S'+S32'
p3124
stRp3125
ag3
(g4
g5
(dp3126
g2804
S'Tempobj revisions'
p3127
sg2653
S'0x0C00'
p3128
sg21
S'+S64'
p3129
stRp3130
ag3
(g4
g5
(dp3131
g2804
S'Tempobj revisions'
p3132
sg2653
S'0x0D00'
p3133
sg21
S'+S128'
p3134
stRp3135
ag3
(g4
g5
(dp3136
g2804
S'Tempobj revisions'
p3137
sg2653
S'0x0E00'
p3138
sg21
S'+S256'
p3139
stRp3140
ag3
(g4
g5
(dp3141
g2804
S'Tempobj revisions'
p3142
sg2653
S'0x0F00'
p3143
sg21
S'+S512'
p3144
stRp3145
ag3
(g4
g5
(dp3146
g2804
S'Client Type'
p3147
sg2653
S'0x0000000'
p3148
sg21
S'text'
p3149
stRp3150
ag3
(g4
g5
(dp3151
g2804
S'Client Type'
p3152
sg2653
S'0x0010000'
p3153
sg21
S'binary'
p3154
stRp3155
ag3
(g4
g5
(dp3156
g2804
S'Client Type'
p3157
sg2653
S'0x0020000'
p3158
sg21
S'executable bit set'
p3159
stRp3160
ag3
(g4
g5
(dp3161
g2804
S'Client Type'
p3162
sg2653
S'0x0040000'
p3163
sg21
S'symlink'
p3164
stRp3165
ag3
(g4
g5
(dp3166
g2804
S'Client Type'
p3167
sg2653
S'0x0050000'
p3168
sg21
S'resource fork'
p3169
stRp3170
ag3
(g4
g5
(dp3171
g2804
S'Client Type'
p3172
sg2653
S'0x0080000'
p3173
sg21
S'unicode'
p3174
stRp3175
ag3
(g4
g5
(dp3176
g2804
S'Client Type'
p3177
sg2653
S'0x0090000'
p3178
sg21
S'raw text (nocrlf - 99.1)'
p3179
stRp3180
ag3
(g4
g5
(dp3181
g2804
S'Client Type'
p3182
sg2653
S'0x00C0000'
p3183
sg21
S'apple data + resource file (since 2000.2)'
p3184
stRp3185
ag3
(g4
g5
(dp3186
g2804
S'Client Type'
p3187
sg2653
S'0x00D0000'
p3188
sg21
S'apple data + resource file (99.2)'
p3189
stRp3190
ag3
(g4
g5
(dp3191
g2804
S'Client Type'
p3192
sg2653
S'0x1000000'
p3193
sg21
S'Used to support filetype detection'
p3194
stRp3195
ag3
(g4
g5
(dp3196
g2804
S'Client Mods'
p3197
sg2653
S'0x0100000'
p3198
sg21
S'writable'
p3199
stRp3200
ag3
(g4
g5
(dp3201
g2804
S'Client Mods'
p3202
sg2653
S'0x0200000'
p3203
sg21
S'modtime'
p3204
stRp3205
ag3
(g4
g5
(dp3206
g2804
S'Client Mods'
p3207
sg2653
S'0x0400000'
p3208
sg21
S'uncompress on client'
p3209
stRp3210
atRp3211
sg17
S'FileType'
p3212
sg2804
g3
(g8
g9
(lp3213
g3
(g4
g5
(dp3214
g17
S'Storage Type'
p3215
sg2653
S'0x000F'
p3216
sg21
S"Bits used to store the server's storage type"
p3217
stRp3218
ag3
(g4
g5
(dp3219
g17
S'Storage Mods'
p3220
sg2653
S'0x00F0'
p3221
sg21
S"Bits used to store the modifiers to the server's storage \n\t\t    type"
p3222
stRp3223
ag3
(g4
g5
(dp3224
g17
S'Tempobj revisions'
p3225
sg2653
S'0x0F00'
p3226
sg21
S'Bits used to store the number of revisions to be stored\n\t\t    for +Sn files.'
p3227
stRp3228
ag3
(g4
g5
(dp3229
g17
S'Client Type'
p3230
sg2653
S'0x10D0000'
p3231
sg21
S"Bits used to store the file type from the client's point\n\t\t    of view."
p3232
stRp3233
ag3
(g4
g5
(dp3234
g17
S'Client Mods'
p3235
sg2653
S'0x720000'
p3236
sg21
S'Bits used to store the modifiers applied to the file\n\t\t    on the client.'
p3237
stRp3238
atRp3239
sg2648
S'Type of file'
p3240
sg19
S'bitmask'
p3241
sg21
S'The FileType is a bitmask specifying the type and modifiers\n\t\tof a revision from both the client and server points of view.\n\t\tThe first 16 bits are used to store the storage type and \n\t\tmodifiers, the next 16 bits are used to store the client \n\t\taccess method and modifiers.'
p3242
stRp3243
ag3
(g4
g5
(dp3244
g2648
S'Status of a fixed job'
p3245
sg19
S'string'
p3246
sg17
S'FixStatus'
p3247
sg21
S'This type is a wrapper around the \'Text\' type that handles\n\t\tthe pre-2000.1 "closed" default value.'
p3248
stRp3249
ag3
(g4
g5
(dp3250
g2648
S'A 32-bit integer'
p3251
sg19
S'integer'
p3252
sg17
S'Int'
p3253
sg21
S'A 32-bit integer'
p3254
stRp3255
ag3
(g4
g5
(dp3256
g2648
S'An 8-bit integer'
p3257
sg19
S'integer'
p3258
sg17
S'Int8'
p3259
sg21
S'An 8-bit integer: an unsigned char'
p3260
stRp3261
ag3
(g4
g5
(dp3262
g2648
S'A 64-bit integer'
p3263
sg19
S'integer'
p3264
sg17
S'Int64'
p3265
sg21
S'A 64-bit integer.'
p3266
stRp3267
ag3
(g4
g5
(dp3268
g257
S'All integration records should have a corresponding \n\t\treverse record. The \'branch from\' (2) and \'merge from\' (0) \n\t\trecords have corresponding "dirty" reverse records for cases \n\t\twhere the target file took more than one change or was \n\t\t(re)opened for \'edit\' or \'add\'.'
p3269
sg2650
g3
(g8
g9
(lp3270
g3
(g4
g5
(dp3271
g2653
S'0'
sg21
S'merge from: integration with other changes'
p3272
stRp3273
ag3
(g4
g5
(dp3274
g2653
S'1'
sg21
S'merge into: reverse merge'
p3275
stRp3276
ag3
(g4
g5
(dp3277
g2653
S'2'
sg21
S'branch from: integration was branch of file'
p3278
stRp3279
ag3
(g4
g5
(dp3280
g2653
S'3'
sg21
S'branch into: reverse branch'
p3281
stRp3282
ag3
(g4
g5
(dp3283
g2653
S'4'
sg21
S'copy from: integration took source file whole'
p3284
stRp3285
ag3
(g4
g5
(dp3286
g2653
S'5'
sg21
S'copy into: reverse take'
p3287
stRp3288
ag3
(g4
g5
(dp3289
g2653
S'6'
sg21
S'ignored: integration ignored source changes'
p3290
stRp3291
ag3
(g4
g5
(dp3292
g2653
S'7'
sg21
S'ignored by: reverse copy'
p3293
stRp3294
ag3
(g4
g5
(dp3295
g2653
S'8'
sg21
S'delete from: integration of delete'
p3296
stRp3297
ag3
(g4
g5
(dp3298
g2653
S'9'
sg21
S'delete into: reverse delete'
p3299
stRp3300
ag3
(g4
g5
(dp3301
g2653
S'10'
p3302
sg21
S'edit into: reverse of integration downgraded to \n\t\t    edit'
p3303
stRp3304
ag3
(g4
g5
(dp3305
g2653
S'11'
p3306
sg21
S'add into: reverse of branch downgraded to add'
p3307
stRp3308
ag3
(g4
g5
(dp3309
g2653
S'12'
p3310
sg21
S'edit from: merge that the user edited'
p3311
stRp3312
ag3
(g4
g5
(dp3313
g2653
S'13'
p3314
sg21
S'add from: branch downgraded to add'
p3315
stRp3316
ag3
(g4
g5
(dp3317
g2653
S'14'
p3318
sg21
S'moved from: reverse of renamed file'
p3319
stRp3320
ag3
(g4
g5
(dp3321
g2653
S'15'
p3322
sg21
S'moved into: file was renamed'
p3323
stRp3324
ag3
(g4
g5
(dp3325
g2653
S'16'
p3326
sg21
S"'delete' target rev ignoring non-deleted source"
p3327
stRp3328
ag3
(g4
g5
(dp3329
g2653
S'17'
p3330
sg21
S"non-deleted source ignored by 'delete' target rev"
p3331
stRp3332
ag3
(g4
g5
(dp3333
g2653
S'18'
p3334
sg21
S"'integrate' target rev ignoring deleted source"
p3335
stRp3336
ag3
(g4
g5
(dp3337
g2653
S'19'
p3338
sg21
S"deleted source ignored by 'integrate' target rev"
p3339
stRp3340
ag3
(g4
g5
(dp3341
g2653
S'20'
p3342
sg21
S'deleted branch ("branch from")'
p3343
stRp3344
ag3
(g4
g5
(dp3345
g2653
S'21'
p3346
sg21
S'deleted branch ("delete into")'
p3347
stRp3348
atRp3349
sg17
S'IntegHow'
p3350
sg2648
S'Integration methods'
p3351
sg19
S'flag'
p3352
sg21
S"Specifies how an integration was performed. Integrations\n\t\talways come in pairs: the 'forward' and 'reverse' records.\n\t\tAs a general rule, the forward records contain the word \n\t\t'from'; and the reverse records contain the word 'into'."
p3353
stRp3354
ag3
(g4
g5
(dp3355
g19
S'flag'
p3356
sg2648
S'Job status - defunct'
p3357
sg2650
g3
(g8
g9
(lp3358
g3
(g4
g5
(dp3359
g2653
S'0'
sg21
S'open'
p3360
stRp3361
ag3
(g4
g5
(dp3362
g2653
S'1'
sg21
S'closed'
p3363
stRp3364
ag3
(g4
g5
(dp3365
g2653
S'2'
sg21
S'suspended'
p3366
stRp3367
atRp3368
sg17
S'JobStat'
p3369
sg21
S'Old (pre-98.2) job status values.'
p3370
stRp3371
ag3
(g4
g5
(dp3372
g2648
S'A key name'
p3373
sg19
S'string'
p3374
sg17
S'Key'
p3375
sg21
S'A string representing the key name. Key names must \n\t\tcontain no spaces, contain no slashes, and be identifiers \n\t\t(cannot begin with a dash and cannot be all-numeric)'
p3376
stRp3377
ag3
(g4
g5
(dp3378
g19
S'flag'
p3379
sg2648
S'Types of mapping'
p3380
sg2650
g3
(g8
g9
(lp3381
g3
(g4
g5
(dp3382
g2653
S'0'
sg21
S'mapped-in (the default)'
p3383
stRp3384
ag3
(g4
g5
(dp3385
g2653
S'1'
sg21
S"mapped-out (mappings that start with '-')"
p3386
stRp3387
ag3
(g4
g5
(dp3388
g2653
S'2'
sg21
S"overlay (mappings that start with '+')"
p3389
stRp3390
ag3
(g4
g5
(dp3391
g2653
S'3'
sg21
S"haveMap (mappings that start with '$'). Used internally\n\t\t    only"
p3392
stRp3393
ag3
(g4
g5
(dp3394
g2653
S'4'
sg21
S"changeMap (mappings that start with '@')"
p3395
stRp3396
atRp3397
sg17
S'MapFlag'
p3398
sg21
S'Specifies how the files specified by a mapping should be\n\t\ttreated'
p3399
stRp3400
ag3
(g4
g5
(dp3401
g2648
S'A string representing a mapping'
p3402
sg19
S'string'
p3403
sg17
S'Mapping'
p3404
sg21
S'A Mapping is essentially a file name that may contain\n\t\twildcards'
p3405
stRp3406
ag3
(g4
g5
(dp3407
g2648
S'Maximum number of milliseconds to hold locks'
p3408
sg19
S'integer'
p3409
sg17
S'MaxLockTime'
p3410
sg21
S"The number of milliseconds for which a command may hold locks.\n\t\tCommands that take longer than this time period will abort. \n\t\tThe value 0 means 'unlimited'."
p3411
stRp3412
ag3
(g4
g5
(dp3413
g2648
S'Maximum number of results permitted'
p3414
sg19
S'integer'
p3415
sg17
S'MaxResults'
p3416
sg21
S"The number of results that commands run by the restricted\n\t\tuser are permitted to return. The value 0 means 'unlimited'."
p3417
stRp3418
ag3
(g4
g5
(dp3419
g2648
S'Maximum number of records scanned'
p3420
sg19
S'integer'
p3421
sg17
S'MaxScanRows'
p3422
sg21
S"The maximum number of records that the server may read\n\t\ton behalf of the restricted user. The value 0 means \n\t\t'unlimited'."
p3423
stRp3424
ag3
(g4
g5
(dp3425
g2648
S'Encoded hex string'
p3426
sg19
S'string'
p3427
sg17
S'Octet String'
p3428
sg21
S'A variable length encoded hex string. The first octet \n\t\tstores the length of the string.'
p3429
stRp3430
ag3
(g4
g5
(dp3431
g2648
S'The MD5 hash of a password'
p3432
sg19
S'string'
p3433
sg17
S'Password'
p3434
sg21
S'The MD5 hash of an encrypted password.'
p3435
stRp3436
ag3
(g4
g5
(dp3437
g2650
g3
(g8
g9
(lp3438
g3
(g4
g5
(dp3439
g2804
S'PermTypeBits'
p3440
sg17
S'None'
p3441
sg2653
S'0x0000'
p3442
sg21
S'none'
p3443
stRp3444
ag3
(g4
g5
(dp3445
g2804
S'PermTypeBits'
p3446
sg17
S'List'
p3447
sg2653
S'0x0001'
p3448
sg21
S'Grants list access'
p3449
stRp3450
ag3
(g4
g5
(dp3451
g2804
S'PermTypeBits'
p3452
sg17
S'Read'
p3453
sg2653
S'0x0002'
p3454
sg21
S'Grants read access'
p3455
stRp3456
ag3
(g4
g5
(dp3457
g2804
S'PermTypeBits'
p3458
sg17
S'Branch'
p3459
sg2653
S'0x0004'
p3460
sg21
S'Grants ability to branch/integ from'
p3461
stRp3462
ag3
(g4
g5
(dp3463
g2804
S'PermTypeBits'
p3464
sg17
S'Open'
p3465
sg2653
S'0x0008'
p3466
sg21
S'Grants open access'
p3467
stRp3468
ag3
(g4
g5
(dp3469
g2804
S'PermTypeBits'
p3470
sg17
S'Write'
p3471
sg2653
S'0x0010'
p3472
sg21
S'Grants write access'
p3473
stRp3474
ag3
(g4
g5
(dp3475
g2804
S'PermTypeBits'
p3476
sg17
S'Review'
p3477
sg2653
S'0x0020'
p3478
sg21
S'Grants review access'
p3479
stRp3480
ag3
(g4
g5
(dp3481
g2804
S'PermTypeBits'
p3482
sg17
S'Admin'
p3483
sg2653
S'0x0080'
p3484
sg21
S'Grants admin access'
p3485
stRp3486
ag3
(g4
g5
(dp3487
g2804
S'PermTypeBits'
p3488
sg17
S'Super'
p3489
sg2653
S'0x0040'
p3490
sg21
S'Grants super-user access'
p3491
stRp3492
atRp3493
sg17
S'Perm'
p3494
sg2804
g3
(g4
g5
(dp3495
g17
S'PermTypeBits'
p3496
sg2653
S'0x00FF'
p3497
sg21
S'Bits used to store granted permissions'
p3498
stRp3499
sg2648
S'Bitmask of permissions'
p3500
sg19
S'bitmask'
p3501
sg21
S'A bitmask of granted permissions'
p3502
stRp3503
ag3
(g4
g5
(dp3504
g19
S'flag'
p3505
sg2648
S'Archive pull transfer status'
p3506
sg2650
g3
(g8
g9
(lp3507
g3
(g4
g5
(dp3508
g17
S'new'
p3509
sg2653
S'new'
p3510
sg21
S'new transfer'
p3511
stRp3512
ag3
(g4
g5
(dp3513
g17
S'active'
p3514
sg2653
S'active'
p3515
sg21
S'active transfer'
p3516
stRp3517
ag3
(g4
g5
(dp3518
g17
S'done'
p3519
sg2653
S'done'
p3520
sg21
S'completed transfer'
p3521
stRp3522
ag3
(g4
g5
(dp3523
g17
S'error'
p3524
sg2653
S'error'
p3525
sg21
S'errored transfer'
p3526
stRp3527
ag3
(g4
g5
(dp3528
g17
S'restart'
p3529
sg2653
S'restart'
p3530
sg21
S'restarted transfer'
p3531
stRp3532
ag3
(g4
g5
(dp3533
g17
S'cancelled'
p3534
sg2653
S'cancelled'
p3535
sg21
S'cancelled transfer'
p3536
stRp3537
atRp3538
sg17
S'PullStatus'
p3539
sg21
S'The status of an archive pull transfer'
p3540
stRp3541
ag3
(g4
g5
(dp3542
g2648
S'A remote name'
p3543
sg19
S'string'
p3544
sg17
S'RemoteID'
p3545
sg21
S'A string representing the name of a remote spec'
p3546
stRp3547
ag3
(g4
g5
(dp3548
g19
S'flag'
p3549
sg2648
S'Resolve actions'
p3550
sg2650
g3
(g8
g9
(lp3551
g3
(g4
g5
(dp3552
g2653
S'0'
sg21
S'Content resolve'
p3553
stRp3554
ag3
(g4
g5
(dp3555
g2653
S'1'
sg21
S'Filetype resolve'
p3556
stRp3557
ag3
(g4
g5
(dp3558
g2653
S'2'
sg21
S'Branch resolve'
p3559
stRp3560
ag3
(g4
g5
(dp3561
g2653
S'3'
sg21
S'Delete resolve'
p3562
stRp3563
ag3
(g4
g5
(dp3564
g2653
S'4'
sg21
S'Move resolve'
p3565
stRp3566
ag3
(g4
g5
(dp3567
g2653
S'5'
sg21
S'Attribute resolve'
p3568
stRp3569
ag3
(g4
g5
(dp3570
g2653
S'6'
sg21
S'Charset resolve'
p3571
stRp3572
atRp3573
sg17
S'ResolveState'
p3574
sg21
S'Pending or completed resolve actions.'
p3575
stRp3576
ag3
(g4
g5
(dp3577
g19
S'flag'
p3578
sg2648
S'Resolve methods (obsolete in 2011.1, replaced by ResolveState)'
p3579
sg2650
g3
(g8
g9
(lp3580
g3
(g4
g5
(dp3581
g2653
S'0'
sg21
S'Not yet resolved'
p3582
stRp3583
ag3
(g4
g5
(dp3584
g2653
S'1'
sg21
S'Resolved manually'
p3585
stRp3586
ag3
(g4
g5
(dp3587
g2653
S'2'
sg21
S'Resolved automatically as part of a branch'
p3588
stRp3589
ag3
(g4
g5
(dp3590
g2653
S'3'
sg21
S'Resolved automatically as part of a delete'
p3591
stRp3592
ag3
(g4
g5
(dp3593
g2653
S'4'
sg21
S'Resolved automatically as part of a move'
p3594
stRp3595
atRp3596
sg17
S'ResolvedStatus'
p3597
sg21
S'Specifies how the user resolved merge operations.'
p3598
stRp3599
ag3
(g4
g5
(dp3600
g2648
S'A revision number'
p3601
sg19
S'integer'
p3602
sg17
S'Rev'
p3603
sg21
S"The positive integer number of a specific revision of a file. \n\t\tThe number 0 represents '#none'."
p3604
stRp3605
ag3
(g4
g5
(dp3606
g2650
g3
(g8
g9
(lp3607
g3
(g4
g5
(dp3608
g2804
S'RevStatusBits'
p3609
sg2653
S'0x0000'
p3610
sg21
S'single revision with content'
p3611
stRp3612
ag3
(g4
g5
(dp3613
g2804
S'RevStatusBits'
p3614
sg2653
S'0x0001'
p3615
sg21
S'single revision lazy copied'
p3616
stRp3617
ag3
(g4
g5
(dp3618
g2804
S'RevStatusBits'
p3619
sg2653
S'0x0002'
p3620
sg21
S'revision task sparse'
p3621
stRp3622
ag3
(g4
g5
(dp3623
g2804
S'RevStatusBits'
p3624
sg2653
S'0x0004'
p3625
sg21
S'revision task branch'
p3626
stRp3627
ag3
(g4
g5
(dp3628
g2804
S'RevCharsetBits'
p3629
sg2653
S'0'
sg21
S'NONE'
p3630
stRp3631
ag3
(g4
g5
(dp3632
g2804
S'RevCharsetBits'
p3633
sg2653
S'1'
sg21
S'UTF_8'
p3634
stRp3635
ag3
(g4
g5
(dp3636
g2804
S'RevCharsetBits'
p3637
sg2653
S'2'
sg21
S'ISO8859_1'
p3638
stRp3639
ag3
(g4
g5
(dp3640
g2804
S'RevCharsetBits'
p3641
sg2653
S'3'
sg21
S'UTF_16'
p3642
stRp3643
ag3
(g4
g5
(dp3644
g2804
S'RevCharsetBits'
p3645
sg2653
S'4'
sg21
S'SHIFTJIS'
p3646
stRp3647
ag3
(g4
g5
(dp3648
g2804
S'RevCharsetBits'
p3649
sg2653
S'5'
sg21
S'EUCJP'
p3650
stRp3651
ag3
(g4
g5
(dp3652
g2804
S'RevCharsetBits'
p3653
sg2653
S'6'
sg21
S'WIN_US_ANSI'
p3654
stRp3655
ag3
(g4
g5
(dp3656
g2804
S'RevCharsetBits'
p3657
sg2653
S'7'
sg21
S'WIN_US_OEM'
p3658
stRp3659
ag3
(g4
g5
(dp3660
g2804
S'RevCharsetBits'
p3661
sg2653
S'8'
sg21
S'MACOS_ROMAN'
p3662
stRp3663
ag3
(g4
g5
(dp3664
g2804
S'RevCharsetBits'
p3665
sg2653
S'9'
sg21
S'ISO8859_15'
p3666
stRp3667
ag3
(g4
g5
(dp3668
g2804
S'RevCharsetBits'
p3669
sg2653
S'10'
p3670
sg21
S'ISO8859_5'
p3671
stRp3672
ag3
(g4
g5
(dp3673
g2804
S'RevCharsetBits'
p3674
sg2653
S'11'
p3675
sg21
S'KOI8_R'
p3676
stRp3677
ag3
(g4
g5
(dp3678
g2804
S'RevCharsetBits'
p3679
sg2653
S'12'
p3680
sg21
S'WIN_CP_1251'
p3681
stRp3682
ag3
(g4
g5
(dp3683
g2804
S'RevCharsetBits'
p3684
sg2653
S'13'
p3685
sg21
S'UTF_16_LE'
p3686
stRp3687
ag3
(g4
g5
(dp3688
g2804
S'RevCharsetBits'
p3689
sg2653
S'14'
p3690
sg21
S'UTF_16_BE'
p3691
stRp3692
ag3
(g4
g5
(dp3693
g2804
S'RevCharsetBits'
p3694
sg2653
S'15'
p3695
sg21
S'UTF_16_LE_BOM'
p3696
stRp3697
ag3
(g4
g5
(dp3698
g2804
S'RevCharsetBits'
p3699
sg2653
S'16'
p3700
sg21
S'UTF_16_BE_BOM'
p3701
stRp3702
ag3
(g4
g5
(dp3703
g2804
S'RevCharsetBits'
p3704
sg2653
S'17'
p3705
sg21
S'UTF_16_BOM'
p3706
stRp3707
ag3
(g4
g5
(dp3708
g2804
S'RevCharsetBits'
p3709
sg2653
S'18'
p3710
sg21
S'UTF_8_BOM'
p3711
stRp3712
ag3
(g4
g5
(dp3713
g2804
S'RevCharsetBits'
p3714
sg2653
S'19'
p3715
sg21
S'UTF_32'
p3716
stRp3717
ag3
(g4
g5
(dp3718
g2804
S'RevCharsetBits'
p3719
sg2653
S'20'
p3720
sg21
S'UTF_32_LE'
p3721
stRp3722
ag3
(g4
g5
(dp3723
g2804
S'RevCharsetBits'
p3724
sg2653
S'21'
p3725
sg21
S'UTF_32_BE'
p3726
stRp3727
ag3
(g4
g5
(dp3728
g2804
S'RevCharsetBits'
p3729
sg2653
S'22'
p3730
sg21
S'UTF_32_LE_BOM'
p3731
stRp3732
ag3
(g4
g5
(dp3733
g2804
S'RevCharsetBits'
p3734
sg2653
S'23'
p3735
sg21
S'UTF_32_BE_BOM'
p3736
stRp3737
ag3
(g4
g5
(dp3738
g2804
S'RevCharsetBits'
p3739
sg2653
S'24'
p3740
sg21
S'UTF_32_BOM'
p3741
stRp3742
ag3
(g4
g5
(dp3743
g2804
S'RevCharsetBits'
p3744
sg2653
S'25'
p3745
sg21
S'UTF_8_UNCHECKED'
p3746
stRp3747
ag3
(g4
g5
(dp3748
g2804
S'RevCharsetBits'
p3749
sg2653
S'26'
p3750
sg21
S'UTF_8_UNCHECKED_BOM'
p3751
stRp3752
ag3
(g4
g5
(dp3753
g2804
S'RevCharsetBits'
p3754
sg2653
S'27'
p3755
sg21
S'CP949'
p3756
stRp3757
ag3
(g4
g5
(dp3758
g2804
S'RevCharsetBits'
p3759
sg2653
S'28'
p3760
sg21
S'CP936'
p3761
stRp3762
ag3
(g4
g5
(dp3763
g2804
S'RevCharsetBits'
p3764
sg2653
S'29'
p3765
sg21
S'CP950'
p3766
stRp3767
ag3
(g4
g5
(dp3768
g2804
S'RevCharsetBits'
p3769
sg2653
S'30'
p3770
sg21
S'CP850'
p3771
stRp3772
ag3
(g4
g5
(dp3773
g2804
S'RevCharsetBits'
p3774
sg2653
S'31'
p3775
sg21
S'CP858'
p3776
stRp3777
atRp3778
sg17
S'RevStatus'
p3779
sg2804
g3
(g8
g9
(lp3780
g3
(g4
g5
(dp3781
g17
S'RevStatusBits'
p3782
sg2653
S'0x000F'
p3783
sg21
S'Bits used to store revision status'
p3784
stRp3785
ag3
(g4
g5
(dp3786
g17
S'RevCharsetBits'
p3787
sg2653
S'0x007F'
p3788
sg21
S'Bits used to store revision charset (high 8 bits). Value shifted right 24 bits before applying mask'
p3789
stRp3790
atRp3791
sg2648
S'A revision status'
p3792
sg19
S'bitmask'
p3793
sg21
S'Lazy copy, task stream promotion, and charset status'
p3794
stRp3795
ag3
(g4
g5
(dp3796
g2648
S'Type of reviewer'
p3797
sg19
S'integer'
p3798
sg17
S'Reviewer'
p3799
sg21
S'The type of reviewer. Currently there is only one type of\n\t\treviewer and 0 is the only valid value.'
p3800
stRp3801
ag3
(g4
g5
(dp3802
g19
S'flag'
p3803
sg2648
S'The type of server'
p3804
sg2650
g3
(g8
g9
(lp3805
g3
(g4
g5
(dp3806
g2653
S'0'
sg21
S'server'
p3807
stRp3808
ag3
(g4
g5
(dp3809
g2653
S'1'
sg21
S'proxy'
p3810
stRp3811
ag3
(g4
g5
(dp3812
g2653
S'2'
sg21
S'broker'
p3813
stRp3814
ag3
(g4
g5
(dp3815
g2653
S'3'
sg21
S'identifier'
p3816
stRp3817
ag3
(g4
g5
(dp3818
g2653
S'4'
sg21
S'admin'
p3819
stRp3820
atRp3821
sg17
S'ServerType'
p3822
sg21
S'The type of server'
p3823
stRp3824
ag3
(g4
g5
(dp3825
g2650
g3
(g8
g9
(lp3826
g3
(g4
g5
(dp3827
g2804
S'Service Set Value'
p3828
sg2653
S'0x0903'
p3829
sg21
S'standard \t\t( db-read | db-write | rmt-depot | rmt-journal )'
p3830
stRp3831
ag3
(g4
g5
(dp3832
g2804
S'Service Set Value'
p3833
sg2653
S'0x0045'
p3834
sg21
S'replica \t\t( db-read | db-replication | file-replication | rmt-depot | rmt-journal )'
p3835
stRp3836
ag3
(g4
g5
(dp3837
g2804
S'Service Set Value'
p3838
sg2653
S'0x0030'
p3839
sg21
S'broker ( brokering | forwarding )'
p3840
stRp3841
ag3
(g4
g5
(dp3842
g2804
S'Service Set Value'
p3843
sg2653
S'0x00A0'
p3844
sg21
S'proxy ( forwarding | file-cacheing )'
p3845
stRp3846
ag3
(g4
g5
(dp3847
g2804
S'Service Set Value'
p3848
sg2653
S'0x00E5'
p3849
sg21
S'forwarding-replica ( db-read | db-replication | forwarding | file-replication | file-cacheing | rmt-depot | rmt-journal )'
p3850
stRp3851
ag3
(g4
g5
(dp3852
g2804
S'Service Set Value'
p3853
sg2653
S'0x004D'
p3854
sg21
S'build-server ( db-read | db-replicaton | bound-clients | file-replication | rmt-depot | rmt-journal )'
p3855
stRp3856
ag3
(g4
g5
(dp3857
g2804
S'Service Set Value'
p3858
sg2653
S'0x0203'
p3859
sg21
S'P4AUTH ( db-read | db-write | rmt-auth )'
p3860
stRp3861
ag3
(g4
g5
(dp3862
g2804
S'Service Set Value'
p3863
sg2653
S'0x0403'
p3864
sg21
S'P4CHANGE ( db-read | db-write | rmt-change )'
p3865
stRp3866
ag3
(g4
g5
(dp3867
g2804
S'Service Set Value'
p3868
sg2653
S'0x19ED'
p3869
sg21
S'edge-server ( db-read | db-replication | bound-clients | forwarding | file-replication | file-cacheing | rmt-depot | rmt-journal | local-opens )'
p3870
stRp3871
ag3
(g4
g5
(dp3872
g2804
S'Service Set Value'
p3873
sg2653
S'0x2F03'
p3874
sg21
S'commit-server ( db-read | db-write | rmt-depot | rmt-journal | rmt-change | rmt-auth | commit-server )'
p3875
stRp3876
ag3
(g4
g5
(dp3877
g2804
S'Service Set Value'
p3878
sg2653
S'0x6F03'
p3879
sg21
S'depot-master ( db-read | db-write | rmt-depot | rmt-journal | rmt-change | rmt-auth | commit-server | p4zk-managed )'
p3880
stRp3881
ag3
(g4
g5
(dp3882
g2804
S'Service Set Value'
p3883
sg2653
S'0xC945'
p3884
sg21
S'depot-standby ( db-read | db-replication | file-replication | rmt-depot | rmt-journal | journal-copy | p4zk-managed )'
p3885
stRp3886
ag3
(g4
g5
(dp3887
g2804
S'Service Set Value'
p3888
sg2653
S'0x59ED'
p3889
sg21
S'workspace-server ( db-read | db-replication | bound-clients | forwarding | file-replication | file-cacheing | rmt-depot | rmt-journal | local-opens | p4zk-managed )'
p3890
stRp3891
ag3
(g4
g5
(dp3892
g2804
S'Service Set Value'
p3893
sg2653
S'0x8945'
p3894
sg21
S'standby ( db-read | db-replication | file-replication | rmt-depot | rmt-journal | journal-copy )'
p3895
stRp3896
ag3
(g4
g5
(dp3897
g2804
S'Service Set Value'
p3898
sg2653
S'0x89E5'
p3899
sg21
S'forwarding-standby ( db-read | db-replication | forwarding | file-replication | file-cacheing | rmt-depot | rmt-journal | journal-copy )'
p3900
stRp3901
ag3
(g4
g5
(dp3902
g2804
S'Service Set Value'
p3903
sg2653
S'0x4030'
p3904
sg21
S'workspace-router ( brokering | forwarding | p4zk-managed )'
p3905
stRp3906
ag3
(g4
g5
(dp3907
g2804
S'Service Set Value'
p3908
sg2653
S'0x10003'
p3909
sg21
S'local ( db-read | db-write | dvcs-local )'
p3910
stRp3911
ag3
(g4
g5
(dp3912
g2804
S'Service Set Value'
p3913
sg2653
S'0x20000'
p3914
sg21
S'cluster ( cluster-id )'
p3915
stRp3916
ag3
(g4
g5
(dp3917
g2804
S'Service Set Value'
p3918
sg2653
S'0x40000'
p3919
sg21
S'zookeeper-server ( zookeeper-server )'
p3920
stRp3921
ag3
(g4
g5
(dp3922
g2804
S'Service Set Value'
p3923
sg2653
S'0x80000'
p3924
sg21
S'hxca-server ( hxca-server )'
p3925
stRp3926
ag3
(g4
g5
(dp3927
g2804
S'Service Property'
p3928
sg2653
S'0x0001'
p3929
sg21
S'db-read'
p3930
stRp3931
ag3
(g4
g5
(dp3932
g2804
S'Service Property'
p3933
sg2653
S'0x0002'
p3934
sg21
S'db-write'
p3935
stRp3936
ag3
(g4
g5
(dp3937
g2804
S'Service Property'
p3938
sg2653
S'0x0004'
p3939
sg21
S'db-replication'
p3940
stRp3941
ag3
(g4
g5
(dp3942
g2804
S'Service Property'
p3943
sg2653
S'0x0008'
p3944
sg21
S'bound-clients'
p3945
stRp3946
ag3
(g4
g5
(dp3947
g2804
S'Service Property'
p3948
sg2653
S'0x0010'
p3949
sg21
S'brokering'
p3950
stRp3951
ag3
(g4
g5
(dp3952
g2804
S'Service Property'
p3953
sg2653
S'0x0020'
p3954
sg21
S'forwarding'
p3955
stRp3956
ag3
(g4
g5
(dp3957
g2804
S'Service Property'
p3958
sg2653
S'0x0040'
p3959
sg21
S'file-replication'
p3960
stRp3961
ag3
(g4
g5
(dp3962
g2804
S'Service Property'
p3963
sg2653
S'0x0080'
p3964
sg21
S'file-cacheing'
p3965
stRp3966
ag3
(g4
g5
(dp3967
g2804
S'Service Property'
p3968
sg2653
S'0x0100'
p3969
sg21
S'rmt-depot'
p3970
stRp3971
ag3
(g4
g5
(dp3972
g2804
S'Service Property'
p3973
sg2653
S'0x0200'
p3974
sg21
S'rmt-auth'
p3975
stRp3976
ag3
(g4
g5
(dp3977
g2804
S'Service Property'
p3978
sg2653
S'0x0400'
p3979
sg21
S'rmt-change'
p3980
stRp3981
ag3
(g4
g5
(dp3982
g2804
S'Service Property'
p3983
sg2653
S'0x0800'
p3984
sg21
S'rmt-journal'
p3985
stRp3986
ag3
(g4
g5
(dp3987
g2804
S'Service Property'
p3988
sg2653
S'0x1000'
p3989
sg21
S'local-opens'
p3990
stRp3991
ag3
(g4
g5
(dp3992
g2804
S'Service Property'
p3993
sg2653
S'0x2000'
p3994
sg21
S'commit-server'
p3995
stRp3996
ag3
(g4
g5
(dp3997
g2804
S'Service Property'
p3998
sg2653
S'0x4000'
p3999
sg21
S'p4zk-managed'
p4000
stRp4001
ag3
(g4
g5
(dp4002
g2804
S'Service Property'
p4003
sg2653
S'0x8000'
p4004
sg21
S'journal-copy'
p4005
stRp4006
ag3
(g4
g5
(dp4007
g2804
S'Service Property'
p4008
sg2653
S'0x10000'
p4009
sg21
S'dvcs-local'
p4010
stRp4011
ag3
(g4
g5
(dp4012
g2804
S'Service Property'
p4013
sg2653
S'0x20000'
p4014
sg21
S'cluster-id'
p4015
stRp4016
ag3
(g4
g5
(dp4017
g2804
S'Service Property'
p4018
sg2653
S'0x40000'
p4019
sg21
S'zookeeper'
p4020
stRp4021
ag3
(g4
g5
(dp4022
g2804
S'Service Property'
p4023
sg2653
S'0x80000'
p4024
sg21
S'hxca'
p4025
stRp4026
atRp4027
sg17
S'ServerServiceType'
p4028
sg2804
g3
(g8
g9
(lp4029
g3
(g4
g5
(dp4030
g17
S'Service Set Value'
p4031
sg2653
S'None'
p4032
sg21
S"The server service type setting is generated by OR'ing the generic ServerServiceProperties defined below"
p4033
stRp4034
ag3
(g4
g5
(dp4035
g17
S'Service Property'
p4036
sg2653
S'None'
p4037
sg21
S'ServerServiceProperties: Bits used to identify generic server properties'
p4038
stRp4039
atRp4040
sg2648
S'The type of server service'
p4041
sg19
S'bitmask'
p4042
sg21
S'The services offered by a type of service.'
p4043
stRp4044
ag3
(g4
g5
(dp4045
g19
S'flag'
p4046
sg2648
S'Stash type'
p4047
sg2650
g3
(g8
g9
(lp4048
g3
(g4
g5
(dp4049
g2653
S'0'
sg21
S'switch: A shelf with work-in-progress for a particular stream/branch'
p4050
stRp4051
ag3
(g4
g5
(dp4052
g2653
S'1'
sg21
S"tangent: Work-in-progress relocated by 'p4 fetch -t'. Consumed and removed by 'p4 resubmit'"
p4053
stRp4054
atRp4055
sg17
S'StashType'
p4056
sg21
S'Stash type'
p4057
stRp4058
ag3
(g4
g5
(dp4059
g19
S'flag'
p4060
sg2648
S'Server specification view type'
p4061
sg2650
g3
(g8
g9
(lp4062
g3
(g4
g5
(dp4063
g2653
S'0'
sg21
S'ClientDataFilter'
p4064
stRp4065
ag3
(g4
g5
(dp4066
g2653
S'1'
sg21
S'RevisionDataFilter'
p4067
stRp4068
ag3
(g4
g5
(dp4069
g2653
S'2'
sg21
S'ArchiveDataFilter'
p4070
stRp4071
atRp4072
sg17
S'SvrViewType'
p4073
sg21
S'Server specification view type'
p4074
stRp4075
ag3
(g4
g5
(dp4076
g2650
g3
(g8
g9
(lp4077
g3
(g4
g5
(dp4078
g2804
S'Stream Status'
p4079
sg2653
S'0x0000'
p4080
sg21
S'Clear cache'
p4081
stRp4082
ag3
(g4
g5
(dp4083
g2804
S'Stream Status'
p4084
sg2653
S'0x0001'
p4085
sg21
S'Needs copy'
p4086
stRp4087
ag3
(g4
g5
(dp4088
g2804
S'Stream Status'
p4089
sg2653
S'0x0002'
p4090
sg21
S'Copy up-to-date'
p4091
stRp4092
ag3
(g4
g5
(dp4093
g2804
S'Stream Status'
p4094
sg2653
S'0x0004'
p4095
sg21
S'Needs merge'
p4096
stRp4097
ag3
(g4
g5
(dp4098
g2804
S'Stream Status'
p4099
sg2653
S'0x0008'
p4100
sg21
S'Merge up-to-date'
p4101
stRp4102
atRp4103
sg17
S'StreamStatus'
p4104
sg2804
g3
(g4
g5
(dp4105
g17
S'Stream Status'
p4106
sg2653
S'Copy: 0x0003, Merge: 0x000C'
p4107
sg21
S'Bits used to store the stream integration status'
p4108
stRp4109
sg2648
S'Stream integration status'
p4110
sg19
S'bitmask'
p4111
sg21
S'The stream integration status.'
p4112
stRp4113
ag3
(g4
g5
(dp4114
g19
S'flag'
p4115
sg2648
S'Type of stream path'
p4116
sg2650
g3
(g8
g9
(lp4117
g3
(g4
g5
(dp4118
g2653
S'0'
sg21
S'share'
p4119
stRp4120
ag3
(g4
g5
(dp4121
g2653
S'1'
sg21
S'isolate'
p4122
stRp4123
ag3
(g4
g5
(dp4124
g2653
S'2'
sg21
S'import'
p4125
stRp4126
ag3
(g4
g5
(dp4127
g2653
S'3'
sg21
S'exclude'
p4128
stRp4129
ag3
(g4
g5
(dp4130
g2653
S'4'
sg21
S'remapped'
p4131
stRp4132
ag3
(g4
g5
(dp4133
g2653
S'5'
sg21
S'ignored'
p4134
stRp4135
ag3
(g4
g5
(dp4136
g2653
S'6'
sg21
S'inclusive'
p4137
stRp4138
ag3
(g4
g5
(dp4139
g2653
S'7'
sg21
S'import+'
p4140
stRp4141
atRp4142
sg17
S'StreamPathType'
p4143
sg21
S'The path type for file paths in a stream view.'
p4144
stRp4145
ag3
(g4
g5
(dp4146
g19
S'flag'
p4147
sg2648
S'Type of stream'
p4148
sg2650
g3
(g8
g9
(lp4149
g3
(g4
g5
(dp4150
g2653
S'0'
sg21
S'mainline'
p4151
stRp4152
ag3
(g4
g5
(dp4153
g2653
S'1'
sg21
S'release'
p4154
stRp4155
ag3
(g4
g5
(dp4156
g2653
S'2'
sg21
S'development'
p4157
stRp4158
ag3
(g4
g5
(dp4159
g2653
S'3'
sg21
S'virtual'
p4160
stRp4161
ag3
(g4
g5
(dp4162
g2653
S'4'
sg21
S'task'
p4163
stRp4164
ag3
(g4
g5
(dp4165
g2653
S'5'
sg21
S'task - unloaded'
p4166
stRp4167
atRp4168
sg17
S'StreamType'
p4169
sg21
S'The type of stream.'
p4170
stRp4171
ag3
(g4
g5
(dp4172
g19
S'flag'
p4173
sg2648
S'Strength check of a password'
p4174
sg2650
g3
(g8
g9
(lp4175
g3
(g4
g5
(dp4176
g2653
S'0'
sg21
S'Strength unknown'
p4177
stRp4178
ag3
(g4
g5
(dp4179
g2653
S'1'
sg21
S'Password is strong'
p4180
stRp4181
ag3
(g4
g5
(dp4182
g2653
S'2'
sg21
S'Unset'
p4183
stRp4184
atRp4185
sg17
S'Strength'
p4186
sg21
S"Whether or not a user's password has been tested for strength."
p4187
stRp4188
ag3
(g4
g5
(dp4189
S'restriction'
p4190
g3
(g8
g9
(lp4191
S'Cannot be empty'
p4192
aS'Cannot consist solely of a dash (-)'
p4193
aS'Cannot be all-numeric'
p4194
aS'Cannot contain non-printable characters'
p4195
aS'Spaces are replaced with underscores ( _ )'
p4196
aS'Revision characters (# and @) are prohibited'
p4197
aS'Slashes (/) are prohibited'
p4198
aS'Wildcards (... and *) are prohibited'
p4199
atRp4200
sg2648
S'A string up to 1024 characters long'
p4201
sg19
S'string'
p4202
sg17
S'String'
p4203
sg21
S'A string up to 1024 characters in length.  Depending on the \n\t\tcontext in which the string is used, restrictions \n\t\tmay apply. Strings are often used as key fields in the \n\t\tschema.'
p4204
stRp4205
ag3
(g4
g5
(dp4206
g19
S'flag'
p4207
sg2648
S'Tamper-state of workspace file'
p4208
sg2650
g3
(g8
g9
(lp4209
g3
(g4
g5
(dp4210
g2653
S'0'
sg21
S'Do not check for tampering'
p4211
stRp4212
ag3
(g4
g5
(dp4213
g2653
S'1'
sg21
S'Check for tampering'
p4214
stRp4215
ag3
(g4
g5
(dp4216
g2653
S'2'
sg21
S'Tamper-check failed'
p4217
stRp4218
atRp4219
sg17
S'TamperCheck'
p4220
sg21
S'Indicates the tamper-state of a file in a workspace. This\n\t\tis used to decide whether or not to check the file, and\n\t\tif checked, to hold the result.'
p4221
stRp4222
ag3
(g4
g5
(dp4223
g2648
S'A string value'
p4224
sg19
S'string'
p4225
sg17
S'Text'
p4226
sg21
S'A text string value - used to hold longer blocks of text.'
p4227
stRp4228
ag3
(g4
g5
(dp4229
g2648
S'The id of a group of traits'
p4230
sg19
S'integer'
p4231
sg17
S'TraitLot'
p4232
sg21
S'An integer identifying a group of traits which may be\n\t\tshared by several revisions.'
p4233
stRp4234
ag3
(g4
g5
(dp4235
g19
S'flag'
p4236
sg2648
S'A type of trait'
p4237
sg2650
g3
(g8
g9
(lp4238
g3
(g4
g5
(dp4239
g2653
S'0'
sg21
S'Special trait for reference counting'
p4240
stRp4241
ag3
(g4
g5
(dp4242
g2653
S'1'
sg21
S'Binary trait'
p4243
stRp4244
ag3
(g4
g5
(dp4245
g2653
S'2'
sg21
S'Binary trait that gets propagated'
p4246
stRp4247
atRp4248
sg17
S'TraitType'
p4249
sg21
S'The type of trait.'
p4250
stRp4251
ag3
(g4
g5
(dp4252
g19
S'flag'
p4253
sg2648
S'A type of trigger'
p4254
sg2650
g3
(g8
g9
(lp4255
g3
(g4
g5
(dp4256
g2653
S'0'
sg21
S'change-submit (formerly pre-submit triggers)'
p4257
stRp4258
ag3
(g4
g5
(dp4259
g2653
S'1'
sg21
S'change-content'
p4260
stRp4261
ag3
(g4
g5
(dp4262
g2653
S'2'
sg21
S'change-commit'
p4263
stRp4264
ag3
(g4
g5
(dp4265
g2653
S'3'
sg21
S'form-in'
p4266
stRp4267
ag3
(g4
g5
(dp4268
g2653
S'4'
sg21
S'form-out'
p4269
stRp4270
ag3
(g4
g5
(dp4271
g2653
S'5'
sg21
S'form-save'
p4272
stRp4273
ag3
(g4
g5
(dp4274
g2653
S'6'
sg21
S'form-delete'
p4275
stRp4276
ag3
(g4
g5
(dp4277
g2653
S'7'
sg21
S'form-commit'
p4278
stRp4279
ag3
(g4
g5
(dp4280
g2653
S'8'
sg21
S'auth-check'
p4281
stRp4282
ag3
(g4
g5
(dp4283
g2653
S'9'
sg21
S'auth-check-sso'
p4284
stRp4285
ag3
(g4
g5
(dp4286
g2653
S'10'
p4287
sg21
S'auth-set'
p4288
stRp4289
ag3
(g4
g5
(dp4290
g2653
S'11'
p4291
sg21
S'fix-add'
p4292
stRp4293
ag3
(g4
g5
(dp4294
g2653
S'12'
p4295
sg21
S'fix-delete'
p4296
stRp4297
ag3
(g4
g5
(dp4298
g2653
S'13'
p4299
sg21
S'archive'
p4300
stRp4301
ag3
(g4
g5
(dp4302
g2653
S'14'
p4303
sg21
S'shelve-submit'
p4304
stRp4305
ag3
(g4
g5
(dp4306
g2653
S'15'
p4307
sg21
S'shelve-commit'
p4308
stRp4309
ag3
(g4
g5
(dp4310
g2653
S'16'
p4311
sg21
S'shelve-delete'
p4312
stRp4313
ag3
(g4
g5
(dp4314
g2653
S'17'
p4315
sg21
S'service-check'
p4316
stRp4317
ag3
(g4
g5
(dp4318
g2653
S'18'
p4319
sg21
S'edge-submit'
p4320
stRp4321
ag3
(g4
g5
(dp4322
g2653
S'19'
p4323
sg21
S'edge-content'
p4324
stRp4325
ag3
(g4
g5
(dp4326
g2653
S'20'
p4327
sg21
S'change-failed'
p4328
stRp4329
ag3
(g4
g5
(dp4330
g2653
S'21'
p4331
sg21
S'command'
p4332
stRp4333
ag3
(g4
g5
(dp4334
g2653
S'22'
p4335
sg21
S'push-submit'
p4336
stRp4337
ag3
(g4
g5
(dp4338
g2653
S'23'
p4339
sg21
S'push-content'
p4340
stRp4341
ag3
(g4
g5
(dp4342
g2653
S'24'
p4343
sg21
S'push-commit'
p4344
stRp4345
ag3
(g4
g5
(dp4346
g2653
S'25'
p4347
sg21
S'journal-rotate'
p4348
stRp4349
ag3
(g4
g5
(dp4350
g2653
S'26'
p4351
sg21
S'journal-rotate-lock'
p4352
stRp4353
atRp4354
sg17
S'Trigger'
p4355
sg21
S'The type of a trigger.'
p4356
stRp4357
ag3
(g4
g5
(dp4358
g2648
S'A user or group name'
p4359
sg21
S'The name of a Helix Server user or group.'
p4360
sg19
S'string'
p4361
sg17
S'User'
p4362
sg173
S'String'
p4363
stRp4364
ag3
(g4
g5
(dp4365
g19
S'flag'
p4366
sg2648
S'User functionality level'
p4367
sg2650
g3
(g8
g9
(lp4368
g3
(g4
g5
(dp4369
g2653
S'0'
sg21
S'standard'
p4370
stRp4371
ag3
(g4
g5
(dp4372
g2653
S'1'
sg21
S'service'
p4373
stRp4374
ag3
(g4
g5
(dp4375
g2653
S'2'
sg21
S'operator'
p4376
stRp4377
atRp4378
sg17
S'UserLevel'
p4379
sg21
S'User functionality level'
p4380
stRp4381
ag3
(g4
g5
(dp4382
g2650
g3
(g8
g9
(lp4383
g3
(g4
g5
(dp4384
g2804
S'UserTypeBits'
p4385
sg17
S'User'
p4386
sg2653
S'0x0001'
p4387
sg21
S'User is an ordinary user'
p4388
stRp4389
ag3
(g4
g5
(dp4390
g2804
S'UserTypeBits'
p4391
sg17
S'SubGroup'
p4392
sg2653
S'0x0002'
p4393
sg21
S'Group is a sub-group'
p4394
stRp4395
ag3
(g4
g5
(dp4396
g2804
S'UserTypeBits'
p4397
sg17
S'Owner'
p4398
sg2653
S'0x0004'
p4399
sg21
S'User is the owner of a group'
p4400
stRp4401
atRp4402
sg17
S'UserType'
p4403
sg2804
g3
(g4
g5
(dp4404
g17
S'UserTypeBits'
p4405
sg2653
S'0x0007'
p4406
sg21
S'Bits used to store the role of a user in a group'
p4407
stRp4408
sg2648
S'The role of a user within a group'
p4409
sg19
S'bitmask'
p4410
sg21
S'The role of a user (or group) within a group.'
p4411
stRp4412
ag3
(g4
g5
(dp4413
g2648
S'A user or group name with wildcards'
p4414
sg21
S'A user/group name that may contain wildcards (*)'
p4415
sg19
S'string'
p4416
sg17
S'UserWild'
p4417
sg173
S'User'
p4418
stRp4419
ag3
(g4
g5
(dp4420
g2648
S'A number or a string'
p4421
sg19
S'string'
p4422
sg17
S'Value'
p4423
sg21
S'A number, stored in a string, or a string'
p4424
stRp4425
atRp4426
stRp4427
s.