(dp1
S'tables'
p2
ccopy_reg
_reconstructor
p3
(clib.sqUtils
Storage
p4
c__builtin__
dict
p5
(dp6
S'table'
p7
g3
(clib.sqUtils
Lst
p8
c__builtin__
list
p9
(lp10
g3
(g4
g5
(dp11
S'version'
p12
S'1'
sS'keying'
p13
S'serverName, name'
p14
sS'name'
p15
S'db.config'
p16
sS'type'
p17
S'Config'
p18
sS'lockseq'
p19
S'1'
sS'desc'
p20
S'Server configurations table'
p21
stRp22
ag3
(g4
g5
(dp23
g12
S'1'
sg13
S'name'
p24
sg15
S'db.counters'
p25
sg17
S'Counters'
p26
sg19
S'2'
sg20
S'Counters table'
p27
stRp28
ag3
(g4
g5
(dp29
g12
S'1'
sg13
S'name'
p30
sg15
S'db.nameval'
p31
sg17
S'Keys'
p32
sg19
S'3'
sg20
S'A table to store key/value pairs'
p33
stRp34
ag3
(g4
g5
(dp35
g12
S'0'
sg13
S'seq'
p36
sg15
S'db.logger'
p37
sg17
S'Logger'
p38
sg19
S'4'
sg20
S"Support for 'p4 logger' command. Logs any changes to \n\t\tchangelists and jobs"
p39
stRp40
ag3
(g4
g5
(dp41
g12
S'0'
sg13
S'name'
p42
sg15
S'db.ldap'
p43
sg17
S'Ldap'
p44
sg19
S'5'
sg20
S'LDAP specifications'
p45
stRp46
ag3
(g4
g5
(dp47
g12
S'2'
sg13
S'id'
p48
sg15
S'db.server'
p49
sg17
S'Server'
p50
sg19
S'6'
sg20
S'Server specifications'
p51
stRp52
ag3
(g4
g5
(dp53
g12
S'0'
sg13
S'id, type, seq'
p54
sg15
S'db.svrview'
p55
sg17
S'SvrView'
p56
sg19
S'7'
sg20
S'View data for servers specifications'
p57
stRp58
ag3
(g4
g5
(dp59
g12
S'1'
sg13
S'id'
p60
sg15
S'db.remote'
p61
sg17
S'Remote'
p62
sg19
S'8'
sg20
S'Remote specifications'
p63
stRp64
ag3
(g4
g5
(dp65
g12
S'1'
sg13
S'id, seq'
p66
sg15
S'db.rmtview'
p67
sg17
S'RmtView'
p68
sg19
S'9'
sg20
S'View data for remote specifications'
p69
stRp70
ag3
(g4
g5
(dp71
g12
S'0'
sg13
S'client, stream, type, seq'
p72
sg15
S'db.stash'
p73
sg17
S'Stash'
p74
sg19
S'10'
p75
sg20
S'Stash data'
p76
stRp77
ag3
(g4
g5
(dp78
g12
S'7'
sg13
S'user'
p79
sg15
S'db.user.rp'
p80
sg17
S'User'
p81
sg19
S'11'
p82
sg20
S"Used by replica server's to store login information"
p83
stRp84
ag3
(g4
g5
(dp85
g12
S'7'
sg13
S'user'
p86
sg15
S'db.user'
p87
sg17
S'User'
p88
sg19
S'12'
p89
sg20
S'User specifications'
p90
stRp91
ag3
(g4
g5
(dp92
g12
S'0'
sg13
S'user, host'
p93
sg15
S'db.ticket.rp'
p94
sg17
S'Ticket'
p95
sg19
S'13'
p96
sg20
S'Second factor authentication state on a per user/host basis (replica)'
p97
stRp98
ag3
(g4
g5
(dp99
g12
S'0'
sg13
S'user, host'
p100
sg15
S'db.ticket'
p101
sg17
S'Ticket'
p102
sg19
S'14'
p103
sg20
S'Second factor authentication state on a per user/host basis'
p104
stRp105
ag3
(g4
g5
(dp106
g12
S'9'
sg13
S'user, group'
p107
sg15
S'db.group'
p108
sg17
S'Group'
p109
sg19
S'15'
p110
sg20
S'Group specifications'
p111
stRp112
ag3
(g4
g5
(dp113
g12
S'1'
sg13
S'group'
p114
sg15
S'db.groupx'
p115
sg17
S'GroupX'
p116
sg19
S'16'
p117
sg20
S'Per-group data to support group membership controlled by AD/LDAP group membership'
p118
stRp119
ag3
(g4
g5
(dp120
g12
S'1'
sg13
S'name'
p121
sg15
S'db.depot'
p122
sg17
S'Depot'
p123
sg19
S'17'
p124
sg20
S'Depot specifications'
p125
stRp126
ag3
(g4
g5
(dp127
g12
S'1'
sg13
S'stream'
p128
sg15
S'db.stream'
p129
sg17
S'Stream'
p130
sg19
S'18'
p131
sg20
S'Stream specifications'
p132
stRp133
ag3
(g4
g5
(dp134
g12
S'7'
sg13
S'name'
p135
sg15
S'db.domain'
p136
sg17
S'Domain'
p137
sg19
S'19'
p138
sg20
S'Domains: depots, clients, labels, branches, streams, and typemap'
p139
stRp140
ag3
(g4
g5
(dp141
g12
S'2'
sg13
S'name, change, sequence'
p142
sg15
S'db.template'
p143
sg17
S'Template'
p144
sg19
S'20'
p145
sg20
S'Streams templates'
p146
stRp147
ag3
(g4
g5
(dp148
g12
S'0'
sg13
S'shelf, name, sequence'
p149
sg15
S'db.templatesx'
p150
sg17
S'TemplateSx'
p151
sg19
S'21'
p152
sg20
S'Shelved stream templates'
p153
stRp154
ag3
(g4
g5
(dp155
g12
S'0'
sg13
S'client, name, sequence'
p156
sg15
S'db.templatewx'
p157
sg17
S'TemplateWx'
p158
sg19
S'22'
p159
sg20
S'Pending stream templates'
p160
stRp161
ag3
(g4
g5
(dp162
g12
S'1'
sg13
S'name seq'
p163
sg15
S'db.view.rp'
p164
sg17
S'View'
p165
sg19
S'23'
p166
sg20
S'View data for clients of build-server replicas'
p167
stRp168
ag3
(g4
g5
(dp169
g12
S'1'
sg13
S'name, seq'
p170
sg15
S'db.view'
p171
sg17
S'View'
p172
sg19
S'24'
p173
sg20
S'View data for domain records'
p174
stRp175
ag3
(g4
g5
(dp176
g12
S'1'
sg13
S'name, domain'
p177
sg15
S'db.haveview'
p178
sg17
S'View'
p179
sg19
S'25'
p180
sg20
S'Stores mapping changes for clients mapping graph depot content'
p181
stRp182
ag3
(g4
g5
(dp183
g12
S'1'
sg13
S'user, seq'
p184
sg15
S'db.review'
p185
sg17
S'Review'
p186
sg19
S'26'
p187
sg20
S"User's review mappings"
p188
stRp189
ag3
(g4
g5
(dp190
g12
S'0'
sg13
S'name, depotFile'
p191
sg15
S'db.label'
p192
sg17
S'Label'
p193
sg19
S'27'
p194
sg20
S'Revisions of files in labels'
p195
stRp196
ag3
(g4
g5
(dp197
g12
S'3'
sg13
S'clientFile depotFile haveRev'
p198
sg15
S'db.have.rp'
p199
sg17
S'Have'
p200
sg19
S'28'
p201
sg20
S"Contains the 'have-list' for clients of build-server replicas"
p202
stRp203
ag3
(g4
g5
(dp204
g12
S'3'
sg13
S'clientFile depotFile haveRev'
p205
sg15
S'db.have.pt'
p206
sg17
S'Have'
p207
sg19
S'29'
p208
sg20
S'Placeholder for read-only clients'
p209
stRp210
ag3
(g4
g5
(dp211
g12
S'3'
sg13
S'clientFile'
p212
sg15
S'db.have'
p213
sg17
S'Have'
p214
sg19
S'30'
p215
sg20
S"Contains the 'have-list' for all clients"
p216
stRp217
ag3
(g4
g5
(dp218
g12
S'0'
sg13
S'toFile, fromFile, startFromRev, endFromRev, \n\t\tstartToRev, endToRev'
p219
sg15
S'db.integed'
p220
sg20
S'Permanent integration records'
p221
sg17
S'Integed'
p222
sg19
S'31'
p223
sS'seeAlso'
p224
S'db.resolve'
p225
stRp226
ag3
(g4
g5
(dp227
g12
S'0'
sg13
S'toFile, fromFile, startFromRev, endFromRev, \n\t\tstartToRev, endToRev'
p228
sg15
S'db.integtx'
p229
sg20
S'Temporary integration records used by task streams'
p230
sg17
S'Integed'
p231
sg19
S'32'
p232
sg224
S'db.resolve'
p233
stRp234
ag3
(g4
g5
(dp235
g12
S'1'
sg13
S'toFile, fromFile, startFromRev'
p236
sg15
S'db.resolve'
p237
sg20
S'Pending integration records'
p238
sg17
S'Resolve'
p239
sg19
S'33'
p240
sg224
S'db.integed'
p241
stRp242
ag3
(g4
g5
(dp243
g12
S'1'
sg13
S'toFile, fromFile, startFromRev'
p244
sg15
S'db.resolvex'
p245
sg20
S'Pending integration records for shelved files'
p246
sg17
S'Resolve'
p247
sg19
S'34'
p248
sg224
S'db.integed'
p249
stRp250
ag3
(g4
g5
(dp251
g12
S'0'
sg13
S'toFile, fromFile, baseSHA'
p252
sg15
S'db.resolveg'
p253
sg20
S'Resolve records for clients of type graph'
p254
sg17
S'ResolveG'
p255
sg19
S'35'
p256
sg224
S'db.integed'
p257
stRp258
ag3
(g4
g5
(dp259
S'note'
p260
S'Supersedes db.archive'
p261
sg12
S'0'
sg13
S'lbrFile, depotFile'
p262
sg20
S'Mapping entries for lazy-copies'
p263
sg17
S'ArchMap'
p264
sg19
S'36'
p265
sg15
S'db.archmap'
p266
stRp267
ag3
(g4
g5
(dp268
g12
S'9'
sg13
S'depotFile'
p269
sg15
S'db.revdx'
p270
sg17
S'Rev'
p271
sg19
S'37'
p272
sg20
S'Revision records for revisions deleted at the head revision'
p273
stRp274
ag3
(g4
g5
(dp275
g12
S'9'
sg13
S'depotFile'
p276
sg15
S'db.revhx'
p277
sg17
S'Rev'
p278
sg19
S'38'
p279
sg20
S'Revision records for revisions NOT deleted at the head revision'
p280
stRp281
ag3
(g4
g5
(dp282
g260
S'Only populated during content trigger execution to allow \n\t\ttriggers access to the revisions being submitted.'
p283
sg12
S'9'
sg13
S'depotFile, depotRev'
p284
sg20
S'Pending revision records'
p285
sg17
S'Rev'
p286
sg19
S'39'
p287
sg15
S'db.revpx'
p288
stRp289
ag3
(g4
g5
(dp290
g12
S'9'
sg13
S'depotFile, depotRev'
p291
sg15
S'db.revsx'
p292
sg17
S'Rev'
p293
sg19
S'40'
p294
sg20
S'Revision records for spec depot files'
p295
stRp296
ag3
(g4
g5
(dp297
g12
S'9'
sg13
S'depotFile, depotRev, type, action, change'
p298
sg15
S'db.revsh'
p299
sg17
S'Rev'
p300
sg19
S'41'
p301
sg20
S'Revision records for shelved files'
p302
stRp303
ag3
(g4
g5
(dp304
g12
S'9'
sg13
S'depotFile, depotRev'
p305
sg15
S'db.revbx'
p306
sg17
S'Rev'
p307
sg19
S'42'
p308
sg20
S'Revision records for archived files'
p309
stRp310
ag3
(g4
g5
(dp311
g12
S'9'
sg13
S'depotFile'
p312
sg15
S'db.revux'
p313
sg17
S'Rev'
p314
sg19
S'43'
p315
sg20
S'Revision records for unload depot files'
p316
stRp317
ag3
(g4
g5
(dp318
g12
S'0'
sg13
S'change, depotFile'
p319
sg15
S'db.revcx'
p320
sg17
S'RevCx'
p321
sg19
S'44'
p322
sg20
S'Secondary index of db.rev'
p323
stRp324
ag3
(g4
g5
(dp325
g12
S'9'
sg13
S'depotFile, depotRev'
p326
sg15
S'db.rev'
p327
sg17
S'Rev'
p328
sg19
S'45'
p329
sg20
S'Revision records'
p330
stRp331
ag3
(g4
g5
(dp332
g12
S'9'
sg13
S'depotFile, depotRev'
p333
sg15
S'db.revtx'
p334
sg17
S'Rev'
p335
sg19
S'46'
p336
sg20
S'Task stream revision records'
p337
stRp338
ag3
(g4
g5
(dp339
g12
S'2'
sg13
S'depotFile, client'
p340
sg15
S'db.locks'
p341
sg17
S'Locks'
p342
sg19
S'47'
p343
sg20
S'Locked/Unlocked files'
p344
stRp345
ag3
(g4
g5
(dp346
g12
S'2'
sg13
S'depotFile, client'
p347
sg15
S'db.locksg'
p348
sg17
S'Locks'
p349
sg19
S'48'
p350
sg20
S'Lock records for clients of type graph'
p351
stRp352
ag3
(g4
g5
(dp353
g12
S'10'
p354
sg13
S'clientFile'
p355
sg15
S'db.working'
p356
sg17
S'Working'
p357
sg19
S'49'
p358
sg20
S'Records for work in progress'
p359
stRp360
ag3
(g4
g5
(dp361
g12
S'10'
p362
sg13
S'clientFile'
p363
sg15
S'db.workingx'
p364
sg17
S'Working'
p365
sg19
S'50'
p366
sg20
S'Records for shelved open files'
p367
stRp368
ag3
(g4
g5
(dp369
g12
S'0'
sg13
S'clientFile'
p370
sg15
S'db.workingg'
p371
sg17
S'WorkingG'
p372
sg19
S'51'
p373
sg20
S'Working records for clients of type graph'
p374
stRp375
ag3
(g4
g5
(dp376
g12
S'1'
sg13
S'depotFile'
p377
sg15
S'db.excl'
p378
sg17
S'ExclusiveLock'
p379
sg19
S'52'
p380
sg20
S'Exclusively locked (+l) files -  enables coordinated file locking in commit/edge server environments'
p381
stRp382
ag3
(g4
g5
(dp383
g12
S'0'
sg13
S'traitLot, name'
p384
sg15
S'db.traits'
p385
sg17
S'Trait'
p386
sg19
S'53'
p387
sg20
S'Attributes associated with file revisions'
p388
stRp389
ag3
(g4
g5
(dp390
g12
S'3'
sg13
S'seq'
p391
sg15
S'db.trigger'
p392
sg17
S'Trigger'
p393
sg19
S'54'
p394
sg20
S'Trigger specifications'
p395
stRp396
ag3
(g4
g5
(dp397
g12
S'4'
sg13
S'change'
p398
sg15
S'db.change'
p399
sg17
S'Change'
p400
sg19
S'55'
p401
sg20
S'Changelists'
p402
stRp403
ag3
(g4
g5
(dp404
g260
S'contains records for pending changelists only.'
p405
sg12
S'4'
sg13
S'change'
p406
sg20
S'Subset of db.change - records for pending changelists only'
p407
sg17
S'Change'
p408
sg19
S'56'
p409
sg15
S'db.changex'
p410
stRp411
ag3
(g4
g5
(dp412
g12
S'1'
sg13
S'identity'
p413
sg15
S'db.changeidx'
p414
sg17
S'ChangeIdx'
p415
sg19
S'57'
p416
sg20
S'Secondary index of db.change/db.changex'
p417
stRp418
ag3
(g4
g5
(dp419
g12
S'0'
sg13
S'descKey'
p420
sg15
S'db.desc'
p421
sg17
S'Desc'
p422
sg19
S'58'
p423
sg20
S'Change descriptions'
p424
stRp425
ag3
(g4
g5
(dp426
g12
S'2'
sg13
S'repo'
p427
sg15
S'db.repo'
p428
sg17
S'Repo'
p429
sg19
S'59'
p430
sg20
S'Repository specifications'
p431
stRp432
ag3
(g4
g5
(dp433
g12
S'0'
sg13
S'repo, name, type, action, date, user, ref'
p434
sg15
S'db.refhist'
p435
sg17
S'RefHist'
p436
sg19
S'60'
p437
sg20
S'Reference history for graph depots'
p438
stRp439
ag3
(g4
g5
(dp440
g12
S'0'
sg13
S'repo, name, type'
p441
sg15
S'db.ref'
p442
sg17
S'Ref'
p443
sg19
S'61'
p444
sg20
S'Reference content for graph depots'
p445
stRp446
ag3
(g4
g5
(dp447
g12
S'0'
sg13
S'sha'
p448
sg15
S'db.object'
p449
sg17
S'Object'
p450
sg19
S'62'
p451
sg20
S'Object storage for graph depots'
p452
stRp453
ag3
(g4
g5
(dp454
g12
S'0'
sg13
S'id, name, date, blobsha, commitsha'
p455
sg15
S'db.graphindex'
p456
sg17
S'GraphIndex'
p457
sg19
S'63'
p458
sg20
S'Graph depot repository index data'
p459
stRp460
ag3
(g4
g5
(dp461
g12
S'0'
sg13
S'name, repo, ref, type, user, perm'
p462
sg15
S'db.graphperm'
p463
sg17
S'GraphPerm'
p464
sg19
S'64'
p465
sg20
S'Graph depot permissions'
p466
stRp467
ag3
(g4
g5
(dp468
g12
S'0'
sg13
S'repo, path'
p469
sg15
S'db.submodule'
p470
sg17
S'Submodule'
p471
sg19
S'65'
p472
sg20
S'Submodule configuration data'
p473
stRp474
ag3
(g4
g5
(dp475
g12
S'0'
sg13
S'user,scope'
p476
sg15
S'db.pubkey'
p477
sg17
S'PublicKey'
p478
sg19
S'66'
p479
sg20
S'SSH Public keys'
p480
stRp481
ag3
(g4
g5
(dp482
g12
S'0'
sg13
S'job'
p483
sg15
S'db.job'
p484
sg20
S'Job records'
p485
sg17
S'Job'
p486
sg19
S'67'
p487
sg224
S'db.bodtext'
p488
stRp489
ag3
(g4
g5
(dp490
g12
S'1'
sg13
S'job, change'
p491
sg15
S'db.fix'
p492
sg20
S'Fix records - indexed by job'
p493
sg17
S'Fix'
p494
sg19
S'68'
p495
sg224
S'db.fixrev'
p496
stRp497
ag3
(g4
g5
(dp498
g12
S'1'
sg13
S'change, job'
p499
sg15
S'db.fixrev'
p500
sg20
S'Fix records - indexed by change'
p501
sg17
S'Fix'
p502
sg19
S'69'
p503
sg224
S'db.fix'
p504
stRp505
ag3
(g4
g5
(dp506
g12
S'0'
sg13
S'type, client, toKey, attr, fromKey, fromChange'
p507
sg15
S'db.bodresolve'
p508
sg17
S'BodyResolve'
p509
sg19
S'70'
p510
sg20
S'Resolve data for stream specifications'
p511
stRp512
ag3
(g4
g5
(dp513
g12
S'1'
sg13
S'key, attr'
p514
sg15
S'db.bodtext'
p515
sg17
S'BodyText'
p516
sg19
S'71'
p517
sg20
S'Job data for job attributes'
p518
stRp519
ag3
(g4
g5
(dp520
g12
S'0'
sg13
S'type, key, change, attr'
p521
sg15
S'db.bodtextcx'
p522
sg17
S'BodyTextCx'
p523
sg19
S'72'
p524
sg20
S'Versioned openable spec fields (for future use)'
p525
stRp526
ag3
(g4
g5
(dp527
g12
S'0'
sg13
S'type, key, attr'
p528
sg15
S'db.bodtexthx'
p529
sg17
S'BodyTextHx'
p530
sg19
S'73'
p531
sg20
S'Head revision of spec fields (for future use)'
p532
stRp533
ag3
(g4
g5
(dp534
g12
S'0'
sg13
S'type, shelf, key, attr'
p535
sg15
S'db.bodtextsx'
p536
sg17
S'BodyTextSx'
p537
sg19
S'74'
p538
sg20
S'Shelved openable spec fields (for future use)'
p539
stRp540
ag3
(g4
g5
(dp541
g12
S'0'
sg13
S'type, client, key, attr'
p542
sg15
S'db.bodtextwx'
p543
sg17
S'BodyTextWx'
p544
sg19
S'75'
p545
sg20
S'Open openable spec fields (for future use)'
p546
stRp547
ag3
(g4
g5
(dp548
g12
S'0'
sg13
S'word, attr, value'
p549
sg15
S'db.ixtext'
p550
sg17
S'IndexText'
p551
sg19
S'76'
p552
sg20
S'Indexing data for generic and job attributes'
p553
stRp554
ag3
(g4
g5
(dp555
g12
S'0'
sg13
S'type, word, attr, value'
p556
sg15
S'db.ixtexthx'
p557
sg17
S'IndexTextHx'
p558
sg19
S'77'
p559
sg20
S'Indexing data for head revision of all spec fields (for future use)'
p560
stRp561
ag3
(g4
g5
(dp562
g12
S'0'
sg13
S'word, attr, value'
p563
sg15
S'db.uxtext'
p564
sg17
S'IndexText'
p565
sg19
S'78'
p566
sg20
S'Indexing data for Swarm'
p567
stRp568
ag3
(g4
g5
(dp569
g12
S'5'
sg13
S'seq'
p570
sg15
S'db.protect'
p571
sg17
S'Protect'
p572
sg19
S'79'
p573
sg20
S'The protections table'
p574
stRp575
ag3
(g4
g5
(dp576
g12
S'0'
sg13
S'name, seq, type, scope'
p577
sg15
S'db.property'
p578
sg17
S'Property'
p579
sg19
S'80'
p580
sg20
S'Properties'
p581
stRp582
ag3
(g4
g5
(dp583
g12
S'0'
sg13
S'language, id'
p584
sg15
S'db.message'
p585
sg17
S'Message'
p586
sg19
S'81'
p587
sg20
S'System messages'
p588
stRp589
ag3
(g4
g5
(dp590
g12
S'4'
sg13
S'taskid, seq'
p591
sg15
S'db.sendq'
p592
sg17
S'SendQ'
p593
sg19
S'82'
p594
sg20
S'Parallel file transmission work queue'
p595
stRp596
ag3
(g4
g5
(dp597
g12
S'0'
sg13
S'id'
p598
sg15
S'db.jnlack'
p599
sg17
S'JnlAck'
p600
sg19
S'83'
p601
sg20
S'Tracks journal positions of all standby servers'
p602
stRp603
ag3
(g4
g5
(dp604
g12
S'2'
sg13
S'id'
p605
sg15
S'db.monitor'
p606
sg17
S'Monitor'
p607
sg19
S'84'
p608
sg20
S'Helix Server process information'
p609
stRp610
ag3
(g4
g5
(dp611
g17
S'ReplicaArchiveTransfer'
p612
sg15
S'rdb.lbr'
p613
sg20
S'Replica server pending archive transfer table'
p614
stRp615
ag3
(g4
g5
(dp616
g17
S'TinyDb'
p617
sg13
S'fileAndRev'
p618
sg15
S'tiny.db'
p619
sg20
S'Records revision and content data for files using the +T file type modifier'
p620
stRp621
atRp622
stRp623
sg12
S'2017.2'
p624
sS'numUpgrades'
p625
S'28'
p626
sS'recordtypes'
p627
g3
(g4
g5
(dp628
S'record'
p629
g3
(g8
g9
(lp630
g3
(g4
g5
(dp631
S'column'
p632
g3
(g8
g9
(lp633
g3
(g4
g5
(dp634
g17
S'File'
p635
sg15
S'lbrFile'
p636
sg20
S"Specifies the location in the librarian's archives where\n\t\t    the revision may be found"
p637
stRp638
ag3
(g4
g5
(dp639
g17
S'String'
p640
sg15
S'lbrRev'
p641
sg20
S"Revision in the librarian's archives"
p642
stRp643
ag3
(g4
g5
(dp644
g17
S'File'
p645
sg15
S'depotFile'
p646
sg20
S'Name of the file in the depot'
p647
stRp648
ag3
(g4
g5
(dp649
g17
S'Rev'
p650
sg15
S'depotRev'
p651
sg20
S'Name of the file in the depot'
p652
stRp653
ag3
(g4
g5
(dp654
g17
S'FileType'
p655
sg15
S'lbrType'
p656
sg20
S"File type for librarian's purposes"
p657
stRp658
atRp659
sg15
S'Archive'
p660
stRp661
ag3
(g4
g5
(dp662
g632
g3
(g8
g9
(lp663
g3
(g4
g5
(dp664
g17
S'File'
p665
sg15
S'lbrFile'
p666
sg20
S'Paths in the librarian namespace that receive lazy\n\t\t    copies.'
p667
stRp668
ag3
(g4
g5
(dp669
g17
S'File'
p670
sg15
S'depotFile'
p671
sg20
S'Paths in the depot namespace that provide lazy copies.'
p672
stRp673
atRp674
sg15
S'ArchMap'
p675
stRp676
ag3
(g4
g5
(dp677
g632
g3
(g8
g9
(lp678
g3
(g4
g5
(dp679
g17
S'String'
p680
sg15
S'key'
p681
sg20
S'The job to which this attribute belongs'
p682
stRp683
ag3
(g4
g5
(dp684
g17
S'Int'
p685
sg15
S'attr'
p686
sg20
S'The attribute number (from the jobspec) of this attribute'
p687
stRp688
ag3
(g4
g5
(dp689
g17
S'Date'
p690
sg15
S'date'
p691
sg20
S'The date value itself'
p692
stRp693
atRp694
sg15
S'BodyDate'
p695
stRp696
ag3
(g4
g5
(dp697
g632
g3
(g8
g9
(lp698
g3
(g4
g5
(dp699
g17
S'SpecType'
p700
sg15
S'type'
p701
sg20
S'The spec type'
p702
stRp703
ag3
(g4
g5
(dp704
g17
S'Domain'
p705
sg15
S'client'
p706
sg20
S'The client name'
p707
stRp708
ag3
(g4
g5
(dp709
g17
S'String'
p710
sg15
S'toKey'
p711
sg20
S'To Key'
p712
stRp713
ag3
(g4
g5
(dp714
g17
S'Int'
p715
sg15
S'attr'
p716
sg20
S'The attribute value'
p717
stRp718
ag3
(g4
g5
(dp719
g17
S'String'
p720
sg15
S'fromKey'
p721
sg20
S'From key'
p722
stRp723
ag3
(g4
g5
(dp724
g17
S'Change'
p725
sg15
S'fromChange'
p726
sg20
S'From change'
p727
stRp728
ag3
(g4
g5
(dp729
g17
S'String'
p730
sg15
S'baseKey'
p731
sg20
S'Base Key'
p732
stRp733
ag3
(g4
g5
(dp734
g17
S'Change'
p735
sg15
S'baseChange'
p736
sg20
S'Base change'
p737
stRp738
atRp739
sg15
S'BodyResolve'
p740
stRp741
ag3
(g4
g5
(dp742
g632
g3
(g8
g9
(lp743
g3
(g4
g5
(dp744
g17
S'String'
p745
sg15
S'key'
p746
sg20
S'The job to which this attribute belongs'
p747
stRp748
ag3
(g4
g5
(dp749
g17
S'Int'
p750
sg15
S'attr'
p751
sg20
S'The attribute number (from the jobspec) of this attribute'
p752
stRp753
ag3
(g4
g5
(dp754
g17
S'Int'
p755
sg15
S'isBulk'
p756
sg20
S'Indicates whether (1), or not (0) the field is a bulk\n\t\t    text field that should not be indexed.'
p757
stRp758
ag3
(g4
g5
(dp759
g17
S'Text'
p760
sg15
S'text'
p761
sg20
S'The attribute value'
p762
stRp763
atRp764
sg15
S'BodyText'
p765
stRp766
ag3
(g4
g5
(dp767
g632
g3
(g8
g9
(lp768
g3
(g4
g5
(dp769
g17
S'Int'
p770
sg15
S'type'
p771
sg20
S'The type of spec'
p772
stRp773
ag3
(g4
g5
(dp774
g17
S'String'
p775
sg15
S'key'
p776
sg20
S'The spec to which this attribute belongs'
p777
stRp778
ag3
(g4
g5
(dp779
g17
S'Change'
p780
sg15
S'change'
p781
sg20
S'The change to which this attribute belongs'
p782
stRp783
ag3
(g4
g5
(dp784
g17
S'Int'
p785
sg15
S'attr'
p786
sg20
S'The attribute number of this attribute'
p787
stRp788
ag3
(g4
g5
(dp789
g17
S'Text'
p790
sg15
S'text'
p791
sg20
S'The attribute value'
p792
stRp793
atRp794
sg15
S'BodyTextCx'
p795
stRp796
ag3
(g4
g5
(dp797
g632
g3
(g8
g9
(lp798
g3
(g4
g5
(dp799
g17
S'Int'
p800
sg15
S'type'
p801
sg20
S'The type of spec'
p802
stRp803
ag3
(g4
g5
(dp804
g17
S'String'
p805
sg15
S'key'
p806
sg20
S'The spec to which this attribute belongs'
p807
stRp808
ag3
(g4
g5
(dp809
g17
S'Int'
p810
sg15
S'attr'
p811
sg20
S'The attribute number of this attribute'
p812
stRp813
ag3
(g4
g5
(dp814
g17
S'Int'
p815
sg15
S'bulk'
p816
sg20
S'Indicates whether (1), or not (0) the field is a bulk\n\t\t    text field that should not be indexed.'
p817
stRp818
ag3
(g4
g5
(dp819
g17
S'Text'
p820
sg15
S'text'
p821
sg20
S'The attribute value'
p822
stRp823
atRp824
sg15
S'BodyTextHx'
p825
stRp826
ag3
(g4
g5
(dp827
g632
g3
(g8
g9
(lp828
g3
(g4
g5
(dp829
g17
S'Int'
p830
sg15
S'type'
p831
sg20
S'The type of spec'
p832
stRp833
ag3
(g4
g5
(dp834
g17
S'Change'
p835
sg15
S'shelf'
p836
sg20
S'The shelf to which this attribute belongs'
p837
stRp838
ag3
(g4
g5
(dp839
g17
S'String'
p840
sg15
S'key'
p841
sg20
S'The spec to which this attribute belongs'
p842
stRp843
ag3
(g4
g5
(dp844
g17
S'Int'
p845
sg15
S'attr'
p846
sg20
S'The attribute number of this attribute'
p847
stRp848
ag3
(g4
g5
(dp849
g17
S'Text'
p850
sg15
S'text'
p851
sg20
S'The attribute value'
p852
stRp853
ag3
(g4
g5
(dp854
g17
S'Change'
p855
sg15
S'workChange'
p856
sg20
S'The working change'
p857
stRp858
atRp859
sg15
S'BodyTextSx'
p860
stRp861
ag3
(g4
g5
(dp862
g632
g3
(g8
g9
(lp863
g3
(g4
g5
(dp864
g17
S'Int'
p865
sg15
S'type'
p866
sg20
S'The type of spec'
p867
stRp868
ag3
(g4
g5
(dp869
g17
S'String'
p870
sg15
S'client'
p871
sg20
S'The client the spec is opened on'
p872
stRp873
ag3
(g4
g5
(dp874
g17
S'String'
p875
sg15
S'key'
p876
sg20
S'The spec to which this attribute belongs'
p877
stRp878
ag3
(g4
g5
(dp879
g17
S'Int'
p880
sg15
S'attr'
p881
sg20
S'The attribute number of this attribute'
p882
stRp883
ag3
(g4
g5
(dp884
g17
S'Text'
p885
sg15
S'text'
p886
sg20
S'The attribute value'
p887
stRp888
ag3
(g4
g5
(dp889
g17
S'Change'
p890
sg15
S'workChange'
p891
sg20
S'The working change'
p892
stRp893
atRp894
sg15
S'BodyTextWx'
p895
stRp896
ag3
(g4
g5
(dp897
g632
g3
(g8
g9
(lp898
g3
(g4
g5
(dp899
g17
S'Change'
p900
sg15
S'change'
p901
sg20
S'The change number'
p902
stRp903
ag3
(g4
g5
(dp904
g17
S'Change'
p905
sg15
S'descKey'
p906
sg20
S"The description key. Normally the same as 'change', but\n\t\t    may differ if a changelist was renumbered on submission."
p907
stRp908
ag3
(g4
g5
(dp909
g17
S'Domain'
p910
sg15
S'client'
p911
sg20
S'The client from which the change originates'
p912
stRp913
ag3
(g4
g5
(dp914
g17
S'User'
p915
sg15
S'user'
p916
sg20
S'The user who owns the change'
p917
stRp918
ag3
(g4
g5
(dp919
g17
S'Date'
p920
sg15
S'date'
p921
sg20
S'Date and time the changelist was submitted'
p922
stRp923
ag3
(g4
g5
(dp924
g17
S'ChangeStatus'
p925
sg15
S'status'
p926
sg20
S'Status of the change'
p927
stRp928
ag3
(g4
g5
(dp929
g17
S'DescShort'
p930
sg15
S'description'
p931
sg20
S'Short description of the change.'
p932
stRp933
ag3
(g4
g5
(dp934
g17
S'Mapping'
p935
sg15
S'root'
p936
sg20
S'Common path for all files in the changelist'
p937
stRp938
ag3
(g4
g5
(dp939
g17
S'String'
p940
sg15
S'importer'
p941
sg20
S'The user who fetched or pushed this change to this server'
p942
stRp943
ag3
(g4
g5
(dp944
g17
S'String'
p945
sg15
S'identify'
p946
sg20
S'Identifier for this change'
p947
stRp948
ag3
(g4
g5
(dp949
g17
S'Date'
p950
sg15
S'access'
p951
sg20
S'Shelve last access'
p952
stRp953
atRp954
sg15
S'Change'
p955
stRp956
ag3
(g4
g5
(dp957
g632
g3
(g8
g9
(lp958
g3
(g4
g5
(dp959
g17
S'String'
p960
sg15
S'identity'
p961
sg20
S'Identifier for this change'
p962
stRp963
ag3
(g4
g5
(dp964
g17
S'Change'
p965
sg15
S'change'
p966
sg20
S'Changelist'
p967
stRp968
atRp969
sg15
S'ChangeIdx'
p970
stRp971
ag3
(g4
g5
(dp972
g632
g3
(g8
g9
(lp973
g3
(g4
g5
(dp974
g17
S'String'
p975
sg15
S'sname'
p976
sg20
S'Server name'
p977
stRp978
ag3
(g4
g5
(dp979
g17
S'String'
p980
sg15
S'name'
p981
sg20
S'Configuration variable name'
p982
stRp983
ag3
(g4
g5
(dp984
g17
S'Value'
p985
sg15
S'value'
p986
sg20
S'Configuration variable value'
p987
stRp988
atRp989
sg15
S'Config'
p990
stRp991
ag3
(g4
g5
(dp992
g632
g3
(g8
g9
(lp993
g3
(g4
g5
(dp994
g17
S'Counter'
p995
sg15
S'name'
p996
sg20
S'Counter name'
p997
stRp998
ag3
(g4
g5
(dp999
g17
S'Value'
p1000
sg15
S'value'
p1001
sg20
S'Counter value'
p1002
stRp1003
atRp1004
sg15
S'Counters'
p1005
stRp1006
ag3
(g4
g5
(dp1007
g632
g3
(g8
g9
(lp1008
g3
(g4
g5
(dp1009
g17
S'Domain'
p1010
sg15
S'name'
p1011
sg20
S'Depot name'
p1012
stRp1013
ag3
(g4
g5
(dp1014
g17
S'DepotType'
p1015
sg15
S'type'
p1016
sg20
S'Type of depot'
p1017
stRp1018
ag3
(g4
g5
(dp1019
g17
S'Text'
p1020
sg15
S'extra'
p1021
sg20
S'For remote depots, the P4PORT address of the remote server.\n\t\t    For spec depots, the field contains a suffix to append to \n\t\t    the filename.'
p1022
stRp1023
ag3
(g4
g5
(dp1024
g17
S'Text'
p1025
sg15
S'map'
p1026
sg20
S"The depot's map (path translation information).  For local \n\t\t    depots, this will be a path relative to the root directory.\n\t\t    For remote depots, this will be specified in terms of the \n\t\t    remote server's namespace."
p1027
stRp1028
atRp1029
sg15
S'Depot'
p1030
stRp1031
ag3
(g4
g5
(dp1032
g632
g3
(g8
g9
(lp1033
g3
(g4
g5
(dp1034
g17
S'Change'
p1035
sg15
S'descKey'
p1036
sg20
S'Original number of the change to which this description\n\t\t    applies. This may differ from the final change number if\n\t\t    the change is renumbered on submission.'
p1037
stRp1038
ag3
(g4
g5
(dp1039
g17
S'Text'
p1040
sg15
S'description'
p1041
sg20
S'The change description itself'
p1042
stRp1043
atRp1044
sg15
S'Desc'
p1045
stRp1046
ag3
(g4
g5
(dp1047
g632
g3
(g8
g9
(lp1048
g3
(g4
g5
(dp1049
g17
S'Domain'
p1050
sg15
S'name'
p1051
sg20
S'Domain name'
p1052
stRp1053
ag3
(g4
g5
(dp1054
g17
S'DomainType'
p1055
sg15
S'type'
p1056
sg20
S'Type of domain'
p1057
stRp1058
ag3
(g4
g5
(dp1059
g17
S'Text'
p1060
sg15
S'extra'
p1061
sg20
S'Formerly "host". Associated host or, for labels, revision \n\t\t    number.'
p1062
stRp1063
ag3
(g4
g5
(dp1064
g17
S'Text'
p1065
sg15
S'mount'
p1066
sg20
S'The client root'
p1067
stRp1068
ag3
(g4
g5
(dp1069
g17
S'Text'
p1070
sg15
S'mount2'
p1071
sg20
S'Alternate client root'
p1072
stRp1073
ag3
(g4
g5
(dp1074
g17
S'Text'
p1075
sg15
S'mount3'
p1076
sg20
S'Alternate client root'
p1077
stRp1078
ag3
(g4
g5
(dp1079
g17
S'User'
p1080
sg15
S'owner'
p1081
sg20
S'Name of user who owns the domain.'
p1082
stRp1083
ag3
(g4
g5
(dp1084
g17
S'Date'
p1085
sg15
S'updateDate'
p1086
sg20
S'Date of last update to domain specification.'
p1087
stRp1088
ag3
(g4
g5
(dp1089
g17
S'Date'
p1090
sg15
S'accessDate'
p1091
sg20
S'Date of last access to domain specification.'
p1092
stRp1093
ag3
(g4
g5
(dp1094
g17
S'DomainOpts'
p1095
sg15
S'options'
p1096
sg20
S'Options for client, label, and branch domains.'
p1097
stRp1098
ag3
(g4
g5
(dp1099
g17
S'Text'
p1100
sg15
S'description'
p1101
sg20
S'Description of domain.'
p1102
stRp1103
ag3
(g4
g5
(dp1104
g17
S'Domain'
p1105
sg15
S'stream'
p1106
sg20
S'Associated stream for client records'
p1107
stRp1108
ag3
(g4
g5
(dp1109
g17
S'Text'
p1110
sg15
S'serverid'
p1111
sg20
S'Associated server ID for client records'
p1112
stRp1113
ag3
(g4
g5
(dp1114
g17
S'Int'
p1115
sg15
S'contents'
p1116
sg20
S'Client domain contents. 1: Maps only classic depot files, 2: Maps only graph depot files, 3: Maps both classic and graph depot files'
p1117
stRp1118
atRp1119
sg15
S'Domain'
p1120
stRp1121
ag3
(g4
g5
(dp1122
g632
g3
(g8
g9
(lp1123
g3
(g4
g5
(dp1124
g17
S'File'
p1125
sg15
S'depotFile'
p1126
sg20
S'The file locked'
p1127
stRp1128
ag3
(g4
g5
(dp1129
g17
S'Domain'
p1130
sg15
S'client'
p1131
sg20
S'The client for which the file is locked'
p1132
stRp1133
ag3
(g4
g5
(dp1134
g17
S'User'
p1135
sg15
S'user'
p1136
sg20
S'The user for which the file is locked'
p1137
stRp1138
atRp1139
sg15
S'ExclusiveLock'
p1140
stRp1141
ag3
(g4
g5
(dp1142
g632
g3
(g8
g9
(lp1143
g3
(g4
g5
(dp1144
g17
S'String'
p1145
sg15
S'job'
p1146
sg20
S'Job name'
p1147
stRp1148
ag3
(g4
g5
(dp1149
g17
S'Change'
p1150
sg15
S'change'
p1151
sg20
S'Changelist number'
p1152
stRp1153
ag3
(g4
g5
(dp1154
g17
S'Date'
p1155
sg15
S'date'
p1156
sg20
S'Date fix was recorded (may differ from date change was\n\t\t    submitted).'
p1157
stRp1158
ag3
(g4
g5
(dp1159
g17
S'FixStatus'
p1160
sg15
S'status'
p1161
sg20
S'Status of the job'
p1162
stRp1163
ag3
(g4
g5
(dp1164
g17
S'Domain'
p1165
sg15
S'client'
p1166
sg20
S'The client where the fix originated'
p1167
stRp1168
ag3
(g4
g5
(dp1169
g17
S'User'
p1170
sg15
S'user'
p1171
sg20
S'The user who fixed the job'
p1172
stRp1173
atRp1174
sg15
S'Fix'
p1175
stRp1176
ag3
(g4
g5
(dp1177
g632
g3
(g8
g9
(lp1178
g3
(g4
g5
(dp1179
g17
S'Int'
p1180
sg15
S'id'
p1181
sg20
S'ID of repo index belongs to'
p1182
stRp1183
ag3
(g4
g5
(dp1184
g17
S'String'
p1185
sg15
S'fileName'
p1186
sg20
S'File name (minus the repo name)'
p1187
stRp1188
ag3
(g4
g5
(dp1189
g17
S'Date'
p1190
sg15
S'commitDate'
p1191
sg20
S'Descending historical commit sequence'
p1192
stRp1193
ag3
(g4
g5
(dp1194
g17
S'SHA1'
p1195
sg15
S'blobSHA'
p1196
sg20
S'SHA of blob'
p1197
stRp1198
ag3
(g4
g5
(dp1199
g17
S'SHA1'
p1200
sg15
S'commitSHA'
p1201
sg20
S'SHA of commit that added/edited this file'
p1202
stRp1203
ag3
(g4
g5
(dp1204
g17
S'Int'
p1205
sg15
S'flags'
p1206
sg20
S'Miscellaneous flags'
p1207
stRp1208
atRp1209
sg15
S'GraphIndex'
p1210
stRp1211
ag3
(g4
g5
(dp1212
g632
g3
(g8
g9
(lp1213
g3
(g4
g5
(dp1214
g17
S'Domain'
p1215
sg15
S'name'
p1216
sg20
S'Graph depot name'
p1217
stRp1218
ag3
(g4
g5
(dp1219
g17
S'String'
p1220
sg15
S'repo'
p1221
sg20
S'Repository name'
p1222
stRp1223
ag3
(g4
g5
(dp1224
g17
S'String'
p1225
sg15
S'ref'
p1226
sg20
S'Reference'
p1227
stRp1228
ag3
(g4
g5
(dp1229
g17
S'UserType'
p1230
sg15
S'type'
p1231
sg20
S'Type of user'
p1232
stRp1233
ag3
(g4
g5
(dp1234
g17
S'User'
p1235
sg15
S'user'
p1236
sg20
S'User or Group for permission'
p1237
stRp1238
ag3
(g4
g5
(dp1239
g17
S'GraphPermType'
p1240
sg15
S'perm'
p1241
sg20
S'Permission'
p1242
stRp1243
atRp1244
sg15
S'GraphPerm'
p1245
stRp1246
ag3
(g4
g5
(dp1247
g632
g3
(g8
g9
(lp1248
g3
(g4
g5
(dp1249
g17
S'User'
p1250
sg15
S'user'
p1251
sg20
S'User name'
p1252
stRp1253
ag3
(g4
g5
(dp1254
g17
S'User'
p1255
sg15
S'group'
p1256
sg20
S'Group name'
p1257
stRp1258
ag3
(g4
g5
(dp1259
g17
S'UserType'
p1260
sg15
S'type'
p1261
sg20
S'Type of user in this group.'
p1262
stRp1263
ag3
(g4
g5
(dp1264
g17
S'MaxResults'
p1265
sg15
S'maxResults'
p1266
sg20
S'MaxResults setting for the group.'
p1267
stRp1268
ag3
(g4
g5
(dp1269
g17
S'MaxScanRows'
p1270
sg15
S'maxScanRows'
p1271
sg20
S'MaxScanRows setting for the group.'
p1272
stRp1273
ag3
(g4
g5
(dp1274
g17
S'MaxLockTime'
p1275
sg15
S'maxLockTime'
p1276
sg20
S'MaxLockTime setting for the group.'
p1277
stRp1278
ag3
(g4
g5
(dp1279
g17
S'MaxOpenFiles'
p1280
sg15
S'maxOpenFiles'
p1281
sg20
S'MaxOpenFiles setting for the group.'
p1282
stRp1283
ag3
(g4
g5
(dp1284
g17
S'Int'
p1285
sg15
S'timeout'
p1286
sg20
S'Length of time (in seconds) a login ticket remains valid.'
p1287
stRp1288
ag3
(g4
g5
(dp1289
g17
S'Int'
p1290
sg15
S'passwordTimeout'
p1291
sg20
S'Length of time (in seconds) a password remains valid for users in the group.'
p1292
stRp1293
atRp1294
sg15
S'Group'
p1295
stRp1296
ag3
(g4
g5
(dp1297
g632
g3
(g8
g9
(lp1298
g3
(g4
g5
(dp1299
g17
S'User'
p1300
sg15
S'group'
p1301
sg20
S'Group name'
p1302
stRp1303
ag3
(g4
g5
(dp1304
g17
S'String'
p1305
sg15
S'ldapConf'
p1306
sg20
S"The LDAP configuration to use when populating the group's user list from an LDAP query"
p1307
stRp1308
ag3
(g4
g5
(dp1309
g17
S'String'
p1310
sg15
S'ldapSearchQuery'
p1311
sg20
S'The LDAP query used to identify the members of the group'
p1312
stRp1313
ag3
(g4
g5
(dp1314
g17
S'String'
p1315
sg15
S'ldapUserAttribute'
p1316
sg20
S"The LDAP attribute that represents the user's username"
p1317
stRp1318
ag3
(g4
g5
(dp1319
g17
S'String'
p1320
sg15
S'ldapDNAttribute'
p1321
sg20
S"The LDAP attribute that represents the user's DN"
p1322
stRp1323
atRp1324
sg15
S'GroupX'
p1325
stRp1326
ag3
(g4
g5
(dp1327
g632
g3
(g8
g9
(lp1328
g3
(g4
g5
(dp1329
g17
S'File'
p1330
sg15
S'clientFile'
p1331
sg20
S'The file in its location on the client'
p1332
stRp1333
ag3
(g4
g5
(dp1334
g17
S'File'
p1335
sg15
S'depotFile'
p1336
sg20
S'The file in the depot'
p1337
stRp1338
ag3
(g4
g5
(dp1339
g17
S'Rev'
p1340
sg15
S'haveRev'
p1341
sg20
S'The revision synced to the client'
p1342
stRp1343
ag3
(g4
g5
(dp1344
g17
S'FileType'
p1345
sg15
S'type'
p1346
sg20
S'The filetype of the synced revision'
p1347
stRp1348
ag3
(g4
g5
(dp1349
g17
S'Date'
p1350
sg15
S'time'
p1351
sg20
S'The sync time of the synced revision'
p1352
stRp1353
atRp1354
sg15
S'Have'
p1355
stRp1356
ag3
(g4
g5
(dp1357
g632
g3
(g8
g9
(lp1358
g3
(g4
g5
(dp1359
g17
S'Date'
p1360
sg15
S'date'
p1361
sg20
S'Date value'
p1362
stRp1363
ag3
(g4
g5
(dp1364
g17
S'Int'
p1365
sg15
S'attr'
p1366
sg20
S'The attribute number (from the jobspec) to which this\n\t\t    date belongs'
p1367
stRp1368
ag3
(g4
g5
(dp1369
g17
S'String'
p1370
sg15
S'value'
p1371
sg20
S'A job name'
p1372
stRp1373
atRp1374
sg15
S'IndexDate'
p1375
stRp1376
ag3
(g4
g5
(dp1377
g632
g3
(g8
g9
(lp1378
g3
(g4
g5
(dp1379
g17
S'String'
p1380
sg15
S'word'
p1381
sg20
S'The word being indexed'
p1382
stRp1383
ag3
(g4
g5
(dp1384
g17
S'Int'
p1385
sg15
S'attr'
p1386
sg20
S'The attribute number to which this word belongs. For\n\t\t    job data, the attribute number from the jobspec.'
p1387
stRp1388
ag3
(g4
g5
(dp1389
g17
S'String'
p1390
sg15
S'value'
p1391
sg20
S'For job data, a job name. For generic data, the value\n\t\t    of the index keyed by the word.'
p1392
stRp1393
atRp1394
sg15
S'IndexText'
p1395
stRp1396
ag3
(g4
g5
(dp1397
g632
g3
(g8
g9
(lp1398
g3
(g4
g5
(dp1399
g17
S'String'
p1400
sg15
S'type'
p1401
sg20
S'The type'
p1402
stRp1403
ag3
(g4
g5
(dp1404
g17
S'String'
p1405
sg15
S'word'
p1406
sg20
S'The word being indexed'
p1407
stRp1408
ag3
(g4
g5
(dp1409
g17
S'Int'
p1410
sg15
S'attr'
p1411
sg20
S'The attribute number to which this word belongs.'
p1412
stRp1413
ag3
(g4
g5
(dp1414
g17
S'String'
p1415
sg15
S'value'
p1416
sg20
S'The value of the index keyed by the word.'
p1417
stRp1418
atRp1419
sg15
S'IndexTextHx'
p1420
stRp1421
ag3
(g4
g5
(dp1422
g632
g3
(g8
g9
(lp1423
g3
(g4
g5
(dp1424
g17
S'File'
p1425
sg15
S'toFile'
p1426
sg20
S'File to which integration is being performed (target).'
p1427
stRp1428
ag3
(g4
g5
(dp1429
g17
S'File'
p1430
sg15
S'fromFile'
p1431
sg20
S'File from which integration is being performed (source).'
p1432
stRp1433
ag3
(g4
g5
(dp1434
g17
S'Rev'
p1435
sg15
S'startFromRev'
p1436
sg20
S'Starting revision of fromFile'
p1437
stRp1438
ag3
(g4
g5
(dp1439
g17
S'Rev'
p1440
sg15
S'endFromRev'
p1441
sg20
S'Ending revision of fromFile'
p1442
stRp1443
ag3
(g4
g5
(dp1444
g17
S'Rev'
p1445
sg15
S'toRev'
p1446
sg20
S'Revision of toFile into which integration is being \n\t\t    performed.'
p1447
stRp1448
ag3
(g4
g5
(dp1449
g17
S'IntegHow'
p1450
sg15
S'how'
p1451
sg20
S'Integration method: variations on \n\t\t    merge/branch/copy/ignore/delete.'
p1452
stRp1453
ag3
(g4
g5
(dp1454
g17
S'Int'
p1455
sg15
S'committed'
p1456
sg20
S'Flag: 0 for pending, 1 for committed.'
p1457
stRp1458
ag3
(g4
g5
(dp1459
g17
S'ResolvedStatus'
p1460
sg15
S'resolved'
p1461
sg20
S'Resolution method: unresolved, resolved manually, \n\t\t    or resolved as part of a branch or delete.'
p1462
stRp1463
ag3
(g4
g5
(dp1464
g17
S'Change'
p1465
sg15
S'change'
p1466
sg20
S'Changelist associated with the integration.'
p1467
stRp1468
atRp1469
sg15
S'Integ'
p1470
stRp1471
ag3
(g4
g5
(dp1472
g632
g3
(g8
g9
(lp1473
g3
(g4
g5
(dp1474
g17
S'File'
p1475
sg15
S'toFile'
p1476
sg20
S'File to which integration is being performed (target).'
p1477
stRp1478
ag3
(g4
g5
(dp1479
g17
S'File'
p1480
sg15
S'fromFile'
p1481
sg20
S'File from which integration is being performed (source).'
p1482
stRp1483
ag3
(g4
g5
(dp1484
g17
S'Rev'
p1485
sg15
S'startFromRev'
p1486
sg20
S'Starting revision of fromFile'
p1487
stRp1488
ag3
(g4
g5
(dp1489
g17
S'Rev'
p1490
sg15
S'endFromRev'
p1491
sg20
S'Ending revision of fromFile'
p1492
stRp1493
ag3
(g4
g5
(dp1494
g17
S'Rev'
p1495
sg15
S'startToRev'
p1496
sg20
S'Start revision of toFile into which integration was \n\t\t    performed.'
p1497
stRp1498
ag3
(g4
g5
(dp1499
g17
S'Rev'
p1500
sg15
S'endToRev'
p1501
sg20
S'End revision of toFile into which integration was \n\t\t    performed. Only varies from startToRev for reverse \n\t\t    integration records.'
p1502
stRp1503
ag3
(g4
g5
(dp1504
g17
S'IntegHow'
p1505
sg15
S'how'
p1506
sg20
S'Integration method: variations on \n\t\t    merge/branch/copy/ignore/delete.'
p1507
stRp1508
ag3
(g4
g5
(dp1509
g17
S'Change'
p1510
sg15
S'change'
p1511
sg20
S'Changelist associated with the integration.'
p1512
stRp1513
atRp1514
sg15
S'Integed'
p1515
stRp1516
ag3
(g4
g5
(dp1517
g632
g3
(g8
g9
(lp1518
g3
(g4
g5
(dp1519
g17
S'Domain'
p1520
sg15
S'serverId'
p1521
sg20
S'The serverId of the standby for whom this record applies'
p1522
stRp1523
ag3
(g4
g5
(dp1524
g17
S'Date'
p1525
sg15
S'lastUpdate'
p1526
sg20
S'The date and time of last update'
p1527
stRp1528
ag3
(g4
g5
(dp1529
g17
S'ServerServiceType'
p1530
sg15
S'serverType'
p1531
sg20
S'The server services offered by this standby'
p1532
stRp1533
ag3
(g4
g5
(dp1534
g17
S'Int'
p1535
sg15
S'persistedJnl'
p1536
sg20
S'The last journal number persisted by this standby'
p1537
stRp1538
ag3
(g4
g5
(dp1539
g17
S'Int64'
p1540
sg15
S'persistedPos'
p1541
sg20
S'The last journal position persisted by this standby'
p1542
stRp1543
ag3
(g4
g5
(dp1544
g17
S'Int'
p1545
sg15
S'isAlive'
p1546
sg20
S'1 = alive'
p1547
stRp1548
ag3
(g4
g5
(dp1549
g17
S'Int'
p1550
sg15
S'appliedJnl'
p1551
sg20
S'The last journal number applied to this standby'
p1552
stRp1553
ag3
(g4
g5
(dp1554
g17
S'Int64'
p1555
sg15
S'appliedPos'
p1556
sg20
S'The last journal position applied to this standby'
p1557
stRp1558
atRp1559
sg15
S'JnlAck'
p1560
stRp1561
ag3
(g4
g5
(dp1562
g632
g3
(g8
g9
(lp1563
g3
(g4
g5
(dp1564
g17
S'String'
p1565
sg15
S'job'
p1566
sg20
S'The job name'
p1567
stRp1568
ag3
(g4
g5
(dp1569
g17
S'User'
p1570
sg15
S'xuser'
p1571
sg20
S'User name: defunct'
p1572
stRp1573
ag3
(g4
g5
(dp1574
g17
S'Date'
p1575
sg15
S'xdate'
p1576
sg20
S'The date: defunct'
p1577
stRp1578
ag3
(g4
g5
(dp1579
g17
S'JobStat'
p1580
sg15
S'xstatus'
p1581
sg20
S'Job status: defunct'
p1582
stRp1583
ag3
(g4
g5
(dp1584
g17
S'DescShort'
p1585
sg15
S'description'
p1586
sg20
S'Short description'
p1587
stRp1588
atRp1589
sg15
S'Job'
p1590
stRp1591
ag3
(g4
g5
(dp1592
g632
g3
(g8
g9
(lp1593
g3
(g4
g5
(dp1594
g17
S'String'
p1595
sg15
S'xjob'
p1596
sg20
S'The job name'
p1597
stRp1598
ag3
(g4
g5
(dp1599
g17
S'Text'
p1600
sg15
S'xdescription'
p1601
sg20
S'Jobdescription'
p1602
stRp1603
atRp1604
sg15
S'JobDesc'
p1605
stRp1606
ag3
(g4
g5
(dp1607
g632
g3
(g8
g9
(lp1608
g3
(g4
g5
(dp1609
g17
S'Key'
p1610
sg15
S'name'
p1611
sg20
S'Key name'
p1612
stRp1613
ag3
(g4
g5
(dp1614
g17
S'Value'
p1615
sg15
S'value'
p1616
sg20
S'Key value'
p1617
stRp1618
atRp1619
sg15
S'Keys'
p1620
stRp1621
ag3
(g4
g5
(dp1622
g632
g3
(g8
g9
(lp1623
g3
(g4
g5
(dp1624
g17
S'Domain'
p1625
sg15
S'name'
p1626
sg20
S'Name of the label'
p1627
stRp1628
ag3
(g4
g5
(dp1629
g17
S'File'
p1630
sg15
S'depotFile'
p1631
sg20
S'File name'
p1632
stRp1633
ag3
(g4
g5
(dp1634
g17
S'Rev'
p1635
sg15
S'haveRev'
p1636
sg20
S'The revision of the file in the label'
p1637
stRp1638
atRp1639
sg15
S'Label'
p1640
stRp1641
ag3
(g4
g5
(dp1642
g632
g3
(g8
g9
(lp1643
g3
(g4
g5
(dp1644
g17
S'String'
p1645
sg15
S'name'
p1646
sg20
S'The LDAP configuration name'
p1647
stRp1648
ag3
(g4
g5
(dp1649
g17
S'String'
p1650
sg15
S'host'
p1651
sg20
S'The FQDN of the directory server'
p1652
stRp1653
ag3
(g4
g5
(dp1654
g17
S'String'
p1655
sg15
S'port'
p1656
sg20
S'The port number on which to connect to the directory server'
p1657
stRp1658
ag3
(g4
g5
(dp1659
g17
S'String'
p1660
sg15
S'ssl'
p1661
sg20
S"The encryption method to use when connecting to the The FQDN of the directory server.\n\t\t\tOptions are: 'none', 'ssl' and 'tls'"
p1662
stRp1663
ag3
(g4
g5
(dp1664
g17
S'String'
p1665
sg15
S'type'
p1666
sg20
S"The bind method to use with this directory.  Options are: 'simple', 'search' and 'sasl'."
p1667
stRp1668
ag3
(g4
g5
(dp1669
g17
S'String'
p1670
sg15
S'pattern'
p1671
sg20
S"The DN used to bind against to validate the user's credentials."
p1672
stRp1673
ag3
(g4
g5
(dp1674
g17
S'String'
p1675
sg15
S'basedn'
p1676
sg20
S'The DN from which to start the search for the user object'
p1677
stRp1678
ag3
(g4
g5
(dp1679
g17
S'String'
p1680
sg15
S'filter'
p1681
sg20
S'The LDAP query filter to use to identify the user object which will be used to bind against'
p1682
stRp1683
ag3
(g4
g5
(dp1684
g17
S'String'
p1685
sg15
S'scope'
p1686
sg20
S'The scope to use when searching for the user records. Options are:\n                 0 = baseonly - Just the BaseDN object\n                 1 = children - The BaseDN and its direct children\n                 2 = subtree - The BaseDN and all objects below it'
p1687
stRp1688
ag3
(g4
g5
(dp1689
g17
S'String'
p1690
sg15
S'binddn'
p1691
sg20
S'The DN to bind against in order to search the directory'
p1692
stRp1693
ag3
(g4
g5
(dp1694
g17
S'String'
p1695
sg15
S'bindpass'
p1696
sg20
S'The password for the BindDN record'
p1697
stRp1698
ag3
(g4
g5
(dp1699
g17
S'String'
p1700
sg15
S'realm'
p1701
sg20
S'The optional realm to use when authenticating the user via SASL'
p1702
stRp1703
ag3
(g4
g5
(dp1704
g17
S'String'
p1705
sg15
S'grpbasedn'
p1706
sg20
S'The search base for performing the group search. If unset this will default to the SearchBaseDN'
p1707
stRp1708
ag3
(g4
g5
(dp1709
g17
S'String'
p1710
sg15
S'grpfilter'
p1711
sg20
S'The filter to use for the group search'
p1712
stRp1713
ag3
(g4
g5
(dp1714
g17
S'String'
p1715
sg15
S'grpscope'
p1716
sg20
S'The scope to use when performing the group search.Options are:\n \t\t\t\t0 = baseonly - Just the BaseDN object\n\t\t\t\t1 = children - The BaseDN and its direct children\n\t\t\t\t2 = subtree - The BaseDN and all objects below it'
p1717
stRp1718
ag3
(g4
g5
(dp1719
g17
S'String'
p1720
sg15
S'options'
p1721
sg20
S'LDAP Options: [no]downcase [no]getattrs [no]realminusername'
p1722
stRp1723
ag3
(g4
g5
(dp1724
g17
S'String'
p1725
sg15
S'attruid'
p1726
sg20
S"The name of the attribute in the directory's user records that contain the users' UIDs"
p1727
stRp1728
ag3
(g4
g5
(dp1729
g17
S'String'
p1730
sg15
S'attremail'
p1731
sg20
S"The name of the attribute in the directory's user records that contain the users' email addresses."
p1732
stRp1733
ag3
(g4
g5
(dp1734
g17
S'String'
p1735
sg15
S'attrename'
p1736
sg20
S"The name(s) of the attribute(s) in the directory's user records that contain the users' full names."
p1737
stRp1738
atRp1739
sg15
S'Ldap'
p1740
stRp1741
ag3
(g4
g5
(dp1742
g632
g3
(g8
g9
(lp1743
g3
(g4
g5
(dp1744
g17
S'File'
p1745
sg15
S'depotFile'
p1746
sg20
S'File in depot'
p1747
stRp1748
ag3
(g4
g5
(dp1749
g17
S'Domain'
p1750
sg15
S'client'
p1751
sg20
S'Domain (client) in which file is open'
p1752
stRp1753
ag3
(g4
g5
(dp1754
g17
S'User'
p1755
sg15
S'user'
p1756
sg20
S'User who presently has the file open'
p1757
stRp1758
ag3
(g4
g5
(dp1759
g17
S'Action'
p1760
sg15
S'action'
p1761
sg20
S'Action file is open for: add, edit, delete, branch,\n\t\t    integrate, or import'
p1762
stRp1763
ag3
(g4
g5
(dp1764
g17
S'Int'
p1765
sg15
S'isLocked'
p1766
sg20
S'Flag: 0 for unlocked, 1 for locked'
p1767
stRp1768
ag3
(g4
g5
(dp1769
g17
S'Int'
p1770
sg15
S'change'
p1771
sg20
S'Changelist in which the revision is open: 0 for the\n\t\t    default changelist'
p1772
stRp1773
atRp1774
sg15
S'Locks'
p1775
stRp1776
ag3
(g4
g5
(dp1777
g632
g3
(g8
g9
(lp1778
g3
(g4
g5
(dp1779
g17
S'Int'
p1780
sg15
S'seq'
p1781
sg20
S'Sequence number of event'
p1782
stRp1783
ag3
(g4
g5
(dp1784
g17
S'String'
p1785
sg15
S'key'
p1786
sg20
S"Either the word 'change' or the word 'job'"
p1787
stRp1788
ag3
(g4
g5
(dp1789
g17
S'String'
p1790
sg15
S'attr'
p1791
sg20
S'The number of the change, or name of the job that was \n\t\t    altered.'
p1792
stRp1793
atRp1794
sg15
S'Logger'
p1795
stRp1796
ag3
(g4
g5
(dp1797
g632
g3
(g8
g9
(lp1798
g3
(g4
g5
(dp1799
g17
S'String'
p1800
sg15
S'language'
p1801
sg20
S'The language for which this message applies'
p1802
stRp1803
ag3
(g4
g5
(dp1804
g17
S'Int'
p1805
sg15
S'id'
p1806
sg20
S'The message number'
p1807
stRp1808
ag3
(g4
g5
(dp1809
g17
S'String'
p1810
sg15
S'message'
p1811
sg20
S'The message text'
p1812
stRp1813
atRp1814
sg15
S'Message'
p1815
stRp1816
ag3
(g4
g5
(dp1817
g632
g3
(g8
g9
(lp1818
g3
(g4
g5
(dp1819
g17
S'Int'
p1820
sg15
S'id'
p1821
sg20
S'Thread/process id'
p1822
stRp1823
ag3
(g4
g5
(dp1824
g17
S'User'
p1825
sg15
S'user'
p1826
sg20
S'Username of the user running the command'
p1827
stRp1828
ag3
(g4
g5
(dp1829
g17
S'String'
p1830
sg15
S'function'
p1831
sg20
S'The command being executed.'
p1832
stRp1833
ag3
(g4
g5
(dp1834
g17
S'String'
p1835
sg15
S'args'
p1836
sg20
S'Arguments passed to the command'
p1837
stRp1838
ag3
(g4
g5
(dp1839
g17
S'Date'
p1840
sg15
S'startDate'
p1841
sg20
S'The date and time the command started'
p1842
stRp1843
ag3
(g4
g5
(dp1844
g17
S'Int'
p1845
sg15
S'runstate'
p1846
sg20
S'Flag: 0 for running, 1 for terminated, 2 for paused'
p1847
stRp1848
ag3
(g4
g5
(dp1849
g17
S'Domain'
p1850
sg15
S'client'
p1851
sg20
S'The client workspace'
p1852
stRp1853
ag3
(g4
g5
(dp1854
g17
S'Text'
p1855
sg15
S'host'
p1856
sg20
S'The IP address of the client'
p1857
stRp1858
ag3
(g4
g5
(dp1859
g17
S'Text'
p1860
sg15
S'prog'
p1861
sg20
S'The name (and version) of the client program'
p1862
stRp1863
ag3
(g4
g5
(dp1864
g17
S'Text'
p1865
sg15
S'lockInfo'
p1866
sg20
S'Table locking information for command'
p1867
stRp1868
atRp1869
sg15
S'Monitor'
p1870
stRp1871
ag3
(g4
g5
(dp1872
g632
g3
(g8
g9
(lp1873
g3
(g4
g5
(dp1874
g17
S'SHA1'
p1875
sg15
S'sha'
p1876
sg20
S'SHA1'
p1877
stRp1878
ag3
(g4
g5
(dp1879
g17
S'ObjectType'
p1880
sg15
S'type'
p1881
sg20
S'Type'
p1882
stRp1883
ag3
(g4
g5
(dp1884
g17
S'Octet String'
p1885
sg15
S'data'
p1886
sg20
S'VersionData'
p1887
stRp1888
atRp1889
sg15
S'Object'
p1890
stRp1891
ag3
(g4
g5
(dp1892
g632
g3
(g8
g9
(lp1893
g3
(g4
g5
(dp1894
g17
S'String'
p1895
sg15
S'name'
p1896
sg20
S'The property name'
p1897
stRp1898
ag3
(g4
g5
(dp1899
g17
S'String'
p1900
sg15
S'sequence'
p1901
sg20
S'Sequence number of property'
p1902
stRp1903
ag3
(g4
g5
(dp1904
g17
S'Int'
p1905
sg15
S'type'
p1906
sg20
S"1=user, 2=group; set if '-u | -g' option used with 'p4 property'"
p1907
stRp1908
ag3
(g4
g5
(dp1909
g17
S'String'
p1910
sg15
S'scope'
p1911
sg20
S'The user or group the property applies to'
p1912
stRp1913
ag3
(g4
g5
(dp1914
g17
S'String'
p1915
sg15
S'value'
p1916
sg20
S'The property value'
p1917
stRp1918
ag3
(g4
g5
(dp1919
g17
S'String'
p1920
sg15
S'date'
p1921
sg20
S'The date/time the property was last updated'
p1922
stRp1923
ag3
(g4
g5
(dp1924
g17
S'String'
p1925
sg15
S'user'
p1926
sg20
S'The user that last modified the property'
p1927
stRp1928
atRp1929
sg15
S'Property'
p1930
stRp1931
ag3
(g4
g5
(dp1932
g632
g3
(g8
g9
(lp1933
g3
(g4
g5
(dp1934
g17
S'Int'
p1935
sg15
S'seq'
p1936
sg20
S'Sequence number: for ordering the protections table'
p1937
stRp1938
ag3
(g4
g5
(dp1939
g17
S'Int'
p1940
sg15
S'isGroup'
p1941
sg20
S'Flag: 0 for a per-user setting, 1 for a per-group setting.'
p1942
stRp1943
ag3
(g4
g5
(dp1944
g17
S'UserWild'
p1945
sg15
S'user'
p1946
sg20
S'User(s), or Group(s) for whom this record applies.'
p1947
stRp1948
ag3
(g4
g5
(dp1949
g17
S'DomainWild'
p1950
sg15
S'host'
p1951
sg20
S'Domain(s) (IP addresses) for which this record applies.'
p1952
stRp1953
ag3
(g4
g5
(dp1954
g17
S'Perm'
p1955
sg15
S'perm'
p1956
sg20
S'Permissions to be granted/revoked'
p1957
stRp1958
ag3
(g4
g5
(dp1959
g17
S'MapFlag'
p1960
sg15
S'mapFlag'
p1961
sg20
S'Flag: Map the files in or out?'
p1962
stRp1963
ag3
(g4
g5
(dp1964
g17
S'Mapping'
p1965
sg15
S'depotFile'
p1966
sg20
S'Files to be mapped in or out.'
p1967
stRp1968
ag3
(g4
g5
(dp1969
g17
S'String'
p1970
sg15
S'subPath'
p1971
sg20
S'Root path of the sub-protections table'
p1972
stRp1973
ag3
(g4
g5
(dp1974
g17
S'Date'
p1975
sg15
S'update'
p1976
sg20
S'Date this specification was last modified'
p1977
stRp1978
atRp1979
sg15
S'Protect'
p1980
stRp1981
ag3
(g4
g5
(dp1982
g632
g3
(g8
g9
(lp1983
g3
(g4
g5
(dp1984
g17
S'String'
p1985
sg15
S'user'
p1986
sg20
S'User'
p1987
stRp1988
ag3
(g4
g5
(dp1989
g17
S'String'
p1990
sg15
S'scope'
p1991
sg20
S'Scope'
p1992
stRp1993
ag3
(g4
g5
(dp1994
g17
S'String'
p1995
sg15
S'key'
p1996
sg20
S'Key'
p1997
stRp1998
ag3
(g4
g5
(dp1999
g17
S'Digest'
p2000
sg15
S'digest'
p2001
sg20
S'Digest'
p2002
stRp2003
ag3
(g4
g5
(dp2004
g17
S'Date'
p2005
sg15
S'update'
p2006
sg20
S'Update date'
p2007
stRp2008
atRp2009
sg15
S'PublicKey'
p2010
stRp2011
ag3
(g4
g5
(dp2012
g632
g3
(g8
g9
(lp2013
g3
(g4
g5
(dp2014
g17
S'String'
p2015
sg15
S'repo'
p2016
sg20
S'Repository name'
p2017
stRp2018
ag3
(g4
g5
(dp2019
g17
S'String'
p2020
sg15
S'name'
p2021
sg20
S'Reference name'
p2022
stRp2023
ag3
(g4
g5
(dp2024
g17
S'RefType'
p2025
sg15
S'type'
p2026
sg20
S'Reference type'
p2027
stRp2028
ag3
(g4
g5
(dp2029
g17
S'SHA1'
p2030
sg15
S'ref'
p2031
sg20
S'Target of the reference'
p2032
stRp2033
ag3
(g4
g5
(dp2034
g17
S'String'
p2035
sg15
S'symref'
p2036
sg20
S'Target of symbolic reference'
p2037
stRp2038
atRp2039
sg15
S'Ref'
p2040
stRp2041
ag3
(g4
g5
(dp2042
g632
g3
(g8
g9
(lp2043
g3
(g4
g5
(dp2044
g17
S'String'
p2045
sg15
S'repo'
p2046
sg20
S'Repository name'
p2047
stRp2048
ag3
(g4
g5
(dp2049
g17
S'String'
p2050
sg15
S'name'
p2051
sg20
S'Reference name'
p2052
stRp2053
ag3
(g4
g5
(dp2054
g17
S'RefType'
p2055
sg15
S'type'
p2056
sg20
S'Reference type'
p2057
stRp2058
ag3
(g4
g5
(dp2059
g17
S'RefAction'
p2060
sg15
S'action'
p2061
sg20
S'Reference action'
p2062
stRp2063
ag3
(g4
g5
(dp2064
g17
S'Date'
p2065
sg15
S'date'
p2066
sg20
S'The date the reference was updated'
p2067
stRp2068
ag3
(g4
g5
(dp2069
g17
S'User'
p2070
sg15
S'user'
p2071
sg20
S'The user who made the reference update'
p2072
stRp2073
ag3
(g4
g5
(dp2074
g17
S'SHA1'
p2075
sg15
S'ref'
p2076
sg20
S'Encoded reference value'
p2077
stRp2078
ag3
(g4
g5
(dp2079
g17
S'String'
p2080
sg15
S'symref'
p2081
sg20
S'Symbolic reference'
p2082
stRp2083
atRp2084
sg15
S'RefHist'
p2085
stRp2086
ag3
(g4
g5
(dp2087
g632
g3
(g8
g9
(lp2088
g3
(g4
g5
(dp2089
g17
S'RemoteID'
p2090
sg15
S'id'
p2091
sg20
S'The remote identifier'
p2092
stRp2093
ag3
(g4
g5
(dp2094
g17
S'User'
p2095
sg15
S'owner'
p2096
sg20
S'The user who created this remote'
p2097
stRp2098
ag3
(g4
g5
(dp2099
g17
S'Int'
p2100
sg15
S'options'
p2101
sg20
S'Remote options: 0: unlocked/nocompress, 1: locked/nocompress, 2: unlocked/compress, 4: locked/compress'
p2102
stRp2103
ag3
(g4
g5
(dp2104
g17
S'Text'
p2105
sg15
S'address'
p2106
sg20
S'The P4PORT used by the remote server'
p2107
stRp2108
ag3
(g4
g5
(dp2109
g17
S'Text'
p2110
sg15
S'desc'
p2111
sg20
S'Description of the remote server'
p2112
stRp2113
ag3
(g4
g5
(dp2114
g17
S'Date'
p2115
sg15
S'update'
p2116
sg20
S'The date this specification was last modified'
p2117
stRp2118
ag3
(g4
g5
(dp2119
g17
S'Date'
p2120
sg15
S'access'
p2121
sg20
S'The date of the last push/fetch on this remote'
p2122
stRp2123
ag3
(g4
g5
(dp2124
g17
S'Change'
p2125
sg15
S'fetch'
p2126
sg20
S'The last changelist that was fetched'
p2127
stRp2128
ag3
(g4
g5
(dp2129
g17
S'Change'
p2130
sg15
S'push'
p2131
sg20
S'The last changelist that was pushed'
p2132
stRp2133
ag3
(g4
g5
(dp2134
g17
S'User'
p2135
sg15
S'rmtuser'
p2136
sg20
S'The user to use when connecting to the remote server'
p2137
stRp2138
atRp2139
sg15
S'Remote'
p2140
stRp2141
ag3
(g4
g5
(dp2142
g632
g3
(g8
g9
(lp2143
g3
(g4
g5
(dp2144
g17
S'File'
p2145
sg15
S'depotFile'
p2146
sg20
S'The file name'
p2147
stRp2148
ag3
(g4
g5
(dp2149
g17
S'String'
p2150
sg15
S'lbrRev'
p2151
sg20
S'The librarian revision'
p2152
stRp2153
ag3
(g4
g5
(dp2154
g17
S'String'
p2155
sg15
S'type'
p2156
sg20
S'The file type of the revision'
p2157
stRp2158
ag3
(g4
g5
(dp2159
g17
S'PullStatus'
p2160
sg15
S'status'
p2161
sg20
S'The status of the archive transfer'
p2162
stRp2163
ag3
(g4
g5
(dp2164
g17
S'Action'
p2165
sg15
S'action'
p2166
sg20
S'The action that created the revision'
p2167
stRp2168
ag3
(g4
g5
(dp2169
g17
S'Digest'
p2170
sg15
S'digest'
p2171
sg20
S'The MD5 digest of the revision'
p2172
stRp2173
ag3
(g4
g5
(dp2174
g17
S'FileSize'
p2175
sg15
S'size'
p2176
sg20
S'The size of the file in bytes'
p2177
stRp2178
ag3
(g4
g5
(dp2179
g17
S'Change'
p2180
sg15
S'change'
p2181
sg20
S'The changelist that created the revision'
p2182
stRp2183
ag3
(g4
g5
(dp2184
g17
S'Date'
p2185
sg15
S'lbrDate'
p2186
sg20
S'Librarian date'
p2187
stRp2188
ag3
(g4
g5
(dp2189
g17
S'Date'
p2190
sg15
S'lbrModTime'
p2191
sg20
S'Librarian modtime'
p2192
stRp2193
ag3
(g4
g5
(dp2194
g17
S'Int'
p2195
sg15
S'pid'
p2196
sg20
S'The process id (PID) of the pull process'
p2197
stRp2198
ag3
(g4
g5
(dp2199
g17
S'Date'
p2200
sg15
S'requestTime'
p2201
sg20
S'Pull request time'
p2202
stRp2203
ag3
(g4
g5
(dp2204
g17
S'Int'
p2205
sg15
S'retries'
p2206
sg20
S'The number of retries that have occurred after transfer error'
p2207
stRp2208
ag3
(g4
g5
(dp2209
g17
S'String'
p2210
sg15
S'transferError'
p2211
sg20
S'The error message for a failed transfer'
p2212
stRp2213
atRp2214
sg15
S'ReplicaArchiveTransfer'
p2215
stRp2216
ag3
(g4
g5
(dp2217
g632
g3
(g8
g9
(lp2218
g3
(g4
g5
(dp2219
g17
S'String'
p2220
sg15
S'repo'
p2221
sg20
S'Name of the repo'
p2222
stRp2223
ag3
(g4
g5
(dp2224
g17
S'User'
p2225
sg15
S'owner'
p2226
sg20
S'Owner of the repo'
p2227
stRp2228
ag3
(g4
g5
(dp2229
g17
S'Date'
p2230
sg15
S'created'
p2231
sg20
S'Date the repo specification was created'
p2232
stRp2233
ag3
(g4
g5
(dp2234
g17
S'Date'
p2235
sg15
S'pushed'
p2236
sg20
S'Date of the last push to the repo'
p2237
stRp2238
ag3
(g4
g5
(dp2239
g17
S'String'
p2240
sg15
S'forked'
p2241
sg20
S'Name of the repo from which this repo was forked'
p2242
stRp2243
ag3
(g4
g5
(dp2244
g17
S'String'
p2245
sg15
S'desc'
p2246
sg20
S'Repo Description'
p2247
stRp2248
ag3
(g4
g5
(dp2249
g17
S'String'
p2250
sg15
S'branch'
p2251
sg20
S'Default branch to clone from the repo'
p2252
stRp2253
ag3
(g4
g5
(dp2254
g17
S'String'
p2255
sg15
S'mirror'
p2256
sg20
S'Upstream URL that this repo is mirrored (readonly) from'
p2257
stRp2258
ag3
(g4
g5
(dp2259
g17
S'Int'
p2260
sg15
S'options'
p2261
sg20
S'Repo options: 0 = nolfs, 1 = lfs'
p2262
stRp2263
ag3
(g4
g5
(dp2264
g17
S'Int'
p2265
sg15
S'id'
p2266
sg20
S'Repo index ID'
p2267
stRp2268
atRp2269
sg15
S'Repo'
p2270
stRp2271
ag3
(g4
g5
(dp2272
g632
g3
(g8
g9
(lp2273
g3
(g4
g5
(dp2274
g17
S'File'
p2275
sg15
S'toFile'
p2276
sg20
S'File to which integration is being performed (target).'
p2277
stRp2278
ag3
(g4
g5
(dp2279
g17
S'File'
p2280
sg15
S'fromFile'
p2281
sg20
S'File from which integration is being performed (source).'
p2282
stRp2283
ag3
(g4
g5
(dp2284
g17
S'Rev'
p2285
sg15
S'startFromRev'
p2286
sg20
S'Starting revision of fromFile'
p2287
stRp2288
ag3
(g4
g5
(dp2289
g17
S'Rev'
p2290
sg15
S'endFromRev'
p2291
sg20
S'Ending revision of fromFile'
p2292
stRp2293
ag3
(g4
g5
(dp2294
g17
S'Rev'
p2295
sg15
S'startToRev'
p2296
sg20
S'Start revision of toFile into which integration was \n\t\t    performed.'
p2297
stRp2298
ag3
(g4
g5
(dp2299
g17
S'Rev'
p2300
sg15
S'endToRev'
p2301
sg20
S'End revision of toFile into which integration was \n\t\t    performed. Only varies from startToRev for reverse \n\t\t    integration records.'
p2302
stRp2303
ag3
(g4
g5
(dp2304
g17
S'IntegHow'
p2305
sg15
S'how'
p2306
sg20
S'Integration method: variations on \n\t\t    merge/branch/copy/ignore/delete.'
p2307
stRp2308
ag3
(g4
g5
(dp2309
g17
S'ResolveState'
p2310
sg15
S'state'
p2311
sg20
S'How the user performed the resolve.'
p2312
stRp2313
ag3
(g4
g5
(dp2314
g17
S'File'
p2315
sg15
S'baseFile'
p2316
sg20
S'File used as the base for merging.'
p2317
stRp2318
ag3
(g4
g5
(dp2319
g17
S'Rev'
p2320
sg15
S'baseRev'
p2321
sg20
S'Revision of baseFile used as the merge base.'
p2322
stRp2323
atRp2324
sg15
S'Resolve'
p2325
stRp2326
ag3
(g4
g5
(dp2327
g632
g3
(g8
g9
(lp2328
g3
(g4
g5
(dp2329
g17
S'File'
p2330
sg15
S'toFile'
p2331
sg20
S'ToFile'
p2332
stRp2333
ag3
(g4
g5
(dp2334
g17
S'File'
p2335
sg15
S'fromFile'
p2336
sg20
S'FromFile'
p2337
stRp2338
ag3
(g4
g5
(dp2339
g17
S'SHA1'
p2340
sg15
S'baseSHA'
p2341
sg20
S'Base SHA'
p2342
stRp2343
ag3
(g4
g5
(dp2344
g17
S'SHA1'
p2345
sg15
S'wantsSHA'
p2346
sg20
S'Wants SHA'
p2347
stRp2348
ag3
(g4
g5
(dp2349
g17
S'IntegHow'
p2350
sg15
S'how'
p2351
sg20
S'How'
p2352
stRp2353
ag3
(g4
g5
(dp2354
g17
S'ResolvedStatus'
p2355
sg15
S'state'
p2356
sg20
S'State'
p2357
stRp2358
atRp2359
sg15
S'ResolveG'
p2360
stRp2361
ag3
(g4
g5
(dp2362
g632
g3
(g8
g9
(lp2363
g3
(g4
g5
(dp2364
g17
S'File'
p2365
sg15
S'depotFile'
p2366
sg20
S'The file name'
p2367
stRp2368
ag3
(g4
g5
(dp2369
g17
S'Rev'
p2370
sg15
S'depotRev'
p2371
sg20
S'The revision number'
p2372
stRp2373
ag3
(g4
g5
(dp2374
g17
S'FileType'
p2375
sg15
S'type'
p2376
sg20
S'The file type of the revision'
p2377
stRp2378
ag3
(g4
g5
(dp2379
g17
S'Action'
p2380
sg15
S'action'
p2381
sg20
S'The action that created the revision'
p2382
stRp2383
ag3
(g4
g5
(dp2384
g17
S'Change'
p2385
sg15
S'change'
p2386
sg20
S'The changelist that created the revision'
p2387
stRp2388
ag3
(g4
g5
(dp2389
g17
S'Date'
p2390
sg15
S'date'
p2391
sg20
S'The date/time the changelist that created the revision\n\t\t    was submitted'
p2392
stRp2393
ag3
(g4
g5
(dp2394
g17
S'Date'
p2395
sg15
S'modTime'
p2396
sg20
S"The timestamp on the file in the user's workspace when\n\t\t    the revision was submitted."
p2397
stRp2398
ag3
(g4
g5
(dp2399
g17
S'Digest'
p2400
sg15
S'digest'
p2401
sg20
S'The MD5 digest of the revision.'
p2402
stRp2403
ag3
(g4
g5
(dp2404
g17
S'FileSize'
p2405
sg15
S'size'
p2406
sg20
S'The size of the file in bytes'
p2407
stRp2408
ag3
(g4
g5
(dp2409
g17
S'TraitLot'
p2410
sg15
S'traitLot'
p2411
sg20
S'Group of traits (attributes) associated with the revision.'
p2412
stRp2413
ag3
(g4
g5
(dp2414
g17
S'RevStatus'
p2415
sg15
S'lbrIsLazy'
p2416
sg20
S'Specifies whether or not the revision gets its content from \n\t  \t    another file (lazy copy), data about promotion of revision\n\t \t    content from task streams, and data about revision charset \n            information.'
p2417
stRp2418
ag3
(g4
g5
(dp2419
g17
S'File'
p2420
sg15
S'lbrFile'
p2421
sg20
S"Filename for librarian's purposes.  Specifies location in \n\t\t    the archives where the file containing the revision may\n\t\t    be found. Usually the same as depotFile, but differs in\n\t\t    the case of branched/copied revisions."
p2422
stRp2423
ag3
(g4
g5
(dp2424
g17
S'String'
p2425
sg15
S'lbrRev'
p2426
sg20
S'The revision of lbrFile that contains the revision content.'
p2427
stRp2428
ag3
(g4
g5
(dp2429
g17
S'FileType'
p2430
sg15
S'lbrType'
p2431
sg20
S'The file type of the librarian revision. Usually the same\n\t\t    as type, but differs in the case of branched/copied \n\t\t    revisions.'
p2432
stRp2433
atRp2434
sg15
S'Rev'
p2435
stRp2436
ag3
(g4
g5
(dp2437
g632
g3
(g8
g9
(lp2438
g3
(g4
g5
(dp2439
g17
S'Change'
p2440
sg15
S'change'
p2441
sg20
S'The changelist that created the revision'
p2442
stRp2443
ag3
(g4
g5
(dp2444
g17
S'File'
p2445
sg15
S'depotFile'
p2446
sg20
S'The file name'
p2447
stRp2448
ag3
(g4
g5
(dp2449
g17
S'Rev'
p2450
sg15
S'depotRev'
p2451
sg20
S'The revision number'
p2452
stRp2453
ag3
(g4
g5
(dp2454
g17
S'Action'
p2455
sg15
S'action'
p2456
sg20
S'The action that created the revision'
p2457
stRp2458
atRp2459
sg15
S'RevCx'
p2460
stRp2461
ag3
(g4
g5
(dp2462
g632
g3
(g8
g9
(lp2463
g3
(g4
g5
(dp2464
g17
S'User'
p2465
sg15
S'user'
p2466
sg20
S'A user name'
p2467
stRp2468
ag3
(g4
g5
(dp2469
g17
S'Int'
p2470
sg15
S'seq'
p2471
sg20
S'Sequence number: used for ordering multi-line views'
p2472
stRp2473
ag3
(g4
g5
(dp2474
g17
S'MapFlag'
p2475
sg15
S'mapFlag'
p2476
sg20
S'Type of mapping'
p2477
stRp2478
ag3
(g4
g5
(dp2479
g17
S'Mapping'
p2480
sg15
S'depotFile'
p2481
sg20
S'The files to be reviewed'
p2482
stRp2483
ag3
(g4
g5
(dp2484
g17
S'Reviewer'
p2485
sg15
S'type'
p2486
sg20
S'Type of reviewer'
p2487
stRp2488
atRp2489
sg15
S'Review'
p2490
stRp2491
ag3
(g4
g5
(dp2492
g632
g3
(g8
g9
(lp2493
g3
(g4
g5
(dp2494
g17
S'RemoteID'
p2495
sg15
S'id'
p2496
sg20
S'Remote name'
p2497
stRp2498
ag3
(g4
g5
(dp2499
g17
S'Int'
p2500
sg15
S'seq'
p2501
sg20
S'Sequence number: for ordering multi-line views'
p2502
stRp2503
ag3
(g4
g5
(dp2504
g17
S'MapFlag'
p2505
sg15
S'mapFlag'
p2506
sg20
S'Type of mapping'
p2507
stRp2508
ag3
(g4
g5
(dp2509
g17
S'Mapping'
p2510
sg15
S'localFile'
p2511
sg20
S'Local file'
p2512
stRp2513
ag3
(g4
g5
(dp2514
g17
S'Mapping'
p2515
sg15
S'remoteFile'
p2516
sg20
S'Remote file'
p2517
stRp2518
ag3
(g4
g5
(dp2519
g17
S'Int'
p2520
sg15
S'retain'
p2521
sg20
S'ArchiveLimits'
p2522
stRp2523
atRp2524
sg15
S'RmtView'
p2525
stRp2526
ag3
(g4
g5
(dp2527
g632
g3
(g8
g9
(lp2528
g3
(g4
g5
(dp2529
g17
S'Int'
p2530
sg15
S'taskID'
p2531
sg20
S'The process id (PID) of the sync'
p2532
stRp2533
ag3
(g4
g5
(dp2534
g17
S'Int'
p2535
sg15
S'seq'
p2536
sg20
S'Sequence number'
p2537
stRp2538
ag3
(g4
g5
(dp2539
g17
S'Text'
p2540
sg15
S'handle'
p2541
sg20
S'Handle'
p2542
stRp2543
ag3
(g4
g5
(dp2544
g17
S'File'
p2545
sg15
S'depotFile'
p2546
sg20
S'The file in the depot'
p2547
stRp2548
ag3
(g4
g5
(dp2549
g17
S'File'
p2550
sg15
S'clientFile'
p2551
sg20
S'The file in its location on the client'
p2552
stRp2553
ag3
(g4
g5
(dp2554
g17
S'Rev'
p2555
sg15
S'haveRev'
p2556
sg20
S'Have revision'
p2557
stRp2558
ag3
(g4
g5
(dp2559
g17
S'FileType'
p2560
sg15
S'type'
p2561
sg20
S'File type'
p2562
stRp2563
ag3
(g4
g5
(dp2564
g17
S'Date'
p2565
sg15
S'modtime'
p2566
sg20
S'Modification time'
p2567
stRp2568
ag3
(g4
g5
(dp2569
g17
S'Digest'
p2570
sg15
S'digest'
p2571
sg20
S'The MD5 digest of the revision'
p2572
stRp2573
ag3
(g4
g5
(dp2574
g17
S'FileSize'
p2575
sg15
S'size'
p2576
sg20
S'The size of the file in bytes'
p2577
stRp2578
ag3
(g4
g5
(dp2579
g17
S'File'
p2580
sg15
S'lbrFile'
p2581
sg20
S'Librarian filename'
p2582
stRp2583
ag3
(g4
g5
(dp2584
g17
S'LbrRev'
p2585
sg15
S'lbrRev'
p2586
sg20
S'The revision of lbrFile that contains the revision content'
p2587
stRp2588
ag3
(g4
g5
(dp2589
g17
S'FileType'
p2590
sg15
S'lbrType'
p2591
sg20
S'The file type of the librarian revision'
p2592
stRp2593
ag3
(g4
g5
(dp2594
g17
S'Int'
p2595
sg15
S'flags'
p2596
sg20
S'Flags'
p2597
stRp2598
ag3
(g4
g5
(dp2599
g17
S'FileType'
p2600
sg15
S'clientType'
p2601
sg20
S'The client file type of the revision'
p2602
stRp2603
ag3
(g4
g5
(dp2604
g17
S'SHA1'
p2605
sg15
S'bsha'
p2606
sg20
S'The Blob SHA'
p2607
stRp2608
ag3
(g4
g5
(dp2609
g17
S'Int'
p2610
sg15
S'reposlot'
p2611
sg20
S'reposlot'
p2612
stRp2613
ag3
(g4
g5
(dp2614
g17
S'Digest'
p2615
sg15
S'sdigest'
p2616
sg20
S'sdigest'
p2617
stRp2618
atRp2619
sg15
S'SendQ'
p2620
stRp2621
ag3
(g4
g5
(dp2622
g632
g3
(g8
g9
(lp2623
g3
(g4
g5
(dp2624
g17
S'Text'
p2625
sg15
S'id'
p2626
sg20
S'The server identifier'
p2627
stRp2628
ag3
(g4
g5
(dp2629
g17
S'ServerType'
p2630
sg15
S'type'
p2631
sg20
S'The server type: server/broker/proxy'
p2632
stRp2633
ag3
(g4
g5
(dp2634
g17
S'Text'
p2635
sg15
S'name'
p2636
sg20
S'The P4NAME used by this server'
p2637
stRp2638
ag3
(g4
g5
(dp2639
g17
S'Text'
p2640
sg15
S'address'
p2641
sg20
S'The P4PORT used by this server'
p2642
stRp2643
ag3
(g4
g5
(dp2644
g17
S'Text'
p2645
sg15
S'externalAddress'
p2646
sg20
S'For an edge server, this optional field contains its external address for connections from the commit server. This field is required for federated parallel submit.'
p2647
stRp2648
ag3
(g4
g5
(dp2649
g17
S'ServerServiceType'
p2650
sg15
S'services'
p2651
sg20
S'Service provided by this server'
p2652
stRp2653
ag3
(g4
g5
(dp2654
g17
S'Text'
p2655
sg15
S'desc'
p2656
sg20
S'Server description'
p2657
stRp2658
ag3
(g4
g5
(dp2659
g17
S'User'
p2660
sg15
S'user'
p2661
sg20
S'The service user used by this server'
p2662
stRp2663
atRp2664
sg15
S'Server'
p2665
stRp2666
ag3
(g4
g5
(dp2667
g632
g3
(g8
g9
(lp2668
g3
(g4
g5
(dp2669
g17
S'Domain'
p2670
sg15
S'client'
p2671
sg20
S'Client the stash refers to'
p2672
stRp2673
ag3
(g4
g5
(dp2674
g17
S'Domain'
p2675
sg15
S'stream'
p2676
sg20
S'Stream the stash refers to'
p2677
stRp2678
ag3
(g4
g5
(dp2679
g17
S'StashType'
p2680
sg15
S'type'
p2681
sg20
S'Stash type'
p2682
stRp2683
ag3
(g4
g5
(dp2684
g17
S'Int'
p2685
sg15
S'seq'
p2686
sg20
S'Sequence number'
p2687
stRp2688
ag3
(g4
g5
(dp2689
g17
S'Change'
p2690
sg15
S'change'
p2691
sg20
S'Stash change number'
p2692
stRp2693
atRp2694
sg15
S'Stash'
p2695
stRp2696
ag3
(g4
g5
(dp2697
g632
g3
(g8
g9
(lp2698
g3
(g4
g5
(dp2699
g17
S'Domain'
p2700
sg15
S'stream'
p2701
sg20
S'Stream name'
p2702
stRp2703
ag3
(g4
g5
(dp2704
g17
S'Domain'
p2705
sg15
S'parent'
p2706
sg20
S'Parent stream name'
p2707
stRp2708
ag3
(g4
g5
(dp2709
g17
S'Text'
p2710
sg15
S'title'
p2711
sg20
S'Stream title (alias for the stream name)'
p2712
stRp2713
ag3
(g4
g5
(dp2714
g17
S'StreamType'
p2715
sg15
S'type'
p2716
sg20
S'The type of stream'
p2717
stRp2718
ag3
(g4
g5
(dp2719
g17
S'Date'
p2720
sg15
S'preview'
p2721
sg20
S'Stream template modification time'
p2722
stRp2723
ag3
(g4
g5
(dp2724
g17
S'Change'
p2725
sg15
S'change'
p2726
sg20
S'Last submit to stream'
p2727
stRp2728
ag3
(g4
g5
(dp2729
g17
S'Change'
p2730
sg15
S'copychg'
p2731
sg20
S'Parent change at last copy'
p2732
stRp2733
ag3
(g4
g5
(dp2734
g17
S'Change'
p2735
sg15
S'mergechg'
p2736
sg20
S'Parent change at last merge'
p2737
stRp2738
ag3
(g4
g5
(dp2739
g17
S'Change'
p2740
sg15
S'highchg'
p2741
sg20
S'Highest change at last merge'
p2742
stRp2743
ag3
(g4
g5
(dp2744
g17
S'Int'
p2745
sg15
S'hash'
p2746
sg20
S'Hash value of dynamic branch'
p2747
stRp2748
ag3
(g4
g5
(dp2749
g17
S'StreamStatus'
p2750
sg15
S'status'
p2751
sg20
S'Flow status'
p2752
stRp2753
atRp2754
sg15
S'Stream'
p2755
stRp2756
ag3
(g4
g5
(dp2757
g632
g3
(g8
g9
(lp2758
g3
(g4
g5
(dp2759
g17
S'Text'
p2760
sg15
S'id'
p2761
sg20
S'Server name'
p2762
stRp2763
ag3
(g4
g5
(dp2764
g17
S'SvrViewType'
p2765
sg15
S'type'
p2766
sg20
S'View type'
p2767
stRp2768
ag3
(g4
g5
(dp2769
g17
S'Int'
p2770
sg15
S'seq'
p2771
sg20
S'Sequence (line) number'
p2772
stRp2773
ag3
(g4
g5
(dp2774
g17
S'MapFlag'
p2775
sg15
S'mapFlag'
p2776
sg20
S'Type of mapping'
p2777
stRp2778
ag3
(g4
g5
(dp2779
g17
S'Mapping'
p2780
sg15
S'viewFile'
p2781
sg20
S'View file'
p2782
stRp2783
atRp2784
sg15
S'SvrView'
p2785
stRp2786
ag3
(g4
g5
(dp2787
g632
g3
(g8
g9
(lp2788
g3
(g4
g5
(dp2789
g17
S'String'
p2790
sg15
S'repo'
p2791
sg20
S'Repository name'
p2792
stRp2793
ag3
(g4
g5
(dp2794
g17
S'String'
p2795
sg15
S'path'
p2796
sg20
S'Path at which the submodule is linked'
p2797
stRp2798
ag3
(g4
g5
(dp2799
g17
S'String'
p2800
sg15
S'subrepo'
p2801
sg20
S'Submodule repository name'
p2802
stRp2803
atRp2804
sg15
S'Submodule'
p2805
stRp2806
ag3
(g4
g5
(dp2807
g632
g3
(g8
g9
(lp2808
g3
(g4
g5
(dp2809
g17
S'Domain'
p2810
sg15
S'name'
p2811
sg20
S'Stream name'
p2812
stRp2813
ag3
(g4
g5
(dp2814
g17
S'Change'
p2815
sg15
S'change'
p2816
sg20
S'Versioned at change'
p2817
stRp2818
ag3
(g4
g5
(dp2819
g17
S'Int'
p2820
sg15
S'seq'
p2821
sg20
S'Sequence (line) number'
p2822
stRp2823
ag3
(g4
g5
(dp2824
g17
S'Domain'
p2825
sg15
S'parent'
p2826
sg20
S'Parent stream name'
p2827
stRp2828
ag3
(g4
g5
(dp2829
g17
S'StreamType'
p2830
sg15
S'type'
p2831
sg20
S'Type of stream'
p2832
stRp2833
ag3
(g4
g5
(dp2834
g17
S'StreamPathType'
p2835
sg15
S'path'
p2836
sg20
S'Stream path type'
p2837
stRp2838
ag3
(g4
g5
(dp2839
g17
S'Mapping'
p2840
sg15
S'viewFile'
p2841
sg20
S'View file (left hand side of path)'
p2842
stRp2843
ag3
(g4
g5
(dp2844
g17
S'Mapping'
p2845
sg15
S'depotFile'
p2846
sg20
S'Depot file (right hand side of path)'
p2847
stRp2848
ag3
(g4
g5
(dp2849
g17
S'Value'
p2850
sg15
S'changeMap'
p2851
sg20
S"Stream 'import' path changelist specifier. The changelist\n\t\t\tlimits in effect for a given client are displayed in a\n\t    \tread-only client spec field called 'ChangeView'"
p2852
stRp2853
atRp2854
sg15
S'Template'
p2855
stRp2856
ag3
(g4
g5
(dp2857
g632
g3
(g8
g9
(lp2858
g3
(g4
g5
(dp2859
g17
S'Change'
p2860
sg15
S'shelf'
p2861
sg20
S'Shelf changelist number'
p2862
stRp2863
ag3
(g4
g5
(dp2864
g17
S'Domain'
p2865
sg15
S'name'
p2866
sg20
S'Stream name'
p2867
stRp2868
ag3
(g4
g5
(dp2869
g17
S'Int'
p2870
sg15
S'seq'
p2871
sg20
S'Sequence (line) number'
p2872
stRp2873
ag3
(g4
g5
(dp2874
g17
S'Change'
p2875
sg15
S'change'
p2876
sg20
S'Versioned at change'
p2877
stRp2878
ag3
(g4
g5
(dp2879
g17
S'Domain'
p2880
sg15
S'parent'
p2881
sg20
S'Parent stream name'
p2882
stRp2883
ag3
(g4
g5
(dp2884
g17
S'StreamType'
p2885
sg15
S'type'
p2886
sg20
S'Type of stream'
p2887
stRp2888
ag3
(g4
g5
(dp2889
g17
S'StreamPathType'
p2890
sg15
S'path'
p2891
sg20
S'Stream path type'
p2892
stRp2893
ag3
(g4
g5
(dp2894
g17
S'Mapping'
p2895
sg15
S'viewFile'
p2896
sg20
S'View file (left hand side of path)'
p2897
stRp2898
ag3
(g4
g5
(dp2899
g17
S'Mapping'
p2900
sg15
S'depotFile'
p2901
sg20
S'Depot file (right hand side of path)'
p2902
stRp2903
ag3
(g4
g5
(dp2904
g17
S'Value'
p2905
sg15
S'changeMap'
p2906
sg20
S"Stream 'import' path changelist specifier. The changelist\n\t\t\tlimits in effect for a given client are displayed in a\n\t    \tread-only client spec field called 'ChangeView'"
p2907
stRp2908
atRp2909
sg15
S'TemplateSx'
p2910
stRp2911
ag3
(g4
g5
(dp2912
g632
g3
(g8
g9
(lp2913
g3
(g4
g5
(dp2914
g17
S'Domain'
p2915
sg15
S'client'
p2916
sg20
S'Stream client'
p2917
stRp2918
ag3
(g4
g5
(dp2919
g17
S'Domain'
p2920
sg15
S'name'
p2921
sg20
S'Stream name'
p2922
stRp2923
ag3
(g4
g5
(dp2924
g17
S'Int'
p2925
sg15
S'seq'
p2926
sg20
S'Sequence (line) number'
p2927
stRp2928
ag3
(g4
g5
(dp2929
g17
S'Change'
p2930
sg15
S'change'
p2931
sg20
S'Versioned at change'
p2932
stRp2933
ag3
(g4
g5
(dp2934
g17
S'Domain'
p2935
sg15
S'parent'
p2936
sg20
S'Parent stream name'
p2937
stRp2938
ag3
(g4
g5
(dp2939
g17
S'StreamType'
p2940
sg15
S'type'
p2941
sg20
S'Type of stream'
p2942
stRp2943
ag3
(g4
g5
(dp2944
g17
S'StreamPathType'
p2945
sg15
S'path'
p2946
sg20
S'Stream path type'
p2947
stRp2948
ag3
(g4
g5
(dp2949
g17
S'Mapping'
p2950
sg15
S'viewFile'
p2951
sg20
S'View file (left hand side of path)'
p2952
stRp2953
ag3
(g4
g5
(dp2954
g17
S'Mapping'
p2955
sg15
S'depotFile'
p2956
sg20
S'Depot file (right hand side of path)'
p2957
stRp2958
ag3
(g4
g5
(dp2959
g17
S'Value'
p2960
sg15
S'changeMap'
p2961
sg20
S"Stream 'import' path changelist specifier. The changelist\n\t\t\tlimits in effect for a given client are displayed in a\n\t    \tread-only client spec field called 'ChangeView'"
p2962
stRp2963
atRp2964
sg15
S'TemplateWx'
p2965
stRp2966
ag3
(g4
g5
(dp2967
g632
g3
(g8
g9
(lp2968
g3
(g4
g5
(dp2969
g17
S'User'
p2970
sg15
S'user'
p2971
sg20
S'User the ticket was issued for'
p2972
stRp2973
ag3
(g4
g5
(dp2974
g17
S'String'
p2975
sg15
S'host'
p2976
sg20
S'Host the ticket was issued for'
p2977
stRp2978
ag3
(g4
g5
(dp2979
g17
S'Password'
p2980
sg15
S'ticket'
p2981
sg20
S"The 'p4 login' ticket for this user"
p2982
stRp2983
ag3
(g4
g5
(dp2984
g17
S'2FAState'
p2985
sg15
S'state'
p2986
sg20
S'The state of 2 Factor Authentication'
p2987
stRp2988
ag3
(g4
g5
(dp2989
g17
S'String'
p2990
sg15
S'token'
p2991
sg20
S'The 2 Factor Authentication token'
p2992
stRp2993
ag3
(g4
g5
(dp2994
g17
S'Date'
p2995
sg15
S'updateDate'
p2996
sg20
S'The date of the last ticket update'
p2997
stRp2998
atRp2999
sg15
S'Ticket'
p3000
stRp3001
ag3
(g4
g5
(dp3002
g632
g3
(g8
g9
(lp3003
g3
(g4
g5
(dp3004
g17
S'String'
p3005
sg15
S'fileAndRev'
p3006
sg20
S'The file name and revision'
p3007
stRp3008
ag3
(g4
g5
(dp3009
g17
S'Octet String'
p3010
sg15
S'fileContent'
p3011
sg20
S'The (encoded) file content'
p3012
stRp3013
atRp3014
sg15
S'TinyDb'
p3015
stRp3016
ag3
(g4
g5
(dp3017
g632
g3
(g8
g9
(lp3018
g3
(g4
g5
(dp3019
g17
S'Int'
p3020
sg15
S'traitLot'
p3021
sg20
S'Indicates a specific collection of traits (referred to \n\t\t    externally as "attributes".)'
p3022
stRp3023
ag3
(g4
g5
(dp3024
g17
S'String'
p3025
sg15
S'name'
p3026
sg20
S'Trait (attribute) name'
p3027
stRp3028
ag3
(g4
g5
(dp3029
g17
S'TraitType'
p3030
sg15
S'type'
p3031
sg20
S'Type of trait'
p3032
stRp3033
ag3
(g4
g5
(dp3034
g17
S'Octet String'
p3035
sg15
S'value'
p3036
sg20
S'The value'
p3037
stRp3038
atRp3039
sg15
S'Trait'
p3040
stRp3041
ag3
(g4
g5
(dp3042
g632
g3
(g8
g9
(lp3043
g3
(g4
g5
(dp3044
g17
S'Int'
p3045
sg15
S'seq'
p3046
sg20
S'Sequence number: for ordering the trigger list'
p3047
stRp3048
ag3
(g4
g5
(dp3049
g17
S'String'
p3050
sg15
S'name'
p3051
sg20
S'Name of the trigger'
p3052
stRp3053
ag3
(g4
g5
(dp3054
g17
S'MapFlag'
p3055
sg15
S'mapFlag'
p3056
sg20
S'Type of mapping: specifies whether the trigger applies \n\t\t    to the files or not.'
p3057
stRp3058
ag3
(g4
g5
(dp3059
g17
S'Mapping'
p3060
sg15
S'depotFile'
p3061
sg20
S'The files to apply the trigger to'
p3062
stRp3063
ag3
(g4
g5
(dp3064
g17
S'File'
p3065
sg15
S'triggerDepotFile'
p3066
sg20
S'Depot path to the trigger'
p3067
stRp3068
ag3
(g4
g5
(dp3069
g17
S'Trigger'
p3070
sg15
S'trigger'
p3071
sg20
S'Type of trigger'
p3072
stRp3073
ag3
(g4
g5
(dp3074
g17
S'Text'
p3075
sg15
S'action'
p3076
sg20
S'Command to execute when trigger runs'
p3077
stRp3078
atRp3079
sg15
S'Trigger'
p3080
stRp3081
ag3
(g4
g5
(dp3082
g632
g3
(g8
g9
(lp3083
g3
(g4
g5
(dp3084
g17
S'User'
p3085
sg15
S'user'
p3086
sg20
S'The username'
p3087
stRp3088
ag3
(g4
g5
(dp3089
g17
S'Text'
p3090
sg15
S'email'
p3091
sg20
S"The user's email address"
p3092
stRp3093
ag3
(g4
g5
(dp3094
g17
S'Text'
p3095
sg15
S'jobView'
p3096
sg20
S"The user's job view"
p3097
stRp3098
ag3
(g4
g5
(dp3099
g17
S'Date'
p3100
sg15
S'updateDate'
p3101
sg20
S'The date/time the user record was last updated'
p3102
stRp3103
ag3
(g4
g5
(dp3104
g17
S'Date'
p3105
sg15
S'accessDate'
p3106
sg20
S'The date/time the user record was last used'
p3107
stRp3108
ag3
(g4
g5
(dp3109
g17
S'Text'
p3110
sg15
S'fullName'
p3111
sg20
S"The user's full name"
p3112
stRp3113
ag3
(g4
g5
(dp3114
g17
S'Password'
p3115
sg15
S'password'
p3116
sg20
S'The MD5 hash of the users (encrypted) password'
p3117
stRp3118
ag3
(g4
g5
(dp3119
g17
S'Strength'
p3120
sg15
S'strength'
p3121
sg20
S"Measure of the strength of the user's password"
p3122
stRp3123
ag3
(g4
g5
(dp3124
g17
S'Password'
p3125
sg15
S'ticket'
p3126
sg20
S"'p4 login' ticket for this user"
p3127
stRp3128
ag3
(g4
g5
(dp3129
g17
S'Date'
p3130
sg15
S'endDate'
p3131
sg20
S"Date/time the user's ticket expires"
p3132
stRp3133
ag3
(g4
g5
(dp3134
g17
S'UserLevel'
p3135
sg15
S'type'
p3136
sg20
S'Type of user'
p3137
stRp3138
ag3
(g4
g5
(dp3139
g17
S'Date'
p3140
sg15
S'passDate'
p3141
sg20
S'Date password was last changed'
p3142
stRp3143
ag3
(g4
g5
(dp3144
g17
S'Date'
p3145
sg15
S'passExpire'
p3146
sg20
S'Date of password expiration'
p3147
stRp3148
ag3
(g4
g5
(dp3149
g17
S'Date'
p3150
sg15
S'attempts'
p3151
sg20
S'Failed login attempts'
p3152
stRp3153
ag3
(g4
g5
(dp3154
g17
S'UserAuthType'
p3155
sg15
S'auth'
p3156
sg20
S'Authentication method (AuthMethod) for the user'
p3157
stRp3158
atRp3159
sg15
S'User'
p3160
stRp3161
ag3
(g4
g5
(dp3162
g632
g3
(g8
g9
(lp3163
g3
(g4
g5
(dp3164
g17
S'Domain'
p3165
sg15
S'name'
p3166
sg20
S'Domain name to which this view applies'
p3167
stRp3168
ag3
(g4
g5
(dp3169
g17
S'Int'
p3170
sg15
S'seq'
p3171
sg20
S'Sequence number: for ordering multi-line views'
p3172
stRp3173
ag3
(g4
g5
(dp3174
g17
S'MapFlag'
p3175
sg15
S'mapFlag'
p3176
sg20
S'Type of mapping'
p3177
stRp3178
ag3
(g4
g5
(dp3179
g17
S'Mapping'
p3180
sg15
S'viewFile'
p3181
sg20
S"The right-hand-side of the view. For clients, this is\n\t\t    the client-side, for labels it's the generated label \n\t\t    view. For branches, it's the target side of the branch\n\t\t    view."
p3182
stRp3183
ag3
(g4
g5
(dp3184
g17
S'Mapping'
p3185
sg15
S'depotFile'
p3186
sg20
S'The left-hand-side of the view - a mapping to file(s)\n\t\t    in the depot.'
p3187
stRp3188
atRp3189
sg15
S'View'
p3190
stRp3191
ag3
(g4
g5
(dp3192
g632
g3
(g8
g9
(lp3193
g3
(g4
g5
(dp3194
g17
S'File'
p3195
sg15
S'clientFile'
p3196
sg20
S'File on the client'
p3197
stRp3198
ag3
(g4
g5
(dp3199
g17
S'File'
p3200
sg15
S'depotFile'
p3201
sg20
S'File in the depot'
p3202
stRp3203
ag3
(g4
g5
(dp3204
g17
S'Domain'
p3205
sg15
S'client'
p3206
sg20
S'The client the file is opened on'
p3207
stRp3208
ag3
(g4
g5
(dp3209
g17
S'User'
p3210
sg15
S'user'
p3211
sg20
S'The user who has the file opened'
p3212
stRp3213
ag3
(g4
g5
(dp3214
g17
S'Rev'
p3215
sg15
S'haveRev'
p3216
sg20
S"Revision presently in user's client workspace"
p3217
stRp3218
ag3
(g4
g5
(dp3219
g17
S'Rev'
p3220
sg15
S'workRev'
p3221
sg20
S'Working revision; normally identical to the haveRev'
p3222
stRp3223
ag3
(g4
g5
(dp3224
g17
S'Int'
p3225
sg15
S'isVirtual'
p3226
sg20
S'Flag: if 1, file was opened with "p4 integ -v".'
p3227
stRp3228
ag3
(g4
g5
(dp3229
g17
S'FileType'
p3230
sg15
S'type'
p3231
sg20
S'File type'
p3232
stRp3233
ag3
(g4
g5
(dp3234
g17
S'Action'
p3235
sg15
S'action'
p3236
sg20
S"What the user's doing with the file"
p3237
stRp3238
ag3
(g4
g5
(dp3239
g17
S'Change'
p3240
sg15
S'change'
p3241
sg20
S'Associated changelist, or zero for the default changelist.'
p3242
stRp3243
ag3
(g4
g5
(dp3244
g17
S'Date'
p3245
sg15
S'modTime'
p3246
sg20
S"Modification timestamp on the file in the user's workspace."
p3247
stRp3248
ag3
(g4
g5
(dp3249
g17
S'Int'
p3250
sg15
S'isLocked'
p3251
sg20
S'Flag: 0 for unlocked, 1 for locked.'
p3252
stRp3253
ag3
(g4
g5
(dp3254
g17
S'Digest'
p3255
sg15
S'digest'
p3256
sg20
S'MD5 digest of working file.'
p3257
stRp3258
ag3
(g4
g5
(dp3259
g17
S'Int64'
p3260
sg15
S'size'
p3261
sg20
S'File size'
p3262
stRp3263
ag3
(g4
g5
(dp3264
g17
S'Int'
p3265
sg15
S'traitLot'
p3266
sg20
S'Group of traits associated with file revision.'
p3267
stRp3268
ag3
(g4
g5
(dp3269
g17
S'TamperCheck'
p3270
sg15
S'tampered'
p3271
sg20
S'Flag indicating the tamper-state of the file in the\n\t\t    workspace.'
p3272
stRp3273
ag3
(g4
g5
(dp3274
g17
S'FileType'
p3275
sg15
S'clntType'
p3276
sg20
S'Type of the file in the client workspace.'
p3277
stRp3278
ag3
(g4
g5
(dp3279
g17
S'File'
p3280
sg15
S'mFile'
p3281
sg20
S'Moved filename'
p3282
stRp3283
ag3
(g4
g5
(dp3284
g17
S'Int'
p3285
sg15
S'status'
p3286
sg20
S'Working status'
p3287
stRp3288
atRp3289
sg15
S'Working'
p3290
stRp3291
ag3
(g4
g5
(dp3292
g632
g3
(g8
g9
(lp3293
g3
(g4
g5
(dp3294
g17
S'File'
p3295
sg15
S'cfile'
p3296
sg20
S'Client File'
p3297
stRp3298
ag3
(g4
g5
(dp3299
g17
S'File'
p3300
sg15
S'dfile'
p3301
sg20
S'Depot File'
p3302
stRp3303
ag3
(g4
g5
(dp3304
g17
S'Domain'
p3305
sg15
S'client'
p3306
sg20
S'Client'
p3307
stRp3308
ag3
(g4
g5
(dp3309
g17
S'User'
p3310
sg15
S'user'
p3311
sg20
S'User'
p3312
stRp3313
ag3
(g4
g5
(dp3314
g17
S'Rev'
p3315
sg15
S'hrev'
p3316
sg20
S'HaveRev'
p3317
stRp3318
ag3
(g4
g5
(dp3319
g17
S'Rev'
p3320
sg15
S'wrev'
p3321
sg20
S'WoringRev'
p3322
stRp3323
ag3
(g4
g5
(dp3324
g17
S'Int'
p3325
sg15
S'virtual'
p3326
sg20
S'Virtual'
p3327
stRp3328
ag3
(g4
g5
(dp3329
g17
S'FileType'
p3330
sg15
S'type'
p3331
sg20
S'File type'
p3332
stRp3333
ag3
(g4
g5
(dp3334
g17
S'Action'
p3335
sg15
S'action'
p3336
sg20
S'Action'
p3337
stRp3338
ag3
(g4
g5
(dp3339
g17
S'Change'
p3340
sg15
S'change'
p3341
sg20
S'Change'
p3342
stRp3343
ag3
(g4
g5
(dp3344
g17
S'Date'
p3345
sg15
S'modtime'
p3346
sg20
S'ModTime'
p3347
stRp3348
ag3
(g4
g5
(dp3349
g17
S'Int'
p3350
sg15
S'islocked'
p3351
sg20
S'IsLocked'
p3352
stRp3353
ag3
(g4
g5
(dp3354
g17
S'Digest'
p3355
sg15
S'digest'
p3356
sg20
S'MD5 digest'
p3357
stRp3358
ag3
(g4
g5
(dp3359
g17
S'Int64'
p3360
sg15
S'size'
p3361
sg20
S'File size'
p3362
stRp3363
ag3
(g4
g5
(dp3364
g17
S'Int'
p3365
sg15
S'traitlot'
p3366
sg20
S'TraitLot'
p3367
stRp3368
ag3
(g4
g5
(dp3369
g17
S'TamperCheck'
p3370
sg15
S'tampered'
p3371
sg20
S'Tampered'
p3372
stRp3373
ag3
(g4
g5
(dp3374
g17
S'FileType'
p3375
sg15
S'ctype'
p3376
sg20
S'ClientType'
p3377
stRp3378
ag3
(g4
g5
(dp3379
g17
S'File'
p3380
sg15
S'mfile'
p3381
sg20
S'Moved filename'
p3382
stRp3383
ag3
(g4
g5
(dp3384
g17
S'Int'
p3385
sg15
S'status'
p3386
sg20
S'Working status'
p3387
stRp3388
ag3
(g4
g5
(dp3389
g17
S'SHA1'
p3390
sg15
S'sha'
p3391
sg20
S'Blob SHA'
p3392
stRp3393
ag3
(g4
g5
(dp3394
g17
S'String'
p3395
sg15
S'repo'
p3396
sg20
S'Repository name'
p3397
stRp3398
atRp3399
sg15
S'WorkingG'
p3400
stRp3401
atRp3402
stRp3403
sS'upgrades'
p3404
g3
(g4
g5
(dp3405
S'upgrade'
p3406
g3
(g8
g9
(lp3407
g3
(g4
g5
(dp3408
S'release'
p3409
S'2001.1'
p3410
sS'index'
p3411
S'1'
sg20
S'Split db.integ into db.integed and db.resolve'
p3412
stRp3413
ag3
(g4
g5
(dp3414
g3409
S'2001.1'
p3415
sg3411
S'2'
sg20
S'Split db.have into db.have and db.label'
p3416
stRp3417
ag3
(g4
g5
(dp3418
g3409
S'2002.1'
p3419
sg3411
S'3'
sg20
S'Split db.change into db.change and db.changex'
p3420
stRp3421
ag3
(g4
g5
(dp3422
g3409
S'2002.2'
p3423
sg3411
S'4'
sg20
S'Upgrade tempobj filetype in db.rev'
p3424
stRp3425
ag3
(g4
g5
(dp3426
g3409
S'2002.2'
p3427
sg3411
S'5'
sg20
S'Upgrade tempobj filetype in db.working'
p3428
stRp3429
ag3
(g4
g5
(dp3430
g3409
S'2003.1'
p3431
sg3411
S'6'
sg20
S'JnlInitialize default depot'
p3432
stRp3433
ag3
(g4
g5
(dp3434
g3409
S'2003.2'
p3435
sg3411
S'7'
sg20
S'Upgrade db.user'
p3436
stRp3437
ag3
(g4
g5
(dp3438
g3409
S'2005.1'
p3439
sg3411
S'8'
sg20
S'Build db.revhx (headrev) table'
p3440
stRp3441
ag3
(g4
g5
(dp3442
g3409
S'2005.1'
p3443
sg3411
S'9'
sg20
S'Rebuild db.locks from db.working'
p3444
stRp3445
ag3
(g4
g5
(dp3446
g3409
S'2005.1'
p3447
sg3411
S'10'
p3448
sg260
S'Removed in 2006.2'
p3449
sg20
S'Build lazy-copy index (db.archive)'
p3450
stRp3451
ag3
(g4
g5
(dp3452
g3409
S'2005.2'
p3453
sg3411
S'11'
p3454
sg20
S'Build db.revdx (delrev) table'
p3455
stRp3456
ag3
(g4
g5
(dp3457
g3409
S'2005.2'
p3458
sg3411
S'12'
p3459
sg260
S'Moved to 16 in 2007.3'
p3460
sg20
S'Build haveMap from db.have/db.working'
p3461
stRp3462
ag3
(g4
g5
(dp3463
g3409
S'2005.2'
p3464
sg3411
S'13'
p3465
sg20
S'Move spec depot entries into db.revsx'
p3466
stRp3467
ag3
(g4
g5
(dp3468
g3409
S'2006.2'
p3469
sg3411
S'14'
p3470
sg260
S'Moved to 17 in 2007.3'
p3471
sg20
S'Build db.archmap (lazy-copy map) table'
p3472
stRp3473
ag3
(g4
g5
(dp3474
g3409
S'2006.2'
p3475
sg3411
S'15'
p3476
sg260
S'Moved to 18 in 2007.3'
p3477
sg20
S'Remove (obsolete) db.archive table'
p3478
stRp3479
ag3
(g4
g5
(dp3480
g3409
S'2007.3'
p3481
sg3411
S'16'
p3482
sg260
S'Rewritten in 2007.3'
p3483
sg20
S'Build/Rebuild haveMap from db.have/db.working'
p3484
stRp3485
ag3
(g4
g5
(dp3486
g3409
S'2007.3'
p3487
sg3411
S'17'
p3488
sg260
S'Rewritten in 2007.3'
p3489
sg20
S'Build/Rebuild db.archmap (lazy-copy map) table'
p3490
stRp3491
ag3
(g4
g5
(dp3492
g3409
S'2007.3'
p3493
sg3411
S'18'
p3494
sg260
S'Moved from 15 in 2007.3'
p3495
sg20
S'Remove (obsolete) db.archive table'
p3496
stRp3497
ag3
(g4
g5
(dp3498
g3409
S'2008.1'
p3499
sg3411
S'19'
p3500
sg20
S'Build db.change common path'
p3501
stRp3502
ag3
(g4
g5
(dp3503
g3409
S'2009.2'
p3504
sg3411
S'20'
p3505
sg20
S'Move db.boddate/db.ixdate into db.bodtext/db.ixtext'
p3506
stRp3507
ag3
(g4
g5
(dp3508
g3409
S'2009.2'
p3509
sg3411
S'21'
p3510
sg20
S'Remove db.boddate/db.ixdate'
p3511
stRp3512
ag3
(g4
g5
(dp3513
g3409
S'2010.2'
p3514
sg3411
S'22'
p3515
sg20
S'Move system counters into db.config'
p3516
stRp3517
ag3
(g4
g5
(dp3518
g3409
S'2011.1'
p3519
sg3411
S'23'
p3520
sg20
S'Upgrade tiny.db'
p3521
stRp3522
ag3
(g4
g5
(dp3523
g3409
S'2015.2'
p3524
sg3411
S'24'
p3525
sg20
S'Move LDAP specs into db.ldap'
p3526
stRp3527
ag3
(g4
g5
(dp3528
g3409
S'2016.1'
p3529
sg3411
S'25'
p3530
sg20
S'Create db.templatesx and db.templatewx'
p3531
stRp3532
ag3
(g4
g5
(dp3533
g3409
S'2016.2'
p3534
sg3411
S'26'
p3535
sg20
S'JnlInitialize graph depot'
p3536
stRp3537
ag3
(g4
g5
(dp3538
g3409
S'2017.1'
p3539
sg3411
S'27'
p3540
sg20
S'Rename repo specifications, build owner graph permissions, remove db.repoview'
p3541
stRp3542
ag3
(g4
g5
(dp3543
g3409
S'2017.2'
p3544
sg3411
S'28'
p3545
sg20
S'No upgrades - upgrade counter value increment only'
p3546
stRp3547
atRp3548
stRp3549
sS'commit_upgrades'
p3550
g3
(g4
g5
(dp3551
S'commit_upgrade'
p3552
g3
(g8
g9
(lp3553
g3
(g4
g5
(dp3554
g3409
S'2013.2'
p3555
sg3411
S'commit-server'
p3556
sg260
S'Generate exclusive lock records in db.excl based on db.working data.'
p3557
sg20
S'Generate exclusive locks'
p3558
stRp3559
ag3
(g4
g5
(dp3560
g3409
S'2014.1'
p3561
sg3411
S'commit-server'
p3562
sg260
S'Promote existing shelves by updating changeStatus in db.change and db.changex.'
p3563
sg20
S'Promote Shelves'
p3564
stRp3565
atRp3566
stRp3567
sS'datatypes'
p3568
g3
(g4
g5
(dp3569
S'datatype'
p3570
g3
(g8
g9
(lp3571
g3
(g4
g5
(dp3572
S'values'
p3573
g3
(g8
g9
(lp3574
g3
(g4
g5
(dp3575
S'mask'
p3576
S'Scheme Flags'
p3577
sS'value'
p3578
S'0x0001'
p3579
sg20
S'otp-generated; one-time password generated'
p3580
stRp3581
ag3
(g4
g5
(dp3582
g3576
S'Scheme Flags'
p3583
sg3578
S'0x0002'
p3584
sg20
S'otp-requested; one-time password requested'
p3585
stRp3586
ag3
(g4
g5
(dp3587
g3576
S'Scheme Flags'
p3588
sg3578
S'0x0003'
p3589
sg20
S'challenge; challenge/response'
p3590
stRp3591
ag3
(g4
g5
(dp3592
g3576
S'Scheme Flags'
p3593
sg3578
S'0x0004'
p3594
sg20
S'external; 3rd-party prompting'
p3595
stRp3596
ag3
(g4
g5
(dp3597
g3576
S'Status Flags'
p3598
sg3578
S'0x0100'
p3599
sg20
S'authenticated; host is authenticated'
p3600
stRp3601
ag3
(g4
g5
(dp3602
g3576
S'Status Flags'
p3603
sg3578
S'0x0200'
p3604
sg20
S'persisted; 2FA persists for this host'
p3605
stRp3606
ag3
(g4
g5
(dp3607
g3576
S'Status Flags'
p3608
sg3578
S'0x0400'
p3609
sg20
S'forced; superuser skipped the checks'
p3610
stRp3611
ag3
(g4
g5
(dp3612
g3576
S'Status Flags'
p3613
sg3578
S'0x0800'
p3614
sg20
S'skipped; 2FA was not required'
p3615
stRp3616
ag3
(g4
g5
(dp3617
g3576
S'Status Flags'
p3618
sg3578
S'0x1000'
p3619
sg20
S'waiting; waiting on 2FA service'
p3620
stRp3621
ag3
(g4
g5
(dp3622
g3576
S'Status Flags'
p3623
sg3578
S'0x2000'
p3624
sg20
S'token-requested; OTP requested from 2FA service'
p3625
stRp3626
ag3
(g4
g5
(dp3627
g3576
S'Status Flags'
p3628
sg3578
S'0x4000'
p3629
sg20
S'required; 2FA required'
p3630
stRp3631
ag3
(g4
g5
(dp3632
g3576
S'Status Flags'
p3633
sg3578
S'0x8000'
p3634
sg20
S'rejected; external 2FA was rejected'
p3635
stRp3636
atRp3637
sg15
S'2FAState'
p3638
sg3576
g3
(g8
g9
(lp3639
g3
(g4
g5
(dp3640
g15
S'Scheme Flags'
p3641
sg3578
S'0xFF'
p3642
sg20
S'Bits used to store second factor authentication scheme'
p3643
stRp3644
ag3
(g4
g5
(dp3645
g15
S'Status Flags'
p3646
sg3578
S'None'
p3647
sg20
S'Bits used to store second factor authentication status'
p3648
stRp3649
atRp3650
sS'summary'
p3651
S'Second Factor Authentication State'
p3652
sg17
S'bitmask'
p3653
sg20
S'Second factor authentication scheme and status'
p3654
stRp3655
ag3
(g4
g5
(dp3656
g17
S'flag'
p3657
sg3651
S'Type of action'
p3658
sg3573
g3
(g8
g9
(lp3659
g3
(g4
g5
(dp3660
g3578
S'0'
sg20
S'add; user adds a file'
p3661
stRp3662
ag3
(g4
g5
(dp3663
g3578
S'1'
sg20
S'edit; user edits a file'
p3664
stRp3665
ag3
(g4
g5
(dp3666
g3578
S'2'
sg20
S'delete; user deletes a file'
p3667
stRp3668
ag3
(g4
g5
(dp3669
g3578
S'3'
sg20
S'branch; add via integration'
p3670
stRp3671
ag3
(g4
g5
(dp3672
g3578
S'4'
sg20
S'integ; edit via integration'
p3673
stRp3674
ag3
(g4
g5
(dp3675
g3578
S'5'
sg20
S'import; add via remote depot'
p3676
stRp3677
ag3
(g4
g5
(dp3678
g3578
S'6'
sg20
S'purge; purged revision, no longer available'
p3679
stRp3680
ag3
(g4
g5
(dp3681
g3578
S'7'
sg20
S'movefrom; move from another filename'
p3682
stRp3683
ag3
(g4
g5
(dp3684
g3578
S'8'
sg20
S'moveto; move to another filename'
p3685
stRp3686
ag3
(g4
g5
(dp3687
g3578
S'9'
sg20
S'archive; stored in archive depot'
p3688
stRp3689
atRp3690
sg15
S'Action'
p3691
sg20
S'Revisions are produced by user actions. The Action\n\t\ttype defines the available actions and their internal values.'
p3692
stRp3693
ag3
(g4
g5
(dp3694
g3651
S'A changelist number'
p3695
sg17
S'integer'
p3696
sg15
S'Change'
p3697
sg20
S'The number of a changelist. The number 0 represents the\n\t\tdefault pending changelist.'
p3698
stRp3699
ag3
(g4
g5
(dp3700
g17
S'flag'
p3701
sg3651
S'The status of a change'
p3702
sg3573
g3
(g8
g9
(lp3703
g3
(g4
g5
(dp3704
g3578
S'0'
sg20
S'pending'
p3705
stRp3706
ag3
(g4
g5
(dp3707
g3578
S'1'
sg20
S'submitted'
p3708
stRp3709
ag3
(g4
g5
(dp3710
g3578
S'2'
sg20
S'shelved'
p3711
stRp3712
ag3
(g4
g5
(dp3713
g3578
S'4'
sg20
S'restricted, pending'
p3714
stRp3715
ag3
(g4
g5
(dp3716
g3578
S'5'
sg20
S'restricted, submitted'
p3717
stRp3718
ag3
(g4
g5
(dp3719
g3578
S'6'
sg20
S'restricted, shelved'
p3720
stRp3721
ag3
(g4
g5
(dp3722
g3578
S'18'
p3723
sg20
S'promoted shelf, public'
p3724
stRp3725
ag3
(g4
g5
(dp3726
g3578
S'22'
p3727
sg20
S'promoted shelf, restricted'
p3728
stRp3729
ag3
(g4
g5
(dp3730
g3578
S'34'
p3731
sg20
S'unsubmitted shelf, public'
p3732
stRp3733
ag3
(g4
g5
(dp3734
g3578
S'38'
p3735
sg20
S'unsubmitted shelf, restricted'
p3736
stRp3737
atRp3738
sg15
S'ChangeStatus'
p3739
sg20
S'A integer value representing the status of a change'
p3740
stRp3741
ag3
(g4
g5
(dp3742
g3651
S'A counter name'
p3743
sg17
S'string'
p3744
sg15
S'Counter'
p3745
sg20
S'A string representing the counter name. Counter names must \n\t\tcontain no spaces, contain no slashes, and be identifiers \n\t\t(cannot begin with a dash and cannot be all-numeric)'
p3746
stRp3747
ag3
(g4
g5
(dp3748
g3651
S'A unix-style date and time'
p3749
sg17
S'integer'
p3750
sg15
S'Date'
p3751
sg20
S'A date and time represented as the number of seconds since \n\t\tthe Epoch: 01 January 1970 00:00:00 UTC. This is the same \n\t\tconvention as that used on Unix platforms.'
p3752
stRp3753
ag3
(g4
g5
(dp3754
g17
S'flag'
p3755
sg3651
S'Type of Depot'
p3756
sg3573
g3
(g8
g9
(lp3757
g3
(g4
g5
(dp3758
g3578
S'0'
sg20
S'local depot'
p3759
stRp3760
ag3
(g4
g5
(dp3761
g3578
S'1'
sg20
S'remote depot'
p3762
stRp3763
ag3
(g4
g5
(dp3764
g3578
S'2'
sg20
S'spec depot'
p3765
stRp3766
ag3
(g4
g5
(dp3767
g3578
S'3'
sg20
S'stream depot'
p3768
stRp3769
ag3
(g4
g5
(dp3770
g3578
S'4'
sg20
S'archive depot'
p3771
stRp3772
ag3
(g4
g5
(dp3773
g3578
S'5'
sg20
S'unload depot'
p3774
stRp3775
ag3
(g4
g5
(dp3776
g3578
S'6'
sg20
S'tangent depot'
p3777
stRp3778
ag3
(g4
g5
(dp3779
g3578
S'7'
sg20
S'graph depot'
p3780
stRp3781
atRp3782
sg15
S'DepotType'
p3783
sg20
S'The type of a given depot'
p3784
stRp3785
ag3
(g4
g5
(dp3786
g3651
S'A short string value'
p3787
sg20
S'The first 31 characters of a Text string'
p3788
sg17
S'string'
p3789
sg15
S'DescShort'
p3790
sg224
S'Text'
p3791
stRp3792
ag3
(g4
g5
(dp3793
g3651
S'An MD5 digest'
p3794
sg17
S'string'
p3795
sg15
S'Digest'
p3796
sg20
S'A string containing an MD5 digest.'
p3797
stRp3798
ag3
(g4
g5
(dp3799
g3651
S'A domain name'
p3800
sg17
S'string'
p3801
sg15
S'Domain'
p3802
sg20
S'A string representing the name of a depot, label, client,\n\t\tbranch, typemap, or stream.'
p3803
stRp3804
ag3
(g4
g5
(dp3805
g3651
S'A string with optional wildcards'
p3806
sg17
S'string'
p3807
sg15
S'DomainWild'
p3808
sg20
S'A string that may contain wildcards - usually an IP address\n\t\tin the protections table.'
p3809
stRp3810
ag3
(g4
g5
(dp3811
g3573
g3
(g8
g9
(lp3812
g3
(g4
g5
(dp3813
g3576
S'Domain Flags'
p3814
sg3578
S'0x0001'
p3815
sg20
S'modtime'
p3816
stRp3817
ag3
(g4
g5
(dp3818
g3576
S'Domain Flags'
p3819
sg3578
S'0x0002'
p3820
sg20
S'clobber'
p3821
stRp3822
ag3
(g4
g5
(dp3823
g3576
S'Domain Flags'
p3824
sg3578
S'0x0004'
p3825
sg20
S'allwrite'
p3826
stRp3827
ag3
(g4
g5
(dp3828
g3576
S'Domain Flags'
p3829
sg3578
S'0x0008'
p3830
sg20
S'locked'
p3831
stRp3832
ag3
(g4
g5
(dp3833
g3576
S'Domain Flags'
p3834
sg3578
S'0x0020'
p3835
sg20
S'compress'
p3836
stRp3837
ag3
(g4
g5
(dp3838
g3576
S'Domain Flags'
p3839
sg3578
S'0x0040'
p3840
sg20
S'rmdir'
p3841
stRp3842
ag3
(g4
g5
(dp3843
g3576
S'Domain Flags'
p3844
sg3578
S'0x1000'
p3845
sg20
S'indirect (obsolete since 2004.2)'
p3846
stRp3847
ag3
(g4
g5
(dp3848
g3576
S'Domain Flags'
p3849
sg3578
S'0x8000'
p3850
sg20
S'autoreload'
p3851
stRp3852
ag3
(g4
g5
(dp3853
g3576
S'Domain ClientType'
p3854
sg3578
S'0x00000'
p3855
sg20
S'client is writeable'
p3856
stRp3857
ag3
(g4
g5
(dp3858
g3576
S'Domain ClientType'
p3859
sg3578
S'0x10000'
p3860
sg20
S'client is readonly'
p3861
stRp3862
ag3
(g4
g5
(dp3863
g3576
S'Domain ClientType'
p3864
sg3578
S'0x20000'
p3865
sg20
S'client is nobackup'
p3866
stRp3867
ag3
(g4
g5
(dp3868
g3576
S'Domain ClientType'
p3869
sg3578
S'0x110000'
p3870
sg20
S'client is partitioned'
p3871
stRp3872
ag3
(g4
g5
(dp3873
g3576
S'Domain LineEnd'
p3874
sg3578
S'0x0000'
p3875
sg20
S'local'
p3876
stRp3877
ag3
(g4
g5
(dp3878
g3576
S'Domain LineEnd'
p3879
sg3578
S'0x0010'
p3880
sg20
S'unix (LF)'
p3881
stRp3882
ag3
(g4
g5
(dp3883
g3576
S'Domain LineEnd'
p3884
sg3578
S'0x0200'
p3885
sg20
S'mac (CR)'
p3886
stRp3887
ag3
(g4
g5
(dp3888
g3576
S'Domain LineEnd'
p3889
sg3578
S'0x0300'
p3890
sg20
S'win (CRLF)'
p3891
stRp3892
ag3
(g4
g5
(dp3893
g3576
S'Domain LineEnd'
p3894
sg3578
S'0x0400'
p3895
sg20
S'share (LF/CRLF)'
p3896
stRp3897
ag3
(g4
g5
(dp3898
g3576
S'Domain SubmitMask'
p3899
sg3578
S'0x1000'
p3900
sg20
S'Revert unchanged files'
p3901
stRp3902
ag3
(g4
g5
(dp3903
g3576
S'Domain SubmitMask'
p3904
sg3578
S'0x2000'
p3905
sg20
S'Leave unchanged files'
p3906
stRp3907
ag3
(g4
g5
(dp3908
g3576
S'Domain SubmitMask'
p3909
sg3578
S'0x4000'
p3910
sg20
S'Submit, and re-open unchanged files'
p3911
stRp3912
ag3
(g4
g5
(dp3913
g3576
S'Domain StreamMask'
p3914
sg3578
S'0x0001'
p3915
sg20
S'allsubmit or ownersubmit'
p3916
stRp3917
ag3
(g4
g5
(dp3918
g3576
S'Domain StreamMask'
p3919
sg3578
S'0x0002'
p3920
sg20
S'locked or unlocked'
p3921
stRp3922
ag3
(g4
g5
(dp3923
g3576
S'Domain StreamMask'
p3924
sg3578
S'0x0004'
p3925
sg20
S'change flows to parent'
p3926
stRp3927
ag3
(g4
g5
(dp3928
g3576
S'Domain StreamMask'
p3929
sg3578
S'0x0008'
p3930
sg20
S'change flows from parent'
p3931
stRp3932
ag3
(g4
g5
(dp3933
g3576
S'Domain StreamMask'
p3934
sg3578
S'0x0010'
p3935
sg20
S'mergeany or mergedown'
p3936
stRp3937
atRp3938
sg15
S'DomainOpts'
p3939
sg3576
g3
(g8
g9
(lp3940
g3
(g4
g5
(dp3941
g15
S'Domain Flags'
p3942
sg3578
S'0x10EF'
p3943
sg20
S'Bits used to store client, label, and branch options'
p3944
stRp3945
ag3
(g4
g5
(dp3946
g15
S'Domain ClientType'
p3947
sg3578
S'0x190000'
p3948
sg20
S'Bits used to store client type and backup status'
p3949
stRp3950
ag3
(g4
g5
(dp3951
g15
S'Domain LineEnd'
p3952
sg3578
S'0x0710'
p3953
sg20
S'Bits used to store client line termination settings'
p3954
stRp3955
ag3
(g4
g5
(dp3956
g15
S'Domain SubmitMask'
p3957
sg3578
S'0x7000'
p3958
sg20
S'Bits used to store client submit options'
p3959
stRp3960
ag3
(g4
g5
(dp3961
g15
S'Domain StreamMask'
p3962
sg3578
S'0x000C'
p3963
sg20
S'Bits used to store stream options'
p3964
stRp3965
atRp3966
sg3651
S'Options for domains'
p3967
sg17
S'bitmask'
p3968
sg20
S'A integer value representing the options for a domain'
p3969
stRp3970
ag3
(g4
g5
(dp3971
g17
S'flag'
p3972
sg3651
S'A domain type'
p3973
sg3573
g3
(g8
g9
(lp3974
g3
(g4
g5
(dp3975
g3578
S"67 (ASCII 'C')"
p3976
sg20
S'unloaded client'
p3977
stRp3978
ag3
(g4
g5
(dp3979
g3578
S"76 (ASCII 'L')"
p3980
sg20
S'unloaded label'
p3981
stRp3982
ag3
(g4
g5
(dp3983
g3578
S"83 (ASCII 'S')"
p3984
sg20
S'unloaded task stream'
p3985
stRp3986
ag3
(g4
g5
(dp3987
g3578
S"98 (ASCII 'b')"
p3988
sg20
S'branch'
p3989
stRp3990
ag3
(g4
g5
(dp3991
g3578
S"99 (ASCII 'c')"
p3992
sg20
S'client'
p3993
stRp3994
ag3
(g4
g5
(dp3995
g3578
S"100 (ASCII 'd')"
p3996
sg20
S'depot'
p3997
stRp3998
ag3
(g4
g5
(dp3999
g3578
S"108 (ASCII 'l')"
p4000
sg20
S'label'
p4001
stRp4002
ag3
(g4
g5
(dp4003
g3578
S"115 (ASCII 's')"
p4004
sg20
S'stream'
p4005
stRp4006
ag3
(g4
g5
(dp4007
g3578
S"116 (ASCII 't')"
p4008
sg20
S'typemap'
p4009
stRp4010
atRp4011
sg15
S'DomainType'
p4012
sg20
S'A integer value representing the type of a domain'
p4013
stRp4014
ag3
(g4
g5
(dp4015
g3651
S'A file name'
p4016
sg20
S'A string representing the filename'
p4017
sg17
S'string'
p4018
sg15
S'File'
p4019
sg224
S'FileType'
p4020
stRp4021
ag3
(g4
g5
(dp4022
g3651
S'A file size'
p4023
sg17
S'integer'
p4024
sg15
S'FileSize'
p4025
sg20
S'A 64-bit integer used to store file sizes. The value -1 is\n\t\tused to represent unknown file sizes.'
p4026
stRp4027
ag3
(g4
g5
(dp4028
g3573
g3
(g8
g9
(lp4029
g3
(g4
g5
(dp4030
g3576
S'Storage Type'
p4031
sg3578
S'0x0000'
p4032
sg20
S'RCS'
p4033
stRp4034
ag3
(g4
g5
(dp4035
g3576
S'Storage Type'
p4036
sg3578
S'0x0001'
p4037
sg20
S'Binary'
p4038
stRp4039
ag3
(g4
g5
(dp4040
g3576
S'Storage Type'
p4041
sg3578
S'0x0002'
p4042
sg20
S'Tiny'
p4043
stRp4044
ag3
(g4
g5
(dp4045
g3576
S'Storage Type'
p4046
sg3578
S'0x0003'
p4047
sg20
S'Compressed'
p4048
stRp4049
ag3
(g4
g5
(dp4050
g3576
S'Storage Type'
p4051
sg3578
S'0x0004'
p4052
sg20
S'tempobj (deprecated since 2002.1)'
p4053
stRp4054
ag3
(g4
g5
(dp4055
g3576
S'Storage Type'
p4056
sg3578
S'0x0005'
p4057
sg20
S'Detect type. Used internally when no type is\n\t\t    given by the user.'
p4058
stRp4059
ag3
(g4
g5
(dp4060
g3576
S'Storage Type'
p4061
sg3578
S'0x0006'
p4062
sg20
S'Compressed tempobj (deprecated since 2002.1)'
p4063
stRp4064
ag3
(g4
g5
(dp4065
g3576
S'Storage Type'
p4066
sg3578
S'0x0007'
p4067
sg20
S'Binary access to compressed data. Used internally.'
p4068
stRp4069
ag3
(g4
g5
(dp4070
g3576
S'Storage Type'
p4071
sg3578
S'0x0008'
p4072
sg20
S'Stored externally via librarian trigger'
p4073
stRp4074
ag3
(g4
g5
(dp4075
g3576
S'Storage Mods'
p4076
sg3578
S'0x0010'
p4077
sg20
S'99.2-style keyword expansion/contraction'
p4078
stRp4079
ag3
(g4
g5
(dp4080
g3576
S'Storage Mods'
p4081
sg3578
S'0x0020'
p4082
sg20
S'2000.1-style keyword expansion/contraction'
p4083
stRp4084
ag3
(g4
g5
(dp4085
g3576
S'Storage Mods'
p4086
sg3578
S'0x0030'
p4087
sg20
S'Any type of keyword expansion'
p4088
stRp4089
ag3
(g4
g5
(dp4090
g3576
S'Storage Mods'
p4091
sg3578
S'0x0040'
p4092
sg20
S'Exclusive open'
p4093
stRp4094
ag3
(g4
g5
(dp4095
g3576
S'Storage Mods'
p4096
sg3578
S'0x0080'
p4097
sg20
S'New tempobj (+S modifier)'
p4098
stRp4099
ag3
(g4
g5
(dp4100
g3576
S'Tempobj revisions'
p4101
sg3578
S'0x0000'
p4102
sg20
S'+S1'
p4103
stRp4104
ag3
(g4
g5
(dp4105
g3576
S'Tempobj revisions'
p4106
sg3578
S'0x0100'
p4107
sg20
S'+S2'
p4108
stRp4109
ag3
(g4
g5
(dp4110
g3576
S'Tempobj revisions'
p4111
sg3578
S'0x0200'
p4112
sg20
S'+S3'
p4113
stRp4114
ag3
(g4
g5
(dp4115
g3576
S'Tempobj revisions'
p4116
sg3578
S'0x0300'
p4117
sg20
S'+S4'
p4118
stRp4119
ag3
(g4
g5
(dp4120
g3576
S'Tempobj revisions'
p4121
sg3578
S'0x0400'
p4122
sg20
S'+S5'
p4123
stRp4124
ag3
(g4
g5
(dp4125
g3576
S'Tempobj revisions'
p4126
sg3578
S'0x0500'
p4127
sg20
S'+S6'
p4128
stRp4129
ag3
(g4
g5
(dp4130
g3576
S'Tempobj revisions'
p4131
sg3578
S'0x0600'
p4132
sg20
S'+S7'
p4133
stRp4134
ag3
(g4
g5
(dp4135
g3576
S'Tempobj revisions'
p4136
sg3578
S'0x0700'
p4137
sg20
S'+S8'
p4138
stRp4139
ag3
(g4
g5
(dp4140
g3576
S'Tempobj revisions'
p4141
sg3578
S'0x0800'
p4142
sg20
S'+S9'
p4143
stRp4144
ag3
(g4
g5
(dp4145
g3576
S'Tempobj revisions'
p4146
sg3578
S'0x0900'
p4147
sg20
S'+S10'
p4148
stRp4149
ag3
(g4
g5
(dp4150
g3576
S'Tempobj revisions'
p4151
sg3578
S'0x0A00'
p4152
sg20
S'+S16'
p4153
stRp4154
ag3
(g4
g5
(dp4155
g3576
S'Tempobj revisions'
p4156
sg3578
S'0x0B00'
p4157
sg20
S'+S32'
p4158
stRp4159
ag3
(g4
g5
(dp4160
g3576
S'Tempobj revisions'
p4161
sg3578
S'0x0C00'
p4162
sg20
S'+S64'
p4163
stRp4164
ag3
(g4
g5
(dp4165
g3576
S'Tempobj revisions'
p4166
sg3578
S'0x0D00'
p4167
sg20
S'+S128'
p4168
stRp4169
ag3
(g4
g5
(dp4170
g3576
S'Tempobj revisions'
p4171
sg3578
S'0x0E00'
p4172
sg20
S'+S256'
p4173
stRp4174
ag3
(g4
g5
(dp4175
g3576
S'Tempobj revisions'
p4176
sg3578
S'0x0F00'
p4177
sg20
S'+S512'
p4178
stRp4179
ag3
(g4
g5
(dp4180
g3576
S'Client Type'
p4181
sg3578
S'0x0000000'
p4182
sg20
S'text'
p4183
stRp4184
ag3
(g4
g5
(dp4185
g3576
S'Client Type'
p4186
sg3578
S'0x0010000'
p4187
sg20
S'binary'
p4188
stRp4189
ag3
(g4
g5
(dp4190
g3576
S'Client Type'
p4191
sg3578
S'0x0020000'
p4192
sg20
S'executable bit set'
p4193
stRp4194
ag3
(g4
g5
(dp4195
g3576
S'Client Type'
p4196
sg3578
S'0x0040000'
p4197
sg20
S'symlink'
p4198
stRp4199
ag3
(g4
g5
(dp4200
g3576
S'Client Type'
p4201
sg3578
S'0x0050000'
p4202
sg20
S'resource fork'
p4203
stRp4204
ag3
(g4
g5
(dp4205
g3576
S'Client Type'
p4206
sg3578
S'0x0080000'
p4207
sg20
S'unicode'
p4208
stRp4209
ag3
(g4
g5
(dp4210
g3576
S'Client Type'
p4211
sg3578
S'0x0090000'
p4212
sg20
S'raw text (nocrlf - 99.1)'
p4213
stRp4214
ag3
(g4
g5
(dp4215
g3576
S'Client Type'
p4216
sg3578
S'0x00C0000'
p4217
sg20
S'apple data + resource file (since 2000.2)'
p4218
stRp4219
ag3
(g4
g5
(dp4220
g3576
S'Client Type'
p4221
sg3578
S'0x00D0000'
p4222
sg20
S'apple data + resource file (99.2)'
p4223
stRp4224
ag3
(g4
g5
(dp4225
g3576
S'Client Type'
p4226
sg3578
S'0x1000000'
p4227
sg20
S'Used to support filetype detection'
p4228
stRp4229
ag3
(g4
g5
(dp4230
g3576
S'Client Mods'
p4231
sg3578
S'0x0100000'
p4232
sg20
S'writable'
p4233
stRp4234
ag3
(g4
g5
(dp4235
g3576
S'Client Mods'
p4236
sg3578
S'0x0200000'
p4237
sg20
S'modtime'
p4238
stRp4239
ag3
(g4
g5
(dp4240
g3576
S'Client Mods'
p4241
sg3578
S'0x0400000'
p4242
sg20
S'uncompress on client'
p4243
stRp4244
atRp4245
sg15
S'FileType'
p4246
sg3576
g3
(g8
g9
(lp4247
g3
(g4
g5
(dp4248
g15
S'Storage Type'
p4249
sg3578
S'0x000F'
p4250
sg20
S"Bits used to store the server's storage type"
p4251
stRp4252
ag3
(g4
g5
(dp4253
g15
S'Storage Mods'
p4254
sg3578
S'0x00F0'
p4255
sg20
S"Bits used to store the modifiers to the server's storage \n\t\t    type"
p4256
stRp4257
ag3
(g4
g5
(dp4258
g15
S'Tempobj revisions'
p4259
sg3578
S'0x0F00'
p4260
sg20
S'Bits used to store the number of revisions to be stored\n\t\t    for +Sn files.'
p4261
stRp4262
ag3
(g4
g5
(dp4263
g15
S'Client Type'
p4264
sg3578
S'0x10D0000'
p4265
sg20
S"Bits used to store the file type from the client's point\n\t\t    of view."
p4266
stRp4267
ag3
(g4
g5
(dp4268
g15
S'Client Mods'
p4269
sg3578
S'0x720000'
p4270
sg20
S'Bits used to store the modifiers applied to the file\n\t\t    on the client.'
p4271
stRp4272
atRp4273
sg3651
S'Type of file'
p4274
sg17
S'bitmask'
p4275
sg20
S'The FileType is a bitmask specifying the type and modifiers\n\t\tof a revision from both the client and server points of view.\n\t\tThe first 16 bits are used to store the storage type and \n\t\tmodifiers, the next 16 bits are used to store the client \n\t\taccess method and modifiers.'
p4276
stRp4277
ag3
(g4
g5
(dp4278
g3651
S'Status of a fixed job'
p4279
sg17
S'string'
p4280
sg15
S'FixStatus'
p4281
sg20
S'This type is a wrapper around the \'Text\' type that handles\n\t\tthe pre-2000.1 "closed" default value.'
p4282
stRp4283
ag3
(g4
g5
(dp4284
g17
S'flag'
p4285
sg3651
S'Type of Graph Permission'
p4286
sg3573
g3
(g8
g9
(lp4287
g3
(g4
g5
(dp4288
g3578
S'0'
sg20
S'none'
p4289
stRp4290
ag3
(g4
g5
(dp4291
g3578
S'1'
sg20
S'read'
p4292
stRp4293
ag3
(g4
g5
(dp4294
g3578
S'2'
sg20
S'write-ref'
p4295
stRp4296
ag3
(g4
g5
(dp4297
g3578
S'4'
sg20
S'write-all'
p4298
stRp4299
ag3
(g4
g5
(dp4300
g3578
S'8'
sg20
S'create-repo'
p4301
stRp4302
ag3
(g4
g5
(dp4303
g3578
S'16'
p4304
sg20
S'delete-repo'
p4305
stRp4306
ag3
(g4
g5
(dp4307
g3578
S'32'
p4308
sg20
S'create-ref'
p4309
stRp4310
ag3
(g4
g5
(dp4311
g3578
S'64'
p4312
sg20
S'delete-ref'
p4313
stRp4314
ag3
(g4
g5
(dp4315
g3578
S'128'
p4316
sg20
S'force-push'
p4317
stRp4318
ag3
(g4
g5
(dp4319
g3578
S'256'
p4320
sg20
S'admin'
p4321
stRp4322
ag3
(g4
g5
(dp4323
g3578
S'4096'
p4324
sg20
S'restricted-ref'
p4325
stRp4326
atRp4327
sg15
S'GraphPermType'
p4328
sg20
S'The type of a graph depot permission'
p4329
stRp4330
ag3
(g4
g5
(dp4331
g3651
S'A 32-bit integer'
p4332
sg17
S'integer'
p4333
sg15
S'Int'
p4334
sg20
S'A 32-bit integer'
p4335
stRp4336
ag3
(g4
g5
(dp4337
g3651
S'An 8-bit integer'
p4338
sg17
S'integer'
p4339
sg15
S'Int8'
p4340
sg20
S'An 8-bit integer: an unsigned char'
p4341
stRp4342
ag3
(g4
g5
(dp4343
g3651
S'A 64-bit integer'
p4344
sg17
S'integer'
p4345
sg15
S'Int64'
p4346
sg20
S'A 64-bit integer.'
p4347
stRp4348
ag3
(g4
g5
(dp4349
g260
S'All integration records should have a corresponding \n\t\treverse record. The \'branch from\' (2) and \'merge from\' (0) \n\t\trecords have corresponding "dirty" reverse records for cases \n\t\twhere the target file took more than one change or was \n\t\t(re)opened for \'edit\' or \'add\'.'
p4350
sg3573
g3
(g8
g9
(lp4351
g3
(g4
g5
(dp4352
g3578
S'0'
sg20
S'merge from: integration with other changes'
p4353
stRp4354
ag3
(g4
g5
(dp4355
g3578
S'1'
sg20
S'merge into: reverse merge'
p4356
stRp4357
ag3
(g4
g5
(dp4358
g3578
S'2'
sg20
S'branch from: integration was branch of file'
p4359
stRp4360
ag3
(g4
g5
(dp4361
g3578
S'3'
sg20
S'branch into: reverse branch'
p4362
stRp4363
ag3
(g4
g5
(dp4364
g3578
S'4'
sg20
S'copy from: integration took source file whole'
p4365
stRp4366
ag3
(g4
g5
(dp4367
g3578
S'5'
sg20
S'copy into: reverse take'
p4368
stRp4369
ag3
(g4
g5
(dp4370
g3578
S'6'
sg20
S'ignored: integration ignored source changes'
p4371
stRp4372
ag3
(g4
g5
(dp4373
g3578
S'7'
sg20
S'ignored by: reverse copy'
p4374
stRp4375
ag3
(g4
g5
(dp4376
g3578
S'8'
sg20
S'delete from: integration of delete'
p4377
stRp4378
ag3
(g4
g5
(dp4379
g3578
S'9'
sg20
S'delete into: reverse delete'
p4380
stRp4381
ag3
(g4
g5
(dp4382
g3578
S'10'
p4383
sg20
S'edit into: reverse of integration downgraded to \n\t\t    edit'
p4384
stRp4385
ag3
(g4
g5
(dp4386
g3578
S'11'
p4387
sg20
S'add into: reverse of branch downgraded to add'
p4388
stRp4389
ag3
(g4
g5
(dp4390
g3578
S'12'
p4391
sg20
S'edit from: merge that the user edited'
p4392
stRp4393
ag3
(g4
g5
(dp4394
g3578
S'13'
p4395
sg20
S'add from: branch downgraded to add'
p4396
stRp4397
ag3
(g4
g5
(dp4398
g3578
S'14'
p4399
sg20
S'moved from: reverse of renamed file'
p4400
stRp4401
ag3
(g4
g5
(dp4402
g3578
S'15'
p4403
sg20
S'moved into: file was renamed'
p4404
stRp4405
ag3
(g4
g5
(dp4406
g3578
S'16'
p4407
sg20
S"'delete' target rev ignoring non-deleted source"
p4408
stRp4409
ag3
(g4
g5
(dp4410
g3578
S'17'
p4411
sg20
S"non-deleted source ignored by 'delete' target rev"
p4412
stRp4413
ag3
(g4
g5
(dp4414
g3578
S'18'
p4415
sg20
S"'integrate' target rev ignoring deleted source"
p4416
stRp4417
ag3
(g4
g5
(dp4418
g3578
S'19'
p4419
sg20
S"deleted source ignored by 'integrate' target rev"
p4420
stRp4421
ag3
(g4
g5
(dp4422
g3578
S'20'
p4423
sg20
S'deleted branch: branch from'
p4424
stRp4425
ag3
(g4
g5
(dp4426
g3578
S'21'
p4427
sg20
S'deleted branch: delete into'
p4428
stRp4429
ag3
(g4
g5
(dp4430
g3578
S'22'
p4431
sg20
S'undo: opposite of merge'
p4432
stRp4433
ag3
(g4
g5
(dp4434
g3578
S'23'
p4435
sg20
S'undo reverse'
p4436
stRp4437
ag3
(g4
g5
(dp4438
g3578
S'24'
p4439
sg20
S'move undo: move + undo as one record'
p4440
stRp4441
ag3
(g4
g5
(dp4442
g3578
S'25'
p4443
sg20
S'move undo reverse'
p4444
stRp4445
atRp4446
sg15
S'IntegHow'
p4447
sg3651
S'Integration methods'
p4448
sg17
S'flag'
p4449
sg20
S"Specifies how an integration was performed. Integrations\n\t\talways come in pairs: the 'forward' and 'reverse' records.\n\t\tAs a general rule, the forward records contain the word \n\t\t'from'; and the reverse records contain the word 'into'."
p4450
stRp4451
ag3
(g4
g5
(dp4452
g17
S'flag'
p4453
sg3651
S'Job status - defunct'
p4454
sg3573
g3
(g8
g9
(lp4455
g3
(g4
g5
(dp4456
g3578
S'0'
sg20
S'open'
p4457
stRp4458
ag3
(g4
g5
(dp4459
g3578
S'1'
sg20
S'closed'
p4460
stRp4461
ag3
(g4
g5
(dp4462
g3578
S'2'
sg20
S'suspended'
p4463
stRp4464
atRp4465
sg15
S'JobStat'
p4466
sg20
S'Old (pre-98.2) job status values.'
p4467
stRp4468
ag3
(g4
g5
(dp4469
g3651
S'A key name'
p4470
sg17
S'string'
p4471
sg15
S'Key'
p4472
sg20
S'A string representing the key name. Key names must \n\t\tcontain no spaces, contain no slashes, and be identifiers \n\t\t(cannot begin with a dash and cannot be all-numeric)'
p4473
stRp4474
ag3
(g4
g5
(dp4475
g17
S'flag'
p4476
sg3651
S'Types of mapping'
p4477
sg3573
g3
(g8
g9
(lp4478
g3
(g4
g5
(dp4479
g3578
S'0'
sg20
S'mapped-in (the default)'
p4480
stRp4481
ag3
(g4
g5
(dp4482
g3578
S'1'
sg20
S"mapped-out (mappings that start with '-')"
p4483
stRp4484
ag3
(g4
g5
(dp4485
g3578
S'2'
sg20
S"overlay (mappings that start with '+')"
p4486
stRp4487
ag3
(g4
g5
(dp4488
g3578
S'3'
sg20
S"haveMap (mappings that start with '$'). Used internally\n\t\t    only"
p4489
stRp4490
ag3
(g4
g5
(dp4491
g3578
S'4'
sg20
S"changeMap (mappings that start with '@')"
p4492
stRp4493
atRp4494
sg15
S'MapFlag'
p4495
sg20
S'Specifies how the files specified by a mapping should be\n\t\ttreated'
p4496
stRp4497
ag3
(g4
g5
(dp4498
g3651
S'A string representing a mapping'
p4499
sg17
S'string'
p4500
sg15
S'Mapping'
p4501
sg20
S'A Mapping is essentially a file name that may contain\n\t\twildcards'
p4502
stRp4503
ag3
(g4
g5
(dp4504
g3651
S'Maximum number of milliseconds to hold locks'
p4505
sg17
S'integer'
p4506
sg15
S'MaxLockTime'
p4507
sg20
S"The number of milliseconds for which a command may hold locks.\n\t\tCommands that take longer than this time period will abort. \n\t\tThe value 0 means 'unlimited'."
p4508
stRp4509
ag3
(g4
g5
(dp4510
g3651
S'Maximum number of results permitted'
p4511
sg17
S'integer'
p4512
sg15
S'MaxResults'
p4513
sg20
S"The number of results that commands run by the restricted\n\t\tuser are permitted to return. The value 0 means 'unlimited'."
p4514
stRp4515
ag3
(g4
g5
(dp4516
g3651
S'Maximum number of records scanned'
p4517
sg17
S'integer'
p4518
sg15
S'MaxScanRows'
p4519
sg20
S"The maximum number of records that the server may read\n\t\ton behalf of the restricted user. The value 0 means \n\t\t'unlimited'."
p4520
stRp4521
ag3
(g4
g5
(dp4522
g17
S'flag'
p4523
sg3651
S'Object type'
p4524
sg3573
g3
(g8
g9
(lp4525
g3
(g4
g5
(dp4526
g3578
S'0'
sg20
S'commit'
p4527
stRp4528
ag3
(g4
g5
(dp4529
g3578
S'1'
sg20
S'tree'
p4530
stRp4531
ag3
(g4
g5
(dp4532
g3578
S'2'
sg20
S'tag'
p4533
stRp4534
ag3
(g4
g5
(dp4535
g3578
S'3'
sg20
S'null'
p4536
stRp4537
atRp4538
sg15
S'ObjectType'
p4539
sg20
S'Object type'
p4540
stRp4541
ag3
(g4
g5
(dp4542
g3651
S'Encoded hex string'
p4543
sg17
S'string'
p4544
sg15
S'Octet String'
p4545
sg20
S'A variable length encoded hex string. The first octet \n\t\tstores the length of the string.'
p4546
stRp4547
ag3
(g4
g5
(dp4548
g3651
S'The MD5 hash of a password'
p4549
sg17
S'string'
p4550
sg15
S'Password'
p4551
sg20
S'The MD5 hash of an encrypted password.'
p4552
stRp4553
ag3
(g4
g5
(dp4554
g3573
g3
(g8
g9
(lp4555
g3
(g4
g5
(dp4556
g3576
S'PermTypeBits'
p4557
sg15
S'None'
p4558
sg3578
S'0x0000'
p4559
sg20
S'none'
p4560
stRp4561
ag3
(g4
g5
(dp4562
g3576
S'PermTypeBits'
p4563
sg15
S'List'
p4564
sg3578
S'0x0001'
p4565
sg20
S'Grants list access'
p4566
stRp4567
ag3
(g4
g5
(dp4568
g3576
S'PermTypeBits'
p4569
sg15
S'Read'
p4570
sg3578
S'0x0002'
p4571
sg20
S'Grants read access'
p4572
stRp4573
ag3
(g4
g5
(dp4574
g3576
S'PermTypeBits'
p4575
sg15
S'Branch'
p4576
sg3578
S'0x0004'
p4577
sg20
S'Grants ability to branch/integ from'
p4578
stRp4579
ag3
(g4
g5
(dp4580
g3576
S'PermTypeBits'
p4581
sg15
S'Open'
p4582
sg3578
S'0x0008'
p4583
sg20
S'Grants open access'
p4584
stRp4585
ag3
(g4
g5
(dp4586
g3576
S'PermTypeBits'
p4587
sg15
S'Write'
p4588
sg3578
S'0x0010'
p4589
sg20
S'Grants write access'
p4590
stRp4591
ag3
(g4
g5
(dp4592
g3576
S'PermTypeBits'
p4593
sg15
S'Review'
p4594
sg3578
S'0x0020'
p4595
sg20
S'Grants review access'
p4596
stRp4597
ag3
(g4
g5
(dp4598
g3576
S'PermTypeBits'
p4599
sg15
S'Admin'
p4600
sg3578
S'0x0080'
p4601
sg20
S'Grants admin access'
p4602
stRp4603
ag3
(g4
g5
(dp4604
g3576
S'PermTypeBits'
p4605
sg15
S'Super'
p4606
sg3578
S'0x0040'
p4607
sg20
S'Grants super-user access'
p4608
stRp4609
ag3
(g4
g5
(dp4610
g3576
S'PermTypeBits'
p4611
sg15
S'Owner'
p4612
sg3578
S'0x0100'
p4613
sg20
S'Grants owner access'
p4614
stRp4615
atRp4616
sg15
S'Perm'
p4617
sg3576
g3
(g4
g5
(dp4618
g15
S'PermTypeBits'
p4619
sg3578
S'0x00FF'
p4620
sg20
S'Bits used to store granted permissions'
p4621
stRp4622
sg3651
S'Bitmask of permissions'
p4623
sg17
S'bitmask'
p4624
sg20
S'A bitmask of granted permissions'
p4625
stRp4626
ag3
(g4
g5
(dp4627
g17
S'flag'
p4628
sg3651
S'Archive pull transfer status'
p4629
sg3573
g3
(g8
g9
(lp4630
g3
(g4
g5
(dp4631
g15
S'new'
p4632
sg3578
S'new'
p4633
sg20
S'new transfer'
p4634
stRp4635
ag3
(g4
g5
(dp4636
g15
S'active'
p4637
sg3578
S'active'
p4638
sg20
S'active transfer'
p4639
stRp4640
ag3
(g4
g5
(dp4641
g15
S'done'
p4642
sg3578
S'done'
p4643
sg20
S'completed transfer'
p4644
stRp4645
ag3
(g4
g5
(dp4646
g15
S'error'
p4647
sg3578
S'error'
p4648
sg20
S'errored transfer'
p4649
stRp4650
ag3
(g4
g5
(dp4651
g15
S'restart'
p4652
sg3578
S'restart'
p4653
sg20
S'restarted transfer'
p4654
stRp4655
ag3
(g4
g5
(dp4656
g15
S'cancelled'
p4657
sg3578
S'cancelled'
p4658
sg20
S'cancelled transfer'
p4659
stRp4660
atRp4661
sg15
S'PullStatus'
p4662
sg20
S'The status of an archive pull transfer'
p4663
stRp4664
ag3
(g4
g5
(dp4665
g17
S'flag'
p4666
sg3651
S'Reference action'
p4667
sg3573
g3
(g8
g9
(lp4668
g3
(g4
g5
(dp4669
g3578
S'0'
sg20
S'create'
p4670
stRp4671
ag3
(g4
g5
(dp4672
g3578
S'1'
sg20
S'update'
p4673
stRp4674
ag3
(g4
g5
(dp4675
g3578
S'2'
sg20
S'force'
p4676
stRp4677
ag3
(g4
g5
(dp4678
g3578
S'3'
sg20
S'delete'
p4679
stRp4680
atRp4681
sg15
S'RefAction'
p4682
sg20
S'A reference action'
p4683
stRp4684
ag3
(g4
g5
(dp4685
g17
S'flag'
p4686
sg3651
S'A reference type'
p4687
sg3573
g3
(g8
g9
(lp4688
g3
(g4
g5
(dp4689
g3578
S'0'
sg20
S'Branch reference'
p4690
stRp4691
ag3
(g4
g5
(dp4692
g3578
S'1'
sg20
S'Remote reference'
p4693
stRp4694
ag3
(g4
g5
(dp4695
g3578
S'2'
sg20
S'Tag reference'
p4696
stRp4697
ag3
(g4
g5
(dp4698
g3578
S'3'
sg20
S'Workspace branch reference. Pseudo-reference, used by workspaces that access git files'
p4699
stRp4700
ag3
(g4
g5
(dp4701
g3578
S'4'
sg20
S'Workspace have reference. Pseudo-reference, used by workspaces that access git files'
p4702
stRp4703
ag3
(g4
g5
(dp4704
g3578
S'5'
sg20
S'Other reference'
p4705
stRp4706
atRp4707
sg15
S'RefType'
p4708
sg20
S'The type of reference'
p4709
stRp4710
ag3
(g4
g5
(dp4711
g3651
S'A remote name'
p4712
sg17
S'string'
p4713
sg15
S'RemoteID'
p4714
sg20
S'A string representing the name of a remote spec'
p4715
stRp4716
ag3
(g4
g5
(dp4717
g17
S'flag'
p4718
sg3651
S'Resolve actions'
p4719
sg3573
g3
(g8
g9
(lp4720
g3
(g4
g5
(dp4721
g3578
S'0'
sg20
S'Content resolve'
p4722
stRp4723
ag3
(g4
g5
(dp4724
g3578
S'1'
sg20
S'Filetype resolve'
p4725
stRp4726
ag3
(g4
g5
(dp4727
g3578
S'2'
sg20
S'Branch resolve'
p4728
stRp4729
ag3
(g4
g5
(dp4730
g3578
S'3'
sg20
S'Delete resolve'
p4731
stRp4732
ag3
(g4
g5
(dp4733
g3578
S'4'
sg20
S'Move resolve'
p4734
stRp4735
ag3
(g4
g5
(dp4736
g3578
S'5'
sg20
S'Attribute resolve'
p4737
stRp4738
ag3
(g4
g5
(dp4739
g3578
S'6'
sg20
S'Charset resolve'
p4740
stRp4741
atRp4742
sg15
S'ResolveState'
p4743
sg20
S'Pending or completed resolve actions.'
p4744
stRp4745
ag3
(g4
g5
(dp4746
g17
S'flag'
p4747
sg3651
S'Resolve methods (obsolete in 2011.1, replaced by ResolveState)'
p4748
sg3573
g3
(g8
g9
(lp4749
g3
(g4
g5
(dp4750
g3578
S'0'
sg20
S'Not yet resolved'
p4751
stRp4752
ag3
(g4
g5
(dp4753
g3578
S'1'
sg20
S'Resolved manually'
p4754
stRp4755
ag3
(g4
g5
(dp4756
g3578
S'2'
sg20
S'Resolved automatically as part of a branch'
p4757
stRp4758
ag3
(g4
g5
(dp4759
g3578
S'3'
sg20
S'Resolved automatically as part of a delete'
p4760
stRp4761
ag3
(g4
g5
(dp4762
g3578
S'4'
sg20
S'Resolved automatically as part of a move'
p4763
stRp4764
atRp4765
sg15
S'ResolvedStatus'
p4766
sg20
S'Specifies how the user resolved merge operations.'
p4767
stRp4768
ag3
(g4
g5
(dp4769
g3651
S'A revision number'
p4770
sg17
S'integer'
p4771
sg15
S'Rev'
p4772
sg20
S"The positive integer number of a specific revision of a file. \n\t\tThe number 0 represents '#none'."
p4773
stRp4774
ag3
(g4
g5
(dp4775
g3573
g3
(g8
g9
(lp4776
g3
(g4
g5
(dp4777
g3576
S'RevStatusBits'
p4778
sg3578
S'0x0000'
p4779
sg20
S'single revision with content'
p4780
stRp4781
ag3
(g4
g5
(dp4782
g3576
S'RevStatusBits'
p4783
sg3578
S'0x0001'
p4784
sg20
S'single revision lazy copied'
p4785
stRp4786
ag3
(g4
g5
(dp4787
g3576
S'RevStatusBits'
p4788
sg3578
S'0x0002'
p4789
sg20
S'revision task sparse'
p4790
stRp4791
ag3
(g4
g5
(dp4792
g3576
S'RevStatusBits'
p4793
sg3578
S'0x0004'
p4794
sg20
S'revision task branch'
p4795
stRp4796
ag3
(g4
g5
(dp4797
g3576
S'RevCharsetBits'
p4798
sg3578
S'0'
sg20
S'NONE'
p4799
stRp4800
ag3
(g4
g5
(dp4801
g3576
S'RevCharsetBits'
p4802
sg3578
S'1'
sg20
S'UTF_8'
p4803
stRp4804
ag3
(g4
g5
(dp4805
g3576
S'RevCharsetBits'
p4806
sg3578
S'2'
sg20
S'ISO8859_1'
p4807
stRp4808
ag3
(g4
g5
(dp4809
g3576
S'RevCharsetBits'
p4810
sg3578
S'3'
sg20
S'UTF_16'
p4811
stRp4812
ag3
(g4
g5
(dp4813
g3576
S'RevCharsetBits'
p4814
sg3578
S'4'
sg20
S'SHIFTJIS'
p4815
stRp4816
ag3
(g4
g5
(dp4817
g3576
S'RevCharsetBits'
p4818
sg3578
S'5'
sg20
S'EUCJP'
p4819
stRp4820
ag3
(g4
g5
(dp4821
g3576
S'RevCharsetBits'
p4822
sg3578
S'6'
sg20
S'WIN_US_ANSI'
p4823
stRp4824
ag3
(g4
g5
(dp4825
g3576
S'RevCharsetBits'
p4826
sg3578
S'7'
sg20
S'WIN_US_OEM'
p4827
stRp4828
ag3
(g4
g5
(dp4829
g3576
S'RevCharsetBits'
p4830
sg3578
S'8'
sg20
S'MACOS_ROMAN'
p4831
stRp4832
ag3
(g4
g5
(dp4833
g3576
S'RevCharsetBits'
p4834
sg3578
S'9'
sg20
S'ISO8859_15'
p4835
stRp4836
ag3
(g4
g5
(dp4837
g3576
S'RevCharsetBits'
p4838
sg3578
S'10'
p4839
sg20
S'ISO8859_5'
p4840
stRp4841
ag3
(g4
g5
(dp4842
g3576
S'RevCharsetBits'
p4843
sg3578
S'11'
p4844
sg20
S'KOI8_R'
p4845
stRp4846
ag3
(g4
g5
(dp4847
g3576
S'RevCharsetBits'
p4848
sg3578
S'12'
p4849
sg20
S'WIN_CP_1251'
p4850
stRp4851
ag3
(g4
g5
(dp4852
g3576
S'RevCharsetBits'
p4853
sg3578
S'13'
p4854
sg20
S'UTF_16_LE'
p4855
stRp4856
ag3
(g4
g5
(dp4857
g3576
S'RevCharsetBits'
p4858
sg3578
S'14'
p4859
sg20
S'UTF_16_BE'
p4860
stRp4861
ag3
(g4
g5
(dp4862
g3576
S'RevCharsetBits'
p4863
sg3578
S'15'
p4864
sg20
S'UTF_16_LE_BOM'
p4865
stRp4866
ag3
(g4
g5
(dp4867
g3576
S'RevCharsetBits'
p4868
sg3578
S'16'
p4869
sg20
S'UTF_16_BE_BOM'
p4870
stRp4871
ag3
(g4
g5
(dp4872
g3576
S'RevCharsetBits'
p4873
sg3578
S'17'
p4874
sg20
S'UTF_16_BOM'
p4875
stRp4876
ag3
(g4
g5
(dp4877
g3576
S'RevCharsetBits'
p4878
sg3578
S'18'
p4879
sg20
S'UTF_8_BOM'
p4880
stRp4881
ag3
(g4
g5
(dp4882
g3576
S'RevCharsetBits'
p4883
sg3578
S'19'
p4884
sg20
S'UTF_32'
p4885
stRp4886
ag3
(g4
g5
(dp4887
g3576
S'RevCharsetBits'
p4888
sg3578
S'20'
p4889
sg20
S'UTF_32_LE'
p4890
stRp4891
ag3
(g4
g5
(dp4892
g3576
S'RevCharsetBits'
p4893
sg3578
S'21'
p4894
sg20
S'UTF_32_BE'
p4895
stRp4896
ag3
(g4
g5
(dp4897
g3576
S'RevCharsetBits'
p4898
sg3578
S'22'
p4899
sg20
S'UTF_32_LE_BOM'
p4900
stRp4901
ag3
(g4
g5
(dp4902
g3576
S'RevCharsetBits'
p4903
sg3578
S'23'
p4904
sg20
S'UTF_32_BE_BOM'
p4905
stRp4906
ag3
(g4
g5
(dp4907
g3576
S'RevCharsetBits'
p4908
sg3578
S'24'
p4909
sg20
S'UTF_32_BOM'
p4910
stRp4911
ag3
(g4
g5
(dp4912
g3576
S'RevCharsetBits'
p4913
sg3578
S'25'
p4914
sg20
S'UTF_8_UNCHECKED'
p4915
stRp4916
ag3
(g4
g5
(dp4917
g3576
S'RevCharsetBits'
p4918
sg3578
S'26'
p4919
sg20
S'UTF_8_UNCHECKED_BOM'
p4920
stRp4921
ag3
(g4
g5
(dp4922
g3576
S'RevCharsetBits'
p4923
sg3578
S'27'
p4924
sg20
S'CP949'
p4925
stRp4926
ag3
(g4
g5
(dp4927
g3576
S'RevCharsetBits'
p4928
sg3578
S'28'
p4929
sg20
S'CP936'
p4930
stRp4931
ag3
(g4
g5
(dp4932
g3576
S'RevCharsetBits'
p4933
sg3578
S'29'
p4934
sg20
S'CP950'
p4935
stRp4936
ag3
(g4
g5
(dp4937
g3576
S'RevCharsetBits'
p4938
sg3578
S'30'
p4939
sg20
S'CP850'
p4940
stRp4941
ag3
(g4
g5
(dp4942
g3576
S'RevCharsetBits'
p4943
sg3578
S'31'
p4944
sg20
S'CP858'
p4945
stRp4946
atRp4947
sg15
S'RevStatus'
p4948
sg3576
g3
(g8
g9
(lp4949
g3
(g4
g5
(dp4950
g15
S'RevStatusBits'
p4951
sg3578
S'0x000F'
p4952
sg20
S'Bits used to store revision status'
p4953
stRp4954
ag3
(g4
g5
(dp4955
g15
S'RevCharsetBits'
p4956
sg3578
S'0x007F'
p4957
sg20
S'Bits used to store revision charset (high 8 bits). Value shifted right 24 bits before applying mask'
p4958
stRp4959
atRp4960
sg3651
S'A revision status'
p4961
sg17
S'bitmask'
p4962
sg20
S'Lazy copy, task stream promotion, and charset status'
p4963
stRp4964
ag3
(g4
g5
(dp4965
g3651
S'Type of reviewer'
p4966
sg17
S'integer'
p4967
sg15
S'Reviewer'
p4968
sg20
S'The type of reviewer. Currently there is only one type of\n\t\treviewer and 0 is the only valid value.'
p4969
stRp4970
ag3
(g4
g5
(dp4971
g17
S'flag'
p4972
sg3651
S'The type of server'
p4973
sg3573
g3
(g8
g9
(lp4974
g3
(g4
g5
(dp4975
g3578
S'0'
sg20
S'server'
p4976
stRp4977
ag3
(g4
g5
(dp4978
g3578
S'1'
sg20
S'proxy'
p4979
stRp4980
ag3
(g4
g5
(dp4981
g3578
S'2'
sg20
S'broker'
p4982
stRp4983
ag3
(g4
g5
(dp4984
g3578
S'3'
sg20
S'identifier'
p4985
stRp4986
ag3
(g4
g5
(dp4987
g3578
S'4'
sg20
S'admin'
p4988
stRp4989
ag3
(g4
g5
(dp4990
g3578
S'5'
sg20
S'connector'
p4991
stRp4992
atRp4993
sg15
S'ServerType'
p4994
sg20
S'The type of server'
p4995
stRp4996
ag3
(g4
g5
(dp4997
g3573
g3
(g8
g9
(lp4998
g3
(g4
g5
(dp4999
g3576
S'Service Set Value'
p5000
sg3578
S'0x0903'
p5001
sg20
S'standard \t\t( db-read | db-write | rmt-depot | rmt-journal )'
p5002
stRp5003
ag3
(g4
g5
(dp5004
g3576
S'Service Set Value'
p5005
sg3578
S'0x0045'
p5006
sg20
S'replica \t\t( db-read | db-replication | file-replication | rmt-depot | rmt-journal )'
p5007
stRp5008
ag3
(g4
g5
(dp5009
g3576
S'Service Set Value'
p5010
sg3578
S'0x0030'
p5011
sg20
S'broker ( brokering | forwarding )'
p5012
stRp5013
ag3
(g4
g5
(dp5014
g3576
S'Service Set Value'
p5015
sg3578
S'0x00A0'
p5016
sg20
S'proxy ( forwarding | file-cacheing )'
p5017
stRp5018
ag3
(g4
g5
(dp5019
g3576
S'Service Set Value'
p5020
sg3578
S'0x00E5'
p5021
sg20
S'forwarding-replica ( db-read | db-replication | forwarding | file-replication | file-cacheing | rmt-depot | rmt-journal )'
p5022
stRp5023
ag3
(g4
g5
(dp5024
g3576
S'Service Set Value'
p5025
sg3578
S'0x004D'
p5026
sg20
S'build-server ( db-read | db-replication | bound-clients | file-replication | rmt-depot | rmt-journal )'
p5027
stRp5028
ag3
(g4
g5
(dp5029
g3576
S'Service Set Value'
p5030
sg3578
S'0x0203'
p5031
sg20
S'P4AUTH ( db-read | db-write | rmt-auth )'
p5032
stRp5033
ag3
(g4
g5
(dp5034
g3576
S'Service Set Value'
p5035
sg3578
S'0x0403'
p5036
sg20
S'P4CHANGE ( db-read | db-write | rmt-change )'
p5037
stRp5038
ag3
(g4
g5
(dp5039
g3576
S'Service Set Value'
p5040
sg3578
S'0x19ED'
p5041
sg20
S'edge-server ( db-read | db-replication | bound-clients | forwarding | file-replication | file-cacheing | rmt-depot | rmt-journal | local-opens )'
p5042
stRp5043
ag3
(g4
g5
(dp5044
g3576
S'Service Set Value'
p5045
sg3578
S'0x2F03'
p5046
sg20
S'commit-server ( db-read | db-write | rmt-depot | rmt-journal | rmt-change | rmt-auth | commit-server )'
p5047
stRp5048
ag3
(g4
g5
(dp5049
g3576
S'Service Set Value'
p5050
sg3578
S'0x6F03'
p5051
sg20
S'depot-master ( db-read | db-write | rmt-depot | rmt-journal | rmt-change | rmt-auth | commit-server | p4zk-managed )'
p5052
stRp5053
ag3
(g4
g5
(dp5054
g3576
S'Service Set Value'
p5055
sg3578
S'0xC945'
p5056
sg20
S'depot-standby ( db-read | db-replication | file-replication | rmt-depot | rmt-journal | journal-copy | p4zk-managed )'
p5057
stRp5058
ag3
(g4
g5
(dp5059
g3576
S'Service Set Value'
p5060
sg3578
S'0x59ED'
p5061
sg20
S'workspace-server ( db-read | db-replication | bound-clients | forwarding | file-replication | file-cacheing | rmt-depot | rmt-journal | local-opens | p4zk-managed )'
p5062
stRp5063
ag3
(g4
g5
(dp5064
g3576
S'Service Set Value'
p5065
sg3578
S'0x8945'
p5066
sg20
S'standby ( db-read | db-replication | file-replication | rmt-depot | rmt-journal | journal-copy )'
p5067
stRp5068
ag3
(g4
g5
(dp5069
g3576
S'Service Set Value'
p5070
sg3578
S'0x89E5'
p5071
sg20
S'forwarding-standby ( db-read | db-replication | forwarding | file-replication | file-cacheing | rmt-depot | rmt-journal | journal-copy )'
p5072
stRp5073
ag3
(g4
g5
(dp5074
g3576
S'Service Set Value'
p5075
sg3578
S'0x4030'
p5076
sg20
S'workspace-router ( brokering | forwarding | p4zk-managed )'
p5077
stRp5078
ag3
(g4
g5
(dp5079
g3576
S'Service Set Value'
p5080
sg3578
S'0x10003'
p5081
sg20
S'local ( db-read | db-write | dvcs-local )'
p5082
stRp5083
ag3
(g4
g5
(dp5084
g3576
S'Service Set Value'
p5085
sg3578
S'0x20000'
p5086
sg20
S'cluster ( cluster-id )'
p5087
stRp5088
ag3
(g4
g5
(dp5089
g3576
S'Service Set Value'
p5090
sg3578
S'0x40000'
p5091
sg20
S'zookeeper-server ( zookeeper-server )'
p5092
stRp5093
ag3
(g4
g5
(dp5094
g3576
S'Service Set Value'
p5095
sg3578
S'0x80000'
p5096
sg20
S'hxca-server ( hxca-server )'
p5097
stRp5098
ag3
(g4
g5
(dp5099
g3576
S'Service Set Value'
p5100
sg3578
S'0x100000'
p5101
sg20
S'git-connector'
p5102
stRp5103
ag3
(g4
g5
(dp5104
g3576
S'Service Property'
p5105
sg3578
S'0x0001'
p5106
sg20
S'db-read'
p5107
stRp5108
ag3
(g4
g5
(dp5109
g3576
S'Service Property'
p5110
sg3578
S'0x0002'
p5111
sg20
S'db-write'
p5112
stRp5113
ag3
(g4
g5
(dp5114
g3576
S'Service Property'
p5115
sg3578
S'0x0004'
p5116
sg20
S'db-replication'
p5117
stRp5118
ag3
(g4
g5
(dp5119
g3576
S'Service Property'
p5120
sg3578
S'0x0008'
p5121
sg20
S'bound-clients'
p5122
stRp5123
ag3
(g4
g5
(dp5124
g3576
S'Service Property'
p5125
sg3578
S'0x0010'
p5126
sg20
S'brokering'
p5127
stRp5128
ag3
(g4
g5
(dp5129
g3576
S'Service Property'
p5130
sg3578
S'0x0020'
p5131
sg20
S'forwarding'
p5132
stRp5133
ag3
(g4
g5
(dp5134
g3576
S'Service Property'
p5135
sg3578
S'0x0040'
p5136
sg20
S'file-replication'
p5137
stRp5138
ag3
(g4
g5
(dp5139
g3576
S'Service Property'
p5140
sg3578
S'0x0080'
p5141
sg20
S'file-cacheing'
p5142
stRp5143
ag3
(g4
g5
(dp5144
g3576
S'Service Property'
p5145
sg3578
S'0x0100'
p5146
sg20
S'rmt-depot'
p5147
stRp5148
ag3
(g4
g5
(dp5149
g3576
S'Service Property'
p5150
sg3578
S'0x0200'
p5151
sg20
S'rmt-auth'
p5152
stRp5153
ag3
(g4
g5
(dp5154
g3576
S'Service Property'
p5155
sg3578
S'0x0400'
p5156
sg20
S'rmt-change'
p5157
stRp5158
ag3
(g4
g5
(dp5159
g3576
S'Service Property'
p5160
sg3578
S'0x0800'
p5161
sg20
S'rmt-journal'
p5162
stRp5163
ag3
(g4
g5
(dp5164
g3576
S'Service Property'
p5165
sg3578
S'0x1000'
p5166
sg20
S'local-opens'
p5167
stRp5168
ag3
(g4
g5
(dp5169
g3576
S'Service Property'
p5170
sg3578
S'0x2000'
p5171
sg20
S'commit-server'
p5172
stRp5173
ag3
(g4
g5
(dp5174
g3576
S'Service Property'
p5175
sg3578
S'0x4000'
p5176
sg20
S'p4zk-managed'
p5177
stRp5178
ag3
(g4
g5
(dp5179
g3576
S'Service Property'
p5180
sg3578
S'0x8000'
p5181
sg20
S'journal-copy'
p5182
stRp5183
ag3
(g4
g5
(dp5184
g3576
S'Service Property'
p5185
sg3578
S'0x10000'
p5186
sg20
S'dvcs-local'
p5187
stRp5188
ag3
(g4
g5
(dp5189
g3576
S'Service Property'
p5190
sg3578
S'0x20000'
p5191
sg20
S'cluster-id'
p5192
stRp5193
ag3
(g4
g5
(dp5194
g3576
S'Service Property'
p5195
sg3578
S'0x40000'
p5196
sg20
S'zookeeper'
p5197
stRp5198
ag3
(g4
g5
(dp5199
g3576
S'Service Property'
p5200
sg3578
S'0x80000'
p5201
sg20
S'hxca'
p5202
stRp5203
atRp5204
sg15
S'ServerServiceType'
p5205
sg3576
g3
(g8
g9
(lp5206
g3
(g4
g5
(dp5207
g15
S'Service Set Value'
p5208
sg3578
S'None'
p5209
sg20
S"The server service type setting is generated by OR'ing the generic ServerServiceProperties defined below"
p5210
stRp5211
ag3
(g4
g5
(dp5212
g15
S'Service Property'
p5213
sg3578
S'None'
p5214
sg20
S'ServerServiceProperties: Bits used to identify generic server properties'
p5215
stRp5216
atRp5217
sg3651
S'The type of server service'
p5218
sg17
S'bitmask'
p5219
sg20
S'The services offered by a type of service.'
p5220
stRp5221
ag3
(g4
g5
(dp5222
g3651
S'Encoded SHA1'
p5223
sg17
S'string'
p5224
sg15
S'SHA1'
p5225
sg20
S'20 byte SHA1 digest of a block of text'
p5226
stRp5227
ag3
(g4
g5
(dp5228
g17
S'flag'
p5229
sg3651
S'A spec type'
p5230
sg3573
g3
(g8
g9
(lp5231
g3
(g4
g5
(dp5232
g3578
S"98 (ASCII 'b')"
p5233
sg20
S'branch'
p5234
stRp5235
ag3
(g4
g5
(dp5236
g3578
S"67 (ASCII 'C')"
p5237
sg20
S'change'
p5238
stRp5239
ag3
(g4
g5
(dp5240
g3578
S"99 (ASCII 'c')"
p5241
sg20
S'client'
p5242
stRp5243
ag3
(g4
g5
(dp5244
g3578
S"100 (ASCII 'd')"
p5245
sg20
S'depot'
p5246
stRp5247
ag3
(g4
g5
(dp5248
g3578
S"101 (ASCII 'e')"
p5249
sg20
S'spec'
p5250
stRp5251
ag3
(g4
g5
(dp5252
g3578
S"103 (ASCII 'g')"
p5253
sg20
S'group'
p5254
stRp5255
ag3
(g4
g5
(dp5256
g3578
S"106 (ASCII 'j')"
p5257
sg20
S'job'
p5258
stRp5259
ag3
(g4
g5
(dp5260
g3578
S"108 (ASCII 'l')"
p5261
sg20
S'label'
p5262
stRp5263
ag3
(g4
g5
(dp5264
g3578
S"68 (ASCII 'D')"
p5265
sg20
S'ldap'
p5266
stRp5267
ag3
(g4
g5
(dp5268
g3578
S"76 (ASCII 'L')"
p5269
sg20
S'license'
p5270
stRp5271
ag3
(g4
g5
(dp5272
g3578
S"112 (ASCII 'p')"
p5273
sg20
S'protect'
p5274
stRp5275
ag3
(g4
g5
(dp5276
g3578
S"114 (ASCII 'r')"
p5277
sg20
S'remote'
p5278
stRp5279
ag3
(g4
g5
(dp5280
g3578
S"83 (ASCII 'S')"
p5281
sg20
S'server'
p5282
stRp5283
ag3
(g4
g5
(dp5284
g3578
S"115 (ASCII 's')"
p5285
sg20
S'stream'
p5286
stRp5287
ag3
(g4
g5
(dp5288
g3578
S"84 (ASCII 'T')"
p5289
sg20
S'trigger'
p5290
stRp5291
ag3
(g4
g5
(dp5292
g3578
S"116 (ASCII 't')"
p5293
sg20
S'typemap'
p5294
stRp5295
ag3
(g4
g5
(dp5296
g3578
S"117 (ASCII 'u')"
p5297
sg20
S'user'
p5298
stRp5299
atRp5300
sg15
S'SpecType'
p5301
sg20
S'A integer value representing the type of a spec'
p5302
stRp5303
ag3
(g4
g5
(dp5304
g17
S'flag'
p5305
sg3651
S'Stash type'
p5306
sg3573
g3
(g8
g9
(lp5307
g3
(g4
g5
(dp5308
g3578
S'0'
sg20
S'switch: A shelf with work-in-progress for a particular stream/branch'
p5309
stRp5310
ag3
(g4
g5
(dp5311
g3578
S'1'
sg20
S"tangent: Work-in-progress relocated by 'p4 fetch -t'. Consumed and removed by 'p4 resubmit'"
p5312
stRp5313
atRp5314
sg15
S'StashType'
p5315
sg20
S'Stash type'
p5316
stRp5317
ag3
(g4
g5
(dp5318
g17
S'flag'
p5319
sg3651
S'Server specification view type'
p5320
sg3573
g3
(g8
g9
(lp5321
g3
(g4
g5
(dp5322
g3578
S'0'
sg20
S'ClientDataFilter'
p5323
stRp5324
ag3
(g4
g5
(dp5325
g3578
S'1'
sg20
S'RevisionDataFilter'
p5326
stRp5327
ag3
(g4
g5
(dp5328
g3578
S'2'
sg20
S'ArchiveDataFilter'
p5329
stRp5330
ag3
(g4
g5
(dp5331
g3578
S'3'
sg20
S'AllowedAddresses'
p5332
stRp5333
atRp5334
sg15
S'SvrViewType'
p5335
sg20
S'Server specification view type'
p5336
stRp5337
ag3
(g4
g5
(dp5338
g3573
g3
(g8
g9
(lp5339
g3
(g4
g5
(dp5340
g3576
S'Stream Status'
p5341
sg3578
S'0x0000'
p5342
sg20
S'Clear cache'
p5343
stRp5344
ag3
(g4
g5
(dp5345
g3576
S'Stream Status'
p5346
sg3578
S'0x0001'
p5347
sg20
S'Needs copy'
p5348
stRp5349
ag3
(g4
g5
(dp5350
g3576
S'Stream Status'
p5351
sg3578
S'0x0002'
p5352
sg20
S'Copy up-to-date'
p5353
stRp5354
ag3
(g4
g5
(dp5355
g3576
S'Stream Status'
p5356
sg3578
S'0x0004'
p5357
sg20
S'Needs merge'
p5358
stRp5359
ag3
(g4
g5
(dp5360
g3576
S'Stream Status'
p5361
sg3578
S'0x0008'
p5362
sg20
S'Merge up-to-date'
p5363
stRp5364
atRp5365
sg15
S'StreamStatus'
p5366
sg3576
g3
(g4
g5
(dp5367
g15
S'Stream Status'
p5368
sg3578
S'Copy: 0x0003, Merge: 0x000C'
p5369
sg20
S'Bits used to store the stream integration status'
p5370
stRp5371
sg3651
S'Stream integration status'
p5372
sg17
S'bitmask'
p5373
sg20
S'The stream integration status.'
p5374
stRp5375
ag3
(g4
g5
(dp5376
g17
S'flag'
p5377
sg3651
S'Type of stream path'
p5378
sg3573
g3
(g8
g9
(lp5379
g3
(g4
g5
(dp5380
g3578
S'0'
sg20
S'share'
p5381
stRp5382
ag3
(g4
g5
(dp5383
g3578
S'1'
sg20
S'isolate'
p5384
stRp5385
ag3
(g4
g5
(dp5386
g3578
S'2'
sg20
S'import'
p5387
stRp5388
ag3
(g4
g5
(dp5389
g3578
S'3'
sg20
S'exclude'
p5390
stRp5391
ag3
(g4
g5
(dp5392
g3578
S'4'
sg20
S'remapped'
p5393
stRp5394
ag3
(g4
g5
(dp5395
g3578
S'5'
sg20
S'ignored'
p5396
stRp5397
ag3
(g4
g5
(dp5398
g3578
S'6'
sg20
S'inclusive'
p5399
stRp5400
ag3
(g4
g5
(dp5401
g3578
S'7'
sg20
S'import+'
p5402
stRp5403
atRp5404
sg15
S'StreamPathType'
p5405
sg20
S'The path type for file paths in a stream view.'
p5406
stRp5407
ag3
(g4
g5
(dp5408
g17
S'flag'
p5409
sg3651
S'Type of stream'
p5410
sg3573
g3
(g8
g9
(lp5411
g3
(g4
g5
(dp5412
g3578
S'0'
sg20
S'mainline'
p5413
stRp5414
ag3
(g4
g5
(dp5415
g3578
S'1'
sg20
S'release'
p5416
stRp5417
ag3
(g4
g5
(dp5418
g3578
S'2'
sg20
S'development'
p5419
stRp5420
ag3
(g4
g5
(dp5421
g3578
S'3'
sg20
S'virtual'
p5422
stRp5423
ag3
(g4
g5
(dp5424
g3578
S'4'
sg20
S'task'
p5425
stRp5426
ag3
(g4
g5
(dp5427
g3578
S'5'
sg20
S'task - unloaded'
p5428
stRp5429
atRp5430
sg15
S'StreamType'
p5431
sg20
S'The type of stream.'
p5432
stRp5433
ag3
(g4
g5
(dp5434
g17
S'flag'
p5435
sg3651
S'Strength check of a password'
p5436
sg3573
g3
(g8
g9
(lp5437
g3
(g4
g5
(dp5438
g3578
S'0'
sg20
S'Strength unknown'
p5439
stRp5440
ag3
(g4
g5
(dp5441
g3578
S'1'
sg20
S'Password is strong'
p5442
stRp5443
ag3
(g4
g5
(dp5444
g3578
S'2'
sg20
S'Unset'
p5445
stRp5446
atRp5447
sg15
S'Strength'
p5448
sg20
S"Whether or not a user's password has been tested for strength."
p5449
stRp5450
ag3
(g4
g5
(dp5451
S'restriction'
p5452
g3
(g8
g9
(lp5453
S'Cannot be empty'
p5454
aS'Cannot consist solely of a dash (-)'
p5455
aS'Cannot be all-numeric'
p5456
aS'Cannot contain non-printable characters'
p5457
aS'Spaces are replaced with underscores ( _ )'
p5458
aS'Revision characters (# and @) are prohibited'
p5459
aS'Slashes (/) are prohibited'
p5460
aS'Wildcards (... and *) are prohibited'
p5461
atRp5462
sg3651
S'A string up to 1024 characters long'
p5463
sg17
S'string'
p5464
sg15
S'String'
p5465
sg20
S'A string up to 1024 characters in length.  Depending on the \n\t\tcontext in which the string is used, restrictions \n\t\tmay apply. Strings are often used as key fields in the \n\t\tschema.'
p5466
stRp5467
ag3
(g4
g5
(dp5468
g17
S'flag'
p5469
sg3651
S'Tamper-state of workspace file'
p5470
sg3573
g3
(g8
g9
(lp5471
g3
(g4
g5
(dp5472
g3578
S'0'
sg20
S'Do not check for tampering'
p5473
stRp5474
ag3
(g4
g5
(dp5475
g3578
S'1'
sg20
S'Check for tampering'
p5476
stRp5477
ag3
(g4
g5
(dp5478
g3578
S'2'
sg20
S'Tamper-check failed'
p5479
stRp5480
atRp5481
sg15
S'TamperCheck'
p5482
sg20
S'Indicates the tamper-state of a file in a workspace. This\n\t\tis used to decide whether or not to check the file, and\n\t\tif checked, to hold the result.'
p5483
stRp5484
ag3
(g4
g5
(dp5485
g3651
S'A string value'
p5486
sg17
S'string'
p5487
sg15
S'Text'
p5488
sg20
S'A text string value - used to hold longer blocks of text.'
p5489
stRp5490
ag3
(g4
g5
(dp5491
g3651
S'The id of a group of traits'
p5492
sg17
S'integer'
p5493
sg15
S'TraitLot'
p5494
sg20
S'An integer identifying a group of traits which may be\n\t\tshared by several revisions.'
p5495
stRp5496
ag3
(g4
g5
(dp5497
g17
S'flag'
p5498
sg3651
S'A type of trait'
p5499
sg3573
g3
(g8
g9
(lp5500
g3
(g4
g5
(dp5501
g3578
S'0'
sg20
S'Special trait for reference counting'
p5502
stRp5503
ag3
(g4
g5
(dp5504
g3578
S'1'
sg20
S'Binary trait'
p5505
stRp5506
ag3
(g4
g5
(dp5507
g3578
S'2'
sg20
S'Binary trait that gets propagated'
p5508
stRp5509
atRp5510
sg15
S'TraitType'
p5511
sg20
S'The type of trait.'
p5512
stRp5513
ag3
(g4
g5
(dp5514
g17
S'flag'
p5515
sg3651
S'A type of trigger'
p5516
sg3573
g3
(g8
g9
(lp5517
g3
(g4
g5
(dp5518
g3578
S'0'
sg20
S'change-submit (formerly pre-submit triggers)'
p5519
stRp5520
ag3
(g4
g5
(dp5521
g3578
S'1'
sg20
S'change-content'
p5522
stRp5523
ag3
(g4
g5
(dp5524
g3578
S'2'
sg20
S'change-commit'
p5525
stRp5526
ag3
(g4
g5
(dp5527
g3578
S'3'
sg20
S'form-in'
p5528
stRp5529
ag3
(g4
g5
(dp5530
g3578
S'4'
sg20
S'form-out'
p5531
stRp5532
ag3
(g4
g5
(dp5533
g3578
S'5'
sg20
S'form-save'
p5534
stRp5535
ag3
(g4
g5
(dp5536
g3578
S'6'
sg20
S'form-delete'
p5537
stRp5538
ag3
(g4
g5
(dp5539
g3578
S'7'
sg20
S'form-commit'
p5540
stRp5541
ag3
(g4
g5
(dp5542
g3578
S'8'
sg20
S'auth-check'
p5543
stRp5544
ag3
(g4
g5
(dp5545
g3578
S'9'
sg20
S'auth-check-sso'
p5546
stRp5547
ag3
(g4
g5
(dp5548
g3578
S'10'
p5549
sg20
S'auth-set'
p5550
stRp5551
ag3
(g4
g5
(dp5552
g3578
S'11'
p5553
sg20
S'fix-add'
p5554
stRp5555
ag3
(g4
g5
(dp5556
g3578
S'12'
p5557
sg20
S'fix-delete'
p5558
stRp5559
ag3
(g4
g5
(dp5560
g3578
S'13'
p5561
sg20
S'archive'
p5562
stRp5563
ag3
(g4
g5
(dp5564
g3578
S'14'
p5565
sg20
S'shelve-submit'
p5566
stRp5567
ag3
(g4
g5
(dp5568
g3578
S'15'
p5569
sg20
S'shelve-commit'
p5570
stRp5571
ag3
(g4
g5
(dp5572
g3578
S'16'
p5573
sg20
S'shelve-delete'
p5574
stRp5575
ag3
(g4
g5
(dp5576
g3578
S'17'
p5577
sg20
S'service-check'
p5578
stRp5579
ag3
(g4
g5
(dp5580
g3578
S'18'
p5581
sg20
S'edge-submit'
p5582
stRp5583
ag3
(g4
g5
(dp5584
g3578
S'19'
p5585
sg20
S'edge-content'
p5586
stRp5587
ag3
(g4
g5
(dp5588
g3578
S'20'
p5589
sg20
S'change-failed'
p5590
stRp5591
ag3
(g4
g5
(dp5592
g3578
S'21'
p5593
sg20
S'command'
p5594
stRp5595
ag3
(g4
g5
(dp5596
g3578
S'22'
p5597
sg20
S'push-submit'
p5598
stRp5599
ag3
(g4
g5
(dp5600
g3578
S'23'
p5601
sg20
S'push-content'
p5602
stRp5603
ag3
(g4
g5
(dp5604
g3578
S'24'
p5605
sg20
S'push-commit'
p5606
stRp5607
ag3
(g4
g5
(dp5608
g3578
S'25'
p5609
sg20
S'journal-rotate'
p5610
stRp5611
ag3
(g4
g5
(dp5612
g3578
S'26'
p5613
sg20
S'journal-rotate-lock'
p5614
stRp5615
ag3
(g4
g5
(dp5616
g3578
S'27'
p5617
sg20
S'graph-push-start'
p5618
stRp5619
ag3
(g4
g5
(dp5620
g3578
S'28'
p5621
sg20
S'graph-push-complete'
p5622
stRp5623
ag3
(g4
g5
(dp5624
g3578
S'29'
p5625
sg20
S'graph-push-reference'
p5626
stRp5627
ag3
(g4
g5
(dp5628
g3578
S'30'
p5629
sg20
S'graph-push-reference-complete'
p5630
stRp5631
ag3
(g4
g5
(dp5632
g3578
S'31'
p5633
sg20
S'graph-lfs-push'
p5634
stRp5635
ag3
(g4
g5
(dp5636
g3578
S'32'
p5637
sg20
S'graph-fork-repo'
p5638
stRp5639
ag3
(g4
g5
(dp5640
g3578
S'33'
p5641
sg20
S'pull-archive'
p5642
stRp5643
ag3
(g4
g5
(dp5644
g3578
S'34'
p5645
sg20
S'auth-pre-2fa'
p5646
stRp5647
ag3
(g4
g5
(dp5648
g3578
S'35'
p5649
sg20
S'auth-init-2fa'
p5650
stRp5651
ag3
(g4
g5
(dp5652
g3578
S'36'
p5653
sg20
S'auth-check-2fa'
p5654
stRp5655
ag3
(g4
g5
(dp5656
g3578
S'37'
p5657
sg20
S'bgtask'
p5658
stRp5659
atRp5660
sg15
S'Trigger'
p5661
sg20
S'The type of a trigger.'
p5662
stRp5663
ag3
(g4
g5
(dp5664
g3651
S'A user or group name'
p5665
sg20
S'The name of a Helix Server user or group.'
p5666
sg17
S'string'
p5667
sg15
S'User'
p5668
sg224
S'String'
p5669
stRp5670
ag3
(g4
g5
(dp5671
g17
S'flag'
p5672
sg3651
S'User Authentication Type'
p5673
sg3573
g3
(g8
g9
(lp5674
g3
(g4
g5
(dp5675
g3578
S'0'
sg20
S'perforce'
p5676
stRp5677
ag3
(g4
g5
(dp5678
g3578
S'1'
sg20
S'ldap'
p5679
stRp5680
ag3
(g4
g5
(dp5681
g3578
S'16'
p5682
sg20
S'perforce+2fa'
p5683
stRp5684
ag3
(g4
g5
(dp5685
g3578
S'17'
p5686
sg20
S'ldap+2fa'
p5687
stRp5688
atRp5689
sg15
S'UserAuthType'
p5690
sg20
S'The AuthMethod setting for the user.'
p5691
stRp5692
ag3
(g4
g5
(dp5693
g17
S'flag'
p5694
sg3651
S'User functionality level'
p5695
sg3573
g3
(g8
g9
(lp5696
g3
(g4
g5
(dp5697
g3578
S'0'
sg20
S'standard'
p5698
stRp5699
ag3
(g4
g5
(dp5700
g3578
S'1'
sg20
S'service'
p5701
stRp5702
ag3
(g4
g5
(dp5703
g3578
S'2'
sg20
S'operator'
p5704
stRp5705
atRp5706
sg15
S'UserLevel'
p5707
sg20
S'User functionality level'
p5708
stRp5709
ag3
(g4
g5
(dp5710
g3573
g3
(g8
g9
(lp5711
g3
(g4
g5
(dp5712
g3576
S'UserTypeBits'
p5713
sg15
S'User'
p5714
sg3578
S'0x0001'
p5715
sg20
S'User is an ordinary user'
p5716
stRp5717
ag3
(g4
g5
(dp5718
g3576
S'UserTypeBits'
p5719
sg15
S'SubGroup'
p5720
sg3578
S'0x0002'
p5721
sg20
S'Group is a sub-group'
p5722
stRp5723
ag3
(g4
g5
(dp5724
g3576
S'UserTypeBits'
p5725
sg15
S'Owner'
p5726
sg3578
S'0x0004'
p5727
sg20
S'User is the owner of a group'
p5728
stRp5729
atRp5730
sg15
S'UserType'
p5731
sg3576
g3
(g4
g5
(dp5732
g15
S'UserTypeBits'
p5733
sg3578
S'0x0007'
p5734
sg20
S'Bits used to store the role of a user in a group'
p5735
stRp5736
sg3651
S'The role of a user within a group'
p5737
sg17
S'bitmask'
p5738
sg20
S'The role of a user (or group) within a group.'
p5739
stRp5740
ag3
(g4
g5
(dp5741
g3651
S'A user or group name with wildcards'
p5742
sg20
S'A user/group name that may contain wildcards (*)'
p5743
sg17
S'string'
p5744
sg15
S'UserWild'
p5745
sg224
S'User'
p5746
stRp5747
ag3
(g4
g5
(dp5748
g3651
S'A number or a string'
p5749
sg17
S'string'
p5750
sg15
S'Value'
p5751
sg20
S'A number, stored in a string, or a string'
p5752
stRp5753
atRp5754
stRp5755
s.