(dp1
S'tables'
p2
ccopy_reg
_reconstructor
p3
(clib.sqUtils
Storage
p4
c__builtin__
dict
p5
(dp6
S'table'
p7
g3
(clib.sqUtils
Lst
p8
c__builtin__
list
p9
(lp10
g3
(g4
g5
(dp11
S'version'
p12
S'1'
sS'keying'
p13
S'serverName, name'
p14
sS'name'
p15
S'db.config'
p16
sS'type'
p17
S'Config'
p18
sS'lockseq'
p19
S'1'
sS'desc'
p20
S'Server configurations table'
p21
stRp22
ag3
(g4
g5
(dp23
g12
S'0'
sg13
S'sName, name, version, date, server'
p24
sg15
S'db.configh'
p25
sg17
S'ConfigHist'
p26
sg19
S'2'
sg20
S'Server configuration history'
p27
stRp28
ag3
(g4
g5
(dp29
g12
S'1'
sg13
S'name'
p30
sg15
S'db.counters'
p31
sg17
S'Counters'
p32
sg19
S'3'
sg20
S'Counters table'
p33
stRp34
ag3
(g4
g5
(dp35
g12
S'1'
sg13
S'name'
p36
sg15
S'db.nameval'
p37
sg17
S'Keys'
p38
sg19
S'4'
sg20
S'A table to store key/value pairs'
p39
stRp40
ag3
(g4
g5
(dp41
g12
S'0'
sg13
S'seq'
p42
sg15
S'db.upgrades.rp'
p43
sg17
S'Upgrades'
p44
sg19
S'5'
sg20
S'Store replica upgrade info'
p45
stRp46
ag3
(g4
g5
(dp47
g12
S'0'
sg13
S'seq'
p48
sg15
S'db.upgrades'
p49
sg17
S'Upgrades'
p50
sg19
S'6'
sg20
S'Store server upgrade info'
p51
stRp52
ag3
(g4
g5
(dp53
g12
S'0'
sg13
S'seq'
p54
sg15
S'db.logger'
p55
sg17
S'Logger'
p56
sg19
S'7'
sg20
S"Support for 'p4 logger' command. Logs any changes to \n\t\tchangelists and jobs"
p57
stRp58
ag3
(g4
g5
(dp59
g12
S'0'
sg13
S'name'
p60
sg15
S'db.ldap'
p61
sg17
S'Ldap'
p62
sg19
S'8'
sg20
S'LDAP specifications'
p63
stRp64
ag3
(g4
g5
(dp65
g12
S'3'
sg13
S'id'
p66
sg15
S'db.server'
p67
sg17
S'Server'
p68
sg19
S'9'
sg20
S'Server specifications'
p69
stRp70
ag3
(g4
g5
(dp71
g12
S'0'
sg13
S'id, type, seq'
p72
sg15
S'db.svrview'
p73
sg17
S'SvrView'
p74
sg19
S'10'
p75
sg20
S'View data for servers specifications'
p76
stRp77
ag3
(g4
g5
(dp78
g12
S'1'
sg13
S'id'
p79
sg15
S'db.remote'
p80
sg17
S'Remote'
p81
sg19
S'11'
p82
sg20
S'Remote specifications'
p83
stRp84
ag3
(g4
g5
(dp85
g12
S'1'
sg13
S'id, seq'
p86
sg15
S'db.rmtview'
p87
sg17
S'RmtView'
p88
sg19
S'12'
p89
sg20
S'View data for remote specifications'
p90
stRp91
ag3
(g4
g5
(dp92
g12
S'0'
sg13
S'client, stream, type, seq'
p93
sg15
S'db.stash'
p94
sg17
S'Stash'
p95
sg19
S'13'
p96
sg20
S'Stash data'
p97
stRp98
ag3
(g4
g5
(dp99
g12
S'7'
sg13
S'user'
p100
sg15
S'db.user.rp'
p101
sg17
S'User'
p102
sg19
S'14'
p103
sg20
S"Used by replica server's to store login information"
p104
stRp105
ag3
(g4
g5
(dp106
g12
S'7'
sg13
S'user'
p107
sg15
S'db.user'
p108
sg17
S'User'
p109
sg19
S'15'
p110
sg20
S'User specifications'
p111
stRp112
ag3
(g4
g5
(dp113
g12
S'0'
sg13
S'user, host'
p114
sg15
S'db.ticket.rp'
p115
sg17
S'Ticket'
p116
sg19
S'16'
p117
sg20
S'Second factor authentication state on a per user/host basis (replica)'
p118
stRp119
ag3
(g4
g5
(dp120
g12
S'0'
sg13
S'user, host'
p121
sg15
S'db.ticket'
p122
sg17
S'Ticket'
p123
sg19
S'17'
p124
sg20
S'Second factor authentication state on a per user/host basis'
p125
stRp126
ag3
(g4
g5
(dp127
g12
S'9'
sg13
S'user, group'
p128
sg15
S'db.group'
p129
sg17
S'Group'
p130
sg19
S'18'
p131
sg20
S'Group specifications'
p132
stRp133
ag3
(g4
g5
(dp134
g12
S'1'
sg13
S'group'
p135
sg15
S'db.groupx'
p136
sg17
S'GroupX'
p137
sg19
S'19'
p138
sg20
S'Per-group data to support group membership controlled by AD/LDAP group membership'
p139
stRp140
ag3
(g4
g5
(dp141
g12
S'1'
sg13
S'name'
p142
sg15
S'db.depot'
p143
sg17
S'Depot'
p144
sg19
S'20'
p145
sg20
S'Depot specifications'
p146
stRp147
ag3
(g4
g5
(dp148
g12
S'1'
sg13
S'stream'
p149
sg15
S'db.stream'
p150
sg17
S'Stream'
p151
sg19
S'21'
p152
sg20
S'Stream specifications'
p153
stRp154
ag3
(g4
g5
(dp155
g12
S'0'
sg13
S'toKey, attr, fromKey, fromChange'
p156
sg15
S'db.integedss'
p157
sg17
S'StreamSpecInteged'
p158
sg19
S'22'
p159
sg20
S'Stream specification integration history'
p160
stRp161
ag3
(g4
g5
(dp162
g12
S'7'
sg13
S'name'
p163
sg15
S'db.domain'
p164
sg17
S'Domain'
p165
sg19
S'23'
p166
sg20
S'Domains: depots, clients, labels, branches, streams, and typemap'
p167
stRp168
ag3
(g4
g5
(dp169
g12
S'2'
sg13
S'name, change, seq'
p170
sg15
S'db.template'
p171
sg17
S'Template'
p172
sg19
S'24'
p173
sg20
S'Streams templates'
p174
stRp175
ag3
(g4
g5
(dp176
g12
S'2'
sg13
S'shelf, name, seq'
p177
sg15
S'db.templatesx'
p178
sg17
S'TemplateSx'
p179
sg19
S'25'
p180
sg20
S'Shelved stream templates'
p181
stRp182
ag3
(g4
g5
(dp183
g12
S'2'
sg13
S'client, name, seq'
p184
sg15
S'db.templatewx'
p185
sg17
S'TemplateWx'
p186
sg19
S'26'
p187
sg20
S'Pending stream templates'
p188
stRp189
ag3
(g4
g5
(dp190
g12
S'1'
sg13
S'name, seq'
p191
sg15
S'db.view.rp'
p192
sg17
S'View'
p193
sg19
S'27'
p194
sg20
S'View data for clients of build-server replicas'
p195
stRp196
ag3
(g4
g5
(dp197
g12
S'1'
sg13
S'name, seq'
p198
sg15
S'db.view'
p199
sg17
S'View'
p200
sg19
S'28'
p201
sg20
S'View data for domain records'
p202
stRp203
ag3
(g4
g5
(dp204
g12
S'1'
sg13
S'name, seq'
p205
sg15
S'db.haveview'
p206
sg17
S'View'
p207
sg19
S'30'
p208
sg20
S'Stores mapping changes for clients mapping graph depot content'
p209
stRp210
ag3
(g4
g5
(dp211
g12
S'1'
sg13
S'user, seq'
p212
sg15
S'db.review'
p213
sg17
S'Review'
p214
sg19
S'31'
p215
sg20
S"User's review mappings"
p216
stRp217
ag3
(g4
g5
(dp218
g12
S'0'
sg13
S'name, depotFile'
p219
sg15
S'db.label'
p220
sg17
S'Label'
p221
sg19
S'32'
p222
sg20
S'Revisions of files in labels'
p223
stRp224
ag3
(g4
g5
(dp225
g12
S'3'
sg13
S'clientFile'
p226
sg15
S'db.have.rp'
p227
sg17
S'Have'
p228
sg19
S'33'
p229
sg20
S"Contains the 'have-list' for clients of build-server replicas"
p230
stRp231
ag3
(g4
g5
(dp232
g12
S'3'
sg13
S'clientFile'
p233
sg15
S'db.have.pt'
p234
sg17
S'Have'
p235
sg19
S'34'
p236
sg20
S'Placeholder for read-only clients'
p237
stRp238
ag3
(g4
g5
(dp239
g12
S'3'
sg13
S'clientFile'
p240
sg15
S'db.have'
p241
sg17
S'Have'
p242
sg19
S'35'
p243
sg20
S"Contains the 'have-list' for all clients"
p244
stRp245
ag3
(g4
g5
(dp246
g12
S'0'
sg13
S'toFile, fromFile, startFromRev, endFromRev,\n\t\t\tstartToRev, endToRev'
p247
sg15
S'db.integed'
p248
sg20
S'Permanent integration records'
p249
sg17
S'Integed'
p250
sg19
S'37'
p251
sS'seeAlso'
p252
S'db.resolve'
p253
stRp254
ag3
(g4
g5
(dp255
g12
S'0'
sg13
S'toFile, fromFile, startFromRev, endFromRev,\n\t\t\tstartToRev, endToRev'
p256
sg15
S'db.integtx'
p257
sg20
S'Temporary integration records used by task streams'
p258
sg17
S'Integed'
p259
sg19
S'38'
p260
sg252
S'db.resolve'
p261
stRp262
ag3
(g4
g5
(dp263
g12
S'1'
sg13
S'toFile, fromFile, startFromRev'
p264
sg15
S'db.resolve'
p265
sg20
S'Pending integration records'
p266
sg17
S'Resolve'
p267
sg19
S'39'
p268
sg252
S'db.integed'
p269
stRp270
ag3
(g4
g5
(dp271
g12
S'1'
sg13
S'toFile, fromFile, startFromRev'
p272
sg15
S'db.resolvex'
p273
sg20
S'Pending integration records for shelved files'
p274
sg17
S'Resolve'
p275
sg19
S'40'
p276
sg252
S'db.integed'
p277
stRp278
ag3
(g4
g5
(dp279
g12
S'0'
sg13
S'toFile, fromFile, baseSha'
p280
sg15
S'db.resolveg'
p281
sg17
S'ResolveG'
p282
sg19
S'41'
p283
sg20
S'Resolve records for clients of type graph'
p284
stRp285
ag3
(g4
g5
(dp286
g12
S'0'
sg13
S'lskey, seq'
p287
sg15
S'db.scandir'
p288
sg17
S'ScanDir'
p289
sg19
S'44'
p290
sg20
S'Scandir'
p291
stRp292
ag3
(g4
g5
(dp293
g12
S'0'
sg13
S'file'
p294
sg15
S'db.scanctl'
p295
sg17
S'ScanCtl'
p296
sg19
S'45'
p297
sg20
S'ScanCtl'
p298
stRp299
ag3
(g4
g5
(dp300
g12
S'1'
sg13
S'file, rev, type'
p301
sg15
S'db.storagesh'
p302
sg17
S'Storage'
p303
sg19
S'46'
p304
sg20
S'Track references to shelved archive files'
p305
stRp306
ag3
(g4
g5
(dp307
S'note'
p308
S'Supersedes db.archmap in 2019.1'
p309
sg12
S'1'
sg13
S'file, rev, type'
p310
sg20
S'Track references to archive files'
p311
sg17
S'Storage'
p312
sg19
S'47'
p313
sg15
S'db.storage'
p314
stRp315
ag3
(g4
g5
(dp316
g12
S'0'
sg13
S'repo, sha, type'
p317
sg15
S'db.storageg'
p318
sg17
S'StorageG'
p319
sg19
S'48'
p320
sg20
S'Track references to Graph Depot archive files (for future use)'
p321
stRp322
ag3
(g4
g5
(dp323
g12
S'9'
sg13
S'depotFile'
p324
sg15
S'db.revdx'
p325
sg17
S'Rev'
p326
sg19
S'49'
p327
sg20
S'Revision records for revisions deleted at the head revision'
p328
stRp329
ag3
(g4
g5
(dp330
g12
S'9'
sg13
S'depotFile'
p331
sg15
S'db.revhx'
p332
sg17
S'Rev'
p333
sg19
S'50'
p334
sg20
S'Revision records for revisions NOT deleted at the head revision'
p335
stRp336
ag3
(g4
g5
(dp337
g308
S'Only populated during content trigger execution to allow\n\t\t\ttriggers access to the revisions being submitted.'
p338
sg12
S'9'
sg13
S'depotFile, depotRev'
p339
sg20
S'Pending revision records'
p340
sg17
S'Rev'
p341
sg19
S'51'
p342
sg15
S'db.revpx'
p343
stRp344
ag3
(g4
g5
(dp345
g12
S'9'
sg13
S'depotFile, depotRev'
p346
sg15
S'db.revsx'
p347
sg17
S'Rev'
p348
sg19
S'52'
p349
sg20
S'Revision records for spec depot files'
p350
stRp351
ag3
(g4
g5
(dp352
g12
S'9'
sg13
S'depotFile, depotRev, type, action, change'
p353
sg15
S'db.revsh'
p354
sg17
S'Rev'
p355
sg19
S'53'
p356
sg20
S'Revision records for shelved files'
p357
stRp358
ag3
(g4
g5
(dp359
g12
S'9'
sg13
S'depotFile, depotRev'
p360
sg15
S'db.revbx'
p361
sg17
S'Rev'
p362
sg19
S'54'
p363
sg20
S'Revision records for archived files'
p364
stRp365
ag3
(g4
g5
(dp366
g12
S'9'
sg13
S'depotFile, depotRev'
p367
sg15
S'db.revux'
p368
sg17
S'Rev'
p369
sg19
S'55'
p370
sg20
S'Revision records for unload depot files'
p371
stRp372
ag3
(g4
g5
(dp373
g12
S'0'
sg13
S'change, depotFile'
p374
sg15
S'db.revcx'
p375
sg17
S'RevCx'
p376
sg19
S'56'
p377
sg20
S'Secondary index of db.rev'
p378
stRp379
ag3
(g4
g5
(dp380
g12
S'9'
sg13
S'depotFile, depotRev'
p381
sg15
S'db.rev'
p382
sg17
S'Rev'
p383
sg19
S'57'
p384
sg20
S'Revision records'
p385
stRp386
ag3
(g4
g5
(dp387
g12
S'9'
sg13
S'depotFile, depotRev'
p388
sg15
S'db.revtx'
p389
sg17
S'Rev'
p390
sg19
S'58'
p391
sg20
S'Task stream revision records'
p392
stRp393
ag3
(g4
g5
(dp394
g12
S'9'
sg13
S'depotFile, depotRev'
p395
sg15
S'db.revstg'
p396
sg17
S'Rev'
p397
sg19
S'59'
p398
sg20
S'Temporary revision records for storage upgrade process'
p399
stRp400
ag3
(g4
g5
(dp401
g12
S'2'
sg13
S'depotFile, client'
p402
sg15
S'db.locks'
p403
sg17
S'Locks'
p404
sg19
S'60'
p405
sg20
S'Locked/Unlocked files'
p406
stRp407
ag3
(g4
g5
(dp408
g12
S'2'
sg13
S'depotFile, client'
p409
sg15
S'db.locksg'
p410
sg17
S'Locks'
p411
sg19
S'61'
p412
sg20
S'Lock records for clients of type graph'
p413
stRp414
ag3
(g4
g5
(dp415
g12
S'10'
p416
sg13
S'clientFile'
p417
sg15
S'db.working'
p418
sg17
S'Working'
p419
sg19
S'62'
p420
sg20
S'Records for work in progress'
p421
stRp422
ag3
(g4
g5
(dp423
g12
S'10'
p424
sg13
S'clientFile'
p425
sg15
S'db.workingx'
p426
sg17
S'Working'
p427
sg19
S'63'
p428
sg20
S'Records for shelved open files'
p429
stRp430
ag3
(g4
g5
(dp431
g12
S'0'
sg13
S'clientFile'
p432
sg15
S'db.workingg'
p433
sg17
S'WorkingG'
p434
sg19
S'64'
p435
sg20
S'Working records for clients of type graph'
p436
stRp437
ag3
(g4
g5
(dp438
g12
S'0'
sg13
S'repo, clientFile'
p439
sg15
S'db.haveg'
p440
sg17
S'Haveg'
p441
sg19
S'65'
p442
sg20
S"Contains the 'have-list' for graph depot files that are not at the same revision as defined by the client's have reference."
p443
stRp444
ag3
(g4
g5
(dp445
g12
S'1'
sg13
S'depotFile'
p446
sg15
S'db.excl'
p447
sg17
S'ExclusiveLock'
p448
sg19
S'66'
p449
sg20
S'Exclusively locked (+l) files -  enables coordinated file locking in commit/edge server environments'
p450
stRp451
ag3
(g4
g5
(dp452
g12
S'0'
sg13
S'repo, ref, file'
p453
sg15
S'db.exclg'
p454
sg17
S'ExclG'
p455
sg19
S'67'
p456
sg20
S'Graph depot LFS locks'
p457
stRp458
ag3
(g4
g5
(dp459
g12
S'0'
sg13
S'lockId'
p460
sg15
S'db.exclgx'
p461
sg17
S'ExclGX'
p462
sg19
S'68'
p463
sg20
S'Graph depot LFS locks indexed by lockId'
p464
stRp465
ag3
(g4
g5
(dp466
g12
S'0'
sg13
S'traitLot, name'
p467
sg15
S'db.traits'
p468
sg17
S'Trait'
p469
sg19
S'69'
p470
sg20
S'Attributes associated with file revisions'
p471
stRp472
ag3
(g4
g5
(dp473
g12
S'3'
sg13
S'seq'
p474
sg15
S'db.trigger'
p475
sg17
S'Trigger'
p476
sg19
S'70'
p477
sg20
S'Trigger specifications'
p478
stRp479
ag3
(g4
g5
(dp480
g12
S'6'
sg13
S'change'
p481
sg15
S'db.change'
p482
sg17
S'Change'
p483
sg19
S'71'
p484
sg20
S'Changelists'
p485
stRp486
ag3
(g4
g5
(dp487
g308
S'contains records for pending changelists only.'
p488
sg12
S'6'
sg13
S'change'
p489
sg20
S'Subset of db.change - records for pending changelists only'
p490
sg17
S'Change'
p491
sg19
S'72'
p492
sg15
S'db.changex'
p493
stRp494
ag3
(g4
g5
(dp495
g12
S'1'
sg13
S'identity'
p496
sg15
S'db.changeidx'
p497
sg17
S'ChangeIdx'
p498
sg19
S'73'
p499
sg20
S'Secondary index of db.change/db.changex'
p500
stRp501
ag3
(g4
g5
(dp502
g12
S'0'
sg13
S'descKey'
p503
sg15
S'db.desc'
p504
sg17
S'Desc'
p505
sg19
S'74'
p506
sg20
S'Change descriptions'
p507
stRp508
ag3
(g4
g5
(dp509
g12
S'3'
sg13
S'repo'
p510
sg15
S'db.repo'
p511
sg17
S'Repo'
p512
sg19
S'75'
p513
sg20
S'Repository specifications'
p514
stRp515
ag3
(g4
g5
(dp516
g12
S'0'
sg13
S'repo, type, name, date, action, user, ref'
p517
sg15
S'db.refhist'
p518
sg17
S'RefHist'
p519
sg19
S'76'
p520
sg20
S'Reference history for graph depots'
p521
stRp522
ag3
(g4
g5
(dp523
g12
S'0'
sg13
S'repo, type, name'
p524
sg15
S'db.ref'
p525
sg17
S'Ref'
p526
sg19
S'77'
p527
sg20
S'Reference content for graph depots'
p528
stRp529
ag3
(g4
g5
(dp530
g12
S'0'
sg13
S'sha'
p531
sg15
S'db.object'
p532
sg17
S'Object'
p533
sg19
S'78'
p534
sg20
S'Object storage for graph depots'
p535
stRp536
ag3
(g4
g5
(dp537
g12
S'1'
sg13
S'id, name, date, blobSha, commitSha'
p538
sg15
S'db.graphindex'
p539
sg17
S'GraphIndex'
p540
sg19
S'79'
p541
sg20
S'Graph depot repository index data'
p542
stRp543
ag3
(g4
g5
(dp544
g12
S'0'
sg13
S'name, repo, ref, type, user, perm'
p545
sg15
S'db.graphperm'
p546
sg17
S'GraphPerm'
p547
sg19
S'80'
p548
sg20
S'Graph depot permissions'
p549
stRp550
ag3
(g4
g5
(dp551
g12
S'0'
sg13
S'repo, path'
p552
sg15
S'db.submodule'
p553
sg17
S'Submodule'
p554
sg19
S'81'
p555
sg20
S'Submodule configuration data'
p556
stRp557
ag3
(g4
g5
(dp558
g12
S'0'
sg13
S'user, scope'
p559
sg15
S'db.pubkey'
p560
sg17
S'PublicKey'
p561
sg19
S'82'
p562
sg20
S'SSH Public keys'
p563
stRp564
ag3
(g4
g5
(dp565
g12
S'0'
sg13
S'job'
p566
sg15
S'db.job'
p567
sg20
S'Job records'
p568
sg17
S'Job'
p569
sg19
S'83'
p570
sg252
S'db.bodtext'
p571
stRp572
ag3
(g4
g5
(dp573
g12
S'1'
sg13
S'job, change'
p574
sg15
S'db.fix'
p575
sg20
S'Fix records - indexed by job'
p576
sg17
S'Fix'
p577
sg19
S'86'
p578
sg252
S'db.fixrev'
p579
stRp580
ag3
(g4
g5
(dp581
g12
S'1'
sg13
S'change, job'
p582
sg15
S'db.fixrev'
p583
sg20
S'Fix records - indexed by change'
p584
sg17
S'Fix'
p585
sg19
S'87'
p586
sg252
S'db.fix'
p587
stRp588
ag3
(g4
g5
(dp589
g12
S'1'
sg13
S'type, client, toKey, attr, fromKey, fromChange'
p590
sg15
S'db.bodresolve'
p591
sg17
S'BodyResolve'
p592
sg19
S'89'
p593
sg20
S'Resolve data for stream specifications'
p594
stRp595
ag3
(g4
g5
(dp596
g12
S'0'
sg13
S'type, shelf, toKey, attr, fromKey, fromChange'
p597
sg15
S'db.bodresolvex'
p598
sg17
S'BodyResolveX'
p599
sg19
S'90'
p600
sg20
S'Pending integration records for shelved stream specifications'
p601
stRp602
ag3
(g4
g5
(dp603
g12
S'1'
sg13
S'key, attr'
p604
sg15
S'db.bodtext'
p605
sg17
S'BodyText'
p606
sg19
S'91'
p607
sg20
S'Job data for job attributes'
p608
stRp609
ag3
(g4
g5
(dp610
g12
S'0'
sg13
S'type, key, change, attr'
p611
sg15
S'db.bodtextcx'
p612
sg17
S'BodyTextCx'
p613
sg19
S'92'
p614
sg20
S'Versioned openable spec fields'
p615
stRp616
ag3
(g4
g5
(dp617
g12
S'0'
sg13
S'type, key, attr'
p618
sg15
S'db.bodtexthx'
p619
sg17
S'BodyTextHx'
p620
sg19
S'93'
p621
sg20
S'Head revision of spec fields'
p622
stRp623
ag3
(g4
g5
(dp624
g12
S'1'
sg13
S'type, shelf, key, attr'
p625
sg15
S'db.bodtextsx'
p626
sg17
S'BodyTextSx'
p627
sg19
S'94'
p628
sg20
S'Shelved openable spec fields'
p629
stRp630
ag3
(g4
g5
(dp631
g12
S'1'
sg13
S'type, client, key, attr'
p632
sg15
S'db.bodtextwx'
p633
sg17
S'BodyTextWx'
p634
sg19
S'95'
p635
sg20
S'Open openable spec fields'
p636
stRp637
ag3
(g4
g5
(dp638
g12
S'0'
sg13
S'word, attr, value'
p639
sg15
S'db.ixtext'
p640
sg17
S'IndexText'
p641
sg19
S'97'
p642
sg20
S'Indexing data for generic and job attributes'
p643
stRp644
ag3
(g4
g5
(dp645
g12
S'0'
sg13
S'type, word, attr, value'
p646
sg15
S'db.ixtexthx'
p647
sg17
S'IndexTextHx'
p648
sg19
S'98'
p649
sg20
S'Indexing data for head revision of all spec fields'
p650
stRp651
ag3
(g4
g5
(dp652
g12
S'0'
sg13
S'word, attr, value'
p653
sg15
S'db.uxtext'
p654
sg17
S'IndexText'
p655
sg19
S'99'
p656
sg20
S'Indexing data for Swarm'
p657
stRp658
ag3
(g4
g5
(dp659
g12
S'5'
sg13
S'seq'
p660
sg15
S'db.protect'
p661
sg17
S'Protect'
p662
sg19
S'100'
p663
sg20
S'The protections table'
p664
stRp665
ag3
(g4
g5
(dp666
g12
S'0'
sg13
S'name, seq, type, scope'
p667
sg15
S'db.property'
p668
sg17
S'Property'
p669
sg19
S'101'
p670
sg20
S'Properties'
p671
stRp672
ag3
(g4
g5
(dp673
g12
S'0'
sg13
S'language, id'
p674
sg15
S'db.message'
p675
sg17
S'Message'
p676
sg19
S'102'
p677
sg20
S'System messages'
p678
stRp679
ag3
(g4
g5
(dp680
g12
S'4'
sg13
S'taskid, seq'
p681
sg15
S'db.sendq'
p682
sg17
S'SendQ'
p683
sg19
S'103'
p684
sg20
S'Parallel file transmission work queue'
p685
stRp686
ag3
(g4
g5
(dp687
g12
S'4'
sg13
S'taskid, seq'
p688
sg15
S'db.sendq.pt'
p689
sg17
S'SendQ'
p690
sg19
S'104'
p691
sg20
S'Per Client transmission work queue'
p692
stRp693
ag3
(g4
g5
(dp694
g12
S'1'
sg13
S'serverId'
p695
sg15
S'db.jnlack'
p696
sg17
S'JnlAck'
p697
sg19
S'105'
p698
sg20
S'Tracks journal positions of all replicas'
p699
stRp700
ag3
(g4
g5
(dp701
g12
S'2'
sg13
S'id'
p702
sg15
S'db.monitor'
p703
sg17
S'Monitor'
p704
sg19
S'106'
p705
sg20
S'Helix Server process information'
p706
stRp707
ag3
(g4
g5
(dp708
g12
S'3'
sg17
S'ReplicaArchiveTransfer'
p709
sg13
S'file, rev'
p710
sg15
S'rdb.lbr'
p711
sg20
S'Replica server pending archive transfer table'
p712
stRp713
ag3
(g4
g5
(dp714
g12
S'3'
sg17
S'ReplicaArchiveTransfer'
p715
sg13
S'file, rev'
p716
sg15
S'pdb.lbr'
p717
sg20
S'Proxy server pending archive transfer table'
p718
stRp719
ag3
(g4
g5
(dp720
g12
S'0'
sg17
S'TinyDb'
p721
sg13
S'key'
p722
sg15
S'tiny.db'
p723
sg20
S'Records content data for tiny files using the +T file type modifier'
p724
stRp725
atRp726
stRp727
sS'numUpgrades'
p728
S'36'
p729
sS'commit_upgrades'
p730
g3
(g4
g5
(dp731
S'commit_upgrade'
p732
g3
(g8
g9
(lp733
g3
(g4
g5
(dp734
S'release'
p735
S'2013.2'
p736
sS'index'
p737
S'commit-server'
p738
sg308
S'Generate exclusive lock records in db.excl based on db.working data.'
p739
sg20
S'Generate exclusive locks'
p740
stRp741
ag3
(g4
g5
(dp742
g735
S'2014.1'
p743
sg737
S'commit-server'
p744
sg308
S'Promote existing shelves by updating changeStatus in db.change and db.changex.'
p745
sg20
S'Promote Shelves'
p746
stRp747
atRp748
stRp749
sS'server_versions'
p750
g3
(g4
g5
(dp751
S'server_version'
p752
g3
(g8
g9
(lp753
g3
(g4
g5
(dp754
g12
S'97.1'
p755
sS'level'
p756
S'1'
stRp757
ag3
(g4
g5
(dp758
g12
S'97.2'
p759
sg756
S'2'
stRp760
ag3
(g4
g5
(dp761
g12
S'97.3'
p762
sg756
S'3'
stRp763
ag3
(g4
g5
(dp764
g12
S'98.2 (early)'
p765
sg756
S'4'
stRp766
ag3
(g4
g5
(dp767
g12
S'98.2'
p768
sg756
S'5'
stRp769
ag3
(g4
g5
(dp770
g12
S'99.1 (early)'
p771
sg756
S'6'
stRp772
ag3
(g4
g5
(dp773
g12
S'99.1'
p774
sg756
S'7'
stRp775
ag3
(g4
g5
(dp776
g12
S'99.2'
p777
sg756
S'8'
stRp778
ag3
(g4
g5
(dp779
g12
S'2000.1'
p780
sg756
S'9'
stRp781
ag3
(g4
g5
(dp782
g12
S'2000.2'
p783
sg756
S'10'
p784
stRp785
ag3
(g4
g5
(dp786
S'removed'
p787
S'db.jobpend db.jobdesc'
p788
sg12
S'2001.1'
p789
sg756
S'11'
p790
stRp791
ag3
(g4
g5
(dp792
g12
S'2001.2'
p793
sg756
S'12'
p794
stRp795
ag3
(g4
g5
(dp796
g12
S'2002.1'
p797
sg756
S'13'
p798
stRp799
ag3
(g4
g5
(dp800
g12
S'2002.2'
p801
sg756
S'14'
p802
stRp803
ag3
(g4
g5
(dp804
g12
S'2003.1 (early)'
p805
sg756
S'15'
p806
stRp807
ag3
(g4
g5
(dp808
g12
S'2003.1'
p809
sg756
S'16'
p810
stRp811
ag3
(g4
g5
(dp812
g12
S'2003.2'
p813
sg756
S'17'
p814
stRp815
ag3
(g4
g5
(dp816
g12
S'2004.2'
p817
sg756
S'18'
p818
stRp819
ag3
(g4
g5
(dp820
g12
S'2005.1'
p821
sg756
S'19'
p822
stRp823
ag3
(g4
g5
(dp824
g12
S'2005.2'
p825
sS'added'
p826
S'db.revdx db.revsx'
p827
sg756
S'20'
p828
stRp829
ag3
(g4
g5
(dp830
g12
S'2006.1'
p831
sg756
S'21'
p832
stRp833
ag3
(g4
g5
(dp834
g787
S'db.archive'
p835
sg12
S'2006.2'
p836
sg826
S'db.archmap'
p837
sg756
S'22'
p838
stRp839
ag3
(g4
g5
(dp840
g12
S'2007.2'
p841
sg756
S'23'
p842
stRp843
ag3
(g4
g5
(dp844
g12
S'2007.3'
p845
sg756
S'24'
p846
stRp847
ag3
(g4
g5
(dp848
g12
S'2008.1'
p849
sg756
S'25'
p850
stRp851
ag3
(g4
g5
(dp852
g12
S'2008.2'
p853
sg756
S'26'
p854
stRp855
ag3
(g4
g5
(dp856
g12
S'2009.1'
p857
sg826
S'db.stream'
p858
sg756
S'27'
p859
stRp860
ag3
(g4
g5
(dp861
g787
S'db.boddate db.ixdate'
p862
sg12
S'2009.2'
p863
sg826
S'db.resolvex db.revsh db.workingx'
p864
sg756
S'28'
p865
stRp866
ag3
(g4
g5
(dp867
g12
S'2010.1'
p868
sg826
S'db.nameval db.template db.revbx'
p869
sg756
S'29'
p870
stRp871
ag3
(g4
g5
(dp872
g12
S'2010.2'
p873
sg826
S'db.config'
p874
sg756
S'30'
p875
stRp876
ag3
(g4
g5
(dp877
g12
S'2011.1'
p878
sg826
S'db.user.rp'
p879
sg756
S'31'
p880
stRp881
ag3
(g4
g5
(dp882
g12
S'2012.1'
p883
sg826
S'db.server db.view.rp db.have.rp'
p884
sg756
S'32'
p885
stRp886
ag3
(g4
g5
(dp887
g12
S'2012.2'
p888
sg826
S'db.revux'
p889
sg756
S'33'
p890
stRp891
ag3
(g4
g5
(dp892
g12
S'2013.1'
p893
sg826
S'db.srvview db.integtx db.property db.revtx'
p894
sg756
S'34'
p895
stRp896
ag3
(g4
g5
(dp897
g12
S'2013.2'
p898
sg826
S'db.excl'
p899
sg756
S'35'
p900
stRp901
ag3
(g4
g5
(dp902
g12
S'2013.3'
p903
sg756
S'36'
p904
stRp905
ag3
(g4
g5
(dp906
g12
S'2014.1'
p907
sg826
S'db.sendq db.sendq.pt db.uxtext'
p908
sg756
S'37'
p909
stRp910
ag3
(g4
g5
(dp911
g12
S'2014.2'
p912
sg826
S'db.jnlack'
p913
sg756
S'38'
p914
stRp915
ag3
(g4
g5
(dp916
g12
S'2015.1'
p917
sg826
S'db.remote db.rmtview db.stash db.groupx'
p918
sg756
S'39'
p919
stRp920
ag3
(g4
g5
(dp921
g12
S'2015.2'
p922
sg826
S'db.changeidx db.have.pt db.ldap'
p923
sg756
S'40'
p924
stRp925
ag3
(g4
g5
(dp926
g12
S'2016.1'
p927
sg826
S'db.bodresolve db.bodtextcx db.bodtexthx db.bodtextwx db.ixtexthx db.templatesx db.templatewx'
p928
sg756
S'41'
p929
stRp930
ag3
(g4
g5
(dp931
g12
S'2016.2'
p932
sg826
S'db.graphperm db.object db.pubkey db.ref db.refhist db.repo db.repoview'
p933
sg756
S'42'
p934
stRp935
ag3
(g4
g5
(dp936
g787
S'db.repoview db.submodule'
p937
sg12
S'2017.2'
p938
sg826
S'db.haveview'
p939
sg756
S'43'
p940
stRp941
ag3
(g4
g5
(dp942
g12
S'2017.2'
p943
sg826
S'db.ticket.rp db.ticket db.graphindex'
p944
sg756
S'44'
p945
stRp946
ag3
(g4
g5
(dp947
g12
S'2018.1'
p948
sg826
S'db.haveg'
p949
sg756
S'45'
p950
stRp951
ag3
(g4
g5
(dp952
g12
S'2018.2'
p953
sg756
S'46'
p954
stRp955
ag3
(g4
g5
(dp956
g787
S'db.archmap'
p957
sg12
S'2019.1'
p958
sg826
S'db.exclg db.exclgx db.storagesh db.storage db.storageg db.revstg'
p959
sg756
S'47'
p960
stRp961
ag3
(g4
g5
(dp962
g12
S'2019.1 patch 2'
p963
sg756
S'48'
p964
stRp965
ag3
(g4
g5
(dp966
g12
S'2019.2'
p967
sg826
S'db.configh db.upgrades.rp db.scandir db.scanctl'
p968
sg756
S'49'
p969
stRp970
ag3
(g4
g5
(dp971
g12
S'2020.1'
p972
sg826
S'db.integedss db.bodresolvex'
p973
sg756
S'50'
p974
stRp975
atRp976
stRp977
sg12
S'2020.1'
p978
sS'recordtypes'
p979
g3
(g4
g5
(dp980
S'record'
p981
g3
(g8
g9
(lp982
g3
(g4
g5
(dp983
S'column'
p984
g3
(g8
g9
(lp985
g3
(g4
g5
(dp986
g17
S'File'
p987
sg15
S'lbrFile'
p988
sg20
S"Specifies the location in the librarian's archives where\n\t\t    the revision may be found"
p989
stRp990
ag3
(g4
g5
(dp991
g17
S'String'
p992
sg15
S'lbrRev'
p993
sg20
S"Revision in the librarian's archives"
p994
stRp995
ag3
(g4
g5
(dp996
g17
S'File'
p997
sg15
S'depotFile'
p998
sg20
S'Name of the file in the depot'
p999
stRp1000
ag3
(g4
g5
(dp1001
g17
S'Rev'
p1002
sg15
S'depotRev'
p1003
sg20
S'Name of the file in the depot'
p1004
stRp1005
ag3
(g4
g5
(dp1006
g17
S'FileType'
p1007
sg15
S'lbrType'
p1008
sg20
S"File type for librarian's purposes"
p1009
stRp1010
atRp1011
sg15
S'Archive'
p1012
stRp1013
ag3
(g4
g5
(dp1014
g984
g3
(g8
g9
(lp1015
g3
(g4
g5
(dp1016
g17
S'File'
p1017
sg15
S'lbrFile'
p1018
sg20
S'Paths in the librarian namespace that receive lazy\n\t\t    copies.'
p1019
stRp1020
ag3
(g4
g5
(dp1021
g17
S'File'
p1022
sg15
S'depotFile'
p1023
sg20
S'Paths in the depot namespace that provide lazy copies.'
p1024
stRp1025
atRp1026
sg15
S'ArchMap'
p1027
stRp1028
ag3
(g4
g5
(dp1029
g984
g3
(g8
g9
(lp1030
g3
(g4
g5
(dp1031
g17
S'Key'
p1032
sg15
S'key'
p1033
sg20
S'The job to which this attribute belongs'
p1034
stRp1035
ag3
(g4
g5
(dp1036
g17
S'Int'
p1037
sg15
S'attr'
p1038
sg20
S'The attribute number (from the jobspec) of this attribute'
p1039
stRp1040
ag3
(g4
g5
(dp1041
g17
S'Date'
p1042
sg15
S'date'
p1043
sg20
S'The date value itself'
p1044
stRp1045
atRp1046
sg15
S'BodyDate'
p1047
stRp1048
ag3
(g4
g5
(dp1049
g984
g3
(g8
g9
(lp1050
g3
(g4
g5
(dp1051
g17
S'SpecType'
p1052
sg15
S'type'
p1053
sg20
S'The spec type'
p1054
stRp1055
ag3
(g4
g5
(dp1056
g17
S'Domain'
p1057
sg15
S'client'
p1058
sg20
S'The client name'
p1059
stRp1060
ag3
(g4
g5
(dp1061
g17
S'Key'
p1062
sg15
S'toKey'
p1063
sg20
S'To Key'
p1064
stRp1065
ag3
(g4
g5
(dp1066
g17
S'Int'
p1067
sg15
S'attr'
p1068
sg20
S'The attribute value'
p1069
stRp1070
ag3
(g4
g5
(dp1071
g17
S'Key'
p1072
sg15
S'fromKey'
p1073
sg20
S'From key'
p1074
stRp1075
ag3
(g4
g5
(dp1076
g17
S'Change'
p1077
sg15
S'fromChange'
p1078
sg20
S'From change'
p1079
stRp1080
ag3
(g4
g5
(dp1081
g17
S'Key'
p1082
sg15
S'baseKey'
p1083
sg20
S'Base Key'
p1084
stRp1085
ag3
(g4
g5
(dp1086
g17
S'Change'
p1087
sg15
S'baseChange'
p1088
sg20
S'Base change'
p1089
stRp1090
ag3
(g4
g5
(dp1091
g17
S'IntegHow'
p1092
sg15
S'how'
p1093
sg20
S'Integration method: variations on\n                merge/branch/copy/ignore/delete.'
p1094
stRp1095
ag3
(g4
g5
(dp1096
g17
S'ResolveState'
p1097
sg15
S'state'
p1098
sg20
S'How the user performed the resolve'
p1099
stRp1100
atRp1101
sg15
S'BodyResolve'
p1102
stRp1103
ag3
(g4
g5
(dp1104
g984
g3
(g8
g9
(lp1105
g3
(g4
g5
(dp1106
g17
S'SpecType'
p1107
sg15
S'type'
p1108
sg20
S'The spec type'
p1109
stRp1110
ag3
(g4
g5
(dp1111
g17
S'Change'
p1112
sg15
S'shelf'
p1113
sg20
S'Shelf change ID'
p1114
stRp1115
ag3
(g4
g5
(dp1116
g17
S'Key'
p1117
sg15
S'toKey'
p1118
sg20
S'To Key'
p1119
stRp1120
ag3
(g4
g5
(dp1121
g17
S'Int'
p1122
sg15
S'attr'
p1123
sg20
S'The attribute value'
p1124
stRp1125
ag3
(g4
g5
(dp1126
g17
S'Key'
p1127
sg15
S'fromKey'
p1128
sg20
S'From key'
p1129
stRp1130
ag3
(g4
g5
(dp1131
g17
S'Change'
p1132
sg15
S'fromChange'
p1133
sg20
S'From change'
p1134
stRp1135
ag3
(g4
g5
(dp1136
g17
S'Key'
p1137
sg15
S'baseKey'
p1138
sg20
S'Base Key'
p1139
stRp1140
ag3
(g4
g5
(dp1141
g17
S'Change'
p1142
sg15
S'baseChange'
p1143
sg20
S'Base change'
p1144
stRp1145
ag3
(g4
g5
(dp1146
g17
S'IntegHow'
p1147
sg15
S'how'
p1148
sg20
S'Integration method: variations on\n                merge/branch/copy/ignore/delete.'
p1149
stRp1150
ag3
(g4
g5
(dp1151
g17
S'ResolveState'
p1152
sg15
S'state'
p1153
sg20
S'How the user performed the resolve'
p1154
stRp1155
ag3
(g4
g5
(dp1156
g17
S'Domain'
p1157
sg15
S'client'
p1158
sg20
S'The client used for the resolve'
p1159
stRp1160
atRp1161
sg15
S'BodyResolveX'
p1162
stRp1163
ag3
(g4
g5
(dp1164
g984
g3
(g8
g9
(lp1165
g3
(g4
g5
(dp1166
g17
S'Key'
p1167
sg15
S'key'
p1168
sg20
S'The job to which this attribute belongs'
p1169
stRp1170
ag3
(g4
g5
(dp1171
g17
S'Int'
p1172
sg15
S'attr'
p1173
sg20
S'The attribute number (from the jobspec) of this attribute'
p1174
stRp1175
ag3
(g4
g5
(dp1176
g17
S'Int'
p1177
sg15
S'isBulk'
p1178
sg20
S'Indicates whether (1), or not (0) the field is a bulk\n\t\t    text field that should not be indexed.'
p1179
stRp1180
ag3
(g4
g5
(dp1181
g17
S'Text'
p1182
sg15
S'text'
p1183
sg20
S'The attribute value'
p1184
stRp1185
atRp1186
sg15
S'BodyText'
p1187
stRp1188
ag3
(g4
g5
(dp1189
g984
g3
(g8
g9
(lp1190
g3
(g4
g5
(dp1191
g17
S'Int'
p1192
sg15
S'type'
p1193
sg20
S'The type of spec'
p1194
stRp1195
ag3
(g4
g5
(dp1196
g17
S'Key'
p1197
sg15
S'key'
p1198
sg20
S'The spec to which this attribute belongs'
p1199
stRp1200
ag3
(g4
g5
(dp1201
g17
S'Change'
p1202
sg15
S'change'
p1203
sg20
S'The change to which this attribute belongs'
p1204
stRp1205
ag3
(g4
g5
(dp1206
g17
S'Int'
p1207
sg15
S'attr'
p1208
sg20
S'The attribute number of this attribute'
p1209
stRp1210
ag3
(g4
g5
(dp1211
g17
S'Text'
p1212
sg15
S'text'
p1213
sg20
S'The attribute value'
p1214
stRp1215
atRp1216
sg15
S'BodyTextCx'
p1217
stRp1218
ag3
(g4
g5
(dp1219
g984
g3
(g8
g9
(lp1220
g3
(g4
g5
(dp1221
g17
S'Int'
p1222
sg15
S'type'
p1223
sg20
S'The type of spec'
p1224
stRp1225
ag3
(g4
g5
(dp1226
g17
S'Key'
p1227
sg15
S'key'
p1228
sg20
S'The spec to which this attribute belongs'
p1229
stRp1230
ag3
(g4
g5
(dp1231
g17
S'Int'
p1232
sg15
S'attr'
p1233
sg20
S'The attribute number of this attribute'
p1234
stRp1235
ag3
(g4
g5
(dp1236
g17
S'Int'
p1237
sg15
S'bulk'
p1238
sg20
S'Indicates whether (1), or not (0) the field is a bulk\n\t\t    text field that should not be indexed.'
p1239
stRp1240
ag3
(g4
g5
(dp1241
g17
S'Text'
p1242
sg15
S'text'
p1243
sg20
S'The attribute value'
p1244
stRp1245
atRp1246
sg15
S'BodyTextHx'
p1247
stRp1248
ag3
(g4
g5
(dp1249
g984
g3
(g8
g9
(lp1250
g3
(g4
g5
(dp1251
g17
S'Int'
p1252
sg15
S'type'
p1253
sg20
S'The type of spec'
p1254
stRp1255
ag3
(g4
g5
(dp1256
g17
S'Change'
p1257
sg15
S'shelf'
p1258
sg20
S'The shelf to which this attribute belongs'
p1259
stRp1260
ag3
(g4
g5
(dp1261
g17
S'Key'
p1262
sg15
S'key'
p1263
sg20
S'The spec to which this attribute belongs'
p1264
stRp1265
ag3
(g4
g5
(dp1266
g17
S'Int'
p1267
sg15
S'attr'
p1268
sg20
S'The attribute number of this attribute'
p1269
stRp1270
ag3
(g4
g5
(dp1271
g17
S'Text'
p1272
sg15
S'text'
p1273
sg20
S'The attribute value'
p1274
stRp1275
ag3
(g4
g5
(dp1276
g17
S'Change'
p1277
sg15
S'workChange'
p1278
sg20
S'The working change'
p1279
stRp1280
ag3
(g4
g5
(dp1281
g17
S'User'
p1282
sg15
S'user'
p1283
sg20
S'The user that created the change'
p1284
stRp1285
ag3
(g4
g5
(dp1286
g17
S'Action'
p1287
sg15
S'action'
p1288
sg20
S'The Action that created the change'
p1289
stRp1290
atRp1291
sg15
S'BodyTextSx'
p1292
stRp1293
ag3
(g4
g5
(dp1294
g984
g3
(g8
g9
(lp1295
g3
(g4
g5
(dp1296
g17
S'Int'
p1297
sg15
S'type'
p1298
sg20
S'The type of spec'
p1299
stRp1300
ag3
(g4
g5
(dp1301
g17
S'Domain'
p1302
sg15
S'client'
p1303
sg20
S'The client the spec is opened on'
p1304
stRp1305
ag3
(g4
g5
(dp1306
g17
S'Key'
p1307
sg15
S'key'
p1308
sg20
S'The spec to which this attribute belongs'
p1309
stRp1310
ag3
(g4
g5
(dp1311
g17
S'Int'
p1312
sg15
S'attr'
p1313
sg20
S'The attribute number of this attribute'
p1314
stRp1315
ag3
(g4
g5
(dp1316
g17
S'Text'
p1317
sg15
S'text'
p1318
sg20
S'The attribute value'
p1319
stRp1320
ag3
(g4
g5
(dp1321
g17
S'Change'
p1322
sg15
S'workChange'
p1323
sg20
S'The working change'
p1324
stRp1325
ag3
(g4
g5
(dp1326
g17
S'User'
p1327
sg15
S'user'
p1328
sg20
S'The user that created the change'
p1329
stRp1330
ag3
(g4
g5
(dp1331
g17
S'Action'
p1332
sg15
S'action'
p1333
sg20
S'The action that created the change'
p1334
stRp1335
atRp1336
sg15
S'BodyTextWx'
p1337
stRp1338
ag3
(g4
g5
(dp1339
g984
g3
(g8
g9
(lp1340
g3
(g4
g5
(dp1341
g17
S'Change'
p1342
sg15
S'change'
p1343
sg20
S'The change number'
p1344
stRp1345
ag3
(g4
g5
(dp1346
g17
S'Change'
p1347
sg15
S'descKey'
p1348
sg20
S"The description key. Normally the same as 'change', but\n\t\t    may differ if a changelist was renumbered on submission."
p1349
stRp1350
ag3
(g4
g5
(dp1351
g17
S'Domain'
p1352
sg15
S'client'
p1353
sg20
S'The client from which the change originates'
p1354
stRp1355
ag3
(g4
g5
(dp1356
g17
S'User'
p1357
sg15
S'user'
p1358
sg20
S'The user who owns the change'
p1359
stRp1360
ag3
(g4
g5
(dp1361
g17
S'Date'
p1362
sg15
S'date'
p1363
sg20
S'Date and time the changelist was submitted'
p1364
stRp1365
ag3
(g4
g5
(dp1366
g17
S'ChangeStatus'
p1367
sg15
S'status'
p1368
sg20
S'Status of the change'
p1369
stRp1370
ag3
(g4
g5
(dp1371
g17
S'DescShort'
p1372
sg15
S'description'
p1373
sg20
S'Short description of the change.'
p1374
stRp1375
ag3
(g4
g5
(dp1376
g17
S'Mapping'
p1377
sg15
S'root'
p1378
sg20
S'Common path for all files in the changelist'
p1379
stRp1380
ag3
(g4
g5
(dp1381
g17
S'User'
p1382
sg15
S'importer'
p1383
sg20
S'The user who fetched or pushed this change to this server'
p1384
stRp1385
ag3
(g4
g5
(dp1386
g17
S'Key'
p1387
sg15
S'identity'
p1388
sg20
S'Identifier for this change'
p1389
stRp1390
ag3
(g4
g5
(dp1391
g17
S'Date'
p1392
sg15
S'access'
p1393
sg20
S'Shelve last access'
p1394
stRp1395
ag3
(g4
g5
(dp1396
g17
S'Date'
p1397
sg15
S'update'
p1398
sg20
S'Shelve last update'
p1399
stRp1400
ag3
(g4
g5
(dp1401
g17
S'Domain'
p1402
sg15
S'stream'
p1403
sg20
S'Stream spec name in changelist'
p1404
stRp1405
atRp1406
sg15
S'Change'
p1407
stRp1408
ag3
(g4
g5
(dp1409
g984
g3
(g8
g9
(lp1410
g3
(g4
g5
(dp1411
g17
S'Key'
p1412
sg15
S'identity'
p1413
sg20
S'Identifier for this change'
p1414
stRp1415
ag3
(g4
g5
(dp1416
g17
S'Change'
p1417
sg15
S'change'
p1418
sg20
S'Changelist'
p1419
stRp1420
atRp1421
sg15
S'ChangeIdx'
p1422
stRp1423
ag3
(g4
g5
(dp1424
g984
g3
(g8
g9
(lp1425
g3
(g4
g5
(dp1426
g17
S'Key'
p1427
sg15
S'serverName'
p1428
sg20
S'Server name'
p1429
stRp1430
ag3
(g4
g5
(dp1431
g17
S'Key'
p1432
sg15
S'name'
p1433
sg20
S'Configuration variable name'
p1434
stRp1435
ag3
(g4
g5
(dp1436
g17
S'Value'
p1437
sg15
S'value'
p1438
sg20
S'Configuration variable value'
p1439
stRp1440
atRp1441
sg15
S'Config'
p1442
stRp1443
ag3
(g4
g5
(dp1444
g984
g3
(g8
g9
(lp1445
g3
(g4
g5
(dp1446
g17
S'Key'
p1447
sg15
S'sName'
p1448
sg20
S'Server name where configurable applies'
p1449
stRp1450
ag3
(g4
g5
(dp1451
g17
S'Key'
p1452
sg15
S'name'
p1453
sg20
S'variable name'
p1454
stRp1455
ag3
(g4
g5
(dp1456
g17
S'Int'
p1457
sg15
S'version'
p1458
sg20
S'configuration version'
p1459
stRp1460
ag3
(g4
g5
(dp1461
g17
S'Date'
p1462
sg15
S'date'
p1463
sg20
S'date'
p1464
stRp1465
ag3
(g4
g5
(dp1466
g17
S'Key'
p1467
sg15
S'server'
p1468
sg20
S'server ID where the configurable was set'
p1469
stRp1470
ag3
(g4
g5
(dp1471
g17
S'User'
p1472
sg15
S'user'
p1473
sg20
S'user'
p1474
stRp1475
ag3
(g4
g5
(dp1476
g17
S'Value'
p1477
sg15
S'ovalue'
p1478
sg20
S'old value'
p1479
stRp1480
ag3
(g4
g5
(dp1481
g17
S'Value'
p1482
sg15
S'nvalue'
p1483
sg20
S'new value'
p1484
stRp1485
atRp1486
sg15
S'ConfigHist'
p1487
stRp1488
ag3
(g4
g5
(dp1489
g984
g3
(g8
g9
(lp1490
g3
(g4
g5
(dp1491
g17
S'Counter'
p1492
sg15
S'name'
p1493
sg20
S'Counter name'
p1494
stRp1495
ag3
(g4
g5
(dp1496
g17
S'Value'
p1497
sg15
S'value'
p1498
sg20
S'Counter value'
p1499
stRp1500
atRp1501
sg15
S'Counters'
p1502
stRp1503
ag3
(g4
g5
(dp1504
g984
g3
(g8
g9
(lp1505
g3
(g4
g5
(dp1506
g17
S'Domain'
p1507
sg15
S'name'
p1508
sg20
S'Depot name'
p1509
stRp1510
ag3
(g4
g5
(dp1511
g17
S'DepotType'
p1512
sg15
S'type'
p1513
sg20
S'Type of depot'
p1514
stRp1515
ag3
(g4
g5
(dp1516
g17
S'Text'
p1517
sg15
S'extra'
p1518
sg20
S'For remote depots, the P4PORT address of the remote server.\n\t\t    For spec depots, a suffix to append to the filename.\n                   For stream depots, stream depth'
p1519
stRp1520
ag3
(g4
g5
(dp1521
g17
S'Text'
p1522
sg15
S'map'
p1523
sg20
S"The depot's map (path translation information).  For local \n\t\t    depots, this will be a path relative to the root directory.\n\t\t    For remote depots, this will be specified in terms of the \n\t\t    remote server's namespace."
p1524
stRp1525
atRp1526
sg15
S'Depot'
p1527
stRp1528
ag3
(g4
g5
(dp1529
g984
g3
(g8
g9
(lp1530
g3
(g4
g5
(dp1531
g17
S'Change'
p1532
sg15
S'descKey'
p1533
sg20
S'Original number of the change to which this description\n\t\t    applies. This may differ from the final change number if\n\t\t    the change is renumbered on submission.'
p1534
stRp1535
ag3
(g4
g5
(dp1536
g17
S'Text'
p1537
sg15
S'description'
p1538
sg20
S'The change description itself'
p1539
stRp1540
atRp1541
sg15
S'Desc'
p1542
stRp1543
ag3
(g4
g5
(dp1544
g984
g3
(g8
g9
(lp1545
g3
(g4
g5
(dp1546
g17
S'Domain'
p1547
sg15
S'name'
p1548
sg20
S'Domain name'
p1549
stRp1550
ag3
(g4
g5
(dp1551
g17
S'DomainType'
p1552
sg15
S'type'
p1553
sg20
S'Type of domain'
p1554
stRp1555
ag3
(g4
g5
(dp1556
g17
S'Text'
p1557
sg15
S'extra'
p1558
sg20
S'Formerly "host". Associated host or, for labels, revision \n\t\t    number.'
p1559
stRp1560
ag3
(g4
g5
(dp1561
g17
S'Text'
p1562
sg15
S'mount'
p1563
sg20
S'The client root'
p1564
stRp1565
ag3
(g4
g5
(dp1566
g17
S'Text'
p1567
sg15
S'mount2'
p1568
sg20
S'Alternate client root'
p1569
stRp1570
ag3
(g4
g5
(dp1571
g17
S'Text'
p1572
sg15
S'mount3'
p1573
sg20
S'Alternate client root'
p1574
stRp1575
ag3
(g4
g5
(dp1576
g17
S'User'
p1577
sg15
S'owner'
p1578
sg20
S'Name of user who owns the domain.'
p1579
stRp1580
ag3
(g4
g5
(dp1581
g17
S'Date'
p1582
sg15
S'updateDate'
p1583
sg20
S'Date of last update to domain specification.'
p1584
stRp1585
ag3
(g4
g5
(dp1586
g17
S'Date'
p1587
sg15
S'accessDate'
p1588
sg20
S'Date of last access to domain specification.'
p1589
stRp1590
ag3
(g4
g5
(dp1591
g17
S'DomainOpts'
p1592
sg15
S'options'
p1593
sg20
S'Options for client, label, and branch domains.'
p1594
stRp1595
ag3
(g4
g5
(dp1596
g17
S'Text'
p1597
sg15
S'description'
p1598
sg20
S'Description of domain.'
p1599
stRp1600
ag3
(g4
g5
(dp1601
g17
S'Domain'
p1602
sg15
S'stream'
p1603
sg20
S'Associated stream for client records'
p1604
stRp1605
ag3
(g4
g5
(dp1606
g17
S'Key'
p1607
sg15
S'serverId'
p1608
sg20
S'Associated server ID for client records'
p1609
stRp1610
ag3
(g4
g5
(dp1611
g17
S'Int'
p1612
sg15
S'contents'
p1613
sg20
S'Client domain contents. 1: Maps only classic depot files, 2: Maps only graph depot files, 3: Maps both classic and graph depot files'
p1614
stRp1615
atRp1616
sg15
S'Domain'
p1617
stRp1618
ag3
(g4
g5
(dp1619
g984
g3
(g8
g9
(lp1620
g3
(g4
g5
(dp1621
g17
S'File'
p1622
sg15
S'depotFile'
p1623
sg20
S'The file locked'
p1624
stRp1625
ag3
(g4
g5
(dp1626
g17
S'Domain'
p1627
sg15
S'client'
p1628
sg20
S'The client for which the file is locked'
p1629
stRp1630
ag3
(g4
g5
(dp1631
g17
S'User'
p1632
sg15
S'user'
p1633
sg20
S'The user for which the file is locked'
p1634
stRp1635
atRp1636
sg15
S'ExclusiveLock'
p1637
stRp1638
ag3
(g4
g5
(dp1639
g984
g3
(g8
g9
(lp1640
g3
(g4
g5
(dp1641
g17
S'Key'
p1642
sg15
S'repo'
p1643
sg20
S'The name of the repository on which the lock is applied'
p1644
stRp1645
ag3
(g4
g5
(dp1646
g17
S'Text'
p1647
sg15
S'ref'
p1648
sg20
S'The reference on which the lock is applied'
p1649
stRp1650
ag3
(g4
g5
(dp1651
g17
S'File'
p1652
sg15
S'file'
p1653
sg20
S'The git file path'
p1654
stRp1655
ag3
(g4
g5
(dp1656
g17
S'String'
p1657
sg15
S'lockId'
p1658
sg20
S'The git LFS lock identifier'
p1659
stRp1660
ag3
(g4
g5
(dp1661
g17
S'User'
p1662
sg15
S'user'
p1663
sg20
S'The user for which the file is locked'
p1664
stRp1665
ag3
(g4
g5
(dp1666
g17
S'String'
p1667
sg15
S'created'
p1668
sg20
S'The lock creation date stored in git data format'
p1669
stRp1670
atRp1671
sg15
S'ExclG'
p1672
stRp1673
ag3
(g4
g5
(dp1674
g984
g3
(g8
g9
(lp1675
g3
(g4
g5
(dp1676
g17
S'String'
p1677
sg15
S'lockId'
p1678
sg20
S'The git LFS lock identifier'
p1679
stRp1680
ag3
(g4
g5
(dp1681
g17
S'Key'
p1682
sg15
S'repo'
p1683
sg20
S'The name of the repository on which the lock is applied'
p1684
stRp1685
ag3
(g4
g5
(dp1686
g17
S'Text'
p1687
sg15
S'ref'
p1688
sg20
S'The reference on which the lock is applied'
p1689
stRp1690
ag3
(g4
g5
(dp1691
g17
S'File'
p1692
sg15
S'file'
p1693
sg20
S'The git file path'
p1694
stRp1695
ag3
(g4
g5
(dp1696
g17
S'User'
p1697
sg15
S'user'
p1698
sg20
S'The user for which the file is locked'
p1699
stRp1700
ag3
(g4
g5
(dp1701
g17
S'String'
p1702
sg15
S'created'
p1703
sg20
S'The lock creation date stored in git data format'
p1704
stRp1705
atRp1706
sg15
S'ExclGX'
p1707
stRp1708
ag3
(g4
g5
(dp1709
g984
g3
(g8
g9
(lp1710
g3
(g4
g5
(dp1711
g17
S'Key'
p1712
sg15
S'job'
p1713
sg20
S'Job name'
p1714
stRp1715
ag3
(g4
g5
(dp1716
g17
S'Change'
p1717
sg15
S'change'
p1718
sg20
S'Changelist number'
p1719
stRp1720
ag3
(g4
g5
(dp1721
g17
S'Date'
p1722
sg15
S'date'
p1723
sg20
S'Date fix was recorded (may differ from date change was\n\t\t    submitted).'
p1724
stRp1725
ag3
(g4
g5
(dp1726
g17
S'FixStatus'
p1727
sg15
S'status'
p1728
sg20
S'Status of the job'
p1729
stRp1730
ag3
(g4
g5
(dp1731
g17
S'Domain'
p1732
sg15
S'client'
p1733
sg20
S'The client where the fix originated'
p1734
stRp1735
ag3
(g4
g5
(dp1736
g17
S'User'
p1737
sg15
S'user'
p1738
sg20
S'The user who fixed the job'
p1739
stRp1740
atRp1741
sg15
S'Fix'
p1742
stRp1743
ag3
(g4
g5
(dp1744
g984
g3
(g8
g9
(lp1745
g3
(g4
g5
(dp1746
g17
S'Int'
p1747
sg15
S'id'
p1748
sg20
S'ID of repo index belongs to'
p1749
stRp1750
ag3
(g4
g5
(dp1751
g17
S'File'
p1752
sg15
S'name'
p1753
sg20
S'File name (minus the repo name)'
p1754
stRp1755
ag3
(g4
g5
(dp1756
g17
S'Date'
p1757
sg15
S'date'
p1758
sg20
S'Descending historical commit sequence'
p1759
stRp1760
ag3
(g4
g5
(dp1761
g17
S'SHA1'
p1762
sg15
S'blobSha'
p1763
sg20
S'SHA of blob'
p1764
stRp1765
ag3
(g4
g5
(dp1766
g17
S'SHA1'
p1767
sg15
S'commitSha'
p1768
sg20
S'SHA of commit that added/edited this file'
p1769
stRp1770
ag3
(g4
g5
(dp1771
g17
S'Int'
p1772
sg15
S'flags'
p1773
sg20
S'Miscellaneous flags'
p1774
stRp1775
ag3
(g4
g5
(dp1776
g17
S'FileSize'
p1777
sg15
S'size'
p1778
sg20
S'The size of the file (or target LFS file)'
p1779
stRp1780
ag3
(g4
g5
(dp1781
g17
S'FileType'
p1782
sg15
S'type'
p1783
sg20
S'The filetype of the graph file'
p1784
stRp1785
ag3
(g4
g5
(dp1786
g17
S'Text'
p1787
sg15
S'lfsoid'
p1788
sg20
S'LFS Object ID'
p1789
stRp1790
atRp1791
sg15
S'GraphIndex'
p1792
stRp1793
ag3
(g4
g5
(dp1794
g984
g3
(g8
g9
(lp1795
g3
(g4
g5
(dp1796
g17
S'Domain'
p1797
sg15
S'name'
p1798
sg20
S'Graph depot name'
p1799
stRp1800
ag3
(g4
g5
(dp1801
g17
S'Mapping'
p1802
sg15
S'repo'
p1803
sg20
S'Repository name'
p1804
stRp1805
ag3
(g4
g5
(dp1806
g17
S'Mapping'
p1807
sg15
S'ref'
p1808
sg20
S'Reference'
p1809
stRp1810
ag3
(g4
g5
(dp1811
g17
S'UserType'
p1812
sg15
S'type'
p1813
sg20
S'Type of user'
p1814
stRp1815
ag3
(g4
g5
(dp1816
g17
S'UserWild'
p1817
sg15
S'user'
p1818
sg20
S'User or Group for permission'
p1819
stRp1820
ag3
(g4
g5
(dp1821
g17
S'GraphPermType'
p1822
sg15
S'perm'
p1823
sg20
S'Permission'
p1824
stRp1825
atRp1826
sg15
S'GraphPerm'
p1827
stRp1828
ag3
(g4
g5
(dp1829
g984
g3
(g8
g9
(lp1830
g3
(g4
g5
(dp1831
g17
S'User'
p1832
sg15
S'user'
p1833
sg20
S'User name'
p1834
stRp1835
ag3
(g4
g5
(dp1836
g17
S'User'
p1837
sg15
S'group'
p1838
sg20
S'Group name'
p1839
stRp1840
ag3
(g4
g5
(dp1841
g17
S'UserType'
p1842
sg15
S'type'
p1843
sg20
S'Type of user in this group.'
p1844
stRp1845
ag3
(g4
g5
(dp1846
g17
S'MaxResults'
p1847
sg15
S'maxResults'
p1848
sg20
S'MaxResults setting for the group.'
p1849
stRp1850
ag3
(g4
g5
(dp1851
g17
S'MaxScanRows'
p1852
sg15
S'maxScanRows'
p1853
sg20
S'MaxScanRows setting for the group.'
p1854
stRp1855
ag3
(g4
g5
(dp1856
g17
S'MaxLockTime'
p1857
sg15
S'maxLockTime'
p1858
sg20
S'MaxLockTime setting for the group.'
p1859
stRp1860
ag3
(g4
g5
(dp1861
g17
S'MaxOpenFiles'
p1862
sg15
S'maxOpenFiles'
p1863
sg20
S'MaxOpenFiles setting for the group.'
p1864
stRp1865
ag3
(g4
g5
(dp1866
g17
S'Int'
p1867
sg15
S'timeout'
p1868
sg20
S'Length of time (in seconds) a login ticket remains valid.'
p1869
stRp1870
ag3
(g4
g5
(dp1871
g17
S'Int'
p1872
sg15
S'passwordTimeout'
p1873
sg20
S'Length of time (in seconds) a password remains valid for users in the group.'
p1874
stRp1875
atRp1876
sg15
S'Group'
p1877
stRp1878
ag3
(g4
g5
(dp1879
g984
g3
(g8
g9
(lp1880
g3
(g4
g5
(dp1881
g17
S'User'
p1882
sg15
S'group'
p1883
sg20
S'Group name'
p1884
stRp1885
ag3
(g4
g5
(dp1886
g17
S'String'
p1887
sg15
S'ldapConf'
p1888
sg20
S"The LDAP configuration to use when populating the group's user list from an LDAP query"
p1889
stRp1890
ag3
(g4
g5
(dp1891
g17
S'String'
p1892
sg15
S'ldapSearchQuery'
p1893
sg20
S'The LDAP query used to identify the members of the group'
p1894
stRp1895
ag3
(g4
g5
(dp1896
g17
S'String'
p1897
sg15
S'ldapUserAttribute'
p1898
sg20
S"The LDAP attribute that represents the user's username"
p1899
stRp1900
ag3
(g4
g5
(dp1901
g17
S'String'
p1902
sg15
S'ldapDNAttribute'
p1903
sg20
S"The LDAP attribute that represents the user's DN"
p1904
stRp1905
atRp1906
sg15
S'GroupX'
p1907
stRp1908
ag3
(g4
g5
(dp1909
g984
g3
(g8
g9
(lp1910
g3
(g4
g5
(dp1911
g17
S'File'
p1912
sg15
S'clientFile'
p1913
sg20
S'The file in its location on the client'
p1914
stRp1915
ag3
(g4
g5
(dp1916
g17
S'File'
p1917
sg15
S'depotFile'
p1918
sg20
S'The file in the depot'
p1919
stRp1920
ag3
(g4
g5
(dp1921
g17
S'Rev'
p1922
sg15
S'haveRev'
p1923
sg20
S'The revision synced to the client'
p1924
stRp1925
ag3
(g4
g5
(dp1926
g17
S'FileType'
p1927
sg15
S'type'
p1928
sg20
S'The filetype of the synced file'
p1929
stRp1930
ag3
(g4
g5
(dp1931
g17
S'Date'
p1932
sg15
S'time'
p1933
sg20
S'The sync time of the synced revision'
p1934
stRp1935
atRp1936
sg15
S'Have'
p1937
stRp1938
ag3
(g4
g5
(dp1939
g984
g3
(g8
g9
(lp1940
g3
(g4
g5
(dp1941
g17
S'Key'
p1942
sg15
S'repo'
p1943
sg20
S'Repository name'
p1944
stRp1945
ag3
(g4
g5
(dp1946
g17
S'File'
p1947
sg15
S'clientFile'
p1948
sg20
S'The file in its location on the client'
p1949
stRp1950
ag3
(g4
g5
(dp1951
g17
S'File'
p1952
sg15
S'depotFile'
p1953
sg20
S'The git file path'
p1954
stRp1955
ag3
(g4
g5
(dp1956
g17
S'Domain'
p1957
sg15
S'client'
p1958
sg20
S'Domain (client) in which file is synced'
p1959
stRp1960
ag3
(g4
g5
(dp1961
g17
S'FileType'
p1962
sg15
S'type'
p1963
sg20
S'The filetype of the synced revision'
p1964
stRp1965
ag3
(g4
g5
(dp1966
g17
S'Action'
p1967
sg15
S'action'
p1968
sg20
S'Action file is open for: add, edit, delete, branch, integrate, or import'
p1969
stRp1970
ag3
(g4
g5
(dp1971
g17
S'SHA1'
p1972
sg15
S'blobSha'
p1973
sg20
S'SHA of blob'
p1974
stRp1975
ag3
(g4
g5
(dp1976
g17
S'SHA1'
p1977
sg15
S'commitSha'
p1978
sg20
S'SHA of commit that added/edited this file'
p1979
stRp1980
ag3
(g4
g5
(dp1981
g17
S'Int'
p1982
sg15
S'flags'
p1983
sg20
S'Miscellaneous flags'
p1984
stRp1985
atRp1986
sg15
S'Haveg'
p1987
stRp1988
ag3
(g4
g5
(dp1989
g984
g3
(g8
g9
(lp1990
g3
(g4
g5
(dp1991
g17
S'Date'
p1992
sg15
S'date'
p1993
sg20
S'Date value'
p1994
stRp1995
ag3
(g4
g5
(dp1996
g17
S'Int'
p1997
sg15
S'attr'
p1998
sg20
S'The attribute number (from the jobspec) to which this\n\t\t    date belongs'
p1999
stRp2000
ag3
(g4
g5
(dp2001
g17
S'Key'
p2002
sg15
S'value'
p2003
sg20
S'A job name'
p2004
stRp2005
atRp2006
sg15
S'IndexDate'
p2007
stRp2008
ag3
(g4
g5
(dp2009
g984
g3
(g8
g9
(lp2010
g3
(g4
g5
(dp2011
g17
S'Key'
p2012
sg15
S'word'
p2013
sg20
S'The word being indexed'
p2014
stRp2015
ag3
(g4
g5
(dp2016
g17
S'Int'
p2017
sg15
S'attr'
p2018
sg20
S'The attribute number to which this word belongs. For\n\t\t    job data, the attribute number from the jobspec.'
p2019
stRp2020
ag3
(g4
g5
(dp2021
g17
S'Key'
p2022
sg15
S'value'
p2023
sg20
S'For job data, a job name. For generic data, the value\n\t\t    of the index keyed by the word.'
p2024
stRp2025
atRp2026
sg15
S'IndexText'
p2027
stRp2028
ag3
(g4
g5
(dp2029
g984
g3
(g8
g9
(lp2030
g3
(g4
g5
(dp2031
g17
S'SpecType'
p2032
sg15
S'type'
p2033
sg20
S'The type'
p2034
stRp2035
ag3
(g4
g5
(dp2036
g17
S'Key'
p2037
sg15
S'word'
p2038
sg20
S'The word being indexed'
p2039
stRp2040
ag3
(g4
g5
(dp2041
g17
S'Int'
p2042
sg15
S'attr'
p2043
sg20
S'The attribute number to which this word belongs.'
p2044
stRp2045
ag3
(g4
g5
(dp2046
g17
S'Key'
p2047
sg15
S'value'
p2048
sg20
S'The value of the index keyed by the word.'
p2049
stRp2050
atRp2051
sg15
S'IndexTextHx'
p2052
stRp2053
ag3
(g4
g5
(dp2054
g984
g3
(g8
g9
(lp2055
g3
(g4
g5
(dp2056
g17
S'File'
p2057
sg15
S'toFile'
p2058
sg20
S'File to which integration is being performed (target).'
p2059
stRp2060
ag3
(g4
g5
(dp2061
g17
S'File'
p2062
sg15
S'fromFile'
p2063
sg20
S'File from which integration is being performed (source).'
p2064
stRp2065
ag3
(g4
g5
(dp2066
g17
S'Rev'
p2067
sg15
S'startFromRev'
p2068
sg20
S'Starting revision of fromFile'
p2069
stRp2070
ag3
(g4
g5
(dp2071
g17
S'Rev'
p2072
sg15
S'endFromRev'
p2073
sg20
S'Ending revision of fromFile'
p2074
stRp2075
ag3
(g4
g5
(dp2076
g17
S'Rev'
p2077
sg15
S'toRev'
p2078
sg20
S'Revision of toFile into which integration is being \n\t\t    performed.'
p2079
stRp2080
ag3
(g4
g5
(dp2081
g17
S'IntegHow'
p2082
sg15
S'how'
p2083
sg20
S'Integration method: variations on \n\t\t    merge/branch/copy/ignore/delete.'
p2084
stRp2085
ag3
(g4
g5
(dp2086
g17
S'Int'
p2087
sg15
S'committed'
p2088
sg20
S'Flag: 0 for pending, 1 for committed.'
p2089
stRp2090
ag3
(g4
g5
(dp2091
g17
S'ResolvedStatus'
p2092
sg15
S'resolved'
p2093
sg20
S'Resolution method: unresolved, resolved manually, \n\t\t    or resolved as part of a branch or delete.'
p2094
stRp2095
ag3
(g4
g5
(dp2096
g17
S'Change'
p2097
sg15
S'change'
p2098
sg20
S'Changelist associated with the integration.'
p2099
stRp2100
atRp2101
sg15
S'Integ'
p2102
stRp2103
ag3
(g4
g5
(dp2104
g984
g3
(g8
g9
(lp2105
g3
(g4
g5
(dp2106
g17
S'File'
p2107
sg15
S'toFile'
p2108
sg20
S'File to which integration is being performed (target).'
p2109
stRp2110
ag3
(g4
g5
(dp2111
g17
S'File'
p2112
sg15
S'fromFile'
p2113
sg20
S'File from which integration is being performed (source).'
p2114
stRp2115
ag3
(g4
g5
(dp2116
g17
S'Rev'
p2117
sg15
S'startFromRev'
p2118
sg20
S'Starting revision of fromFile'
p2119
stRp2120
ag3
(g4
g5
(dp2121
g17
S'Rev'
p2122
sg15
S'endFromRev'
p2123
sg20
S'Ending revision of fromFile'
p2124
stRp2125
ag3
(g4
g5
(dp2126
g17
S'Rev'
p2127
sg15
S'startToRev'
p2128
sg20
S'Start revision of toFile into which integration was \n\t\t    performed.'
p2129
stRp2130
ag3
(g4
g5
(dp2131
g17
S'Rev'
p2132
sg15
S'endToRev'
p2133
sg20
S'End revision of toFile into which integration was \n\t\t    performed. Only varies from startToRev for reverse \n\t\t    integration records.'
p2134
stRp2135
ag3
(g4
g5
(dp2136
g17
S'IntegHow'
p2137
sg15
S'how'
p2138
sg20
S'Integration method: variations on \n\t\t    merge/branch/copy/ignore/delete.'
p2139
stRp2140
ag3
(g4
g5
(dp2141
g17
S'Change'
p2142
sg15
S'change'
p2143
sg20
S'Changelist associated with the integration.'
p2144
stRp2145
atRp2146
sg15
S'Integed'
p2147
stRp2148
ag3
(g4
g5
(dp2149
g984
g3
(g8
g9
(lp2150
g3
(g4
g5
(dp2151
g17
S'Key'
p2152
sg15
S'serverId'
p2153
sg20
S'The serverId of the replica for whom this record applies'
p2154
stRp2155
ag3
(g4
g5
(dp2156
g17
S'Date'
p2157
sg15
S'lastUpdate'
p2158
sg20
S'The date and time of last update'
p2159
stRp2160
ag3
(g4
g5
(dp2161
g17
S'ServerServiceType'
p2162
sg15
S'serverType'
p2163
sg20
S'The server services offered by this replica'
p2164
stRp2165
ag3
(g4
g5
(dp2166
g17
S'Int'
p2167
sg15
S'persistedJnl'
p2168
sg20
S'The last journal number persisted by this replica'
p2169
stRp2170
ag3
(g4
g5
(dp2171
g17
S'Int'
p2172
sg15
S'appliedJnl'
p2173
sg20
S'The last journal number applied by this replica'
p2174
stRp2175
ag3
(g4
g5
(dp2176
g17
S'Int64'
p2177
sg15
S'persistedPos'
p2178
sg20
S'The last journal position persisted by this replica'
p2179
stRp2180
ag3
(g4
g5
(dp2181
g17
S'Int64'
p2182
sg15
S'appliedPos'
p2183
sg20
S'The last journal position applied by this replica'
p2184
stRp2185
ag3
(g4
g5
(dp2186
g17
S'JournalCopyFlags'
p2187
sg15
S'jcflags'
p2188
sg20
S'Journalcopy Flags'
p2189
stRp2190
ag3
(g4
g5
(dp2191
g17
S'Int'
p2192
sg15
S'isAlive'
p2193
sg20
S'1 = alive'
p2194
stRp2195
ag3
(g4
g5
(dp2196
g17
S'ServerOptionsType'
p2197
sg15
S'serverOptions'
p2198
sg20
S'Server Options'
p2199
stRp2200
ag3
(g4
g5
(dp2201
g17
S'Text'
p2202
sg15
S'failoverSeen'
p2203
sg20
S'Failover was seen'
p2204
stRp2205
atRp2206
sg15
S'JnlAck'
p2207
stRp2208
ag3
(g4
g5
(dp2209
g984
g3
(g8
g9
(lp2210
g3
(g4
g5
(dp2211
g17
S'Key'
p2212
sg15
S'job'
p2213
sg20
S'The job name'
p2214
stRp2215
ag3
(g4
g5
(dp2216
g17
S'User'
p2217
sg15
S'xuser'
p2218
sg20
S'User name: defunct'
p2219
stRp2220
ag3
(g4
g5
(dp2221
g17
S'Date'
p2222
sg15
S'xdate'
p2223
sg20
S'The date: defunct'
p2224
stRp2225
ag3
(g4
g5
(dp2226
g17
S'JobStat'
p2227
sg15
S'xstatus'
p2228
sg20
S'Job status: defunct'
p2229
stRp2230
ag3
(g4
g5
(dp2231
g17
S'DescShort'
p2232
sg15
S'description'
p2233
sg20
S'Short description'
p2234
stRp2235
atRp2236
sg15
S'Job'
p2237
stRp2238
ag3
(g4
g5
(dp2239
g984
g3
(g8
g9
(lp2240
g3
(g4
g5
(dp2241
g17
S'Key'
p2242
sg15
S'xjob'
p2243
sg20
S'The job name'
p2244
stRp2245
ag3
(g4
g5
(dp2246
g17
S'Text'
p2247
sg15
S'xdescription'
p2248
sg20
S'Jobdescription'
p2249
stRp2250
atRp2251
sg15
S'JobDesc'
p2252
stRp2253
ag3
(g4
g5
(dp2254
g984
g3
(g8
g9
(lp2255
g3
(g4
g5
(dp2256
g17
S'Key'
p2257
sg15
S'name'
p2258
sg20
S'Key name'
p2259
stRp2260
ag3
(g4
g5
(dp2261
g17
S'Value'
p2262
sg15
S'value'
p2263
sg20
S'Key value'
p2264
stRp2265
atRp2266
sg15
S'Keys'
p2267
stRp2268
ag3
(g4
g5
(dp2269
g984
g3
(g8
g9
(lp2270
g3
(g4
g5
(dp2271
g17
S'Domain'
p2272
sg15
S'name'
p2273
sg20
S'Name of the label'
p2274
stRp2275
ag3
(g4
g5
(dp2276
g17
S'File'
p2277
sg15
S'depotFile'
p2278
sg20
S'File name'
p2279
stRp2280
ag3
(g4
g5
(dp2281
g17
S'Rev'
p2282
sg15
S'haveRev'
p2283
sg20
S'The revision of the file in the label'
p2284
stRp2285
atRp2286
sg15
S'Label'
p2287
stRp2288
ag3
(g4
g5
(dp2289
g984
g3
(g8
g9
(lp2290
g3
(g4
g5
(dp2291
g17
S'Key'
p2292
sg15
S'name'
p2293
sg20
S'The LDAP configuration name'
p2294
stRp2295
ag3
(g4
g5
(dp2296
g17
S'String'
p2297
sg15
S'host'
p2298
sg20
S'The FQDN of the directory server'
p2299
stRp2300
ag3
(g4
g5
(dp2301
g17
S'Int'
p2302
sg15
S'port'
p2303
sg20
S'The port number on which to connect to the directory server'
p2304
stRp2305
ag3
(g4
g5
(dp2306
g17
S'Int'
p2307
sg15
S'ssl'
p2308
sg20
S"The encryption method to use when connecting to the The FQDN of the directory server.\n\t\t\tOptions are: 0='none', 1='ssl' and 2='tls'"
p2309
stRp2310
ag3
(g4
g5
(dp2311
g17
S'Int'
p2312
sg15
S'type'
p2313
sg20
S"The bind method to use with this directory.  Options are: 0='simple', 1='search' and 2='sasl'."
p2314
stRp2315
ag3
(g4
g5
(dp2316
g17
S'Text'
p2317
sg15
S'pattern'
p2318
sg20
S"The DN used to bind against to validate the user's credentials."
p2319
stRp2320
ag3
(g4
g5
(dp2321
g17
S'Text'
p2322
sg15
S'baseDN'
p2323
sg20
S'The DN from which to start the search for the user object'
p2324
stRp2325
ag3
(g4
g5
(dp2326
g17
S'Text'
p2327
sg15
S'filter'
p2328
sg20
S'The LDAP query filter to use to identify the user object which will be used to bind against'
p2329
stRp2330
ag3
(g4
g5
(dp2331
g17
S'Int'
p2332
sg15
S'scope'
p2333
sg20
S'The scope to use when searching for the user records. Options are:\n                 0 = baseonly - Just the BaseDN object\n                 1 = children - The BaseDN and its direct children\n                 2 = subtree - The BaseDN and all objects below it'
p2334
stRp2335
ag3
(g4
g5
(dp2336
g17
S'Text'
p2337
sg15
S'bindDN'
p2338
sg20
S'The DN to bind against in order to search the directory'
p2339
stRp2340
ag3
(g4
g5
(dp2341
g17
S'Text'
p2342
sg15
S'bindpass'
p2343
sg20
S'The password for the BindDN record'
p2344
stRp2345
ag3
(g4
g5
(dp2346
g17
S'Text'
p2347
sg15
S'realm'
p2348
sg20
S'The optional realm to use when authenticating the user via SASL'
p2349
stRp2350
ag3
(g4
g5
(dp2351
g17
S'Text'
p2352
sg15
S'groupBaseDN'
p2353
sg20
S'The search base for performing the group search. If unset this will default to the SearchBaseDN'
p2354
stRp2355
ag3
(g4
g5
(dp2356
g17
S'Text'
p2357
sg15
S'groupFilter'
p2358
sg20
S'The filter to use for the group search'
p2359
stRp2360
ag3
(g4
g5
(dp2361
g17
S'Int'
p2362
sg15
S'groupScope'
p2363
sg20
S'The scope to use when performing the group search.Options are:\n \t\t\t\t0 = baseonly - Just the BaseDN object\n\t\t\t\t1 = children - The BaseDN and its direct children\n\t\t\t\t2 = subtree - The BaseDN and all objects below it'
p2364
stRp2365
ag3
(g4
g5
(dp2366
g17
S'Int'
p2367
sg15
S'options'
p2368
sg20
S'LDAP options bitmask: 1=[no]downcase, 2=[no]getattrs and 4=[no]realminusername'
p2369
stRp2370
ag3
(g4
g5
(dp2371
g17
S'Text'
p2372
sg15
S'attrUid'
p2373
sg20
S"The name of the attribute in the directory's user records that contain the users' UIDs"
p2374
stRp2375
ag3
(g4
g5
(dp2376
g17
S'Text'
p2377
sg15
S'attrEmail'
p2378
sg20
S"The name of the attribute in the directory's user records that contain the users' email addresses."
p2379
stRp2380
ag3
(g4
g5
(dp2381
g17
S'Text'
p2382
sg15
S'attrName'
p2383
sg20
S"The name(s) of the attribute(s) in the directory's user records that contain the users' full names."
p2384
stRp2385
atRp2386
sg15
S'Ldap'
p2387
stRp2388
ag3
(g4
g5
(dp2389
g984
g3
(g8
g9
(lp2390
g3
(g4
g5
(dp2391
g17
S'File'
p2392
sg15
S'depotFile'
p2393
sg20
S'File in depot'
p2394
stRp2395
ag3
(g4
g5
(dp2396
g17
S'Domain'
p2397
sg15
S'client'
p2398
sg20
S'Domain (client) in which file is open'
p2399
stRp2400
ag3
(g4
g5
(dp2401
g17
S'User'
p2402
sg15
S'user'
p2403
sg20
S'User who presently has the file open'
p2404
stRp2405
ag3
(g4
g5
(dp2406
g17
S'Action'
p2407
sg15
S'action'
p2408
sg20
S'Action file is open for: add, edit, delete, branch,\n\t\t    integrate, or import'
p2409
stRp2410
ag3
(g4
g5
(dp2411
g17
S'LockedType'
p2412
sg15
S'isLocked'
p2413
sg20
S'Bitmask of locked flags'
p2414
stRp2415
ag3
(g4
g5
(dp2416
g17
S'Change'
p2417
sg15
S'change'
p2418
sg20
S'Changelist in which the revision is open: 0 for the\n\t\t    default changelist'
p2419
stRp2420
atRp2421
sg15
S'Locks'
p2422
stRp2423
ag3
(g4
g5
(dp2424
g984
g3
(g8
g9
(lp2425
g3
(g4
g5
(dp2426
g17
S'Int'
p2427
sg15
S'seq'
p2428
sg20
S'Sequence number of event'
p2429
stRp2430
ag3
(g4
g5
(dp2431
g17
S'Key'
p2432
sg15
S'key'
p2433
sg20
S"Either the word 'change' or the word 'job'"
p2434
stRp2435
ag3
(g4
g5
(dp2436
g17
S'Key'
p2437
sg15
S'attr'
p2438
sg20
S'The number of the change, or name of the job that was \n\t\t    altered.'
p2439
stRp2440
atRp2441
sg15
S'Logger'
p2442
stRp2443
ag3
(g4
g5
(dp2444
g984
g3
(g8
g9
(lp2445
g3
(g4
g5
(dp2446
g17
S'Key'
p2447
sg15
S'language'
p2448
sg20
S'The language for which this message applies'
p2449
stRp2450
ag3
(g4
g5
(dp2451
g17
S'Int'
p2452
sg15
S'id'
p2453
sg20
S'The message number'
p2454
stRp2455
ag3
(g4
g5
(dp2456
g17
S'String'
p2457
sg15
S'message'
p2458
sg20
S'The message text'
p2459
stRp2460
atRp2461
sg15
S'Message'
p2462
stRp2463
ag3
(g4
g5
(dp2464
g984
g3
(g8
g9
(lp2465
g3
(g4
g5
(dp2466
g17
S'Int'
p2467
sg15
S'id'
p2468
sg20
S'Thread/process id'
p2469
stRp2470
ag3
(g4
g5
(dp2471
g17
S'User'
p2472
sg15
S'user'
p2473
sg20
S'Username of the user running the command'
p2474
stRp2475
ag3
(g4
g5
(dp2476
g17
S'String'
p2477
sg15
S'function'
p2478
sg20
S'The command being executed.'
p2479
stRp2480
ag3
(g4
g5
(dp2481
g17
S'String'
p2482
sg15
S'args'
p2483
sg20
S'Arguments passed to the command'
p2484
stRp2485
ag3
(g4
g5
(dp2486
g17
S'Date'
p2487
sg15
S'startDate'
p2488
sg20
S'The date and time the command started'
p2489
stRp2490
ag3
(g4
g5
(dp2491
g17
S'Int'
p2492
sg15
S'runstate'
p2493
sg20
S'Flag: 0 for running, 1 for terminated, 2 for paused'
p2494
stRp2495
ag3
(g4
g5
(dp2496
g17
S'Domain'
p2497
sg15
S'client'
p2498
sg20
S'The client workspace'
p2499
stRp2500
ag3
(g4
g5
(dp2501
g17
S'Text'
p2502
sg15
S'host'
p2503
sg20
S'The IP address of the client'
p2504
stRp2505
ag3
(g4
g5
(dp2506
g17
S'Text'
p2507
sg15
S'prog'
p2508
sg20
S'The name (and version) of the client program'
p2509
stRp2510
ag3
(g4
g5
(dp2511
g17
S'Text'
p2512
sg15
S'lockInfo'
p2513
sg20
S'Table locking information for command'
p2514
stRp2515
atRp2516
sg15
S'Monitor'
p2517
stRp2518
ag3
(g4
g5
(dp2519
g984
g3
(g8
g9
(lp2520
g3
(g4
g5
(dp2521
g17
S'SHA1'
p2522
sg15
S'sha'
p2523
sg20
S'The SHA1 of the object'
p2524
stRp2525
ag3
(g4
g5
(dp2526
g17
S'ObjectType'
p2527
sg15
S'type'
p2528
sg20
S'The object type'
p2529
stRp2530
ag3
(g4
g5
(dp2531
g17
S'Octet String'
p2532
sg15
S'data'
p2533
sg20
S'The object content'
p2534
stRp2535
atRp2536
sg15
S'Object'
p2537
stRp2538
ag3
(g4
g5
(dp2539
g984
g3
(g8
g9
(lp2540
g3
(g4
g5
(dp2541
g17
S'Key'
p2542
sg15
S'name'
p2543
sg20
S'The property name'
p2544
stRp2545
ag3
(g4
g5
(dp2546
g17
S'Int'
p2547
sg15
S'seq'
p2548
sg20
S'Sequence number of property'
p2549
stRp2550
ag3
(g4
g5
(dp2551
g17
S'UserType'
p2552
sg15
S'type'
p2553
sg20
S'Only uses 1=user or 2=group and only applies when scope is set'
p2554
stRp2555
ag3
(g4
g5
(dp2556
g17
S'User'
p2557
sg15
S'scope'
p2558
sg20
S'The user or group the property applies to (may be empty)'
p2559
stRp2560
ag3
(g4
g5
(dp2561
g17
S'Value'
p2562
sg15
S'value'
p2563
sg20
S'The property value'
p2564
stRp2565
ag3
(g4
g5
(dp2566
g17
S'Date'
p2567
sg15
S'date'
p2568
sg20
S'The date/time the property was last updated'
p2569
stRp2570
ag3
(g4
g5
(dp2571
g17
S'User'
p2572
sg15
S'user'
p2573
sg20
S'The user that last modified the property'
p2574
stRp2575
atRp2576
sg15
S'Property'
p2577
stRp2578
ag3
(g4
g5
(dp2579
g984
g3
(g8
g9
(lp2580
g3
(g4
g5
(dp2581
g17
S'Int'
p2582
sg15
S'seq'
p2583
sg20
S'Sequence number: for ordering the protections table'
p2584
stRp2585
ag3
(g4
g5
(dp2586
g17
S'Int'
p2587
sg15
S'isGroup'
p2588
sg20
S'Flag: 0 for a per-user setting, 1 for a per-group setting.'
p2589
stRp2590
ag3
(g4
g5
(dp2591
g17
S'UserWild'
p2592
sg15
S'user'
p2593
sg20
S'User(s), or Group(s) for whom this record applies.'
p2594
stRp2595
ag3
(g4
g5
(dp2596
g17
S'DomainWild'
p2597
sg15
S'host'
p2598
sg20
S'Domain(s) (IP addresses) for which this record applies.'
p2599
stRp2600
ag3
(g4
g5
(dp2601
g17
S'Perm'
p2602
sg15
S'perm'
p2603
sg20
S'Permissions to be granted/revoked'
p2604
stRp2605
ag3
(g4
g5
(dp2606
g17
S'MapFlag'
p2607
sg15
S'mapFlag'
p2608
sg20
S'Flag: Map the files in or out?'
p2609
stRp2610
ag3
(g4
g5
(dp2611
g17
S'Mapping'
p2612
sg15
S'depotFile'
p2613
sg20
S'Files to be mapped in or out.'
p2614
stRp2615
ag3
(g4
g5
(dp2616
g17
S'Mapping'
p2617
sg15
S'subPath'
p2618
sg20
S'Root path of the sub-protections table'
p2619
stRp2620
ag3
(g4
g5
(dp2621
g17
S'Date'
p2622
sg15
S'update'
p2623
sg20
S'Date this specification was last modified'
p2624
stRp2625
atRp2626
sg15
S'Protect'
p2627
stRp2628
ag3
(g4
g5
(dp2629
g984
g3
(g8
g9
(lp2630
g3
(g4
g5
(dp2631
g17
S'User'
p2632
sg15
S'user'
p2633
sg20
S'User'
p2634
stRp2635
ag3
(g4
g5
(dp2636
g17
S'Key'
p2637
sg15
S'scope'
p2638
sg20
S'Scope'
p2639
stRp2640
ag3
(g4
g5
(dp2641
g17
S'Text'
p2642
sg15
S'key'
p2643
sg20
S'Key'
p2644
stRp2645
ag3
(g4
g5
(dp2646
g17
S'Digest'
p2647
sg15
S'digest'
p2648
sg20
S'Digest'
p2649
stRp2650
ag3
(g4
g5
(dp2651
g17
S'Date'
p2652
sg15
S'update'
p2653
sg20
S'Update date'
p2654
stRp2655
atRp2656
sg15
S'PublicKey'
p2657
stRp2658
ag3
(g4
g5
(dp2659
g984
g3
(g8
g9
(lp2660
g3
(g4
g5
(dp2661
g17
S'Key'
p2662
sg15
S'repo'
p2663
sg20
S'Repository name'
p2664
stRp2665
ag3
(g4
g5
(dp2666
g17
S'Key'
p2667
sg15
S'name'
p2668
sg20
S'Reference name'
p2669
stRp2670
ag3
(g4
g5
(dp2671
g17
S'RefType'
p2672
sg15
S'type'
p2673
sg20
S'Reference type'
p2674
stRp2675
ag3
(g4
g5
(dp2676
g17
S'SHA1'
p2677
sg15
S'ref'
p2678
sg20
S'Target of the reference'
p2679
stRp2680
ag3
(g4
g5
(dp2681
g17
S'Text'
p2682
sg15
S'symref'
p2683
sg20
S'Target of symbolic reference'
p2684
stRp2685
atRp2686
sg15
S'Ref'
p2687
stRp2688
ag3
(g4
g5
(dp2689
g984
g3
(g8
g9
(lp2690
g3
(g4
g5
(dp2691
g17
S'Key'
p2692
sg15
S'repo'
p2693
sg20
S'Repository name'
p2694
stRp2695
ag3
(g4
g5
(dp2696
g17
S'Key'
p2697
sg15
S'name'
p2698
sg20
S'Reference name'
p2699
stRp2700
ag3
(g4
g5
(dp2701
g17
S'RefType'
p2702
sg15
S'type'
p2703
sg20
S'Reference type'
p2704
stRp2705
ag3
(g4
g5
(dp2706
g17
S'RefAction'
p2707
sg15
S'action'
p2708
sg20
S'Reference action'
p2709
stRp2710
ag3
(g4
g5
(dp2711
g17
S'Date'
p2712
sg15
S'date'
p2713
sg20
S'The date the reference was updated'
p2714
stRp2715
ag3
(g4
g5
(dp2716
g17
S'User'
p2717
sg15
S'user'
p2718
sg20
S'The user who made the reference update'
p2719
stRp2720
ag3
(g4
g5
(dp2721
g17
S'SHA1'
p2722
sg15
S'ref'
p2723
sg20
S'Encoded reference value'
p2724
stRp2725
ag3
(g4
g5
(dp2726
g17
S'Text'
p2727
sg15
S'symref'
p2728
sg20
S'Symbolic reference'
p2729
stRp2730
atRp2731
sg15
S'RefHist'
p2732
stRp2733
ag3
(g4
g5
(dp2734
g984
g3
(g8
g9
(lp2735
g3
(g4
g5
(dp2736
g17
S'RemoteID'
p2737
sg15
S'id'
p2738
sg20
S'The remote identifier'
p2739
stRp2740
ag3
(g4
g5
(dp2741
g17
S'User'
p2742
sg15
S'owner'
p2743
sg20
S'The user who created this remote'
p2744
stRp2745
ag3
(g4
g5
(dp2746
g17
S'Int'
p2747
sg15
S'options'
p2748
sg20
S'Remote options bitmask: 0: unlocked/nocompress, 1: locked/nocompress, 2: unlocked/compress, 4: locked/compress'
p2749
stRp2750
ag3
(g4
g5
(dp2751
g17
S'Text'
p2752
sg15
S'address'
p2753
sg20
S'The P4PORT used by the remote server'
p2754
stRp2755
ag3
(g4
g5
(dp2756
g17
S'Text'
p2757
sg15
S'desc'
p2758
sg20
S'Description of the remote server'
p2759
stRp2760
ag3
(g4
g5
(dp2761
g17
S'Date'
p2762
sg15
S'update'
p2763
sg20
S'The date this specification was last modified'
p2764
stRp2765
ag3
(g4
g5
(dp2766
g17
S'Date'
p2767
sg15
S'access'
p2768
sg20
S'The date of the last push/fetch on this remote'
p2769
stRp2770
ag3
(g4
g5
(dp2771
g17
S'Change'
p2772
sg15
S'fetch'
p2773
sg20
S'The last changelist that was fetched'
p2774
stRp2775
ag3
(g4
g5
(dp2776
g17
S'Change'
p2777
sg15
S'push'
p2778
sg20
S'The last changelist that was pushed'
p2779
stRp2780
ag3
(g4
g5
(dp2781
g17
S'User'
p2782
sg15
S'rmtuser'
p2783
sg20
S'The user to use when connecting to the remote server'
p2784
stRp2785
atRp2786
sg15
S'Remote'
p2787
stRp2788
ag3
(g4
g5
(dp2789
g984
g3
(g8
g9
(lp2790
g3
(g4
g5
(dp2791
g17
S'File'
p2792
sg15
S'file'
p2793
sg20
S'The file name'
p2794
stRp2795
ag3
(g4
g5
(dp2796
g17
S'String'
p2797
sg15
S'rev'
p2798
sg20
S'The librarian revision'
p2799
stRp2800
ag3
(g4
g5
(dp2801
g17
S'FileType'
p2802
sg15
S'type'
p2803
sg20
S'The file type of the revision'
p2804
stRp2805
ag3
(g4
g5
(dp2806
g17
S'PullStatus'
p2807
sg15
S'status'
p2808
sg20
S'The status of the archive transfer'
p2809
stRp2810
ag3
(g4
g5
(dp2811
g17
S'Int'
p2812
sg15
S'who'
p2813
sg20
S'The process / thread id ID of the pull process'
p2814
stRp2815
ag3
(g4
g5
(dp2816
g17
S'Int'
p2817
sg15
S'when'
p2818
sg20
S'The timestamp from when the transfer was scheduled'
p2819
stRp2820
ag3
(g4
g5
(dp2821
g17
S'Action'
p2822
sg15
S'action'
p2823
sg20
S'The action that created the revision'
p2824
stRp2825
ag3
(g4
g5
(dp2826
g17
S'Digest'
p2827
sg15
S'digest'
p2828
sg20
S'The MD5 digest of the revision'
p2829
stRp2830
ag3
(g4
g5
(dp2831
g17
S'FileSize'
p2832
sg15
S'size'
p2833
sg20
S'The size of the file in bytes'
p2834
stRp2835
ag3
(g4
g5
(dp2836
g17
S'Int'
p2837
sg15
S'retries'
p2838
sg20
S'Error retry count'
p2839
stRp2840
ag3
(g4
g5
(dp2841
g17
S'Octet String'
p2842
sg15
S'errmsg'
p2843
sg20
S'Last Error Message'
p2844
stRp2845
ag3
(g4
g5
(dp2846
g17
S'Change'
p2847
sg15
S'change'
p2848
sg20
S'The changelist that created the revision'
p2849
stRp2850
ag3
(g4
g5
(dp2851
g17
S'Date'
p2852
sg15
S'date'
p2853
sg20
S'Librarian date'
p2854
stRp2855
ag3
(g4
g5
(dp2856
g17
S'Date'
p2857
sg15
S'modTime'
p2858
sg20
S'Librarian modtime'
p2859
stRp2860
ag3
(g4
g5
(dp2861
g17
S'Int'
p2862
sg15
S'origin'
p2863
sg20
S'The revision type that this transfer originates from:\n\t\t      1 = db.rev\n\t\t      2 = db.revsh\n\t\t      3 = db.revsx\n\t\t      4 = db.revux\n\t\t      5 = db.object'
p2864
stRp2865
ag3
(g4
g5
(dp2866
g17
S'Text'
p2867
sg15
S'target'
p2868
sg20
S'Edge server to transfer from (reverse replication only)'
p2869
stRp2870
atRp2871
sg15
S'ReplicaArchiveTransfer'
p2872
stRp2873
ag3
(g4
g5
(dp2874
g984
g3
(g8
g9
(lp2875
g3
(g4
g5
(dp2876
g17
S'Key'
p2877
sg15
S'repo'
p2878
sg20
S'Name of the repo'
p2879
stRp2880
ag3
(g4
g5
(dp2881
g17
S'User'
p2882
sg15
S'owner'
p2883
sg20
S'Owner of the repo'
p2884
stRp2885
ag3
(g4
g5
(dp2886
g17
S'Date'
p2887
sg15
S'created'
p2888
sg20
S'Date the repo specification was created'
p2889
stRp2890
ag3
(g4
g5
(dp2891
g17
S'Date'
p2892
sg15
S'pushed'
p2893
sg20
S'Date of the last push to the repo'
p2894
stRp2895
ag3
(g4
g5
(dp2896
g17
S'Key'
p2897
sg15
S'forked'
p2898
sg20
S'Name of the repo from which this repo was forked'
p2899
stRp2900
ag3
(g4
g5
(dp2901
g17
S'Text'
p2902
sg15
S'desc'
p2903
sg20
S'Repo Description'
p2904
stRp2905
ag3
(g4
g5
(dp2906
g17
S'Text'
p2907
sg15
S'branch'
p2908
sg20
S'Default branch to clone from the repo'
p2909
stRp2910
ag3
(g4
g5
(dp2911
g17
S'Text'
p2912
sg15
S'mirror'
p2913
sg20
S'Upstream URL that this repo is mirrored (readonly) from'
p2914
stRp2915
ag3
(g4
g5
(dp2916
g17
S'Int'
p2917
sg15
S'options'
p2918
sg20
S'Repo options: 0 = nolfs, 1 = lfs'
p2919
stRp2920
ag3
(g4
g5
(dp2921
g17
S'Int'
p2922
sg15
S'id'
p2923
sg20
S'Repo index ID'
p2924
stRp2925
ag3
(g4
g5
(dp2926
g17
S'Text'
p2927
sg15
S'gcmrrserver'
p2928
sg20
S'gconn Mirror Server ID'
p2929
stRp2930
atRp2931
sg15
S'Repo'
p2932
stRp2933
ag3
(g4
g5
(dp2934
g984
g3
(g8
g9
(lp2935
g3
(g4
g5
(dp2936
g17
S'File'
p2937
sg15
S'toFile'
p2938
sg20
S'File to which integration is being performed (target).'
p2939
stRp2940
ag3
(g4
g5
(dp2941
g17
S'File'
p2942
sg15
S'fromFile'
p2943
sg20
S'File from which integration is being performed (source).'
p2944
stRp2945
ag3
(g4
g5
(dp2946
g17
S'Rev'
p2947
sg15
S'startFromRev'
p2948
sg20
S'Starting revision of fromFile'
p2949
stRp2950
ag3
(g4
g5
(dp2951
g17
S'Rev'
p2952
sg15
S'endFromRev'
p2953
sg20
S'Ending revision of fromFile'
p2954
stRp2955
ag3
(g4
g5
(dp2956
g17
S'Rev'
p2957
sg15
S'startToRev'
p2958
sg20
S'Start revision of toFile into which integration was \n\t\t    performed.'
p2959
stRp2960
ag3
(g4
g5
(dp2961
g17
S'Rev'
p2962
sg15
S'endToRev'
p2963
sg20
S'End revision of toFile into which integration was \n\t\t    performed. Only varies from startToRev for reverse \n\t\t    integration records.'
p2964
stRp2965
ag3
(g4
g5
(dp2966
g17
S'IntegHow'
p2967
sg15
S'how'
p2968
sg20
S'Integration method: variations on \n\t\t    merge/branch/copy/ignore/delete.'
p2969
stRp2970
ag3
(g4
g5
(dp2971
g17
S'ResolveState'
p2972
sg15
S'state'
p2973
sg20
S'How the user performed the resolve.'
p2974
stRp2975
ag3
(g4
g5
(dp2976
g17
S'File'
p2977
sg15
S'baseFile'
p2978
sg20
S'File used as the base for merging.'
p2979
stRp2980
ag3
(g4
g5
(dp2981
g17
S'Rev'
p2982
sg15
S'baseRev'
p2983
sg20
S'Revision of baseFile used as the merge base.'
p2984
stRp2985
atRp2986
sg15
S'Resolve'
p2987
stRp2988
ag3
(g4
g5
(dp2989
g984
g3
(g8
g9
(lp2990
g3
(g4
g5
(dp2991
g17
S'File'
p2992
sg15
S'toFile'
p2993
sg20
S'ToFile'
p2994
stRp2995
ag3
(g4
g5
(dp2996
g17
S'File'
p2997
sg15
S'fromFile'
p2998
sg20
S'FromFile'
p2999
stRp3000
ag3
(g4
g5
(dp3001
g17
S'SHA1'
p3002
sg15
S'baseSHA'
p3003
sg20
S'Base SHA'
p3004
stRp3005
ag3
(g4
g5
(dp3006
g17
S'SHA1'
p3007
sg15
S'wantsSHA'
p3008
sg20
S'Wants SHA'
p3009
stRp3010
ag3
(g4
g5
(dp3011
g17
S'IntegHow'
p3012
sg15
S'how'
p3013
sg20
S'Integration method: variations on merge/branch/copy/ignore/delete.'
p3014
stRp3015
ag3
(g4
g5
(dp3016
g17
S'ResolvedStatus'
p3017
sg15
S'state'
p3018
sg20
S'State'
p3019
stRp3020
atRp3021
sg15
S'ResolveG'
p3022
stRp3023
ag3
(g4
g5
(dp3024
g984
g3
(g8
g9
(lp3025
g3
(g4
g5
(dp3026
g17
S'File'
p3027
sg15
S'depotFile'
p3028
sg20
S'The file name'
p3029
stRp3030
ag3
(g4
g5
(dp3031
g17
S'Rev'
p3032
sg15
S'depotRev'
p3033
sg20
S'The revision number'
p3034
stRp3035
ag3
(g4
g5
(dp3036
g17
S'FileType'
p3037
sg15
S'type'
p3038
sg20
S'The file type of the revision'
p3039
stRp3040
ag3
(g4
g5
(dp3041
g17
S'Action'
p3042
sg15
S'action'
p3043
sg20
S'The action that created the revision'
p3044
stRp3045
ag3
(g4
g5
(dp3046
g17
S'Change'
p3047
sg15
S'change'
p3048
sg20
S'The changelist that created the revision'
p3049
stRp3050
ag3
(g4
g5
(dp3051
g17
S'Date'
p3052
sg15
S'date'
p3053
sg20
S'The date/time the changelist that created the revision\n\t\t    was submitted'
p3054
stRp3055
ag3
(g4
g5
(dp3056
g17
S'Date'
p3057
sg15
S'modTime'
p3058
sg20
S"The timestamp on the file in the user's workspace when\n\t\t    the revision was submitted."
p3059
stRp3060
ag3
(g4
g5
(dp3061
g17
S'Digest'
p3062
sg15
S'digest'
p3063
sg20
S'The MD5 digest of the revision.'
p3064
stRp3065
ag3
(g4
g5
(dp3066
g17
S'FileSize'
p3067
sg15
S'size'
p3068
sg20
S'The size of the file in bytes'
p3069
stRp3070
ag3
(g4
g5
(dp3071
g17
S'TraitLot'
p3072
sg15
S'traitLot'
p3073
sg20
S'Group of traits (attributes) associated with the revision.'
p3074
stRp3075
ag3
(g4
g5
(dp3076
g17
S'RevStatus'
p3077
sg15
S'lbrIsLazy'
p3078
sg20
S'Specifies whether or not the revision gets its content from \n\t  \t    another file (lazy copy), data about promotion of revision\n\t \t    content from task streams, and data about revision charset \n            information.'
p3079
stRp3080
ag3
(g4
g5
(dp3081
g17
S'File'
p3082
sg15
S'lbrFile'
p3083
sg20
S"Filename for librarian's purposes.  Specifies location in \n\t\t    the archives where the file containing the revision may\n\t\t    be found. Usually the same as depotFile, but differs in\n\t\t    the case of branched/copied revisions."
p3084
stRp3085
ag3
(g4
g5
(dp3086
g17
S'String'
p3087
sg15
S'lbrRev'
p3088
sg20
S'The revision of lbrFile that contains the revision content.'
p3089
stRp3090
ag3
(g4
g5
(dp3091
g17
S'FileType'
p3092
sg15
S'lbrType'
p3093
sg20
S'The file type of the librarian revision. Usually the same\n\t\t    as type, but differs in the case of branched/copied \n\t\t    revisions.'
p3094
stRp3095
atRp3096
sg15
S'Rev'
p3097
stRp3098
ag3
(g4
g5
(dp3099
g984
g3
(g8
g9
(lp3100
g3
(g4
g5
(dp3101
g17
S'Change'
p3102
sg15
S'change'
p3103
sg20
S'The changelist that created the revision'
p3104
stRp3105
ag3
(g4
g5
(dp3106
g17
S'File'
p3107
sg15
S'depotFile'
p3108
sg20
S'The file name'
p3109
stRp3110
ag3
(g4
g5
(dp3111
g17
S'Rev'
p3112
sg15
S'depotRev'
p3113
sg20
S'The revision number'
p3114
stRp3115
ag3
(g4
g5
(dp3116
g17
S'Action'
p3117
sg15
S'action'
p3118
sg20
S'The action that created the revision'
p3119
stRp3120
atRp3121
sg15
S'RevCx'
p3122
stRp3123
ag3
(g4
g5
(dp3124
g984
g3
(g8
g9
(lp3125
g3
(g4
g5
(dp3126
g17
S'User'
p3127
sg15
S'user'
p3128
sg20
S'A user name'
p3129
stRp3130
ag3
(g4
g5
(dp3131
g17
S'Int'
p3132
sg15
S'seq'
p3133
sg20
S'Sequence number: used for ordering multi-line views'
p3134
stRp3135
ag3
(g4
g5
(dp3136
g17
S'MapFlag'
p3137
sg15
S'mapFlag'
p3138
sg20
S'Type of mapping'
p3139
stRp3140
ag3
(g4
g5
(dp3141
g17
S'Mapping'
p3142
sg15
S'depotFile'
p3143
sg20
S'The files to be reviewed'
p3144
stRp3145
ag3
(g4
g5
(dp3146
g17
S'Reviewer'
p3147
sg15
S'type'
p3148
sg20
S'Type of reviewer'
p3149
stRp3150
atRp3151
sg15
S'Review'
p3152
stRp3153
ag3
(g4
g5
(dp3154
g984
g3
(g8
g9
(lp3155
g3
(g4
g5
(dp3156
g17
S'RemoteID'
p3157
sg15
S'id'
p3158
sg20
S'Remote name'
p3159
stRp3160
ag3
(g4
g5
(dp3161
g17
S'Int'
p3162
sg15
S'seq'
p3163
sg20
S'Sequence number: for ordering multi-line views'
p3164
stRp3165
ag3
(g4
g5
(dp3166
g17
S'MapFlag'
p3167
sg15
S'mapFlag'
p3168
sg20
S'Type of mapping'
p3169
stRp3170
ag3
(g4
g5
(dp3171
g17
S'Mapping'
p3172
sg15
S'localFile'
p3173
sg20
S'Local file'
p3174
stRp3175
ag3
(g4
g5
(dp3176
g17
S'Mapping'
p3177
sg15
S'remoteFile'
p3178
sg20
S'Remote file'
p3179
stRp3180
ag3
(g4
g5
(dp3181
g17
S'Int'
p3182
sg15
S'retain'
p3183
sg20
S'ArchiveLimits'
p3184
stRp3185
atRp3186
sg15
S'RmtView'
p3187
stRp3188
ag3
(g4
g5
(dp3189
g984
g3
(g8
g9
(lp3190
g3
(g4
g5
(dp3191
g17
S'File'
p3192
sg15
S'depotPath'
p3193
sg20
S'name of scanner task'
p3194
stRp3195
ag3
(g4
g5
(dp3196
g17
S'ScanState'
p3197
sg15
S'state'
p3198
sg20
S'scan state'
p3199
stRp3200
ag3
(g4
g5
(dp3201
g17
S'Int'
p3202
sg15
S'seq'
p3203
sg20
S'Next internal sequence number of working directories'
p3204
stRp3205
ag3
(g4
g5
(dp3206
g17
S'Int'
p3207
sg15
S'dirs'
p3208
sg20
S'directories processed'
p3209
stRp3210
ag3
(g4
g5
(dp3211
g17
S'Int'
p3212
sg15
S'files'
p3213
sg20
S'files processed'
p3214
stRp3215
ag3
(g4
g5
(dp3216
g17
S'Int'
p3217
sg15
S'zeros'
p3218
sg20
S'orphaned revisions'
p3219
stRp3220
ag3
(g4
g5
(dp3221
g17
S'Int'
p3222
sg15
S'dirserr'
p3223
sg20
S'directories skipped due to errors'
p3224
stRp3225
ag3
(g4
g5
(dp3226
g17
S'Int'
p3227
sg15
S'pri'
p3228
sg20
S'Priority (unused)'
p3229
stRp3230
ag3
(g4
g5
(dp3231
g17
S'Int'
p3232
sg15
S'reqpause'
p3233
sg20
S'request paused'
p3234
stRp3235
ag3
(g4
g5
(dp3236
g17
S'Text'
p3237
sg15
S'err'
p3238
sg20
S'background process error'
p3239
stRp3240
atRp3241
sg15
S'ScanCtl'
p3242
stRp3243
ag3
(g4
g5
(dp3244
g984
g3
(g8
g9
(lp3245
g3
(g4
g5
(dp3246
g17
S'File'
p3247
sg15
S'lskey'
p3248
sg20
S'library scan key'
p3249
stRp3250
ag3
(g4
g5
(dp3251
g17
S'Int'
p3252
sg15
S'seq'
p3253
sg20
S'The sequence of the work directory'
p3254
stRp3255
ag3
(g4
g5
(dp3256
g17
S'File'
p3257
sg15
S'file'
p3258
sg20
S'The path of the pending work directory'
p3259
stRp3260
atRp3261
sg15
S'ScanDir'
p3262
stRp3263
ag3
(g4
g5
(dp3264
g984
g3
(g8
g9
(lp3265
g3
(g4
g5
(dp3266
g17
S'Int'
p3267
sg15
S'taskid'
p3268
sg20
S'The process id (PID) of the sync'
p3269
stRp3270
ag3
(g4
g5
(dp3271
g17
S'Int'
p3272
sg15
S'seq'
p3273
sg20
S'Sequence number'
p3274
stRp3275
ag3
(g4
g5
(dp3276
g17
S'Text'
p3277
sg15
S'handle'
p3278
sg20
S'Handle'
p3279
stRp3280
ag3
(g4
g5
(dp3281
g17
S'File'
p3282
sg15
S'depotFile'
p3283
sg20
S'The file in the depot'
p3284
stRp3285
ag3
(g4
g5
(dp3286
g17
S'File'
p3287
sg15
S'clientFile'
p3288
sg20
S'The file in its location on the client'
p3289
stRp3290
ag3
(g4
g5
(dp3291
g17
S'Rev'
p3292
sg15
S'haveRev'
p3293
sg20
S'Have revision'
p3294
stRp3295
ag3
(g4
g5
(dp3296
g17
S'FileType'
p3297
sg15
S'type'
p3298
sg20
S'File type'
p3299
stRp3300
ag3
(g4
g5
(dp3301
g17
S'Date'
p3302
sg15
S'modtime'
p3303
sg20
S'Modification time'
p3304
stRp3305
ag3
(g4
g5
(dp3306
g17
S'Digest'
p3307
sg15
S'digest'
p3308
sg20
S'The MD5 digest of the revision'
p3309
stRp3310
ag3
(g4
g5
(dp3311
g17
S'FileSize'
p3312
sg15
S'size'
p3313
sg20
S'The size of the file in bytes'
p3314
stRp3315
ag3
(g4
g5
(dp3316
g17
S'File'
p3317
sg15
S'lbrFile'
p3318
sg20
S'Librarian filename'
p3319
stRp3320
ag3
(g4
g5
(dp3321
g17
S'String'
p3322
sg15
S'lbrRev'
p3323
sg20
S'The librarian revision number'
p3324
stRp3325
ag3
(g4
g5
(dp3326
g17
S'FileType'
p3327
sg15
S'lbrType'
p3328
sg20
S'The file type of the librarian revision'
p3329
stRp3330
ag3
(g4
g5
(dp3331
g17
S'Int'
p3332
sg15
S'flags'
p3333
sg20
S'Miscellaneous flags'
p3334
stRp3335
ag3
(g4
g5
(dp3336
g17
S'FileType'
p3337
sg15
S'clientType'
p3338
sg20
S'The client file type of the revision'
p3339
stRp3340
ag3
(g4
g5
(dp3341
g17
S'Rev'
p3342
sg15
S'depotRev'
p3343
sg20
S'The revision number of depotFile'
p3344
stRp3345
ag3
(g4
g5
(dp3346
g17
S'Change'
p3347
sg15
S'change'
p3348
sg20
S'The changelist that created the depotRev of depotFile'
p3349
stRp3350
ag3
(g4
g5
(dp3351
g17
S'Date'
p3352
sg15
S'date'
p3353
sg20
S'The date/time when the changelist that created depotRev of depotFile was submitted'
p3354
stRp3355
ag3
(g4
g5
(dp3356
g17
S'SHA1'
p3357
sg15
S'blobSha'
p3358
sg20
S'The Blob SHA'
p3359
stRp3360
ag3
(g4
g5
(dp3361
g17
S'Int'
p3362
sg15
S'repoSlot'
p3363
sg20
S'The repo slot (internal repo ordering)'
p3364
stRp3365
ag3
(g4
g5
(dp3366
g17
S'Digest'
p3367
sg15
S'shelveDigest'
p3368
sg20
S'Digest of previous shelved revision'
p3369
stRp3370
atRp3371
sg15
S'SendQ'
p3372
stRp3373
ag3
(g4
g5
(dp3374
g984
g3
(g8
g9
(lp3375
g3
(g4
g5
(dp3376
g17
S'Key'
p3377
sg15
S'id'
p3378
sg20
S'The server identifier'
p3379
stRp3380
ag3
(g4
g5
(dp3381
g17
S'ServerType'
p3382
sg15
S'type'
p3383
sg20
S'The server type: server/broker/proxy'
p3384
stRp3385
ag3
(g4
g5
(dp3386
g17
S'Text'
p3387
sg15
S'name'
p3388
sg20
S'The P4NAME used by this server'
p3389
stRp3390
ag3
(g4
g5
(dp3391
g17
S'Text'
p3392
sg15
S'address'
p3393
sg20
S'The P4PORT used by this server'
p3394
stRp3395
ag3
(g4
g5
(dp3396
g17
S'Text'
p3397
sg15
S'externalAddress'
p3398
sg20
S'For an edge server, this optional field contains its external address for connections from the commit server. This field is required for federated parallel submit.'
p3399
stRp3400
ag3
(g4
g5
(dp3401
g17
S'ServerServiceType'
p3402
sg15
S'services'
p3403
sg20
S'Service provided by this server'
p3404
stRp3405
ag3
(g4
g5
(dp3406
g17
S'Text'
p3407
sg15
S'desc'
p3408
sg20
S'Server description'
p3409
stRp3410
ag3
(g4
g5
(dp3411
g17
S'User'
p3412
sg15
S'user'
p3413
sg20
S'The service user used by this server'
p3414
stRp3415
ag3
(g4
g5
(dp3416
g17
S'ServerOptionsType'
p3417
sg15
S'options'
p3418
sg20
S'Server options'
p3419
stRp3420
ag3
(g4
g5
(dp3421
g17
S'Key'
p3422
sg15
S'rplFrom'
p3423
sg20
S'Replication from Server ID'
p3424
stRp3425
ag3
(g4
g5
(dp3426
g17
S'Text'
p3427
sg15
S'failoverSeen'
p3428
sg20
S'Mark failover as seen'
p3429
stRp3430
atRp3431
sg15
S'Server'
p3432
stRp3433
ag3
(g4
g5
(dp3434
g984
g3
(g8
g9
(lp3435
g3
(g4
g5
(dp3436
g17
S'File'
p3437
sg15
S'file'
p3438
sg20
S'Librarian file'
p3439
stRp3440
ag3
(g4
g5
(dp3441
g17
S'String'
p3442
sg15
S'rev'
p3443
sg20
S'Librarian revision'
p3444
stRp3445
ag3
(g4
g5
(dp3446
g17
S'FileType'
p3447
sg15
S'type'
p3448
sg20
S'The file type of the librarian revision'
p3449
stRp3450
ag3
(g4
g5
(dp3451
g17
S'Int'
p3452
sg15
S'refCount'
p3453
sg20
S'Reference count'
p3454
stRp3455
ag3
(g4
g5
(dp3456
g17
S'Digest'
p3457
sg15
S'digest'
p3458
sg20
S'MD5 of librarian file (ktext collapsed)'
p3459
stRp3460
ag3
(g4
g5
(dp3461
g17
S'FileSize'
p3462
sg15
S'size'
p3463
sg20
S'Size of file'
p3464
stRp3465
ag3
(g4
g5
(dp3466
g17
S'FileSize'
p3467
sg15
S'serverSize'
p3468
sg20
S'Size of librarian file on server at time of submit / shelve operation'
p3469
stRp3470
ag3
(g4
g5
(dp3471
g17
S'Digest'
p3472
sg15
S'compCksum'
p3473
sg20
S'Digest of compressed librarian file'
p3474
stRp3475
ag3
(g4
g5
(dp3476
g17
S'Date'
p3477
sg15
S'date'
p3478
sg20
S'Date of last update to the storage record'
p3479
stRp3480
atRp3481
sg15
S'Storage'
p3482
stRp3483
ag3
(g4
g5
(dp3484
g984
g3
(g8
g9
(lp3485
g3
(g4
g5
(dp3486
g17
S'Key'
p3487
sg15
S'repo'
p3488
sg20
S'Repository name'
p3489
stRp3490
ag3
(g4
g5
(dp3491
g17
S'Key'
p3492
sg15
S'sha'
p3493
sg20
S'Digest of the file in type appropriate format'
p3494
stRp3495
ag3
(g4
g5
(dp3496
g17
S'ObjectType'
p3497
sg15
S'type'
p3498
sg20
S'Type of graph object'
p3499
stRp3500
ag3
(g4
g5
(dp3501
g17
S'Int'
p3502
sg15
S'refCount'
p3503
sg20
S'Reference count'
p3504
stRp3505
ag3
(g4
g5
(dp3506
g17
S'Date'
p3507
sg15
S'date'
p3508
sg20
S'Date of last update to the storage record'
p3509
stRp3510
atRp3511
sg15
S'StorageG'
p3512
stRp3513
ag3
(g4
g5
(dp3514
g984
g3
(g8
g9
(lp3515
g3
(g4
g5
(dp3516
g17
S'Domain'
p3517
sg15
S'client'
p3518
sg20
S'Client the stash refers to'
p3519
stRp3520
ag3
(g4
g5
(dp3521
g17
S'Domain'
p3522
sg15
S'stream'
p3523
sg20
S'Stream the stash refers to'
p3524
stRp3525
ag3
(g4
g5
(dp3526
g17
S'StashType'
p3527
sg15
S'type'
p3528
sg20
S'Stash type'
p3529
stRp3530
ag3
(g4
g5
(dp3531
g17
S'Int'
p3532
sg15
S'seq'
p3533
sg20
S'Sequence number'
p3534
stRp3535
ag3
(g4
g5
(dp3536
g17
S'Change'
p3537
sg15
S'change'
p3538
sg20
S'Stash change number'
p3539
stRp3540
atRp3541
sg15
S'Stash'
p3542
stRp3543
ag3
(g4
g5
(dp3544
g984
g3
(g8
g9
(lp3545
g3
(g4
g5
(dp3546
g17
S'Domain'
p3547
sg15
S'stream'
p3548
sg20
S'Stream name'
p3549
stRp3550
ag3
(g4
g5
(dp3551
g17
S'Domain'
p3552
sg15
S'parent'
p3553
sg20
S'Parent stream name'
p3554
stRp3555
ag3
(g4
g5
(dp3556
g17
S'Text'
p3557
sg15
S'title'
p3558
sg20
S'Stream title (alias for the stream name)'
p3559
stRp3560
ag3
(g4
g5
(dp3561
g17
S'StreamType'
p3562
sg15
S'type'
p3563
sg20
S'The type of stream'
p3564
stRp3565
ag3
(g4
g5
(dp3566
g17
S'Date'
p3567
sg15
S'preview'
p3568
sg20
S'Stream template modification time'
p3569
stRp3570
ag3
(g4
g5
(dp3571
g17
S'Change'
p3572
sg15
S'change'
p3573
sg20
S'Last submit to stream'
p3574
stRp3575
ag3
(g4
g5
(dp3576
g17
S'Change'
p3577
sg15
S'copyChange'
p3578
sg20
S'Parent change at last copy'
p3579
stRp3580
ag3
(g4
g5
(dp3581
g17
S'Change'
p3582
sg15
S'mergeChange'
p3583
sg20
S'Parent change at last merge'
p3584
stRp3585
ag3
(g4
g5
(dp3586
g17
S'Change'
p3587
sg15
S'highChange'
p3588
sg20
S'Highest change at last merge'
p3589
stRp3590
ag3
(g4
g5
(dp3591
g17
S'Int'
p3592
sg15
S'hash'
p3593
sg20
S'Hash value of dynamic branch'
p3594
stRp3595
ag3
(g4
g5
(dp3596
g17
S'StreamStatus'
p3597
sg15
S'status'
p3598
sg20
S'Flow status'
p3599
stRp3600
atRp3601
sg15
S'Stream'
p3602
stRp3603
ag3
(g4
g5
(dp3604
g984
g3
(g8
g9
(lp3605
g3
(g4
g5
(dp3606
g17
S'Key'
p3607
sg15
S'toKey'
p3608
sg20
S'Stream specification to which integration is being performed (target)'
p3609
stRp3610
ag3
(g4
g5
(dp3611
g17
S'Int'
p3612
sg15
S'attr'
p3613
sg20
S'The specification field id which is being integrated'
p3614
stRp3615
ag3
(g4
g5
(dp3616
g17
S'Key'
p3617
sg15
S'fromKey'
p3618
sg20
S'Stream specification from which integration is being performed (source)'
p3619
stRp3620
ag3
(g4
g5
(dp3621
g17
S'Change'
p3622
sg15
S'fromChange'
p3623
sg20
S'The ending changelist number of the fromKey'
p3624
stRp3625
ag3
(g4
g5
(dp3626
g17
S'Key'
p3627
sg15
S'baseKey'
p3628
sg20
S'The base stream specification from which the integration is being performed (source)'
p3629
stRp3630
ag3
(g4
g5
(dp3631
g17
S'Change'
p3632
sg15
S'baseChange'
p3633
sg20
S'The base changelist number of the baseKey'
p3634
stRp3635
ag3
(g4
g5
(dp3636
g17
S'IntegHow'
p3637
sg15
S'how'
p3638
sg20
S'Integration method: variations on merge/branch/copy/ignore/delete'
p3639
stRp3640
ag3
(g4
g5
(dp3641
g17
S'Change'
p3642
sg15
S'change'
p3643
sg20
S'End changelist number of the toKey into which integration was performed'
p3644
stRp3645
atRp3646
sg15
S'StreamSpecInteged'
p3647
stRp3648
ag3
(g4
g5
(dp3649
g984
g3
(g8
g9
(lp3650
g3
(g4
g5
(dp3651
g17
S'Key'
p3652
sg15
S'id'
p3653
sg20
S'Server name'
p3654
stRp3655
ag3
(g4
g5
(dp3656
g17
S'SvrViewType'
p3657
sg15
S'type'
p3658
sg20
S'View type'
p3659
stRp3660
ag3
(g4
g5
(dp3661
g17
S'Int'
p3662
sg15
S'seq'
p3663
sg20
S'Sequence (line) number'
p3664
stRp3665
ag3
(g4
g5
(dp3666
g17
S'MapFlag'
p3667
sg15
S'mapFlag'
p3668
sg20
S'Type of mapping'
p3669
stRp3670
ag3
(g4
g5
(dp3671
g17
S'Mapping'
p3672
sg15
S'viewFile'
p3673
sg20
S'View file'
p3674
stRp3675
atRp3676
sg15
S'SvrView'
p3677
stRp3678
ag3
(g4
g5
(dp3679
g984
g3
(g8
g9
(lp3680
g3
(g4
g5
(dp3681
g17
S'Key'
p3682
sg15
S'repo'
p3683
sg20
S'Repository name'
p3684
stRp3685
ag3
(g4
g5
(dp3686
g17
S'Key'
p3687
sg15
S'path'
p3688
sg20
S'Path at which the submodule is linked'
p3689
stRp3690
ag3
(g4
g5
(dp3691
g17
S'Key'
p3692
sg15
S'subrepo'
p3693
sg20
S'Submodule repository name'
p3694
stRp3695
atRp3696
sg15
S'Submodule'
p3697
stRp3698
ag3
(g4
g5
(dp3699
g984
g3
(g8
g9
(lp3700
g3
(g4
g5
(dp3701
g17
S'Domain'
p3702
sg15
S'name'
p3703
sg20
S'Stream name'
p3704
stRp3705
ag3
(g4
g5
(dp3706
g17
S'Change'
p3707
sg15
S'change'
p3708
sg20
S'Versioned at change'
p3709
stRp3710
ag3
(g4
g5
(dp3711
g17
S'Int'
p3712
sg15
S'seq'
p3713
sg20
S'Sequence (line) number'
p3714
stRp3715
ag3
(g4
g5
(dp3716
g17
S'Domain'
p3717
sg15
S'parent'
p3718
sg20
S'Parent stream name'
p3719
stRp3720
ag3
(g4
g5
(dp3721
g17
S'StreamType'
p3722
sg15
S'type'
p3723
sg20
S'Type of stream'
p3724
stRp3725
ag3
(g4
g5
(dp3726
g17
S'StreamPathType'
p3727
sg15
S'path'
p3728
sg20
S'Stream path type'
p3729
stRp3730
ag3
(g4
g5
(dp3731
g17
S'Mapping'
p3732
sg15
S'viewFile'
p3733
sg20
S'View file (left hand side of path)'
p3734
stRp3735
ag3
(g4
g5
(dp3736
g17
S'Mapping'
p3737
sg15
S'depotFile'
p3738
sg20
S'Depot file (right hand side of path)'
p3739
stRp3740
ag3
(g4
g5
(dp3741
g17
S'Value'
p3742
sg15
S'changeMap'
p3743
sg20
S"Stream 'import' path changelist specifier. The changelist\n\t\t\tlimits in effect for a given client are displayed in a\n\t    \tread-only client spec field called 'ChangeView'"
p3744
stRp3745
atRp3746
sg15
S'Template'
p3747
stRp3748
ag3
(g4
g5
(dp3749
g984
g3
(g8
g9
(lp3750
g3
(g4
g5
(dp3751
g17
S'Change'
p3752
sg15
S'shelf'
p3753
sg20
S'Shelf changelist number'
p3754
stRp3755
ag3
(g4
g5
(dp3756
g17
S'Domain'
p3757
sg15
S'name'
p3758
sg20
S'Stream name'
p3759
stRp3760
ag3
(g4
g5
(dp3761
g17
S'Int'
p3762
sg15
S'seq'
p3763
sg20
S'Sequence (line) number'
p3764
stRp3765
ag3
(g4
g5
(dp3766
g17
S'Change'
p3767
sg15
S'change'
p3768
sg20
S'Versioned at change'
p3769
stRp3770
ag3
(g4
g5
(dp3771
g17
S'Domain'
p3772
sg15
S'parent'
p3773
sg20
S'Parent stream name'
p3774
stRp3775
ag3
(g4
g5
(dp3776
g17
S'StreamType'
p3777
sg15
S'type'
p3778
sg20
S'Type of stream'
p3779
stRp3780
ag3
(g4
g5
(dp3781
g17
S'StreamPathType'
p3782
sg15
S'path'
p3783
sg20
S'Stream path type'
p3784
stRp3785
ag3
(g4
g5
(dp3786
g17
S'Mapping'
p3787
sg15
S'viewFile'
p3788
sg20
S'View file (left hand side of path)'
p3789
stRp3790
ag3
(g4
g5
(dp3791
g17
S'Mapping'
p3792
sg15
S'depotFile'
p3793
sg20
S'Depot file (right hand side of path)'
p3794
stRp3795
ag3
(g4
g5
(dp3796
g17
S'Value'
p3797
sg15
S'changeMap'
p3798
sg20
S"Stream 'import' path changelist specifier. The changelist\n\t\t\tlimits in effect for a given client are displayed in a\n\t    \tread-only client spec field called 'ChangeView'"
p3799
stRp3800
ag3
(g4
g5
(dp3801
g17
S'Change'
p3802
sg15
S'changeAtOpen'
p3803
sg20
S'Base change at time of opening'
p3804
stRp3805
ag3
(g4
g5
(dp3806
g17
S'User'
p3807
sg15
S'user'
p3808
sg20
S'The user that created the change'
p3809
stRp3810
ag3
(g4
g5
(dp3811
g17
S'Action'
p3812
sg15
S'action'
p3813
sg20
S'The action that created the change'
p3814
stRp3815
atRp3816
sg15
S'TemplateSx'
p3817
stRp3818
ag3
(g4
g5
(dp3819
g984
g3
(g8
g9
(lp3820
g3
(g4
g5
(dp3821
g17
S'Domain'
p3822
sg15
S'client'
p3823
sg20
S'Stream client'
p3824
stRp3825
ag3
(g4
g5
(dp3826
g17
S'Domain'
p3827
sg15
S'name'
p3828
sg20
S'Stream name'
p3829
stRp3830
ag3
(g4
g5
(dp3831
g17
S'Int'
p3832
sg15
S'seq'
p3833
sg20
S'Sequence (line) number'
p3834
stRp3835
ag3
(g4
g5
(dp3836
g17
S'Change'
p3837
sg15
S'change'
p3838
sg20
S'Versioned at change'
p3839
stRp3840
ag3
(g4
g5
(dp3841
g17
S'Domain'
p3842
sg15
S'parent'
p3843
sg20
S'Parent stream name'
p3844
stRp3845
ag3
(g4
g5
(dp3846
g17
S'StreamType'
p3847
sg15
S'type'
p3848
sg20
S'Type of stream'
p3849
stRp3850
ag3
(g4
g5
(dp3851
g17
S'StreamPathType'
p3852
sg15
S'path'
p3853
sg20
S'Stream path type'
p3854
stRp3855
ag3
(g4
g5
(dp3856
g17
S'Mapping'
p3857
sg15
S'viewFile'
p3858
sg20
S'View file (left hand side of path)'
p3859
stRp3860
ag3
(g4
g5
(dp3861
g17
S'Mapping'
p3862
sg15
S'depotFile'
p3863
sg20
S'Depot file (right hand side of path)'
p3864
stRp3865
ag3
(g4
g5
(dp3866
g17
S'Value'
p3867
sg15
S'changeMap'
p3868
sg20
S"Stream 'import' path changelist specifier. The changelist\n\t\t\tlimits in effect for a given client are displayed in a\n\t    \tread-only client spec field called 'ChangeView'"
p3869
stRp3870
ag3
(g4
g5
(dp3871
g17
S'Change'
p3872
sg15
S'changeAtOpen'
p3873
sg20
S'Base change at time of opening'
p3874
stRp3875
ag3
(g4
g5
(dp3876
g17
S'User'
p3877
sg15
S'user'
p3878
sg20
S'The user that created the change'
p3879
stRp3880
ag3
(g4
g5
(dp3881
g17
S'Action'
p3882
sg15
S'action'
p3883
sg20
S'The action that created the change'
p3884
stRp3885
atRp3886
sg15
S'TemplateWx'
p3887
stRp3888
ag3
(g4
g5
(dp3889
g984
g3
(g8
g9
(lp3890
g3
(g4
g5
(dp3891
g17
S'User'
p3892
sg15
S'user'
p3893
sg20
S'User the ticket was issued for'
p3894
stRp3895
ag3
(g4
g5
(dp3896
g17
S'Key'
p3897
sg15
S'host'
p3898
sg20
S'Host the ticket was issued for'
p3899
stRp3900
ag3
(g4
g5
(dp3901
g17
S'Password'
p3902
sg15
S'ticket'
p3903
sg20
S"The 'p4 login' ticket for this user"
p3904
stRp3905
ag3
(g4
g5
(dp3906
g17
S'2FAState'
p3907
sg15
S'state'
p3908
sg20
S'The state of 2 Factor Authentication'
p3909
stRp3910
ag3
(g4
g5
(dp3911
g17
S'String'
p3912
sg15
S'token'
p3913
sg20
S'The 2 Factor Authentication token'
p3914
stRp3915
ag3
(g4
g5
(dp3916
g17
S'Date'
p3917
sg15
S'updateDate'
p3918
sg20
S'The date of the last ticket update'
p3919
stRp3920
atRp3921
sg15
S'Ticket'
p3922
stRp3923
ag3
(g4
g5
(dp3924
g984
g3
(g8
g9
(lp3925
g3
(g4
g5
(dp3926
g17
S'Key'
p3927
sg15
S'key'
p3928
sg20
S'The file name and revision'
p3929
stRp3930
ag3
(g4
g5
(dp3931
g17
S'Octet String'
p3932
sg15
S'value'
p3933
sg20
S'The (encoded) file content'
p3934
stRp3935
atRp3936
sg15
S'TinyDb'
p3937
stRp3938
ag3
(g4
g5
(dp3939
g984
g3
(g8
g9
(lp3940
g3
(g4
g5
(dp3941
g17
S'Int'
p3942
sg15
S'traitLot'
p3943
sg20
S'Indicates a specific collection of traits (referred to \n\t\t    externally as "attributes".)'
p3944
stRp3945
ag3
(g4
g5
(dp3946
g17
S'Key'
p3947
sg15
S'name'
p3948
sg20
S'Trait (attribute) name'
p3949
stRp3950
ag3
(g4
g5
(dp3951
g17
S'TraitType'
p3952
sg15
S'type'
p3953
sg20
S'Type of trait'
p3954
stRp3955
ag3
(g4
g5
(dp3956
g17
S'Octet String'
p3957
sg15
S'value'
p3958
sg20
S'The value'
p3959
stRp3960
atRp3961
sg15
S'Trait'
p3962
stRp3963
ag3
(g4
g5
(dp3964
g984
g3
(g8
g9
(lp3965
g3
(g4
g5
(dp3966
g17
S'Int'
p3967
sg15
S'seq'
p3968
sg20
S'Sequence number: for ordering the trigger list'
p3969
stRp3970
ag3
(g4
g5
(dp3971
g17
S'Key'
p3972
sg15
S'name'
p3973
sg20
S'Name of the trigger'
p3974
stRp3975
ag3
(g4
g5
(dp3976
g17
S'MapFlag'
p3977
sg15
S'mapFlag'
p3978
sg20
S'Type of mapping: specifies whether the trigger applies \n\t\t    to the files or not.'
p3979
stRp3980
ag3
(g4
g5
(dp3981
g17
S'Mapping'
p3982
sg15
S'depotFile'
p3983
sg20
S'The files to apply the trigger to'
p3984
stRp3985
ag3
(g4
g5
(dp3986
g17
S'File'
p3987
sg15
S'triggerDepotFile'
p3988
sg20
S'Depot path to the trigger'
p3989
stRp3990
ag3
(g4
g5
(dp3991
g17
S'Trigger'
p3992
sg15
S'trigger'
p3993
sg20
S'Type of trigger'
p3994
stRp3995
ag3
(g4
g5
(dp3996
g17
S'Text'
p3997
sg15
S'action'
p3998
sg20
S'Command to execute when trigger runs'
p3999
stRp4000
atRp4001
sg15
S'Trigger'
p4002
stRp4003
ag3
(g4
g5
(dp4004
g984
g3
(g8
g9
(lp4005
g3
(g4
g5
(dp4006
g17
S'Int'
p4007
sg15
S'seq'
p4008
sg20
S'Sequence'
p4009
stRp4010
ag3
(g4
g5
(dp4011
g17
S'Text'
p4012
sg15
S'name'
p4013
sg20
S'name of upgrade'
p4014
stRp4015
ag3
(g4
g5
(dp4016
g17
S'UpgradeState'
p4017
sg15
S'state'
p4018
sg20
S'current state'
p4019
stRp4020
ag3
(g4
g5
(dp4021
g17
S'Date'
p4022
sg15
S'startdate'
p4023
sg20
S'upgrade started'
p4024
stRp4025
ag3
(g4
g5
(dp4026
g17
S'Date'
p4027
sg15
S'enddate'
p4028
sg20
S'upgrade ended'
p4029
stRp4030
ag3
(g4
g5
(dp4031
g17
S'Text'
p4032
sg15
S'info'
p4033
sg20
S'optional information specific to the upgrade step'
p4034
stRp4035
atRp4036
sg15
S'Upgrades'
p4037
stRp4038
ag3
(g4
g5
(dp4039
g984
g3
(g8
g9
(lp4040
g3
(g4
g5
(dp4041
g17
S'User'
p4042
sg15
S'user'
p4043
sg20
S'The username'
p4044
stRp4045
ag3
(g4
g5
(dp4046
g17
S'Text'
p4047
sg15
S'email'
p4048
sg20
S"The user's email address"
p4049
stRp4050
ag3
(g4
g5
(dp4051
g17
S'Text'
p4052
sg15
S'jobView'
p4053
sg20
S"The user's job view"
p4054
stRp4055
ag3
(g4
g5
(dp4056
g17
S'Date'
p4057
sg15
S'updateDate'
p4058
sg20
S'The date/time the user record was last updated'
p4059
stRp4060
ag3
(g4
g5
(dp4061
g17
S'Date'
p4062
sg15
S'accessDate'
p4063
sg20
S'The date/time the user record was last used'
p4064
stRp4065
ag3
(g4
g5
(dp4066
g17
S'Text'
p4067
sg15
S'fullName'
p4068
sg20
S"The user's full name"
p4069
stRp4070
ag3
(g4
g5
(dp4071
g17
S'Password'
p4072
sg15
S'password'
p4073
sg20
S'The MD5 hash of the users (encrypted) password'
p4074
stRp4075
ag3
(g4
g5
(dp4076
g17
S'Strength'
p4077
sg15
S'strength'
p4078
sg20
S"Measure of the strength of the user's password"
p4079
stRp4080
ag3
(g4
g5
(dp4081
g17
S'Password'
p4082
sg15
S'ticket'
p4083
sg20
S"'p4 login' ticket for this user"
p4084
stRp4085
ag3
(g4
g5
(dp4086
g17
S'Date'
p4087
sg15
S'endDate'
p4088
sg20
S"Date/time the user's ticket expires"
p4089
stRp4090
ag3
(g4
g5
(dp4091
g17
S'UserLevel'
p4092
sg15
S'type'
p4093
sg20
S'Type of user'
p4094
stRp4095
ag3
(g4
g5
(dp4096
g17
S'Date'
p4097
sg15
S'passDate'
p4098
sg20
S'Date password was last changed'
p4099
stRp4100
ag3
(g4
g5
(dp4101
g17
S'Date'
p4102
sg15
S'passExpire'
p4103
sg20
S'Date of password expiration'
p4104
stRp4105
ag3
(g4
g5
(dp4106
g17
S'Date'
p4107
sg15
S'attempts'
p4108
sg20
S'Failed login attempts'
p4109
stRp4110
ag3
(g4
g5
(dp4111
g17
S'UserAuthType'
p4112
sg15
S'auth'
p4113
sg20
S'Authentication method (AuthMethod) for the user'
p4114
stRp4115
atRp4116
sg15
S'User'
p4117
stRp4118
ag3
(g4
g5
(dp4119
g984
g3
(g8
g9
(lp4120
g3
(g4
g5
(dp4121
g17
S'Domain'
p4122
sg15
S'name'
p4123
sg20
S'Domain name to which this view applies'
p4124
stRp4125
ag3
(g4
g5
(dp4126
g17
S'Int'
p4127
sg15
S'seq'
p4128
sg20
S'Sequence number: for ordering multi-line views'
p4129
stRp4130
ag3
(g4
g5
(dp4131
g17
S'MapFlag'
p4132
sg15
S'mapFlag'
p4133
sg20
S'Type of mapping'
p4134
stRp4135
ag3
(g4
g5
(dp4136
g17
S'Mapping'
p4137
sg15
S'viewFile'
p4138
sg20
S"The right-hand-side of the view. For clients, this is\n\t\t    the client-side, for labels it's the generated label \n\t\t    view. For branches, it's the target side of the branch\n\t\t    view."
p4139
stRp4140
ag3
(g4
g5
(dp4141
g17
S'Mapping'
p4142
sg15
S'depotFile'
p4143
sg20
S'The left-hand-side of the view - a mapping to file(s)\n\t\t    in the depot.'
p4144
stRp4145
atRp4146
sg15
S'View'
p4147
stRp4148
ag3
(g4
g5
(dp4149
g984
g3
(g8
g9
(lp4150
g3
(g4
g5
(dp4151
g17
S'File'
p4152
sg15
S'clientFile'
p4153
sg20
S'File on the client'
p4154
stRp4155
ag3
(g4
g5
(dp4156
g17
S'File'
p4157
sg15
S'depotFile'
p4158
sg20
S'File in the depot'
p4159
stRp4160
ag3
(g4
g5
(dp4161
g17
S'Domain'
p4162
sg15
S'client'
p4163
sg20
S'The client the file is opened on'
p4164
stRp4165
ag3
(g4
g5
(dp4166
g17
S'User'
p4167
sg15
S'user'
p4168
sg20
S'The user who has the file opened'
p4169
stRp4170
ag3
(g4
g5
(dp4171
g17
S'Rev'
p4172
sg15
S'haveRev'
p4173
sg20
S"Revision presently in user's client workspace"
p4174
stRp4175
ag3
(g4
g5
(dp4176
g17
S'Rev'
p4177
sg15
S'workRev'
p4178
sg20
S'Working revision; normally identical to the haveRev'
p4179
stRp4180
ag3
(g4
g5
(dp4181
g17
S'Int'
p4182
sg15
S'isVirtual'
p4183
sg20
S'Flag: if 1, file was opened with "p4 integ -v".'
p4184
stRp4185
ag3
(g4
g5
(dp4186
g17
S'FileType'
p4187
sg15
S'type'
p4188
sg20
S'File type'
p4189
stRp4190
ag3
(g4
g5
(dp4191
g17
S'Action'
p4192
sg15
S'action'
p4193
sg20
S"What the user's doing with the file"
p4194
stRp4195
ag3
(g4
g5
(dp4196
g17
S'Change'
p4197
sg15
S'change'
p4198
sg20
S'Associated changelist, or zero for the default changelist.'
p4199
stRp4200
ag3
(g4
g5
(dp4201
g17
S'Date'
p4202
sg15
S'modTime'
p4203
sg20
S"Modification timestamp on the file in the user's workspace."
p4204
stRp4205
ag3
(g4
g5
(dp4206
g17
S'LockedType'
p4207
sg15
S'isLocked'
p4208
sg20
S'Bitmask of locked flags'
p4209
stRp4210
ag3
(g4
g5
(dp4211
g17
S'Digest'
p4212
sg15
S'digest'
p4213
sg20
S'MD5 digest of working file.'
p4214
stRp4215
ag3
(g4
g5
(dp4216
g17
S'FileSize'
p4217
sg15
S'size'
p4218
sg20
S'File size'
p4219
stRp4220
ag3
(g4
g5
(dp4221
g17
S'TraitLot'
p4222
sg15
S'traitLot'
p4223
sg20
S'Group of traits associated with file revision.'
p4224
stRp4225
ag3
(g4
g5
(dp4226
g17
S'TamperCheck'
p4227
sg15
S'tampered'
p4228
sg20
S'Flag indicating the tamper-state of the file in the\n\t\t    workspace.'
p4229
stRp4230
ag3
(g4
g5
(dp4231
g17
S'FileType'
p4232
sg15
S'clientType'
p4233
sg20
S'Type of the file in the client workspace.'
p4234
stRp4235
ag3
(g4
g5
(dp4236
g17
S'File'
p4237
sg15
S'movedFile'
p4238
sg20
S'Moved from filename'
p4239
stRp4240
ag3
(g4
g5
(dp4241
g17
S'WorkStatus'
p4242
sg15
S'status'
p4243
sg20
S'Working status'
p4244
stRp4245
atRp4246
sg15
S'Working'
p4247
stRp4248
ag3
(g4
g5
(dp4249
g984
g3
(g8
g9
(lp4250
g3
(g4
g5
(dp4251
g17
S'File'
p4252
sg15
S'clientFile'
p4253
sg20
S'File on the client'
p4254
stRp4255
ag3
(g4
g5
(dp4256
g17
S'File'
p4257
sg15
S'depotFile'
p4258
sg20
S'File in the depot'
p4259
stRp4260
ag3
(g4
g5
(dp4261
g17
S'Domain'
p4262
sg15
S'client'
p4263
sg20
S'The client on which the file is opened'
p4264
stRp4265
ag3
(g4
g5
(dp4266
g17
S'User'
p4267
sg15
S'user'
p4268
sg20
S'The user who has the file opened'
p4269
stRp4270
ag3
(g4
g5
(dp4271
g17
S'Rev'
p4272
sg15
S'haveRev'
p4273
sg20
S"Revision presently in user's client workspace"
p4274
stRp4275
ag3
(g4
g5
(dp4276
g17
S'Rev'
p4277
sg15
S'workRev'
p4278
sg20
S'Working revision; normally identical to the haveRev'
p4279
stRp4280
ag3
(g4
g5
(dp4281
g17
S'Int'
p4282
sg15
S'isVirtual'
p4283
sg20
S'Flag: if 1, file was opened with "p4 integ -v".'
p4284
stRp4285
ag3
(g4
g5
(dp4286
g17
S'FileType'
p4287
sg15
S'type'
p4288
sg20
S'File type'
p4289
stRp4290
ag3
(g4
g5
(dp4291
g17
S'Action'
p4292
sg15
S'action'
p4293
sg20
S"What the user's doing with the file"
p4294
stRp4295
ag3
(g4
g5
(dp4296
g17
S'Change'
p4297
sg15
S'change'
p4298
sg20
S'Associated changelist, or zero for the default changelist.'
p4299
stRp4300
ag3
(g4
g5
(dp4301
g17
S'Date'
p4302
sg15
S'modTime'
p4303
sg20
S"Modification timestamp on the file in the user's workspace."
p4304
stRp4305
ag3
(g4
g5
(dp4306
g17
S'LockedType'
p4307
sg15
S'isLocked'
p4308
sg20
S'Bitmask of locked flags'
p4309
stRp4310
ag3
(g4
g5
(dp4311
g17
S'Digest'
p4312
sg15
S'digest'
p4313
sg20
S'MD5 digest of working file.'
p4314
stRp4315
ag3
(g4
g5
(dp4316
g17
S'FileSize'
p4317
sg15
S'size'
p4318
sg20
S'File size'
p4319
stRp4320
ag3
(g4
g5
(dp4321
g17
S'TraitLot'
p4322
sg15
S'traitLot'
p4323
sg20
S'Group of traits associated with file revision.'
p4324
stRp4325
ag3
(g4
g5
(dp4326
g17
S'TamperCheck'
p4327
sg15
S'tampered'
p4328
sg20
S'Flag indicating the tamper-state of the file in the\n\t\t    workspace.'
p4329
stRp4330
ag3
(g4
g5
(dp4331
g17
S'FileType'
p4332
sg15
S'clientType'
p4333
sg20
S'Type of the file in the client workspace.'
p4334
stRp4335
ag3
(g4
g5
(dp4336
g17
S'File'
p4337
sg15
S'movedFile'
p4338
sg20
S'Moved from filename'
p4339
stRp4340
ag3
(g4
g5
(dp4341
g17
S'WorkStatus'
p4342
sg15
S'status'
p4343
sg20
S'Working status'
p4344
stRp4345
ag3
(g4
g5
(dp4346
g17
S'SHA1'
p4347
sg15
S'blobSha'
p4348
sg20
S'Blob SHA'
p4349
stRp4350
ag3
(g4
g5
(dp4351
g17
S'Key'
p4352
sg15
S'repo'
p4353
sg20
S'Repository name'
p4354
stRp4355
atRp4356
sg15
S'WorkingG'
p4357
stRp4358
atRp4359
stRp4360
sS'upgrades'
p4361
g3
(g4
g5
(dp4362
S'upgrade'
p4363
g3
(g8
g9
(lp4364
g3
(g4
g5
(dp4365
g735
S'2001.1'
p4366
sg737
S'1'
sg20
S'Split db.integ into db.integed and db.resolve'
p4367
stRp4368
ag3
(g4
g5
(dp4369
g735
S'2001.1'
p4370
sg737
S'2'
sg20
S'Split db.have into db.have and db.label'
p4371
stRp4372
ag3
(g4
g5
(dp4373
g735
S'2002.1'
p4374
sg737
S'3'
sg20
S'Split db.change into db.change and db.changex'
p4375
stRp4376
ag3
(g4
g5
(dp4377
g735
S'2002.2'
p4378
sg737
S'4'
sg20
S'Upgrade tempobj filetype in db.rev'
p4379
stRp4380
ag3
(g4
g5
(dp4381
g735
S'2002.2'
p4382
sg737
S'5'
sg20
S'Upgrade tempobj filetype in db.working'
p4383
stRp4384
ag3
(g4
g5
(dp4385
g735
S'2003.1'
p4386
sg737
S'6'
sg20
S'JnlInitialize default depot'
p4387
stRp4388
ag3
(g4
g5
(dp4389
g735
S'2003.2'
p4390
sg737
S'7'
sg20
S'Upgrade db.user'
p4391
stRp4392
ag3
(g4
g5
(dp4393
g735
S'2005.1'
p4394
sg737
S'8'
sg20
S'Build db.revhx (headrev) table'
p4395
stRp4396
ag3
(g4
g5
(dp4397
g735
S'2005.1'
p4398
sg737
S'9'
sg20
S'Rebuild db.locks from db.working'
p4399
stRp4400
ag3
(g4
g5
(dp4401
g735
S'2005.1'
p4402
sg737
S'10'
p4403
sg308
S'Removed in 2006.2'
p4404
sg20
S'Build lazy-copy index (db.archive)'
p4405
stRp4406
ag3
(g4
g5
(dp4407
g735
S'2005.2'
p4408
sg737
S'11'
p4409
sg20
S'Build db.revdx (delrev) table'
p4410
stRp4411
ag3
(g4
g5
(dp4412
g735
S'2005.2'
p4413
sg737
S'12'
p4414
sg308
S'Moved to 16 in 2007.3'
p4415
sg20
S'Build haveMap from db.have/db.working'
p4416
stRp4417
ag3
(g4
g5
(dp4418
g735
S'2005.2'
p4419
sg737
S'13'
p4420
sg20
S'Move spec depot entries into db.revsx'
p4421
stRp4422
ag3
(g4
g5
(dp4423
g735
S'2006.2'
p4424
sg737
S'14'
p4425
sg308
S'Moved to 17 in 2007.3'
p4426
sg20
S'Build db.archmap (lazy-copy map) table'
p4427
stRp4428
ag3
(g4
g5
(dp4429
g735
S'2006.2'
p4430
sg737
S'15'
p4431
sg308
S'Moved to 18 in 2007.3'
p4432
sg20
S'Remove (obsolete) db.archive table'
p4433
stRp4434
ag3
(g4
g5
(dp4435
g735
S'2007.3'
p4436
sg737
S'16'
p4437
sg308
S'Rewritten in 2007.3'
p4438
sg20
S'Build/Rebuild haveMap from db.have/db.working'
p4439
stRp4440
ag3
(g4
g5
(dp4441
g735
S'2007.3'
p4442
sg737
S'17'
p4443
sg308
S'Removed in 2019.1'
p4444
sg20
S'Build/Rebuild db.archmap (lazy-copy map) table'
p4445
stRp4446
ag3
(g4
g5
(dp4447
g735
S'2007.3'
p4448
sg737
S'18'
p4449
sg308
S'Moved from 15 in 2007.3'
p4450
sg20
S'Remove (obsolete) db.archive table'
p4451
stRp4452
ag3
(g4
g5
(dp4453
g735
S'2008.1'
p4454
sg737
S'19'
p4455
sg20
S'Build db.change common path'
p4456
stRp4457
ag3
(g4
g5
(dp4458
g735
S'2009.2'
p4459
sg737
S'20'
p4460
sg20
S'Move db.boddate/db.ixdate into db.bodtext/db.ixtext'
p4461
stRp4462
ag3
(g4
g5
(dp4463
g735
S'2009.2'
p4464
sg737
S'21'
p4465
sg20
S'Remove db.boddate/db.ixdate'
p4466
stRp4467
ag3
(g4
g5
(dp4468
g735
S'2010.2'
p4469
sg737
S'22'
p4470
sg20
S'Move system counters into db.config'
p4471
stRp4472
ag3
(g4
g5
(dp4473
g735
S'2011.1'
p4474
sg737
S'23'
p4475
sg20
S'Upgrade tiny.db'
p4476
stRp4477
ag3
(g4
g5
(dp4478
g735
S'2015.2'
p4479
sg737
S'24'
p4480
sg20
S'Move LDAP specs into db.ldap'
p4481
stRp4482
ag3
(g4
g5
(dp4483
g735
S'2016.1'
p4484
sg737
S'25'
p4485
sg20
S'Create db.templatesx and db.templatewx'
p4486
stRp4487
ag3
(g4
g5
(dp4488
g735
S'2016.2'
p4489
sg737
S'26'
p4490
sg20
S'JnlInitialize graph depot'
p4491
stRp4492
ag3
(g4
g5
(dp4493
g735
S'2017.1'
p4494
sg737
S'27'
p4495
sg20
S'Rename repo specifications, build owner graph permissions, remove db.repoview'
p4496
stRp4497
ag3
(g4
g5
(dp4498
g735
S'2017.2'
p4499
sg737
S'28'
p4500
sg20
S'No upgrades - upgrade counter value increment only'
p4501
stRp4502
ag3
(g4
g5
(dp4503
g735
S'2018.1'
p4504
sg737
S'29'
p4505
sg308
S'remove db.graphindex'
p4506
sg20
S'Remove existing db.graphindex'
p4507
stRp4508
ag3
(g4
g5
(dp4509
g735
S'2018.2'
p4510
sg737
S'30'
p4511
sg20
S'JnlInitialize Extensions depot and server.extensions.dir'
p4512
stRp4513
ag3
(g4
g5
(dp4514
g735
S'2018.2'
p4515
sg737
S'31'
p4516
sg20
S'Normalize a field in the triggers table'
p4517
stRp4518
ag3
(g4
g5
(dp4519
g735
S'2019.1'
p4520
sg737
S'32'
p4521
sg20
S'Build db.storage from db.rev, db.revsh and db.revtx, remove db.archmap'
p4522
stRp4523
ag3
(g4
g5
(dp4524
g735
S'2019.1'
p4525
sg737
S'33'
p4526
sg20
S'Add default namespace to Extension configurations'
p4527
stRp4528
ag3
(g4
g5
(dp4529
g735
S'2019.2'
p4530
sg737
S'34'
p4531
sg20
S'Upgrade git-connector server specs'
p4532
stRp4533
ag3
(g4
g5
(dp4534
g735
S'2019.2'
p4535
sg737
S'35'
p4536
sg20
S'Correct configurationVersion server names'
p4537
stRp4538
ag3
(g4
g5
(dp4539
g735
S'2020.1'
p4540
sg737
S'36'
p4541
sg20
S'perform upgrade checks for 2020.1'
p4542
stRp4543
atRp4544
stRp4545
sS'datatypes'
p4546
g3
(g4
g5
(dp4547
S'datatype'
p4548
g3
(g8
g9
(lp4549
g3
(g4
g5
(dp4550
S'values'
p4551
g3
(g8
g9
(lp4552
g3
(g4
g5
(dp4553
S'mask'
p4554
S'Scheme Flags'
p4555
sS'value'
p4556
S'0x0001'
p4557
sg20
S'otp-generated; one-time password generated'
p4558
stRp4559
ag3
(g4
g5
(dp4560
g4554
S'Scheme Flags'
p4561
sg4556
S'0x0002'
p4562
sg20
S'otp-requested; one-time password requested'
p4563
stRp4564
ag3
(g4
g5
(dp4565
g4554
S'Scheme Flags'
p4566
sg4556
S'0x0003'
p4567
sg20
S'challenge; challenge/response'
p4568
stRp4569
ag3
(g4
g5
(dp4570
g4554
S'Scheme Flags'
p4571
sg4556
S'0x0004'
p4572
sg20
S'external; 3rd-party prompting'
p4573
stRp4574
ag3
(g4
g5
(dp4575
g4554
S'Status Flags'
p4576
sg4556
S'0x0100'
p4577
sg20
S'authenticated; host is authenticated'
p4578
stRp4579
ag3
(g4
g5
(dp4580
g4554
S'Status Flags'
p4581
sg4556
S'0x0200'
p4582
sg20
S'persisted; 2FA persists for this host'
p4583
stRp4584
ag3
(g4
g5
(dp4585
g4554
S'Status Flags'
p4586
sg4556
S'0x0400'
p4587
sg20
S'forced; superuser skipped the checks'
p4588
stRp4589
ag3
(g4
g5
(dp4590
g4554
S'Status Flags'
p4591
sg4556
S'0x0800'
p4592
sg20
S'skipped; 2FA was not required'
p4593
stRp4594
ag3
(g4
g5
(dp4595
g4554
S'Status Flags'
p4596
sg4556
S'0x1000'
p4597
sg20
S'waiting; waiting on 2FA service'
p4598
stRp4599
ag3
(g4
g5
(dp4600
g4554
S'Status Flags'
p4601
sg4556
S'0x2000'
p4602
sg20
S'token-requested; OTP requested from 2FA service'
p4603
stRp4604
ag3
(g4
g5
(dp4605
g4554
S'Status Flags'
p4606
sg4556
S'0x4000'
p4607
sg20
S'required; 2FA required'
p4608
stRp4609
ag3
(g4
g5
(dp4610
g4554
S'Status Flags'
p4611
sg4556
S'0x8000'
p4612
sg20
S'rejected; external 2FA was rejected'
p4613
stRp4614
atRp4615
sg15
S'2FAState'
p4616
sg4554
g3
(g8
g9
(lp4617
g3
(g4
g5
(dp4618
g15
S'Scheme Flags'
p4619
sg4556
S'0xFF'
p4620
sg20
S'Bits used to store second factor authentication scheme'
p4621
stRp4622
ag3
(g4
g5
(dp4623
g15
S'Status Flags'
p4624
sg4556
S'None'
p4625
sg20
S'Bits used to store second factor authentication status'
p4626
stRp4627
atRp4628
sS'summary'
p4629
S'Second Factor Authentication State'
p4630
sg17
S'bitmask'
p4631
sg20
S'Second factor authentication scheme and status'
p4632
stRp4633
ag3
(g4
g5
(dp4634
g17
S'flag'
p4635
sg4629
S'Type of action'
p4636
sg4551
g3
(g8
g9
(lp4637
g3
(g4
g5
(dp4638
g4556
S'0'
sg20
S'add; user adds a file'
p4639
stRp4640
ag3
(g4
g5
(dp4641
g4556
S'1'
sg20
S'edit; user edits a file'
p4642
stRp4643
ag3
(g4
g5
(dp4644
g4556
S'2'
sg20
S'delete; user deletes a file'
p4645
stRp4646
ag3
(g4
g5
(dp4647
g4556
S'3'
sg20
S'branch; add via integration'
p4648
stRp4649
ag3
(g4
g5
(dp4650
g4556
S'4'
sg20
S'integ; edit via integration'
p4651
stRp4652
ag3
(g4
g5
(dp4653
g4556
S'5'
sg20
S'import; add via remote depot'
p4654
stRp4655
ag3
(g4
g5
(dp4656
g4556
S'6'
sg20
S'purge; purged revision, no longer available'
p4657
stRp4658
ag3
(g4
g5
(dp4659
g4556
S'7'
sg20
S'movefrom; move from another filename'
p4660
stRp4661
ag3
(g4
g5
(dp4662
g4556
S'8'
sg20
S'moveto; move to another filename'
p4663
stRp4664
ag3
(g4
g5
(dp4665
g4556
S'9'
sg20
S'archive; stored in archive depot'
p4666
stRp4667
atRp4668
sg15
S'Action'
p4669
sg20
S'Revisions are produced by user actions. The Action\n\t\ttype defines the available actions and their internal values.'
p4670
stRp4671
ag3
(g4
g5
(dp4672
g4629
S'A changelist number'
p4673
sg17
S'integer'
p4674
sg15
S'Change'
p4675
sg20
S'The number of a changelist. The number 0 represents the\n\t\tdefault pending changelist.'
p4676
stRp4677
ag3
(g4
g5
(dp4678
g4551
g3
(g8
g9
(lp4679
g3
(g4
g5
(dp4680
g4554
S'Change Status Flags'
p4681
sg4556
S'0x0001'
p4682
sg20
S'committed'
p4683
stRp4684
ag3
(g4
g5
(dp4685
g4554
S'Change Status Flags'
p4686
sg4556
S'0x0002'
p4687
sg20
S'shelved'
p4688
stRp4689
ag3
(g4
g5
(dp4690
g4554
S'Change Status Flags'
p4691
sg4556
S'0x0004'
p4692
sg20
S'restricted'
p4693
stRp4694
ag3
(g4
g5
(dp4695
g4554
S'Change Status Flags'
p4696
sg4556
S'0x0008'
p4697
sg20
S'hidden'
p4698
stRp4699
ag3
(g4
g5
(dp4700
g4554
S'Change Status Flags'
p4701
sg4556
S'0x0010'
p4702
sg20
S'elsewhere'
p4703
stRp4704
ag3
(g4
g5
(dp4705
g4554
S'Change Status Flags'
p4706
sg4556
S'0x0012'
p4707
sg20
S'promoted - elsewhere, shelved'
p4708
stRp4709
ag3
(g4
g5
(dp4710
g4554
S'Change Status Flags'
p4711
sg4556
S'0x0020'
p4712
sg20
S'unsubmitted'
p4713
stRp4714
ag3
(g4
g5
(dp4715
g4554
S'Change Status Flags'
p4716
sg4556
S'0x0040'
p4717
sg20
S'hasgraph'
p4718
stRp4719
atRp4720
sg15
S'ChangeStatus'
p4721
sg4554
g3
(g4
g5
(dp4722
g15
S'Change Status Flags'
p4723
sg4556
S'0x7F'
p4724
sg20
S'Bits used to store change status flags'
p4725
stRp4726
sg4629
S'The status of a change'
p4727
sg17
S'flag'
p4728
sg20
S'A bit mask representing the status of a change'
p4729
stRp4730
ag3
(g4
g5
(dp4731
g4629
S'A counter name'
p4732
sg17
S'string'
p4733
sg15
S'Counter'
p4734
sg20
S'A string representing the counter name. Counter names must \n\t\tcontain no spaces, contain no slashes, and be identifiers \n\t\t(cannot begin with a dash and cannot be all-numeric)'
p4735
stRp4736
ag3
(g4
g5
(dp4737
g4629
S'A unix-style date and time'
p4738
sg17
S'integer'
p4739
sg15
S'Date'
p4740
sg20
S'A date and time represented as the number of seconds since \n\t\tthe Epoch: 01 January 1970 00:00:00 UTC. This is the same \n\t\tconvention as that used on Unix platforms.'
p4741
stRp4742
ag3
(g4
g5
(dp4743
g17
S'flag'
p4744
sg4629
S'Type of Depot'
p4745
sg4551
g3
(g8
g9
(lp4746
g3
(g4
g5
(dp4747
g4556
S'0'
sg20
S'local depot'
p4748
stRp4749
ag3
(g4
g5
(dp4750
g4556
S'1'
sg20
S'remote depot'
p4751
stRp4752
ag3
(g4
g5
(dp4753
g4556
S'2'
sg20
S'spec depot'
p4754
stRp4755
ag3
(g4
g5
(dp4756
g4556
S'3'
sg20
S'stream depot'
p4757
stRp4758
ag3
(g4
g5
(dp4759
g4556
S'4'
sg20
S'archive depot'
p4760
stRp4761
ag3
(g4
g5
(dp4762
g4556
S'5'
sg20
S'unload depot'
p4763
stRp4764
ag3
(g4
g5
(dp4765
g4556
S'6'
sg20
S'tangent depot'
p4766
stRp4767
ag3
(g4
g5
(dp4768
g4556
S'7'
sg20
S'graph depot'
p4769
stRp4770
ag3
(g4
g5
(dp4771
g4556
S'8'
sg20
S'extension'
p4772
stRp4773
atRp4774
sg15
S'DepotType'
p4775
sg20
S'The type of a given depot'
p4776
stRp4777
ag3
(g4
g5
(dp4778
g4629
S'A short string value'
p4779
sg20
S'The first 31 characters of a Text string'
p4780
sg17
S'string'
p4781
sg15
S'DescShort'
p4782
sg252
S'Text'
p4783
stRp4784
ag3
(g4
g5
(dp4785
g4629
S'An MD5 digest'
p4786
sg17
S'string'
p4787
sg15
S'Digest'
p4788
sg20
S'A string containing an MD5 digest.'
p4789
stRp4790
ag3
(g4
g5
(dp4791
g4629
S'A domain name'
p4792
sg17
S'string'
p4793
sg15
S'Domain'
p4794
sg20
S'A string representing the name of a depot, label, client,\n\t\tbranch, typemap, or stream.'
p4795
stRp4796
ag3
(g4
g5
(dp4797
g4629
S'A string with optional wildcards'
p4798
sg17
S'string'
p4799
sg15
S'DomainWild'
p4800
sg20
S'A string that may contain wildcards - usually an IP address\n\t\tin the protections table.'
p4801
stRp4802
ag3
(g4
g5
(dp4803
g4551
g3
(g8
g9
(lp4804
g3
(g4
g5
(dp4805
g4554
S'Domain Flags'
p4806
sg4556
S'0x0001'
p4807
sg20
S'modtime'
p4808
stRp4809
ag3
(g4
g5
(dp4810
g4554
S'Domain Flags'
p4811
sg4556
S'0x0002'
p4812
sg20
S'clobber'
p4813
stRp4814
ag3
(g4
g5
(dp4815
g4554
S'Domain Flags'
p4816
sg4556
S'0x0004'
p4817
sg20
S'allwrite'
p4818
stRp4819
ag3
(g4
g5
(dp4820
g4554
S'Domain Flags'
p4821
sg4556
S'0x0008'
p4822
sg20
S'locked'
p4823
stRp4824
ag3
(g4
g5
(dp4825
g4554
S'Domain Flags'
p4826
sg4556
S'0x0020'
p4827
sg20
S'compress'
p4828
stRp4829
ag3
(g4
g5
(dp4830
g4554
S'Domain Flags'
p4831
sg4556
S'0x0040'
p4832
sg20
S'rmdir'
p4833
stRp4834
ag3
(g4
g5
(dp4835
g4554
S'Domain Flags'
p4836
sg4556
S'0x1000'
p4837
sg20
S'indirect (obsolete since 2004.2)'
p4838
stRp4839
ag3
(g4
g5
(dp4840
g4554
S'Domain Flags'
p4841
sg4556
S'0x8000'
p4842
sg20
S'autoreload'
p4843
stRp4844
ag3
(g4
g5
(dp4845
g4554
S'Domain ClientType'
p4846
sg4556
S'0x00000'
p4847
sg20
S'client is writeable'
p4848
stRp4849
ag3
(g4
g5
(dp4850
g4554
S'Domain ClientType'
p4851
sg4556
S'0x10000'
p4852
sg20
S'client is readonly'
p4853
stRp4854
ag3
(g4
g5
(dp4855
g4554
S'Domain ClientType'
p4856
sg4556
S'0x20000'
p4857
sg20
S'client is nobackup'
p4858
stRp4859
ag3
(g4
g5
(dp4860
g4554
S'Domain ClientType'
p4861
sg4556
S'0x110000'
p4862
sg20
S'client is partitioned'
p4863
stRp4864
ag3
(g4
g5
(dp4865
g4554
S'Domain LineEnd'
p4866
sg4556
S'0x0000'
p4867
sg20
S'local'
p4868
stRp4869
ag3
(g4
g5
(dp4870
g4554
S'Domain LineEnd'
p4871
sg4556
S'0x0010'
p4872
sg20
S'unix (LF)'
p4873
stRp4874
ag3
(g4
g5
(dp4875
g4554
S'Domain LineEnd'
p4876
sg4556
S'0x0200'
p4877
sg20
S'mac (CR)'
p4878
stRp4879
ag3
(g4
g5
(dp4880
g4554
S'Domain LineEnd'
p4881
sg4556
S'0x0300'
p4882
sg20
S'win (CRLF)'
p4883
stRp4884
ag3
(g4
g5
(dp4885
g4554
S'Domain LineEnd'
p4886
sg4556
S'0x0400'
p4887
sg20
S'share (LF/CRLF)'
p4888
stRp4889
ag3
(g4
g5
(dp4890
g4554
S'Domain SubmitMask'
p4891
sg4556
S'0x1000'
p4892
sg20
S'Revert unchanged files'
p4893
stRp4894
ag3
(g4
g5
(dp4895
g4554
S'Domain SubmitMask'
p4896
sg4556
S'0x2000'
p4897
sg20
S'Leave unchanged files'
p4898
stRp4899
ag3
(g4
g5
(dp4900
g4554
S'Domain SubmitMask'
p4901
sg4556
S'0x4000'
p4902
sg20
S'Submit, and re-open unchanged files'
p4903
stRp4904
ag3
(g4
g5
(dp4905
g4554
S'Domain StreamMask'
p4906
sg4556
S'0x0001'
p4907
sg20
S'allsubmit or ownersubmit'
p4908
stRp4909
ag3
(g4
g5
(dp4910
g4554
S'Domain StreamMask'
p4911
sg4556
S'0x0002'
p4912
sg20
S'locked or unlocked'
p4913
stRp4914
ag3
(g4
g5
(dp4915
g4554
S'Domain StreamMask'
p4916
sg4556
S'0x0004'
p4917
sg20
S'change flows to parent'
p4918
stRp4919
ag3
(g4
g5
(dp4920
g4554
S'Domain StreamMask'
p4921
sg4556
S'0x0008'
p4922
sg20
S'change flows from parent'
p4923
stRp4924
ag3
(g4
g5
(dp4925
g4554
S'Domain StreamMask'
p4926
sg4556
S'0x0010'
p4927
sg20
S'mergeany or mergedown'
p4928
stRp4929
atRp4930
sg15
S'DomainOpts'
p4931
sg4554
g3
(g8
g9
(lp4932
g3
(g4
g5
(dp4933
g15
S'Domain Flags'
p4934
sg4556
S'0x10EF'
p4935
sg20
S'Bits used to store client, label, and branch options'
p4936
stRp4937
ag3
(g4
g5
(dp4938
g15
S'Domain ClientType'
p4939
sg4556
S'0x190000'
p4940
sg20
S'Bits used to store client type and backup status'
p4941
stRp4942
ag3
(g4
g5
(dp4943
g15
S'Domain LineEnd'
p4944
sg4556
S'0x0710'
p4945
sg20
S'Bits used to store client line termination settings'
p4946
stRp4947
ag3
(g4
g5
(dp4948
g15
S'Domain SubmitMask'
p4949
sg4556
S'0x7000'
p4950
sg20
S'Bits used to store client submit options'
p4951
stRp4952
ag3
(g4
g5
(dp4953
g15
S'Domain StreamMask'
p4954
sg4556
S'0x000C'
p4955
sg20
S'Bits used to store stream options'
p4956
stRp4957
atRp4958
sg4629
S'Options for domains'
p4959
sg17
S'bitmask'
p4960
sg20
S'A integer value representing the options for a domain'
p4961
stRp4962
ag3
(g4
g5
(dp4963
g17
S'flag'
p4964
sg4629
S'A domain type'
p4965
sg4551
g3
(g8
g9
(lp4966
g3
(g4
g5
(dp4967
g4556
S"67 (ASCII 'C')"
p4968
sg20
S'unloaded client'
p4969
stRp4970
ag3
(g4
g5
(dp4971
g4556
S"76 (ASCII 'L')"
p4972
sg20
S'unloaded label'
p4973
stRp4974
ag3
(g4
g5
(dp4975
g4556
S"83 (ASCII 'S')"
p4976
sg20
S'unloaded task stream'
p4977
stRp4978
ag3
(g4
g5
(dp4979
g4556
S"98 (ASCII 'b')"
p4980
sg20
S'branch'
p4981
stRp4982
ag3
(g4
g5
(dp4983
g4556
S"99 (ASCII 'c')"
p4984
sg20
S'client'
p4985
stRp4986
ag3
(g4
g5
(dp4987
g4556
S"100 (ASCII 'd')"
p4988
sg20
S'depot'
p4989
stRp4990
ag3
(g4
g5
(dp4991
g4556
S"108 (ASCII 'l')"
p4992
sg20
S'label'
p4993
stRp4994
ag3
(g4
g5
(dp4995
g4556
S"115 (ASCII 's')"
p4996
sg20
S'stream'
p4997
stRp4998
ag3
(g4
g5
(dp4999
g4556
S"116 (ASCII 't')"
p5000
sg20
S'typemap'
p5001
stRp5002
atRp5003
sg15
S'DomainType'
p5004
sg20
S'A integer value representing the type of a domain'
p5005
stRp5006
ag3
(g4
g5
(dp5007
g4629
S'A file name'
p5008
sg20
S'A string representing the filename'
p5009
sg17
S'string'
p5010
sg15
S'File'
p5011
sg252
S'FileType'
p5012
stRp5013
ag3
(g4
g5
(dp5014
g4629
S'A file size'
p5015
sg17
S'integer'
p5016
sg15
S'FileSize'
p5017
sg20
S'A 64-bit integer used to store file sizes. The value -1 is\n\t\tused to represent unknown file sizes.'
p5018
stRp5019
ag3
(g4
g5
(dp5020
g4551
g3
(g8
g9
(lp5021
g3
(g4
g5
(dp5022
g4554
S'Storage Type'
p5023
sg4556
S'0x0000'
p5024
sg20
S'RCS'
p5025
stRp5026
ag3
(g4
g5
(dp5027
g4554
S'Storage Type'
p5028
sg4556
S'0x0001'
p5029
sg20
S'Binary'
p5030
stRp5031
ag3
(g4
g5
(dp5032
g4554
S'Storage Type'
p5033
sg4556
S'0x0002'
p5034
sg20
S'Tiny'
p5035
stRp5036
ag3
(g4
g5
(dp5037
g4554
S'Storage Type'
p5038
sg4556
S'0x0003'
p5039
sg20
S'Compressed'
p5040
stRp5041
ag3
(g4
g5
(dp5042
g4554
S'Storage Type'
p5043
sg4556
S'0x0004'
p5044
sg20
S'tempobj (deprecated since 2002.1)'
p5045
stRp5046
ag3
(g4
g5
(dp5047
g4554
S'Storage Type'
p5048
sg4556
S'0x0005'
p5049
sg20
S'Detect type. Used internally when no type is\n\t\t    given by the user.'
p5050
stRp5051
ag3
(g4
g5
(dp5052
g4554
S'Storage Type'
p5053
sg4556
S'0x0006'
p5054
sg20
S'Compressed tempobj (deprecated since 2002.1)'
p5055
stRp5056
ag3
(g4
g5
(dp5057
g4554
S'Storage Type'
p5058
sg4556
S'0x0007'
p5059
sg20
S'Binary access to compressed data. Used internally.'
p5060
stRp5061
ag3
(g4
g5
(dp5062
g4554
S'Storage Type'
p5063
sg4556
S'0x0008'
p5064
sg20
S'Stored externally via librarian trigger'
p5065
stRp5066
ag3
(g4
g5
(dp5067
g4554
S'Storage Mods'
p5068
sg4556
S'0x0010'
p5069
sg20
S'99.2-style keyword expansion/contraction'
p5070
stRp5071
ag3
(g4
g5
(dp5072
g4554
S'Storage Mods'
p5073
sg4556
S'0x0020'
p5074
sg20
S'2000.1-style keyword expansion/contraction'
p5075
stRp5076
ag3
(g4
g5
(dp5077
g4554
S'Storage Mods'
p5078
sg4556
S'0x0030'
p5079
sg20
S'Any type of keyword expansion'
p5080
stRp5081
ag3
(g4
g5
(dp5082
g4554
S'Storage Mods'
p5083
sg4556
S'0x0040'
p5084
sg20
S'Exclusive open'
p5085
stRp5086
ag3
(g4
g5
(dp5087
g4554
S'Storage Mods'
p5088
sg4556
S'0x0080'
p5089
sg20
S'New tempobj (+S modifier)'
p5090
stRp5091
ag3
(g4
g5
(dp5092
g4554
S'Tempobj revisions'
p5093
sg4556
S'0x0000'
p5094
sg20
S'+S1'
p5095
stRp5096
ag3
(g4
g5
(dp5097
g4554
S'Tempobj revisions'
p5098
sg4556
S'0x0100'
p5099
sg20
S'+S2'
p5100
stRp5101
ag3
(g4
g5
(dp5102
g4554
S'Tempobj revisions'
p5103
sg4556
S'0x0200'
p5104
sg20
S'+S3'
p5105
stRp5106
ag3
(g4
g5
(dp5107
g4554
S'Tempobj revisions'
p5108
sg4556
S'0x0300'
p5109
sg20
S'+S4'
p5110
stRp5111
ag3
(g4
g5
(dp5112
g4554
S'Tempobj revisions'
p5113
sg4556
S'0x0400'
p5114
sg20
S'+S5'
p5115
stRp5116
ag3
(g4
g5
(dp5117
g4554
S'Tempobj revisions'
p5118
sg4556
S'0x0500'
p5119
sg20
S'+S6'
p5120
stRp5121
ag3
(g4
g5
(dp5122
g4554
S'Tempobj revisions'
p5123
sg4556
S'0x0600'
p5124
sg20
S'+S7'
p5125
stRp5126
ag3
(g4
g5
(dp5127
g4554
S'Tempobj revisions'
p5128
sg4556
S'0x0700'
p5129
sg20
S'+S8'
p5130
stRp5131
ag3
(g4
g5
(dp5132
g4554
S'Tempobj revisions'
p5133
sg4556
S'0x0800'
p5134
sg20
S'+S9'
p5135
stRp5136
ag3
(g4
g5
(dp5137
g4554
S'Tempobj revisions'
p5138
sg4556
S'0x0900'
p5139
sg20
S'+S10'
p5140
stRp5141
ag3
(g4
g5
(dp5142
g4554
S'Tempobj revisions'
p5143
sg4556
S'0x0A00'
p5144
sg20
S'+S16'
p5145
stRp5146
ag3
(g4
g5
(dp5147
g4554
S'Tempobj revisions'
p5148
sg4556
S'0x0B00'
p5149
sg20
S'+S32'
p5150
stRp5151
ag3
(g4
g5
(dp5152
g4554
S'Tempobj revisions'
p5153
sg4556
S'0x0C00'
p5154
sg20
S'+S64'
p5155
stRp5156
ag3
(g4
g5
(dp5157
g4554
S'Tempobj revisions'
p5158
sg4556
S'0x0D00'
p5159
sg20
S'+S128'
p5160
stRp5161
ag3
(g4
g5
(dp5162
g4554
S'Tempobj revisions'
p5163
sg4556
S'0x0E00'
p5164
sg20
S'+S256'
p5165
stRp5166
ag3
(g4
g5
(dp5167
g4554
S'Tempobj revisions'
p5168
sg4556
S'0x0F00'
p5169
sg20
S'+S512'
p5170
stRp5171
ag3
(g4
g5
(dp5172
g4554
S'Client Type'
p5173
sg4556
S'0x0000000'
p5174
sg20
S'text'
p5175
stRp5176
ag3
(g4
g5
(dp5177
g4554
S'Client Type'
p5178
sg4556
S'0x0010000'
p5179
sg20
S'binary'
p5180
stRp5181
ag3
(g4
g5
(dp5182
g4554
S'Client Type'
p5183
sg4556
S'0x0020000'
p5184
sg20
S'executable bit set'
p5185
stRp5186
ag3
(g4
g5
(dp5187
g4554
S'Client Type'
p5188
sg4556
S'0x0040000'
p5189
sg20
S'symlink'
p5190
stRp5191
ag3
(g4
g5
(dp5192
g4554
S'Client Type'
p5193
sg4556
S'0x0050000'
p5194
sg20
S'resource fork'
p5195
stRp5196
ag3
(g4
g5
(dp5197
g4554
S'Client Type'
p5198
sg4556
S'0x0080000'
p5199
sg20
S'unicode'
p5200
stRp5201
ag3
(g4
g5
(dp5202
g4554
S'Client Type'
p5203
sg4556
S'0x0090000'
p5204
sg20
S'raw text (nocrlf - 99.1)'
p5205
stRp5206
ag3
(g4
g5
(dp5207
g4554
S'Client Type'
p5208
sg4556
S'0x00C0000'
p5209
sg20
S'apple data + resource file (since 2000.2)'
p5210
stRp5211
ag3
(g4
g5
(dp5212
g4554
S'Client Type'
p5213
sg4556
S'0x00D0000'
p5214
sg20
S'apple data + resource file (99.2)'
p5215
stRp5216
ag3
(g4
g5
(dp5217
g4554
S'Client Type'
p5218
sg4556
S'0x1000000'
p5219
sg20
S'Used to support filetype detection'
p5220
stRp5221
ag3
(g4
g5
(dp5222
g4554
S'Client Mods'
p5223
sg4556
S'0x0100000'
p5224
sg20
S'writable'
p5225
stRp5226
ag3
(g4
g5
(dp5227
g4554
S'Client Mods'
p5228
sg4556
S'0x0200000'
p5229
sg20
S'modtime'
p5230
stRp5231
ag3
(g4
g5
(dp5232
g4554
S'Client Mods'
p5233
sg4556
S'0x0400000'
p5234
sg20
S'uncompress on client'
p5235
stRp5236
atRp5237
sg15
S'FileType'
p5238
sg4554
g3
(g8
g9
(lp5239
g3
(g4
g5
(dp5240
g15
S'Storage Type'
p5241
sg4556
S'0x000F'
p5242
sg20
S"Bits used to store the server's storage type"
p5243
stRp5244
ag3
(g4
g5
(dp5245
g15
S'Storage Mods'
p5246
sg4556
S'0x00F0'
p5247
sg20
S"Bits used to store the modifiers to the server's storage \n\t\t    type"
p5248
stRp5249
ag3
(g4
g5
(dp5250
g15
S'Tempobj revisions'
p5251
sg4556
S'0x0F00'
p5252
sg20
S'Bits used to store the number of revisions to be stored\n\t\t    for +Sn files.'
p5253
stRp5254
ag3
(g4
g5
(dp5255
g15
S'Client Type'
p5256
sg4556
S'0x10D0000'
p5257
sg20
S"Bits used to store the file type from the client's point\n\t\t    of view."
p5258
stRp5259
ag3
(g4
g5
(dp5260
g15
S'Client Mods'
p5261
sg4556
S'0x720000'
p5262
sg20
S'Bits used to store the modifiers applied to the file\n\t\t    on the client.'
p5263
stRp5264
atRp5265
sg4629
S'Type of file'
p5266
sg17
S'bitmask'
p5267
sg20
S'The FileType is a bitmask specifying the type and modifiers\n\t\tof a revision from both the client and server points of view.\n\t\tThe first 16 bits are used to store the storage type and \n\t\tmodifiers, the next 16 bits are used to store the client \n\t\taccess method and modifiers.'
p5268
stRp5269
ag3
(g4
g5
(dp5270
g4629
S'Status of a fixed job'
p5271
sg17
S'string'
p5272
sg15
S'FixStatus'
p5273
sg20
S'This type is a wrapper around the \'Text\' type that handles\n\t\tthe pre-2000.1 "closed" default value.'
p5274
stRp5275
ag3
(g4
g5
(dp5276
g17
S'flag'
p5277
sg4629
S'Type of Graph Permission'
p5278
sg4551
g3
(g8
g9
(lp5279
g3
(g4
g5
(dp5280
g4556
S'0'
sg20
S'none'
p5281
stRp5282
ag3
(g4
g5
(dp5283
g4556
S'1'
sg20
S'read'
p5284
stRp5285
ag3
(g4
g5
(dp5286
g4556
S'2'
sg20
S'write-ref'
p5287
stRp5288
ag3
(g4
g5
(dp5289
g4556
S'4'
sg20
S'write-all'
p5290
stRp5291
ag3
(g4
g5
(dp5292
g4556
S'8'
sg20
S'create-repo'
p5293
stRp5294
ag3
(g4
g5
(dp5295
g4556
S'16'
p5296
sg20
S'delete-repo'
p5297
stRp5298
ag3
(g4
g5
(dp5299
g4556
S'32'
p5300
sg20
S'create-ref'
p5301
stRp5302
ag3
(g4
g5
(dp5303
g4556
S'64'
p5304
sg20
S'delete-ref'
p5305
stRp5306
ag3
(g4
g5
(dp5307
g4556
S'128'
p5308
sg20
S'force-push'
p5309
stRp5310
ag3
(g4
g5
(dp5311
g4556
S'256'
p5312
sg20
S'admin'
p5313
stRp5314
ag3
(g4
g5
(dp5315
g4556
S'4096'
p5316
sg20
S'restricted-ref'
p5317
stRp5318
atRp5319
sg15
S'GraphPermType'
p5320
sg20
S'The type of a graph depot permission'
p5321
stRp5322
ag3
(g4
g5
(dp5323
g4629
S'A 32-bit integer'
p5324
sg17
S'integer'
p5325
sg15
S'Int'
p5326
sg20
S'A 32-bit integer'
p5327
stRp5328
ag3
(g4
g5
(dp5329
g4629
S'An 8-bit integer'
p5330
sg17
S'integer'
p5331
sg15
S'Int8'
p5332
sg20
S'An 8-bit integer: an unsigned char'
p5333
stRp5334
ag3
(g4
g5
(dp5335
g4629
S'A 64-bit integer'
p5336
sg17
S'integer'
p5337
sg15
S'Int64'
p5338
sg20
S'A 64-bit integer.'
p5339
stRp5340
ag3
(g4
g5
(dp5341
g308
S'All integration records should have a corresponding \n\t\treverse record. The \'branch from\' (2) and \'merge from\' (0) \n\t\trecords have corresponding "dirty" reverse records for cases \n\t\twhere the target file took more than one change or was \n\t\t(re)opened for \'edit\' or \'add\'.'
p5342
sg4551
g3
(g8
g9
(lp5343
g3
(g4
g5
(dp5344
g4556
S'0'
sg20
S'merge from: integration with other changes'
p5345
stRp5346
ag3
(g4
g5
(dp5347
g4556
S'1'
sg20
S'merge into: reverse merge'
p5348
stRp5349
ag3
(g4
g5
(dp5350
g4556
S'2'
sg20
S'branch from: integration was branch of file'
p5351
stRp5352
ag3
(g4
g5
(dp5353
g4556
S'3'
sg20
S'branch into: reverse branch'
p5354
stRp5355
ag3
(g4
g5
(dp5356
g4556
S'4'
sg20
S'copy from: integration took source file whole'
p5357
stRp5358
ag3
(g4
g5
(dp5359
g4556
S'5'
sg20
S'copy into: reverse take'
p5360
stRp5361
ag3
(g4
g5
(dp5362
g4556
S'6'
sg20
S'ignored: integration ignored source changes'
p5363
stRp5364
ag3
(g4
g5
(dp5365
g4556
S'7'
sg20
S'ignored by: reverse copy'
p5366
stRp5367
ag3
(g4
g5
(dp5368
g4556
S'8'
sg20
S'delete from: integration of delete'
p5369
stRp5370
ag3
(g4
g5
(dp5371
g4556
S'9'
sg20
S'delete into: reverse delete'
p5372
stRp5373
ag3
(g4
g5
(dp5374
g4556
S'10'
p5375
sg20
S'edit into: reverse of integration downgraded to \n\t\t    edit'
p5376
stRp5377
ag3
(g4
g5
(dp5378
g4556
S'11'
p5379
sg20
S'add into: reverse of branch downgraded to add'
p5380
stRp5381
ag3
(g4
g5
(dp5382
g4556
S'12'
p5383
sg20
S'edit from: merge that the user edited'
p5384
stRp5385
ag3
(g4
g5
(dp5386
g4556
S'13'
p5387
sg20
S'add from: branch downgraded to add'
p5388
stRp5389
ag3
(g4
g5
(dp5390
g4556
S'14'
p5391
sg20
S'moved from: reverse of renamed file'
p5392
stRp5393
ag3
(g4
g5
(dp5394
g4556
S'15'
p5395
sg20
S'moved into: file was renamed'
p5396
stRp5397
ag3
(g4
g5
(dp5398
g4556
S'16'
p5399
sg20
S"'delete' target rev ignoring non-deleted source"
p5400
stRp5401
ag3
(g4
g5
(dp5402
g4556
S'17'
p5403
sg20
S"non-deleted source ignored by 'delete' target rev"
p5404
stRp5405
ag3
(g4
g5
(dp5406
g4556
S'18'
p5407
sg20
S"'integrate' target rev ignoring deleted source"
p5408
stRp5409
ag3
(g4
g5
(dp5410
g4556
S'19'
p5411
sg20
S"deleted source ignored by 'integrate' target rev"
p5412
stRp5413
ag3
(g4
g5
(dp5414
g4556
S'20'
p5415
sg20
S'deleted branch: branch from'
p5416
stRp5417
ag3
(g4
g5
(dp5418
g4556
S'21'
p5419
sg20
S'deleted branch: delete into'
p5420
stRp5421
ag3
(g4
g5
(dp5422
g4556
S'22'
p5423
sg20
S'undo: opposite of merge'
p5424
stRp5425
ag3
(g4
g5
(dp5426
g4556
S'23'
p5427
sg20
S'undo reverse'
p5428
stRp5429
ag3
(g4
g5
(dp5430
g4556
S'24'
p5431
sg20
S'move undo: move + undo as one record'
p5432
stRp5433
ag3
(g4
g5
(dp5434
g4556
S'25'
p5435
sg20
S'move undo reverse'
p5436
stRp5437
atRp5438
sg15
S'IntegHow'
p5439
sg4629
S'Integration methods'
p5440
sg17
S'flag'
p5441
sg20
S"Specifies how an integration was performed. Integrations\n\t\talways come in pairs: the 'forward' and 'reverse' records.\n\t\tAs a general rule, the forward records contain the word \n\t\t'from'; and the reverse records contain the word 'into'."
p5442
stRp5443
ag3
(g4
g5
(dp5444
g17
S'flag'
p5445
sg4629
S'Job status - defunct'
p5446
sg4551
g3
(g8
g9
(lp5447
g3
(g4
g5
(dp5448
g4556
S'0'
sg20
S'open'
p5449
stRp5450
ag3
(g4
g5
(dp5451
g4556
S'1'
sg20
S'closed'
p5452
stRp5453
ag3
(g4
g5
(dp5454
g4556
S'2'
sg20
S'suspended'
p5455
stRp5456
atRp5457
sg15
S'JobStat'
p5458
sg20
S'Old (pre-98.2) job status values.'
p5459
stRp5460
ag3
(g4
g5
(dp5461
g17
S'flag'
p5462
sg4629
S'"Journal Copy State"'
p5463
sg4551
g3
(g8
g9
(lp5464
g3
(g4
g5
(dp5465
g15
S'DurableOnly'
p5466
sg4556
S'1'
sg20
S'Durable Only'
p5467
stRp5468
ag3
(g4
g5
(dp5469
g15
S'NonAcknowledging'
p5470
sg4556
S'2'
sg20
S'Non Acknowledging'
p5471
stRp5472
ag3
(g4
g5
(dp5473
g15
S'JournalWait'
p5474
sg4556
S'4'
sg20
S'Journal Wait'
p5475
stRp5476
atRp5477
sg15
S'JournalCopyFlags'
p5478
sg20
S'Used to maintain Journal Copy State'
p5479
stRp5480
ag3
(g4
g5
(dp5481
g4629
S'A key name'
p5482
sg20
S'A string representing the key name. Key names must \n\t\tcontain no spaces, contain no slashes, and be identifiers \n\t\t(cannot begin with a dash and cannot be all-numeric)'
p5483
sg17
S'string'
p5484
sg15
S'Key'
p5485
sg252
S'String'
p5486
stRp5487
ag3
(g4
g5
(dp5488
g4551
g3
(g8
g9
(lp5489
g3
(g4
g5
(dp5490
g4554
S'LockTypeBits'
p5491
sg15
S'Unlocked'
p5492
sg4556
S'0x0000'
p5493
sg20
S'Unlocked'
p5494
stRp5495
ag3
(g4
g5
(dp5496
g4554
S'LockTypeBits'
p5497
sg15
S'Locked'
p5498
sg4556
S'0x0001'
p5499
sg20
S'Locked'
p5500
stRp5501
ag3
(g4
g5
(dp5502
g4554
S'LockTypeBits'
p5503
sg15
S'Global'
p5504
sg4556
S'0x0002'
p5505
sg20
S'Global'
p5506
stRp5507
atRp5508
sg15
S'LockedType'
p5509
sg4554
g3
(g4
g5
(dp5510
g15
S'LockTypeBits'
p5511
sg4556
S'0x0003'
p5512
sg20
S'Bits used to store lock types'
p5513
stRp5514
sg4629
S'Bitmask of lock types'
p5515
sg17
S'bitmask'
p5516
sg20
S'A bitmask of locked flags'
p5517
stRp5518
ag3
(g4
g5
(dp5519
g17
S'flag'
p5520
sg4629
S'Types of mapping'
p5521
sg4551
g3
(g8
g9
(lp5522
g3
(g4
g5
(dp5523
g4556
S'0'
sg20
S'mapped-in (the default)'
p5524
stRp5525
ag3
(g4
g5
(dp5526
g4556
S'1'
sg20
S"mapped-out (mappings that start with '-')"
p5527
stRp5528
ag3
(g4
g5
(dp5529
g4556
S'2'
sg20
S"overlay (mappings that start with '+')"
p5530
stRp5531
ag3
(g4
g5
(dp5532
g4556
S'3'
sg20
S"haveMap (mappings that start with '$'). Used internally\n\t\t    only"
p5533
stRp5534
ag3
(g4
g5
(dp5535
g4556
S'4'
sg20
S"changeMap (mappings that start with '@')"
p5536
stRp5537
atRp5538
sg15
S'MapFlag'
p5539
sg20
S'Specifies how the files specified by a mapping should be\n\t\ttreated'
p5540
stRp5541
ag3
(g4
g5
(dp5542
g4629
S'A string representing a mapping'
p5543
sg17
S'string'
p5544
sg15
S'Mapping'
p5545
sg20
S'A Mapping is essentially a file name that may contain\n\t\twildcards'
p5546
stRp5547
ag3
(g4
g5
(dp5548
g4629
S'Maximum number of milliseconds to hold locks'
p5549
sg17
S'integer'
p5550
sg15
S'MaxLockTime'
p5551
sg20
S"The number of milliseconds for which a command may hold locks.\n\t\tCommands that take longer than this time period will abort. \n\t\tThe value 0 means 'unlimited'."
p5552
stRp5553
ag3
(g4
g5
(dp5554
g4629
S'Maximum number of results permitted'
p5555
sg17
S'integer'
p5556
sg15
S'MaxResults'
p5557
sg20
S"The number of results that commands run by the restricted\n\t\tuser are permitted to return. The value 0 means 'unlimited'."
p5558
stRp5559
ag3
(g4
g5
(dp5560
g4629
S'Maximum number of records scanned'
p5561
sg17
S'integer'
p5562
sg15
S'MaxScanRows'
p5563
sg20
S"The maximum number of records that the server may read\n\t\ton behalf of the restricted user. The value 0 means \n\t\t'unlimited'."
p5564
stRp5565
ag3
(g4
g5
(dp5566
g17
S'flag'
p5567
sg4629
S'Object type'
p5568
sg4551
g3
(g8
g9
(lp5569
g3
(g4
g5
(dp5570
g4556
S'0'
sg20
S'commit'
p5571
stRp5572
ag3
(g4
g5
(dp5573
g4556
S'1'
sg20
S'tree'
p5574
stRp5575
ag3
(g4
g5
(dp5576
g4556
S'2'
sg20
S'tag'
p5577
stRp5578
ag3
(g4
g5
(dp5579
g4556
S'3'
sg20
S'null'
p5580
stRp5581
atRp5582
sg15
S'ObjectType'
p5583
sg20
S'Object type'
p5584
stRp5585
ag3
(g4
g5
(dp5586
g4629
S'Encoded hex string'
p5587
sg17
S'string'
p5588
sg15
S'Octet String'
p5589
sg20
S'A variable length encoded hex string. The first octet \n\t\tstores the length of the string.'
p5590
stRp5591
ag3
(g4
g5
(dp5592
g4629
S'The MD5 hash of a password'
p5593
sg17
S'string'
p5594
sg15
S'Password'
p5595
sg20
S'The MD5 hash of an encrypted password.'
p5596
stRp5597
ag3
(g4
g5
(dp5598
g4551
g3
(g8
g9
(lp5599
g3
(g4
g5
(dp5600
g4554
S'PermTypeBits'
p5601
sg15
S'None'
p5602
sg4556
S'0x000000'
p5603
sg20
S'none'
p5604
stRp5605
ag3
(g4
g5
(dp5606
g4554
S'PermTypeBits'
p5607
sg15
S'List'
p5608
sg4556
S'0x000001'
p5609
sg20
S'Grants list access'
p5610
stRp5611
ag3
(g4
g5
(dp5612
g4554
S'PermTypeBits'
p5613
sg15
S'Read'
p5614
sg4556
S'0x000002'
p5615
sg20
S'Grants read access'
p5616
stRp5617
ag3
(g4
g5
(dp5618
g4554
S'PermTypeBits'
p5619
sg15
S'Branch'
p5620
sg4556
S'0x000004'
p5621
sg20
S'Grants ability to branch/integ from'
p5622
stRp5623
ag3
(g4
g5
(dp5624
g4554
S'PermTypeBits'
p5625
sg15
S'Open'
p5626
sg4556
S'0x000008'
p5627
sg20
S'Grants open access'
p5628
stRp5629
ag3
(g4
g5
(dp5630
g4554
S'PermTypeBits'
p5631
sg15
S'Write'
p5632
sg4556
S'0x000010'
p5633
sg20
S'Grants write access'
p5634
stRp5635
ag3
(g4
g5
(dp5636
g4554
S'PermTypeBits'
p5637
sg15
S'Review'
p5638
sg4556
S'0x000020'
p5639
sg20
S'Grants review access'
p5640
stRp5641
ag3
(g4
g5
(dp5642
g4554
S'PermTypeBits'
p5643
sg15
S'Admin'
p5644
sg4556
S'0x000080'
p5645
sg20
S'Grants admin access'
p5646
stRp5647
ag3
(g4
g5
(dp5648
g4554
S'PermTypeBits'
p5649
sg15
S'Super'
p5650
sg4556
S'0x000040'
p5651
sg20
S'Grants super-user access'
p5652
stRp5653
ag3
(g4
g5
(dp5654
g4554
S'PermTypeBits'
p5655
sg15
S'Owner'
p5656
sg4556
S'0x000100'
p5657
sg20
S'Grants owner access'
p5658
stRp5659
ag3
(g4
g5
(dp5660
g4554
S'PermTypeBits'
p5661
sg15
S'Stream List'
p5662
sg4556
S'0x010000'
p5663
sg20
S'Grants stream list access'
p5664
stRp5665
ag3
(g4
g5
(dp5666
g4554
S'PermTypeBits'
p5667
sg15
S'Stream Read'
p5668
sg4556
S'0x020000'
p5669
sg20
S'Grants stream read access'
p5670
stRp5671
ag3
(g4
g5
(dp5672
g4554
S'PermTypeBits'
p5673
sg15
S'Stream Branch'
p5674
sg4556
S'0x040000'
p5675
sg20
S'Grants stream branch access'
p5676
stRp5677
ag3
(g4
g5
(dp5678
g4554
S'PermTypeBits'
p5679
sg15
S'Stream Open'
p5680
sg4556
S'0x080000'
p5681
sg20
S'Grants stream open access'
p5682
stRp5683
ag3
(g4
g5
(dp5684
g4554
S'PermTypeBits'
p5685
sg15
S'Stream Write'
p5686
sg4556
S'0x100000'
p5687
sg20
S'Grants stream write access'
p5688
stRp5689
atRp5690
sg15
S'Perm'
p5691
sg4554
g3
(g4
g5
(dp5692
g15
S'PermTypeBits'
p5693
sg4556
S'0x1F01FF'
p5694
sg20
S'Bits used to store granted permissions'
p5695
stRp5696
sg4629
S'Bitmask of permissions'
p5697
sg17
S'bitmask'
p5698
sg20
S'A bitmask of granted permissions'
p5699
stRp5700
ag3
(g4
g5
(dp5701
g17
S'flag'
p5702
sg4629
S'Archive pull transfer status'
p5703
sg4551
g3
(g8
g9
(lp5704
g3
(g4
g5
(dp5705
g15
S'new'
p5706
sg4556
S'new'
p5707
sg20
S'new transfer'
p5708
stRp5709
ag3
(g4
g5
(dp5710
g15
S'active'
p5711
sg4556
S'active'
p5712
sg20
S'active transfer'
p5713
stRp5714
ag3
(g4
g5
(dp5715
g15
S'done'
p5716
sg4556
S'done'
p5717
sg20
S'completed transfer'
p5718
stRp5719
ag3
(g4
g5
(dp5720
g15
S'error'
p5721
sg4556
S'error'
p5722
sg20
S'errored transfer'
p5723
stRp5724
ag3
(g4
g5
(dp5725
g15
S'restart'
p5726
sg4556
S'restart'
p5727
sg20
S'restarted transfer'
p5728
stRp5729
ag3
(g4
g5
(dp5730
g15
S'cancelled'
p5731
sg4556
S'cancelled'
p5732
sg20
S'cancelled transfer'
p5733
stRp5734
atRp5735
sg15
S'PullStatus'
p5736
sg20
S'The status of an archive pull transfer'
p5737
stRp5738
ag3
(g4
g5
(dp5739
g17
S'flag'
p5740
sg4629
S'Reference action'
p5741
sg4551
g3
(g8
g9
(lp5742
g3
(g4
g5
(dp5743
g4556
S'0'
sg20
S'create'
p5744
stRp5745
ag3
(g4
g5
(dp5746
g4556
S'1'
sg20
S'update'
p5747
stRp5748
ag3
(g4
g5
(dp5749
g4556
S'2'
sg20
S'force'
p5750
stRp5751
ag3
(g4
g5
(dp5752
g4556
S'3'
sg20
S'delete'
p5753
stRp5754
atRp5755
sg15
S'RefAction'
p5756
sg20
S'A reference action'
p5757
stRp5758
ag3
(g4
g5
(dp5759
g17
S'flag'
p5760
sg4629
S'A reference type'
p5761
sg4551
g3
(g8
g9
(lp5762
g3
(g4
g5
(dp5763
g4556
S'0'
sg20
S'Branch reference'
p5764
stRp5765
ag3
(g4
g5
(dp5766
g4556
S'1'
sg20
S'Remote reference'
p5767
stRp5768
ag3
(g4
g5
(dp5769
g4556
S'2'
sg20
S'Tag reference'
p5770
stRp5771
ag3
(g4
g5
(dp5772
g4556
S'3'
sg20
S'Workspace branch reference. Pseudo-reference, used by workspaces that access git files'
p5773
stRp5774
ag3
(g4
g5
(dp5775
g4556
S'4'
sg20
S'Workspace have reference. Pseudo-reference, used by workspaces that access git files'
p5776
stRp5777
ag3
(g4
g5
(dp5778
g4556
S'5'
sg20
S'Other reference'
p5779
stRp5780
atRp5781
sg15
S'RefType'
p5782
sg20
S'The type of reference'
p5783
stRp5784
ag3
(g4
g5
(dp5785
g4629
S'A remote name'
p5786
sg17
S'string'
p5787
sg15
S'RemoteID'
p5788
sg20
S'A string representing the name of a remote spec'
p5789
stRp5790
ag3
(g4
g5
(dp5791
g17
S'flag'
p5792
sg4629
S'Resolve actions'
p5793
sg4551
g3
(g8
g9
(lp5794
g3
(g4
g5
(dp5795
g4556
S'0'
sg20
S'Content resolve'
p5796
stRp5797
ag3
(g4
g5
(dp5798
g4556
S'1'
sg20
S'Filetype resolve'
p5799
stRp5800
ag3
(g4
g5
(dp5801
g4556
S'2'
sg20
S'Branch resolve'
p5802
stRp5803
ag3
(g4
g5
(dp5804
g4556
S'3'
sg20
S'Delete resolve'
p5805
stRp5806
ag3
(g4
g5
(dp5807
g4556
S'4'
sg20
S'Move resolve'
p5808
stRp5809
ag3
(g4
g5
(dp5810
g4556
S'5'
sg20
S'Attribute resolve'
p5811
stRp5812
ag3
(g4
g5
(dp5813
g4556
S'6'
sg20
S'Charset resolve'
p5814
stRp5815
atRp5816
sg15
S'ResolveState'
p5817
sg20
S'Pending or completed resolve actions.'
p5818
stRp5819
ag3
(g4
g5
(dp5820
g17
S'flag'
p5821
sg4629
S'Resolve methods (obsolete in 2011.1, replaced by ResolveState)'
p5822
sg4551
g3
(g8
g9
(lp5823
g3
(g4
g5
(dp5824
g4556
S'0'
sg20
S'Not yet resolved'
p5825
stRp5826
ag3
(g4
g5
(dp5827
g4556
S'1'
sg20
S'Resolved manually'
p5828
stRp5829
ag3
(g4
g5
(dp5830
g4556
S'2'
sg20
S'Resolved automatically as part of a branch'
p5831
stRp5832
ag3
(g4
g5
(dp5833
g4556
S'3'
sg20
S'Resolved automatically as part of a delete'
p5834
stRp5835
ag3
(g4
g5
(dp5836
g4556
S'4'
sg20
S'Resolved automatically as part of a move'
p5837
stRp5838
atRp5839
sg15
S'ResolvedStatus'
p5840
sg20
S'Specifies how the user resolved merge operations.'
p5841
stRp5842
ag3
(g4
g5
(dp5843
g4629
S'A revision number'
p5844
sg17
S'integer'
p5845
sg15
S'Rev'
p5846
sg20
S"The positive integer number of a specific revision of a file. \n\t\tThe number 0 represents '#none'."
p5847
stRp5848
ag3
(g4
g5
(dp5849
g4551
g3
(g8
g9
(lp5850
g3
(g4
g5
(dp5851
g4554
S'RevStatusBits'
p5852
sg4556
S'0x0000'
p5853
sg20
S'single revision with content'
p5854
stRp5855
ag3
(g4
g5
(dp5856
g4554
S'RevStatusBits'
p5857
sg4556
S'0x0001'
p5858
sg20
S'single revision lazy copied'
p5859
stRp5860
ag3
(g4
g5
(dp5861
g4554
S'RevStatusBits'
p5862
sg4556
S'0x0002'
p5863
sg20
S'revision task sparse'
p5864
stRp5865
ag3
(g4
g5
(dp5866
g4554
S'RevStatusBits'
p5867
sg4556
S'0x0004'
p5868
sg20
S'revision task branch'
p5869
stRp5870
ag3
(g4
g5
(dp5871
g4554
S'RevCharsetBits'
p5872
sg4556
S'0'
sg20
S'NONE'
p5873
stRp5874
ag3
(g4
g5
(dp5875
g4554
S'RevCharsetBits'
p5876
sg4556
S'1'
sg20
S'UTF_8'
p5877
stRp5878
ag3
(g4
g5
(dp5879
g4554
S'RevCharsetBits'
p5880
sg4556
S'2'
sg20
S'ISO8859_1'
p5881
stRp5882
ag3
(g4
g5
(dp5883
g4554
S'RevCharsetBits'
p5884
sg4556
S'3'
sg20
S'UTF_16'
p5885
stRp5886
ag3
(g4
g5
(dp5887
g4554
S'RevCharsetBits'
p5888
sg4556
S'4'
sg20
S'SHIFTJIS'
p5889
stRp5890
ag3
(g4
g5
(dp5891
g4554
S'RevCharsetBits'
p5892
sg4556
S'5'
sg20
S'EUCJP'
p5893
stRp5894
ag3
(g4
g5
(dp5895
g4554
S'RevCharsetBits'
p5896
sg4556
S'6'
sg20
S'WIN_US_ANSI'
p5897
stRp5898
ag3
(g4
g5
(dp5899
g4554
S'RevCharsetBits'
p5900
sg4556
S'7'
sg20
S'WIN_US_OEM'
p5901
stRp5902
ag3
(g4
g5
(dp5903
g4554
S'RevCharsetBits'
p5904
sg4556
S'8'
sg20
S'MACOS_ROMAN'
p5905
stRp5906
ag3
(g4
g5
(dp5907
g4554
S'RevCharsetBits'
p5908
sg4556
S'9'
sg20
S'ISO8859_15'
p5909
stRp5910
ag3
(g4
g5
(dp5911
g4554
S'RevCharsetBits'
p5912
sg4556
S'10'
p5913
sg20
S'ISO8859_5'
p5914
stRp5915
ag3
(g4
g5
(dp5916
g4554
S'RevCharsetBits'
p5917
sg4556
S'11'
p5918
sg20
S'KOI8_R'
p5919
stRp5920
ag3
(g4
g5
(dp5921
g4554
S'RevCharsetBits'
p5922
sg4556
S'12'
p5923
sg20
S'WIN_CP_1251'
p5924
stRp5925
ag3
(g4
g5
(dp5926
g4554
S'RevCharsetBits'
p5927
sg4556
S'13'
p5928
sg20
S'UTF_16_LE'
p5929
stRp5930
ag3
(g4
g5
(dp5931
g4554
S'RevCharsetBits'
p5932
sg4556
S'14'
p5933
sg20
S'UTF_16_BE'
p5934
stRp5935
ag3
(g4
g5
(dp5936
g4554
S'RevCharsetBits'
p5937
sg4556
S'15'
p5938
sg20
S'UTF_16_LE_BOM'
p5939
stRp5940
ag3
(g4
g5
(dp5941
g4554
S'RevCharsetBits'
p5942
sg4556
S'16'
p5943
sg20
S'UTF_16_BE_BOM'
p5944
stRp5945
ag3
(g4
g5
(dp5946
g4554
S'RevCharsetBits'
p5947
sg4556
S'17'
p5948
sg20
S'UTF_16_BOM'
p5949
stRp5950
ag3
(g4
g5
(dp5951
g4554
S'RevCharsetBits'
p5952
sg4556
S'18'
p5953
sg20
S'UTF_8_BOM'
p5954
stRp5955
ag3
(g4
g5
(dp5956
g4554
S'RevCharsetBits'
p5957
sg4556
S'19'
p5958
sg20
S'UTF_32'
p5959
stRp5960
ag3
(g4
g5
(dp5961
g4554
S'RevCharsetBits'
p5962
sg4556
S'20'
p5963
sg20
S'UTF_32_LE'
p5964
stRp5965
ag3
(g4
g5
(dp5966
g4554
S'RevCharsetBits'
p5967
sg4556
S'21'
p5968
sg20
S'UTF_32_BE'
p5969
stRp5970
ag3
(g4
g5
(dp5971
g4554
S'RevCharsetBits'
p5972
sg4556
S'22'
p5973
sg20
S'UTF_32_LE_BOM'
p5974
stRp5975
ag3
(g4
g5
(dp5976
g4554
S'RevCharsetBits'
p5977
sg4556
S'23'
p5978
sg20
S'UTF_32_BE_BOM'
p5979
stRp5980
ag3
(g4
g5
(dp5981
g4554
S'RevCharsetBits'
p5982
sg4556
S'24'
p5983
sg20
S'UTF_32_BOM'
p5984
stRp5985
ag3
(g4
g5
(dp5986
g4554
S'RevCharsetBits'
p5987
sg4556
S'25'
p5988
sg20
S'UTF_8_UNCHECKED'
p5989
stRp5990
ag3
(g4
g5
(dp5991
g4554
S'RevCharsetBits'
p5992
sg4556
S'26'
p5993
sg20
S'UTF_8_UNCHECKED_BOM'
p5994
stRp5995
ag3
(g4
g5
(dp5996
g4554
S'RevCharsetBits'
p5997
sg4556
S'27'
p5998
sg20
S'CP949'
p5999
stRp6000
ag3
(g4
g5
(dp6001
g4554
S'RevCharsetBits'
p6002
sg4556
S'28'
p6003
sg20
S'CP936'
p6004
stRp6005
ag3
(g4
g5
(dp6006
g4554
S'RevCharsetBits'
p6007
sg4556
S'29'
p6008
sg20
S'CP950'
p6009
stRp6010
ag3
(g4
g5
(dp6011
g4554
S'RevCharsetBits'
p6012
sg4556
S'30'
p6013
sg20
S'CP850'
p6014
stRp6015
ag3
(g4
g5
(dp6016
g4554
S'RevCharsetBits'
p6017
sg4556
S'31'
p6018
sg20
S'CP858'
p6019
stRp6020
atRp6021
sg15
S'RevStatus'
p6022
sg4554
g3
(g8
g9
(lp6023
g3
(g4
g5
(dp6024
g15
S'RevStatusBits'
p6025
sg4556
S'0x00FFFFFF'
p6026
sg20
S'Bits used to store revision status'
p6027
stRp6028
ag3
(g4
g5
(dp6029
g15
S'RevCharsetBits'
p6030
sg4556
S'0x7F000000'
p6031
sg20
S'Bits used to store revision charset (high 8 bits). Values below have been shifted right 24 bits'
p6032
stRp6033
atRp6034
sg4629
S'A revision status'
p6035
sg17
S'bitmask'
p6036
sg20
S'Lazy copy, task stream promotion, and charset status'
p6037
stRp6038
ag3
(g4
g5
(dp6039
g4629
S'Type of reviewer'
p6040
sg17
S'integer'
p6041
sg15
S'Reviewer'
p6042
sg20
S'The type of reviewer. Currently there is only one type of\n\t\treviewer and 0 is the only valid value.'
p6043
stRp6044
ag3
(g4
g5
(dp6045
g17
S'flag'
p6046
sg4629
S'The state of the scan'
p6047
sg4551
g3
(g8
g9
(lp6048
g3
(g4
g5
(dp6049
g4556
S'0'
sg20
S'unset'
p6050
stRp6051
ag3
(g4
g5
(dp6052
g4556
S'1'
sg20
S'run'
p6053
stRp6054
ag3
(g4
g5
(dp6055
g4556
S'2'
sg20
S'paused'
p6056
stRp6057
ag3
(g4
g5
(dp6058
g4556
S'3'
sg20
S'done'
p6059
stRp6060
ag3
(g4
g5
(dp6061
g4556
S'4'
sg20
S'error'
p6062
stRp6063
ag3
(g4
g5
(dp6064
g4556
S'5'
sg20
S'busy'
p6065
stRp6066
atRp6067
sg15
S'ScanState'
p6068
sg20
S'The state of the scan'
p6069
stRp6070
ag3
(g4
g5
(dp6071
g17
S'flag'
p6072
sg4629
S'The type of server'
p6073
sg4551
g3
(g8
g9
(lp6074
g3
(g4
g5
(dp6075
g4556
S'0'
sg20
S'server'
p6076
stRp6077
ag3
(g4
g5
(dp6078
g4556
S'1'
sg20
S'proxy'
p6079
stRp6080
ag3
(g4
g5
(dp6081
g4556
S'2'
sg20
S'broker'
p6082
stRp6083
ag3
(g4
g5
(dp6084
g4556
S'3'
sg20
S'identifier'
p6085
stRp6086
ag3
(g4
g5
(dp6087
g4556
S'4'
sg20
S'admin'
p6088
stRp6089
ag3
(g4
g5
(dp6090
g4556
S'5'
sg20
S'connector'
p6091
stRp6092
atRp6093
sg15
S'ServerType'
p6094
sg20
S'The type of server'
p6095
stRp6096
ag3
(g4
g5
(dp6097
g4551
g3
(g8
g9
(lp6098
g3
(g4
g5
(dp6099
g4554
S'Service Set Value'
p6100
sg4556
S'0x0903'
p6101
sg20
S'standard \t\t( db-read | db-write | rmt-depot | rmt-journal )'
p6102
stRp6103
ag3
(g4
g5
(dp6104
g4554
S'Service Set Value'
p6105
sg4556
S'0x0945'
p6106
sg20
S'replica \t\t( db-read | db-replication | file-replication | rmt-depot | rmt-journal )'
p6107
stRp6108
ag3
(g4
g5
(dp6109
g4554
S'Service Set Value'
p6110
sg4556
S'0x0030'
p6111
sg20
S'broker ( brokering | forwarding )'
p6112
stRp6113
ag3
(g4
g5
(dp6114
g4554
S'Service Set Value'
p6115
sg4556
S'0x00A0'
p6116
sg20
S'proxy ( forwarding | file-cacheing )'
p6117
stRp6118
ag3
(g4
g5
(dp6119
g4554
S'Service Set Value'
p6120
sg4556
S'0x09E5'
p6121
sg20
S'forwarding-replica ( db-read | db-replication | forwarding | file-replication | file-cacheing | rmt-depot | rmt-journal )'
p6122
stRp6123
ag3
(g4
g5
(dp6124
g4554
S'Service Set Value'
p6125
sg4556
S'0x094D'
p6126
sg20
S'build-server ( db-read | db-replication | bound-clients | file-replication | rmt-depot | rmt-journal )'
p6127
stRp6128
ag3
(g4
g5
(dp6129
g4554
S'Service Set Value'
p6130
sg4556
S'0x0203'
p6131
sg20
S'P4AUTH ( db-read | db-write | rmt-auth )'
p6132
stRp6133
ag3
(g4
g5
(dp6134
g4554
S'Service Set Value'
p6135
sg4556
S'0x0403'
p6136
sg20
S'P4CHANGE ( db-read | db-write | rmt-change )'
p6137
stRp6138
ag3
(g4
g5
(dp6139
g4554
S'Service Set Value'
p6140
sg4556
S'0x19ED'
p6141
sg20
S'edge-server ( db-read | db-replication | bound-clients | forwarding | file-replication | file-cacheing | rmt-depot | rmt-journal | local-opens )'
p6142
stRp6143
ag3
(g4
g5
(dp6144
g4554
S'Service Set Value'
p6145
sg4556
S'0x2F03'
p6146
sg20
S'commit-server ( db-read | db-write | rmt-depot | rmt-journal | rmt-change | rmt-auth | commit-server )'
p6147
stRp6148
ag3
(g4
g5
(dp6149
g4554
S'Service Set Value'
p6150
sg4556
S'0x6F03'
p6151
sg20
S'depot-master ( db-read | db-write | rmt-depot | rmt-journal | rmt-change | rmt-auth | commit-server | p4zk-managed )'
p6152
stRp6153
ag3
(g4
g5
(dp6154
g4554
S'Service Set Value'
p6155
sg4556
S'0xC945'
p6156
sg20
S'depot-standby ( db-read | db-replication | file-replication | rmt-depot | rmt-journal | journal-copy | p4zk-managed )'
p6157
stRp6158
ag3
(g4
g5
(dp6159
g4554
S'Service Set Value'
p6160
sg4556
S'0x59ED'
p6161
sg20
S'workspace-server ( db-read | db-replication | bound-clients | forwarding | file-replication | file-cacheing | rmt-depot | rmt-journal | local-opens | p4zk-managed )'
p6162
stRp6163
ag3
(g4
g5
(dp6164
g4554
S'Service Set Value'
p6165
sg4556
S'0x8945'
p6166
sg20
S'standby ( db-read | db-replication | file-replication | rmt-depot | rmt-journal | journal-copy )'
p6167
stRp6168
ag3
(g4
g5
(dp6169
g4554
S'Service Set Value'
p6170
sg4556
S'0x89E5'
p6171
sg20
S'forwarding-standby ( db-read | db-replication | forwarding | file-replication | file-cacheing | rmt-depot | rmt-journal | journal-copy )'
p6172
stRp6173
ag3
(g4
g5
(dp6174
g4554
S'Service Set Value'
p6175
sg4556
S'0x4030'
p6176
sg20
S'workspace-router ( brokering | forwarding | p4zk-managed )'
p6177
stRp6178
ag3
(g4
g5
(dp6179
g4554
S'Service Set Value'
p6180
sg4556
S'0x10003'
p6181
sg20
S'local ( db-read | db-write | dvcs-local )'
p6182
stRp6183
ag3
(g4
g5
(dp6184
g4554
S'Service Set Value'
p6185
sg4556
S'0x20000'
p6186
sg20
S'cluster ( cluster-id )'
p6187
stRp6188
ag3
(g4
g5
(dp6189
g4554
S'Service Set Value'
p6190
sg4556
S'0x40000'
p6191
sg20
S'zookeeper-server ( zookeeper-server )'
p6192
stRp6193
ag3
(g4
g5
(dp6194
g4554
S'Service Set Value'
p6195
sg4556
S'0x80000'
p6196
sg20
S'hxca-server ( hxca-server )'
p6197
stRp6198
ag3
(g4
g5
(dp6199
g4554
S'Service Set Value'
p6200
sg4556
S'0x100000'
p6201
sg20
S'git-connector'
p6202
stRp6203
ag3
(g4
g5
(dp6204
g4554
S'Service Property'
p6205
sg4556
S'0x0001'
p6206
sg20
S'db-read'
p6207
stRp6208
ag3
(g4
g5
(dp6209
g4554
S'Service Property'
p6210
sg4556
S'0x0002'
p6211
sg20
S'db-write'
p6212
stRp6213
ag3
(g4
g5
(dp6214
g4554
S'Service Property'
p6215
sg4556
S'0x0004'
p6216
sg20
S'db-replication'
p6217
stRp6218
ag3
(g4
g5
(dp6219
g4554
S'Service Property'
p6220
sg4556
S'0x0008'
p6221
sg20
S'bound-clients'
p6222
stRp6223
ag3
(g4
g5
(dp6224
g4554
S'Service Property'
p6225
sg4556
S'0x0010'
p6226
sg20
S'brokering'
p6227
stRp6228
ag3
(g4
g5
(dp6229
g4554
S'Service Property'
p6230
sg4556
S'0x0020'
p6231
sg20
S'forwarding'
p6232
stRp6233
ag3
(g4
g5
(dp6234
g4554
S'Service Property'
p6235
sg4556
S'0x0040'
p6236
sg20
S'file-replication'
p6237
stRp6238
ag3
(g4
g5
(dp6239
g4554
S'Service Property'
p6240
sg4556
S'0x0080'
p6241
sg20
S'file-cacheing'
p6242
stRp6243
ag3
(g4
g5
(dp6244
g4554
S'Service Property'
p6245
sg4556
S'0x0100'
p6246
sg20
S'rmt-depot'
p6247
stRp6248
ag3
(g4
g5
(dp6249
g4554
S'Service Property'
p6250
sg4556
S'0x0200'
p6251
sg20
S'rmt-auth'
p6252
stRp6253
ag3
(g4
g5
(dp6254
g4554
S'Service Property'
p6255
sg4556
S'0x0400'
p6256
sg20
S'rmt-change'
p6257
stRp6258
ag3
(g4
g5
(dp6259
g4554
S'Service Property'
p6260
sg4556
S'0x0800'
p6261
sg20
S'rmt-journal'
p6262
stRp6263
ag3
(g4
g5
(dp6264
g4554
S'Service Property'
p6265
sg4556
S'0x1000'
p6266
sg20
S'local-opens'
p6267
stRp6268
ag3
(g4
g5
(dp6269
g4554
S'Service Property'
p6270
sg4556
S'0x2000'
p6271
sg20
S'commit-server'
p6272
stRp6273
ag3
(g4
g5
(dp6274
g4554
S'Service Property'
p6275
sg4556
S'0x4000'
p6276
sg20
S'p4zk-managed'
p6277
stRp6278
ag3
(g4
g5
(dp6279
g4554
S'Service Property'
p6280
sg4556
S'0x8000'
p6281
sg20
S'journal-copy'
p6282
stRp6283
ag3
(g4
g5
(dp6284
g4554
S'Service Property'
p6285
sg4556
S'0x10000'
p6286
sg20
S'dvcs-local'
p6287
stRp6288
ag3
(g4
g5
(dp6289
g4554
S'Service Property'
p6290
sg4556
S'0x20000'
p6291
sg20
S'cluster-id'
p6292
stRp6293
ag3
(g4
g5
(dp6294
g4554
S'Service Property'
p6295
sg4556
S'0x40000'
p6296
sg20
S'zookeeper'
p6297
stRp6298
ag3
(g4
g5
(dp6299
g4554
S'Service Property'
p6300
sg4556
S'0x80000'
p6301
sg20
S'hxca'
p6302
stRp6303
ag3
(g4
g5
(dp6304
g4554
S'Service Property'
p6305
sg4556
S'0x80000'
p6306
sg20
S'Git-Connector'
p6307
stRp6308
atRp6309
sg15
S'ServerServiceType'
p6310
sg4554
g3
(g8
g9
(lp6311
g3
(g4
g5
(dp6312
g15
S'Service Set Value'
p6313
sg4556
S'None'
p6314
sg20
S"The server service type setting is generated by OR'ing the generic ServerServiceProperties defined below"
p6315
stRp6316
ag3
(g4
g5
(dp6317
g15
S'Service Property'
p6318
sg4556
S'None'
p6319
sg20
S'ServerServiceProperties: Bits used to identify generic server properties'
p6320
stRp6321
atRp6322
sg4629
S'The type of server service'
p6323
sg17
S'bitmask'
p6324
sg20
S'The services offered by a type of service.'
p6325
stRp6326
ag3
(g4
g5
(dp6327
g4551
g3
(g4
g5
(dp6328
g4554
S'Server Option Flag'
p6329
sg4556
S'0x0001'
p6330
sg20
S'mandatory'
p6331
stRp6332
sg15
S'ServerOptionsType'
p6333
sg4554
g3
(g4
g5
(dp6334
g15
S'Server Option Flag'
p6335
sg4556
S'None'
p6336
sg20
S"The server options service type setting is generated by OR'ing the generic ServerOptionFlags defined below"
p6337
stRp6338
sg4629
S'Options for server definitions'
p6339
sg17
S'bitmask'
p6340
sg20
S'Option Flags for server definitions.'
p6341
stRp6342
ag3
(g4
g5
(dp6343
g4629
S'Encoded SHA1'
p6344
sg17
S'string'
p6345
sg15
S'SHA1'
p6346
sg20
S'20 byte SHA1 digest of a block of text'
p6347
stRp6348
ag3
(g4
g5
(dp6349
g17
S'flag'
p6350
sg4629
S'A spec type'
p6351
sg4551
g3
(g8
g9
(lp6352
g3
(g4
g5
(dp6353
g4556
S"98 (ASCII 'b')"
p6354
sg20
S'branch'
p6355
stRp6356
ag3
(g4
g5
(dp6357
g4556
S"67 (ASCII 'C')"
p6358
sg20
S'change'
p6359
stRp6360
ag3
(g4
g5
(dp6361
g4556
S"99 (ASCII 'c')"
p6362
sg20
S'client'
p6363
stRp6364
ag3
(g4
g5
(dp6365
g4556
S"100 (ASCII 'd')"
p6366
sg20
S'depot'
p6367
stRp6368
ag3
(g4
g5
(dp6369
g4556
S"101 (ASCII 'e')"
p6370
sg20
S'spec'
p6371
stRp6372
ag3
(g4
g5
(dp6373
g4556
S"69 (ASCII 'E')"
p6374
sg20
S'extension'
p6375
stRp6376
ag3
(g4
g5
(dp6377
g4556
S"103 (ASCII 'g')"
p6378
sg20
S'group'
p6379
stRp6380
ag3
(g4
g5
(dp6381
g4556
S"106 (ASCII 'j')"
p6382
sg20
S'job'
p6383
stRp6384
ag3
(g4
g5
(dp6385
g4556
S"108 (ASCII 'l')"
p6386
sg20
S'label'
p6387
stRp6388
ag3
(g4
g5
(dp6389
g4556
S"68 (ASCII 'D')"
p6390
sg20
S'ldap'
p6391
stRp6392
ag3
(g4
g5
(dp6393
g4556
S"76 (ASCII 'L')"
p6394
sg20
S'license'
p6395
stRp6396
ag3
(g4
g5
(dp6397
g4556
S"112 (ASCII 'p')"
p6398
sg20
S'protect'
p6399
stRp6400
ag3
(g4
g5
(dp6401
g4556
S"114 (ASCII 'r')"
p6402
sg20
S'remote'
p6403
stRp6404
ag3
(g4
g5
(dp6405
g4556
S"82 (ASCII 'R')"
p6406
sg20
S'repo'
p6407
stRp6408
ag3
(g4
g5
(dp6409
g4556
S"83 (ASCII 'S')"
p6410
sg20
S'server'
p6411
stRp6412
ag3
(g4
g5
(dp6413
g4556
S"115 (ASCII 's')"
p6414
sg20
S'stream'
p6415
stRp6416
ag3
(g4
g5
(dp6417
g4556
S"84 (ASCII 'T')"
p6418
sg20
S'trigger'
p6419
stRp6420
ag3
(g4
g5
(dp6421
g4556
S"116 (ASCII 't')"
p6422
sg20
S'typemap'
p6423
stRp6424
ag3
(g4
g5
(dp6425
g4556
S"117 (ASCII 'u')"
p6426
sg20
S'user'
p6427
stRp6428
atRp6429
sg15
S'SpecType'
p6430
sg20
S'A integer value representing the type of a spec'
p6431
stRp6432
ag3
(g4
g5
(dp6433
g17
S'flag'
p6434
sg4629
S'Stash type'
p6435
sg4551
g3
(g8
g9
(lp6436
g3
(g4
g5
(dp6437
g4556
S'0'
sg20
S'switch: A shelf with work-in-progress for a particular stream/branch'
p6438
stRp6439
ag3
(g4
g5
(dp6440
g4556
S'1'
sg20
S"tangent: Work-in-progress relocated by 'p4 fetch -t'. Consumed and removed by 'p4 resubmit'"
p6441
stRp6442
atRp6443
sg15
S'StashType'
p6444
sg20
S'Stash type'
p6445
stRp6446
ag3
(g4
g5
(dp6447
g17
S'flag'
p6448
sg4629
S'Server specification view type'
p6449
sg4551
g3
(g8
g9
(lp6450
g3
(g4
g5
(dp6451
g4556
S'0'
sg20
S'Client VersionData Filter'
p6452
stRp6453
ag3
(g4
g5
(dp6454
g4556
S'1'
sg20
S'Revision VersionData Filter'
p6455
stRp6456
ag3
(g4
g5
(dp6457
g4556
S'2'
sg20
S'Archive VersionData Filter'
p6458
stRp6459
ag3
(g4
g5
(dp6460
g4556
S'3'
sg20
S'Authorized Addresses'
p6461
stRp6462
ag3
(g4
g5
(dp6463
g4556
S'4'
sg20
S'Repos that should be polled to keep their caches up-to-date'
p6464
stRp6465
atRp6466
sg15
S'SvrViewType'
p6467
sg20
S'Server specification view type'
p6468
stRp6469
ag3
(g4
g5
(dp6470
g4551
g3
(g8
g9
(lp6471
g3
(g4
g5
(dp6472
g4554
S'Stream Status'
p6473
sg4556
S'0x0000'
p6474
sg20
S'Clear cache'
p6475
stRp6476
ag3
(g4
g5
(dp6477
g4554
S'Stream Status'
p6478
sg4556
S'0x0001'
p6479
sg20
S'Needs copy'
p6480
stRp6481
ag3
(g4
g5
(dp6482
g4554
S'Stream Status'
p6483
sg4556
S'0x0002'
p6484
sg20
S'Copy up-to-date'
p6485
stRp6486
ag3
(g4
g5
(dp6487
g4554
S'Stream Status'
p6488
sg4556
S'0x0004'
p6489
sg20
S'Needs merge'
p6490
stRp6491
ag3
(g4
g5
(dp6492
g4554
S'Stream Status'
p6493
sg4556
S'0x0008'
p6494
sg20
S'Merge up-to-date'
p6495
stRp6496
atRp6497
sg15
S'StreamStatus'
p6498
sg4554
g3
(g4
g5
(dp6499
g15
S'Stream Status'
p6500
sg4556
S'Copy: 0x0003, Merge: 0x000C'
p6501
sg20
S'Bits used to store the stream integration status'
p6502
stRp6503
sg4629
S'Stream integration status'
p6504
sg17
S'bitmask'
p6505
sg20
S'The stream integration status.'
p6506
stRp6507
ag3
(g4
g5
(dp6508
g17
S'flag'
p6509
sg4629
S'Type of stream path'
p6510
sg4551
g3
(g8
g9
(lp6511
g3
(g4
g5
(dp6512
g4556
S'0'
sg20
S'share'
p6513
stRp6514
ag3
(g4
g5
(dp6515
g4556
S'1'
sg20
S'isolate'
p6516
stRp6517
ag3
(g4
g5
(dp6518
g4556
S'2'
sg20
S'import'
p6519
stRp6520
ag3
(g4
g5
(dp6521
g4556
S'3'
sg20
S'exclude'
p6522
stRp6523
ag3
(g4
g5
(dp6524
g4556
S'4'
sg20
S'remapped'
p6525
stRp6526
ag3
(g4
g5
(dp6527
g4556
S'5'
sg20
S'ignored'
p6528
stRp6529
ag3
(g4
g5
(dp6530
g4556
S'6'
sg20
S'inclusive'
p6531
stRp6532
ag3
(g4
g5
(dp6533
g4556
S'7'
sg20
S'import+'
p6534
stRp6535
atRp6536
sg15
S'StreamPathType'
p6537
sg20
S'The path type for file paths in a stream view.'
p6538
stRp6539
ag3
(g4
g5
(dp6540
g17
S'flag'
p6541
sg4629
S'Type of stream'
p6542
sg4551
g3
(g8
g9
(lp6543
g3
(g4
g5
(dp6544
g4556
S'0'
sg20
S'mainline'
p6545
stRp6546
ag3
(g4
g5
(dp6547
g4556
S'1'
sg20
S'release'
p6548
stRp6549
ag3
(g4
g5
(dp6550
g4556
S'2'
sg20
S'development'
p6551
stRp6552
ag3
(g4
g5
(dp6553
g4556
S'3'
sg20
S'virtual'
p6554
stRp6555
ag3
(g4
g5
(dp6556
g4556
S'4'
sg20
S'task'
p6557
stRp6558
ag3
(g4
g5
(dp6559
g4556
S'5'
sg20
S'task - unloaded'
p6560
stRp6561
atRp6562
sg15
S'StreamType'
p6563
sg20
S'The type of stream.'
p6564
stRp6565
ag3
(g4
g5
(dp6566
g17
S'flag'
p6567
sg4629
S'Strength check of a password'
p6568
sg4551
g3
(g8
g9
(lp6569
g3
(g4
g5
(dp6570
g4556
S'0'
sg20
S'Strength unknown'
p6571
stRp6572
ag3
(g4
g5
(dp6573
g4556
S'1'
sg20
S'Password is strong'
p6574
stRp6575
ag3
(g4
g5
(dp6576
g4556
S'2'
sg20
S'Unset'
p6577
stRp6578
atRp6579
sg15
S'Strength'
p6580
sg20
S"Whether or not a user's password has been tested for strength."
p6581
stRp6582
ag3
(g4
g5
(dp6583
S'restriction'
p6584
g3
(g8
g9
(lp6585
S'Cannot be empty'
p6586
aS'Cannot consist solely of a dash (-)'
p6587
aS'Cannot be all-numeric'
p6588
aS'Cannot contain non-printable characters'
p6589
aS'Spaces are replaced with underscores ( _ )'
p6590
aS'Revision characters (# and @) are prohibited'
p6591
aS'Slashes (/) are prohibited'
p6592
aS'Wildcards (... and *) are prohibited'
p6593
atRp6594
sg4629
S'A string up to 1024 characters long'
p6595
sg17
S'string'
p6596
sg15
S'String'
p6597
sg20
S'A string up to 1024 characters in length.  Depending on the \n\t\tcontext in which the string is used, restrictions \n\t\tmay apply. Strings are often used as key fields in the \n\t\tschema.'
p6598
stRp6599
ag3
(g4
g5
(dp6600
g17
S'flag'
p6601
sg4629
S'Tamper-state of workspace file'
p6602
sg4551
g3
(g8
g9
(lp6603
g3
(g4
g5
(dp6604
g4556
S'0'
sg20
S'Do not check for tampering'
p6605
stRp6606
ag3
(g4
g5
(dp6607
g4556
S'1'
sg20
S'Check for tampering'
p6608
stRp6609
ag3
(g4
g5
(dp6610
g4556
S'2'
sg20
S'Tamper-check failed'
p6611
stRp6612
atRp6613
sg15
S'TamperCheck'
p6614
sg20
S'Indicates the tamper-state of a file in a workspace. This\n\t\tis used to decide whether or not to check the file, and\n\t\tif checked, to hold the result.'
p6615
stRp6616
ag3
(g4
g5
(dp6617
g4629
S'A string value'
p6618
sg17
S'string'
p6619
sg15
S'Text'
p6620
sg20
S'A text string value - used to hold longer blocks of text.'
p6621
stRp6622
ag3
(g4
g5
(dp6623
g4629
S'The id of a group of traits'
p6624
sg17
S'integer'
p6625
sg15
S'TraitLot'
p6626
sg20
S'An integer identifying a group of traits which may be\n\t\tshared by several revisions.'
p6627
stRp6628
ag3
(g4
g5
(dp6629
g17
S'flag'
p6630
sg4629
S'A type of trait'
p6631
sg4551
g3
(g8
g9
(lp6632
g3
(g4
g5
(dp6633
g4556
S'0'
sg20
S'Special trait for reference counting'
p6634
stRp6635
ag3
(g4
g5
(dp6636
g4556
S'1'
sg20
S'Binary trait'
p6637
stRp6638
ag3
(g4
g5
(dp6639
g4556
S'2'
sg20
S'Binary trait that gets propagated'
p6640
stRp6641
atRp6642
sg15
S'TraitType'
p6643
sg20
S'The type of trait.'
p6644
stRp6645
ag3
(g4
g5
(dp6646
g17
S'flag'
p6647
sg4629
S'A type of trigger'
p6648
sg4551
g3
(g8
g9
(lp6649
g3
(g4
g5
(dp6650
g4556
S'0'
sg20
S'change-submit (formerly pre-submit triggers)'
p6651
stRp6652
ag3
(g4
g5
(dp6653
g4556
S'1'
sg20
S'change-content'
p6654
stRp6655
ag3
(g4
g5
(dp6656
g4556
S'2'
sg20
S'change-commit'
p6657
stRp6658
ag3
(g4
g5
(dp6659
g4556
S'3'
sg20
S'form-in'
p6660
stRp6661
ag3
(g4
g5
(dp6662
g4556
S'4'
sg20
S'form-out'
p6663
stRp6664
ag3
(g4
g5
(dp6665
g4556
S'5'
sg20
S'form-save'
p6666
stRp6667
ag3
(g4
g5
(dp6668
g4556
S'6'
sg20
S'form-delete'
p6669
stRp6670
ag3
(g4
g5
(dp6671
g4556
S'7'
sg20
S'form-commit'
p6672
stRp6673
ag3
(g4
g5
(dp6674
g4556
S'8'
sg20
S'auth-check'
p6675
stRp6676
ag3
(g4
g5
(dp6677
g4556
S'9'
sg20
S'auth-check-sso'
p6678
stRp6679
ag3
(g4
g5
(dp6680
g4556
S'10'
p6681
sg20
S'auth-set'
p6682
stRp6683
ag3
(g4
g5
(dp6684
g4556
S'11'
p6685
sg20
S'fix-add'
p6686
stRp6687
ag3
(g4
g5
(dp6688
g4556
S'12'
p6689
sg20
S'fix-delete'
p6690
stRp6691
ag3
(g4
g5
(dp6692
g4556
S'13'
p6693
sg20
S'archive'
p6694
stRp6695
ag3
(g4
g5
(dp6696
g4556
S'14'
p6697
sg20
S'shelve-submit'
p6698
stRp6699
ag3
(g4
g5
(dp6700
g4556
S'15'
p6701
sg20
S'shelve-commit'
p6702
stRp6703
ag3
(g4
g5
(dp6704
g4556
S'16'
p6705
sg20
S'shelve-delete'
p6706
stRp6707
ag3
(g4
g5
(dp6708
g4556
S'17'
p6709
sg20
S'service-check'
p6710
stRp6711
ag3
(g4
g5
(dp6712
g4556
S'18'
p6713
sg20
S'edge-submit'
p6714
stRp6715
ag3
(g4
g5
(dp6716
g4556
S'19'
p6717
sg20
S'edge-content'
p6718
stRp6719
ag3
(g4
g5
(dp6720
g4556
S'20'
p6721
sg20
S'change-failed'
p6722
stRp6723
ag3
(g4
g5
(dp6724
g4556
S'21'
p6725
sg20
S'command'
p6726
stRp6727
ag3
(g4
g5
(dp6728
g4556
S'22'
p6729
sg20
S'push-submit'
p6730
stRp6731
ag3
(g4
g5
(dp6732
g4556
S'23'
p6733
sg20
S'push-content'
p6734
stRp6735
ag3
(g4
g5
(dp6736
g4556
S'24'
p6737
sg20
S'push-commit'
p6738
stRp6739
ag3
(g4
g5
(dp6740
g4556
S'25'
p6741
sg20
S'journal-rotate'
p6742
stRp6743
ag3
(g4
g5
(dp6744
g4556
S'26'
p6745
sg20
S'journal-rotate-lock'
p6746
stRp6747
ag3
(g4
g5
(dp6748
g4556
S'27'
p6749
sg20
S'graph-push-start'
p6750
stRp6751
ag3
(g4
g5
(dp6752
g4556
S'28'
p6753
sg20
S'graph-push-complete'
p6754
stRp6755
ag3
(g4
g5
(dp6756
g4556
S'29'
p6757
sg20
S'graph-push-reference'
p6758
stRp6759
ag3
(g4
g5
(dp6760
g4556
S'30'
p6761
sg20
S'graph-push-reference-complete'
p6762
stRp6763
ag3
(g4
g5
(dp6764
g4556
S'31'
p6765
sg20
S'graph-lfs-push'
p6766
stRp6767
ag3
(g4
g5
(dp6768
g4556
S'32'
p6769
sg20
S'graph-fork-repo'
p6770
stRp6771
ag3
(g4
g5
(dp6772
g4556
S'33'
p6773
sg20
S'pull-archive'
p6774
stRp6775
ag3
(g4
g5
(dp6776
g4556
S'34'
p6777
sg20
S'auth-pre-2fa'
p6778
stRp6779
ag3
(g4
g5
(dp6780
g4556
S'35'
p6781
sg20
S'auth-init-2fa'
p6782
stRp6783
ag3
(g4
g5
(dp6784
g4556
S'36'
p6785
sg20
S'auth-check-2fa'
p6786
stRp6787
ag3
(g4
g5
(dp6788
g4556
S'37'
p6789
sg20
S'bgtask'
p6790
stRp6791
ag3
(g4
g5
(dp6792
g4556
S'38'
p6793
sg20
S'auth-invalidate'
p6794
stRp6795
ag3
(g4
g5
(dp6796
g4556
S'39'
p6797
sg20
S'global-extcfg'
p6798
stRp6799
ag3
(g4
g5
(dp6800
g4556
S'40'
p6801
sg20
S'auth-pre-sso'
p6802
stRp6803
ag3
(g4
g5
(dp6804
g4556
S'41'
p6805
sg20
S'failed-over'
p6806
stRp6807
ag3
(g4
g5
(dp6808
g4556
S'42'
p6809
sg20
S'extension-run'
p6810
stRp6811
ag3
(g4
g5
(dp6812
g4556
S'43'
p6813
sg20
S'heartbeat-missing'
p6814
stRp6815
ag3
(g4
g5
(dp6816
g4556
S'44'
p6817
sg20
S'heartbeat-resumed'
p6818
stRp6819
ag3
(g4
g5
(dp6820
g4556
S'45'
p6821
sg20
S'heartbeat-dead'
p6822
stRp6823
atRp6824
sg15
S'Trigger'
p6825
sg20
S'The type of a trigger.'
p6826
stRp6827
ag3
(g4
g5
(dp6828
g17
S'flag'
p6829
sg4629
S'Upgrade State'
p6830
sg4551
g3
(g8
g9
(lp6831
g3
(g4
g5
(dp6832
g4556
S'0'
sg20
S'upgrade needed'
p6833
stRp6834
ag3
(g4
g5
(dp6835
g4556
S'1'
sg20
S'upgrade pending'
p6836
stRp6837
ag3
(g4
g5
(dp6838
g4556
S'2'
sg20
S'upgrade running'
p6839
stRp6840
ag3
(g4
g5
(dp6841
g4556
S'3'
sg20
S'upgrade completed'
p6842
stRp6843
ag3
(g4
g5
(dp6844
g4556
S'4'
sg20
S'isolated upgrade success'
p6845
stRp6846
ag3
(g4
g5
(dp6847
g4556
S'5'
sg20
S'upgrade failed'
p6848
stRp6849
atRp6850
sg15
S'UpgradeState'
p6851
sg20
S'upgrade state'
p6852
stRp6853
ag3
(g4
g5
(dp6854
g4629
S'A user or group name'
p6855
sg20
S'The name of a Helix Server user or group.'
p6856
sg17
S'string'
p6857
sg15
S'User'
p6858
sg252
S'String'
p6859
stRp6860
ag3
(g4
g5
(dp6861
g17
S'flag'
p6862
sg4629
S'User Authentication Type'
p6863
sg4551
g3
(g8
g9
(lp6864
g3
(g4
g5
(dp6865
g4556
S'0'
sg20
S'perforce'
p6866
stRp6867
ag3
(g4
g5
(dp6868
g4556
S'1'
sg20
S'ldap'
p6869
stRp6870
ag3
(g4
g5
(dp6871
g4556
S'16'
p6872
sg20
S'perforce+2fa'
p6873
stRp6874
ag3
(g4
g5
(dp6875
g4556
S'17'
p6876
sg20
S'ldap+2fa'
p6877
stRp6878
atRp6879
sg15
S'UserAuthType'
p6880
sg20
S'The AuthMethod setting for the user.'
p6881
stRp6882
ag3
(g4
g5
(dp6883
g17
S'flag'
p6884
sg4629
S'User functionality level'
p6885
sg4551
g3
(g8
g9
(lp6886
g3
(g4
g5
(dp6887
g4556
S'0'
sg20
S'standard'
p6888
stRp6889
ag3
(g4
g5
(dp6890
g4556
S'1'
sg20
S'service'
p6891
stRp6892
ag3
(g4
g5
(dp6893
g4556
S'2'
sg20
S'operator'
p6894
stRp6895
atRp6896
sg15
S'UserLevel'
p6897
sg20
S'User functionality level'
p6898
stRp6899
ag3
(g4
g5
(dp6900
g4551
g3
(g8
g9
(lp6901
g3
(g4
g5
(dp6902
g4554
S'UserTypeBits'
p6903
sg15
S'User'
p6904
sg4556
S'0x0001'
p6905
sg20
S'User is an ordinary user'
p6906
stRp6907
ag3
(g4
g5
(dp6908
g4554
S'UserTypeBits'
p6909
sg15
S'SubGroup'
p6910
sg4556
S'0x0002'
p6911
sg20
S'Group is a sub-group'
p6912
stRp6913
ag3
(g4
g5
(dp6914
g4554
S'UserTypeBits'
p6915
sg15
S'Owner'
p6916
sg4556
S'0x0004'
p6917
sg20
S'User is the owner of a group'
p6918
stRp6919
atRp6920
sg15
S'UserType'
p6921
sg4554
g3
(g4
g5
(dp6922
g15
S'UserTypeBits'
p6923
sg4556
S'0x0007'
p6924
sg20
S'Bits used to store the role of a user in a group'
p6925
stRp6926
sg4629
S'The role of a user within a group'
p6927
sg17
S'bitmask'
p6928
sg20
S'The role of a user (or group) within a group.'
p6929
stRp6930
ag3
(g4
g5
(dp6931
g4629
S'A user or group name with wildcards'
p6932
sg20
S'A user/group name that may contain wildcards (*)'
p6933
sg17
S'string'
p6934
sg15
S'UserWild'
p6935
sg252
S'User'
p6936
stRp6937
ag3
(g4
g5
(dp6938
g4629
S'A number or a string'
p6939
sg17
S'string'
p6940
sg15
S'Value'
p6941
sg20
S'A number, stored in a string, or a string'
p6942
stRp6943
ag3
(g4
g5
(dp6944
g4551
g3
(g8
g9
(lp6945
g3
(g4
g5
(dp6946
g4554
S'WorkStatusBits'
p6947
sg15
S'kmerged'
p6948
sg4556
S'0x0001'
p6949
sg20
S'resolved merged ktext'
p6950
stRp6951
ag3
(g4
g5
(dp6952
g4554
S'WorkCharsetBits'
p6953
sg4556
S'0'
sg20
S'NONE'
p6954
stRp6955
ag3
(g4
g5
(dp6956
g4554
S'WorkCharsetBits'
p6957
sg4556
S'1'
sg20
S'UTF_8'
p6958
stRp6959
ag3
(g4
g5
(dp6960
g4554
S'WorkCharsetBits'
p6961
sg4556
S'2'
sg20
S'ISO8859_1'
p6962
stRp6963
ag3
(g4
g5
(dp6964
g4554
S'WorkCharsetBits'
p6965
sg4556
S'3'
sg20
S'UTF_16'
p6966
stRp6967
ag3
(g4
g5
(dp6968
g4554
S'WorkCharsetBits'
p6969
sg4556
S'4'
sg20
S'SHIFTJIS'
p6970
stRp6971
ag3
(g4
g5
(dp6972
g4554
S'WorkCharsetBits'
p6973
sg4556
S'5'
sg20
S'EUCJP'
p6974
stRp6975
ag3
(g4
g5
(dp6976
g4554
S'WorkCharsetBits'
p6977
sg4556
S'6'
sg20
S'WIN_US_ANSI'
p6978
stRp6979
ag3
(g4
g5
(dp6980
g4554
S'WorkCharsetBits'
p6981
sg4556
S'7'
sg20
S'WIN_US_OEM'
p6982
stRp6983
ag3
(g4
g5
(dp6984
g4554
S'WorkCharsetBits'
p6985
sg4556
S'8'
sg20
S'MACOS_ROMAN'
p6986
stRp6987
ag3
(g4
g5
(dp6988
g4554
S'WorkCharsetBits'
p6989
sg4556
S'9'
sg20
S'ISO8859_15'
p6990
stRp6991
ag3
(g4
g5
(dp6992
g4554
S'WorkCharsetBits'
p6993
sg4556
S'10'
p6994
sg20
S'ISO8859_5'
p6995
stRp6996
ag3
(g4
g5
(dp6997
g4554
S'WorkCharsetBits'
p6998
sg4556
S'11'
p6999
sg20
S'KOI8_R'
p7000
stRp7001
ag3
(g4
g5
(dp7002
g4554
S'WorkCharsetBits'
p7003
sg4556
S'12'
p7004
sg20
S'WIN_CP_1251'
p7005
stRp7006
ag3
(g4
g5
(dp7007
g4554
S'WorkCharsetBits'
p7008
sg4556
S'13'
p7009
sg20
S'UTF_16_LE'
p7010
stRp7011
ag3
(g4
g5
(dp7012
g4554
S'WorkCharsetBits'
p7013
sg4556
S'14'
p7014
sg20
S'UTF_16_BE'
p7015
stRp7016
ag3
(g4
g5
(dp7017
g4554
S'WorkCharsetBits'
p7018
sg4556
S'15'
p7019
sg20
S'UTF_16_LE_BOM'
p7020
stRp7021
ag3
(g4
g5
(dp7022
g4554
S'WorkCharsetBits'
p7023
sg4556
S'16'
p7024
sg20
S'UTF_16_BE_BOM'
p7025
stRp7026
ag3
(g4
g5
(dp7027
g4554
S'WorkCharsetBits'
p7028
sg4556
S'17'
p7029
sg20
S'UTF_16_BOM'
p7030
stRp7031
ag3
(g4
g5
(dp7032
g4554
S'WorkCharsetBits'
p7033
sg4556
S'18'
p7034
sg20
S'UTF_8_BOM'
p7035
stRp7036
ag3
(g4
g5
(dp7037
g4554
S'WorkCharsetBits'
p7038
sg4556
S'19'
p7039
sg20
S'UTF_32'
p7040
stRp7041
ag3
(g4
g5
(dp7042
g4554
S'WorkCharsetBits'
p7043
sg4556
S'20'
p7044
sg20
S'UTF_32_LE'
p7045
stRp7046
ag3
(g4
g5
(dp7047
g4554
S'WorkCharsetBits'
p7048
sg4556
S'21'
p7049
sg20
S'UTF_32_BE'
p7050
stRp7051
ag3
(g4
g5
(dp7052
g4554
S'WorkCharsetBits'
p7053
sg4556
S'22'
p7054
sg20
S'UTF_32_LE_BOM'
p7055
stRp7056
ag3
(g4
g5
(dp7057
g4554
S'WorkCharsetBits'
p7058
sg4556
S'23'
p7059
sg20
S'UTF_32_BE_BOM'
p7060
stRp7061
ag3
(g4
g5
(dp7062
g4554
S'WorkCharsetBits'
p7063
sg4556
S'24'
p7064
sg20
S'UTF_32_BOM'
p7065
stRp7066
ag3
(g4
g5
(dp7067
g4554
S'WorkCharsetBits'
p7068
sg4556
S'25'
p7069
sg20
S'UTF_8_UNCHECKED'
p7070
stRp7071
ag3
(g4
g5
(dp7072
g4554
S'WorkCharsetBits'
p7073
sg4556
S'26'
p7074
sg20
S'UTF_8_UNCHECKED_BOM'
p7075
stRp7076
ag3
(g4
g5
(dp7077
g4554
S'WorkCharsetBits'
p7078
sg4556
S'27'
p7079
sg20
S'CP949'
p7080
stRp7081
ag3
(g4
g5
(dp7082
g4554
S'WorkCharsetBits'
p7083
sg4556
S'28'
p7084
sg20
S'CP936'
p7085
stRp7086
ag3
(g4
g5
(dp7087
g4554
S'WorkCharsetBits'
p7088
sg4556
S'29'
p7089
sg20
S'CP950'
p7090
stRp7091
ag3
(g4
g5
(dp7092
g4554
S'WorkCharsetBits'
p7093
sg4556
S'30'
p7094
sg20
S'CP850'
p7095
stRp7096
ag3
(g4
g5
(dp7097
g4554
S'WorkCharsetBits'
p7098
sg4556
S'31'
p7099
sg20
S'CP858'
p7100
stRp7101
atRp7102
sg15
S'WorkStatus'
p7103
sg4554
g3
(g8
g9
(lp7104
g3
(g4
g5
(dp7105
g15
S'WorkStatusBits'
p7106
sg4556
S'0x00FFFFFF'
p7107
sg20
S'Working table status flags, WorkStatus Flags defined below'
p7108
stRp7109
ag3
(g4
g5
(dp7110
g15
S'WorkCharsetBits'
p7111
sg4556
S'0x7F000000'
p7112
sg20
S'Bits used to store working charset (high 8 bits). Values below have been shifted right 24 bits'
p7113
stRp7114
atRp7115
sg4629
S'Working table charset and status'
p7116
sg17
S'bitmask'
p7117
sg20
S'Working State Flags and Charset'
p7118
stRp7119
atRp7120
stRp7121
s.