(dp1
S'tables'
p2
ccopy_reg
_reconstructor
p3
(clib.sqUtils
Storage
p4
c__builtin__
dict
p5
(dp6
S'table'
p7
g3
(clib.sqUtils
Lst
p8
c__builtin__
list
p9
(lp10
g3
(g4
g5
(dp11
S'version'
p12
S'1'
sS'keying'
p13
S'serverName, name'
p14
sS'name'
p15
S'db.config'
p16
sS'type'
p17
S'Config'
p18
sS'lockseq'
p19
S'1'
sS'desc'
p20
S'Server configurations table'
p21
stRp22
ag3
(g4
g5
(dp23
g12
S'1'
sg13
S'name'
p24
sg15
S'db.counters'
p25
sg17
S'Counters'
p26
sg19
S'2'
sg20
S'Counters table'
p27
stRp28
ag3
(g4
g5
(dp29
g12
S'1'
sg13
S'name'
p30
sg15
S'db.nameval'
p31
sg17
S'Keys'
p32
sg19
S'3'
sg20
S'A table to store key/value pairs'
p33
stRp34
ag3
(g4
g5
(dp35
g12
S'0'
sg13
S'seq'
p36
sg15
S'db.logger'
p37
sg17
S'Logger'
p38
sg19
S'4'
sg20
S"Support for 'p4 logger' command. Logs any changes to \n\t\tchangelists and jobs"
p39
stRp40
ag3
(g4
g5
(dp41
g12
S'0'
sg13
S'name'
p42
sg15
S'db.ldap'
p43
sg17
S'Ldap'
p44
sg19
S'5'
sg20
S'LDAP specifications'
p45
stRp46
ag3
(g4
g5
(dp47
g12
S'3'
sg13
S'id'
p48
sg15
S'db.server'
p49
sg17
S'Server'
p50
sg19
S'6'
sg20
S'Server specifications'
p51
stRp52
ag3
(g4
g5
(dp53
g12
S'0'
sg13
S'id, type, seq'
p54
sg15
S'db.svrview'
p55
sg17
S'SvrView'
p56
sg19
S'7'
sg20
S'View data for servers specifications'
p57
stRp58
ag3
(g4
g5
(dp59
g12
S'1'
sg13
S'id'
p60
sg15
S'db.remote'
p61
sg17
S'Remote'
p62
sg19
S'8'
sg20
S'Remote specifications'
p63
stRp64
ag3
(g4
g5
(dp65
g12
S'1'
sg13
S'id, seq'
p66
sg15
S'db.rmtview'
p67
sg17
S'RmtView'
p68
sg19
S'9'
sg20
S'View data for remote specifications'
p69
stRp70
ag3
(g4
g5
(dp71
g12
S'0'
sg13
S'client, stream, type, seq'
p72
sg15
S'db.stash'
p73
sg17
S'Stash'
p74
sg19
S'10'
p75
sg20
S'Stash data'
p76
stRp77
ag3
(g4
g5
(dp78
g12
S'7'
sg13
S'user'
p79
sg15
S'db.user.rp'
p80
sg17
S'User'
p81
sg19
S'11'
p82
sg20
S"Used by replica server's to store login information"
p83
stRp84
ag3
(g4
g5
(dp85
g12
S'7'
sg13
S'user'
p86
sg15
S'db.user'
p87
sg17
S'User'
p88
sg19
S'12'
p89
sg20
S'User specifications'
p90
stRp91
ag3
(g4
g5
(dp92
g12
S'0'
sg13
S'user, host'
p93
sg15
S'db.ticket.rp'
p94
sg17
S'Ticket'
p95
sg19
S'13'
p96
sg20
S'Second factor authentication state on a per user/host basis (replica)'
p97
stRp98
ag3
(g4
g5
(dp99
g12
S'0'
sg13
S'user, host'
p100
sg15
S'db.ticket'
p101
sg17
S'Ticket'
p102
sg19
S'14'
p103
sg20
S'Second factor authentication state on a per user/host basis'
p104
stRp105
ag3
(g4
g5
(dp106
g12
S'9'
sg13
S'user, group'
p107
sg15
S'db.group'
p108
sg17
S'Group'
p109
sg19
S'15'
p110
sg20
S'Group specifications'
p111
stRp112
ag3
(g4
g5
(dp113
g12
S'1'
sg13
S'group'
p114
sg15
S'db.groupx'
p115
sg17
S'GroupX'
p116
sg19
S'16'
p117
sg20
S'Per-group data to support group membership controlled by AD/LDAP group membership'
p118
stRp119
ag3
(g4
g5
(dp120
g12
S'1'
sg13
S'name'
p121
sg15
S'db.depot'
p122
sg17
S'Depot'
p123
sg19
S'17'
p124
sg20
S'Depot specifications'
p125
stRp126
ag3
(g4
g5
(dp127
g12
S'1'
sg13
S'stream'
p128
sg15
S'db.stream'
p129
sg17
S'Stream'
p130
sg19
S'18'
p131
sg20
S'Stream specifications'
p132
stRp133
ag3
(g4
g5
(dp134
g12
S'7'
sg13
S'name'
p135
sg15
S'db.domain'
p136
sg17
S'Domain'
p137
sg19
S'19'
p138
sg20
S'Domains: depots, clients, labels, branches, streams, and typemap'
p139
stRp140
ag3
(g4
g5
(dp141
g12
S'2'
sg13
S'name, change, sequence'
p142
sg15
S'db.template'
p143
sg17
S'Template'
p144
sg19
S'20'
p145
sg20
S'Streams templates'
p146
stRp147
ag3
(g4
g5
(dp148
g12
S'0'
sg13
S'shelf, name, sequence'
p149
sg15
S'db.templatesx'
p150
sg17
S'TemplateSx'
p151
sg19
S'21'
p152
sg20
S'Shelved stream templates'
p153
stRp154
ag3
(g4
g5
(dp155
g12
S'0'
sg13
S'client, name, sequence'
p156
sg15
S'db.templatewx'
p157
sg17
S'TemplateWx'
p158
sg19
S'22'
p159
sg20
S'Pending stream templates'
p160
stRp161
ag3
(g4
g5
(dp162
g12
S'1'
sg13
S'name seq'
p163
sg15
S'db.view.rp'
p164
sg17
S'View'
p165
sg19
S'23'
p166
sg20
S'View data for clients of build-server replicas'
p167
stRp168
ag3
(g4
g5
(dp169
g12
S'1'
sg13
S'name, seq'
p170
sg15
S'db.view'
p171
sg17
S'View'
p172
sg19
S'24'
p173
sg20
S'View data for domain records'
p174
stRp175
ag3
(g4
g5
(dp176
g12
S'1'
sg13
S'name, domain'
p177
sg15
S'db.haveview'
p178
sg17
S'View'
p179
sg19
S'25'
p180
sg20
S'Stores mapping changes for clients mapping graph depot content'
p181
stRp182
ag3
(g4
g5
(dp183
g12
S'1'
sg13
S'user, seq'
p184
sg15
S'db.review'
p185
sg17
S'Review'
p186
sg19
S'26'
p187
sg20
S"User's review mappings"
p188
stRp189
ag3
(g4
g5
(dp190
g12
S'0'
sg13
S'name, depotFile'
p191
sg15
S'db.label'
p192
sg17
S'Label'
p193
sg19
S'27'
p194
sg20
S'Revisions of files in labels'
p195
stRp196
ag3
(g4
g5
(dp197
g12
S'3'
sg13
S'clientFile depotFile haveRev'
p198
sg15
S'db.have.rp'
p199
sg17
S'Have'
p200
sg19
S'28'
p201
sg20
S"Contains the 'have-list' for clients of build-server replicas"
p202
stRp203
ag3
(g4
g5
(dp204
g12
S'3'
sg13
S'clientFile depotFile haveRev'
p205
sg15
S'db.have.pt'
p206
sg17
S'Have'
p207
sg19
S'29'
p208
sg20
S'Placeholder for read-only clients'
p209
stRp210
ag3
(g4
g5
(dp211
g12
S'3'
sg13
S'clientFile'
p212
sg15
S'db.have'
p213
sg17
S'Have'
p214
sg19
S'30'
p215
sg20
S"Contains the 'have-list' for all clients"
p216
stRp217
ag3
(g4
g5
(dp218
g12
S'0'
sg13
S'toFile, fromFile, startFromRev, endFromRev, \n\t\tstartToRev, endToRev'
p219
sg15
S'db.integed'
p220
sg20
S'Permanent integration records'
p221
sg17
S'Integed'
p222
sg19
S'31'
p223
sS'seeAlso'
p224
S'db.resolve'
p225
stRp226
ag3
(g4
g5
(dp227
g12
S'0'
sg13
S'toFile, fromFile, startFromRev, endFromRev, \n\t\tstartToRev, endToRev'
p228
sg15
S'db.integtx'
p229
sg20
S'Temporary integration records used by task streams'
p230
sg17
S'Integed'
p231
sg19
S'32'
p232
sg224
S'db.resolve'
p233
stRp234
ag3
(g4
g5
(dp235
g12
S'1'
sg13
S'toFile, fromFile, startFromRev'
p236
sg15
S'db.resolve'
p237
sg20
S'Pending integration records'
p238
sg17
S'Resolve'
p239
sg19
S'33'
p240
sg224
S'db.integed'
p241
stRp242
ag3
(g4
g5
(dp243
g12
S'1'
sg13
S'toFile, fromFile, startFromRev'
p244
sg15
S'db.resolvex'
p245
sg20
S'Pending integration records for shelved files'
p246
sg17
S'Resolve'
p247
sg19
S'34'
p248
sg224
S'db.integed'
p249
stRp250
ag3
(g4
g5
(dp251
g12
S'0'
sg13
S'toFile, fromFile, baseSHA'
p252
sg15
S'db.resolveg'
p253
sg20
S'Resolve records for clients of type graph'
p254
sg17
S'ResolveG'
p255
sg19
S'35'
p256
sg224
S'db.integed'
p257
stRp258
ag3
(g4
g5
(dp259
S'note'
p260
S'Supersedes db.archive'
p261
sg12
S'0'
sg13
S'lbrFile, depotFile'
p262
sg20
S'Mapping entries for lazy-copies'
p263
sg17
S'ArchMap'
p264
sg19
S'36'
p265
sg15
S'db.archmap'
p266
stRp267
ag3
(g4
g5
(dp268
g12
S'9'
sg13
S'depotFile'
p269
sg15
S'db.revdx'
p270
sg17
S'Rev'
p271
sg19
S'37'
p272
sg20
S'Revision records for revisions deleted at the head revision'
p273
stRp274
ag3
(g4
g5
(dp275
g12
S'9'
sg13
S'depotFile'
p276
sg15
S'db.revhx'
p277
sg17
S'Rev'
p278
sg19
S'38'
p279
sg20
S'Revision records for revisions NOT deleted at the head revision'
p280
stRp281
ag3
(g4
g5
(dp282
g260
S'Only populated during content trigger execution to allow \n\t\ttriggers access to the revisions being submitted.'
p283
sg12
S'9'
sg13
S'depotFile, depotRev'
p284
sg20
S'Pending revision records'
p285
sg17
S'Rev'
p286
sg19
S'39'
p287
sg15
S'db.revpx'
p288
stRp289
ag3
(g4
g5
(dp290
g12
S'9'
sg13
S'depotFile, depotRev'
p291
sg15
S'db.revsx'
p292
sg17
S'Rev'
p293
sg19
S'40'
p294
sg20
S'Revision records for spec depot files'
p295
stRp296
ag3
(g4
g5
(dp297
g12
S'9'
sg13
S'depotFile, depotRev, type, action, change'
p298
sg15
S'db.revsh'
p299
sg17
S'Rev'
p300
sg19
S'41'
p301
sg20
S'Revision records for shelved files'
p302
stRp303
ag3
(g4
g5
(dp304
g12
S'9'
sg13
S'depotFile, depotRev'
p305
sg15
S'db.revbx'
p306
sg17
S'Rev'
p307
sg19
S'42'
p308
sg20
S'Revision records for archived files'
p309
stRp310
ag3
(g4
g5
(dp311
g12
S'9'
sg13
S'depotFile'
p312
sg15
S'db.revux'
p313
sg17
S'Rev'
p314
sg19
S'43'
p315
sg20
S'Revision records for unload depot files'
p316
stRp317
ag3
(g4
g5
(dp318
g12
S'0'
sg13
S'change, depotFile'
p319
sg15
S'db.revcx'
p320
sg17
S'RevCx'
p321
sg19
S'44'
p322
sg20
S'Secondary index of db.rev'
p323
stRp324
ag3
(g4
g5
(dp325
g12
S'9'
sg13
S'depotFile, depotRev'
p326
sg15
S'db.rev'
p327
sg17
S'Rev'
p328
sg19
S'45'
p329
sg20
S'Revision records'
p330
stRp331
ag3
(g4
g5
(dp332
g12
S'9'
sg13
S'depotFile, depotRev'
p333
sg15
S'db.revtx'
p334
sg17
S'Rev'
p335
sg19
S'46'
p336
sg20
S'Task stream revision records'
p337
stRp338
ag3
(g4
g5
(dp339
g12
S'2'
sg13
S'depotFile, client'
p340
sg15
S'db.locks'
p341
sg17
S'Locks'
p342
sg19
S'47'
p343
sg20
S'Locked/Unlocked files'
p344
stRp345
ag3
(g4
g5
(dp346
g12
S'2'
sg13
S'depotFile, client'
p347
sg15
S'db.locksg'
p348
sg17
S'Locks'
p349
sg19
S'48'
p350
sg20
S'Lock records for clients of type graph'
p351
stRp352
ag3
(g4
g5
(dp353
g12
S'10'
p354
sg13
S'clientFile'
p355
sg15
S'db.working'
p356
sg17
S'Working'
p357
sg19
S'49'
p358
sg20
S'Records for work in progress'
p359
stRp360
ag3
(g4
g5
(dp361
g12
S'10'
p362
sg13
S'clientFile'
p363
sg15
S'db.workingx'
p364
sg17
S'Working'
p365
sg19
S'50'
p366
sg20
S'Records for shelved open files'
p367
stRp368
ag3
(g4
g5
(dp369
g12
S'0'
sg13
S'clientFile'
p370
sg15
S'db.workingg'
p371
sg17
S'WorkingG'
p372
sg19
S'51'
p373
sg20
S'Working records for clients of type graph'
p374
stRp375
ag3
(g4
g5
(dp376
g12
S'0'
sg13
S'GFrepo, GFcfile, GFdfile, GFclient'
p377
sg15
S'db.haveg'
p378
sg17
S'Haveg'
p379
sg19
S'52'
p380
sg20
S"Contains the 'have-list' for graph depot"
p381
stRp382
ag3
(g4
g5
(dp383
g12
S'1'
sg13
S'depotFile'
p384
sg15
S'db.excl'
p385
sg17
S'ExclusiveLock'
p386
sg19
S'53'
p387
sg20
S'Exclusively locked (+l) files -  enables coordinated file locking in commit/edge server environments'
p388
stRp389
ag3
(g4
g5
(dp390
g12
S'0'
sg13
S'traitLot, name'
p391
sg15
S'db.traits'
p392
sg17
S'Trait'
p393
sg19
S'54'
p394
sg20
S'Attributes associated with file revisions'
p395
stRp396
ag3
(g4
g5
(dp397
g12
S'3'
sg13
S'seq'
p398
sg15
S'db.trigger'
p399
sg17
S'Trigger'
p400
sg19
S'55'
p401
sg20
S'Trigger specifications'
p402
stRp403
ag3
(g4
g5
(dp404
g12
S'5'
sg13
S'change'
p405
sg15
S'db.change'
p406
sg17
S'Change'
p407
sg19
S'56'
p408
sg20
S'Changelists'
p409
stRp410
ag3
(g4
g5
(dp411
g260
S'contains records for pending changelists only.'
p412
sg12
S'5'
sg13
S'change'
p413
sg20
S'Subset of db.change - records for pending changelists only'
p414
sg17
S'Change'
p415
sg19
S'57'
p416
sg15
S'db.changex'
p417
stRp418
ag3
(g4
g5
(dp419
g12
S'1'
sg13
S'identity'
p420
sg15
S'db.changeidx'
p421
sg17
S'ChangeIdx'
p422
sg19
S'58'
p423
sg20
S'Secondary index of db.change/db.changex'
p424
stRp425
ag3
(g4
g5
(dp426
g12
S'0'
sg13
S'descKey'
p427
sg15
S'db.desc'
p428
sg17
S'Desc'
p429
sg19
S'59'
p430
sg20
S'Change descriptions'
p431
stRp432
ag3
(g4
g5
(dp433
g12
S'2'
sg13
S'repo'
p434
sg15
S'db.repo'
p435
sg17
S'Repo'
p436
sg19
S'60'
p437
sg20
S'Repository specifications'
p438
stRp439
ag3
(g4
g5
(dp440
g12
S'0'
sg13
S'repo, name, type, action, date, user, ref'
p441
sg15
S'db.refhist'
p442
sg17
S'RefHist'
p443
sg19
S'61'
p444
sg20
S'Reference history for graph depots'
p445
stRp446
ag3
(g4
g5
(dp447
g12
S'0'
sg13
S'repo, name, type'
p448
sg15
S'db.ref'
p449
sg17
S'Ref'
p450
sg19
S'62'
p451
sg20
S'Reference content for graph depots'
p452
stRp453
ag3
(g4
g5
(dp454
g12
S'0'
sg13
S'sha'
p455
sg15
S'db.object'
p456
sg17
S'Object'
p457
sg19
S'63'
p458
sg20
S'Object storage for graph depots'
p459
stRp460
ag3
(g4
g5
(dp461
g12
S'1'
sg13
S'id, name, date, blobsha, commitsha'
p462
sg15
S'db.graphindex'
p463
sg17
S'GraphIndex'
p464
sg19
S'64'
p465
sg20
S'Graph depot repository index data'
p466
stRp467
ag3
(g4
g5
(dp468
g12
S'0'
sg13
S'name, repo, ref, type, user, perm'
p469
sg15
S'db.graphperm'
p470
sg17
S'GraphPerm'
p471
sg19
S'65'
p472
sg20
S'Graph depot permissions'
p473
stRp474
ag3
(g4
g5
(dp475
g12
S'0'
sg13
S'repo, path'
p476
sg15
S'db.submodule'
p477
sg17
S'Submodule'
p478
sg19
S'66'
p479
sg20
S'Submodule configuration data'
p480
stRp481
ag3
(g4
g5
(dp482
g12
S'0'
sg13
S'user,scope'
p483
sg15
S'db.pubkey'
p484
sg17
S'PublicKey'
p485
sg19
S'67'
p486
sg20
S'SSH Public keys'
p487
stRp488
ag3
(g4
g5
(dp489
g12
S'0'
sg13
S'job'
p490
sg15
S'db.job'
p491
sg20
S'Job records'
p492
sg17
S'Job'
p493
sg19
S'68'
p494
sg224
S'db.bodtext'
p495
stRp496
ag3
(g4
g5
(dp497
g12
S'1'
sg13
S'job, change'
p498
sg15
S'db.fix'
p499
sg20
S'Fix records - indexed by job'
p500
sg17
S'Fix'
p501
sg19
S'69'
p502
sg224
S'db.fixrev'
p503
stRp504
ag3
(g4
g5
(dp505
g12
S'1'
sg13
S'change, job'
p506
sg15
S'db.fixrev'
p507
sg20
S'Fix records - indexed by change'
p508
sg17
S'Fix'
p509
sg19
S'70'
p510
sg224
S'db.fix'
p511
stRp512
ag3
(g4
g5
(dp513
g12
S'0'
sg13
S'type, client, toKey, attr, fromKey, fromChange'
p514
sg15
S'db.bodresolve'
p515
sg17
S'BodyResolve'
p516
sg19
S'71'
p517
sg20
S'Resolve data for stream specifications'
p518
stRp519
ag3
(g4
g5
(dp520
g12
S'1'
sg13
S'key, attr'
p521
sg15
S'db.bodtext'
p522
sg17
S'BodyText'
p523
sg19
S'72'
p524
sg20
S'Job data for job attributes'
p525
stRp526
ag3
(g4
g5
(dp527
g12
S'0'
sg13
S'type, key, change, attr'
p528
sg15
S'db.bodtextcx'
p529
sg17
S'BodyTextCx'
p530
sg19
S'73'
p531
sg20
S'Versioned openable spec fields (for future use)'
p532
stRp533
ag3
(g4
g5
(dp534
g12
S'0'
sg13
S'type, key, attr'
p535
sg15
S'db.bodtexthx'
p536
sg17
S'BodyTextHx'
p537
sg19
S'74'
p538
sg20
S'Head revision of spec fields (for future use)'
p539
stRp540
ag3
(g4
g5
(dp541
g12
S'0'
sg13
S'type, shelf, key, attr'
p542
sg15
S'db.bodtextsx'
p543
sg17
S'BodyTextSx'
p544
sg19
S'75'
p545
sg20
S'Shelved openable spec fields (for future use)'
p546
stRp547
ag3
(g4
g5
(dp548
g12
S'0'
sg13
S'type, client, key, attr'
p549
sg15
S'db.bodtextwx'
p550
sg17
S'BodyTextWx'
p551
sg19
S'76'
p552
sg20
S'Open openable spec fields (for future use)'
p553
stRp554
ag3
(g4
g5
(dp555
g12
S'0'
sg13
S'word, attr, value'
p556
sg15
S'db.ixtext'
p557
sg17
S'IndexText'
p558
sg19
S'77'
p559
sg20
S'Indexing data for generic and job attributes'
p560
stRp561
ag3
(g4
g5
(dp562
g12
S'0'
sg13
S'type, word, attr, value'
p563
sg15
S'db.ixtexthx'
p564
sg17
S'IndexTextHx'
p565
sg19
S'78'
p566
sg20
S'Indexing data for head revision of all spec fields (for future use)'
p567
stRp568
ag3
(g4
g5
(dp569
g12
S'0'
sg13
S'word, attr, value'
p570
sg15
S'db.uxtext'
p571
sg17
S'IndexText'
p572
sg19
S'79'
p573
sg20
S'Indexing data for Swarm'
p574
stRp575
ag3
(g4
g5
(dp576
g12
S'5'
sg13
S'seq'
p577
sg15
S'db.protect'
p578
sg17
S'Protect'
p579
sg19
S'80'
p580
sg20
S'The protections table'
p581
stRp582
ag3
(g4
g5
(dp583
g12
S'0'
sg13
S'name, seq, type, scope'
p584
sg15
S'db.property'
p585
sg17
S'Property'
p586
sg19
S'81'
p587
sg20
S'Properties'
p588
stRp589
ag3
(g4
g5
(dp590
g12
S'0'
sg13
S'language, id'
p591
sg15
S'db.message'
p592
sg17
S'Message'
p593
sg19
S'82'
p594
sg20
S'System messages'
p595
stRp596
ag3
(g4
g5
(dp597
g12
S'4'
sg13
S'taskid, seq'
p598
sg15
S'db.sendq'
p599
sg17
S'SendQ'
p600
sg19
S'83'
p601
sg20
S'Parallel file transmission work queue'
p602
stRp603
ag3
(g4
g5
(dp604
g12
S'4'
sg13
S'taskid, seq'
p605
sg15
S'db.sendq.pt'
p606
sg17
S'SendQ'
p607
sg19
S'84'
p608
sg20
S'Per Client transmission work queue'
p609
stRp610
ag3
(g4
g5
(dp611
g12
S'1'
sg13
S'id'
p612
sg15
S'db.jnlack'
p613
sg17
S'JnlAck'
p614
sg19
S'85'
p615
sg20
S'Tracks journal positions of all standby servers'
p616
stRp617
ag3
(g4
g5
(dp618
g12
S'2'
sg13
S'id'
p619
sg15
S'db.monitor'
p620
sg17
S'Monitor'
p621
sg19
S'86'
p622
sg20
S'Helix Server process information'
p623
stRp624
ag3
(g4
g5
(dp625
g17
S'ReplicaArchiveTransfer'
p626
sg15
S'rdb.lbr'
p627
sg20
S'Replica server pending archive transfer table'
p628
stRp629
ag3
(g4
g5
(dp630
g17
S'TinyDb'
p631
sg13
S'fileAndRev'
p632
sg15
S'tiny.db'
p633
sg20
S'Records revision and content data for files using the +T file type modifier'
p634
stRp635
atRp636
stRp637
sg12
S'2018.2'
p638
sS'numUpgrades'
p639
S'30'
p640
sS'recordtypes'
p641
g3
(g4
g5
(dp642
S'record'
p643
g3
(g8
g9
(lp644
g3
(g4
g5
(dp645
S'column'
p646
g3
(g8
g9
(lp647
g3
(g4
g5
(dp648
g17
S'File'
p649
sg15
S'lbrFile'
p650
sg20
S"Specifies the location in the librarian's archives where\n\t\t    the revision may be found"
p651
stRp652
ag3
(g4
g5
(dp653
g17
S'String'
p654
sg15
S'lbrRev'
p655
sg20
S"Revision in the librarian's archives"
p656
stRp657
ag3
(g4
g5
(dp658
g17
S'File'
p659
sg15
S'depotFile'
p660
sg20
S'Name of the file in the depot'
p661
stRp662
ag3
(g4
g5
(dp663
g17
S'Rev'
p664
sg15
S'depotRev'
p665
sg20
S'Name of the file in the depot'
p666
stRp667
ag3
(g4
g5
(dp668
g17
S'FileType'
p669
sg15
S'lbrType'
p670
sg20
S"File type for librarian's purposes"
p671
stRp672
atRp673
sg15
S'Archive'
p674
stRp675
ag3
(g4
g5
(dp676
g646
g3
(g8
g9
(lp677
g3
(g4
g5
(dp678
g17
S'File'
p679
sg15
S'lbrFile'
p680
sg20
S'Paths in the librarian namespace that receive lazy\n\t\t    copies.'
p681
stRp682
ag3
(g4
g5
(dp683
g17
S'File'
p684
sg15
S'depotFile'
p685
sg20
S'Paths in the depot namespace that provide lazy copies.'
p686
stRp687
atRp688
sg15
S'ArchMap'
p689
stRp690
ag3
(g4
g5
(dp691
g646
g3
(g8
g9
(lp692
g3
(g4
g5
(dp693
g17
S'String'
p694
sg15
S'key'
p695
sg20
S'The job to which this attribute belongs'
p696
stRp697
ag3
(g4
g5
(dp698
g17
S'Int'
p699
sg15
S'attr'
p700
sg20
S'The attribute number (from the jobspec) of this attribute'
p701
stRp702
ag3
(g4
g5
(dp703
g17
S'Date'
p704
sg15
S'date'
p705
sg20
S'The date value itself'
p706
stRp707
atRp708
sg15
S'BodyDate'
p709
stRp710
ag3
(g4
g5
(dp711
g646
g3
(g8
g9
(lp712
g3
(g4
g5
(dp713
g17
S'SpecType'
p714
sg15
S'type'
p715
sg20
S'The spec type'
p716
stRp717
ag3
(g4
g5
(dp718
g17
S'Domain'
p719
sg15
S'client'
p720
sg20
S'The client name'
p721
stRp722
ag3
(g4
g5
(dp723
g17
S'String'
p724
sg15
S'toKey'
p725
sg20
S'To Key'
p726
stRp727
ag3
(g4
g5
(dp728
g17
S'Int'
p729
sg15
S'attr'
p730
sg20
S'The attribute value'
p731
stRp732
ag3
(g4
g5
(dp733
g17
S'String'
p734
sg15
S'fromKey'
p735
sg20
S'From key'
p736
stRp737
ag3
(g4
g5
(dp738
g17
S'Change'
p739
sg15
S'fromChange'
p740
sg20
S'From change'
p741
stRp742
ag3
(g4
g5
(dp743
g17
S'String'
p744
sg15
S'baseKey'
p745
sg20
S'Base Key'
p746
stRp747
ag3
(g4
g5
(dp748
g17
S'Change'
p749
sg15
S'baseChange'
p750
sg20
S'Base change'
p751
stRp752
atRp753
sg15
S'BodyResolve'
p754
stRp755
ag3
(g4
g5
(dp756
g646
g3
(g8
g9
(lp757
g3
(g4
g5
(dp758
g17
S'String'
p759
sg15
S'key'
p760
sg20
S'The job to which this attribute belongs'
p761
stRp762
ag3
(g4
g5
(dp763
g17
S'Int'
p764
sg15
S'attr'
p765
sg20
S'The attribute number (from the jobspec) of this attribute'
p766
stRp767
ag3
(g4
g5
(dp768
g17
S'Int'
p769
sg15
S'isBulk'
p770
sg20
S'Indicates whether (1), or not (0) the field is a bulk\n\t\t    text field that should not be indexed.'
p771
stRp772
ag3
(g4
g5
(dp773
g17
S'Text'
p774
sg15
S'text'
p775
sg20
S'The attribute value'
p776
stRp777
atRp778
sg15
S'BodyText'
p779
stRp780
ag3
(g4
g5
(dp781
g646
g3
(g8
g9
(lp782
g3
(g4
g5
(dp783
g17
S'Int'
p784
sg15
S'type'
p785
sg20
S'The type of spec'
p786
stRp787
ag3
(g4
g5
(dp788
g17
S'String'
p789
sg15
S'key'
p790
sg20
S'The spec to which this attribute belongs'
p791
stRp792
ag3
(g4
g5
(dp793
g17
S'Change'
p794
sg15
S'change'
p795
sg20
S'The change to which this attribute belongs'
p796
stRp797
ag3
(g4
g5
(dp798
g17
S'Int'
p799
sg15
S'attr'
p800
sg20
S'The attribute number of this attribute'
p801
stRp802
ag3
(g4
g5
(dp803
g17
S'Text'
p804
sg15
S'text'
p805
sg20
S'The attribute value'
p806
stRp807
atRp808
sg15
S'BodyTextCx'
p809
stRp810
ag3
(g4
g5
(dp811
g646
g3
(g8
g9
(lp812
g3
(g4
g5
(dp813
g17
S'Int'
p814
sg15
S'type'
p815
sg20
S'The type of spec'
p816
stRp817
ag3
(g4
g5
(dp818
g17
S'String'
p819
sg15
S'key'
p820
sg20
S'The spec to which this attribute belongs'
p821
stRp822
ag3
(g4
g5
(dp823
g17
S'Int'
p824
sg15
S'attr'
p825
sg20
S'The attribute number of this attribute'
p826
stRp827
ag3
(g4
g5
(dp828
g17
S'Int'
p829
sg15
S'bulk'
p830
sg20
S'Indicates whether (1), or not (0) the field is a bulk\n\t\t    text field that should not be indexed.'
p831
stRp832
ag3
(g4
g5
(dp833
g17
S'Text'
p834
sg15
S'text'
p835
sg20
S'The attribute value'
p836
stRp837
atRp838
sg15
S'BodyTextHx'
p839
stRp840
ag3
(g4
g5
(dp841
g646
g3
(g8
g9
(lp842
g3
(g4
g5
(dp843
g17
S'Int'
p844
sg15
S'type'
p845
sg20
S'The type of spec'
p846
stRp847
ag3
(g4
g5
(dp848
g17
S'Change'
p849
sg15
S'shelf'
p850
sg20
S'The shelf to which this attribute belongs'
p851
stRp852
ag3
(g4
g5
(dp853
g17
S'String'
p854
sg15
S'key'
p855
sg20
S'The spec to which this attribute belongs'
p856
stRp857
ag3
(g4
g5
(dp858
g17
S'Int'
p859
sg15
S'attr'
p860
sg20
S'The attribute number of this attribute'
p861
stRp862
ag3
(g4
g5
(dp863
g17
S'Text'
p864
sg15
S'text'
p865
sg20
S'The attribute value'
p866
stRp867
ag3
(g4
g5
(dp868
g17
S'Change'
p869
sg15
S'workChange'
p870
sg20
S'The working change'
p871
stRp872
atRp873
sg15
S'BodyTextSx'
p874
stRp875
ag3
(g4
g5
(dp876
g646
g3
(g8
g9
(lp877
g3
(g4
g5
(dp878
g17
S'Int'
p879
sg15
S'type'
p880
sg20
S'The type of spec'
p881
stRp882
ag3
(g4
g5
(dp883
g17
S'String'
p884
sg15
S'client'
p885
sg20
S'The client the spec is opened on'
p886
stRp887
ag3
(g4
g5
(dp888
g17
S'String'
p889
sg15
S'key'
p890
sg20
S'The spec to which this attribute belongs'
p891
stRp892
ag3
(g4
g5
(dp893
g17
S'Int'
p894
sg15
S'attr'
p895
sg20
S'The attribute number of this attribute'
p896
stRp897
ag3
(g4
g5
(dp898
g17
S'Text'
p899
sg15
S'text'
p900
sg20
S'The attribute value'
p901
stRp902
ag3
(g4
g5
(dp903
g17
S'Change'
p904
sg15
S'workChange'
p905
sg20
S'The working change'
p906
stRp907
atRp908
sg15
S'BodyTextWx'
p909
stRp910
ag3
(g4
g5
(dp911
g646
g3
(g8
g9
(lp912
g3
(g4
g5
(dp913
g17
S'Change'
p914
sg15
S'change'
p915
sg20
S'The change number'
p916
stRp917
ag3
(g4
g5
(dp918
g17
S'Change'
p919
sg15
S'descKey'
p920
sg20
S"The description key. Normally the same as 'change', but\n\t\t    may differ if a changelist was renumbered on submission."
p921
stRp922
ag3
(g4
g5
(dp923
g17
S'Domain'
p924
sg15
S'client'
p925
sg20
S'The client from which the change originates'
p926
stRp927
ag3
(g4
g5
(dp928
g17
S'User'
p929
sg15
S'user'
p930
sg20
S'The user who owns the change'
p931
stRp932
ag3
(g4
g5
(dp933
g17
S'Date'
p934
sg15
S'date'
p935
sg20
S'Date and time the changelist was submitted'
p936
stRp937
ag3
(g4
g5
(dp938
g17
S'ChangeStatus'
p939
sg15
S'status'
p940
sg20
S'Status of the change'
p941
stRp942
ag3
(g4
g5
(dp943
g17
S'DescShort'
p944
sg15
S'description'
p945
sg20
S'Short description of the change.'
p946
stRp947
ag3
(g4
g5
(dp948
g17
S'Mapping'
p949
sg15
S'root'
p950
sg20
S'Common path for all files in the changelist'
p951
stRp952
ag3
(g4
g5
(dp953
g17
S'String'
p954
sg15
S'importer'
p955
sg20
S'The user who fetched or pushed this change to this server'
p956
stRp957
ag3
(g4
g5
(dp958
g17
S'String'
p959
sg15
S'identify'
p960
sg20
S'Identifier for this change'
p961
stRp962
ag3
(g4
g5
(dp963
g17
S'Date'
p964
sg15
S'access'
p965
sg20
S'Shelve last access'
p966
stRp967
ag3
(g4
g5
(dp968
g17
S'Date'
p969
sg15
S'update'
p970
sg20
S'Shelve last update'
p971
stRp972
atRp973
sg15
S'Change'
p974
stRp975
ag3
(g4
g5
(dp976
g646
g3
(g8
g9
(lp977
g3
(g4
g5
(dp978
g17
S'String'
p979
sg15
S'identity'
p980
sg20
S'Identifier for this change'
p981
stRp982
ag3
(g4
g5
(dp983
g17
S'Change'
p984
sg15
S'change'
p985
sg20
S'Changelist'
p986
stRp987
atRp988
sg15
S'ChangeIdx'
p989
stRp990
ag3
(g4
g5
(dp991
g646
g3
(g8
g9
(lp992
g3
(g4
g5
(dp993
g17
S'String'
p994
sg15
S'serverName'
p995
sg20
S'Server name'
p996
stRp997
ag3
(g4
g5
(dp998
g17
S'String'
p999
sg15
S'name'
p1000
sg20
S'Configuration variable name'
p1001
stRp1002
ag3
(g4
g5
(dp1003
g17
S'Value'
p1004
sg15
S'value'
p1005
sg20
S'Configuration variable value'
p1006
stRp1007
atRp1008
sg15
S'Config'
p1009
stRp1010
ag3
(g4
g5
(dp1011
g646
g3
(g8
g9
(lp1012
g3
(g4
g5
(dp1013
g17
S'Counter'
p1014
sg15
S'name'
p1015
sg20
S'Counter name'
p1016
stRp1017
ag3
(g4
g5
(dp1018
g17
S'Value'
p1019
sg15
S'value'
p1020
sg20
S'Counter value'
p1021
stRp1022
atRp1023
sg15
S'Counters'
p1024
stRp1025
ag3
(g4
g5
(dp1026
g646
g3
(g8
g9
(lp1027
g3
(g4
g5
(dp1028
g17
S'Domain'
p1029
sg15
S'name'
p1030
sg20
S'Depot name'
p1031
stRp1032
ag3
(g4
g5
(dp1033
g17
S'DepotType'
p1034
sg15
S'type'
p1035
sg20
S'Type of depot'
p1036
stRp1037
ag3
(g4
g5
(dp1038
g17
S'Text'
p1039
sg15
S'extra'
p1040
sg20
S'For remote depots, the P4PORT address of the remote server.\n\t\t    For spec depots, a suffix to append to the filename.\n                   For stream depots, stream depth'
p1041
stRp1042
ag3
(g4
g5
(dp1043
g17
S'Text'
p1044
sg15
S'map'
p1045
sg20
S"The depot's map (path translation information).  For local \n\t\t    depots, this will be a path relative to the root directory.\n\t\t    For remote depots, this will be specified in terms of the \n\t\t    remote server's namespace."
p1046
stRp1047
atRp1048
sg15
S'Depot'
p1049
stRp1050
ag3
(g4
g5
(dp1051
g646
g3
(g8
g9
(lp1052
g3
(g4
g5
(dp1053
g17
S'Change'
p1054
sg15
S'descKey'
p1055
sg20
S'Original number of the change to which this description\n\t\t    applies. This may differ from the final change number if\n\t\t    the change is renumbered on submission.'
p1056
stRp1057
ag3
(g4
g5
(dp1058
g17
S'Text'
p1059
sg15
S'description'
p1060
sg20
S'The change description itself'
p1061
stRp1062
atRp1063
sg15
S'Desc'
p1064
stRp1065
ag3
(g4
g5
(dp1066
g646
g3
(g8
g9
(lp1067
g3
(g4
g5
(dp1068
g17
S'Domain'
p1069
sg15
S'name'
p1070
sg20
S'Domain name'
p1071
stRp1072
ag3
(g4
g5
(dp1073
g17
S'DomainType'
p1074
sg15
S'type'
p1075
sg20
S'Type of domain'
p1076
stRp1077
ag3
(g4
g5
(dp1078
g17
S'Text'
p1079
sg15
S'extra'
p1080
sg20
S'Formerly "host". Associated host or, for labels, revision \n\t\t    number.'
p1081
stRp1082
ag3
(g4
g5
(dp1083
g17
S'Text'
p1084
sg15
S'mount'
p1085
sg20
S'The client root'
p1086
stRp1087
ag3
(g4
g5
(dp1088
g17
S'Text'
p1089
sg15
S'mount2'
p1090
sg20
S'Alternate client root'
p1091
stRp1092
ag3
(g4
g5
(dp1093
g17
S'Text'
p1094
sg15
S'mount3'
p1095
sg20
S'Alternate client root'
p1096
stRp1097
ag3
(g4
g5
(dp1098
g17
S'User'
p1099
sg15
S'owner'
p1100
sg20
S'Name of user who owns the domain.'
p1101
stRp1102
ag3
(g4
g5
(dp1103
g17
S'Date'
p1104
sg15
S'updateDate'
p1105
sg20
S'Date of last update to domain specification.'
p1106
stRp1107
ag3
(g4
g5
(dp1108
g17
S'Date'
p1109
sg15
S'accessDate'
p1110
sg20
S'Date of last access to domain specification.'
p1111
stRp1112
ag3
(g4
g5
(dp1113
g17
S'DomainOpts'
p1114
sg15
S'options'
p1115
sg20
S'Options for client, label, and branch domains.'
p1116
stRp1117
ag3
(g4
g5
(dp1118
g17
S'Text'
p1119
sg15
S'description'
p1120
sg20
S'Description of domain.'
p1121
stRp1122
ag3
(g4
g5
(dp1123
g17
S'Domain'
p1124
sg15
S'stream'
p1125
sg20
S'Associated stream for client records'
p1126
stRp1127
ag3
(g4
g5
(dp1128
g17
S'Text'
p1129
sg15
S'serverid'
p1130
sg20
S'Associated server ID for client records'
p1131
stRp1132
ag3
(g4
g5
(dp1133
g17
S'Int'
p1134
sg15
S'contents'
p1135
sg20
S'Client domain contents. 1: Maps only classic depot files, 2: Maps only graph depot files, 3: Maps both classic and graph depot files'
p1136
stRp1137
atRp1138
sg15
S'Domain'
p1139
stRp1140
ag3
(g4
g5
(dp1141
g646
g3
(g8
g9
(lp1142
g3
(g4
g5
(dp1143
g17
S'File'
p1144
sg15
S'depotFile'
p1145
sg20
S'The file locked'
p1146
stRp1147
ag3
(g4
g5
(dp1148
g17
S'Domain'
p1149
sg15
S'client'
p1150
sg20
S'The client for which the file is locked'
p1151
stRp1152
ag3
(g4
g5
(dp1153
g17
S'User'
p1154
sg15
S'user'
p1155
sg20
S'The user for which the file is locked'
p1156
stRp1157
atRp1158
sg15
S'ExclusiveLock'
p1159
stRp1160
ag3
(g4
g5
(dp1161
g646
g3
(g8
g9
(lp1162
g3
(g4
g5
(dp1163
g17
S'String'
p1164
sg15
S'job'
p1165
sg20
S'Job name'
p1166
stRp1167
ag3
(g4
g5
(dp1168
g17
S'Change'
p1169
sg15
S'change'
p1170
sg20
S'Changelist number'
p1171
stRp1172
ag3
(g4
g5
(dp1173
g17
S'Date'
p1174
sg15
S'date'
p1175
sg20
S'Date fix was recorded (may differ from date change was\n\t\t    submitted).'
p1176
stRp1177
ag3
(g4
g5
(dp1178
g17
S'FixStatus'
p1179
sg15
S'status'
p1180
sg20
S'Status of the job'
p1181
stRp1182
ag3
(g4
g5
(dp1183
g17
S'Domain'
p1184
sg15
S'client'
p1185
sg20
S'The client where the fix originated'
p1186
stRp1187
ag3
(g4
g5
(dp1188
g17
S'User'
p1189
sg15
S'user'
p1190
sg20
S'The user who fixed the job'
p1191
stRp1192
atRp1193
sg15
S'Fix'
p1194
stRp1195
ag3
(g4
g5
(dp1196
g646
g3
(g8
g9
(lp1197
g3
(g4
g5
(dp1198
g17
S'Int'
p1199
sg15
S'id'
p1200
sg20
S'ID of repo index belongs to'
p1201
stRp1202
ag3
(g4
g5
(dp1203
g17
S'File'
p1204
sg15
S'fileName'
p1205
sg20
S'File name (minus the repo name)'
p1206
stRp1207
ag3
(g4
g5
(dp1208
g17
S'Date'
p1209
sg15
S'commitDate'
p1210
sg20
S'Descending historical commit sequence'
p1211
stRp1212
ag3
(g4
g5
(dp1213
g17
S'SHA1'
p1214
sg15
S'blobSHA'
p1215
sg20
S'SHA of blob'
p1216
stRp1217
ag3
(g4
g5
(dp1218
g17
S'SHA1'
p1219
sg15
S'commitSHA'
p1220
sg20
S'SHA of commit that added/edited this file'
p1221
stRp1222
ag3
(g4
g5
(dp1223
g17
S'Int'
p1224
sg15
S'flags'
p1225
sg20
S'Miscellaneous flags'
p1226
stRp1227
ag3
(g4
g5
(dp1228
g17
S'FileSize'
p1229
sg15
S'GIsize'
p1230
sg20
S'file size'
p1231
stRp1232
ag3
(g4
g5
(dp1233
g17
S'FileType'
p1234
sg15
S'GItype'
p1235
sg20
S'type'
p1236
stRp1237
ag3
(g4
g5
(dp1238
g17
S'text'
p1239
sg15
S'GIlfsoid'
p1240
sg20
S'LFS Object ID'
p1241
stRp1242
atRp1243
sg15
S'GraphIndex'
p1244
stRp1245
ag3
(g4
g5
(dp1246
g646
g3
(g8
g9
(lp1247
g3
(g4
g5
(dp1248
g17
S'Domain'
p1249
sg15
S'name'
p1250
sg20
S'Graph depot name'
p1251
stRp1252
ag3
(g4
g5
(dp1253
g17
S'String'
p1254
sg15
S'repo'
p1255
sg20
S'Repository name'
p1256
stRp1257
ag3
(g4
g5
(dp1258
g17
S'String'
p1259
sg15
S'ref'
p1260
sg20
S'Reference'
p1261
stRp1262
ag3
(g4
g5
(dp1263
g17
S'UserType'
p1264
sg15
S'type'
p1265
sg20
S'Type of user'
p1266
stRp1267
ag3
(g4
g5
(dp1268
g17
S'User'
p1269
sg15
S'user'
p1270
sg20
S'User or Group for permission'
p1271
stRp1272
ag3
(g4
g5
(dp1273
g17
S'GraphPermType'
p1274
sg15
S'perm'
p1275
sg20
S'Permission'
p1276
stRp1277
atRp1278
sg15
S'GraphPerm'
p1279
stRp1280
ag3
(g4
g5
(dp1281
g646
g3
(g8
g9
(lp1282
g3
(g4
g5
(dp1283
g17
S'User'
p1284
sg15
S'user'
p1285
sg20
S'User name'
p1286
stRp1287
ag3
(g4
g5
(dp1288
g17
S'User'
p1289
sg15
S'group'
p1290
sg20
S'Group name'
p1291
stRp1292
ag3
(g4
g5
(dp1293
g17
S'UserType'
p1294
sg15
S'type'
p1295
sg20
S'Type of user in this group.'
p1296
stRp1297
ag3
(g4
g5
(dp1298
g17
S'MaxResults'
p1299
sg15
S'maxResults'
p1300
sg20
S'MaxResults setting for the group.'
p1301
stRp1302
ag3
(g4
g5
(dp1303
g17
S'MaxScanRows'
p1304
sg15
S'maxScanRows'
p1305
sg20
S'MaxScanRows setting for the group.'
p1306
stRp1307
ag3
(g4
g5
(dp1308
g17
S'MaxLockTime'
p1309
sg15
S'maxLockTime'
p1310
sg20
S'MaxLockTime setting for the group.'
p1311
stRp1312
ag3
(g4
g5
(dp1313
g17
S'MaxOpenFiles'
p1314
sg15
S'maxOpenFiles'
p1315
sg20
S'MaxOpenFiles setting for the group.'
p1316
stRp1317
ag3
(g4
g5
(dp1318
g17
S'Int'
p1319
sg15
S'timeout'
p1320
sg20
S'Length of time (in seconds) a login ticket remains valid.'
p1321
stRp1322
ag3
(g4
g5
(dp1323
g17
S'Int'
p1324
sg15
S'passwordTimeout'
p1325
sg20
S'Length of time (in seconds) a password remains valid for users in the group.'
p1326
stRp1327
atRp1328
sg15
S'Group'
p1329
stRp1330
ag3
(g4
g5
(dp1331
g646
g3
(g8
g9
(lp1332
g3
(g4
g5
(dp1333
g17
S'User'
p1334
sg15
S'group'
p1335
sg20
S'Group name'
p1336
stRp1337
ag3
(g4
g5
(dp1338
g17
S'String'
p1339
sg15
S'ldapConf'
p1340
sg20
S"The LDAP configuration to use when populating the group's user list from an LDAP query"
p1341
stRp1342
ag3
(g4
g5
(dp1343
g17
S'String'
p1344
sg15
S'ldapSearchQuery'
p1345
sg20
S'The LDAP query used to identify the members of the group'
p1346
stRp1347
ag3
(g4
g5
(dp1348
g17
S'String'
p1349
sg15
S'ldapUserAttribute'
p1350
sg20
S"The LDAP attribute that represents the user's username"
p1351
stRp1352
ag3
(g4
g5
(dp1353
g17
S'String'
p1354
sg15
S'ldapDNAttribute'
p1355
sg20
S"The LDAP attribute that represents the user's DN"
p1356
stRp1357
atRp1358
sg15
S'GroupX'
p1359
stRp1360
ag3
(g4
g5
(dp1361
g646
g3
(g8
g9
(lp1362
g3
(g4
g5
(dp1363
g17
S'File'
p1364
sg15
S'clientFile'
p1365
sg20
S'The file in its location on the client'
p1366
stRp1367
ag3
(g4
g5
(dp1368
g17
S'File'
p1369
sg15
S'depotFile'
p1370
sg20
S'The file in the depot'
p1371
stRp1372
ag3
(g4
g5
(dp1373
g17
S'Rev'
p1374
sg15
S'haveRev'
p1375
sg20
S'The revision synced to the client'
p1376
stRp1377
ag3
(g4
g5
(dp1378
g17
S'FileType'
p1379
sg15
S'type'
p1380
sg20
S'The filetype of the synced revision'
p1381
stRp1382
ag3
(g4
g5
(dp1383
g17
S'Date'
p1384
sg15
S'time'
p1385
sg20
S'The sync time of the synced revision'
p1386
stRp1387
atRp1388
sg15
S'Have'
p1389
stRp1390
ag3
(g4
g5
(dp1391
g646
g3
(g8
g9
(lp1392
g3
(g4
g5
(dp1393
g17
S'String'
p1394
sg15
S'GFrepo'
p1395
sg20
S'repoName'
p1396
stRp1397
ag3
(g4
g5
(dp1398
g17
S'File'
p1399
sg15
S'GFcfile'
p1400
sg20
S'clientFile'
p1401
stRp1402
ag3
(g4
g5
(dp1403
g17
S'File'
p1404
sg15
S'GFdfile'
p1405
sg20
S'depotFile'
p1406
stRp1407
ag3
(g4
g5
(dp1408
g17
S'Domain'
p1409
sg15
S'GFclient'
p1410
sg20
S'client'
p1411
stRp1412
ag3
(g4
g5
(dp1413
g17
S'FileType'
p1414
sg15
S'GFtype'
p1415
sg20
S'type'
p1416
stRp1417
ag3
(g4
g5
(dp1418
g17
S'Action'
p1419
sg15
S'GFaction'
p1420
sg20
S'action'
p1421
stRp1422
ag3
(g4
g5
(dp1423
g17
S'SHA1'
p1424
sg15
S'GFbsha'
p1425
sg20
S'blob sha'
p1426
stRp1427
ag3
(g4
g5
(dp1428
g17
S'SHA1'
p1429
sg15
S'GFcommitsha'
p1430
sg20
S'commit sha'
p1431
stRp1432
ag3
(g4
g5
(dp1433
g17
S'int'
p1434
sg15
S'GFflags'
p1435
sg20
S'flags'
p1436
stRp1437
atRp1438
sg15
S'Haveg'
p1439
stRp1440
ag3
(g4
g5
(dp1441
g646
g3
(g8
g9
(lp1442
g3
(g4
g5
(dp1443
g17
S'Date'
p1444
sg15
S'date'
p1445
sg20
S'Date value'
p1446
stRp1447
ag3
(g4
g5
(dp1448
g17
S'Int'
p1449
sg15
S'attr'
p1450
sg20
S'The attribute number (from the jobspec) to which this\n\t\t    date belongs'
p1451
stRp1452
ag3
(g4
g5
(dp1453
g17
S'String'
p1454
sg15
S'value'
p1455
sg20
S'A job name'
p1456
stRp1457
atRp1458
sg15
S'IndexDate'
p1459
stRp1460
ag3
(g4
g5
(dp1461
g646
g3
(g8
g9
(lp1462
g3
(g4
g5
(dp1463
g17
S'String'
p1464
sg15
S'word'
p1465
sg20
S'The word being indexed'
p1466
stRp1467
ag3
(g4
g5
(dp1468
g17
S'Int'
p1469
sg15
S'attr'
p1470
sg20
S'The attribute number to which this word belongs. For\n\t\t    job data, the attribute number from the jobspec.'
p1471
stRp1472
ag3
(g4
g5
(dp1473
g17
S'String'
p1474
sg15
S'value'
p1475
sg20
S'For job data, a job name. For generic data, the value\n\t\t    of the index keyed by the word.'
p1476
stRp1477
atRp1478
sg15
S'IndexText'
p1479
stRp1480
ag3
(g4
g5
(dp1481
g646
g3
(g8
g9
(lp1482
g3
(g4
g5
(dp1483
g17
S'String'
p1484
sg15
S'type'
p1485
sg20
S'The type'
p1486
stRp1487
ag3
(g4
g5
(dp1488
g17
S'String'
p1489
sg15
S'word'
p1490
sg20
S'The word being indexed'
p1491
stRp1492
ag3
(g4
g5
(dp1493
g17
S'Int'
p1494
sg15
S'attr'
p1495
sg20
S'The attribute number to which this word belongs.'
p1496
stRp1497
ag3
(g4
g5
(dp1498
g17
S'String'
p1499
sg15
S'value'
p1500
sg20
S'The value of the index keyed by the word.'
p1501
stRp1502
atRp1503
sg15
S'IndexTextHx'
p1504
stRp1505
ag3
(g4
g5
(dp1506
g646
g3
(g8
g9
(lp1507
g3
(g4
g5
(dp1508
g17
S'File'
p1509
sg15
S'toFile'
p1510
sg20
S'File to which integration is being performed (target).'
p1511
stRp1512
ag3
(g4
g5
(dp1513
g17
S'File'
p1514
sg15
S'fromFile'
p1515
sg20
S'File from which integration is being performed (source).'
p1516
stRp1517
ag3
(g4
g5
(dp1518
g17
S'Rev'
p1519
sg15
S'startFromRev'
p1520
sg20
S'Starting revision of fromFile'
p1521
stRp1522
ag3
(g4
g5
(dp1523
g17
S'Rev'
p1524
sg15
S'endFromRev'
p1525
sg20
S'Ending revision of fromFile'
p1526
stRp1527
ag3
(g4
g5
(dp1528
g17
S'Rev'
p1529
sg15
S'toRev'
p1530
sg20
S'Revision of toFile into which integration is being \n\t\t    performed.'
p1531
stRp1532
ag3
(g4
g5
(dp1533
g17
S'IntegHow'
p1534
sg15
S'how'
p1535
sg20
S'Integration method: variations on \n\t\t    merge/branch/copy/ignore/delete.'
p1536
stRp1537
ag3
(g4
g5
(dp1538
g17
S'Int'
p1539
sg15
S'committed'
p1540
sg20
S'Flag: 0 for pending, 1 for committed.'
p1541
stRp1542
ag3
(g4
g5
(dp1543
g17
S'ResolvedStatus'
p1544
sg15
S'resolved'
p1545
sg20
S'Resolution method: unresolved, resolved manually, \n\t\t    or resolved as part of a branch or delete.'
p1546
stRp1547
ag3
(g4
g5
(dp1548
g17
S'Change'
p1549
sg15
S'change'
p1550
sg20
S'Changelist associated with the integration.'
p1551
stRp1552
atRp1553
sg15
S'Integ'
p1554
stRp1555
ag3
(g4
g5
(dp1556
g646
g3
(g8
g9
(lp1557
g3
(g4
g5
(dp1558
g17
S'File'
p1559
sg15
S'toFile'
p1560
sg20
S'File to which integration is being performed (target).'
p1561
stRp1562
ag3
(g4
g5
(dp1563
g17
S'File'
p1564
sg15
S'fromFile'
p1565
sg20
S'File from which integration is being performed (source).'
p1566
stRp1567
ag3
(g4
g5
(dp1568
g17
S'Rev'
p1569
sg15
S'startFromRev'
p1570
sg20
S'Starting revision of fromFile'
p1571
stRp1572
ag3
(g4
g5
(dp1573
g17
S'Rev'
p1574
sg15
S'endFromRev'
p1575
sg20
S'Ending revision of fromFile'
p1576
stRp1577
ag3
(g4
g5
(dp1578
g17
S'Rev'
p1579
sg15
S'startToRev'
p1580
sg20
S'Start revision of toFile into which integration was \n\t\t    performed.'
p1581
stRp1582
ag3
(g4
g5
(dp1583
g17
S'Rev'
p1584
sg15
S'endToRev'
p1585
sg20
S'End revision of toFile into which integration was \n\t\t    performed. Only varies from startToRev for reverse \n\t\t    integration records.'
p1586
stRp1587
ag3
(g4
g5
(dp1588
g17
S'IntegHow'
p1589
sg15
S'how'
p1590
sg20
S'Integration method: variations on \n\t\t    merge/branch/copy/ignore/delete.'
p1591
stRp1592
ag3
(g4
g5
(dp1593
g17
S'Change'
p1594
sg15
S'change'
p1595
sg20
S'Changelist associated with the integration.'
p1596
stRp1597
atRp1598
sg15
S'Integed'
p1599
stRp1600
ag3
(g4
g5
(dp1601
g646
g3
(g8
g9
(lp1602
g3
(g4
g5
(dp1603
g17
S'Domain'
p1604
sg15
S'serverId'
p1605
sg20
S'The serverId of the standby for whom this record applies'
p1606
stRp1607
ag3
(g4
g5
(dp1608
g17
S'Date'
p1609
sg15
S'lastUpdate'
p1610
sg20
S'The date and time of last update'
p1611
stRp1612
ag3
(g4
g5
(dp1613
g17
S'ServerServiceType'
p1614
sg15
S'serverType'
p1615
sg20
S'The server services offered by this standby'
p1616
stRp1617
ag3
(g4
g5
(dp1618
g17
S'Int'
p1619
sg15
S'persistedJnl'
p1620
sg20
S'The last journal number persisted by this standby'
p1621
stRp1622
ag3
(g4
g5
(dp1623
g17
S'Int'
p1624
sg15
S'appliedJnl'
p1625
sg20
S'The last journal number applied by this standby'
p1626
stRp1627
ag3
(g4
g5
(dp1628
g17
S'Int64'
p1629
sg15
S'persistedPos'
p1630
sg20
S'The last journal position persisted by this standby'
p1631
stRp1632
ag3
(g4
g5
(dp1633
g17
S'Int64'
p1634
sg15
S'appliedPos'
p1635
sg20
S'The last journal position applied by this standby'
p1636
stRp1637
ag3
(g4
g5
(dp1638
g17
S'JournalCopyFlags'
p1639
sg15
S'jcflags'
p1640
sg20
S'Journalcopy Flags'
p1641
stRp1642
ag3
(g4
g5
(dp1643
g17
S'Int'
p1644
sg15
S'isAlive'
p1645
sg20
S'1 = alive'
p1646
stRp1647
ag3
(g4
g5
(dp1648
g17
S'ServerOptionsType'
p1649
sg15
S'serverOptions'
p1650
sg20
S'Server Options'
p1651
stRp1652
ag3
(g4
g5
(dp1653
g17
S'Text'
p1654
sg15
S'failoverSeen'
p1655
sg20
S'Failover was seen'
p1656
stRp1657
atRp1658
sg15
S'JnlAck'
p1659
stRp1660
ag3
(g4
g5
(dp1661
g646
g3
(g8
g9
(lp1662
g3
(g4
g5
(dp1663
g17
S'String'
p1664
sg15
S'job'
p1665
sg20
S'The job name'
p1666
stRp1667
ag3
(g4
g5
(dp1668
g17
S'User'
p1669
sg15
S'xuser'
p1670
sg20
S'User name: defunct'
p1671
stRp1672
ag3
(g4
g5
(dp1673
g17
S'Date'
p1674
sg15
S'xdate'
p1675
sg20
S'The date: defunct'
p1676
stRp1677
ag3
(g4
g5
(dp1678
g17
S'JobStat'
p1679
sg15
S'xstatus'
p1680
sg20
S'Job status: defunct'
p1681
stRp1682
ag3
(g4
g5
(dp1683
g17
S'DescShort'
p1684
sg15
S'description'
p1685
sg20
S'Short description'
p1686
stRp1687
atRp1688
sg15
S'Job'
p1689
stRp1690
ag3
(g4
g5
(dp1691
g646
g3
(g8
g9
(lp1692
g3
(g4
g5
(dp1693
g17
S'String'
p1694
sg15
S'xjob'
p1695
sg20
S'The job name'
p1696
stRp1697
ag3
(g4
g5
(dp1698
g17
S'Text'
p1699
sg15
S'xdescription'
p1700
sg20
S'Jobdescription'
p1701
stRp1702
atRp1703
sg15
S'JobDesc'
p1704
stRp1705
ag3
(g4
g5
(dp1706
g646
g3
(g8
g9
(lp1707
g3
(g4
g5
(dp1708
g17
S'Key'
p1709
sg15
S'name'
p1710
sg20
S'Key name'
p1711
stRp1712
ag3
(g4
g5
(dp1713
g17
S'Value'
p1714
sg15
S'value'
p1715
sg20
S'Key value'
p1716
stRp1717
atRp1718
sg15
S'Keys'
p1719
stRp1720
ag3
(g4
g5
(dp1721
g646
g3
(g8
g9
(lp1722
g3
(g4
g5
(dp1723
g17
S'Domain'
p1724
sg15
S'name'
p1725
sg20
S'Name of the label'
p1726
stRp1727
ag3
(g4
g5
(dp1728
g17
S'File'
p1729
sg15
S'depotFile'
p1730
sg20
S'File name'
p1731
stRp1732
ag3
(g4
g5
(dp1733
g17
S'Rev'
p1734
sg15
S'haveRev'
p1735
sg20
S'The revision of the file in the label'
p1736
stRp1737
atRp1738
sg15
S'Label'
p1739
stRp1740
ag3
(g4
g5
(dp1741
g646
g3
(g8
g9
(lp1742
g3
(g4
g5
(dp1743
g17
S'String'
p1744
sg15
S'name'
p1745
sg20
S'The LDAP configuration name'
p1746
stRp1747
ag3
(g4
g5
(dp1748
g17
S'String'
p1749
sg15
S'host'
p1750
sg20
S'The FQDN of the directory server'
p1751
stRp1752
ag3
(g4
g5
(dp1753
g17
S'String'
p1754
sg15
S'port'
p1755
sg20
S'The port number on which to connect to the directory server'
p1756
stRp1757
ag3
(g4
g5
(dp1758
g17
S'String'
p1759
sg15
S'ssl'
p1760
sg20
S"The encryption method to use when connecting to the The FQDN of the directory server.\n\t\t\tOptions are: 'none', 'ssl' and 'tls'"
p1761
stRp1762
ag3
(g4
g5
(dp1763
g17
S'String'
p1764
sg15
S'type'
p1765
sg20
S"The bind method to use with this directory.  Options are: 'simple', 'search' and 'sasl'."
p1766
stRp1767
ag3
(g4
g5
(dp1768
g17
S'String'
p1769
sg15
S'pattern'
p1770
sg20
S"The DN used to bind against to validate the user's credentials."
p1771
stRp1772
ag3
(g4
g5
(dp1773
g17
S'String'
p1774
sg15
S'basedn'
p1775
sg20
S'The DN from which to start the search for the user object'
p1776
stRp1777
ag3
(g4
g5
(dp1778
g17
S'String'
p1779
sg15
S'filter'
p1780
sg20
S'The LDAP query filter to use to identify the user object which will be used to bind against'
p1781
stRp1782
ag3
(g4
g5
(dp1783
g17
S'String'
p1784
sg15
S'scope'
p1785
sg20
S'The scope to use when searching for the user records. Options are:\n                 0 = baseonly - Just the BaseDN object\n                 1 = children - The BaseDN and its direct children\n                 2 = subtree - The BaseDN and all objects below it'
p1786
stRp1787
ag3
(g4
g5
(dp1788
g17
S'String'
p1789
sg15
S'binddn'
p1790
sg20
S'The DN to bind against in order to search the directory'
p1791
stRp1792
ag3
(g4
g5
(dp1793
g17
S'String'
p1794
sg15
S'bindpass'
p1795
sg20
S'The password for the BindDN record'
p1796
stRp1797
ag3
(g4
g5
(dp1798
g17
S'String'
p1799
sg15
S'realm'
p1800
sg20
S'The optional realm to use when authenticating the user via SASL'
p1801
stRp1802
ag3
(g4
g5
(dp1803
g17
S'String'
p1804
sg15
S'grpbasedn'
p1805
sg20
S'The search base for performing the group search. If unset this will default to the SearchBaseDN'
p1806
stRp1807
ag3
(g4
g5
(dp1808
g17
S'String'
p1809
sg15
S'grpfilter'
p1810
sg20
S'The filter to use for the group search'
p1811
stRp1812
ag3
(g4
g5
(dp1813
g17
S'String'
p1814
sg15
S'grpscope'
p1815
sg20
S'The scope to use when performing the group search.Options are:\n \t\t\t\t0 = baseonly - Just the BaseDN object\n\t\t\t\t1 = children - The BaseDN and its direct children\n\t\t\t\t2 = subtree - The BaseDN and all objects below it'
p1816
stRp1817
ag3
(g4
g5
(dp1818
g17
S'String'
p1819
sg15
S'options'
p1820
sg20
S'LDAP Options: [no]downcase [no]getattrs [no]realminusername'
p1821
stRp1822
ag3
(g4
g5
(dp1823
g17
S'String'
p1824
sg15
S'attruid'
p1825
sg20
S"The name of the attribute in the directory's user records that contain the users' UIDs"
p1826
stRp1827
ag3
(g4
g5
(dp1828
g17
S'String'
p1829
sg15
S'attremail'
p1830
sg20
S"The name of the attribute in the directory's user records that contain the users' email addresses."
p1831
stRp1832
ag3
(g4
g5
(dp1833
g17
S'String'
p1834
sg15
S'attrename'
p1835
sg20
S"The name(s) of the attribute(s) in the directory's user records that contain the users' full names."
p1836
stRp1837
atRp1838
sg15
S'Ldap'
p1839
stRp1840
ag3
(g4
g5
(dp1841
g646
g3
(g8
g9
(lp1842
g3
(g4
g5
(dp1843
g17
S'File'
p1844
sg15
S'depotFile'
p1845
sg20
S'File in depot'
p1846
stRp1847
ag3
(g4
g5
(dp1848
g17
S'Domain'
p1849
sg15
S'client'
p1850
sg20
S'Domain (client) in which file is open'
p1851
stRp1852
ag3
(g4
g5
(dp1853
g17
S'User'
p1854
sg15
S'user'
p1855
sg20
S'User who presently has the file open'
p1856
stRp1857
ag3
(g4
g5
(dp1858
g17
S'Action'
p1859
sg15
S'action'
p1860
sg20
S'Action file is open for: add, edit, delete, branch,\n\t\t    integrate, or import'
p1861
stRp1862
ag3
(g4
g5
(dp1863
g17
S'Int'
p1864
sg15
S'isLocked'
p1865
sg20
S'Flag: 0 for unlocked, 1 for locked'
p1866
stRp1867
ag3
(g4
g5
(dp1868
g17
S'Int'
p1869
sg15
S'change'
p1870
sg20
S'Changelist in which the revision is open: 0 for the\n\t\t    default changelist'
p1871
stRp1872
atRp1873
sg15
S'Locks'
p1874
stRp1875
ag3
(g4
g5
(dp1876
g646
g3
(g8
g9
(lp1877
g3
(g4
g5
(dp1878
g17
S'Int'
p1879
sg15
S'seq'
p1880
sg20
S'Sequence number of event'
p1881
stRp1882
ag3
(g4
g5
(dp1883
g17
S'String'
p1884
sg15
S'key'
p1885
sg20
S"Either the word 'change' or the word 'job'"
p1886
stRp1887
ag3
(g4
g5
(dp1888
g17
S'String'
p1889
sg15
S'attr'
p1890
sg20
S'The number of the change, or name of the job that was \n\t\t    altered.'
p1891
stRp1892
atRp1893
sg15
S'Logger'
p1894
stRp1895
ag3
(g4
g5
(dp1896
g646
g3
(g8
g9
(lp1897
g3
(g4
g5
(dp1898
g17
S'String'
p1899
sg15
S'language'
p1900
sg20
S'The language for which this message applies'
p1901
stRp1902
ag3
(g4
g5
(dp1903
g17
S'Int'
p1904
sg15
S'id'
p1905
sg20
S'The message number'
p1906
stRp1907
ag3
(g4
g5
(dp1908
g17
S'String'
p1909
sg15
S'message'
p1910
sg20
S'The message text'
p1911
stRp1912
atRp1913
sg15
S'Message'
p1914
stRp1915
ag3
(g4
g5
(dp1916
g646
g3
(g8
g9
(lp1917
g3
(g4
g5
(dp1918
g17
S'Int'
p1919
sg15
S'id'
p1920
sg20
S'Thread/process id'
p1921
stRp1922
ag3
(g4
g5
(dp1923
g17
S'User'
p1924
sg15
S'user'
p1925
sg20
S'Username of the user running the command'
p1926
stRp1927
ag3
(g4
g5
(dp1928
g17
S'String'
p1929
sg15
S'function'
p1930
sg20
S'The command being executed.'
p1931
stRp1932
ag3
(g4
g5
(dp1933
g17
S'String'
p1934
sg15
S'args'
p1935
sg20
S'Arguments passed to the command'
p1936
stRp1937
ag3
(g4
g5
(dp1938
g17
S'Date'
p1939
sg15
S'startDate'
p1940
sg20
S'The date and time the command started'
p1941
stRp1942
ag3
(g4
g5
(dp1943
g17
S'Int'
p1944
sg15
S'runstate'
p1945
sg20
S'Flag: 0 for running, 1 for terminated, 2 for paused'
p1946
stRp1947
ag3
(g4
g5
(dp1948
g17
S'Domain'
p1949
sg15
S'client'
p1950
sg20
S'The client workspace'
p1951
stRp1952
ag3
(g4
g5
(dp1953
g17
S'Text'
p1954
sg15
S'host'
p1955
sg20
S'The IP address of the client'
p1956
stRp1957
ag3
(g4
g5
(dp1958
g17
S'Text'
p1959
sg15
S'prog'
p1960
sg20
S'The name (and version) of the client program'
p1961
stRp1962
ag3
(g4
g5
(dp1963
g17
S'Text'
p1964
sg15
S'lockInfo'
p1965
sg20
S'Table locking information for command'
p1966
stRp1967
atRp1968
sg15
S'Monitor'
p1969
stRp1970
ag3
(g4
g5
(dp1971
g646
g3
(g8
g9
(lp1972
g3
(g4
g5
(dp1973
g17
S'SHA1'
p1974
sg15
S'sha'
p1975
sg20
S'SHA1'
p1976
stRp1977
ag3
(g4
g5
(dp1978
g17
S'ObjectType'
p1979
sg15
S'type'
p1980
sg20
S'Type'
p1981
stRp1982
ag3
(g4
g5
(dp1983
g17
S'Octet String'
p1984
sg15
S'data'
p1985
sg20
S'VersionData'
p1986
stRp1987
atRp1988
sg15
S'Object'
p1989
stRp1990
ag3
(g4
g5
(dp1991
g646
g3
(g8
g9
(lp1992
g3
(g4
g5
(dp1993
g17
S'String'
p1994
sg15
S'name'
p1995
sg20
S'The property name'
p1996
stRp1997
ag3
(g4
g5
(dp1998
g17
S'String'
p1999
sg15
S'sequence'
p2000
sg20
S'Sequence number of property'
p2001
stRp2002
ag3
(g4
g5
(dp2003
g17
S'Int'
p2004
sg15
S'type'
p2005
sg20
S"1=user, 2=group; set if '-u | -g' option used with 'p4 property'"
p2006
stRp2007
ag3
(g4
g5
(dp2008
g17
S'String'
p2009
sg15
S'scope'
p2010
sg20
S'The user or group the property applies to'
p2011
stRp2012
ag3
(g4
g5
(dp2013
g17
S'String'
p2014
sg15
S'value'
p2015
sg20
S'The property value'
p2016
stRp2017
ag3
(g4
g5
(dp2018
g17
S'String'
p2019
sg15
S'date'
p2020
sg20
S'The date/time the property was last updated'
p2021
stRp2022
ag3
(g4
g5
(dp2023
g17
S'String'
p2024
sg15
S'user'
p2025
sg20
S'The user that last modified the property'
p2026
stRp2027
atRp2028
sg15
S'Property'
p2029
stRp2030
ag3
(g4
g5
(dp2031
g646
g3
(g8
g9
(lp2032
g3
(g4
g5
(dp2033
g17
S'Int'
p2034
sg15
S'seq'
p2035
sg20
S'Sequence number: for ordering the protections table'
p2036
stRp2037
ag3
(g4
g5
(dp2038
g17
S'Int'
p2039
sg15
S'isGroup'
p2040
sg20
S'Flag: 0 for a per-user setting, 1 for a per-group setting.'
p2041
stRp2042
ag3
(g4
g5
(dp2043
g17
S'UserWild'
p2044
sg15
S'user'
p2045
sg20
S'User(s), or Group(s) for whom this record applies.'
p2046
stRp2047
ag3
(g4
g5
(dp2048
g17
S'DomainWild'
p2049
sg15
S'host'
p2050
sg20
S'Domain(s) (IP addresses) for which this record applies.'
p2051
stRp2052
ag3
(g4
g5
(dp2053
g17
S'Perm'
p2054
sg15
S'perm'
p2055
sg20
S'Permissions to be granted/revoked'
p2056
stRp2057
ag3
(g4
g5
(dp2058
g17
S'MapFlag'
p2059
sg15
S'mapFlag'
p2060
sg20
S'Flag: Map the files in or out?'
p2061
stRp2062
ag3
(g4
g5
(dp2063
g17
S'Mapping'
p2064
sg15
S'depotFile'
p2065
sg20
S'Files to be mapped in or out.'
p2066
stRp2067
ag3
(g4
g5
(dp2068
g17
S'String'
p2069
sg15
S'subPath'
p2070
sg20
S'Root path of the sub-protections table'
p2071
stRp2072
ag3
(g4
g5
(dp2073
g17
S'Date'
p2074
sg15
S'update'
p2075
sg20
S'Date this specification was last modified'
p2076
stRp2077
atRp2078
sg15
S'Protect'
p2079
stRp2080
ag3
(g4
g5
(dp2081
g646
g3
(g8
g9
(lp2082
g3
(g4
g5
(dp2083
g17
S'String'
p2084
sg15
S'user'
p2085
sg20
S'User'
p2086
stRp2087
ag3
(g4
g5
(dp2088
g17
S'String'
p2089
sg15
S'scope'
p2090
sg20
S'Scope'
p2091
stRp2092
ag3
(g4
g5
(dp2093
g17
S'String'
p2094
sg15
S'key'
p2095
sg20
S'Key'
p2096
stRp2097
ag3
(g4
g5
(dp2098
g17
S'Digest'
p2099
sg15
S'digest'
p2100
sg20
S'Digest'
p2101
stRp2102
ag3
(g4
g5
(dp2103
g17
S'Date'
p2104
sg15
S'update'
p2105
sg20
S'Update date'
p2106
stRp2107
atRp2108
sg15
S'PublicKey'
p2109
stRp2110
ag3
(g4
g5
(dp2111
g646
g3
(g8
g9
(lp2112
g3
(g4
g5
(dp2113
g17
S'String'
p2114
sg15
S'repo'
p2115
sg20
S'Repository name'
p2116
stRp2117
ag3
(g4
g5
(dp2118
g17
S'String'
p2119
sg15
S'name'
p2120
sg20
S'Reference name'
p2121
stRp2122
ag3
(g4
g5
(dp2123
g17
S'RefType'
p2124
sg15
S'type'
p2125
sg20
S'Reference type'
p2126
stRp2127
ag3
(g4
g5
(dp2128
g17
S'SHA1'
p2129
sg15
S'ref'
p2130
sg20
S'Target of the reference'
p2131
stRp2132
ag3
(g4
g5
(dp2133
g17
S'String'
p2134
sg15
S'symref'
p2135
sg20
S'Target of symbolic reference'
p2136
stRp2137
atRp2138
sg15
S'Ref'
p2139
stRp2140
ag3
(g4
g5
(dp2141
g646
g3
(g8
g9
(lp2142
g3
(g4
g5
(dp2143
g17
S'String'
p2144
sg15
S'repo'
p2145
sg20
S'Repository name'
p2146
stRp2147
ag3
(g4
g5
(dp2148
g17
S'String'
p2149
sg15
S'name'
p2150
sg20
S'Reference name'
p2151
stRp2152
ag3
(g4
g5
(dp2153
g17
S'RefType'
p2154
sg15
S'type'
p2155
sg20
S'Reference type'
p2156
stRp2157
ag3
(g4
g5
(dp2158
g17
S'RefAction'
p2159
sg15
S'action'
p2160
sg20
S'Reference action'
p2161
stRp2162
ag3
(g4
g5
(dp2163
g17
S'Date'
p2164
sg15
S'date'
p2165
sg20
S'The date the reference was updated'
p2166
stRp2167
ag3
(g4
g5
(dp2168
g17
S'User'
p2169
sg15
S'user'
p2170
sg20
S'The user who made the reference update'
p2171
stRp2172
ag3
(g4
g5
(dp2173
g17
S'SHA1'
p2174
sg15
S'ref'
p2175
sg20
S'Encoded reference value'
p2176
stRp2177
ag3
(g4
g5
(dp2178
g17
S'String'
p2179
sg15
S'symref'
p2180
sg20
S'Symbolic reference'
p2181
stRp2182
atRp2183
sg15
S'RefHist'
p2184
stRp2185
ag3
(g4
g5
(dp2186
g646
g3
(g8
g9
(lp2187
g3
(g4
g5
(dp2188
g17
S'RemoteID'
p2189
sg15
S'id'
p2190
sg20
S'The remote identifier'
p2191
stRp2192
ag3
(g4
g5
(dp2193
g17
S'User'
p2194
sg15
S'owner'
p2195
sg20
S'The user who created this remote'
p2196
stRp2197
ag3
(g4
g5
(dp2198
g17
S'Int'
p2199
sg15
S'options'
p2200
sg20
S'Remote options: 0: unlocked/nocompress, 1: locked/nocompress, 2: unlocked/compress, 4: locked/compress'
p2201
stRp2202
ag3
(g4
g5
(dp2203
g17
S'Text'
p2204
sg15
S'address'
p2205
sg20
S'The P4PORT used by the remote server'
p2206
stRp2207
ag3
(g4
g5
(dp2208
g17
S'Text'
p2209
sg15
S'desc'
p2210
sg20
S'Description of the remote server'
p2211
stRp2212
ag3
(g4
g5
(dp2213
g17
S'Date'
p2214
sg15
S'update'
p2215
sg20
S'The date this specification was last modified'
p2216
stRp2217
ag3
(g4
g5
(dp2218
g17
S'Date'
p2219
sg15
S'access'
p2220
sg20
S'The date of the last push/fetch on this remote'
p2221
stRp2222
ag3
(g4
g5
(dp2223
g17
S'Change'
p2224
sg15
S'fetch'
p2225
sg20
S'The last changelist that was fetched'
p2226
stRp2227
ag3
(g4
g5
(dp2228
g17
S'Change'
p2229
sg15
S'push'
p2230
sg20
S'The last changelist that was pushed'
p2231
stRp2232
ag3
(g4
g5
(dp2233
g17
S'User'
p2234
sg15
S'rmtuser'
p2235
sg20
S'The user to use when connecting to the remote server'
p2236
stRp2237
atRp2238
sg15
S'Remote'
p2239
stRp2240
ag3
(g4
g5
(dp2241
g646
g3
(g8
g9
(lp2242
g3
(g4
g5
(dp2243
g17
S'File'
p2244
sg15
S'depotFile'
p2245
sg20
S'The file name'
p2246
stRp2247
ag3
(g4
g5
(dp2248
g17
S'String'
p2249
sg15
S'lbrRev'
p2250
sg20
S'The librarian revision'
p2251
stRp2252
ag3
(g4
g5
(dp2253
g17
S'String'
p2254
sg15
S'type'
p2255
sg20
S'The file type of the revision'
p2256
stRp2257
ag3
(g4
g5
(dp2258
g17
S'PullStatus'
p2259
sg15
S'status'
p2260
sg20
S'The status of the archive transfer'
p2261
stRp2262
ag3
(g4
g5
(dp2263
g17
S'Action'
p2264
sg15
S'action'
p2265
sg20
S'The action that created the revision'
p2266
stRp2267
ag3
(g4
g5
(dp2268
g17
S'Digest'
p2269
sg15
S'digest'
p2270
sg20
S'The MD5 digest of the revision'
p2271
stRp2272
ag3
(g4
g5
(dp2273
g17
S'FileSize'
p2274
sg15
S'size'
p2275
sg20
S'The size of the file in bytes'
p2276
stRp2277
ag3
(g4
g5
(dp2278
g17
S'Change'
p2279
sg15
S'change'
p2280
sg20
S'The changelist that created the revision'
p2281
stRp2282
ag3
(g4
g5
(dp2283
g17
S'Date'
p2284
sg15
S'lbrDate'
p2285
sg20
S'Librarian date'
p2286
stRp2287
ag3
(g4
g5
(dp2288
g17
S'Date'
p2289
sg15
S'lbrModTime'
p2290
sg20
S'Librarian modtime'
p2291
stRp2292
ag3
(g4
g5
(dp2293
g17
S'Int'
p2294
sg15
S'pid'
p2295
sg20
S'The process id (PID) of the pull process'
p2296
stRp2297
ag3
(g4
g5
(dp2298
g17
S'Date'
p2299
sg15
S'requestTime'
p2300
sg20
S'Pull request time'
p2301
stRp2302
ag3
(g4
g5
(dp2303
g17
S'Int'
p2304
sg15
S'retries'
p2305
sg20
S'The number of retries that have occurred after transfer error'
p2306
stRp2307
ag3
(g4
g5
(dp2308
g17
S'String'
p2309
sg15
S'transferError'
p2310
sg20
S'The error message for a failed transfer'
p2311
stRp2312
atRp2313
sg15
S'ReplicaArchiveTransfer'
p2314
stRp2315
ag3
(g4
g5
(dp2316
g646
g3
(g8
g9
(lp2317
g3
(g4
g5
(dp2318
g17
S'String'
p2319
sg15
S'repo'
p2320
sg20
S'Name of the repo'
p2321
stRp2322
ag3
(g4
g5
(dp2323
g17
S'User'
p2324
sg15
S'owner'
p2325
sg20
S'Owner of the repo'
p2326
stRp2327
ag3
(g4
g5
(dp2328
g17
S'Date'
p2329
sg15
S'created'
p2330
sg20
S'Date the repo specification was created'
p2331
stRp2332
ag3
(g4
g5
(dp2333
g17
S'Date'
p2334
sg15
S'pushed'
p2335
sg20
S'Date of the last push to the repo'
p2336
stRp2337
ag3
(g4
g5
(dp2338
g17
S'String'
p2339
sg15
S'forked'
p2340
sg20
S'Name of the repo from which this repo was forked'
p2341
stRp2342
ag3
(g4
g5
(dp2343
g17
S'String'
p2344
sg15
S'desc'
p2345
sg20
S'Repo Description'
p2346
stRp2347
ag3
(g4
g5
(dp2348
g17
S'String'
p2349
sg15
S'branch'
p2350
sg20
S'Default branch to clone from the repo'
p2351
stRp2352
ag3
(g4
g5
(dp2353
g17
S'String'
p2354
sg15
S'mirror'
p2355
sg20
S'Upstream URL that this repo is mirrored (readonly) from'
p2356
stRp2357
ag3
(g4
g5
(dp2358
g17
S'Int'
p2359
sg15
S'options'
p2360
sg20
S'Repo options: 0 = nolfs, 1 = lfs'
p2361
stRp2362
ag3
(g4
g5
(dp2363
g17
S'Int'
p2364
sg15
S'id'
p2365
sg20
S'Repo index ID'
p2366
stRp2367
atRp2368
sg15
S'Repo'
p2369
stRp2370
ag3
(g4
g5
(dp2371
g646
g3
(g8
g9
(lp2372
g3
(g4
g5
(dp2373
g17
S'File'
p2374
sg15
S'toFile'
p2375
sg20
S'File to which integration is being performed (target).'
p2376
stRp2377
ag3
(g4
g5
(dp2378
g17
S'File'
p2379
sg15
S'fromFile'
p2380
sg20
S'File from which integration is being performed (source).'
p2381
stRp2382
ag3
(g4
g5
(dp2383
g17
S'Rev'
p2384
sg15
S'startFromRev'
p2385
sg20
S'Starting revision of fromFile'
p2386
stRp2387
ag3
(g4
g5
(dp2388
g17
S'Rev'
p2389
sg15
S'endFromRev'
p2390
sg20
S'Ending revision of fromFile'
p2391
stRp2392
ag3
(g4
g5
(dp2393
g17
S'Rev'
p2394
sg15
S'startToRev'
p2395
sg20
S'Start revision of toFile into which integration was \n\t\t    performed.'
p2396
stRp2397
ag3
(g4
g5
(dp2398
g17
S'Rev'
p2399
sg15
S'endToRev'
p2400
sg20
S'End revision of toFile into which integration was \n\t\t    performed. Only varies from startToRev for reverse \n\t\t    integration records.'
p2401
stRp2402
ag3
(g4
g5
(dp2403
g17
S'IntegHow'
p2404
sg15
S'how'
p2405
sg20
S'Integration method: variations on \n\t\t    merge/branch/copy/ignore/delete.'
p2406
stRp2407
ag3
(g4
g5
(dp2408
g17
S'ResolveState'
p2409
sg15
S'state'
p2410
sg20
S'How the user performed the resolve.'
p2411
stRp2412
ag3
(g4
g5
(dp2413
g17
S'File'
p2414
sg15
S'baseFile'
p2415
sg20
S'File used as the base for merging.'
p2416
stRp2417
ag3
(g4
g5
(dp2418
g17
S'Rev'
p2419
sg15
S'baseRev'
p2420
sg20
S'Revision of baseFile used as the merge base.'
p2421
stRp2422
atRp2423
sg15
S'Resolve'
p2424
stRp2425
ag3
(g4
g5
(dp2426
g646
g3
(g8
g9
(lp2427
g3
(g4
g5
(dp2428
g17
S'File'
p2429
sg15
S'toFile'
p2430
sg20
S'ToFile'
p2431
stRp2432
ag3
(g4
g5
(dp2433
g17
S'File'
p2434
sg15
S'fromFile'
p2435
sg20
S'FromFile'
p2436
stRp2437
ag3
(g4
g5
(dp2438
g17
S'SHA1'
p2439
sg15
S'baseSHA'
p2440
sg20
S'Base SHA'
p2441
stRp2442
ag3
(g4
g5
(dp2443
g17
S'SHA1'
p2444
sg15
S'wantsSHA'
p2445
sg20
S'Wants SHA'
p2446
stRp2447
ag3
(g4
g5
(dp2448
g17
S'IntegHow'
p2449
sg15
S'how'
p2450
sg20
S'How'
p2451
stRp2452
ag3
(g4
g5
(dp2453
g17
S'ResolvedStatus'
p2454
sg15
S'state'
p2455
sg20
S'State'
p2456
stRp2457
atRp2458
sg15
S'ResolveG'
p2459
stRp2460
ag3
(g4
g5
(dp2461
g646
g3
(g8
g9
(lp2462
g3
(g4
g5
(dp2463
g17
S'File'
p2464
sg15
S'depotFile'
p2465
sg20
S'The file name'
p2466
stRp2467
ag3
(g4
g5
(dp2468
g17
S'Rev'
p2469
sg15
S'depotRev'
p2470
sg20
S'The revision number'
p2471
stRp2472
ag3
(g4
g5
(dp2473
g17
S'FileType'
p2474
sg15
S'type'
p2475
sg20
S'The file type of the revision'
p2476
stRp2477
ag3
(g4
g5
(dp2478
g17
S'Action'
p2479
sg15
S'action'
p2480
sg20
S'The action that created the revision'
p2481
stRp2482
ag3
(g4
g5
(dp2483
g17
S'Change'
p2484
sg15
S'change'
p2485
sg20
S'The changelist that created the revision'
p2486
stRp2487
ag3
(g4
g5
(dp2488
g17
S'Date'
p2489
sg15
S'date'
p2490
sg20
S'The date/time the changelist that created the revision\n\t\t    was submitted'
p2491
stRp2492
ag3
(g4
g5
(dp2493
g17
S'Date'
p2494
sg15
S'modTime'
p2495
sg20
S"The timestamp on the file in the user's workspace when\n\t\t    the revision was submitted."
p2496
stRp2497
ag3
(g4
g5
(dp2498
g17
S'Digest'
p2499
sg15
S'digest'
p2500
sg20
S'The MD5 digest of the revision.'
p2501
stRp2502
ag3
(g4
g5
(dp2503
g17
S'FileSize'
p2504
sg15
S'size'
p2505
sg20
S'The size of the file in bytes'
p2506
stRp2507
ag3
(g4
g5
(dp2508
g17
S'TraitLot'
p2509
sg15
S'traitLot'
p2510
sg20
S'Group of traits (attributes) associated with the revision.'
p2511
stRp2512
ag3
(g4
g5
(dp2513
g17
S'RevStatus'
p2514
sg15
S'lbrIsLazy'
p2515
sg20
S'Specifies whether or not the revision gets its content from \n\t  \t    another file (lazy copy), data about promotion of revision\n\t \t    content from task streams, and data about revision charset \n            information.'
p2516
stRp2517
ag3
(g4
g5
(dp2518
g17
S'File'
p2519
sg15
S'lbrFile'
p2520
sg20
S"Filename for librarian's purposes.  Specifies location in \n\t\t    the archives where the file containing the revision may\n\t\t    be found. Usually the same as depotFile, but differs in\n\t\t    the case of branched/copied revisions."
p2521
stRp2522
ag3
(g4
g5
(dp2523
g17
S'String'
p2524
sg15
S'lbrRev'
p2525
sg20
S'The revision of lbrFile that contains the revision content.'
p2526
stRp2527
ag3
(g4
g5
(dp2528
g17
S'FileType'
p2529
sg15
S'lbrType'
p2530
sg20
S'The file type of the librarian revision. Usually the same\n\t\t    as type, but differs in the case of branched/copied \n\t\t    revisions.'
p2531
stRp2532
atRp2533
sg15
S'Rev'
p2534
stRp2535
ag3
(g4
g5
(dp2536
g646
g3
(g8
g9
(lp2537
g3
(g4
g5
(dp2538
g17
S'Change'
p2539
sg15
S'change'
p2540
sg20
S'The changelist that created the revision'
p2541
stRp2542
ag3
(g4
g5
(dp2543
g17
S'File'
p2544
sg15
S'depotFile'
p2545
sg20
S'The file name'
p2546
stRp2547
ag3
(g4
g5
(dp2548
g17
S'Rev'
p2549
sg15
S'depotRev'
p2550
sg20
S'The revision number'
p2551
stRp2552
ag3
(g4
g5
(dp2553
g17
S'Action'
p2554
sg15
S'action'
p2555
sg20
S'The action that created the revision'
p2556
stRp2557
atRp2558
sg15
S'RevCx'
p2559
stRp2560
ag3
(g4
g5
(dp2561
g646
g3
(g8
g9
(lp2562
g3
(g4
g5
(dp2563
g17
S'User'
p2564
sg15
S'user'
p2565
sg20
S'A user name'
p2566
stRp2567
ag3
(g4
g5
(dp2568
g17
S'Int'
p2569
sg15
S'seq'
p2570
sg20
S'Sequence number: used for ordering multi-line views'
p2571
stRp2572
ag3
(g4
g5
(dp2573
g17
S'MapFlag'
p2574
sg15
S'mapFlag'
p2575
sg20
S'Type of mapping'
p2576
stRp2577
ag3
(g4
g5
(dp2578
g17
S'Mapping'
p2579
sg15
S'depotFile'
p2580
sg20
S'The files to be reviewed'
p2581
stRp2582
ag3
(g4
g5
(dp2583
g17
S'Reviewer'
p2584
sg15
S'type'
p2585
sg20
S'Type of reviewer'
p2586
stRp2587
atRp2588
sg15
S'Review'
p2589
stRp2590
ag3
(g4
g5
(dp2591
g646
g3
(g8
g9
(lp2592
g3
(g4
g5
(dp2593
g17
S'RemoteID'
p2594
sg15
S'id'
p2595
sg20
S'Remote name'
p2596
stRp2597
ag3
(g4
g5
(dp2598
g17
S'Int'
p2599
sg15
S'seq'
p2600
sg20
S'Sequence number: for ordering multi-line views'
p2601
stRp2602
ag3
(g4
g5
(dp2603
g17
S'MapFlag'
p2604
sg15
S'mapFlag'
p2605
sg20
S'Type of mapping'
p2606
stRp2607
ag3
(g4
g5
(dp2608
g17
S'Mapping'
p2609
sg15
S'localFile'
p2610
sg20
S'Local file'
p2611
stRp2612
ag3
(g4
g5
(dp2613
g17
S'Mapping'
p2614
sg15
S'remoteFile'
p2615
sg20
S'Remote file'
p2616
stRp2617
ag3
(g4
g5
(dp2618
g17
S'Int'
p2619
sg15
S'retain'
p2620
sg20
S'ArchiveLimits'
p2621
stRp2622
atRp2623
sg15
S'RmtView'
p2624
stRp2625
ag3
(g4
g5
(dp2626
g646
g3
(g8
g9
(lp2627
g3
(g4
g5
(dp2628
g17
S'Int'
p2629
sg15
S'taskID'
p2630
sg20
S'The process id (PID) of the sync'
p2631
stRp2632
ag3
(g4
g5
(dp2633
g17
S'Int'
p2634
sg15
S'seq'
p2635
sg20
S'Sequence number'
p2636
stRp2637
ag3
(g4
g5
(dp2638
g17
S'Text'
p2639
sg15
S'handle'
p2640
sg20
S'Handle'
p2641
stRp2642
ag3
(g4
g5
(dp2643
g17
S'File'
p2644
sg15
S'depotFile'
p2645
sg20
S'The file in the depot'
p2646
stRp2647
ag3
(g4
g5
(dp2648
g17
S'File'
p2649
sg15
S'clientFile'
p2650
sg20
S'The file in its location on the client'
p2651
stRp2652
ag3
(g4
g5
(dp2653
g17
S'Rev'
p2654
sg15
S'haveRev'
p2655
sg20
S'Have revision'
p2656
stRp2657
ag3
(g4
g5
(dp2658
g17
S'FileType'
p2659
sg15
S'type'
p2660
sg20
S'File type'
p2661
stRp2662
ag3
(g4
g5
(dp2663
g17
S'Date'
p2664
sg15
S'modtime'
p2665
sg20
S'Modification time'
p2666
stRp2667
ag3
(g4
g5
(dp2668
g17
S'Digest'
p2669
sg15
S'digest'
p2670
sg20
S'The MD5 digest of the revision'
p2671
stRp2672
ag3
(g4
g5
(dp2673
g17
S'FileSize'
p2674
sg15
S'size'
p2675
sg20
S'The size of the file in bytes'
p2676
stRp2677
ag3
(g4
g5
(dp2678
g17
S'File'
p2679
sg15
S'lbrFile'
p2680
sg20
S'Librarian filename'
p2681
stRp2682
ag3
(g4
g5
(dp2683
g17
S'LbrRev'
p2684
sg15
S'lbrRev'
p2685
sg20
S'The revision of lbrFile that contains the revision content'
p2686
stRp2687
ag3
(g4
g5
(dp2688
g17
S'FileType'
p2689
sg15
S'lbrType'
p2690
sg20
S'The file type of the librarian revision'
p2691
stRp2692
ag3
(g4
g5
(dp2693
g17
S'Int'
p2694
sg15
S'flags'
p2695
sg20
S'Flags'
p2696
stRp2697
ag3
(g4
g5
(dp2698
g17
S'FileType'
p2699
sg15
S'clientType'
p2700
sg20
S'The client file type of the revision'
p2701
stRp2702
ag3
(g4
g5
(dp2703
g17
S'Rev'
p2704
sg15
S'depotRev'
p2705
sg20
S'The revision number of depotFile'
p2706
stRp2707
ag3
(g4
g5
(dp2708
g17
S'Change'
p2709
sg15
S'change'
p2710
sg20
S'The changelist that created the depotRev of depotFile'
p2711
stRp2712
ag3
(g4
g5
(dp2713
g17
S'Date'
p2714
sg15
S'date'
p2715
sg20
S'The date/time when the changelist that created depotRev of depotFile was submitted'
p2716
stRp2717
ag3
(g4
g5
(dp2718
g17
S'SHA1'
p2719
sg15
S'bsha'
p2720
sg20
S'The Blob SHA'
p2721
stRp2722
ag3
(g4
g5
(dp2723
g17
S'Int'
p2724
sg15
S'reposlot'
p2725
sg20
S'reposlot'
p2726
stRp2727
ag3
(g4
g5
(dp2728
g17
S'Digest'
p2729
sg15
S'sdigest'
p2730
sg20
S'sdigest'
p2731
stRp2732
atRp2733
sg15
S'SendQ'
p2734
stRp2735
ag3
(g4
g5
(dp2736
g646
g3
(g8
g9
(lp2737
g3
(g4
g5
(dp2738
g17
S'Text'
p2739
sg15
S'id'
p2740
sg20
S'The server identifier'
p2741
stRp2742
ag3
(g4
g5
(dp2743
g17
S'ServerType'
p2744
sg15
S'type'
p2745
sg20
S'The server type: server/broker/proxy'
p2746
stRp2747
ag3
(g4
g5
(dp2748
g17
S'Text'
p2749
sg15
S'name'
p2750
sg20
S'The P4NAME used by this server'
p2751
stRp2752
ag3
(g4
g5
(dp2753
g17
S'Text'
p2754
sg15
S'address'
p2755
sg20
S'The P4PORT used by this server'
p2756
stRp2757
ag3
(g4
g5
(dp2758
g17
S'Text'
p2759
sg15
S'externalAddress'
p2760
sg20
S'For an edge server, this optional field contains its external address for connections from the commit server. This field is required for federated parallel submit.'
p2761
stRp2762
ag3
(g4
g5
(dp2763
g17
S'ServerServiceType'
p2764
sg15
S'services'
p2765
sg20
S'Service provided by this server'
p2766
stRp2767
ag3
(g4
g5
(dp2768
g17
S'Text'
p2769
sg15
S'desc'
p2770
sg20
S'Server description'
p2771
stRp2772
ag3
(g4
g5
(dp2773
g17
S'User'
p2774
sg15
S'user'
p2775
sg20
S'The service user used by this server'
p2776
stRp2777
ag3
(g4
g5
(dp2778
g17
S'ServerOptionsType'
p2779
sg15
S'options'
p2780
sg20
S'Server options'
p2781
stRp2782
ag3
(g4
g5
(dp2783
g17
S'Text'
p2784
sg15
S'rplfrom'
p2785
sg20
S'Replication from Server ID'
p2786
stRp2787
ag3
(g4
g5
(dp2788
g17
S'Text'
p2789
sg15
S'failoverSeen'
p2790
sg20
S'Mark failover as seen'
p2791
stRp2792
atRp2793
sg15
S'Server'
p2794
stRp2795
ag3
(g4
g5
(dp2796
g646
g3
(g8
g9
(lp2797
g3
(g4
g5
(dp2798
g17
S'Domain'
p2799
sg15
S'client'
p2800
sg20
S'Client the stash refers to'
p2801
stRp2802
ag3
(g4
g5
(dp2803
g17
S'Domain'
p2804
sg15
S'stream'
p2805
sg20
S'Stream the stash refers to'
p2806
stRp2807
ag3
(g4
g5
(dp2808
g17
S'StashType'
p2809
sg15
S'type'
p2810
sg20
S'Stash type'
p2811
stRp2812
ag3
(g4
g5
(dp2813
g17
S'Int'
p2814
sg15
S'seq'
p2815
sg20
S'Sequence number'
p2816
stRp2817
ag3
(g4
g5
(dp2818
g17
S'Change'
p2819
sg15
S'change'
p2820
sg20
S'Stash change number'
p2821
stRp2822
atRp2823
sg15
S'Stash'
p2824
stRp2825
ag3
(g4
g5
(dp2826
g646
g3
(g8
g9
(lp2827
g3
(g4
g5
(dp2828
g17
S'Domain'
p2829
sg15
S'stream'
p2830
sg20
S'Stream name'
p2831
stRp2832
ag3
(g4
g5
(dp2833
g17
S'Domain'
p2834
sg15
S'parent'
p2835
sg20
S'Parent stream name'
p2836
stRp2837
ag3
(g4
g5
(dp2838
g17
S'Text'
p2839
sg15
S'title'
p2840
sg20
S'Stream title (alias for the stream name)'
p2841
stRp2842
ag3
(g4
g5
(dp2843
g17
S'StreamType'
p2844
sg15
S'type'
p2845
sg20
S'The type of stream'
p2846
stRp2847
ag3
(g4
g5
(dp2848
g17
S'Date'
p2849
sg15
S'preview'
p2850
sg20
S'Stream template modification time'
p2851
stRp2852
ag3
(g4
g5
(dp2853
g17
S'Change'
p2854
sg15
S'change'
p2855
sg20
S'Last submit to stream'
p2856
stRp2857
ag3
(g4
g5
(dp2858
g17
S'Change'
p2859
sg15
S'copychg'
p2860
sg20
S'Parent change at last copy'
p2861
stRp2862
ag3
(g4
g5
(dp2863
g17
S'Change'
p2864
sg15
S'mergechg'
p2865
sg20
S'Parent change at last merge'
p2866
stRp2867
ag3
(g4
g5
(dp2868
g17
S'Change'
p2869
sg15
S'highchg'
p2870
sg20
S'Highest change at last merge'
p2871
stRp2872
ag3
(g4
g5
(dp2873
g17
S'Int'
p2874
sg15
S'hash'
p2875
sg20
S'Hash value of dynamic branch'
p2876
stRp2877
ag3
(g4
g5
(dp2878
g17
S'StreamStatus'
p2879
sg15
S'status'
p2880
sg20
S'Flow status'
p2881
stRp2882
atRp2883
sg15
S'Stream'
p2884
stRp2885
ag3
(g4
g5
(dp2886
g646
g3
(g8
g9
(lp2887
g3
(g4
g5
(dp2888
g17
S'Text'
p2889
sg15
S'id'
p2890
sg20
S'Server name'
p2891
stRp2892
ag3
(g4
g5
(dp2893
g17
S'SvrViewType'
p2894
sg15
S'type'
p2895
sg20
S'View type'
p2896
stRp2897
ag3
(g4
g5
(dp2898
g17
S'Int'
p2899
sg15
S'seq'
p2900
sg20
S'Sequence (line) number'
p2901
stRp2902
ag3
(g4
g5
(dp2903
g17
S'MapFlag'
p2904
sg15
S'mapFlag'
p2905
sg20
S'Type of mapping'
p2906
stRp2907
ag3
(g4
g5
(dp2908
g17
S'Mapping'
p2909
sg15
S'viewFile'
p2910
sg20
S'View file'
p2911
stRp2912
atRp2913
sg15
S'SvrView'
p2914
stRp2915
ag3
(g4
g5
(dp2916
g646
g3
(g8
g9
(lp2917
g3
(g4
g5
(dp2918
g17
S'String'
p2919
sg15
S'repo'
p2920
sg20
S'Repository name'
p2921
stRp2922
ag3
(g4
g5
(dp2923
g17
S'String'
p2924
sg15
S'path'
p2925
sg20
S'Path at which the submodule is linked'
p2926
stRp2927
ag3
(g4
g5
(dp2928
g17
S'String'
p2929
sg15
S'subrepo'
p2930
sg20
S'Submodule repository name'
p2931
stRp2932
atRp2933
sg15
S'Submodule'
p2934
stRp2935
ag3
(g4
g5
(dp2936
g646
g3
(g8
g9
(lp2937
g3
(g4
g5
(dp2938
g17
S'Domain'
p2939
sg15
S'name'
p2940
sg20
S'Stream name'
p2941
stRp2942
ag3
(g4
g5
(dp2943
g17
S'Change'
p2944
sg15
S'change'
p2945
sg20
S'Versioned at change'
p2946
stRp2947
ag3
(g4
g5
(dp2948
g17
S'Int'
p2949
sg15
S'seq'
p2950
sg20
S'Sequence (line) number'
p2951
stRp2952
ag3
(g4
g5
(dp2953
g17
S'Domain'
p2954
sg15
S'parent'
p2955
sg20
S'Parent stream name'
p2956
stRp2957
ag3
(g4
g5
(dp2958
g17
S'StreamType'
p2959
sg15
S'type'
p2960
sg20
S'Type of stream'
p2961
stRp2962
ag3
(g4
g5
(dp2963
g17
S'StreamPathType'
p2964
sg15
S'path'
p2965
sg20
S'Stream path type'
p2966
stRp2967
ag3
(g4
g5
(dp2968
g17
S'Mapping'
p2969
sg15
S'viewFile'
p2970
sg20
S'View file (left hand side of path)'
p2971
stRp2972
ag3
(g4
g5
(dp2973
g17
S'Mapping'
p2974
sg15
S'depotFile'
p2975
sg20
S'Depot file (right hand side of path)'
p2976
stRp2977
ag3
(g4
g5
(dp2978
g17
S'Value'
p2979
sg15
S'changeMap'
p2980
sg20
S"Stream 'import' path changelist specifier. The changelist\n\t\t\tlimits in effect for a given client are displayed in a\n\t    \tread-only client spec field called 'ChangeView'"
p2981
stRp2982
atRp2983
sg15
S'Template'
p2984
stRp2985
ag3
(g4
g5
(dp2986
g646
g3
(g8
g9
(lp2987
g3
(g4
g5
(dp2988
g17
S'Change'
p2989
sg15
S'shelf'
p2990
sg20
S'Shelf changelist number'
p2991
stRp2992
ag3
(g4
g5
(dp2993
g17
S'Domain'
p2994
sg15
S'name'
p2995
sg20
S'Stream name'
p2996
stRp2997
ag3
(g4
g5
(dp2998
g17
S'Int'
p2999
sg15
S'seq'
p3000
sg20
S'Sequence (line) number'
p3001
stRp3002
ag3
(g4
g5
(dp3003
g17
S'Change'
p3004
sg15
S'change'
p3005
sg20
S'Versioned at change'
p3006
stRp3007
ag3
(g4
g5
(dp3008
g17
S'Domain'
p3009
sg15
S'parent'
p3010
sg20
S'Parent stream name'
p3011
stRp3012
ag3
(g4
g5
(dp3013
g17
S'StreamType'
p3014
sg15
S'type'
p3015
sg20
S'Type of stream'
p3016
stRp3017
ag3
(g4
g5
(dp3018
g17
S'StreamPathType'
p3019
sg15
S'path'
p3020
sg20
S'Stream path type'
p3021
stRp3022
ag3
(g4
g5
(dp3023
g17
S'Mapping'
p3024
sg15
S'viewFile'
p3025
sg20
S'View file (left hand side of path)'
p3026
stRp3027
ag3
(g4
g5
(dp3028
g17
S'Mapping'
p3029
sg15
S'depotFile'
p3030
sg20
S'Depot file (right hand side of path)'
p3031
stRp3032
ag3
(g4
g5
(dp3033
g17
S'Value'
p3034
sg15
S'changeMap'
p3035
sg20
S"Stream 'import' path changelist specifier. The changelist\n\t\t\tlimits in effect for a given client are displayed in a\n\t    \tread-only client spec field called 'ChangeView'"
p3036
stRp3037
atRp3038
sg15
S'TemplateSx'
p3039
stRp3040
ag3
(g4
g5
(dp3041
g646
g3
(g8
g9
(lp3042
g3
(g4
g5
(dp3043
g17
S'Domain'
p3044
sg15
S'client'
p3045
sg20
S'Stream client'
p3046
stRp3047
ag3
(g4
g5
(dp3048
g17
S'Domain'
p3049
sg15
S'name'
p3050
sg20
S'Stream name'
p3051
stRp3052
ag3
(g4
g5
(dp3053
g17
S'Int'
p3054
sg15
S'seq'
p3055
sg20
S'Sequence (line) number'
p3056
stRp3057
ag3
(g4
g5
(dp3058
g17
S'Change'
p3059
sg15
S'change'
p3060
sg20
S'Versioned at change'
p3061
stRp3062
ag3
(g4
g5
(dp3063
g17
S'Domain'
p3064
sg15
S'parent'
p3065
sg20
S'Parent stream name'
p3066
stRp3067
ag3
(g4
g5
(dp3068
g17
S'StreamType'
p3069
sg15
S'type'
p3070
sg20
S'Type of stream'
p3071
stRp3072
ag3
(g4
g5
(dp3073
g17
S'StreamPathType'
p3074
sg15
S'path'
p3075
sg20
S'Stream path type'
p3076
stRp3077
ag3
(g4
g5
(dp3078
g17
S'Mapping'
p3079
sg15
S'viewFile'
p3080
sg20
S'View file (left hand side of path)'
p3081
stRp3082
ag3
(g4
g5
(dp3083
g17
S'Mapping'
p3084
sg15
S'depotFile'
p3085
sg20
S'Depot file (right hand side of path)'
p3086
stRp3087
ag3
(g4
g5
(dp3088
g17
S'Value'
p3089
sg15
S'changeMap'
p3090
sg20
S"Stream 'import' path changelist specifier. The changelist\n\t\t\tlimits in effect for a given client are displayed in a\n\t    \tread-only client spec field called 'ChangeView'"
p3091
stRp3092
atRp3093
sg15
S'TemplateWx'
p3094
stRp3095
ag3
(g4
g5
(dp3096
g646
g3
(g8
g9
(lp3097
g3
(g4
g5
(dp3098
g17
S'User'
p3099
sg15
S'user'
p3100
sg20
S'User the ticket was issued for'
p3101
stRp3102
ag3
(g4
g5
(dp3103
g17
S'String'
p3104
sg15
S'host'
p3105
sg20
S'Host the ticket was issued for'
p3106
stRp3107
ag3
(g4
g5
(dp3108
g17
S'Password'
p3109
sg15
S'ticket'
p3110
sg20
S"The 'p4 login' ticket for this user"
p3111
stRp3112
ag3
(g4
g5
(dp3113
g17
S'2FAState'
p3114
sg15
S'state'
p3115
sg20
S'The state of 2 Factor Authentication'
p3116
stRp3117
ag3
(g4
g5
(dp3118
g17
S'String'
p3119
sg15
S'token'
p3120
sg20
S'The 2 Factor Authentication token'
p3121
stRp3122
ag3
(g4
g5
(dp3123
g17
S'Date'
p3124
sg15
S'updateDate'
p3125
sg20
S'The date of the last ticket update'
p3126
stRp3127
atRp3128
sg15
S'Ticket'
p3129
stRp3130
ag3
(g4
g5
(dp3131
g646
g3
(g8
g9
(lp3132
g3
(g4
g5
(dp3133
g17
S'String'
p3134
sg15
S'fileAndRev'
p3135
sg20
S'The file name and revision'
p3136
stRp3137
ag3
(g4
g5
(dp3138
g17
S'Octet String'
p3139
sg15
S'fileContent'
p3140
sg20
S'The (encoded) file content'
p3141
stRp3142
atRp3143
sg15
S'TinyDb'
p3144
stRp3145
ag3
(g4
g5
(dp3146
g646
g3
(g8
g9
(lp3147
g3
(g4
g5
(dp3148
g17
S'Int'
p3149
sg15
S'traitLot'
p3150
sg20
S'Indicates a specific collection of traits (referred to \n\t\t    externally as "attributes".)'
p3151
stRp3152
ag3
(g4
g5
(dp3153
g17
S'String'
p3154
sg15
S'name'
p3155
sg20
S'Trait (attribute) name'
p3156
stRp3157
ag3
(g4
g5
(dp3158
g17
S'TraitType'
p3159
sg15
S'type'
p3160
sg20
S'Type of trait'
p3161
stRp3162
ag3
(g4
g5
(dp3163
g17
S'Octet String'
p3164
sg15
S'value'
p3165
sg20
S'The value'
p3166
stRp3167
atRp3168
sg15
S'Trait'
p3169
stRp3170
ag3
(g4
g5
(dp3171
g646
g3
(g8
g9
(lp3172
g3
(g4
g5
(dp3173
g17
S'Int'
p3174
sg15
S'seq'
p3175
sg20
S'Sequence number: for ordering the trigger list'
p3176
stRp3177
ag3
(g4
g5
(dp3178
g17
S'String'
p3179
sg15
S'name'
p3180
sg20
S'Name of the trigger'
p3181
stRp3182
ag3
(g4
g5
(dp3183
g17
S'MapFlag'
p3184
sg15
S'mapFlag'
p3185
sg20
S'Type of mapping: specifies whether the trigger applies \n\t\t    to the files or not.'
p3186
stRp3187
ag3
(g4
g5
(dp3188
g17
S'Mapping'
p3189
sg15
S'depotFile'
p3190
sg20
S'The files to apply the trigger to'
p3191
stRp3192
ag3
(g4
g5
(dp3193
g17
S'File'
p3194
sg15
S'triggerDepotFile'
p3195
sg20
S'Depot path to the trigger'
p3196
stRp3197
ag3
(g4
g5
(dp3198
g17
S'Trigger'
p3199
sg15
S'trigger'
p3200
sg20
S'Type of trigger'
p3201
stRp3202
ag3
(g4
g5
(dp3203
g17
S'Text'
p3204
sg15
S'action'
p3205
sg20
S'Command to execute when trigger runs'
p3206
stRp3207
atRp3208
sg15
S'Trigger'
p3209
stRp3210
ag3
(g4
g5
(dp3211
g646
g3
(g8
g9
(lp3212
g3
(g4
g5
(dp3213
g17
S'User'
p3214
sg15
S'user'
p3215
sg20
S'The username'
p3216
stRp3217
ag3
(g4
g5
(dp3218
g17
S'Text'
p3219
sg15
S'email'
p3220
sg20
S"The user's email address"
p3221
stRp3222
ag3
(g4
g5
(dp3223
g17
S'Text'
p3224
sg15
S'jobView'
p3225
sg20
S"The user's job view"
p3226
stRp3227
ag3
(g4
g5
(dp3228
g17
S'Date'
p3229
sg15
S'updateDate'
p3230
sg20
S'The date/time the user record was last updated'
p3231
stRp3232
ag3
(g4
g5
(dp3233
g17
S'Date'
p3234
sg15
S'accessDate'
p3235
sg20
S'The date/time the user record was last used'
p3236
stRp3237
ag3
(g4
g5
(dp3238
g17
S'Text'
p3239
sg15
S'fullName'
p3240
sg20
S"The user's full name"
p3241
stRp3242
ag3
(g4
g5
(dp3243
g17
S'Password'
p3244
sg15
S'password'
p3245
sg20
S'The MD5 hash of the users (encrypted) password'
p3246
stRp3247
ag3
(g4
g5
(dp3248
g17
S'Strength'
p3249
sg15
S'strength'
p3250
sg20
S"Measure of the strength of the user's password"
p3251
stRp3252
ag3
(g4
g5
(dp3253
g17
S'Password'
p3254
sg15
S'ticket'
p3255
sg20
S"'p4 login' ticket for this user"
p3256
stRp3257
ag3
(g4
g5
(dp3258
g17
S'Date'
p3259
sg15
S'endDate'
p3260
sg20
S"Date/time the user's ticket expires"
p3261
stRp3262
ag3
(g4
g5
(dp3263
g17
S'UserLevel'
p3264
sg15
S'type'
p3265
sg20
S'Type of user'
p3266
stRp3267
ag3
(g4
g5
(dp3268
g17
S'Date'
p3269
sg15
S'passDate'
p3270
sg20
S'Date password was last changed'
p3271
stRp3272
ag3
(g4
g5
(dp3273
g17
S'Date'
p3274
sg15
S'passExpire'
p3275
sg20
S'Date of password expiration'
p3276
stRp3277
ag3
(g4
g5
(dp3278
g17
S'Date'
p3279
sg15
S'attempts'
p3280
sg20
S'Failed login attempts'
p3281
stRp3282
ag3
(g4
g5
(dp3283
g17
S'UserAuthType'
p3284
sg15
S'auth'
p3285
sg20
S'Authentication method (AuthMethod) for the user'
p3286
stRp3287
atRp3288
sg15
S'User'
p3289
stRp3290
ag3
(g4
g5
(dp3291
g646
g3
(g8
g9
(lp3292
g3
(g4
g5
(dp3293
g17
S'Domain'
p3294
sg15
S'name'
p3295
sg20
S'Domain name to which this view applies'
p3296
stRp3297
ag3
(g4
g5
(dp3298
g17
S'Int'
p3299
sg15
S'seq'
p3300
sg20
S'Sequence number: for ordering multi-line views'
p3301
stRp3302
ag3
(g4
g5
(dp3303
g17
S'MapFlag'
p3304
sg15
S'mapFlag'
p3305
sg20
S'Type of mapping'
p3306
stRp3307
ag3
(g4
g5
(dp3308
g17
S'Mapping'
p3309
sg15
S'viewFile'
p3310
sg20
S"The right-hand-side of the view. For clients, this is\n\t\t    the client-side, for labels it's the generated label \n\t\t    view. For branches, it's the target side of the branch\n\t\t    view."
p3311
stRp3312
ag3
(g4
g5
(dp3313
g17
S'Mapping'
p3314
sg15
S'depotFile'
p3315
sg20
S'The left-hand-side of the view - a mapping to file(s)\n\t\t    in the depot.'
p3316
stRp3317
atRp3318
sg15
S'View'
p3319
stRp3320
ag3
(g4
g5
(dp3321
g646
g3
(g8
g9
(lp3322
g3
(g4
g5
(dp3323
g17
S'File'
p3324
sg15
S'clientFile'
p3325
sg20
S'File on the client'
p3326
stRp3327
ag3
(g4
g5
(dp3328
g17
S'File'
p3329
sg15
S'depotFile'
p3330
sg20
S'File in the depot'
p3331
stRp3332
ag3
(g4
g5
(dp3333
g17
S'Domain'
p3334
sg15
S'client'
p3335
sg20
S'The client the file is opened on'
p3336
stRp3337
ag3
(g4
g5
(dp3338
g17
S'User'
p3339
sg15
S'user'
p3340
sg20
S'The user who has the file opened'
p3341
stRp3342
ag3
(g4
g5
(dp3343
g17
S'Rev'
p3344
sg15
S'haveRev'
p3345
sg20
S"Revision presently in user's client workspace"
p3346
stRp3347
ag3
(g4
g5
(dp3348
g17
S'Rev'
p3349
sg15
S'workRev'
p3350
sg20
S'Working revision; normally identical to the haveRev'
p3351
stRp3352
ag3
(g4
g5
(dp3353
g17
S'Int'
p3354
sg15
S'isVirtual'
p3355
sg20
S'Flag: if 1, file was opened with "p4 integ -v".'
p3356
stRp3357
ag3
(g4
g5
(dp3358
g17
S'FileType'
p3359
sg15
S'type'
p3360
sg20
S'File type'
p3361
stRp3362
ag3
(g4
g5
(dp3363
g17
S'Action'
p3364
sg15
S'action'
p3365
sg20
S"What the user's doing with the file"
p3366
stRp3367
ag3
(g4
g5
(dp3368
g17
S'Change'
p3369
sg15
S'change'
p3370
sg20
S'Associated changelist, or zero for the default changelist.'
p3371
stRp3372
ag3
(g4
g5
(dp3373
g17
S'Date'
p3374
sg15
S'modTime'
p3375
sg20
S"Modification timestamp on the file in the user's workspace."
p3376
stRp3377
ag3
(g4
g5
(dp3378
g17
S'Int'
p3379
sg15
S'isLocked'
p3380
sg20
S'Flag: 0 for unlocked, 1 for locked.'
p3381
stRp3382
ag3
(g4
g5
(dp3383
g17
S'Digest'
p3384
sg15
S'digest'
p3385
sg20
S'MD5 digest of working file.'
p3386
stRp3387
ag3
(g4
g5
(dp3388
g17
S'Int64'
p3389
sg15
S'size'
p3390
sg20
S'File size'
p3391
stRp3392
ag3
(g4
g5
(dp3393
g17
S'Int'
p3394
sg15
S'traitLot'
p3395
sg20
S'Group of traits associated with file revision.'
p3396
stRp3397
ag3
(g4
g5
(dp3398
g17
S'TamperCheck'
p3399
sg15
S'tampered'
p3400
sg20
S'Flag indicating the tamper-state of the file in the\n\t\t    workspace.'
p3401
stRp3402
ag3
(g4
g5
(dp3403
g17
S'FileType'
p3404
sg15
S'clntType'
p3405
sg20
S'Type of the file in the client workspace.'
p3406
stRp3407
ag3
(g4
g5
(dp3408
g17
S'File'
p3409
sg15
S'mFile'
p3410
sg20
S'Moved filename'
p3411
stRp3412
ag3
(g4
g5
(dp3413
g17
S'WorkStatus'
p3414
sg15
S'status'
p3415
sg20
S'Working status'
p3416
stRp3417
atRp3418
sg15
S'Working'
p3419
stRp3420
ag3
(g4
g5
(dp3421
g646
g3
(g8
g9
(lp3422
g3
(g4
g5
(dp3423
g17
S'File'
p3424
sg15
S'cfile'
p3425
sg20
S'Client File'
p3426
stRp3427
ag3
(g4
g5
(dp3428
g17
S'File'
p3429
sg15
S'dfile'
p3430
sg20
S'Depot File'
p3431
stRp3432
ag3
(g4
g5
(dp3433
g17
S'Domain'
p3434
sg15
S'client'
p3435
sg20
S'Client'
p3436
stRp3437
ag3
(g4
g5
(dp3438
g17
S'User'
p3439
sg15
S'user'
p3440
sg20
S'User'
p3441
stRp3442
ag3
(g4
g5
(dp3443
g17
S'Rev'
p3444
sg15
S'hrev'
p3445
sg20
S'HaveRev'
p3446
stRp3447
ag3
(g4
g5
(dp3448
g17
S'Rev'
p3449
sg15
S'wrev'
p3450
sg20
S'WoringRev'
p3451
stRp3452
ag3
(g4
g5
(dp3453
g17
S'Int'
p3454
sg15
S'virtual'
p3455
sg20
S'Virtual'
p3456
stRp3457
ag3
(g4
g5
(dp3458
g17
S'FileType'
p3459
sg15
S'type'
p3460
sg20
S'File type'
p3461
stRp3462
ag3
(g4
g5
(dp3463
g17
S'Action'
p3464
sg15
S'action'
p3465
sg20
S'Action'
p3466
stRp3467
ag3
(g4
g5
(dp3468
g17
S'Change'
p3469
sg15
S'change'
p3470
sg20
S'Change'
p3471
stRp3472
ag3
(g4
g5
(dp3473
g17
S'Date'
p3474
sg15
S'modtime'
p3475
sg20
S'ModTime'
p3476
stRp3477
ag3
(g4
g5
(dp3478
g17
S'Int'
p3479
sg15
S'islocked'
p3480
sg20
S'IsLocked'
p3481
stRp3482
ag3
(g4
g5
(dp3483
g17
S'Digest'
p3484
sg15
S'digest'
p3485
sg20
S'MD5 digest'
p3486
stRp3487
ag3
(g4
g5
(dp3488
g17
S'Int64'
p3489
sg15
S'size'
p3490
sg20
S'File size'
p3491
stRp3492
ag3
(g4
g5
(dp3493
g17
S'Int'
p3494
sg15
S'traitlot'
p3495
sg20
S'TraitLot'
p3496
stRp3497
ag3
(g4
g5
(dp3498
g17
S'TamperCheck'
p3499
sg15
S'tampered'
p3500
sg20
S'Tampered'
p3501
stRp3502
ag3
(g4
g5
(dp3503
g17
S'FileType'
p3504
sg15
S'ctype'
p3505
sg20
S'ClientType'
p3506
stRp3507
ag3
(g4
g5
(dp3508
g17
S'File'
p3509
sg15
S'mfile'
p3510
sg20
S'Moved filename'
p3511
stRp3512
ag3
(g4
g5
(dp3513
g17
S'Int'
p3514
sg15
S'status'
p3515
sg20
S'Working status'
p3516
stRp3517
ag3
(g4
g5
(dp3518
g17
S'SHA1'
p3519
sg15
S'sha'
p3520
sg20
S'Blob SHA'
p3521
stRp3522
ag3
(g4
g5
(dp3523
g17
S'String'
p3524
sg15
S'repo'
p3525
sg20
S'Repository name'
p3526
stRp3527
atRp3528
sg15
S'WorkingG'
p3529
stRp3530
atRp3531
stRp3532
sS'upgrades'
p3533
g3
(g4
g5
(dp3534
S'upgrade'
p3535
g3
(g8
g9
(lp3536
g3
(g4
g5
(dp3537
S'release'
p3538
S'2001.1'
p3539
sS'index'
p3540
S'1'
sg20
S'Split db.integ into db.integed and db.resolve'
p3541
stRp3542
ag3
(g4
g5
(dp3543
g3538
S'2001.1'
p3544
sg3540
S'2'
sg20
S'Split db.have into db.have and db.label'
p3545
stRp3546
ag3
(g4
g5
(dp3547
g3538
S'2002.1'
p3548
sg3540
S'3'
sg20
S'Split db.change into db.change and db.changex'
p3549
stRp3550
ag3
(g4
g5
(dp3551
g3538
S'2002.2'
p3552
sg3540
S'4'
sg20
S'Upgrade tempobj filetype in db.rev'
p3553
stRp3554
ag3
(g4
g5
(dp3555
g3538
S'2002.2'
p3556
sg3540
S'5'
sg20
S'Upgrade tempobj filetype in db.working'
p3557
stRp3558
ag3
(g4
g5
(dp3559
g3538
S'2003.1'
p3560
sg3540
S'6'
sg20
S'JnlInitialize default depot'
p3561
stRp3562
ag3
(g4
g5
(dp3563
g3538
S'2003.2'
p3564
sg3540
S'7'
sg20
S'Upgrade db.user'
p3565
stRp3566
ag3
(g4
g5
(dp3567
g3538
S'2005.1'
p3568
sg3540
S'8'
sg20
S'Build db.revhx (headrev) table'
p3569
stRp3570
ag3
(g4
g5
(dp3571
g3538
S'2005.1'
p3572
sg3540
S'9'
sg20
S'Rebuild db.locks from db.working'
p3573
stRp3574
ag3
(g4
g5
(dp3575
g3538
S'2005.1'
p3576
sg3540
S'10'
p3577
sg260
S'Removed in 2006.2'
p3578
sg20
S'Build lazy-copy index (db.archive)'
p3579
stRp3580
ag3
(g4
g5
(dp3581
g3538
S'2005.2'
p3582
sg3540
S'11'
p3583
sg20
S'Build db.revdx (delrev) table'
p3584
stRp3585
ag3
(g4
g5
(dp3586
g3538
S'2005.2'
p3587
sg3540
S'12'
p3588
sg260
S'Moved to 16 in 2007.3'
p3589
sg20
S'Build haveMap from db.have/db.working'
p3590
stRp3591
ag3
(g4
g5
(dp3592
g3538
S'2005.2'
p3593
sg3540
S'13'
p3594
sg20
S'Move spec depot entries into db.revsx'
p3595
stRp3596
ag3
(g4
g5
(dp3597
g3538
S'2006.2'
p3598
sg3540
S'14'
p3599
sg260
S'Moved to 17 in 2007.3'
p3600
sg20
S'Build db.archmap (lazy-copy map) table'
p3601
stRp3602
ag3
(g4
g5
(dp3603
g3538
S'2006.2'
p3604
sg3540
S'15'
p3605
sg260
S'Moved to 18 in 2007.3'
p3606
sg20
S'Remove (obsolete) db.archive table'
p3607
stRp3608
ag3
(g4
g5
(dp3609
g3538
S'2007.3'
p3610
sg3540
S'16'
p3611
sg260
S'Rewritten in 2007.3'
p3612
sg20
S'Build/Rebuild haveMap from db.have/db.working'
p3613
stRp3614
ag3
(g4
g5
(dp3615
g3538
S'2007.3'
p3616
sg3540
S'17'
p3617
sg260
S'Rewritten in 2007.3'
p3618
sg20
S'Build/Rebuild db.archmap (lazy-copy map) table'
p3619
stRp3620
ag3
(g4
g5
(dp3621
g3538
S'2007.3'
p3622
sg3540
S'18'
p3623
sg260
S'Moved from 15 in 2007.3'
p3624
sg20
S'Remove (obsolete) db.archive table'
p3625
stRp3626
ag3
(g4
g5
(dp3627
g3538
S'2008.1'
p3628
sg3540
S'19'
p3629
sg20
S'Build db.change common path'
p3630
stRp3631
ag3
(g4
g5
(dp3632
g3538
S'2009.2'
p3633
sg3540
S'20'
p3634
sg20
S'Move db.boddate/db.ixdate into db.bodtext/db.ixtext'
p3635
stRp3636
ag3
(g4
g5
(dp3637
g3538
S'2009.2'
p3638
sg3540
S'21'
p3639
sg20
S'Remove db.boddate/db.ixdate'
p3640
stRp3641
ag3
(g4
g5
(dp3642
g3538
S'2010.2'
p3643
sg3540
S'22'
p3644
sg20
S'Move system counters into db.config'
p3645
stRp3646
ag3
(g4
g5
(dp3647
g3538
S'2011.1'
p3648
sg3540
S'23'
p3649
sg20
S'Upgrade tiny.db'
p3650
stRp3651
ag3
(g4
g5
(dp3652
g3538
S'2015.2'
p3653
sg3540
S'24'
p3654
sg20
S'Move LDAP specs into db.ldap'
p3655
stRp3656
ag3
(g4
g5
(dp3657
g3538
S'2016.1'
p3658
sg3540
S'25'
p3659
sg20
S'Create db.templatesx and db.templatewx'
p3660
stRp3661
ag3
(g4
g5
(dp3662
g3538
S'2016.2'
p3663
sg3540
S'26'
p3664
sg20
S'JnlInitialize graph depot'
p3665
stRp3666
ag3
(g4
g5
(dp3667
g3538
S'2017.1'
p3668
sg3540
S'27'
p3669
sg20
S'Rename repo specifications, build owner graph permissions, remove db.repoview'
p3670
stRp3671
ag3
(g4
g5
(dp3672
g3538
S'2017.2'
p3673
sg3540
S'28'
p3674
sg20
S'No upgrades - upgrade counter value increment only'
p3675
stRp3676
ag3
(g4
g5
(dp3677
g3538
S'2018.1'
p3678
sg3540
S'29'
p3679
sg20
S'Remove existing db.graphindex'
p3680
stRp3681
ag3
(g4
g5
(dp3682
g3538
S'2018.2'
p3683
sg3540
S'30'
p3684
sg20
S'JnlInitialize Extensions depot and server.extensions.dir'
p3685
stRp3686
ag3
(g4
g5
(dp3687
g3538
S'2018.2'
p3688
sg3540
S'31'
p3689
sg20
S'Normalize a field in the triggers table'
p3690
stRp3691
atRp3692
stRp3693
sS'commit_upgrades'
p3694
g3
(g4
g5
(dp3695
S'commit_upgrade'
p3696
g3
(g8
g9
(lp3697
g3
(g4
g5
(dp3698
g3538
S'2013.2'
p3699
sg3540
S'commit-server'
p3700
sg260
S'Generate exclusive lock records in db.excl based on db.working data.'
p3701
sg20
S'Generate exclusive locks'
p3702
stRp3703
ag3
(g4
g5
(dp3704
g3538
S'2014.1'
p3705
sg3540
S'commit-server'
p3706
sg260
S'Promote existing shelves by updating changeStatus in db.change and db.changex.'
p3707
sg20
S'Promote Shelves'
p3708
stRp3709
atRp3710
stRp3711
sS'datatypes'
p3712
g3
(g4
g5
(dp3713
S'datatype'
p3714
g3
(g8
g9
(lp3715
g3
(g4
g5
(dp3716
S'values'
p3717
g3
(g8
g9
(lp3718
g3
(g4
g5
(dp3719
S'mask'
p3720
S'Scheme Flags'
p3721
sS'value'
p3722
S'0x0001'
p3723
sg20
S'otp-generated; one-time password generated'
p3724
stRp3725
ag3
(g4
g5
(dp3726
g3720
S'Scheme Flags'
p3727
sg3722
S'0x0002'
p3728
sg20
S'otp-requested; one-time password requested'
p3729
stRp3730
ag3
(g4
g5
(dp3731
g3720
S'Scheme Flags'
p3732
sg3722
S'0x0003'
p3733
sg20
S'challenge; challenge/response'
p3734
stRp3735
ag3
(g4
g5
(dp3736
g3720
S'Scheme Flags'
p3737
sg3722
S'0x0004'
p3738
sg20
S'external; 3rd-party prompting'
p3739
stRp3740
ag3
(g4
g5
(dp3741
g3720
S'Status Flags'
p3742
sg3722
S'0x0100'
p3743
sg20
S'authenticated; host is authenticated'
p3744
stRp3745
ag3
(g4
g5
(dp3746
g3720
S'Status Flags'
p3747
sg3722
S'0x0200'
p3748
sg20
S'persisted; 2FA persists for this host'
p3749
stRp3750
ag3
(g4
g5
(dp3751
g3720
S'Status Flags'
p3752
sg3722
S'0x0400'
p3753
sg20
S'forced; superuser skipped the checks'
p3754
stRp3755
ag3
(g4
g5
(dp3756
g3720
S'Status Flags'
p3757
sg3722
S'0x0800'
p3758
sg20
S'skipped; 2FA was not required'
p3759
stRp3760
ag3
(g4
g5
(dp3761
g3720
S'Status Flags'
p3762
sg3722
S'0x1000'
p3763
sg20
S'waiting; waiting on 2FA service'
p3764
stRp3765
ag3
(g4
g5
(dp3766
g3720
S'Status Flags'
p3767
sg3722
S'0x2000'
p3768
sg20
S'token-requested; OTP requested from 2FA service'
p3769
stRp3770
ag3
(g4
g5
(dp3771
g3720
S'Status Flags'
p3772
sg3722
S'0x4000'
p3773
sg20
S'required; 2FA required'
p3774
stRp3775
ag3
(g4
g5
(dp3776
g3720
S'Status Flags'
p3777
sg3722
S'0x8000'
p3778
sg20
S'rejected; external 2FA was rejected'
p3779
stRp3780
atRp3781
sg15
S'2FAState'
p3782
sg3720
g3
(g8
g9
(lp3783
g3
(g4
g5
(dp3784
g15
S'Scheme Flags'
p3785
sg3722
S'0xFF'
p3786
sg20
S'Bits used to store second factor authentication scheme'
p3787
stRp3788
ag3
(g4
g5
(dp3789
g15
S'Status Flags'
p3790
sg3722
S'None'
p3791
sg20
S'Bits used to store second factor authentication status'
p3792
stRp3793
atRp3794
sS'summary'
p3795
S'Second Factor Authentication State'
p3796
sg17
S'bitmask'
p3797
sg20
S'Second factor authentication scheme and status'
p3798
stRp3799
ag3
(g4
g5
(dp3800
g17
S'flag'
p3801
sg3795
S'Type of action'
p3802
sg3717
g3
(g8
g9
(lp3803
g3
(g4
g5
(dp3804
g3722
S'0'
sg20
S'add; user adds a file'
p3805
stRp3806
ag3
(g4
g5
(dp3807
g3722
S'1'
sg20
S'edit; user edits a file'
p3808
stRp3809
ag3
(g4
g5
(dp3810
g3722
S'2'
sg20
S'delete; user deletes a file'
p3811
stRp3812
ag3
(g4
g5
(dp3813
g3722
S'3'
sg20
S'branch; add via integration'
p3814
stRp3815
ag3
(g4
g5
(dp3816
g3722
S'4'
sg20
S'integ; edit via integration'
p3817
stRp3818
ag3
(g4
g5
(dp3819
g3722
S'5'
sg20
S'import; add via remote depot'
p3820
stRp3821
ag3
(g4
g5
(dp3822
g3722
S'6'
sg20
S'purge; purged revision, no longer available'
p3823
stRp3824
ag3
(g4
g5
(dp3825
g3722
S'7'
sg20
S'movefrom; move from another filename'
p3826
stRp3827
ag3
(g4
g5
(dp3828
g3722
S'8'
sg20
S'moveto; move to another filename'
p3829
stRp3830
ag3
(g4
g5
(dp3831
g3722
S'9'
sg20
S'archive; stored in archive depot'
p3832
stRp3833
atRp3834
sg15
S'Action'
p3835
sg20
S'Revisions are produced by user actions. The Action\n\t\ttype defines the available actions and their internal values.'
p3836
stRp3837
ag3
(g4
g5
(dp3838
g3795
S'A changelist number'
p3839
sg17
S'integer'
p3840
sg15
S'Change'
p3841
sg20
S'The number of a changelist. The number 0 represents the\n\t\tdefault pending changelist.'
p3842
stRp3843
ag3
(g4
g5
(dp3844
g17
S'flag'
p3845
sg3795
S'The status of a change'
p3846
sg3717
g3
(g8
g9
(lp3847
g3
(g4
g5
(dp3848
g3722
S'0'
sg20
S'pending'
p3849
stRp3850
ag3
(g4
g5
(dp3851
g3722
S'1'
sg20
S'submitted'
p3852
stRp3853
ag3
(g4
g5
(dp3854
g3722
S'2'
sg20
S'shelved'
p3855
stRp3856
ag3
(g4
g5
(dp3857
g3722
S'4'
sg20
S'restricted, pending'
p3858
stRp3859
ag3
(g4
g5
(dp3860
g3722
S'5'
sg20
S'restricted, submitted'
p3861
stRp3862
ag3
(g4
g5
(dp3863
g3722
S'6'
sg20
S'restricted, shelved'
p3864
stRp3865
ag3
(g4
g5
(dp3866
g3722
S'18'
p3867
sg20
S'promoted shelf, public'
p3868
stRp3869
ag3
(g4
g5
(dp3870
g3722
S'22'
p3871
sg20
S'promoted shelf, restricted'
p3872
stRp3873
ag3
(g4
g5
(dp3874
g3722
S'34'
p3875
sg20
S'unsubmitted shelf, public'
p3876
stRp3877
ag3
(g4
g5
(dp3878
g3722
S'38'
p3879
sg20
S'unsubmitted shelf, restricted'
p3880
stRp3881
atRp3882
sg15
S'ChangeStatus'
p3883
sg20
S'A integer value representing the status of a change'
p3884
stRp3885
ag3
(g4
g5
(dp3886
g3795
S'A counter name'
p3887
sg17
S'string'
p3888
sg15
S'Counter'
p3889
sg20
S'A string representing the counter name. Counter names must \n\t\tcontain no spaces, contain no slashes, and be identifiers \n\t\t(cannot begin with a dash and cannot be all-numeric)'
p3890
stRp3891
ag3
(g4
g5
(dp3892
g3795
S'A unix-style date and time'
p3893
sg17
S'integer'
p3894
sg15
S'Date'
p3895
sg20
S'A date and time represented as the number of seconds since \n\t\tthe Epoch: 01 January 1970 00:00:00 UTC. This is the same \n\t\tconvention as that used on Unix platforms.'
p3896
stRp3897
ag3
(g4
g5
(dp3898
g17
S'flag'
p3899
sg3795
S'Type of Depot'
p3900
sg3717
g3
(g8
g9
(lp3901
g3
(g4
g5
(dp3902
g3722
S'0'
sg20
S'local depot'
p3903
stRp3904
ag3
(g4
g5
(dp3905
g3722
S'1'
sg20
S'remote depot'
p3906
stRp3907
ag3
(g4
g5
(dp3908
g3722
S'2'
sg20
S'spec depot'
p3909
stRp3910
ag3
(g4
g5
(dp3911
g3722
S'3'
sg20
S'stream depot'
p3912
stRp3913
ag3
(g4
g5
(dp3914
g3722
S'4'
sg20
S'archive depot'
p3915
stRp3916
ag3
(g4
g5
(dp3917
g3722
S'5'
sg20
S'unload depot'
p3918
stRp3919
ag3
(g4
g5
(dp3920
g3722
S'6'
sg20
S'tangent depot'
p3921
stRp3922
ag3
(g4
g5
(dp3923
g3722
S'7'
sg20
S'graph depot'
p3924
stRp3925
ag3
(g4
g5
(dp3926
g3722
S'8'
sg20
S'extension'
p3927
stRp3928
atRp3929
sg15
S'DepotType'
p3930
sg20
S'The type of a given depot'
p3931
stRp3932
ag3
(g4
g5
(dp3933
g3795
S'A short string value'
p3934
sg20
S'The first 31 characters of a Text string'
p3935
sg17
S'string'
p3936
sg15
S'DescShort'
p3937
sg224
S'Text'
p3938
stRp3939
ag3
(g4
g5
(dp3940
g3795
S'An MD5 digest'
p3941
sg17
S'string'
p3942
sg15
S'Digest'
p3943
sg20
S'A string containing an MD5 digest.'
p3944
stRp3945
ag3
(g4
g5
(dp3946
g3795
S'A domain name'
p3947
sg17
S'string'
p3948
sg15
S'Domain'
p3949
sg20
S'A string representing the name of a depot, label, client,\n\t\tbranch, typemap, or stream.'
p3950
stRp3951
ag3
(g4
g5
(dp3952
g3795
S'A string with optional wildcards'
p3953
sg17
S'string'
p3954
sg15
S'DomainWild'
p3955
sg20
S'A string that may contain wildcards - usually an IP address\n\t\tin the protections table.'
p3956
stRp3957
ag3
(g4
g5
(dp3958
g3717
g3
(g8
g9
(lp3959
g3
(g4
g5
(dp3960
g3720
S'Domain Flags'
p3961
sg3722
S'0x0001'
p3962
sg20
S'modtime'
p3963
stRp3964
ag3
(g4
g5
(dp3965
g3720
S'Domain Flags'
p3966
sg3722
S'0x0002'
p3967
sg20
S'clobber'
p3968
stRp3969
ag3
(g4
g5
(dp3970
g3720
S'Domain Flags'
p3971
sg3722
S'0x0004'
p3972
sg20
S'allwrite'
p3973
stRp3974
ag3
(g4
g5
(dp3975
g3720
S'Domain Flags'
p3976
sg3722
S'0x0008'
p3977
sg20
S'locked'
p3978
stRp3979
ag3
(g4
g5
(dp3980
g3720
S'Domain Flags'
p3981
sg3722
S'0x0020'
p3982
sg20
S'compress'
p3983
stRp3984
ag3
(g4
g5
(dp3985
g3720
S'Domain Flags'
p3986
sg3722
S'0x0040'
p3987
sg20
S'rmdir'
p3988
stRp3989
ag3
(g4
g5
(dp3990
g3720
S'Domain Flags'
p3991
sg3722
S'0x1000'
p3992
sg20
S'indirect (obsolete since 2004.2)'
p3993
stRp3994
ag3
(g4
g5
(dp3995
g3720
S'Domain Flags'
p3996
sg3722
S'0x8000'
p3997
sg20
S'autoreload'
p3998
stRp3999
ag3
(g4
g5
(dp4000
g3720
S'Domain ClientType'
p4001
sg3722
S'0x00000'
p4002
sg20
S'client is writeable'
p4003
stRp4004
ag3
(g4
g5
(dp4005
g3720
S'Domain ClientType'
p4006
sg3722
S'0x10000'
p4007
sg20
S'client is readonly'
p4008
stRp4009
ag3
(g4
g5
(dp4010
g3720
S'Domain ClientType'
p4011
sg3722
S'0x20000'
p4012
sg20
S'client is nobackup'
p4013
stRp4014
ag3
(g4
g5
(dp4015
g3720
S'Domain ClientType'
p4016
sg3722
S'0x110000'
p4017
sg20
S'client is partitioned'
p4018
stRp4019
ag3
(g4
g5
(dp4020
g3720
S'Domain LineEnd'
p4021
sg3722
S'0x0000'
p4022
sg20
S'local'
p4023
stRp4024
ag3
(g4
g5
(dp4025
g3720
S'Domain LineEnd'
p4026
sg3722
S'0x0010'
p4027
sg20
S'unix (LF)'
p4028
stRp4029
ag3
(g4
g5
(dp4030
g3720
S'Domain LineEnd'
p4031
sg3722
S'0x0200'
p4032
sg20
S'mac (CR)'
p4033
stRp4034
ag3
(g4
g5
(dp4035
g3720
S'Domain LineEnd'
p4036
sg3722
S'0x0300'
p4037
sg20
S'win (CRLF)'
p4038
stRp4039
ag3
(g4
g5
(dp4040
g3720
S'Domain LineEnd'
p4041
sg3722
S'0x0400'
p4042
sg20
S'share (LF/CRLF)'
p4043
stRp4044
ag3
(g4
g5
(dp4045
g3720
S'Domain SubmitMask'
p4046
sg3722
S'0x1000'
p4047
sg20
S'Revert unchanged files'
p4048
stRp4049
ag3
(g4
g5
(dp4050
g3720
S'Domain SubmitMask'
p4051
sg3722
S'0x2000'
p4052
sg20
S'Leave unchanged files'
p4053
stRp4054
ag3
(g4
g5
(dp4055
g3720
S'Domain SubmitMask'
p4056
sg3722
S'0x4000'
p4057
sg20
S'Submit, and re-open unchanged files'
p4058
stRp4059
ag3
(g4
g5
(dp4060
g3720
S'Domain StreamMask'
p4061
sg3722
S'0x0001'
p4062
sg20
S'allsubmit or ownersubmit'
p4063
stRp4064
ag3
(g4
g5
(dp4065
g3720
S'Domain StreamMask'
p4066
sg3722
S'0x0002'
p4067
sg20
S'locked or unlocked'
p4068
stRp4069
ag3
(g4
g5
(dp4070
g3720
S'Domain StreamMask'
p4071
sg3722
S'0x0004'
p4072
sg20
S'change flows to parent'
p4073
stRp4074
ag3
(g4
g5
(dp4075
g3720
S'Domain StreamMask'
p4076
sg3722
S'0x0008'
p4077
sg20
S'change flows from parent'
p4078
stRp4079
ag3
(g4
g5
(dp4080
g3720
S'Domain StreamMask'
p4081
sg3722
S'0x0010'
p4082
sg20
S'mergeany or mergedown'
p4083
stRp4084
atRp4085
sg15
S'DomainOpts'
p4086
sg3720
g3
(g8
g9
(lp4087
g3
(g4
g5
(dp4088
g15
S'Domain Flags'
p4089
sg3722
S'0x10EF'
p4090
sg20
S'Bits used to store client, label, and branch options'
p4091
stRp4092
ag3
(g4
g5
(dp4093
g15
S'Domain ClientType'
p4094
sg3722
S'0x190000'
p4095
sg20
S'Bits used to store client type and backup status'
p4096
stRp4097
ag3
(g4
g5
(dp4098
g15
S'Domain LineEnd'
p4099
sg3722
S'0x0710'
p4100
sg20
S'Bits used to store client line termination settings'
p4101
stRp4102
ag3
(g4
g5
(dp4103
g15
S'Domain SubmitMask'
p4104
sg3722
S'0x7000'
p4105
sg20
S'Bits used to store client submit options'
p4106
stRp4107
ag3
(g4
g5
(dp4108
g15
S'Domain StreamMask'
p4109
sg3722
S'0x000C'
p4110
sg20
S'Bits used to store stream options'
p4111
stRp4112
atRp4113
sg3795
S'Options for domains'
p4114
sg17
S'bitmask'
p4115
sg20
S'A integer value representing the options for a domain'
p4116
stRp4117
ag3
(g4
g5
(dp4118
g17
S'flag'
p4119
sg3795
S'A domain type'
p4120
sg3717
g3
(g8
g9
(lp4121
g3
(g4
g5
(dp4122
g3722
S"67 (ASCII 'C')"
p4123
sg20
S'unloaded client'
p4124
stRp4125
ag3
(g4
g5
(dp4126
g3722
S"76 (ASCII 'L')"
p4127
sg20
S'unloaded label'
p4128
stRp4129
ag3
(g4
g5
(dp4130
g3722
S"83 (ASCII 'S')"
p4131
sg20
S'unloaded task stream'
p4132
stRp4133
ag3
(g4
g5
(dp4134
g3722
S"98 (ASCII 'b')"
p4135
sg20
S'branch'
p4136
stRp4137
ag3
(g4
g5
(dp4138
g3722
S"99 (ASCII 'c')"
p4139
sg20
S'client'
p4140
stRp4141
ag3
(g4
g5
(dp4142
g3722
S"100 (ASCII 'd')"
p4143
sg20
S'depot'
p4144
stRp4145
ag3
(g4
g5
(dp4146
g3722
S"108 (ASCII 'l')"
p4147
sg20
S'label'
p4148
stRp4149
ag3
(g4
g5
(dp4150
g3722
S"115 (ASCII 's')"
p4151
sg20
S'stream'
p4152
stRp4153
ag3
(g4
g5
(dp4154
g3722
S"116 (ASCII 't')"
p4155
sg20
S'typemap'
p4156
stRp4157
atRp4158
sg15
S'DomainType'
p4159
sg20
S'A integer value representing the type of a domain'
p4160
stRp4161
ag3
(g4
g5
(dp4162
g3795
S'A file name'
p4163
sg20
S'A string representing the filename'
p4164
sg17
S'string'
p4165
sg15
S'File'
p4166
sg224
S'FileType'
p4167
stRp4168
ag3
(g4
g5
(dp4169
g3795
S'A file size'
p4170
sg17
S'integer'
p4171
sg15
S'FileSize'
p4172
sg20
S'A 64-bit integer used to store file sizes. The value -1 is\n\t\tused to represent unknown file sizes.'
p4173
stRp4174
ag3
(g4
g5
(dp4175
g3717
g3
(g8
g9
(lp4176
g3
(g4
g5
(dp4177
g3720
S'Storage Type'
p4178
sg3722
S'0x0000'
p4179
sg20
S'RCS'
p4180
stRp4181
ag3
(g4
g5
(dp4182
g3720
S'Storage Type'
p4183
sg3722
S'0x0001'
p4184
sg20
S'Binary'
p4185
stRp4186
ag3
(g4
g5
(dp4187
g3720
S'Storage Type'
p4188
sg3722
S'0x0002'
p4189
sg20
S'Tiny'
p4190
stRp4191
ag3
(g4
g5
(dp4192
g3720
S'Storage Type'
p4193
sg3722
S'0x0003'
p4194
sg20
S'Compressed'
p4195
stRp4196
ag3
(g4
g5
(dp4197
g3720
S'Storage Type'
p4198
sg3722
S'0x0004'
p4199
sg20
S'tempobj (deprecated since 2002.1)'
p4200
stRp4201
ag3
(g4
g5
(dp4202
g3720
S'Storage Type'
p4203
sg3722
S'0x0005'
p4204
sg20
S'Detect type. Used internally when no type is\n\t\t    given by the user.'
p4205
stRp4206
ag3
(g4
g5
(dp4207
g3720
S'Storage Type'
p4208
sg3722
S'0x0006'
p4209
sg20
S'Compressed tempobj (deprecated since 2002.1)'
p4210
stRp4211
ag3
(g4
g5
(dp4212
g3720
S'Storage Type'
p4213
sg3722
S'0x0007'
p4214
sg20
S'Binary access to compressed data. Used internally.'
p4215
stRp4216
ag3
(g4
g5
(dp4217
g3720
S'Storage Type'
p4218
sg3722
S'0x0008'
p4219
sg20
S'Stored externally via librarian trigger'
p4220
stRp4221
ag3
(g4
g5
(dp4222
g3720
S'Storage Mods'
p4223
sg3722
S'0x0010'
p4224
sg20
S'99.2-style keyword expansion/contraction'
p4225
stRp4226
ag3
(g4
g5
(dp4227
g3720
S'Storage Mods'
p4228
sg3722
S'0x0020'
p4229
sg20
S'2000.1-style keyword expansion/contraction'
p4230
stRp4231
ag3
(g4
g5
(dp4232
g3720
S'Storage Mods'
p4233
sg3722
S'0x0030'
p4234
sg20
S'Any type of keyword expansion'
p4235
stRp4236
ag3
(g4
g5
(dp4237
g3720
S'Storage Mods'
p4238
sg3722
S'0x0040'
p4239
sg20
S'Exclusive open'
p4240
stRp4241
ag3
(g4
g5
(dp4242
g3720
S'Storage Mods'
p4243
sg3722
S'0x0080'
p4244
sg20
S'New tempobj (+S modifier)'
p4245
stRp4246
ag3
(g4
g5
(dp4247
g3720
S'Tempobj revisions'
p4248
sg3722
S'0x0000'
p4249
sg20
S'+S1'
p4250
stRp4251
ag3
(g4
g5
(dp4252
g3720
S'Tempobj revisions'
p4253
sg3722
S'0x0100'
p4254
sg20
S'+S2'
p4255
stRp4256
ag3
(g4
g5
(dp4257
g3720
S'Tempobj revisions'
p4258
sg3722
S'0x0200'
p4259
sg20
S'+S3'
p4260
stRp4261
ag3
(g4
g5
(dp4262
g3720
S'Tempobj revisions'
p4263
sg3722
S'0x0300'
p4264
sg20
S'+S4'
p4265
stRp4266
ag3
(g4
g5
(dp4267
g3720
S'Tempobj revisions'
p4268
sg3722
S'0x0400'
p4269
sg20
S'+S5'
p4270
stRp4271
ag3
(g4
g5
(dp4272
g3720
S'Tempobj revisions'
p4273
sg3722
S'0x0500'
p4274
sg20
S'+S6'
p4275
stRp4276
ag3
(g4
g5
(dp4277
g3720
S'Tempobj revisions'
p4278
sg3722
S'0x0600'
p4279
sg20
S'+S7'
p4280
stRp4281
ag3
(g4
g5
(dp4282
g3720
S'Tempobj revisions'
p4283
sg3722
S'0x0700'
p4284
sg20
S'+S8'
p4285
stRp4286
ag3
(g4
g5
(dp4287
g3720
S'Tempobj revisions'
p4288
sg3722
S'0x0800'
p4289
sg20
S'+S9'
p4290
stRp4291
ag3
(g4
g5
(dp4292
g3720
S'Tempobj revisions'
p4293
sg3722
S'0x0900'
p4294
sg20
S'+S10'
p4295
stRp4296
ag3
(g4
g5
(dp4297
g3720
S'Tempobj revisions'
p4298
sg3722
S'0x0A00'
p4299
sg20
S'+S16'
p4300
stRp4301
ag3
(g4
g5
(dp4302
g3720
S'Tempobj revisions'
p4303
sg3722
S'0x0B00'
p4304
sg20
S'+S32'
p4305
stRp4306
ag3
(g4
g5
(dp4307
g3720
S'Tempobj revisions'
p4308
sg3722
S'0x0C00'
p4309
sg20
S'+S64'
p4310
stRp4311
ag3
(g4
g5
(dp4312
g3720
S'Tempobj revisions'
p4313
sg3722
S'0x0D00'
p4314
sg20
S'+S128'
p4315
stRp4316
ag3
(g4
g5
(dp4317
g3720
S'Tempobj revisions'
p4318
sg3722
S'0x0E00'
p4319
sg20
S'+S256'
p4320
stRp4321
ag3
(g4
g5
(dp4322
g3720
S'Tempobj revisions'
p4323
sg3722
S'0x0F00'
p4324
sg20
S'+S512'
p4325
stRp4326
ag3
(g4
g5
(dp4327
g3720
S'Client Type'
p4328
sg3722
S'0x0000000'
p4329
sg20
S'text'
p4330
stRp4331
ag3
(g4
g5
(dp4332
g3720
S'Client Type'
p4333
sg3722
S'0x0010000'
p4334
sg20
S'binary'
p4335
stRp4336
ag3
(g4
g5
(dp4337
g3720
S'Client Type'
p4338
sg3722
S'0x0020000'
p4339
sg20
S'executable bit set'
p4340
stRp4341
ag3
(g4
g5
(dp4342
g3720
S'Client Type'
p4343
sg3722
S'0x0040000'
p4344
sg20
S'symlink'
p4345
stRp4346
ag3
(g4
g5
(dp4347
g3720
S'Client Type'
p4348
sg3722
S'0x0050000'
p4349
sg20
S'resource fork'
p4350
stRp4351
ag3
(g4
g5
(dp4352
g3720
S'Client Type'
p4353
sg3722
S'0x0080000'
p4354
sg20
S'unicode'
p4355
stRp4356
ag3
(g4
g5
(dp4357
g3720
S'Client Type'
p4358
sg3722
S'0x0090000'
p4359
sg20
S'raw text (nocrlf - 99.1)'
p4360
stRp4361
ag3
(g4
g5
(dp4362
g3720
S'Client Type'
p4363
sg3722
S'0x00C0000'
p4364
sg20
S'apple data + resource file (since 2000.2)'
p4365
stRp4366
ag3
(g4
g5
(dp4367
g3720
S'Client Type'
p4368
sg3722
S'0x00D0000'
p4369
sg20
S'apple data + resource file (99.2)'
p4370
stRp4371
ag3
(g4
g5
(dp4372
g3720
S'Client Type'
p4373
sg3722
S'0x1000000'
p4374
sg20
S'Used to support filetype detection'
p4375
stRp4376
ag3
(g4
g5
(dp4377
g3720
S'Client Mods'
p4378
sg3722
S'0x0100000'
p4379
sg20
S'writable'
p4380
stRp4381
ag3
(g4
g5
(dp4382
g3720
S'Client Mods'
p4383
sg3722
S'0x0200000'
p4384
sg20
S'modtime'
p4385
stRp4386
ag3
(g4
g5
(dp4387
g3720
S'Client Mods'
p4388
sg3722
S'0x0400000'
p4389
sg20
S'uncompress on client'
p4390
stRp4391
atRp4392
sg15
S'FileType'
p4393
sg3720
g3
(g8
g9
(lp4394
g3
(g4
g5
(dp4395
g15
S'Storage Type'
p4396
sg3722
S'0x000F'
p4397
sg20
S"Bits used to store the server's storage type"
p4398
stRp4399
ag3
(g4
g5
(dp4400
g15
S'Storage Mods'
p4401
sg3722
S'0x00F0'
p4402
sg20
S"Bits used to store the modifiers to the server's storage \n\t\t    type"
p4403
stRp4404
ag3
(g4
g5
(dp4405
g15
S'Tempobj revisions'
p4406
sg3722
S'0x0F00'
p4407
sg20
S'Bits used to store the number of revisions to be stored\n\t\t    for +Sn files.'
p4408
stRp4409
ag3
(g4
g5
(dp4410
g15
S'Client Type'
p4411
sg3722
S'0x10D0000'
p4412
sg20
S"Bits used to store the file type from the client's point\n\t\t    of view."
p4413
stRp4414
ag3
(g4
g5
(dp4415
g15
S'Client Mods'
p4416
sg3722
S'0x720000'
p4417
sg20
S'Bits used to store the modifiers applied to the file\n\t\t    on the client.'
p4418
stRp4419
atRp4420
sg3795
S'Type of file'
p4421
sg17
S'bitmask'
p4422
sg20
S'The FileType is a bitmask specifying the type and modifiers\n\t\tof a revision from both the client and server points of view.\n\t\tThe first 16 bits are used to store the storage type and \n\t\tmodifiers, the next 16 bits are used to store the client \n\t\taccess method and modifiers.'
p4423
stRp4424
ag3
(g4
g5
(dp4425
g3795
S'Status of a fixed job'
p4426
sg17
S'string'
p4427
sg15
S'FixStatus'
p4428
sg20
S'This type is a wrapper around the \'Text\' type that handles\n\t\tthe pre-2000.1 "closed" default value.'
p4429
stRp4430
ag3
(g4
g5
(dp4431
g17
S'flag'
p4432
sg3795
S'Type of Graph Permission'
p4433
sg3717
g3
(g8
g9
(lp4434
g3
(g4
g5
(dp4435
g3722
S'0'
sg20
S'none'
p4436
stRp4437
ag3
(g4
g5
(dp4438
g3722
S'1'
sg20
S'read'
p4439
stRp4440
ag3
(g4
g5
(dp4441
g3722
S'2'
sg20
S'write-ref'
p4442
stRp4443
ag3
(g4
g5
(dp4444
g3722
S'4'
sg20
S'write-all'
p4445
stRp4446
ag3
(g4
g5
(dp4447
g3722
S'8'
sg20
S'create-repo'
p4448
stRp4449
ag3
(g4
g5
(dp4450
g3722
S'16'
p4451
sg20
S'delete-repo'
p4452
stRp4453
ag3
(g4
g5
(dp4454
g3722
S'32'
p4455
sg20
S'create-ref'
p4456
stRp4457
ag3
(g4
g5
(dp4458
g3722
S'64'
p4459
sg20
S'delete-ref'
p4460
stRp4461
ag3
(g4
g5
(dp4462
g3722
S'128'
p4463
sg20
S'force-push'
p4464
stRp4465
ag3
(g4
g5
(dp4466
g3722
S'256'
p4467
sg20
S'admin'
p4468
stRp4469
ag3
(g4
g5
(dp4470
g3722
S'4096'
p4471
sg20
S'restricted-ref'
p4472
stRp4473
atRp4474
sg15
S'GraphPermType'
p4475
sg20
S'The type of a graph depot permission'
p4476
stRp4477
ag3
(g4
g5
(dp4478
g3795
S'A 32-bit integer'
p4479
sg17
S'integer'
p4480
sg15
S'Int'
p4481
sg20
S'A 32-bit integer'
p4482
stRp4483
ag3
(g4
g5
(dp4484
g3795
S'An 8-bit integer'
p4485
sg17
S'integer'
p4486
sg15
S'Int8'
p4487
sg20
S'An 8-bit integer: an unsigned char'
p4488
stRp4489
ag3
(g4
g5
(dp4490
g3795
S'A 64-bit integer'
p4491
sg17
S'integer'
p4492
sg15
S'Int64'
p4493
sg20
S'A 64-bit integer.'
p4494
stRp4495
ag3
(g4
g5
(dp4496
g260
S'All integration records should have a corresponding \n\t\treverse record. The \'branch from\' (2) and \'merge from\' (0) \n\t\trecords have corresponding "dirty" reverse records for cases \n\t\twhere the target file took more than one change or was \n\t\t(re)opened for \'edit\' or \'add\'.'
p4497
sg3717
g3
(g8
g9
(lp4498
g3
(g4
g5
(dp4499
g3722
S'0'
sg20
S'merge from: integration with other changes'
p4500
stRp4501
ag3
(g4
g5
(dp4502
g3722
S'1'
sg20
S'merge into: reverse merge'
p4503
stRp4504
ag3
(g4
g5
(dp4505
g3722
S'2'
sg20
S'branch from: integration was branch of file'
p4506
stRp4507
ag3
(g4
g5
(dp4508
g3722
S'3'
sg20
S'branch into: reverse branch'
p4509
stRp4510
ag3
(g4
g5
(dp4511
g3722
S'4'
sg20
S'copy from: integration took source file whole'
p4512
stRp4513
ag3
(g4
g5
(dp4514
g3722
S'5'
sg20
S'copy into: reverse take'
p4515
stRp4516
ag3
(g4
g5
(dp4517
g3722
S'6'
sg20
S'ignored: integration ignored source changes'
p4518
stRp4519
ag3
(g4
g5
(dp4520
g3722
S'7'
sg20
S'ignored by: reverse copy'
p4521
stRp4522
ag3
(g4
g5
(dp4523
g3722
S'8'
sg20
S'delete from: integration of delete'
p4524
stRp4525
ag3
(g4
g5
(dp4526
g3722
S'9'
sg20
S'delete into: reverse delete'
p4527
stRp4528
ag3
(g4
g5
(dp4529
g3722
S'10'
p4530
sg20
S'edit into: reverse of integration downgraded to \n\t\t    edit'
p4531
stRp4532
ag3
(g4
g5
(dp4533
g3722
S'11'
p4534
sg20
S'add into: reverse of branch downgraded to add'
p4535
stRp4536
ag3
(g4
g5
(dp4537
g3722
S'12'
p4538
sg20
S'edit from: merge that the user edited'
p4539
stRp4540
ag3
(g4
g5
(dp4541
g3722
S'13'
p4542
sg20
S'add from: branch downgraded to add'
p4543
stRp4544
ag3
(g4
g5
(dp4545
g3722
S'14'
p4546
sg20
S'moved from: reverse of renamed file'
p4547
stRp4548
ag3
(g4
g5
(dp4549
g3722
S'15'
p4550
sg20
S'moved into: file was renamed'
p4551
stRp4552
ag3
(g4
g5
(dp4553
g3722
S'16'
p4554
sg20
S"'delete' target rev ignoring non-deleted source"
p4555
stRp4556
ag3
(g4
g5
(dp4557
g3722
S'17'
p4558
sg20
S"non-deleted source ignored by 'delete' target rev"
p4559
stRp4560
ag3
(g4
g5
(dp4561
g3722
S'18'
p4562
sg20
S"'integrate' target rev ignoring deleted source"
p4563
stRp4564
ag3
(g4
g5
(dp4565
g3722
S'19'
p4566
sg20
S"deleted source ignored by 'integrate' target rev"
p4567
stRp4568
ag3
(g4
g5
(dp4569
g3722
S'20'
p4570
sg20
S'deleted branch: branch from'
p4571
stRp4572
ag3
(g4
g5
(dp4573
g3722
S'21'
p4574
sg20
S'deleted branch: delete into'
p4575
stRp4576
ag3
(g4
g5
(dp4577
g3722
S'22'
p4578
sg20
S'undo: opposite of merge'
p4579
stRp4580
ag3
(g4
g5
(dp4581
g3722
S'23'
p4582
sg20
S'undo reverse'
p4583
stRp4584
ag3
(g4
g5
(dp4585
g3722
S'24'
p4586
sg20
S'move undo: move + undo as one record'
p4587
stRp4588
ag3
(g4
g5
(dp4589
g3722
S'25'
p4590
sg20
S'move undo reverse'
p4591
stRp4592
atRp4593
sg15
S'IntegHow'
p4594
sg3795
S'Integration methods'
p4595
sg17
S'flag'
p4596
sg20
S"Specifies how an integration was performed. Integrations\n\t\talways come in pairs: the 'forward' and 'reverse' records.\n\t\tAs a general rule, the forward records contain the word \n\t\t'from'; and the reverse records contain the word 'into'."
p4597
stRp4598
ag3
(g4
g5
(dp4599
g17
S'flag'
p4600
sg3795
S'Job status - defunct'
p4601
sg3717
g3
(g8
g9
(lp4602
g3
(g4
g5
(dp4603
g3722
S'0'
sg20
S'open'
p4604
stRp4605
ag3
(g4
g5
(dp4606
g3722
S'1'
sg20
S'closed'
p4607
stRp4608
ag3
(g4
g5
(dp4609
g3722
S'2'
sg20
S'suspended'
p4610
stRp4611
atRp4612
sg15
S'JobStat'
p4613
sg20
S'Old (pre-98.2) job status values.'
p4614
stRp4615
ag3
(g4
g5
(dp4616
g17
S'flag'
p4617
sg3795
S'"Journal Copy State"'
p4618
sg3717
g3
(g8
g9
(lp4619
g3
(g4
g5
(dp4620
g15
S'DurableOnly'
p4621
sg3722
S'1'
sg20
S'Durable Only'
p4622
stRp4623
ag3
(g4
g5
(dp4624
g15
S'NonAcknowledging'
p4625
sg3722
S'2'
sg20
S'Non Acknowledging'
p4626
stRp4627
ag3
(g4
g5
(dp4628
g15
S'JournalWait'
p4629
sg3722
S'4'
sg20
S'Journal Wait'
p4630
stRp4631
atRp4632
sg15
S'JournalCopyFlags'
p4633
sg20
S'Used to maintain Journal Copy State'
p4634
stRp4635
ag3
(g4
g5
(dp4636
g3795
S'A key name'
p4637
sg17
S'string'
p4638
sg15
S'Key'
p4639
sg20
S'A string representing the key name. Key names must \n\t\tcontain no spaces, contain no slashes, and be identifiers \n\t\t(cannot begin with a dash and cannot be all-numeric)'
p4640
stRp4641
ag3
(g4
g5
(dp4642
g17
S'flag'
p4643
sg3795
S'Types of mapping'
p4644
sg3717
g3
(g8
g9
(lp4645
g3
(g4
g5
(dp4646
g3722
S'0'
sg20
S'mapped-in (the default)'
p4647
stRp4648
ag3
(g4
g5
(dp4649
g3722
S'1'
sg20
S"mapped-out (mappings that start with '-')"
p4650
stRp4651
ag3
(g4
g5
(dp4652
g3722
S'2'
sg20
S"overlay (mappings that start with '+')"
p4653
stRp4654
ag3
(g4
g5
(dp4655
g3722
S'3'
sg20
S"haveMap (mappings that start with '$'). Used internally\n\t\t    only"
p4656
stRp4657
ag3
(g4
g5
(dp4658
g3722
S'4'
sg20
S"changeMap (mappings that start with '@')"
p4659
stRp4660
atRp4661
sg15
S'MapFlag'
p4662
sg20
S'Specifies how the files specified by a mapping should be\n\t\ttreated'
p4663
stRp4664
ag3
(g4
g5
(dp4665
g3795
S'A string representing a mapping'
p4666
sg17
S'string'
p4667
sg15
S'Mapping'
p4668
sg20
S'A Mapping is essentially a file name that may contain\n\t\twildcards'
p4669
stRp4670
ag3
(g4
g5
(dp4671
g3795
S'Maximum number of milliseconds to hold locks'
p4672
sg17
S'integer'
p4673
sg15
S'MaxLockTime'
p4674
sg20
S"The number of milliseconds for which a command may hold locks.\n\t\tCommands that take longer than this time period will abort. \n\t\tThe value 0 means 'unlimited'."
p4675
stRp4676
ag3
(g4
g5
(dp4677
g3795
S'Maximum number of results permitted'
p4678
sg17
S'integer'
p4679
sg15
S'MaxResults'
p4680
sg20
S"The number of results that commands run by the restricted\n\t\tuser are permitted to return. The value 0 means 'unlimited'."
p4681
stRp4682
ag3
(g4
g5
(dp4683
g3795
S'Maximum number of records scanned'
p4684
sg17
S'integer'
p4685
sg15
S'MaxScanRows'
p4686
sg20
S"The maximum number of records that the server may read\n\t\ton behalf of the restricted user. The value 0 means \n\t\t'unlimited'."
p4687
stRp4688
ag3
(g4
g5
(dp4689
g17
S'flag'
p4690
sg3795
S'Object type'
p4691
sg3717
g3
(g8
g9
(lp4692
g3
(g4
g5
(dp4693
g3722
S'0'
sg20
S'commit'
p4694
stRp4695
ag3
(g4
g5
(dp4696
g3722
S'1'
sg20
S'tree'
p4697
stRp4698
ag3
(g4
g5
(dp4699
g3722
S'2'
sg20
S'tag'
p4700
stRp4701
ag3
(g4
g5
(dp4702
g3722
S'3'
sg20
S'null'
p4703
stRp4704
atRp4705
sg15
S'ObjectType'
p4706
sg20
S'Object type'
p4707
stRp4708
ag3
(g4
g5
(dp4709
g3795
S'Encoded hex string'
p4710
sg17
S'string'
p4711
sg15
S'Octet String'
p4712
sg20
S'A variable length encoded hex string. The first octet \n\t\tstores the length of the string.'
p4713
stRp4714
ag3
(g4
g5
(dp4715
g3795
S'The MD5 hash of a password'
p4716
sg17
S'string'
p4717
sg15
S'Password'
p4718
sg20
S'The MD5 hash of an encrypted password.'
p4719
stRp4720
ag3
(g4
g5
(dp4721
g3717
g3
(g8
g9
(lp4722
g3
(g4
g5
(dp4723
g3720
S'PermTypeBits'
p4724
sg15
S'None'
p4725
sg3722
S'0x0000'
p4726
sg20
S'none'
p4727
stRp4728
ag3
(g4
g5
(dp4729
g3720
S'PermTypeBits'
p4730
sg15
S'List'
p4731
sg3722
S'0x0001'
p4732
sg20
S'Grants list access'
p4733
stRp4734
ag3
(g4
g5
(dp4735
g3720
S'PermTypeBits'
p4736
sg15
S'Read'
p4737
sg3722
S'0x0002'
p4738
sg20
S'Grants read access'
p4739
stRp4740
ag3
(g4
g5
(dp4741
g3720
S'PermTypeBits'
p4742
sg15
S'Branch'
p4743
sg3722
S'0x0004'
p4744
sg20
S'Grants ability to branch/integ from'
p4745
stRp4746
ag3
(g4
g5
(dp4747
g3720
S'PermTypeBits'
p4748
sg15
S'Open'
p4749
sg3722
S'0x0008'
p4750
sg20
S'Grants open access'
p4751
stRp4752
ag3
(g4
g5
(dp4753
g3720
S'PermTypeBits'
p4754
sg15
S'Write'
p4755
sg3722
S'0x0010'
p4756
sg20
S'Grants write access'
p4757
stRp4758
ag3
(g4
g5
(dp4759
g3720
S'PermTypeBits'
p4760
sg15
S'Review'
p4761
sg3722
S'0x0020'
p4762
sg20
S'Grants review access'
p4763
stRp4764
ag3
(g4
g5
(dp4765
g3720
S'PermTypeBits'
p4766
sg15
S'Admin'
p4767
sg3722
S'0x0080'
p4768
sg20
S'Grants admin access'
p4769
stRp4770
ag3
(g4
g5
(dp4771
g3720
S'PermTypeBits'
p4772
sg15
S'Super'
p4773
sg3722
S'0x0040'
p4774
sg20
S'Grants super-user access'
p4775
stRp4776
ag3
(g4
g5
(dp4777
g3720
S'PermTypeBits'
p4778
sg15
S'Owner'
p4779
sg3722
S'0x0100'
p4780
sg20
S'Grants owner access'
p4781
stRp4782
atRp4783
sg15
S'Perm'
p4784
sg3720
g3
(g4
g5
(dp4785
g15
S'PermTypeBits'
p4786
sg3722
S'0x00FF'
p4787
sg20
S'Bits used to store granted permissions'
p4788
stRp4789
sg3795
S'Bitmask of permissions'
p4790
sg17
S'bitmask'
p4791
sg20
S'A bitmask of granted permissions'
p4792
stRp4793
ag3
(g4
g5
(dp4794
g17
S'flag'
p4795
sg3795
S'Archive pull transfer status'
p4796
sg3717
g3
(g8
g9
(lp4797
g3
(g4
g5
(dp4798
g15
S'new'
p4799
sg3722
S'new'
p4800
sg20
S'new transfer'
p4801
stRp4802
ag3
(g4
g5
(dp4803
g15
S'active'
p4804
sg3722
S'active'
p4805
sg20
S'active transfer'
p4806
stRp4807
ag3
(g4
g5
(dp4808
g15
S'done'
p4809
sg3722
S'done'
p4810
sg20
S'completed transfer'
p4811
stRp4812
ag3
(g4
g5
(dp4813
g15
S'error'
p4814
sg3722
S'error'
p4815
sg20
S'errored transfer'
p4816
stRp4817
ag3
(g4
g5
(dp4818
g15
S'restart'
p4819
sg3722
S'restart'
p4820
sg20
S'restarted transfer'
p4821
stRp4822
ag3
(g4
g5
(dp4823
g15
S'cancelled'
p4824
sg3722
S'cancelled'
p4825
sg20
S'cancelled transfer'
p4826
stRp4827
atRp4828
sg15
S'PullStatus'
p4829
sg20
S'The status of an archive pull transfer'
p4830
stRp4831
ag3
(g4
g5
(dp4832
g17
S'flag'
p4833
sg3795
S'Reference action'
p4834
sg3717
g3
(g8
g9
(lp4835
g3
(g4
g5
(dp4836
g3722
S'0'
sg20
S'create'
p4837
stRp4838
ag3
(g4
g5
(dp4839
g3722
S'1'
sg20
S'update'
p4840
stRp4841
ag3
(g4
g5
(dp4842
g3722
S'2'
sg20
S'force'
p4843
stRp4844
ag3
(g4
g5
(dp4845
g3722
S'3'
sg20
S'delete'
p4846
stRp4847
atRp4848
sg15
S'RefAction'
p4849
sg20
S'A reference action'
p4850
stRp4851
ag3
(g4
g5
(dp4852
g17
S'flag'
p4853
sg3795
S'A reference type'
p4854
sg3717
g3
(g8
g9
(lp4855
g3
(g4
g5
(dp4856
g3722
S'0'
sg20
S'Branch reference'
p4857
stRp4858
ag3
(g4
g5
(dp4859
g3722
S'1'
sg20
S'Remote reference'
p4860
stRp4861
ag3
(g4
g5
(dp4862
g3722
S'2'
sg20
S'Tag reference'
p4863
stRp4864
ag3
(g4
g5
(dp4865
g3722
S'3'
sg20
S'Workspace branch reference. Pseudo-reference, used by workspaces that access git files'
p4866
stRp4867
ag3
(g4
g5
(dp4868
g3722
S'4'
sg20
S'Workspace have reference. Pseudo-reference, used by workspaces that access git files'
p4869
stRp4870
ag3
(g4
g5
(dp4871
g3722
S'5'
sg20
S'Other reference'
p4872
stRp4873
atRp4874
sg15
S'RefType'
p4875
sg20
S'The type of reference'
p4876
stRp4877
ag3
(g4
g5
(dp4878
g3795
S'A remote name'
p4879
sg17
S'string'
p4880
sg15
S'RemoteID'
p4881
sg20
S'A string representing the name of a remote spec'
p4882
stRp4883
ag3
(g4
g5
(dp4884
g17
S'flag'
p4885
sg3795
S'Resolve actions'
p4886
sg3717
g3
(g8
g9
(lp4887
g3
(g4
g5
(dp4888
g3722
S'0'
sg20
S'Content resolve'
p4889
stRp4890
ag3
(g4
g5
(dp4891
g3722
S'1'
sg20
S'Filetype resolve'
p4892
stRp4893
ag3
(g4
g5
(dp4894
g3722
S'2'
sg20
S'Branch resolve'
p4895
stRp4896
ag3
(g4
g5
(dp4897
g3722
S'3'
sg20
S'Delete resolve'
p4898
stRp4899
ag3
(g4
g5
(dp4900
g3722
S'4'
sg20
S'Move resolve'
p4901
stRp4902
ag3
(g4
g5
(dp4903
g3722
S'5'
sg20
S'Attribute resolve'
p4904
stRp4905
ag3
(g4
g5
(dp4906
g3722
S'6'
sg20
S'Charset resolve'
p4907
stRp4908
atRp4909
sg15
S'ResolveState'
p4910
sg20
S'Pending or completed resolve actions.'
p4911
stRp4912
ag3
(g4
g5
(dp4913
g17
S'flag'
p4914
sg3795
S'Resolve methods (obsolete in 2011.1, replaced by ResolveState)'
p4915
sg3717
g3
(g8
g9
(lp4916
g3
(g4
g5
(dp4917
g3722
S'0'
sg20
S'Not yet resolved'
p4918
stRp4919
ag3
(g4
g5
(dp4920
g3722
S'1'
sg20
S'Resolved manually'
p4921
stRp4922
ag3
(g4
g5
(dp4923
g3722
S'2'
sg20
S'Resolved automatically as part of a branch'
p4924
stRp4925
ag3
(g4
g5
(dp4926
g3722
S'3'
sg20
S'Resolved automatically as part of a delete'
p4927
stRp4928
ag3
(g4
g5
(dp4929
g3722
S'4'
sg20
S'Resolved automatically as part of a move'
p4930
stRp4931
atRp4932
sg15
S'ResolvedStatus'
p4933
sg20
S'Specifies how the user resolved merge operations.'
p4934
stRp4935
ag3
(g4
g5
(dp4936
g3795
S'A revision number'
p4937
sg17
S'integer'
p4938
sg15
S'Rev'
p4939
sg20
S"The positive integer number of a specific revision of a file. \n\t\tThe number 0 represents '#none'."
p4940
stRp4941
ag3
(g4
g5
(dp4942
g3717
g3
(g8
g9
(lp4943
g3
(g4
g5
(dp4944
g3720
S'RevStatusBits'
p4945
sg3722
S'0x0000'
p4946
sg20
S'single revision with content'
p4947
stRp4948
ag3
(g4
g5
(dp4949
g3720
S'RevStatusBits'
p4950
sg3722
S'0x0001'
p4951
sg20
S'single revision lazy copied'
p4952
stRp4953
ag3
(g4
g5
(dp4954
g3720
S'RevStatusBits'
p4955
sg3722
S'0x0002'
p4956
sg20
S'revision task sparse'
p4957
stRp4958
ag3
(g4
g5
(dp4959
g3720
S'RevStatusBits'
p4960
sg3722
S'0x0004'
p4961
sg20
S'revision task branch'
p4962
stRp4963
ag3
(g4
g5
(dp4964
g3720
S'RevCharsetBits'
p4965
sg3722
S'0'
sg20
S'NONE'
p4966
stRp4967
ag3
(g4
g5
(dp4968
g3720
S'RevCharsetBits'
p4969
sg3722
S'1'
sg20
S'UTF_8'
p4970
stRp4971
ag3
(g4
g5
(dp4972
g3720
S'RevCharsetBits'
p4973
sg3722
S'2'
sg20
S'ISO8859_1'
p4974
stRp4975
ag3
(g4
g5
(dp4976
g3720
S'RevCharsetBits'
p4977
sg3722
S'3'
sg20
S'UTF_16'
p4978
stRp4979
ag3
(g4
g5
(dp4980
g3720
S'RevCharsetBits'
p4981
sg3722
S'4'
sg20
S'SHIFTJIS'
p4982
stRp4983
ag3
(g4
g5
(dp4984
g3720
S'RevCharsetBits'
p4985
sg3722
S'5'
sg20
S'EUCJP'
p4986
stRp4987
ag3
(g4
g5
(dp4988
g3720
S'RevCharsetBits'
p4989
sg3722
S'6'
sg20
S'WIN_US_ANSI'
p4990
stRp4991
ag3
(g4
g5
(dp4992
g3720
S'RevCharsetBits'
p4993
sg3722
S'7'
sg20
S'WIN_US_OEM'
p4994
stRp4995
ag3
(g4
g5
(dp4996
g3720
S'RevCharsetBits'
p4997
sg3722
S'8'
sg20
S'MACOS_ROMAN'
p4998
stRp4999
ag3
(g4
g5
(dp5000
g3720
S'RevCharsetBits'
p5001
sg3722
S'9'
sg20
S'ISO8859_15'
p5002
stRp5003
ag3
(g4
g5
(dp5004
g3720
S'RevCharsetBits'
p5005
sg3722
S'10'
p5006
sg20
S'ISO8859_5'
p5007
stRp5008
ag3
(g4
g5
(dp5009
g3720
S'RevCharsetBits'
p5010
sg3722
S'11'
p5011
sg20
S'KOI8_R'
p5012
stRp5013
ag3
(g4
g5
(dp5014
g3720
S'RevCharsetBits'
p5015
sg3722
S'12'
p5016
sg20
S'WIN_CP_1251'
p5017
stRp5018
ag3
(g4
g5
(dp5019
g3720
S'RevCharsetBits'
p5020
sg3722
S'13'
p5021
sg20
S'UTF_16_LE'
p5022
stRp5023
ag3
(g4
g5
(dp5024
g3720
S'RevCharsetBits'
p5025
sg3722
S'14'
p5026
sg20
S'UTF_16_BE'
p5027
stRp5028
ag3
(g4
g5
(dp5029
g3720
S'RevCharsetBits'
p5030
sg3722
S'15'
p5031
sg20
S'UTF_16_LE_BOM'
p5032
stRp5033
ag3
(g4
g5
(dp5034
g3720
S'RevCharsetBits'
p5035
sg3722
S'16'
p5036
sg20
S'UTF_16_BE_BOM'
p5037
stRp5038
ag3
(g4
g5
(dp5039
g3720
S'RevCharsetBits'
p5040
sg3722
S'17'
p5041
sg20
S'UTF_16_BOM'
p5042
stRp5043
ag3
(g4
g5
(dp5044
g3720
S'RevCharsetBits'
p5045
sg3722
S'18'
p5046
sg20
S'UTF_8_BOM'
p5047
stRp5048
ag3
(g4
g5
(dp5049
g3720
S'RevCharsetBits'
p5050
sg3722
S'19'
p5051
sg20
S'UTF_32'
p5052
stRp5053
ag3
(g4
g5
(dp5054
g3720
S'RevCharsetBits'
p5055
sg3722
S'20'
p5056
sg20
S'UTF_32_LE'
p5057
stRp5058
ag3
(g4
g5
(dp5059
g3720
S'RevCharsetBits'
p5060
sg3722
S'21'
p5061
sg20
S'UTF_32_BE'
p5062
stRp5063
ag3
(g4
g5
(dp5064
g3720
S'RevCharsetBits'
p5065
sg3722
S'22'
p5066
sg20
S'UTF_32_LE_BOM'
p5067
stRp5068
ag3
(g4
g5
(dp5069
g3720
S'RevCharsetBits'
p5070
sg3722
S'23'
p5071
sg20
S'UTF_32_BE_BOM'
p5072
stRp5073
ag3
(g4
g5
(dp5074
g3720
S'RevCharsetBits'
p5075
sg3722
S'24'
p5076
sg20
S'UTF_32_BOM'
p5077
stRp5078
ag3
(g4
g5
(dp5079
g3720
S'RevCharsetBits'
p5080
sg3722
S'25'
p5081
sg20
S'UTF_8_UNCHECKED'
p5082
stRp5083
ag3
(g4
g5
(dp5084
g3720
S'RevCharsetBits'
p5085
sg3722
S'26'
p5086
sg20
S'UTF_8_UNCHECKED_BOM'
p5087
stRp5088
ag3
(g4
g5
(dp5089
g3720
S'RevCharsetBits'
p5090
sg3722
S'27'
p5091
sg20
S'CP949'
p5092
stRp5093
ag3
(g4
g5
(dp5094
g3720
S'RevCharsetBits'
p5095
sg3722
S'28'
p5096
sg20
S'CP936'
p5097
stRp5098
ag3
(g4
g5
(dp5099
g3720
S'RevCharsetBits'
p5100
sg3722
S'29'
p5101
sg20
S'CP950'
p5102
stRp5103
ag3
(g4
g5
(dp5104
g3720
S'RevCharsetBits'
p5105
sg3722
S'30'
p5106
sg20
S'CP850'
p5107
stRp5108
ag3
(g4
g5
(dp5109
g3720
S'RevCharsetBits'
p5110
sg3722
S'31'
p5111
sg20
S'CP858'
p5112
stRp5113
atRp5114
sg15
S'RevStatus'
p5115
sg3720
g3
(g8
g9
(lp5116
g3
(g4
g5
(dp5117
g15
S'RevStatusBits'
p5118
sg3722
S'0x00FFFFFF'
p5119
sg20
S'Bits used to store revision status'
p5120
stRp5121
ag3
(g4
g5
(dp5122
g15
S'RevCharsetBits'
p5123
sg3722
S'0x7F000000'
p5124
sg20
S'Bits used to store revision charset (high 8 bits). Values below have been shifted right 24 bits'
p5125
stRp5126
atRp5127
sg3795
S'A revision status'
p5128
sg17
S'bitmask'
p5129
sg20
S'Lazy copy, task stream promotion, and charset status'
p5130
stRp5131
ag3
(g4
g5
(dp5132
g3795
S'Type of reviewer'
p5133
sg17
S'integer'
p5134
sg15
S'Reviewer'
p5135
sg20
S'The type of reviewer. Currently there is only one type of\n\t\treviewer and 0 is the only valid value.'
p5136
stRp5137
ag3
(g4
g5
(dp5138
g17
S'flag'
p5139
sg3795
S'The type of server'
p5140
sg3717
g3
(g8
g9
(lp5141
g3
(g4
g5
(dp5142
g3722
S'0'
sg20
S'server'
p5143
stRp5144
ag3
(g4
g5
(dp5145
g3722
S'1'
sg20
S'proxy'
p5146
stRp5147
ag3
(g4
g5
(dp5148
g3722
S'2'
sg20
S'broker'
p5149
stRp5150
ag3
(g4
g5
(dp5151
g3722
S'3'
sg20
S'identifier'
p5152
stRp5153
ag3
(g4
g5
(dp5154
g3722
S'4'
sg20
S'admin'
p5155
stRp5156
ag3
(g4
g5
(dp5157
g3722
S'5'
sg20
S'connector'
p5158
stRp5159
atRp5160
sg15
S'ServerType'
p5161
sg20
S'The type of server'
p5162
stRp5163
ag3
(g4
g5
(dp5164
g3717
g3
(g8
g9
(lp5165
g3
(g4
g5
(dp5166
g3720
S'Service Set Value'
p5167
sg3722
S'0x0903'
p5168
sg20
S'standard \t\t( db-read | db-write | rmt-depot | rmt-journal )'
p5169
stRp5170
ag3
(g4
g5
(dp5171
g3720
S'Service Set Value'
p5172
sg3722
S'0x0045'
p5173
sg20
S'replica \t\t( db-read | db-replication | file-replication | rmt-depot | rmt-journal )'
p5174
stRp5175
ag3
(g4
g5
(dp5176
g3720
S'Service Set Value'
p5177
sg3722
S'0x0030'
p5178
sg20
S'broker ( brokering | forwarding )'
p5179
stRp5180
ag3
(g4
g5
(dp5181
g3720
S'Service Set Value'
p5182
sg3722
S'0x00A0'
p5183
sg20
S'proxy ( forwarding | file-cacheing )'
p5184
stRp5185
ag3
(g4
g5
(dp5186
g3720
S'Service Set Value'
p5187
sg3722
S'0x00E5'
p5188
sg20
S'forwarding-replica ( db-read | db-replication | forwarding | file-replication | file-cacheing | rmt-depot | rmt-journal )'
p5189
stRp5190
ag3
(g4
g5
(dp5191
g3720
S'Service Set Value'
p5192
sg3722
S'0x004D'
p5193
sg20
S'build-server ( db-read | db-replication | bound-clients | file-replication | rmt-depot | rmt-journal )'
p5194
stRp5195
ag3
(g4
g5
(dp5196
g3720
S'Service Set Value'
p5197
sg3722
S'0x0203'
p5198
sg20
S'P4AUTH ( db-read | db-write | rmt-auth )'
p5199
stRp5200
ag3
(g4
g5
(dp5201
g3720
S'Service Set Value'
p5202
sg3722
S'0x0403'
p5203
sg20
S'P4CHANGE ( db-read | db-write | rmt-change )'
p5204
stRp5205
ag3
(g4
g5
(dp5206
g3720
S'Service Set Value'
p5207
sg3722
S'0x19ED'
p5208
sg20
S'edge-server ( db-read | db-replication | bound-clients | forwarding | file-replication | file-cacheing | rmt-depot | rmt-journal | local-opens )'
p5209
stRp5210
ag3
(g4
g5
(dp5211
g3720
S'Service Set Value'
p5212
sg3722
S'0x2F03'
p5213
sg20
S'commit-server ( db-read | db-write | rmt-depot | rmt-journal | rmt-change | rmt-auth | commit-server )'
p5214
stRp5215
ag3
(g4
g5
(dp5216
g3720
S'Service Set Value'
p5217
sg3722
S'0x6F03'
p5218
sg20
S'depot-master ( db-read | db-write | rmt-depot | rmt-journal | rmt-change | rmt-auth | commit-server | p4zk-managed )'
p5219
stRp5220
ag3
(g4
g5
(dp5221
g3720
S'Service Set Value'
p5222
sg3722
S'0xC945'
p5223
sg20
S'depot-standby ( db-read | db-replication | file-replication | rmt-depot | rmt-journal | journal-copy | p4zk-managed )'
p5224
stRp5225
ag3
(g4
g5
(dp5226
g3720
S'Service Set Value'
p5227
sg3722
S'0x59ED'
p5228
sg20
S'workspace-server ( db-read | db-replication | bound-clients | forwarding | file-replication | file-cacheing | rmt-depot | rmt-journal | local-opens | p4zk-managed )'
p5229
stRp5230
ag3
(g4
g5
(dp5231
g3720
S'Service Set Value'
p5232
sg3722
S'0x8945'
p5233
sg20
S'standby ( db-read | db-replication | file-replication | rmt-depot | rmt-journal | journal-copy )'
p5234
stRp5235
ag3
(g4
g5
(dp5236
g3720
S'Service Set Value'
p5237
sg3722
S'0x89E5'
p5238
sg20
S'forwarding-standby ( db-read | db-replication | forwarding | file-replication | file-cacheing | rmt-depot | rmt-journal | journal-copy )'
p5239
stRp5240
ag3
(g4
g5
(dp5241
g3720
S'Service Set Value'
p5242
sg3722
S'0x4030'
p5243
sg20
S'workspace-router ( brokering | forwarding | p4zk-managed )'
p5244
stRp5245
ag3
(g4
g5
(dp5246
g3720
S'Service Set Value'
p5247
sg3722
S'0x10003'
p5248
sg20
S'local ( db-read | db-write | dvcs-local )'
p5249
stRp5250
ag3
(g4
g5
(dp5251
g3720
S'Service Set Value'
p5252
sg3722
S'0x20000'
p5253
sg20
S'cluster ( cluster-id )'
p5254
stRp5255
ag3
(g4
g5
(dp5256
g3720
S'Service Set Value'
p5257
sg3722
S'0x40000'
p5258
sg20
S'zookeeper-server ( zookeeper-server )'
p5259
stRp5260
ag3
(g4
g5
(dp5261
g3720
S'Service Set Value'
p5262
sg3722
S'0x80000'
p5263
sg20
S'hxca-server ( hxca-server )'
p5264
stRp5265
ag3
(g4
g5
(dp5266
g3720
S'Service Set Value'
p5267
sg3722
S'0x100000'
p5268
sg20
S'git-connector'
p5269
stRp5270
ag3
(g4
g5
(dp5271
g3720
S'Service Property'
p5272
sg3722
S'0x0001'
p5273
sg20
S'db-read'
p5274
stRp5275
ag3
(g4
g5
(dp5276
g3720
S'Service Property'
p5277
sg3722
S'0x0002'
p5278
sg20
S'db-write'
p5279
stRp5280
ag3
(g4
g5
(dp5281
g3720
S'Service Property'
p5282
sg3722
S'0x0004'
p5283
sg20
S'db-replication'
p5284
stRp5285
ag3
(g4
g5
(dp5286
g3720
S'Service Property'
p5287
sg3722
S'0x0008'
p5288
sg20
S'bound-clients'
p5289
stRp5290
ag3
(g4
g5
(dp5291
g3720
S'Service Property'
p5292
sg3722
S'0x0010'
p5293
sg20
S'brokering'
p5294
stRp5295
ag3
(g4
g5
(dp5296
g3720
S'Service Property'
p5297
sg3722
S'0x0020'
p5298
sg20
S'forwarding'
p5299
stRp5300
ag3
(g4
g5
(dp5301
g3720
S'Service Property'
p5302
sg3722
S'0x0040'
p5303
sg20
S'file-replication'
p5304
stRp5305
ag3
(g4
g5
(dp5306
g3720
S'Service Property'
p5307
sg3722
S'0x0080'
p5308
sg20
S'file-cacheing'
p5309
stRp5310
ag3
(g4
g5
(dp5311
g3720
S'Service Property'
p5312
sg3722
S'0x0100'
p5313
sg20
S'rmt-depot'
p5314
stRp5315
ag3
(g4
g5
(dp5316
g3720
S'Service Property'
p5317
sg3722
S'0x0200'
p5318
sg20
S'rmt-auth'
p5319
stRp5320
ag3
(g4
g5
(dp5321
g3720
S'Service Property'
p5322
sg3722
S'0x0400'
p5323
sg20
S'rmt-change'
p5324
stRp5325
ag3
(g4
g5
(dp5326
g3720
S'Service Property'
p5327
sg3722
S'0x0800'
p5328
sg20
S'rmt-journal'
p5329
stRp5330
ag3
(g4
g5
(dp5331
g3720
S'Service Property'
p5332
sg3722
S'0x1000'
p5333
sg20
S'local-opens'
p5334
stRp5335
ag3
(g4
g5
(dp5336
g3720
S'Service Property'
p5337
sg3722
S'0x2000'
p5338
sg20
S'commit-server'
p5339
stRp5340
ag3
(g4
g5
(dp5341
g3720
S'Service Property'
p5342
sg3722
S'0x4000'
p5343
sg20
S'p4zk-managed'
p5344
stRp5345
ag3
(g4
g5
(dp5346
g3720
S'Service Property'
p5347
sg3722
S'0x8000'
p5348
sg20
S'journal-copy'
p5349
stRp5350
ag3
(g4
g5
(dp5351
g3720
S'Service Property'
p5352
sg3722
S'0x10000'
p5353
sg20
S'dvcs-local'
p5354
stRp5355
ag3
(g4
g5
(dp5356
g3720
S'Service Property'
p5357
sg3722
S'0x20000'
p5358
sg20
S'cluster-id'
p5359
stRp5360
ag3
(g4
g5
(dp5361
g3720
S'Service Property'
p5362
sg3722
S'0x40000'
p5363
sg20
S'zookeeper'
p5364
stRp5365
ag3
(g4
g5
(dp5366
g3720
S'Service Property'
p5367
sg3722
S'0x80000'
p5368
sg20
S'hxca'
p5369
stRp5370
atRp5371
sg15
S'ServerServiceType'
p5372
sg3720
g3
(g8
g9
(lp5373
g3
(g4
g5
(dp5374
g15
S'Service Set Value'
p5375
sg3722
S'None'
p5376
sg20
S"The server service type setting is generated by OR'ing the generic ServerServiceProperties defined below"
p5377
stRp5378
ag3
(g4
g5
(dp5379
g15
S'Service Property'
p5380
sg3722
S'None'
p5381
sg20
S'ServerServiceProperties: Bits used to identify generic server properties'
p5382
stRp5383
atRp5384
sg3795
S'The type of server service'
p5385
sg17
S'bitmask'
p5386
sg20
S'The services offered by a type of service.'
p5387
stRp5388
ag3
(g4
g5
(dp5389
g3717
g3
(g4
g5
(dp5390
g3720
S'Server Option Flag'
p5391
sg3722
S'0x0001'
p5392
sg20
S'mandatory'
p5393
stRp5394
sg15
S'ServerOptionsType'
p5395
sg3720
g3
(g4
g5
(dp5396
g15
S'Server Option Flag'
p5397
sg3722
S'None'
p5398
sg20
S"The server options service type setting is generated by OR'ing the generic ServerOptionFlags defined below"
p5399
stRp5400
sg3795
S'Options for server definitions'
p5401
sg17
S'bitmask'
p5402
sg20
S'Option Flags for server definitions.'
p5403
stRp5404
ag3
(g4
g5
(dp5405
g3795
S'Encoded SHA1'
p5406
sg17
S'string'
p5407
sg15
S'SHA1'
p5408
sg20
S'20 byte SHA1 digest of a block of text'
p5409
stRp5410
ag3
(g4
g5
(dp5411
g17
S'flag'
p5412
sg3795
S'A spec type'
p5413
sg3717
g3
(g8
g9
(lp5414
g3
(g4
g5
(dp5415
g3722
S"98 (ASCII 'b')"
p5416
sg20
S'branch'
p5417
stRp5418
ag3
(g4
g5
(dp5419
g3722
S"67 (ASCII 'C')"
p5420
sg20
S'change'
p5421
stRp5422
ag3
(g4
g5
(dp5423
g3722
S"99 (ASCII 'c')"
p5424
sg20
S'client'
p5425
stRp5426
ag3
(g4
g5
(dp5427
g3722
S"100 (ASCII 'd')"
p5428
sg20
S'depot'
p5429
stRp5430
ag3
(g4
g5
(dp5431
g3722
S"101 (ASCII 'e')"
p5432
sg20
S'spec'
p5433
stRp5434
ag3
(g4
g5
(dp5435
g3722
S"103 (ASCII 'g')"
p5436
sg20
S'group'
p5437
stRp5438
ag3
(g4
g5
(dp5439
g3722
S"106 (ASCII 'j')"
p5440
sg20
S'job'
p5441
stRp5442
ag3
(g4
g5
(dp5443
g3722
S"108 (ASCII 'l')"
p5444
sg20
S'label'
p5445
stRp5446
ag3
(g4
g5
(dp5447
g3722
S"68 (ASCII 'D')"
p5448
sg20
S'ldap'
p5449
stRp5450
ag3
(g4
g5
(dp5451
g3722
S"76 (ASCII 'L')"
p5452
sg20
S'license'
p5453
stRp5454
ag3
(g4
g5
(dp5455
g3722
S"112 (ASCII 'p')"
p5456
sg20
S'protect'
p5457
stRp5458
ag3
(g4
g5
(dp5459
g3722
S"114 (ASCII 'r')"
p5460
sg20
S'remote'
p5461
stRp5462
ag3
(g4
g5
(dp5463
g3722
S"83 (ASCII 'S')"
p5464
sg20
S'server'
p5465
stRp5466
ag3
(g4
g5
(dp5467
g3722
S"115 (ASCII 's')"
p5468
sg20
S'stream'
p5469
stRp5470
ag3
(g4
g5
(dp5471
g3722
S"84 (ASCII 'T')"
p5472
sg20
S'trigger'
p5473
stRp5474
ag3
(g4
g5
(dp5475
g3722
S"116 (ASCII 't')"
p5476
sg20
S'typemap'
p5477
stRp5478
ag3
(g4
g5
(dp5479
g3722
S"117 (ASCII 'u')"
p5480
sg20
S'user'
p5481
stRp5482
atRp5483
sg15
S'SpecType'
p5484
sg20
S'A integer value representing the type of a spec'
p5485
stRp5486
ag3
(g4
g5
(dp5487
g17
S'flag'
p5488
sg3795
S'Stash type'
p5489
sg3717
g3
(g8
g9
(lp5490
g3
(g4
g5
(dp5491
g3722
S'0'
sg20
S'switch: A shelf with work-in-progress for a particular stream/branch'
p5492
stRp5493
ag3
(g4
g5
(dp5494
g3722
S'1'
sg20
S"tangent: Work-in-progress relocated by 'p4 fetch -t'. Consumed and removed by 'p4 resubmit'"
p5495
stRp5496
atRp5497
sg15
S'StashType'
p5498
sg20
S'Stash type'
p5499
stRp5500
ag3
(g4
g5
(dp5501
g17
S'flag'
p5502
sg3795
S'Server specification view type'
p5503
sg3717
g3
(g8
g9
(lp5504
g3
(g4
g5
(dp5505
g3722
S'0'
sg20
S'ClientDataFilter'
p5506
stRp5507
ag3
(g4
g5
(dp5508
g3722
S'1'
sg20
S'RevisionDataFilter'
p5509
stRp5510
ag3
(g4
g5
(dp5511
g3722
S'2'
sg20
S'ArchiveDataFilter'
p5512
stRp5513
ag3
(g4
g5
(dp5514
g3722
S'3'
sg20
S'AllowedAddresses'
p5515
stRp5516
atRp5517
sg15
S'SvrViewType'
p5518
sg20
S'Server specification view type'
p5519
stRp5520
ag3
(g4
g5
(dp5521
g3717
g3
(g8
g9
(lp5522
g3
(g4
g5
(dp5523
g3720
S'Stream Status'
p5524
sg3722
S'0x0000'
p5525
sg20
S'Clear cache'
p5526
stRp5527
ag3
(g4
g5
(dp5528
g3720
S'Stream Status'
p5529
sg3722
S'0x0001'
p5530
sg20
S'Needs copy'
p5531
stRp5532
ag3
(g4
g5
(dp5533
g3720
S'Stream Status'
p5534
sg3722
S'0x0002'
p5535
sg20
S'Copy up-to-date'
p5536
stRp5537
ag3
(g4
g5
(dp5538
g3720
S'Stream Status'
p5539
sg3722
S'0x0004'
p5540
sg20
S'Needs merge'
p5541
stRp5542
ag3
(g4
g5
(dp5543
g3720
S'Stream Status'
p5544
sg3722
S'0x0008'
p5545
sg20
S'Merge up-to-date'
p5546
stRp5547
atRp5548
sg15
S'StreamStatus'
p5549
sg3720
g3
(g4
g5
(dp5550
g15
S'Stream Status'
p5551
sg3722
S'Copy: 0x0003, Merge: 0x000C'
p5552
sg20
S'Bits used to store the stream integration status'
p5553
stRp5554
sg3795
S'Stream integration status'
p5555
sg17
S'bitmask'
p5556
sg20
S'The stream integration status.'
p5557
stRp5558
ag3
(g4
g5
(dp5559
g17
S'flag'
p5560
sg3795
S'Type of stream path'
p5561
sg3717
g3
(g8
g9
(lp5562
g3
(g4
g5
(dp5563
g3722
S'0'
sg20
S'share'
p5564
stRp5565
ag3
(g4
g5
(dp5566
g3722
S'1'
sg20
S'isolate'
p5567
stRp5568
ag3
(g4
g5
(dp5569
g3722
S'2'
sg20
S'import'
p5570
stRp5571
ag3
(g4
g5
(dp5572
g3722
S'3'
sg20
S'exclude'
p5573
stRp5574
ag3
(g4
g5
(dp5575
g3722
S'4'
sg20
S'remapped'
p5576
stRp5577
ag3
(g4
g5
(dp5578
g3722
S'5'
sg20
S'ignored'
p5579
stRp5580
ag3
(g4
g5
(dp5581
g3722
S'6'
sg20
S'inclusive'
p5582
stRp5583
ag3
(g4
g5
(dp5584
g3722
S'7'
sg20
S'import+'
p5585
stRp5586
atRp5587
sg15
S'StreamPathType'
p5588
sg20
S'The path type for file paths in a stream view.'
p5589
stRp5590
ag3
(g4
g5
(dp5591
g17
S'flag'
p5592
sg3795
S'Type of stream'
p5593
sg3717
g3
(g8
g9
(lp5594
g3
(g4
g5
(dp5595
g3722
S'0'
sg20
S'mainline'
p5596
stRp5597
ag3
(g4
g5
(dp5598
g3722
S'1'
sg20
S'release'
p5599
stRp5600
ag3
(g4
g5
(dp5601
g3722
S'2'
sg20
S'development'
p5602
stRp5603
ag3
(g4
g5
(dp5604
g3722
S'3'
sg20
S'virtual'
p5605
stRp5606
ag3
(g4
g5
(dp5607
g3722
S'4'
sg20
S'task'
p5608
stRp5609
ag3
(g4
g5
(dp5610
g3722
S'5'
sg20
S'task - unloaded'
p5611
stRp5612
atRp5613
sg15
S'StreamType'
p5614
sg20
S'The type of stream.'
p5615
stRp5616
ag3
(g4
g5
(dp5617
g17
S'flag'
p5618
sg3795
S'Strength check of a password'
p5619
sg3717
g3
(g8
g9
(lp5620
g3
(g4
g5
(dp5621
g3722
S'0'
sg20
S'Strength unknown'
p5622
stRp5623
ag3
(g4
g5
(dp5624
g3722
S'1'
sg20
S'Password is strong'
p5625
stRp5626
ag3
(g4
g5
(dp5627
g3722
S'2'
sg20
S'Unset'
p5628
stRp5629
atRp5630
sg15
S'Strength'
p5631
sg20
S"Whether or not a user's password has been tested for strength."
p5632
stRp5633
ag3
(g4
g5
(dp5634
S'restriction'
p5635
g3
(g8
g9
(lp5636
S'Cannot be empty'
p5637
aS'Cannot consist solely of a dash (-)'
p5638
aS'Cannot be all-numeric'
p5639
aS'Cannot contain non-printable characters'
p5640
aS'Spaces are replaced with underscores ( _ )'
p5641
aS'Revision characters (# and @) are prohibited'
p5642
aS'Slashes (/) are prohibited'
p5643
aS'Wildcards (... and *) are prohibited'
p5644
atRp5645
sg3795
S'A string up to 1024 characters long'
p5646
sg17
S'string'
p5647
sg15
S'String'
p5648
sg20
S'A string up to 1024 characters in length.  Depending on the \n\t\tcontext in which the string is used, restrictions \n\t\tmay apply. Strings are often used as key fields in the \n\t\tschema.'
p5649
stRp5650
ag3
(g4
g5
(dp5651
g17
S'flag'
p5652
sg3795
S'Tamper-state of workspace file'
p5653
sg3717
g3
(g8
g9
(lp5654
g3
(g4
g5
(dp5655
g3722
S'0'
sg20
S'Do not check for tampering'
p5656
stRp5657
ag3
(g4
g5
(dp5658
g3722
S'1'
sg20
S'Check for tampering'
p5659
stRp5660
ag3
(g4
g5
(dp5661
g3722
S'2'
sg20
S'Tamper-check failed'
p5662
stRp5663
atRp5664
sg15
S'TamperCheck'
p5665
sg20
S'Indicates the tamper-state of a file in a workspace. This\n\t\tis used to decide whether or not to check the file, and\n\t\tif checked, to hold the result.'
p5666
stRp5667
ag3
(g4
g5
(dp5668
g3795
S'A string value'
p5669
sg17
S'string'
p5670
sg15
S'Text'
p5671
sg20
S'A text string value - used to hold longer blocks of text.'
p5672
stRp5673
ag3
(g4
g5
(dp5674
g3795
S'The id of a group of traits'
p5675
sg17
S'integer'
p5676
sg15
S'TraitLot'
p5677
sg20
S'An integer identifying a group of traits which may be\n\t\tshared by several revisions.'
p5678
stRp5679
ag3
(g4
g5
(dp5680
g17
S'flag'
p5681
sg3795
S'A type of trait'
p5682
sg3717
g3
(g8
g9
(lp5683
g3
(g4
g5
(dp5684
g3722
S'0'
sg20
S'Special trait for reference counting'
p5685
stRp5686
ag3
(g4
g5
(dp5687
g3722
S'1'
sg20
S'Binary trait'
p5688
stRp5689
ag3
(g4
g5
(dp5690
g3722
S'2'
sg20
S'Binary trait that gets propagated'
p5691
stRp5692
atRp5693
sg15
S'TraitType'
p5694
sg20
S'The type of trait.'
p5695
stRp5696
ag3
(g4
g5
(dp5697
g17
S'flag'
p5698
sg3795
S'A type of trigger'
p5699
sg3717
g3
(g8
g9
(lp5700
g3
(g4
g5
(dp5701
g3722
S'0'
sg20
S'change-submit (formerly pre-submit triggers)'
p5702
stRp5703
ag3
(g4
g5
(dp5704
g3722
S'1'
sg20
S'change-content'
p5705
stRp5706
ag3
(g4
g5
(dp5707
g3722
S'2'
sg20
S'change-commit'
p5708
stRp5709
ag3
(g4
g5
(dp5710
g3722
S'3'
sg20
S'form-in'
p5711
stRp5712
ag3
(g4
g5
(dp5713
g3722
S'4'
sg20
S'form-out'
p5714
stRp5715
ag3
(g4
g5
(dp5716
g3722
S'5'
sg20
S'form-save'
p5717
stRp5718
ag3
(g4
g5
(dp5719
g3722
S'6'
sg20
S'form-delete'
p5720
stRp5721
ag3
(g4
g5
(dp5722
g3722
S'7'
sg20
S'form-commit'
p5723
stRp5724
ag3
(g4
g5
(dp5725
g3722
S'8'
sg20
S'auth-check'
p5726
stRp5727
ag3
(g4
g5
(dp5728
g3722
S'9'
sg20
S'auth-check-sso'
p5729
stRp5730
ag3
(g4
g5
(dp5731
g3722
S'10'
p5732
sg20
S'auth-set'
p5733
stRp5734
ag3
(g4
g5
(dp5735
g3722
S'11'
p5736
sg20
S'fix-add'
p5737
stRp5738
ag3
(g4
g5
(dp5739
g3722
S'12'
p5740
sg20
S'fix-delete'
p5741
stRp5742
ag3
(g4
g5
(dp5743
g3722
S'13'
p5744
sg20
S'archive'
p5745
stRp5746
ag3
(g4
g5
(dp5747
g3722
S'14'
p5748
sg20
S'shelve-submit'
p5749
stRp5750
ag3
(g4
g5
(dp5751
g3722
S'15'
p5752
sg20
S'shelve-commit'
p5753
stRp5754
ag3
(g4
g5
(dp5755
g3722
S'16'
p5756
sg20
S'shelve-delete'
p5757
stRp5758
ag3
(g4
g5
(dp5759
g3722
S'17'
p5760
sg20
S'service-check'
p5761
stRp5762
ag3
(g4
g5
(dp5763
g3722
S'18'
p5764
sg20
S'edge-submit'
p5765
stRp5766
ag3
(g4
g5
(dp5767
g3722
S'19'
p5768
sg20
S'edge-content'
p5769
stRp5770
ag3
(g4
g5
(dp5771
g3722
S'20'
p5772
sg20
S'change-failed'
p5773
stRp5774
ag3
(g4
g5
(dp5775
g3722
S'21'
p5776
sg20
S'command'
p5777
stRp5778
ag3
(g4
g5
(dp5779
g3722
S'22'
p5780
sg20
S'push-submit'
p5781
stRp5782
ag3
(g4
g5
(dp5783
g3722
S'23'
p5784
sg20
S'push-content'
p5785
stRp5786
ag3
(g4
g5
(dp5787
g3722
S'24'
p5788
sg20
S'push-commit'
p5789
stRp5790
ag3
(g4
g5
(dp5791
g3722
S'25'
p5792
sg20
S'journal-rotate'
p5793
stRp5794
ag3
(g4
g5
(dp5795
g3722
S'26'
p5796
sg20
S'journal-rotate-lock'
p5797
stRp5798
ag3
(g4
g5
(dp5799
g3722
S'27'
p5800
sg20
S'graph-push-start'
p5801
stRp5802
ag3
(g4
g5
(dp5803
g3722
S'28'
p5804
sg20
S'graph-push-complete'
p5805
stRp5806
ag3
(g4
g5
(dp5807
g3722
S'29'
p5808
sg20
S'graph-push-reference'
p5809
stRp5810
ag3
(g4
g5
(dp5811
g3722
S'30'
p5812
sg20
S'graph-push-reference-complete'
p5813
stRp5814
ag3
(g4
g5
(dp5815
g3722
S'31'
p5816
sg20
S'graph-lfs-push'
p5817
stRp5818
ag3
(g4
g5
(dp5819
g3722
S'32'
p5820
sg20
S'graph-fork-repo'
p5821
stRp5822
ag3
(g4
g5
(dp5823
g3722
S'33'
p5824
sg20
S'pull-archive'
p5825
stRp5826
ag3
(g4
g5
(dp5827
g3722
S'34'
p5828
sg20
S'auth-pre-2fa'
p5829
stRp5830
ag3
(g4
g5
(dp5831
g3722
S'35'
p5832
sg20
S'auth-init-2fa'
p5833
stRp5834
ag3
(g4
g5
(dp5835
g3722
S'36'
p5836
sg20
S'auth-check-2fa'
p5837
stRp5838
ag3
(g4
g5
(dp5839
g3722
S'37'
p5840
sg20
S'bgtask'
p5841
stRp5842
ag3
(g4
g5
(dp5843
g3722
S'38'
p5844
sg20
S'auth-invalidate'
p5845
stRp5846
ag3
(g4
g5
(dp5847
g3722
S'39'
p5848
sg20
S'extension'
p5849
stRp5850
atRp5851
sg15
S'Trigger'
p5852
sg20
S'The type of a trigger.'
p5853
stRp5854
ag3
(g4
g5
(dp5855
g3795
S'A user or group name'
p5856
sg20
S'The name of a Helix Server user or group.'
p5857
sg17
S'string'
p5858
sg15
S'User'
p5859
sg224
S'String'
p5860
stRp5861
ag3
(g4
g5
(dp5862
g17
S'flag'
p5863
sg3795
S'User Authentication Type'
p5864
sg3717
g3
(g8
g9
(lp5865
g3
(g4
g5
(dp5866
g3722
S'0'
sg20
S'perforce'
p5867
stRp5868
ag3
(g4
g5
(dp5869
g3722
S'1'
sg20
S'ldap'
p5870
stRp5871
ag3
(g4
g5
(dp5872
g3722
S'16'
p5873
sg20
S'perforce+2fa'
p5874
stRp5875
ag3
(g4
g5
(dp5876
g3722
S'17'
p5877
sg20
S'ldap+2fa'
p5878
stRp5879
atRp5880
sg15
S'UserAuthType'
p5881
sg20
S'The AuthMethod setting for the user.'
p5882
stRp5883
ag3
(g4
g5
(dp5884
g17
S'flag'
p5885
sg3795
S'User functionality level'
p5886
sg3717
g3
(g8
g9
(lp5887
g3
(g4
g5
(dp5888
g3722
S'0'
sg20
S'standard'
p5889
stRp5890
ag3
(g4
g5
(dp5891
g3722
S'1'
sg20
S'service'
p5892
stRp5893
ag3
(g4
g5
(dp5894
g3722
S'2'
sg20
S'operator'
p5895
stRp5896
atRp5897
sg15
S'UserLevel'
p5898
sg20
S'User functionality level'
p5899
stRp5900
ag3
(g4
g5
(dp5901
g3717
g3
(g8
g9
(lp5902
g3
(g4
g5
(dp5903
g3720
S'UserTypeBits'
p5904
sg15
S'User'
p5905
sg3722
S'0x0001'
p5906
sg20
S'User is an ordinary user'
p5907
stRp5908
ag3
(g4
g5
(dp5909
g3720
S'UserTypeBits'
p5910
sg15
S'SubGroup'
p5911
sg3722
S'0x0002'
p5912
sg20
S'Group is a sub-group'
p5913
stRp5914
ag3
(g4
g5
(dp5915
g3720
S'UserTypeBits'
p5916
sg15
S'Owner'
p5917
sg3722
S'0x0004'
p5918
sg20
S'User is the owner of a group'
p5919
stRp5920
atRp5921
sg15
S'UserType'
p5922
sg3720
g3
(g4
g5
(dp5923
g15
S'UserTypeBits'
p5924
sg3722
S'0x0007'
p5925
sg20
S'Bits used to store the role of a user in a group'
p5926
stRp5927
sg3795
S'The role of a user within a group'
p5928
sg17
S'bitmask'
p5929
sg20
S'The role of a user (or group) within a group.'
p5930
stRp5931
ag3
(g4
g5
(dp5932
g3795
S'A user or group name with wildcards'
p5933
sg20
S'A user/group name that may contain wildcards (*)'
p5934
sg17
S'string'
p5935
sg15
S'UserWild'
p5936
sg224
S'User'
p5937
stRp5938
ag3
(g4
g5
(dp5939
g3795
S'A number or a string'
p5940
sg17
S'string'
p5941
sg15
S'Value'
p5942
sg20
S'A number, stored in a string, or a string'
p5943
stRp5944
ag3
(g4
g5
(dp5945
g3717
g3
(g8
g9
(lp5946
g3
(g4
g5
(dp5947
g3720
S'WorkStatusBits'
p5948
sg15
S'kmerged'
p5949
sg3722
S'0x0001'
p5950
sg20
S'resolved merged ktext'
p5951
stRp5952
ag3
(g4
g5
(dp5953
g3720
S'WorkCharsetBits'
p5954
sg3722
S'0'
sg20
S'NONE'
p5955
stRp5956
ag3
(g4
g5
(dp5957
g3720
S'WorkCharsetBits'
p5958
sg3722
S'1'
sg20
S'UTF_8'
p5959
stRp5960
ag3
(g4
g5
(dp5961
g3720
S'WorkCharsetBits'
p5962
sg3722
S'2'
sg20
S'ISO8859_1'
p5963
stRp5964
ag3
(g4
g5
(dp5965
g3720
S'WorkCharsetBits'
p5966
sg3722
S'3'
sg20
S'UTF_16'
p5967
stRp5968
ag3
(g4
g5
(dp5969
g3720
S'WorkCharsetBits'
p5970
sg3722
S'4'
sg20
S'SHIFTJIS'
p5971
stRp5972
ag3
(g4
g5
(dp5973
g3720
S'WorkCharsetBits'
p5974
sg3722
S'5'
sg20
S'EUCJP'
p5975
stRp5976
ag3
(g4
g5
(dp5977
g3720
S'WorkCharsetBits'
p5978
sg3722
S'6'
sg20
S'WIN_US_ANSI'
p5979
stRp5980
ag3
(g4
g5
(dp5981
g3720
S'WorkCharsetBits'
p5982
sg3722
S'7'
sg20
S'WIN_US_OEM'
p5983
stRp5984
ag3
(g4
g5
(dp5985
g3720
S'WorkCharsetBits'
p5986
sg3722
S'8'
sg20
S'MACOS_ROMAN'
p5987
stRp5988
ag3
(g4
g5
(dp5989
g3720
S'WorkCharsetBits'
p5990
sg3722
S'9'
sg20
S'ISO8859_15'
p5991
stRp5992
ag3
(g4
g5
(dp5993
g3720
S'WorkCharsetBits'
p5994
sg3722
S'10'
p5995
sg20
S'ISO8859_5'
p5996
stRp5997
ag3
(g4
g5
(dp5998
g3720
S'WorkCharsetBits'
p5999
sg3722
S'11'
p6000
sg20
S'KOI8_R'
p6001
stRp6002
ag3
(g4
g5
(dp6003
g3720
S'WorkCharsetBits'
p6004
sg3722
S'12'
p6005
sg20
S'WIN_CP_1251'
p6006
stRp6007
ag3
(g4
g5
(dp6008
g3720
S'WorkCharsetBits'
p6009
sg3722
S'13'
p6010
sg20
S'UTF_16_LE'
p6011
stRp6012
ag3
(g4
g5
(dp6013
g3720
S'WorkCharsetBits'
p6014
sg3722
S'14'
p6015
sg20
S'UTF_16_BE'
p6016
stRp6017
ag3
(g4
g5
(dp6018
g3720
S'WorkCharsetBits'
p6019
sg3722
S'15'
p6020
sg20
S'UTF_16_LE_BOM'
p6021
stRp6022
ag3
(g4
g5
(dp6023
g3720
S'WorkCharsetBits'
p6024
sg3722
S'16'
p6025
sg20
S'UTF_16_BE_BOM'
p6026
stRp6027
ag3
(g4
g5
(dp6028
g3720
S'WorkCharsetBits'
p6029
sg3722
S'17'
p6030
sg20
S'UTF_16_BOM'
p6031
stRp6032
ag3
(g4
g5
(dp6033
g3720
S'WorkCharsetBits'
p6034
sg3722
S'18'
p6035
sg20
S'UTF_8_BOM'
p6036
stRp6037
ag3
(g4
g5
(dp6038
g3720
S'WorkCharsetBits'
p6039
sg3722
S'19'
p6040
sg20
S'UTF_32'
p6041
stRp6042
ag3
(g4
g5
(dp6043
g3720
S'WorkCharsetBits'
p6044
sg3722
S'20'
p6045
sg20
S'UTF_32_LE'
p6046
stRp6047
ag3
(g4
g5
(dp6048
g3720
S'WorkCharsetBits'
p6049
sg3722
S'21'
p6050
sg20
S'UTF_32_BE'
p6051
stRp6052
ag3
(g4
g5
(dp6053
g3720
S'WorkCharsetBits'
p6054
sg3722
S'22'
p6055
sg20
S'UTF_32_LE_BOM'
p6056
stRp6057
ag3
(g4
g5
(dp6058
g3720
S'WorkCharsetBits'
p6059
sg3722
S'23'
p6060
sg20
S'UTF_32_BE_BOM'
p6061
stRp6062
ag3
(g4
g5
(dp6063
g3720
S'WorkCharsetBits'
p6064
sg3722
S'24'
p6065
sg20
S'UTF_32_BOM'
p6066
stRp6067
ag3
(g4
g5
(dp6068
g3720
S'WorkCharsetBits'
p6069
sg3722
S'25'
p6070
sg20
S'UTF_8_UNCHECKED'
p6071
stRp6072
ag3
(g4
g5
(dp6073
g3720
S'WorkCharsetBits'
p6074
sg3722
S'26'
p6075
sg20
S'UTF_8_UNCHECKED_BOM'
p6076
stRp6077
ag3
(g4
g5
(dp6078
g3720
S'WorkCharsetBits'
p6079
sg3722
S'27'
p6080
sg20
S'CP949'
p6081
stRp6082
ag3
(g4
g5
(dp6083
g3720
S'WorkCharsetBits'
p6084
sg3722
S'28'
p6085
sg20
S'CP936'
p6086
stRp6087
ag3
(g4
g5
(dp6088
g3720
S'WorkCharsetBits'
p6089
sg3722
S'29'
p6090
sg20
S'CP950'
p6091
stRp6092
ag3
(g4
g5
(dp6093
g3720
S'WorkCharsetBits'
p6094
sg3722
S'30'
p6095
sg20
S'CP850'
p6096
stRp6097
ag3
(g4
g5
(dp6098
g3720
S'WorkCharsetBits'
p6099
sg3722
S'31'
p6100
sg20
S'CP858'
p6101
stRp6102
atRp6103
sg15
S'WorkStatus'
p6104
sg3720
g3
(g8
g9
(lp6105
g3
(g4
g5
(dp6106
g15
S'WorkStatusBits'
p6107
sg3722
S'0x00FFFFFF'
p6108
sg20
S'Working table status flags, WorkStatus Flags defined below'
p6109
stRp6110
ag3
(g4
g5
(dp6111
g15
S'WorkCharsetBits'
p6112
sg3722
S'0x7F000000'
p6113
sg20
S'Bits used to store working charset (high 8 bits). Values below have been shifted right 24 bits'
p6114
stRp6115
atRp6116
sg3795
S'Working table charset and status'
p6117
sg17
S'bitmask'
p6118
sg20
S'Working State Flags and Charset'
p6119
stRp6120
atRp6121
stRp6122
s.