(dp1
S'tables'
p2
ccopy_reg
_reconstructor
p3
(clib.sqUtils
Storage
p4
c__builtin__
dict
p5
(dp6
S'table'
p7
g3
(clib.sqUtils
Lst
p8
c__builtin__
list
p9
(lp10
g3
(g4
g5
(dp11
S'version'
p12
S'1'
sS'classic_lockseq'
p13
S'1'
sS'keying'
p14
S'serverName, name'
p15
sS'peek_lockseq'
p16
S'1'
sS'name'
p17
S'db.config'
p18
sS'type'
p19
S'Config'
p20
sS'desc'
p21
S'Perforce server configurations table'
p22
stRp23
ag3
(g4
g5
(dp24
g12
S'1'
sg13
S'2'
sg14
S'name'
p25
sg16
S'2'
sg17
S'db.counters'
p26
sg19
S'Counters'
p27
sg21
S'Perforce counters table'
p28
stRp29
ag3
(g4
g5
(dp30
g12
S'1'
sg13
S'3'
sg14
S'name'
p31
sg16
S'3'
sg17
S'db.nameval'
p32
sg19
S'Keys'
p33
sg21
S'A table to store key/value pairs'
p34
stRp35
ag3
(g4
g5
(dp36
g12
S'0'
sg13
S'4'
sg14
S'seq'
p37
sg16
S'4'
sg17
S'db.logger'
p38
sg19
S'Logger'
p39
sg21
S"Support for 'p4 logger' command. Logs any changes to \n\t\tchangelists and jobs"
p40
stRp41
ag3
(g4
g5
(dp42
g12
S'1'
sg13
S'5'
sg14
S'id'
p43
sg16
S'5'
sg17
S'db.server'
p44
sg19
S'Server'
p45
sg21
S'Perforce server specifications'
p46
stRp47
ag3
(g4
g5
(dp48
g12
S'0'
sg13
S'6'
sg14
S'id, type, seq'
p49
sg16
S'6'
sg17
S'db.svrview'
p50
sg19
S'SvrView'
p51
sg21
S'View data for servers specifications'
p52
stRp53
ag3
(g4
g5
(dp54
g12
S'0'
sg13
S'7'
sg14
S'id'
p55
sg16
S'7'
sg17
S'db.remote'
p56
sg19
S'Remote'
p57
sg21
S'Perforce remote specifications'
p58
stRp59
ag3
(g4
g5
(dp60
g12
S'0'
sg13
S'8'
sg14
S'id, seq'
p61
sg16
S'8'
sg17
S'db.rmtview'
p62
sg19
S'RmtView'
p63
sg21
S'View data for remote specifications'
p64
stRp65
ag3
(g4
g5
(dp66
g12
S'0'
sg13
S'9'
sg14
S'client, stream, type, seq'
p67
sg16
S'9'
sg17
S'db.stash'
p68
sg19
S'Stash'
p69
sg21
S'Perforce stash data'
p70
stRp71
ag3
(g4
g5
(dp72
g12
S'7'
sg13
S'10'
p73
sg14
S'user'
p74
sg16
S'10'
p75
sg17
S'db.user.rp'
p76
sg19
S'User'
p77
sg21
S"Used by replica server's to store login information"
p78
stRp79
ag3
(g4
g5
(dp80
g12
S'7'
sg13
S'11'
p81
sg14
S'user'
p82
sg16
S'11'
p83
sg17
S'db.user'
p84
sg19
S'User'
p85
sg21
S'Perforce users'
p86
stRp87
ag3
(g4
g5
(dp88
g12
S'8'
sg13
S'12'
p89
sg14
S'user, group'
p90
sg16
S'12'
p91
sg17
S'db.group'
p92
sg19
S'Group'
p93
sg21
S'Groups of Perforce users'
p94
stRp95
ag3
(g4
g5
(dp96
g12
S'0'
sg13
S'13'
p97
sg14
S'group'
p98
sg16
S'13'
p99
sg17
S'db.groupx'
p100
sg19
S'GroupX'
p101
sg21
S'Contains per-group data to support Perforce group membership controlled by AD/LDAP group membership'
p102
stRp103
ag3
(g4
g5
(dp104
g12
S'1'
sg13
S'14'
p105
sg14
S'name'
p106
sg16
S'14'
p107
sg17
S'db.depot'
p108
sg19
S'Depot'
p109
sg21
S'Perforce depots'
p110
stRp111
ag3
(g4
g5
(dp112
g12
S'1'
sg13
S'15'
p113
sg14
S'stream'
p114
sg16
S'15'
p115
sg17
S'db.stream'
p116
sg19
S'Stream'
p117
sg21
S'Perforce streams'
p118
stRp119
ag3
(g4
g5
(dp120
g12
S'6'
sg13
S'16'
p121
sg14
S'name'
p122
sg16
S'16'
p123
sg17
S'db.domain'
p124
sg19
S'Domain'
p125
sg21
S'Domains: depots, clients, labels, branches, streams, and typemap'
p126
stRp127
ag3
(g4
g5
(dp128
g12
S'1'
sg13
S'17'
p129
sg14
S'name, change, sequence'
p130
sg16
S'17'
p131
sg17
S'db.template'
p132
sg19
S'Template'
p133
sg21
S'Streams templates'
p134
stRp135
ag3
(g4
g5
(dp136
g12
S'1'
sg13
S'18'
p137
sg14
S'name seq'
p138
sg16
S'18'
p139
sg17
S'db.view.rp'
p140
sg19
S'View'
p141
sg21
S'Contains views for clients of build-server replicas'
p142
stRp143
ag3
(g4
g5
(dp144
g12
S'1'
sg13
S'19'
p145
sg14
S'name, seq'
p146
sg16
S'19'
p147
sg17
S'db.view'
p148
sg19
S'View'
p149
sg21
S'Contains views for domains'
p150
stRp151
ag3
(g4
g5
(dp152
g12
S'1'
sg13
S'20'
p153
sg14
S'user, seq'
p154
sg16
S'20'
p155
sg17
S'db.review'
p156
sg19
S'Review'
p157
sg21
S"Contains user's review mappings"
p158
stRp159
ag3
(g4
g5
(dp160
g14
S'toFile, fromFile, startFromRev, endFromRev, \n\t\tstartToRev, endToRev'
p161
sg16
S'24'
p162
sg17
S'db.integed'
p163
sg12
S'0'
sg13
S'21'
p164
sS'seeAlso'
p165
S'db.resolve'
p166
sg19
S'Integed'
p167
sg21
S'Permanent integration records'
p168
stRp169
ag3
(g4
g5
(dp170
g14
S'toFile, fromFile, startFromRev, endFromRev, \n\t\tstartToRev, endToRev'
p171
sg16
S'25'
p172
sg17
S'db.integtx'
p173
sg12
S'0'
sg13
S'22'
p174
sg165
S'db.resolve'
p175
sg19
S'Integed'
p176
sg21
S'Task stream integration records'
p177
stRp178
ag3
(g4
g5
(dp179
g14
S'toFile, fromFile, startFromRev'
p180
sg16
S'26'
p181
sg17
S'db.resolve'
p182
sg12
S'1'
sg13
S'23'
p183
sg165
S'db.integed'
p184
sg19
S'Resolve'
p185
sg21
S'Pending integration records'
p186
stRp187
ag3
(g4
g5
(dp188
g14
S'toFile, fromFile, startFromRev'
p189
sg16
S'27'
p190
sg17
S'db.resolvex'
p191
sg12
S'1'
sg13
S'24'
p192
sg165
S'db.integed'
p193
sg19
S'Resolve'
p194
sg21
S'Pending integration records for shelved files'
p195
stRp196
ag3
(g4
g5
(dp197
g12
S'3'
sg13
S'25'
p198
sg14
S'clientFile depotFile haveRev'
p199
sg16
S'22'
p200
sg17
S'db.have.rp'
p201
sg19
S'Have'
p202
sg21
S"Contains the 'have-list' for clients of build-server replicas"
p203
stRp204
ag3
(g4
g5
(dp205
g12
S'3'
sg13
S'26'
p206
sg14
S'clientFile'
p207
sg16
S'23'
p208
sg17
S'db.have'
p209
sg19
S'Have'
p210
sg21
S"Contains the 'have-list' for all clients"
p211
stRp212
ag3
(g4
g5
(dp213
g12
S'0'
sg13
S'27'
p214
sg14
S'name, depotFile'
p215
sg16
S'21'
p216
sg17
S'db.label'
p217
sg19
S'Label'
p218
sg21
S'Lists the revisions of files in labels'
p219
stRp220
ag3
(g4
g5
(dp221
g12
S'2'
sg13
S'28'
p222
sg14
S'depotFile, client'
p223
sg16
S'39'
p224
sg17
S'db.locks'
p225
sg19
S'Locks'
p226
sg21
S'Locked/Unlocked files'
p227
stRp228
ag3
(g4
g5
(dp229
g12
S'1'
sg13
S'29'
p230
sg14
S'depotFile'
p231
sg16
S'42'
p232
sg17
S'db.excl'
p233
sg19
S'ExclusiveLock'
p234
sg21
S'Exclusively locked files -  enables coordinated file locking in commit/edge server environments'
p235
stRp236
ag3
(g4
g5
(dp237
g14
S'lbrFile, depotFile'
p238
sg16
S'28'
p239
sg17
S'db.archmap'
p240
sS'note'
p241
S'Supercedes db.archive'
p242
sg12
S'0'
sg13
S'30'
p243
sg19
S'ArchMap'
p244
sg21
S'Mappings entries for lazy-copies'
p245
stRp246
ag3
(g4
g5
(dp247
g12
S'9'
sg13
S'31'
p248
sg14
S'depotFile, depotRev'
p249
sg16
S'37'
p250
sg17
S'db.rev'
p251
sg19
S'Rev'
p252
sg21
S'Revision records'
p253
stRp254
ag3
(g4
g5
(dp255
g12
S'9'
sg13
S'32'
p256
sg14
S'depotFile, depotRev'
p257
sg16
S'38'
p258
sg17
S'db.revtx'
p259
sg19
S'Rev'
p260
sg21
S'Task stream revision records'
p261
stRp262
ag3
(g4
g5
(dp263
g12
S'0'
sg13
S'33'
p264
sg14
S'change, depotFile'
p265
sg16
S'36'
p266
sg17
S'db.revcx'
p267
sg19
S'RevCx'
p268
sg21
S'Secondary index of db.rev'
p269
stRp270
ag3
(g4
g5
(dp271
g12
S'9'
sg13
S'34'
p272
sg14
S'depotFile'
p273
sg16
S'29'
p274
sg17
S'db.revdx'
p275
sg19
S'Rev'
p276
sg21
S'Revision records for revisions deleted at the head revision'
p277
stRp278
ag3
(g4
g5
(dp279
g12
S'9'
sg13
S'35'
p280
sg14
S'depotFile'
p281
sg16
S'30'
p282
sg17
S'db.revhx'
p283
sg19
S'Rev'
p284
sg21
S'Revision records for revisions NOT deleted at the head revision'
p285
stRp286
ag3
(g4
g5
(dp287
g14
S'depotFile, depotRev'
p288
sg16
S'31'
p289
sg17
S'db.revpx'
p290
sg241
S'Only populated during content trigger execution to allow \n\t\ttriggers access to the revisions being submitted.'
p291
sg12
S'9'
sg13
S'36'
p292
sg19
S'Rev'
p293
sg21
S'Pending revision records'
p294
stRp295
ag3
(g4
g5
(dp296
g12
S'9'
sg13
S'37'
p297
sg14
S'depotFile, depotRev'
p298
sg16
S'32'
p299
sg17
S'db.revsx'
p300
sg19
S'Rev'
p301
sg21
S'Revision records for spec depot files'
p302
stRp303
ag3
(g4
g5
(dp304
g12
S'9'
sg13
S'38'
p305
sg14
S'depotFile, depotRev, type, action, change'
p306
sg16
S'33'
p307
sg17
S'db.revsh'
p308
sg19
S'Rev'
p309
sg21
S'Revision records for shelved files'
p310
stRp311
ag3
(g4
g5
(dp312
g12
S'9'
sg13
S'39'
p313
sg14
S'depotFile, depotRev'
p314
sg16
S'34'
p315
sg17
S'db.revbx'
p316
sg19
S'Rev'
p317
sg21
S'Revision records for archived files'
p318
stRp319
ag3
(g4
g5
(dp320
g12
S'9'
sg13
S'40'
p321
sg14
S'depotFile'
p322
sg16
S'35'
p323
sg17
S'db.revux'
p324
sg19
S'Rev'
p325
sg21
S'Revision records for unload depot files'
p326
stRp327
ag3
(g4
g5
(dp328
g12
S'10'
p329
sg13
S'41'
p330
sg14
S'clientFile'
p331
sg16
S'40'
p332
sg17
S'db.working'
p333
sg19
S'Working'
p334
sg21
S'Records for work in progress'
p335
stRp336
ag3
(g4
g5
(dp337
g12
S'10'
p338
sg13
S'42'
p339
sg14
S'clientFile'
p340
sg16
S'41'
p341
sg17
S'db.workingx'
p342
sg19
S'Working'
p343
sg21
S'Records for shelved open files'
p344
stRp345
ag3
(g4
g5
(dp346
g12
S'0'
sg13
S'43'
p347
sg14
S'traitLot, name'
p348
sg16
S'43'
p349
sg17
S'db.traits'
p350
sg19
S'Trait'
p351
sg21
S'Attributes associated with file revisions'
p352
stRp353
ag3
(g4
g5
(dp354
g12
S'3'
sg13
S'44'
p355
sg14
S'seq'
p356
sg16
S'44'
p357
sg17
S'db.trigger'
p358
sg19
S'Trigger'
p359
sg21
S'Trigger specifications'
p360
stRp361
ag3
(g4
g5
(dp362
g12
S'2'
sg13
S'45'
p363
sg14
S'change'
p364
sg16
S'45'
p365
sg17
S'db.change'
p366
sg19
S'Change'
p367
sg21
S'Changelists'
p368
stRp369
ag3
(g4
g5
(dp370
g14
S'change'
p371
sg16
S'46'
p372
sg17
S'db.changex'
p373
sg241
S'contains records for pending changelists only.'
p374
sg12
S'2'
sg13
S'46'
p375
sg19
S'Change'
p376
sg21
S'Subset of db.change - records for pending changelists only'
p377
stRp378
ag3
(g4
g5
(dp379
g12
S'0'
sg13
S'47'
p380
sg14
S'descKey'
p381
sg16
S'47'
p382
sg17
S'db.desc'
p383
sg19
S'Desc'
p384
sg21
S'Change descriptions'
p385
stRp386
ag3
(g4
g5
(dp387
g14
S'job'
p388
sg16
S'48'
p389
sg17
S'db.job'
p390
sg12
S'0'
sg13
S'48'
p391
sg165
S'db.bodtext'
p392
sg19
S'Job'
p393
sg21
S'Job records'
p394
stRp395
ag3
(g4
g5
(dp396
g14
S'job, change'
p397
sg16
S'49'
p398
sg17
S'db.fix'
p399
sg12
S'1'
sg13
S'49'
p400
sg165
S'db.fixrev'
p401
sg19
S'Fix'
p402
sg21
S'Fix records - indexed by job'
p403
stRp404
ag3
(g4
g5
(dp405
g14
S'change, job'
p406
sg16
S'50'
p407
sg17
S'db.fixrev'
p408
sg12
S'1'
sg13
S'50'
p409
sg165
S'db.fix'
p410
sg19
S'Fix'
p411
sg21
S'Fix records - indexed by change'
p412
stRp413
ag3
(g4
g5
(dp414
g12
S'1'
sg13
S'51'
p415
sg14
S'key, attr'
p416
sg16
S'51'
p417
sg17
S'db.bodtext'
p418
sg19
S'BodyText'
p419
sg21
S'Job data for job attributes'
p420
stRp421
ag3
(g4
g5
(dp422
g12
S'0'
sg13
S'52'
p423
sg14
S'word, attr, value'
p424
sg16
S'52'
p425
sg17
S'db.ixtext'
p426
sg19
S'IndexText'
p427
sg21
S'Indexing data for generic and job attributes'
p428
stRp429
ag3
(g4
g5
(dp430
g12
S'0'
sg13
S'53'
p431
sg14
S'word, attr, value'
p432
sg16
S'53'
p433
sg17
S'db.uxtext'
p434
sg19
S'IndexText'
p435
sg21
S'Indexing data for Swarm'
p436
stRp437
ag3
(g4
g5
(dp438
g12
S'4'
sg13
S'54'
p439
sg14
S'seq'
p440
sg16
S'54'
p441
sg17
S'db.protect'
p442
sg19
S'Protect'
p443
sg21
S'The protections table'
p444
stRp445
ag3
(g4
g5
(dp446
g12
S'0'
sg13
S'55'
p447
sg14
S'name, seq, type, scope'
p448
sg16
S'55'
p449
sg17
S'db.property'
p450
sg19
S'Property'
p451
sg21
S'Properties'
p452
stRp453
ag3
(g4
g5
(dp454
g12
S'0'
sg13
S'56'
p455
sg14
S'language, id'
p456
sg16
S'56'
p457
sg17
S'db.message'
p458
sg19
S'Message'
p459
sg21
S'System messages'
p460
stRp461
ag3
(g4
g5
(dp462
g12
S'1'
sg13
S'57'
p463
sg14
S'taskid, seq'
p464
sg16
S'57'
p465
sg17
S'db.sendq'
p466
sg19
S'SendQ'
p467
sg21
S'Parallel file transmission work queue'
p468
stRp469
ag3
(g4
g5
(dp470
g12
S'0'
sg13
S'58'
p471
sg14
S'id'
p472
sg16
S'58'
p473
sg17
S'db.jnlack'
p474
sg19
S'JnlAck'
p475
sg21
S'Tracks journal positions of all standby servers'
p476
stRp477
ag3
(g4
g5
(dp478
g12
S'2'
sg13
S'59'
p479
sg14
S'id'
p480
sg16
S'59'
p481
sg17
S'db.monitor'
p482
sg19
S'Monitor'
p483
sg21
S'Perforce process information'
p484
stRp485
ag3
(g4
g5
(dp486
g19
S'ReplicaArchiveTransfer'
p487
sg17
S'rdb.lbr'
p488
sg21
S'Replica server pending archive transfer table'
p489
stRp490
ag3
(g4
g5
(dp491
g19
S'TinyDb'
p492
sg14
S'fileAndRev'
p493
sg17
S'tiny.db'
p494
sg21
S'Records revision and content data for files using the +T file type modifier'
p495
stRp496
atRp497
stRp498
sg12
S'2015.1'
p499
sS'numUpgrades'
p500
S'23'
p501
sS'recordtypes'
p502
g3
(g4
g5
(dp503
S'record'
p504
g3
(g8
g9
(lp505
g3
(g4
g5
(dp506
S'column'
p507
g3
(g8
g9
(lp508
g3
(g4
g5
(dp509
g19
S'File'
p510
sg17
S'lbrFile'
p511
sg21
S"Specifies the location in the librarian's archives where\n\t\t    the revision may be found"
p512
stRp513
ag3
(g4
g5
(dp514
g19
S'String'
p515
sg17
S'lbrRev'
p516
sg21
S"Revision in the librarian's archives"
p517
stRp518
ag3
(g4
g5
(dp519
g19
S'File'
p520
sg17
S'depotFile'
p521
sg21
S'Name of the file in the depot'
p522
stRp523
ag3
(g4
g5
(dp524
g19
S'Rev'
p525
sg17
S'depotRev'
p526
sg21
S'Name of the file in the depot'
p527
stRp528
ag3
(g4
g5
(dp529
g19
S'FileType'
p530
sg17
S'lbrType'
p531
sg21
S"File type for librarian's purposes"
p532
stRp533
atRp534
sg17
S'Archive'
p535
stRp536
ag3
(g4
g5
(dp537
g507
g3
(g8
g9
(lp538
g3
(g4
g5
(dp539
g19
S'File'
p540
sg17
S'lbrFile'
p541
sg21
S'Paths in the librarian namespace that recieve lazy\n\t\t    copies.'
p542
stRp543
ag3
(g4
g5
(dp544
g19
S'File'
p545
sg17
S'depotFile'
p546
sg21
S'Paths in the depot namespace that provide lazy copies.'
p547
stRp548
atRp549
sg17
S'ArchMap'
p550
stRp551
ag3
(g4
g5
(dp552
g507
g3
(g8
g9
(lp553
g3
(g4
g5
(dp554
g19
S'String'
p555
sg17
S'key'
p556
sg21
S'The job to which this attribute belongs'
p557
stRp558
ag3
(g4
g5
(dp559
g19
S'Int'
p560
sg17
S'attr'
p561
sg21
S'The attribute number (from the jobspec) of this attribute'
p562
stRp563
ag3
(g4
g5
(dp564
g19
S'Date'
p565
sg17
S'date'
p566
sg21
S'The date value itself'
p567
stRp568
atRp569
sg17
S'BodyDate'
p570
stRp571
ag3
(g4
g5
(dp572
g507
g3
(g8
g9
(lp573
g3
(g4
g5
(dp574
g19
S'String'
p575
sg17
S'key'
p576
sg21
S'The job to which this attribute belongs'
p577
stRp578
ag3
(g4
g5
(dp579
g19
S'Int'
p580
sg17
S'attr'
p581
sg21
S'The attribute number (from the jobspec) of this attribute'
p582
stRp583
ag3
(g4
g5
(dp584
g19
S'Int'
p585
sg17
S'isBulk'
p586
sg21
S'Indicates whether (1), or not (0) the field is a bulk\n\t\t    text field that should not be indexed.'
p587
stRp588
ag3
(g4
g5
(dp589
g19
S'Text'
p590
sg17
S'text'
p591
sg21
S'The attribute value'
p592
stRp593
atRp594
sg17
S'BodyText'
p595
stRp596
ag3
(g4
g5
(dp597
g507
g3
(g8
g9
(lp598
g3
(g4
g5
(dp599
g19
S'Change'
p600
sg17
S'change'
p601
sg21
S'The change number'
p602
stRp603
ag3
(g4
g5
(dp604
g19
S'Change'
p605
sg17
S'descKey'
p606
sg21
S"The description key. Normally the same as 'change', but\n\t\t    may differ if a changelist was renumbered on submission."
p607
stRp608
ag3
(g4
g5
(dp609
g19
S'Domain'
p610
sg17
S'client'
p611
sg21
S'The client from which the change originates'
p612
stRp613
ag3
(g4
g5
(dp614
g19
S'User'
p615
sg17
S'user'
p616
sg21
S'The user who owns the change'
p617
stRp618
ag3
(g4
g5
(dp619
g19
S'Date'
p620
sg17
S'date'
p621
sg21
S'Date and time the changelist was submitted'
p622
stRp623
ag3
(g4
g5
(dp624
g19
S'ChangeStatus'
p625
sg17
S'status'
p626
sg21
S'Status of the change'
p627
stRp628
ag3
(g4
g5
(dp629
g19
S'DescShort'
p630
sg17
S'description'
p631
sg21
S'Short description of the change.'
p632
stRp633
ag3
(g4
g5
(dp634
g19
S'Mapping'
p635
sg17
S'root'
p636
sg21
S'Common path for all files in the changelist'
p637
stRp638
atRp639
sg17
S'Change'
p640
stRp641
ag3
(g4
g5
(dp642
g507
g3
(g8
g9
(lp643
g3
(g4
g5
(dp644
g19
S'String'
p645
sg17
S'sname'
p646
sg21
S'Server name'
p647
stRp648
ag3
(g4
g5
(dp649
g19
S'String'
p650
sg17
S'name'
p651
sg21
S'Configuration variable name'
p652
stRp653
ag3
(g4
g5
(dp654
g19
S'Value'
p655
sg17
S'value'
p656
sg21
S'Configuration variable value'
p657
stRp658
atRp659
sg17
S'Config'
p660
stRp661
ag3
(g4
g5
(dp662
g507
g3
(g8
g9
(lp663
g3
(g4
g5
(dp664
g19
S'Counter'
p665
sg17
S'name'
p666
sg21
S'Counter name'
p667
stRp668
ag3
(g4
g5
(dp669
g19
S'Value'
p670
sg17
S'value'
p671
sg21
S'Counter value'
p672
stRp673
atRp674
sg17
S'Counters'
p675
stRp676
ag3
(g4
g5
(dp677
g507
g3
(g8
g9
(lp678
g3
(g4
g5
(dp679
g19
S'Domain'
p680
sg17
S'name'
p681
sg21
S'Depot name'
p682
stRp683
ag3
(g4
g5
(dp684
g19
S'DepotType'
p685
sg17
S'type'
p686
sg21
S'Type of depot'
p687
stRp688
ag3
(g4
g5
(dp689
g19
S'Text'
p690
sg17
S'extra'
p691
sg21
S'For remote depots, the P4PORT address of the remote server.\n\t\t    For spec depots, the field contains a suffix to append to \n\t\t    the filename.'
p692
stRp693
ag3
(g4
g5
(dp694
g19
S'Text'
p695
sg17
S'map'
p696
sg21
S"The depot's map (path translation information).  For local \n\t\t    depots, this will be a path relative to the root directory.\n\t\t    For remote depots, this will be specified in terms of the \n\t\t    remote server's namespace."
p697
stRp698
atRp699
sg17
S'Depot'
p700
stRp701
ag3
(g4
g5
(dp702
g507
g3
(g8
g9
(lp703
g3
(g4
g5
(dp704
g19
S'Change'
p705
sg17
S'descKey'
p706
sg21
S'Original number of the change to which this description\n\t\t    applies. This may differ from the final change number if\n\t\t    the change is renumbered on submission.'
p707
stRp708
ag3
(g4
g5
(dp709
g19
S'Text'
p710
sg17
S'description'
p711
sg21
S'The change description itself'
p712
stRp713
atRp714
sg17
S'Desc'
p715
stRp716
ag3
(g4
g5
(dp717
g507
g3
(g8
g9
(lp718
g3
(g4
g5
(dp719
g19
S'Domain'
p720
sg17
S'name'
p721
sg21
S'Domain name'
p722
stRp723
ag3
(g4
g5
(dp724
g19
S'DomainType'
p725
sg17
S'type'
p726
sg21
S'Type of domain'
p727
stRp728
ag3
(g4
g5
(dp729
g19
S'Text'
p730
sg17
S'extra'
p731
sg21
S'Formerly "host". Associated host or, for labels, revision \n\t\t    number.'
p732
stRp733
ag3
(g4
g5
(dp734
g19
S'Text'
p735
sg17
S'mount'
p736
sg21
S'The client root'
p737
stRp738
ag3
(g4
g5
(dp739
g19
S'Text'
p740
sg17
S'mount2'
p741
sg21
S'Alternate client root'
p742
stRp743
ag3
(g4
g5
(dp744
g19
S'Text'
p745
sg17
S'mount3'
p746
sg21
S'Alternate client root'
p747
stRp748
ag3
(g4
g5
(dp749
g19
S'User'
p750
sg17
S'owner'
p751
sg21
S'Name of user who owns the domain.'
p752
stRp753
ag3
(g4
g5
(dp754
g19
S'Date'
p755
sg17
S'updateDate'
p756
sg21
S'Date of last update to domain specification.'
p757
stRp758
ag3
(g4
g5
(dp759
g19
S'Date'
p760
sg17
S'accessDate'
p761
sg21
S'Date of last access to domain specification.'
p762
stRp763
ag3
(g4
g5
(dp764
g19
S'DomainOpts'
p765
sg17
S'options'
p766
sg21
S'Options for client, label, and branch domains.'
p767
stRp768
ag3
(g4
g5
(dp769
g19
S'Text'
p770
sg17
S'description'
p771
sg21
S'Description of domain.'
p772
stRp773
ag3
(g4
g5
(dp774
g19
S'Text'
p775
sg17
S'stream'
p776
sg21
S'Associated stream for client records'
p777
stRp778
ag3
(g4
g5
(dp779
g19
S'Text'
p780
sg17
S'serverid'
p781
sg21
S'Associated server ID for client records'
p782
stRp783
ag3
(g4
g5
(dp784
g19
S'Int'
p785
sg17
S'partition'
p786
sg21
S'Currently unused. Reserved for future use'
p787
stRp788
atRp789
sg17
S'Domain'
p790
stRp791
ag3
(g4
g5
(dp792
g507
g3
(g8
g9
(lp793
g3
(g4
g5
(dp794
g19
S'File'
p795
sg17
S'depotFile'
p796
sg21
S'The file locked'
p797
stRp798
ag3
(g4
g5
(dp799
g19
S'Domain'
p800
sg17
S'client'
p801
sg21
S'The client for which the file is locked'
p802
stRp803
ag3
(g4
g5
(dp804
g19
S'User'
p805
sg17
S'user'
p806
sg21
S'The user for which the file is locked'
p807
stRp808
atRp809
sg17
S'ExclusiveLock'
p810
stRp811
ag3
(g4
g5
(dp812
g507
g3
(g8
g9
(lp813
g3
(g4
g5
(dp814
g19
S'String'
p815
sg17
S'job'
p816
sg21
S'Job name'
p817
stRp818
ag3
(g4
g5
(dp819
g19
S'Change'
p820
sg17
S'change'
p821
sg21
S'Changelist number'
p822
stRp823
ag3
(g4
g5
(dp824
g19
S'Date'
p825
sg17
S'date'
p826
sg21
S'Date fix was recorded (may differ from date change was\n\t\t    submitted).'
p827
stRp828
ag3
(g4
g5
(dp829
g19
S'FixStatus'
p830
sg17
S'status'
p831
sg21
S'Status of the job'
p832
stRp833
ag3
(g4
g5
(dp834
g19
S'Domain'
p835
sg17
S'client'
p836
sg21
S'The client where the fix originated'
p837
stRp838
ag3
(g4
g5
(dp839
g19
S'User'
p840
sg17
S'user'
p841
sg21
S'The user who fixed the job'
p842
stRp843
atRp844
sg17
S'Fix'
p845
stRp846
ag3
(g4
g5
(dp847
g507
g3
(g8
g9
(lp848
g3
(g4
g5
(dp849
g19
S'User'
p850
sg17
S'user'
p851
sg21
S'User name'
p852
stRp853
ag3
(g4
g5
(dp854
g19
S'User'
p855
sg17
S'group'
p856
sg21
S'Group name'
p857
stRp858
ag3
(g4
g5
(dp859
g19
S'UserType'
p860
sg17
S'type'
p861
sg21
S'Type of user in this group.'
p862
stRp863
ag3
(g4
g5
(dp864
g19
S'MaxResults'
p865
sg17
S'maxResults'
p866
sg21
S'MaxResults setting for the group.'
p867
stRp868
ag3
(g4
g5
(dp869
g19
S'MaxScanRows'
p870
sg17
S'maxScanRows'
p871
sg21
S'MaxScanRows setting for the group.'
p872
stRp873
ag3
(g4
g5
(dp874
g19
S'MaxLockTime'
p875
sg17
S'maxLockTime'
p876
sg21
S'MaxLockTime setting for the group.'
p877
stRp878
ag3
(g4
g5
(dp879
g19
S'Int'
p880
sg17
S'timeout'
p881
sg21
S'Length of time (in seconds) a login ticket remains valid.'
p882
stRp883
ag3
(g4
g5
(dp884
g19
S'Int'
p885
sg17
S'passwordTimeout'
p886
sg21
S'Length of time (in seconds) a password remains valid for users in the group.'
p887
stRp888
atRp889
sg17
S'Group'
p890
stRp891
ag3
(g4
g5
(dp892
g507
g3
(g8
g9
(lp893
g3
(g4
g5
(dp894
g19
S'User'
p895
sg17
S'group'
p896
sg21
S'Group name'
p897
stRp898
ag3
(g4
g5
(dp899
g19
S'String'
p900
sg17
S'ldapConf'
p901
sg21
S"The LDAP configuration to use when populating the group's user list from an LDAP query"
p902
stRp903
ag3
(g4
g5
(dp904
g19
S'String'
p905
sg17
S'ldapSearchQuery'
p906
sg21
S'The LDAP query used to identify the members of the group'
p907
stRp908
ag3
(g4
g5
(dp909
g19
S'String'
p910
sg17
S'ldapUserAttribute'
p911
sg21
S"The LDAP attribute that represents the user's username"
p912
stRp913
atRp914
sg17
S'GroupX'
p915
stRp916
ag3
(g4
g5
(dp917
g507
g3
(g8
g9
(lp918
g3
(g4
g5
(dp919
g19
S'File'
p920
sg17
S'clientFile'
p921
sg21
S'The file in its location on the client'
p922
stRp923
ag3
(g4
g5
(dp924
g19
S'File'
p925
sg17
S'depotFile'
p926
sg21
S'The file in the depot'
p927
stRp928
ag3
(g4
g5
(dp929
g19
S'Rev'
p930
sg17
S'haveRev'
p931
sg21
S'The revision synced to the client'
p932
stRp933
ag3
(g4
g5
(dp934
g19
S'FileType'
p935
sg17
S'type'
p936
sg21
S'The filetype of the synced revision'
p937
stRp938
ag3
(g4
g5
(dp939
g19
S'Date'
p940
sg17
S'time'
p941
sg21
S'The sync time of the synced revision'
p942
stRp943
atRp944
sg17
S'Have'
p945
stRp946
ag3
(g4
g5
(dp947
g507
g3
(g8
g9
(lp948
g3
(g4
g5
(dp949
g19
S'Date'
p950
sg17
S'date'
p951
sg21
S'Date value'
p952
stRp953
ag3
(g4
g5
(dp954
g19
S'Int'
p955
sg17
S'attr'
p956
sg21
S'The attribute number (from the jobspec) to which this\n\t\t    date belongs'
p957
stRp958
ag3
(g4
g5
(dp959
g19
S'String'
p960
sg17
S'value'
p961
sg21
S'A job name'
p962
stRp963
atRp964
sg17
S'IndexDate'
p965
stRp966
ag3
(g4
g5
(dp967
g507
g3
(g8
g9
(lp968
g3
(g4
g5
(dp969
g19
S'String'
p970
sg17
S'word'
p971
sg21
S'The word being indexed'
p972
stRp973
ag3
(g4
g5
(dp974
g19
S'Int'
p975
sg17
S'attr'
p976
sg21
S'The attribute number to which this word belongs. For\n\t\t    job data, the attribute number from the jobspec.'
p977
stRp978
ag3
(g4
g5
(dp979
g19
S'String'
p980
sg17
S'value'
p981
sg21
S'For job data, a job name. For generic data, the value\n\t\t    of the index keyed by the word.'
p982
stRp983
atRp984
sg17
S'IndexText'
p985
stRp986
ag3
(g4
g5
(dp987
g507
g3
(g8
g9
(lp988
g3
(g4
g5
(dp989
g19
S'File'
p990
sg17
S'toFile'
p991
sg21
S'File to which integration is being performed (target).'
p992
stRp993
ag3
(g4
g5
(dp994
g19
S'File'
p995
sg17
S'fromFile'
p996
sg21
S'File from which integration is being performed (source).'
p997
stRp998
ag3
(g4
g5
(dp999
g19
S'Rev'
p1000
sg17
S'startFromRev'
p1001
sg21
S'Starting revision of fromFile'
p1002
stRp1003
ag3
(g4
g5
(dp1004
g19
S'Rev'
p1005
sg17
S'endFromRev'
p1006
sg21
S'Ending revision of fromFile'
p1007
stRp1008
ag3
(g4
g5
(dp1009
g19
S'Rev'
p1010
sg17
S'toRev'
p1011
sg21
S'Revision of toFile into which integration is being \n\t\t    performed.'
p1012
stRp1013
ag3
(g4
g5
(dp1014
g19
S'IntegHow'
p1015
sg17
S'how'
p1016
sg21
S'Integration method: variations on \n\t\t    merge/branch/copy/ignore/delete.'
p1017
stRp1018
ag3
(g4
g5
(dp1019
g19
S'Int'
p1020
sg17
S'committed'
p1021
sg21
S'Flag: 0 for pending, 1 for committed.'
p1022
stRp1023
ag3
(g4
g5
(dp1024
g19
S'ResolvedStatus'
p1025
sg17
S'resolved'
p1026
sg21
S'Resolution method: unresolved, resolved manually, \n\t\t    or resolved as part of a branch or delete.'
p1027
stRp1028
ag3
(g4
g5
(dp1029
g19
S'Change'
p1030
sg17
S'change'
p1031
sg21
S'Changelist associated with the integration.'
p1032
stRp1033
atRp1034
sg17
S'Integ'
p1035
stRp1036
ag3
(g4
g5
(dp1037
g507
g3
(g8
g9
(lp1038
g3
(g4
g5
(dp1039
g19
S'File'
p1040
sg17
S'toFile'
p1041
sg21
S'File to which integration is being performed (target).'
p1042
stRp1043
ag3
(g4
g5
(dp1044
g19
S'File'
p1045
sg17
S'fromFile'
p1046
sg21
S'File from which integration is being performed (source).'
p1047
stRp1048
ag3
(g4
g5
(dp1049
g19
S'Rev'
p1050
sg17
S'startFromRev'
p1051
sg21
S'Starting revision of fromFile'
p1052
stRp1053
ag3
(g4
g5
(dp1054
g19
S'Rev'
p1055
sg17
S'endFromRev'
p1056
sg21
S'Ending revision of fromFile'
p1057
stRp1058
ag3
(g4
g5
(dp1059
g19
S'Rev'
p1060
sg17
S'startToRev'
p1061
sg21
S'Start revision of toFile into which integration was \n\t\t    performed.'
p1062
stRp1063
ag3
(g4
g5
(dp1064
g19
S'Rev'
p1065
sg17
S'endToRev'
p1066
sg21
S'End revision of toFile into which integration was \n\t\t    performed. Only varies from startToRev for reverse \n\t\t    integration records.'
p1067
stRp1068
ag3
(g4
g5
(dp1069
g19
S'IntegHow'
p1070
sg17
S'how'
p1071
sg21
S'Integration method: variations on \n\t\t    merge/branch/copy/ignore/delete.'
p1072
stRp1073
ag3
(g4
g5
(dp1074
g19
S'Change'
p1075
sg17
S'change'
p1076
sg21
S'Changelist associated with the integration.'
p1077
stRp1078
atRp1079
sg17
S'Integed'
p1080
stRp1081
ag3
(g4
g5
(dp1082
g507
g3
(g8
g9
(lp1083
g3
(g4
g5
(dp1084
g19
S'Domain'
p1085
sg17
S'serverId'
p1086
sg21
S'The serverId of the standby for whom this record applies'
p1087
stRp1088
ag3
(g4
g5
(dp1089
g19
S'Date'
p1090
sg17
S'lastUpdate'
p1091
sg21
S'The date and time of last update'
p1092
stRp1093
ag3
(g4
g5
(dp1094
g19
S'ServerServiceType'
p1095
sg17
S'serverType'
p1096
sg21
S'The server services offered by this standby'
p1097
stRp1098
ag3
(g4
g5
(dp1099
g19
S'Int'
p1100
sg17
S'persistedJnl'
p1101
sg21
S'The last journal number persisted by this standby'
p1102
stRp1103
ag3
(g4
g5
(dp1104
g19
S'Int64'
p1105
sg17
S'persistedPos'
p1106
sg21
S'The last journal position persisted by this standby'
p1107
stRp1108
ag3
(g4
g5
(dp1109
g19
S'Int'
p1110
sg17
S'isAlive'
p1111
sg21
S'1 = alive'
p1112
stRp1113
ag3
(g4
g5
(dp1114
g19
S'Int'
p1115
sg17
S'appliedJnl'
p1116
sg21
S'The last journal number applied to this standby'
p1117
stRp1118
ag3
(g4
g5
(dp1119
g19
S'Int64'
p1120
sg17
S'appliedPos'
p1121
sg21
S'The last journal position applied to this standby'
p1122
stRp1123
atRp1124
sg17
S'JnlAck'
p1125
stRp1126
ag3
(g4
g5
(dp1127
g507
g3
(g8
g9
(lp1128
g3
(g4
g5
(dp1129
g19
S'String'
p1130
sg17
S'job'
p1131
sg21
S'The job name'
p1132
stRp1133
ag3
(g4
g5
(dp1134
g19
S'User'
p1135
sg17
S'xuser'
p1136
sg21
S'User name: defunct'
p1137
stRp1138
ag3
(g4
g5
(dp1139
g19
S'Date'
p1140
sg17
S'xdate'
p1141
sg21
S'The date: defunct'
p1142
stRp1143
ag3
(g4
g5
(dp1144
g19
S'JobStat'
p1145
sg17
S'xstatus'
p1146
sg21
S'Job status: defunct'
p1147
stRp1148
ag3
(g4
g5
(dp1149
g19
S'DescShort'
p1150
sg17
S'description'
p1151
sg21
S'Short description'
p1152
stRp1153
atRp1154
sg17
S'Job'
p1155
stRp1156
ag3
(g4
g5
(dp1157
g507
g3
(g8
g9
(lp1158
g3
(g4
g5
(dp1159
g19
S'String'
p1160
sg17
S'xjob'
p1161
sg21
S'The job name'
p1162
stRp1163
ag3
(g4
g5
(dp1164
g19
S'Text'
p1165
sg17
S'xdescription'
p1166
sg21
S'Jobdescription'
p1167
stRp1168
atRp1169
sg17
S'JobDesc'
p1170
stRp1171
ag3
(g4
g5
(dp1172
g507
g3
(g8
g9
(lp1173
g3
(g4
g5
(dp1174
g19
S'Key'
p1175
sg17
S'name'
p1176
sg21
S'Key name'
p1177
stRp1178
ag3
(g4
g5
(dp1179
g19
S'Value'
p1180
sg17
S'value'
p1181
sg21
S'Key value'
p1182
stRp1183
atRp1184
sg17
S'Keys'
p1185
stRp1186
ag3
(g4
g5
(dp1187
g507
g3
(g8
g9
(lp1188
g3
(g4
g5
(dp1189
g19
S'Domain'
p1190
sg17
S'name'
p1191
sg21
S'Name of the label'
p1192
stRp1193
ag3
(g4
g5
(dp1194
g19
S'File'
p1195
sg17
S'depotFile'
p1196
sg21
S'File name'
p1197
stRp1198
ag3
(g4
g5
(dp1199
g19
S'Rev'
p1200
sg17
S'haveRev'
p1201
sg21
S'The revision of the file in the label'
p1202
stRp1203
atRp1204
sg17
S'Label'
p1205
stRp1206
ag3
(g4
g5
(dp1207
g507
g3
(g8
g9
(lp1208
g3
(g4
g5
(dp1209
g19
S'File'
p1210
sg17
S'depotFile'
p1211
sg21
S'File in depot'
p1212
stRp1213
ag3
(g4
g5
(dp1214
g19
S'Domain'
p1215
sg17
S'client'
p1216
sg21
S'Domain (client) in which file is open'
p1217
stRp1218
ag3
(g4
g5
(dp1219
g19
S'User'
p1220
sg17
S'user'
p1221
sg21
S'User who presently has the file open'
p1222
stRp1223
ag3
(g4
g5
(dp1224
g19
S'Action'
p1225
sg17
S'action'
p1226
sg21
S'Action file is open for: add, edit, delete, branch,\n\t\t    integrate, or import'
p1227
stRp1228
ag3
(g4
g5
(dp1229
g19
S'Int'
p1230
sg17
S'isLocked'
p1231
sg21
S'Flag: 0 for unlocked, 1 for locked'
p1232
stRp1233
ag3
(g4
g5
(dp1234
g19
S'Int'
p1235
sg17
S'change'
p1236
sg21
S'Changelist in which the revision is open: 0 for the\n\t\t    default changelist'
p1237
stRp1238
atRp1239
sg17
S'Locks'
p1240
stRp1241
ag3
(g4
g5
(dp1242
g507
g3
(g8
g9
(lp1243
g3
(g4
g5
(dp1244
g19
S'Int'
p1245
sg17
S'seq'
p1246
sg21
S'Sequence number of event'
p1247
stRp1248
ag3
(g4
g5
(dp1249
g19
S'String'
p1250
sg17
S'key'
p1251
sg21
S"Either the word 'change' or the word 'job'"
p1252
stRp1253
ag3
(g4
g5
(dp1254
g19
S'String'
p1255
sg17
S'attr'
p1256
sg21
S'The number of the change, or name of the job that was \n\t\t    altered.'
p1257
stRp1258
atRp1259
sg17
S'Logger'
p1260
stRp1261
ag3
(g4
g5
(dp1262
g507
g3
(g8
g9
(lp1263
g3
(g4
g5
(dp1264
g19
S'String'
p1265
sg17
S'language'
p1266
sg21
S'The language for which this message applies'
p1267
stRp1268
ag3
(g4
g5
(dp1269
g19
S'Int'
p1270
sg17
S'id'
p1271
sg21
S'The message number'
p1272
stRp1273
ag3
(g4
g5
(dp1274
g19
S'String'
p1275
sg17
S'message'
p1276
sg21
S'The message text'
p1277
stRp1278
atRp1279
sg17
S'Message'
p1280
stRp1281
ag3
(g4
g5
(dp1282
g507
g3
(g8
g9
(lp1283
g3
(g4
g5
(dp1284
g19
S'Int'
p1285
sg17
S'id'
p1286
sg21
S'Thread/process id'
p1287
stRp1288
ag3
(g4
g5
(dp1289
g19
S'User'
p1290
sg17
S'user'
p1291
sg21
S'Username of the user running the command'
p1292
stRp1293
ag3
(g4
g5
(dp1294
g19
S'String'
p1295
sg17
S'function'
p1296
sg21
S'The command being executed.'
p1297
stRp1298
ag3
(g4
g5
(dp1299
g19
S'String'
p1300
sg17
S'args'
p1301
sg21
S'Arguments passed to the command'
p1302
stRp1303
ag3
(g4
g5
(dp1304
g19
S'Date'
p1305
sg17
S'startDate'
p1306
sg21
S'The date and time the command started'
p1307
stRp1308
ag3
(g4
g5
(dp1309
g19
S'Int'
p1310
sg17
S'runstate'
p1311
sg21
S'Flag: 0 for running, 1 for terminated, 2 for paused'
p1312
stRp1313
ag3
(g4
g5
(dp1314
g19
S'Domain'
p1315
sg17
S'client'
p1316
sg21
S'The client workspace'
p1317
stRp1318
ag3
(g4
g5
(dp1319
g19
S'Text'
p1320
sg17
S'host'
p1321
sg21
S'The IP address of the client'
p1322
stRp1323
ag3
(g4
g5
(dp1324
g19
S'Text'
p1325
sg17
S'prog'
p1326
sg21
S'The name (and version) of the client program'
p1327
stRp1328
ag3
(g4
g5
(dp1329
g19
S'Text'
p1330
sg17
S'lockInfo'
p1331
sg21
S'Table locking information for command'
p1332
stRp1333
atRp1334
sg17
S'Monitor'
p1335
stRp1336
ag3
(g4
g5
(dp1337
g507
g3
(g8
g9
(lp1338
g3
(g4
g5
(dp1339
g19
S'String'
p1340
sg17
S'name'
p1341
sg21
S'The property name'
p1342
stRp1343
ag3
(g4
g5
(dp1344
g19
S'String'
p1345
sg17
S'sequence'
p1346
sg21
S'Sequence number of property'
p1347
stRp1348
ag3
(g4
g5
(dp1349
g19
S'Int'
p1350
sg17
S'type'
p1351
sg21
S"1=user, 2=group; set if '-u | -g' option used with 'p4 property'"
p1352
stRp1353
ag3
(g4
g5
(dp1354
g19
S'String'
p1355
sg17
S'scope'
p1356
sg21
S'The user or group the property applies to'
p1357
stRp1358
ag3
(g4
g5
(dp1359
g19
S'String'
p1360
sg17
S'value'
p1361
sg21
S'The property value'
p1362
stRp1363
ag3
(g4
g5
(dp1364
g19
S'String'
p1365
sg17
S'date'
p1366
sg21
S'The date/time the property was last updated'
p1367
stRp1368
ag3
(g4
g5
(dp1369
g19
S'String'
p1370
sg17
S'user'
p1371
sg21
S'The user that last modified the property'
p1372
stRp1373
atRp1374
sg17
S'Property'
p1375
stRp1376
ag3
(g4
g5
(dp1377
g507
g3
(g8
g9
(lp1378
g3
(g4
g5
(dp1379
g19
S'Int'
p1380
sg17
S'seq'
p1381
sg21
S'Sequence number: for ordering the protections table'
p1382
stRp1383
ag3
(g4
g5
(dp1384
g19
S'Int'
p1385
sg17
S'isGroup'
p1386
sg21
S'Flag: 0 for a per-user setting, 1 for a per-group setting.'
p1387
stRp1388
ag3
(g4
g5
(dp1389
g19
S'UserWild'
p1390
sg17
S'user'
p1391
sg21
S'User(s), or Group(s) for whom this record applies.'
p1392
stRp1393
ag3
(g4
g5
(dp1394
g19
S'DomainWild'
p1395
sg17
S'host'
p1396
sg21
S'Domain(s) (IP addresses) for which this record applies.'
p1397
stRp1398
ag3
(g4
g5
(dp1399
g19
S'Perm'
p1400
sg17
S'perm'
p1401
sg21
S'Permissions to be granted/revoked'
p1402
stRp1403
ag3
(g4
g5
(dp1404
g19
S'MapFlag'
p1405
sg17
S'mapFlag'
p1406
sg21
S'Flag: Map the files in or out?'
p1407
stRp1408
ag3
(g4
g5
(dp1409
g19
S'Mapping'
p1410
sg17
S'depotFile'
p1411
sg21
S'Files to be mapped in or out.'
p1412
stRp1413
atRp1414
sg17
S'Protect'
p1415
stRp1416
ag3
(g4
g5
(dp1417
g507
g3
(g8
g9
(lp1418
g3
(g4
g5
(dp1419
g19
S'RemoteID'
p1420
sg17
S'id'
p1421
sg21
S'The remote identifier'
p1422
stRp1423
ag3
(g4
g5
(dp1424
g19
S'User'
p1425
sg17
S'owner'
p1426
sg21
S'The user who creatd this remote'
p1427
stRp1428
ag3
(g4
g5
(dp1429
g19
S'Int'
p1430
sg17
S'options'
p1431
sg21
S'Remote options: 0: unlocked/nocompress, 1: locked/nocompress, 2: unlocked/compress, 4: locked/compress'
p1432
stRp1433
ag3
(g4
g5
(dp1434
g19
S'Text'
p1435
sg17
S'address'
p1436
sg21
S'The P4PORT used by the remote server'
p1437
stRp1438
ag3
(g4
g5
(dp1439
g19
S'Text'
p1440
sg17
S'desc'
p1441
sg21
S'Description of the remote server'
p1442
stRp1443
ag3
(g4
g5
(dp1444
g19
S'Date'
p1445
sg17
S'update'
p1446
sg21
S'The date this specification was last modfied'
p1447
stRp1448
ag3
(g4
g5
(dp1449
g19
S'Date'
p1450
sg17
S'access'
p1451
sg21
S'The date of the last push/fetch on this remote'
p1452
stRp1453
ag3
(g4
g5
(dp1454
g19
S'Change'
p1455
sg17
S'fetch'
p1456
sg21
S'The last changelist that was fetched'
p1457
stRp1458
ag3
(g4
g5
(dp1459
g19
S'Change'
p1460
sg17
S'push'
p1461
sg21
S'The last changelist that was pushed'
p1462
stRp1463
atRp1464
sg17
S'Remote'
p1465
stRp1466
ag3
(g4
g5
(dp1467
g507
g3
(g8
g9
(lp1468
g3
(g4
g5
(dp1469
g19
S'File'
p1470
sg17
S'depotFile'
p1471
sg21
S'The file name'
p1472
stRp1473
ag3
(g4
g5
(dp1474
g19
S'String'
p1475
sg17
S'lbrRev'
p1476
sg21
S'The librarian revision'
p1477
stRp1478
ag3
(g4
g5
(dp1479
g19
S'String'
p1480
sg17
S'type'
p1481
sg21
S'The file type of the revision'
p1482
stRp1483
ag3
(g4
g5
(dp1484
g19
S'PullStatus'
p1485
sg17
S'status'
p1486
sg21
S'The status of the archive transfer'
p1487
stRp1488
ag3
(g4
g5
(dp1489
g19
S'Action'
p1490
sg17
S'action'
p1491
sg21
S'The action that created the revision'
p1492
stRp1493
ag3
(g4
g5
(dp1494
g19
S'Digest'
p1495
sg17
S'digest'
p1496
sg21
S'The MD5 digest of the revision'
p1497
stRp1498
ag3
(g4
g5
(dp1499
g19
S'FileSize'
p1500
sg17
S'size'
p1501
sg21
S'The size of the file in bytes'
p1502
stRp1503
ag3
(g4
g5
(dp1504
g19
S'Change'
p1505
sg17
S'change'
p1506
sg21
S'The changelist that created the revision'
p1507
stRp1508
ag3
(g4
g5
(dp1509
g19
S'Date'
p1510
sg17
S'lbrDate'
p1511
sg21
S'Librarian date'
p1512
stRp1513
ag3
(g4
g5
(dp1514
g19
S'Date'
p1515
sg17
S'lbrModTime'
p1516
sg21
S'Librarian modtime'
p1517
stRp1518
ag3
(g4
g5
(dp1519
g19
S'Int'
p1520
sg17
S'pid'
p1521
sg21
S'The process id (PID) of the pull process'
p1522
stRp1523
ag3
(g4
g5
(dp1524
g19
S'Date'
p1525
sg17
S'requestTime'
p1526
sg21
S'Pull request time'
p1527
stRp1528
ag3
(g4
g5
(dp1529
g19
S'Int'
p1530
sg17
S'retries'
p1531
sg21
S'The number of retries that have occurred after transfer error'
p1532
stRp1533
ag3
(g4
g5
(dp1534
g19
S'String'
p1535
sg17
S'transferError'
p1536
sg21
S'The error message for a failed transfer'
p1537
stRp1538
atRp1539
sg17
S'ReplicaArchiveTransfer'
p1540
stRp1541
ag3
(g4
g5
(dp1542
g507
g3
(g8
g9
(lp1543
g3
(g4
g5
(dp1544
g19
S'File'
p1545
sg17
S'toFile'
p1546
sg21
S'File to which integration is being performed (target).'
p1547
stRp1548
ag3
(g4
g5
(dp1549
g19
S'File'
p1550
sg17
S'fromFile'
p1551
sg21
S'File from which integration is being performed (source).'
p1552
stRp1553
ag3
(g4
g5
(dp1554
g19
S'Rev'
p1555
sg17
S'startFromRev'
p1556
sg21
S'Starting revision of fromFile'
p1557
stRp1558
ag3
(g4
g5
(dp1559
g19
S'Rev'
p1560
sg17
S'endFromRev'
p1561
sg21
S'Ending revision of fromFile'
p1562
stRp1563
ag3
(g4
g5
(dp1564
g19
S'Rev'
p1565
sg17
S'startToRev'
p1566
sg21
S'Start revision of toFile into which integration was \n\t\t    performed.'
p1567
stRp1568
ag3
(g4
g5
(dp1569
g19
S'Rev'
p1570
sg17
S'endToRev'
p1571
sg21
S'End revision of toFile into which integration was \n\t\t    performed. Only varies from startToRev for reverse \n\t\t    integration records.'
p1572
stRp1573
ag3
(g4
g5
(dp1574
g19
S'IntegHow'
p1575
sg17
S'how'
p1576
sg21
S'Integration method: variations on \n\t\t    merge/branch/copy/ignore/delete.'
p1577
stRp1578
ag3
(g4
g5
(dp1579
g19
S'ResolveState'
p1580
sg17
S'state'
p1581
sg21
S'How the user performed the resolve.'
p1582
stRp1583
ag3
(g4
g5
(dp1584
g19
S'File'
p1585
sg17
S'baseFile'
p1586
sg21
S'File used as the base for merging.'
p1587
stRp1588
ag3
(g4
g5
(dp1589
g19
S'Rev'
p1590
sg17
S'baseRev'
p1591
sg21
S'Revision of baseFile used as the merge base.'
p1592
stRp1593
atRp1594
sg17
S'Resolve'
p1595
stRp1596
ag3
(g4
g5
(dp1597
g507
g3
(g8
g9
(lp1598
g3
(g4
g5
(dp1599
g19
S'File'
p1600
sg17
S'depotFile'
p1601
sg21
S'The file name'
p1602
stRp1603
ag3
(g4
g5
(dp1604
g19
S'Rev'
p1605
sg17
S'depotRev'
p1606
sg21
S'The revision number'
p1607
stRp1608
ag3
(g4
g5
(dp1609
g19
S'FileType'
p1610
sg17
S'type'
p1611
sg21
S'The file type of the revision'
p1612
stRp1613
ag3
(g4
g5
(dp1614
g19
S'Action'
p1615
sg17
S'action'
p1616
sg21
S'The action that created the revision'
p1617
stRp1618
ag3
(g4
g5
(dp1619
g19
S'Change'
p1620
sg17
S'change'
p1621
sg21
S'The changelist that created the revision'
p1622
stRp1623
ag3
(g4
g5
(dp1624
g19
S'Date'
p1625
sg17
S'date'
p1626
sg21
S'The date/time the changelist that created the revision\n\t\t    was submitted'
p1627
stRp1628
ag3
(g4
g5
(dp1629
g19
S'Date'
p1630
sg17
S'modTime'
p1631
sg21
S"The timestamp on the file in the user's workspace when\n\t\t    the revision was submitted."
p1632
stRp1633
ag3
(g4
g5
(dp1634
g19
S'Digest'
p1635
sg17
S'digest'
p1636
sg21
S'The MD5 digest of the revision.'
p1637
stRp1638
ag3
(g4
g5
(dp1639
g19
S'FileSize'
p1640
sg17
S'size'
p1641
sg21
S'The size of the file in bytes'
p1642
stRp1643
ag3
(g4
g5
(dp1644
g19
S'TraitLot'
p1645
sg17
S'traitLot'
p1646
sg21
S'Group of traits (attributes) associated with the revision.'
p1647
stRp1648
ag3
(g4
g5
(dp1649
g19
S'RevStatus'
p1650
sg17
S'lbrIsLazy'
p1651
sg21
S'Specifies whether or not the revision gets its content from \n\t  \t    another file (lazy copy), data about promotion of revision\n\t \t    content from task streams, and data about revision charset \n            information.'
p1652
stRp1653
ag3
(g4
g5
(dp1654
g19
S'File'
p1655
sg17
S'lbrFile'
p1656
sg21
S"Filename for librarian's purposes.  Specifies location in \n\t\t    the archives where the file containing the revision may\n\t\t    be found. Usually the same as depotFile, but differs in\n\t\t    the case of branched/copied revisions."
p1657
stRp1658
ag3
(g4
g5
(dp1659
g19
S'String'
p1660
sg17
S'lbrRev'
p1661
sg21
S'The revision of lbrFile that contains the revision content.'
p1662
stRp1663
ag3
(g4
g5
(dp1664
g19
S'FileType'
p1665
sg17
S'lbrType'
p1666
sg21
S'The file type of the librarian revision. Usually the same\n\t\t    as type, but differs in the case of branched/copied \n\t\t    revisions.'
p1667
stRp1668
atRp1669
sg17
S'Rev'
p1670
stRp1671
ag3
(g4
g5
(dp1672
g507
g3
(g8
g9
(lp1673
g3
(g4
g5
(dp1674
g19
S'Change'
p1675
sg17
S'change'
p1676
sg21
S'The changelist that created the revision'
p1677
stRp1678
ag3
(g4
g5
(dp1679
g19
S'File'
p1680
sg17
S'depotFile'
p1681
sg21
S'The file name'
p1682
stRp1683
ag3
(g4
g5
(dp1684
g19
S'Rev'
p1685
sg17
S'depotRev'
p1686
sg21
S'The revision number'
p1687
stRp1688
ag3
(g4
g5
(dp1689
g19
S'Action'
p1690
sg17
S'action'
p1691
sg21
S'The action that created the revision'
p1692
stRp1693
atRp1694
sg17
S'RevCx'
p1695
stRp1696
ag3
(g4
g5
(dp1697
g507
g3
(g8
g9
(lp1698
g3
(g4
g5
(dp1699
g19
S'User'
p1700
sg17
S'user'
p1701
sg21
S'A user name'
p1702
stRp1703
ag3
(g4
g5
(dp1704
g19
S'Int'
p1705
sg17
S'seq'
p1706
sg21
S'Sequence number: used for ordering multi-line views'
p1707
stRp1708
ag3
(g4
g5
(dp1709
g19
S'MapFlag'
p1710
sg17
S'mapFlag'
p1711
sg21
S'Type of mapping'
p1712
stRp1713
ag3
(g4
g5
(dp1714
g19
S'Mapping'
p1715
sg17
S'depotFile'
p1716
sg21
S'The files to be reviewed'
p1717
stRp1718
ag3
(g4
g5
(dp1719
g19
S'Reviewer'
p1720
sg17
S'type'
p1721
sg21
S'Type of reviewer'
p1722
stRp1723
atRp1724
sg17
S'Review'
p1725
stRp1726
ag3
(g4
g5
(dp1727
g507
g3
(g8
g9
(lp1728
g3
(g4
g5
(dp1729
g19
S'RemoteID'
p1730
sg17
S'id'
p1731
sg21
S'Remote name'
p1732
stRp1733
ag3
(g4
g5
(dp1734
g19
S'Int'
p1735
sg17
S'seq'
p1736
sg21
S'Sequence number: for ordering multi-line views'
p1737
stRp1738
ag3
(g4
g5
(dp1739
g19
S'MapFlag'
p1740
sg17
S'mapFlag'
p1741
sg21
S'Type of mapping'
p1742
stRp1743
ag3
(g4
g5
(dp1744
g19
S'Mapping'
p1745
sg17
S'localFile'
p1746
sg21
S'Local file'
p1747
stRp1748
ag3
(g4
g5
(dp1749
g19
S'Mapping'
p1750
sg17
S'remoteFile'
p1751
sg21
S'Remote file'
p1752
stRp1753
atRp1754
sg17
S'RmtView'
p1755
stRp1756
ag3
(g4
g5
(dp1757
g507
g3
(g8
g9
(lp1758
g3
(g4
g5
(dp1759
g19
S'Int'
p1760
sg17
S'taskID'
p1761
sg21
S'The process id (PID) of the sync'
p1762
stRp1763
ag3
(g4
g5
(dp1764
g19
S'Int'
p1765
sg17
S'seq'
p1766
sg21
S'Sequence number'
p1767
stRp1768
ag3
(g4
g5
(dp1769
g19
S'Text'
p1770
sg17
S'handle'
p1771
sg21
S'Handle'
p1772
stRp1773
ag3
(g4
g5
(dp1774
g19
S'File'
p1775
sg17
S'depotFile'
p1776
sg21
S'The file in the depot'
p1777
stRp1778
ag3
(g4
g5
(dp1779
g19
S'File'
p1780
sg17
S'clientFile'
p1781
sg21
S'The file in its location on the client'
p1782
stRp1783
ag3
(g4
g5
(dp1784
g19
S'Rev'
p1785
sg17
S'haveRev'
p1786
sg21
S'Have revision'
p1787
stRp1788
ag3
(g4
g5
(dp1789
g19
S'FileType'
p1790
sg17
S'type'
p1791
sg21
S'File type'
p1792
stRp1793
ag3
(g4
g5
(dp1794
g19
S'Date'
p1795
sg17
S'modtime'
p1796
sg21
S'Modification time'
p1797
stRp1798
ag3
(g4
g5
(dp1799
g19
S'Digest'
p1800
sg17
S'digest'
p1801
sg21
S'The MD5 digest of the revision'
p1802
stRp1803
ag3
(g4
g5
(dp1804
g19
S'FileSize'
p1805
sg17
S'size'
p1806
sg21
S'The size of the file in bytes'
p1807
stRp1808
ag3
(g4
g5
(dp1809
g19
S'File'
p1810
sg17
S'lbrFile'
p1811
sg21
S'Librarian filename'
p1812
stRp1813
ag3
(g4
g5
(dp1814
g19
S'LbrRev'
p1815
sg17
S'lbrRev'
p1816
sg21
S'The revision of lbrFile that contains the revision content'
p1817
stRp1818
ag3
(g4
g5
(dp1819
g19
S'FileType'
p1820
sg17
S'lbrType'
p1821
sg21
S'The file type of the librarian revision'
p1822
stRp1823
ag3
(g4
g5
(dp1824
g19
S'Int'
p1825
sg17
S'flags'
p1826
sg21
S'Flags'
p1827
stRp1828
ag3
(g4
g5
(dp1829
g19
S'FileType'
p1830
sg17
S'clientType'
p1831
sg21
S'The client file type of the revision'
p1832
stRp1833
atRp1834
sg17
S'SendQ'
p1835
stRp1836
ag3
(g4
g5
(dp1837
g507
g3
(g8
g9
(lp1838
g3
(g4
g5
(dp1839
g19
S'Text'
p1840
sg17
S'id'
p1841
sg21
S'The server identifier'
p1842
stRp1843
ag3
(g4
g5
(dp1844
g19
S'ServerType'
p1845
sg17
S'type'
p1846
sg21
S'The server type: server/broker/proxy'
p1847
stRp1848
ag3
(g4
g5
(dp1849
g19
S'Text'
p1850
sg17
S'name'
p1851
sg21
S'The P4NAME used by this server'
p1852
stRp1853
ag3
(g4
g5
(dp1854
g19
S'Text'
p1855
sg17
S'address'
p1856
sg21
S'The P4PORT used by this server'
p1857
stRp1858
ag3
(g4
g5
(dp1859
g19
S'Text'
p1860
sg17
S'externalAddress'
p1861
sg21
S'For an edge server, this optional field contains its external address for connections from the commit server. This field is required for federated parallel submit.'
p1862
stRp1863
ag3
(g4
g5
(dp1864
g19
S'ServerServiceType'
p1865
sg17
S'services'
p1866
sg21
S'Service provided by this server'
p1867
stRp1868
ag3
(g4
g5
(dp1869
g19
S'Text'
p1870
sg17
S'desc'
p1871
sg21
S'Server description'
p1872
stRp1873
ag3
(g4
g5
(dp1874
g19
S'User'
p1875
sg17
S'user'
p1876
sg21
S'The service user used by this server'
p1877
stRp1878
atRp1879
sg17
S'Server'
p1880
stRp1881
ag3
(g4
g5
(dp1882
g507
g3
(g8
g9
(lp1883
g3
(g4
g5
(dp1884
g19
S'Domain'
p1885
sg17
S'client'
p1886
sg21
S'Client the stash refers to'
p1887
stRp1888
ag3
(g4
g5
(dp1889
g19
S'Domain'
p1890
sg17
S'stream'
p1891
sg21
S'Stream the stash refers to'
p1892
stRp1893
ag3
(g4
g5
(dp1894
g19
S'StashType'
p1895
sg17
S'type'
p1896
sg21
S'Stash type'
p1897
stRp1898
ag3
(g4
g5
(dp1899
g19
S'Int'
p1900
sg17
S'seq'
p1901
sg21
S'Sequence number'
p1902
stRp1903
ag3
(g4
g5
(dp1904
g19
S'Change'
p1905
sg17
S'change'
p1906
sg21
S'Stash change number'
p1907
stRp1908
atRp1909
sg17
S'Stash'
p1910
stRp1911
ag3
(g4
g5
(dp1912
g507
g3
(g8
g9
(lp1913
g3
(g4
g5
(dp1914
g19
S'Domain'
p1915
sg17
S'stream'
p1916
sg21
S'Stream name'
p1917
stRp1918
ag3
(g4
g5
(dp1919
g19
S'Domain'
p1920
sg17
S'parent'
p1921
sg21
S'Parent stream name'
p1922
stRp1923
ag3
(g4
g5
(dp1924
g19
S'Text'
p1925
sg17
S'title'
p1926
sg21
S'Stream title (alias for the stream name)'
p1927
stRp1928
ag3
(g4
g5
(dp1929
g19
S'StreamType'
p1930
sg17
S'type'
p1931
sg21
S'The type of stream'
p1932
stRp1933
ag3
(g4
g5
(dp1934
g19
S'Date'
p1935
sg17
S'preview'
p1936
sg21
S'Stream template modification time'
p1937
stRp1938
ag3
(g4
g5
(dp1939
g19
S'Change'
p1940
sg17
S'change'
p1941
sg21
S'Last submit to stream'
p1942
stRp1943
ag3
(g4
g5
(dp1944
g19
S'Change'
p1945
sg17
S'copychg'
p1946
sg21
S'Parent change at last copy'
p1947
stRp1948
ag3
(g4
g5
(dp1949
g19
S'Change'
p1950
sg17
S'mergechg'
p1951
sg21
S'Parent change at last merge'
p1952
stRp1953
ag3
(g4
g5
(dp1954
g19
S'Change'
p1955
sg17
S'highchg'
p1956
sg21
S'Highest change at last merge'
p1957
stRp1958
ag3
(g4
g5
(dp1959
g19
S'Int'
p1960
sg17
S'hash'
p1961
sg21
S'Hash value of dynamic branch'
p1962
stRp1963
ag3
(g4
g5
(dp1964
g19
S'StreamStatus'
p1965
sg17
S'status'
p1966
sg21
S'Flow status'
p1967
stRp1968
atRp1969
sg17
S'Stream'
p1970
stRp1971
ag3
(g4
g5
(dp1972
g507
g3
(g8
g9
(lp1973
g3
(g4
g5
(dp1974
g19
S'Text'
p1975
sg17
S'id'
p1976
sg21
S'Server name'
p1977
stRp1978
ag3
(g4
g5
(dp1979
g19
S'SvrViewType'
p1980
sg17
S'type'
p1981
sg21
S'View type'
p1982
stRp1983
ag3
(g4
g5
(dp1984
g19
S'Int'
p1985
sg17
S'seq'
p1986
sg21
S'Sequence (line) number'
p1987
stRp1988
ag3
(g4
g5
(dp1989
g19
S'MapFlag'
p1990
sg17
S'mapFlag'
p1991
sg21
S'Type of mapping'
p1992
stRp1993
ag3
(g4
g5
(dp1994
g19
S'Mapping'
p1995
sg17
S'viewFile'
p1996
sg21
S'View file'
p1997
stRp1998
atRp1999
sg17
S'SvrView'
p2000
stRp2001
ag3
(g4
g5
(dp2002
g507
g3
(g8
g9
(lp2003
g3
(g4
g5
(dp2004
g19
S'Domain'
p2005
sg17
S'name'
p2006
sg21
S'Stream name'
p2007
stRp2008
ag3
(g4
g5
(dp2009
g19
S'Change'
p2010
sg17
S'change'
p2011
sg21
S'Versioned at change'
p2012
stRp2013
ag3
(g4
g5
(dp2014
g19
S'Int'
p2015
sg17
S'seq'
p2016
sg21
S'Sequence (line) number'
p2017
stRp2018
ag3
(g4
g5
(dp2019
g19
S'Domain'
p2020
sg17
S'parent'
p2021
sg21
S'Parent stream name'
p2022
stRp2023
ag3
(g4
g5
(dp2024
g19
S'StreamType'
p2025
sg17
S'type'
p2026
sg21
S'Type of stream'
p2027
stRp2028
ag3
(g4
g5
(dp2029
g19
S'StreamPathType'
p2030
sg17
S'path'
p2031
sg21
S'Stream path type'
p2032
stRp2033
ag3
(g4
g5
(dp2034
g19
S'Mapping'
p2035
sg17
S'viewFile'
p2036
sg21
S'View file (left hand side of path)'
p2037
stRp2038
ag3
(g4
g5
(dp2039
g19
S'Mapping'
p2040
sg17
S'depotFile'
p2041
sg21
S'Depot file (right hand side of path)'
p2042
stRp2043
ag3
(g4
g5
(dp2044
g19
S'Change'
p2045
sg17
S'changeMap'
p2046
sg21
S"Stream 'import' path changelist specifier. The changelist\n\t\t\tlimits in effect for a given client are displayed in a\n\t    \tread-only client spec field called 'ChangeView'"
p2047
stRp2048
atRp2049
sg17
S'Template'
p2050
stRp2051
ag3
(g4
g5
(dp2052
g507
g3
(g8
g9
(lp2053
g3
(g4
g5
(dp2054
g19
S'String'
p2055
sg17
S'fileAndRev'
p2056
sg21
S'The file name and revision'
p2057
stRp2058
ag3
(g4
g5
(dp2059
g19
S'Octet String'
p2060
sg17
S'fileContent'
p2061
sg21
S'The (encoded) file content'
p2062
stRp2063
atRp2064
sg17
S'TinyDb'
p2065
stRp2066
ag3
(g4
g5
(dp2067
g507
g3
(g8
g9
(lp2068
g3
(g4
g5
(dp2069
g19
S'Int'
p2070
sg17
S'traitLot'
p2071
sg21
S'Indicates a specific collection of traits (referred to \n\t\t    externally as "attributes".)'
p2072
stRp2073
ag3
(g4
g5
(dp2074
g19
S'String'
p2075
sg17
S'name'
p2076
sg21
S'Trait (attribute) name'
p2077
stRp2078
ag3
(g4
g5
(dp2079
g19
S'TraitType'
p2080
sg17
S'type'
p2081
sg21
S'Type of trait'
p2082
stRp2083
ag3
(g4
g5
(dp2084
g19
S'Octet String'
p2085
sg17
S'value'
p2086
sg21
S'The value'
p2087
stRp2088
atRp2089
sg17
S'Trait'
p2090
stRp2091
ag3
(g4
g5
(dp2092
g507
g3
(g8
g9
(lp2093
g3
(g4
g5
(dp2094
g19
S'Int'
p2095
sg17
S'seq'
p2096
sg21
S'Sequence number: for ordering the trigger list'
p2097
stRp2098
ag3
(g4
g5
(dp2099
g19
S'String'
p2100
sg17
S'name'
p2101
sg21
S'Name of the trigger'
p2102
stRp2103
ag3
(g4
g5
(dp2104
g19
S'MapFlag'
p2105
sg17
S'mapFlag'
p2106
sg21
S'Type of mapping: specifies whether the trigger applies \n\t\t    to the files or not.'
p2107
stRp2108
ag3
(g4
g5
(dp2109
g19
S'Mapping'
p2110
sg17
S'depotFile'
p2111
sg21
S'The files to apply the trigger to'
p2112
stRp2113
ag3
(g4
g5
(dp2114
g19
S'File'
p2115
sg17
S'triggerDepotFile'
p2116
sg21
S'Depot path to the trigger'
p2117
stRp2118
ag3
(g4
g5
(dp2119
g19
S'Trigger'
p2120
sg17
S'trigger'
p2121
sg21
S'Type of trigger'
p2122
stRp2123
ag3
(g4
g5
(dp2124
g19
S'Text'
p2125
sg17
S'action'
p2126
sg21
S'Command to execute when trigger runs'
p2127
stRp2128
atRp2129
sg17
S'Trigger'
p2130
stRp2131
ag3
(g4
g5
(dp2132
g507
g3
(g8
g9
(lp2133
g3
(g4
g5
(dp2134
g19
S'User'
p2135
sg17
S'user'
p2136
sg21
S'The username'
p2137
stRp2138
ag3
(g4
g5
(dp2139
g19
S'Text'
p2140
sg17
S'email'
p2141
sg21
S"The user's email address"
p2142
stRp2143
ag3
(g4
g5
(dp2144
g19
S'Text'
p2145
sg17
S'jobView'
p2146
sg21
S"The user's job view"
p2147
stRp2148
ag3
(g4
g5
(dp2149
g19
S'Date'
p2150
sg17
S'updateDate'
p2151
sg21
S'The date/time the user record was last updated'
p2152
stRp2153
ag3
(g4
g5
(dp2154
g19
S'Date'
p2155
sg17
S'accessDate'
p2156
sg21
S'The date/time the user record was last used'
p2157
stRp2158
ag3
(g4
g5
(dp2159
g19
S'Text'
p2160
sg17
S'fullName'
p2161
sg21
S"The user's full name"
p2162
stRp2163
ag3
(g4
g5
(dp2164
g19
S'Password'
p2165
sg17
S'password'
p2166
sg21
S'The MD5 hash of the users (encrypted) password'
p2167
stRp2168
ag3
(g4
g5
(dp2169
g19
S'Strength'
p2170
sg17
S'strength'
p2171
sg21
S"Measure of the strength of the user's password"
p2172
stRp2173
ag3
(g4
g5
(dp2174
g19
S'Password'
p2175
sg17
S'ticket'
p2176
sg21
S"'p4 login' ticket for this user"
p2177
stRp2178
ag3
(g4
g5
(dp2179
g19
S'Date'
p2180
sg17
S'endDate'
p2181
sg21
S"Date/time the user's ticket expires"
p2182
stRp2183
ag3
(g4
g5
(dp2184
g19
S'UserLevel'
p2185
sg17
S'type'
p2186
sg21
S'Type of user'
p2187
stRp2188
ag3
(g4
g5
(dp2189
g19
S'Date'
p2190
sg17
S'passDate'
p2191
sg21
S'Date password was last changed'
p2192
stRp2193
ag3
(g4
g5
(dp2194
g19
S'Date'
p2195
sg17
S'passExpire'
p2196
sg21
S'Date of password expiration'
p2197
stRp2198
ag3
(g4
g5
(dp2199
g19
S'Date'
p2200
sg17
S'attempts'
p2201
sg21
S'Failed login attempts'
p2202
stRp2203
ag3
(g4
g5
(dp2204
g19
S'Int'
p2205
sg17
S'auth'
p2206
sg21
S'Authentication method for user; 0=perforce, 1=ldap'
p2207
stRp2208
atRp2209
sg17
S'User'
p2210
stRp2211
ag3
(g4
g5
(dp2212
g507
g3
(g8
g9
(lp2213
g3
(g4
g5
(dp2214
g19
S'Domain'
p2215
sg17
S'name'
p2216
sg21
S'Domain name to which this view applies'
p2217
stRp2218
ag3
(g4
g5
(dp2219
g19
S'Int'
p2220
sg17
S'seq'
p2221
sg21
S'Sequence number: for ordering multi-line views'
p2222
stRp2223
ag3
(g4
g5
(dp2224
g19
S'MapFlag'
p2225
sg17
S'mapFlag'
p2226
sg21
S'Type of mapping'
p2227
stRp2228
ag3
(g4
g5
(dp2229
g19
S'Mapping'
p2230
sg17
S'viewFile'
p2231
sg21
S"The right-hand-side of the view. For clients, this is\n\t\t    the client-side, for labels it's the generated label \n\t\t    view. For branches, it's the target side of the branch\n\t\t    view."
p2232
stRp2233
ag3
(g4
g5
(dp2234
g19
S'Mapping'
p2235
sg17
S'depotFile'
p2236
sg21
S'The left-hand-side of the view - a mapping to file(s)\n\t\t    in the depot.'
p2237
stRp2238
atRp2239
sg17
S'View'
p2240
stRp2241
ag3
(g4
g5
(dp2242
g507
g3
(g8
g9
(lp2243
g3
(g4
g5
(dp2244
g19
S'File'
p2245
sg17
S'clientFile'
p2246
sg21
S'File on the client'
p2247
stRp2248
ag3
(g4
g5
(dp2249
g19
S'File'
p2250
sg17
S'depotFile'
p2251
sg21
S'File in the depot'
p2252
stRp2253
ag3
(g4
g5
(dp2254
g19
S'Domain'
p2255
sg17
S'client'
p2256
sg21
S'The client the file is opened on'
p2257
stRp2258
ag3
(g4
g5
(dp2259
g19
S'User'
p2260
sg17
S'user'
p2261
sg21
S'The user who has the file opened'
p2262
stRp2263
ag3
(g4
g5
(dp2264
g19
S'Rev'
p2265
sg17
S'haveRev'
p2266
sg21
S"Revision presently in user's client workspace"
p2267
stRp2268
ag3
(g4
g5
(dp2269
g19
S'Rev'
p2270
sg17
S'workRev'
p2271
sg21
S'Working revision; normally identical to the haveRev'
p2272
stRp2273
ag3
(g4
g5
(dp2274
g19
S'Int'
p2275
sg17
S'isVirtual'
p2276
sg21
S'Flag: if 1, file was opened with "p4 integ -v".'
p2277
stRp2278
ag3
(g4
g5
(dp2279
g19
S'FileType'
p2280
sg17
S'type'
p2281
sg21
S'File type'
p2282
stRp2283
ag3
(g4
g5
(dp2284
g19
S'Action'
p2285
sg17
S'action'
p2286
sg21
S"What the user's doing with the file"
p2287
stRp2288
ag3
(g4
g5
(dp2289
g19
S'Change'
p2290
sg17
S'change'
p2291
sg21
S'Associated changelist, or zero for the default changelist.'
p2292
stRp2293
ag3
(g4
g5
(dp2294
g19
S'Date'
p2295
sg17
S'modTime'
p2296
sg21
S"Modification timestamp on the file in the user's workspace."
p2297
stRp2298
ag3
(g4
g5
(dp2299
g19
S'Int'
p2300
sg17
S'isLocked'
p2301
sg21
S'Flag: 0 for unlocked, 1 for locked.'
p2302
stRp2303
ag3
(g4
g5
(dp2304
g19
S'Digest'
p2305
sg17
S'digest'
p2306
sg21
S'MD5 digest of working file.'
p2307
stRp2308
ag3
(g4
g5
(dp2309
g19
S'Int64'
p2310
sg17
S'size'
p2311
sg21
S'File size'
p2312
stRp2313
ag3
(g4
g5
(dp2314
g19
S'Int'
p2315
sg17
S'traitLot'
p2316
sg21
S'Group of traits associated with file revision.'
p2317
stRp2318
ag3
(g4
g5
(dp2319
g19
S'TamperCheck'
p2320
sg17
S'tampered'
p2321
sg21
S'Flag indicating the tamper-state of the file in the\n\t\t    workspace.'
p2322
stRp2323
ag3
(g4
g5
(dp2324
g19
S'FileType'
p2325
sg17
S'clntType'
p2326
sg21
S'Type of the file in the client workspace.'
p2327
stRp2328
ag3
(g4
g5
(dp2329
g19
S'File'
p2330
sg17
S'mFile'
p2331
sg21
S'Moved filename'
p2332
stRp2333
ag3
(g4
g5
(dp2334
g19
S'Int'
p2335
sg17
S'status'
p2336
sg21
S'Working status'
p2337
stRp2338
atRp2339
sg17
S'Working'
p2340
stRp2341
atRp2342
stRp2343
sS'upgrades'
p2344
g3
(g4
g5
(dp2345
S'upgrade'
p2346
g3
(g8
g9
(lp2347
g3
(g4
g5
(dp2348
S'release'
p2349
S'2001.1'
p2350
sS'index'
p2351
S'1'
sg21
S'Split db.integ into db.integed and db.resolve'
p2352
stRp2353
ag3
(g4
g5
(dp2354
g2349
S'2001.1'
p2355
sg2351
S'2'
sg21
S'Splt db.have into db.have and db.label'
p2356
stRp2357
ag3
(g4
g5
(dp2358
g2349
S'2002.1'
p2359
sg2351
S'3'
sg21
S'Split db.change into db.change and db.changex'
p2360
stRp2361
ag3
(g4
g5
(dp2362
g2349
S'2002.2'
p2363
sg2351
S'4'
sg21
S'Upgrade tempobj filetype in db.rev'
p2364
stRp2365
ag3
(g4
g5
(dp2366
g2349
S'2002.2'
p2367
sg2351
S'5'
sg21
S'Upgrade tempobj filetype in db.working'
p2368
stRp2369
ag3
(g4
g5
(dp2370
g2349
S'2003.1'
p2371
sg2351
S'6'
sg21
S'JnlInitialize default depot'
p2372
stRp2373
ag3
(g4
g5
(dp2374
g2349
S'2003.2'
p2375
sg2351
S'7'
sg21
S'Upgrade db.user'
p2376
stRp2377
ag3
(g4
g5
(dp2378
g2349
S'2005.1'
p2379
sg2351
S'8'
sg21
S'Build db.revhx (headrev) table'
p2380
stRp2381
ag3
(g4
g5
(dp2382
g2349
S'2005.1'
p2383
sg2351
S'9'
sg21
S'Rebuild db.locks from db.working'
p2384
stRp2385
ag3
(g4
g5
(dp2386
g2349
S'2005.1'
p2387
sg2351
S'10'
p2388
sg241
S'Removed in 2006.2'
p2389
sg21
S'Build lazy-copy index (db.archive)'
p2390
stRp2391
ag3
(g4
g5
(dp2392
g2349
S'2005.2'
p2393
sg2351
S'11'
p2394
sg21
S'Build db.revdx (delrev) table'
p2395
stRp2396
ag3
(g4
g5
(dp2397
g2349
S'2005.2'
p2398
sg2351
S'12'
p2399
sg241
S'Moved to 16 in 2007.3'
p2400
sg21
S'Build haveMap from db.have/db.working'
p2401
stRp2402
ag3
(g4
g5
(dp2403
g2349
S'2005.2'
p2404
sg2351
S'13'
p2405
sg21
S'Move spec depot entries into db.revsx'
p2406
stRp2407
ag3
(g4
g5
(dp2408
g2349
S'2006.2'
p2409
sg2351
S'14'
p2410
sg241
S'Moved to 17 in 2007.3'
p2411
sg21
S'Build db.archmap (lazy-copy map) table'
p2412
stRp2413
ag3
(g4
g5
(dp2414
g2349
S'2006.2'
p2415
sg2351
S'15'
p2416
sg241
S'Moved to 18 in 2007.3'
p2417
sg21
S'Remove (obsolete) db.archive table'
p2418
stRp2419
ag3
(g4
g5
(dp2420
g2349
S'2007.3'
p2421
sg2351
S'16'
p2422
sg241
S'Rewritten in 2007.3'
p2423
sg21
S'Build/Rebuild haveMap from db.have/db.working'
p2424
stRp2425
ag3
(g4
g5
(dp2426
g2349
S'2007.3'
p2427
sg2351
S'17'
p2428
sg241
S'Rewritten in 2007.3'
p2429
sg21
S'Build/Rebuild db.archmap (lazy-copy map) table'
p2430
stRp2431
ag3
(g4
g5
(dp2432
g2349
S'2007.3'
p2433
sg2351
S'18'
p2434
sg241
S'Moved from 15 in 2007.3'
p2435
sg21
S'Remove (obsolete) db.archive table'
p2436
stRp2437
ag3
(g4
g5
(dp2438
g2349
S'2008.1'
p2439
sg2351
S'19'
p2440
sg21
S'Build db.change common path'
p2441
stRp2442
ag3
(g4
g5
(dp2443
g2349
S'2009.2'
p2444
sg2351
S'20'
p2445
sg21
S'Move db.boddate/db.ixdate into db.bodtext/db.ixtext'
p2446
stRp2447
ag3
(g4
g5
(dp2448
g2349
S'2009.2'
p2449
sg2351
S'21'
p2450
sg21
S'Remove db.boddate/db.ixdate'
p2451
stRp2452
ag3
(g4
g5
(dp2453
g2349
S'2010.2'
p2454
sg2351
S'22'
p2455
sg21
S'Add db.config'
p2456
stRp2457
ag3
(g4
g5
(dp2458
g2349
S'2011.1'
p2459
sg2351
S'23'
p2460
sg21
S'Upgrade tiny.db'
p2461
stRp2462
atRp2463
stRp2464
sS'commit_upgrades'
p2465
g3
(g4
g5
(dp2466
S'commit_upgrade'
p2467
g3
(g8
g9
(lp2468
g3
(g4
g5
(dp2469
g2349
S'2013.2'
p2470
sg2351
S'commit-server'
p2471
sg241
S'Generate exclusive lock records in db.excl based on db.working data.'
p2472
sg21
S'Generate exclusive locks'
p2473
stRp2474
ag3
(g4
g5
(dp2475
g2349
S'2014.1'
p2476
sg2351
S'commit-server'
p2477
sg241
S'Promote existing shelves by updating changeStatus in db.change and db.changex.'
p2478
sg21
S'Promote Shelves'
p2479
stRp2480
atRp2481
stRp2482
sS'datatypes'
p2483
g3
(g4
g5
(dp2484
S'datatype'
p2485
g3
(g8
g9
(lp2486
g3
(g4
g5
(dp2487
g19
S'flag'
p2488
sS'summary'
p2489
S'Type of action'
p2490
sS'values'
p2491
g3
(g8
g9
(lp2492
g3
(g4
g5
(dp2493
S'value'
p2494
S'0'
sg21
S'add; user adds a file'
p2495
stRp2496
ag3
(g4
g5
(dp2497
g2494
S'1'
sg21
S'edit; user edits a file'
p2498
stRp2499
ag3
(g4
g5
(dp2500
g2494
S'2'
sg21
S'delete; user deletes a file'
p2501
stRp2502
ag3
(g4
g5
(dp2503
g2494
S'3'
sg21
S'branch; add via integration'
p2504
stRp2505
ag3
(g4
g5
(dp2506
g2494
S'4'
sg21
S'integ; edit via integration'
p2507
stRp2508
ag3
(g4
g5
(dp2509
g2494
S'5'
sg21
S'import; add via remote depot'
p2510
stRp2511
ag3
(g4
g5
(dp2512
g2494
S'6'
sg21
S'purge; purged revision, no longer available'
p2513
stRp2514
ag3
(g4
g5
(dp2515
g2494
S'7'
sg21
S'movefrom; move from another filename'
p2516
stRp2517
ag3
(g4
g5
(dp2518
g2494
S'8'
sg21
S'moveto; move to another filename'
p2519
stRp2520
ag3
(g4
g5
(dp2521
g2494
S'9'
sg21
S'archive; stored in archive depot'
p2522
stRp2523
atRp2524
sg17
S'Action'
p2525
sg21
S'Revisions are produced by user actions. The Action\n\t\ttype defines the available actions and their internal values.'
p2526
stRp2527
ag3
(g4
g5
(dp2528
g2489
S'A changelist number'
p2529
sg19
S'integer'
p2530
sg17
S'Change'
p2531
sg21
S'The number of a changelist. The number 0 represents the\n\t\tdefault pending changelist.'
p2532
stRp2533
ag3
(g4
g5
(dp2534
g19
S'flag'
p2535
sg2489
S'The status of a change'
p2536
sg2491
g3
(g8
g9
(lp2537
g3
(g4
g5
(dp2538
g2494
S'0'
sg21
S'pending'
p2539
stRp2540
ag3
(g4
g5
(dp2541
g2494
S'1'
sg21
S'submitted'
p2542
stRp2543
ag3
(g4
g5
(dp2544
g2494
S'2'
sg21
S'shelved'
p2545
stRp2546
ag3
(g4
g5
(dp2547
g2494
S'4'
sg21
S'restricted, pending'
p2548
stRp2549
ag3
(g4
g5
(dp2550
g2494
S'5'
sg21
S'restricted, submitted'
p2551
stRp2552
ag3
(g4
g5
(dp2553
g2494
S'6'
sg21
S'restricted, shelved'
p2554
stRp2555
ag3
(g4
g5
(dp2556
g2494
S'18'
p2557
sg21
S'promoted shelf, public'
p2558
stRp2559
ag3
(g4
g5
(dp2560
g2494
S'22'
p2561
sg21
S'promoted shelf, restricted'
p2562
stRp2563
ag3
(g4
g5
(dp2564
g2494
S'34'
p2565
sg21
S'unsubmitted shelf, public'
p2566
stRp2567
ag3
(g4
g5
(dp2568
g2494
S'38'
p2569
sg21
S'unsubmitted shelf, restricted'
p2570
stRp2571
atRp2572
sg17
S'ChangeStatus'
p2573
sg21
S'A integer value representing the status of a change'
p2574
stRp2575
ag3
(g4
g5
(dp2576
g2489
S'A counter name'
p2577
sg19
S'string'
p2578
sg17
S'Counter'
p2579
sg21
S'A string representing the counter name. Counter names must \n\t\tcontain no spaces, contain no slashes, and be identifiers \n\t\t(cannot begin with a dash and cannot be all-numeric)'
p2580
stRp2581
ag3
(g4
g5
(dp2582
g2489
S'A unix-style date and time'
p2583
sg19
S'integer'
p2584
sg17
S'Date'
p2585
sg21
S'A date and time represented as the number of seconds since \n\t\tthe Epoch: 01 January 1970 00:00:00 UTC. This is the same \n\t\tconvention as that used on Unix platforms.'
p2586
stRp2587
ag3
(g4
g5
(dp2588
g19
S'flag'
p2589
sg2489
S'Type of Depot'
p2590
sg2491
g3
(g8
g9
(lp2591
g3
(g4
g5
(dp2592
g2494
S'0'
sg21
S'local depot'
p2593
stRp2594
ag3
(g4
g5
(dp2595
g2494
S'1'
sg21
S'remote depot'
p2596
stRp2597
ag3
(g4
g5
(dp2598
g2494
S'2'
sg21
S'spec depot'
p2599
stRp2600
ag3
(g4
g5
(dp2601
g2494
S'3'
sg21
S'stream depot'
p2602
stRp2603
ag3
(g4
g5
(dp2604
g2494
S'4'
sg21
S'archive depot'
p2605
stRp2606
ag3
(g4
g5
(dp2607
g2494
S'5'
sg21
S'unload depot'
p2608
stRp2609
ag3
(g4
g5
(dp2610
g2494
S'6'
sg21
S'tangent depot'
p2611
stRp2612
atRp2613
sg17
S'DepotType'
p2614
sg21
S'The type of a given depot'
p2615
stRp2616
ag3
(g4
g5
(dp2617
g2489
S'A short string value'
p2618
sg21
S'The first 31 characters of a Text string'
p2619
sg19
S'string'
p2620
sg17
S'DescShort'
p2621
sg165
S'Text'
p2622
stRp2623
ag3
(g4
g5
(dp2624
g2489
S'An MD5 digest'
p2625
sg19
S'string'
p2626
sg17
S'Digest'
p2627
sg21
S'A string containing an MD5 digest.'
p2628
stRp2629
ag3
(g4
g5
(dp2630
g2489
S'A domain name'
p2631
sg19
S'string'
p2632
sg17
S'Domain'
p2633
sg21
S'A string representing the name of a depot, label, client,\n\t\tbranch, typemap, or stream.'
p2634
stRp2635
ag3
(g4
g5
(dp2636
g2489
S'A string with optional wildcards'
p2637
sg19
S'string'
p2638
sg17
S'DomainWild'
p2639
sg21
S'A string that may contain wildcards - usually an IP address\n\t\tin the protections table.'
p2640
stRp2641
ag3
(g4
g5
(dp2642
g2491
g3
(g8
g9
(lp2643
g3
(g4
g5
(dp2644
S'mask'
p2645
S'Domain Flags'
p2646
sg2494
S'0x0001'
p2647
sg21
S'modtime'
p2648
stRp2649
ag3
(g4
g5
(dp2650
g2645
S'Domain Flags'
p2651
sg2494
S'0x0002'
p2652
sg21
S'clobber'
p2653
stRp2654
ag3
(g4
g5
(dp2655
g2645
S'Domain Flags'
p2656
sg2494
S'0x0004'
p2657
sg21
S'allwrite'
p2658
stRp2659
ag3
(g4
g5
(dp2660
g2645
S'Domain Flags'
p2661
sg2494
S'0x0008'
p2662
sg21
S'locked'
p2663
stRp2664
ag3
(g4
g5
(dp2665
g2645
S'Domain Flags'
p2666
sg2494
S'0x0020'
p2667
sg21
S'compress'
p2668
stRp2669
ag3
(g4
g5
(dp2670
g2645
S'Domain Flags'
p2671
sg2494
S'0x0040'
p2672
sg21
S'rmdir'
p2673
stRp2674
ag3
(g4
g5
(dp2675
g2645
S'Domain Flags'
p2676
sg2494
S'0x1000'
p2677
sg21
S'indirect (obsolete since 2004.2)'
p2678
stRp2679
ag3
(g4
g5
(dp2680
g2645
S'Domain Flags'
p2681
sg2494
S'0x8000'
p2682
sg21
S'autoreload'
p2683
stRp2684
ag3
(g4
g5
(dp2685
g2645
S'Domain LineEnd'
p2686
sg2494
S'0x0000'
p2687
sg21
S'local'
p2688
stRp2689
ag3
(g4
g5
(dp2690
g2645
S'Domain LineEnd'
p2691
sg2494
S'0x0010'
p2692
sg21
S'unix (LF)'
p2693
stRp2694
ag3
(g4
g5
(dp2695
g2645
S'Domain LineEnd'
p2696
sg2494
S'0x0200'
p2697
sg21
S'mac (CR)'
p2698
stRp2699
ag3
(g4
g5
(dp2700
g2645
S'Domain LineEnd'
p2701
sg2494
S'0x0300'
p2702
sg21
S'win (CRLF)'
p2703
stRp2704
ag3
(g4
g5
(dp2705
g2645
S'Domain LineEnd'
p2706
sg2494
S'0x0400'
p2707
sg21
S'share (LF/CRLF)'
p2708
stRp2709
ag3
(g4
g5
(dp2710
g2645
S'Domain SubmitMask'
p2711
sg2494
S'0x1000'
p2712
sg21
S'Revert unchanged files'
p2713
stRp2714
ag3
(g4
g5
(dp2715
g2645
S'Domain SubmitMask'
p2716
sg2494
S'0x2000'
p2717
sg21
S'Leave unchanged files'
p2718
stRp2719
ag3
(g4
g5
(dp2720
g2645
S'Domain SubmitMask'
p2721
sg2494
S'0x4000'
p2722
sg21
S'Submit, and re-open unchanged files'
p2723
stRp2724
ag3
(g4
g5
(dp2725
g2645
S'Domain StreamMask'
p2726
sg2494
S'0x0001'
p2727
sg21
S'allsubmit or ownersubmit'
p2728
stRp2729
ag3
(g4
g5
(dp2730
g2645
S'Domain StreamMask'
p2731
sg2494
S'0x0002'
p2732
sg21
S'locked or unlocked'
p2733
stRp2734
ag3
(g4
g5
(dp2735
g2645
S'Domain StreamMask'
p2736
sg2494
S'0x0004'
p2737
sg21
S'change flows to parent'
p2738
stRp2739
ag3
(g4
g5
(dp2740
g2645
S'Domain StreamMask'
p2741
sg2494
S'0x0008'
p2742
sg21
S'change flows from parent'
p2743
stRp2744
ag3
(g4
g5
(dp2745
g2645
S'Domain StreamMask'
p2746
sg2494
S'0x0010'
p2747
sg21
S'mergeany or mergedown'
p2748
stRp2749
atRp2750
sg17
S'DomainOpts'
p2751
sg2645
g3
(g8
g9
(lp2752
g3
(g4
g5
(dp2753
g17
S'Domain Flags'
p2754
sg2494
S'0x10EF'
p2755
sg21
S'Bits used to store client, label, and branch options'
p2756
stRp2757
ag3
(g4
g5
(dp2758
g17
S'Domain LineEnd'
p2759
sg2494
S'0x0710'
p2760
sg21
S'Bits used to store client line termination settings.'
p2761
stRp2762
ag3
(g4
g5
(dp2763
g17
S'Domain SubmitMask'
p2764
sg2494
S'0x7000'
p2765
sg21
S'Bits used to store client submit options'
p2766
stRp2767
ag3
(g4
g5
(dp2768
g17
S'Domain StreamMask'
p2769
sg2494
S'0x000C'
p2770
sg21
S'Bits used to store stream options'
p2771
stRp2772
atRp2773
sg2489
S'Options for domains'
p2774
sg19
S'bitmask'
p2775
sg21
S'A integer value representing the options for a domain'
p2776
stRp2777
ag3
(g4
g5
(dp2778
g19
S'flag'
p2779
sg2489
S'A domain type'
p2780
sg2491
g3
(g8
g9
(lp2781
g3
(g4
g5
(dp2782
g2494
S"67 (ASCII 'C')"
p2783
sg21
S'unloaded client'
p2784
stRp2785
ag3
(g4
g5
(dp2786
g2494
S"76 (ASCII 'L')"
p2787
sg21
S'unloaded label'
p2788
stRp2789
ag3
(g4
g5
(dp2790
g2494
S"83 (ASCII 'S')"
p2791
sg21
S'unloaded task stream'
p2792
stRp2793
ag3
(g4
g5
(dp2794
g2494
S"98 (ASCII 'b')"
p2795
sg21
S'branch'
p2796
stRp2797
ag3
(g4
g5
(dp2798
g2494
S"99 (ASCII 'c')"
p2799
sg21
S'client'
p2800
stRp2801
ag3
(g4
g5
(dp2802
g2494
S"100 (ASCII 'd')"
p2803
sg21
S'depot'
p2804
stRp2805
ag3
(g4
g5
(dp2806
g2494
S"108 (ASCII 'l')"
p2807
sg21
S'label'
p2808
stRp2809
ag3
(g4
g5
(dp2810
g2494
S"115 (ASCII 's')"
p2811
sg21
S'stream'
p2812
stRp2813
ag3
(g4
g5
(dp2814
g2494
S"116 (ASCII 't')"
p2815
sg21
S'typemap'
p2816
stRp2817
atRp2818
sg17
S'DomainType'
p2819
sg21
S'A integer value representing the type of a domain'
p2820
stRp2821
ag3
(g4
g5
(dp2822
g2489
S'A file name'
p2823
sg21
S'A string representing the filename'
p2824
sg19
S'string'
p2825
sg17
S'File'
p2826
sg165
S'FileType'
p2827
stRp2828
ag3
(g4
g5
(dp2829
g2489
S'A file size'
p2830
sg19
S'integer'
p2831
sg17
S'FileSize'
p2832
sg21
S'A 64-bit integer used to store file sizes. The value -1 is\n\t\tused to represent unknown filesizes.'
p2833
stRp2834
ag3
(g4
g5
(dp2835
g2491
g3
(g8
g9
(lp2836
g3
(g4
g5
(dp2837
g2645
S'Storage Type'
p2838
sg2494
S'0x0000'
p2839
sg21
S'RCS'
p2840
stRp2841
ag3
(g4
g5
(dp2842
g2645
S'Storage Type'
p2843
sg2494
S'0x0001'
p2844
sg21
S'Binary'
p2845
stRp2846
ag3
(g4
g5
(dp2847
g2645
S'Storage Type'
p2848
sg2494
S'0x0002'
p2849
sg21
S'Tiny'
p2850
stRp2851
ag3
(g4
g5
(dp2852
g2645
S'Storage Type'
p2853
sg2494
S'0x0003'
p2854
sg21
S'Compressed'
p2855
stRp2856
ag3
(g4
g5
(dp2857
g2645
S'Storage Type'
p2858
sg2494
S'0x0004'
p2859
sg21
S'tempobj (deprecated since 2002.1)'
p2860
stRp2861
ag3
(g4
g5
(dp2862
g2645
S'Storage Type'
p2863
sg2494
S'0x0005'
p2864
sg21
S'Detect type. Used internally when no type is\n\t\t    given by the user.'
p2865
stRp2866
ag3
(g4
g5
(dp2867
g2645
S'Storage Type'
p2868
sg2494
S'0x0006'
p2869
sg21
S'Comressed tempobj (deprecated since 2002.1)'
p2870
stRp2871
ag3
(g4
g5
(dp2872
g2645
S'Storage Type'
p2873
sg2494
S'0x0007'
p2874
sg21
S'Binary access to compressed data. Used internally.'
p2875
stRp2876
ag3
(g4
g5
(dp2877
g2645
S'Storage Type'
p2878
sg2494
S'0x0008'
p2879
sg21
S'Stored externally via librarian trigger'
p2880
stRp2881
ag3
(g4
g5
(dp2882
g2645
S'Storage Mods'
p2883
sg2494
S'0x0010'
p2884
sg21
S'99.2-style keyword expansion/contraction'
p2885
stRp2886
ag3
(g4
g5
(dp2887
g2645
S'Storage Mods'
p2888
sg2494
S'0x0020'
p2889
sg21
S'2000.1-style keyword expansion/contraction'
p2890
stRp2891
ag3
(g4
g5
(dp2892
g2645
S'Storage Mods'
p2893
sg2494
S'0x0030'
p2894
sg21
S'Any type of keyword expansion'
p2895
stRp2896
ag3
(g4
g5
(dp2897
g2645
S'Storage Mods'
p2898
sg2494
S'0x0040'
p2899
sg21
S'Exclusive open'
p2900
stRp2901
ag3
(g4
g5
(dp2902
g2645
S'Storage Mods'
p2903
sg2494
S'0x0080'
p2904
sg21
S'New tempobj (+S modifier)'
p2905
stRp2906
ag3
(g4
g5
(dp2907
g2645
S'Tempobj revisions'
p2908
sg2494
S'0x0000'
p2909
sg21
S'+S1'
p2910
stRp2911
ag3
(g4
g5
(dp2912
g2645
S'Tempobj revisions'
p2913
sg2494
S'0x0100'
p2914
sg21
S'+S2'
p2915
stRp2916
ag3
(g4
g5
(dp2917
g2645
S'Tempobj revisions'
p2918
sg2494
S'0x0200'
p2919
sg21
S'+S3'
p2920
stRp2921
ag3
(g4
g5
(dp2922
g2645
S'Tempobj revisions'
p2923
sg2494
S'0x0300'
p2924
sg21
S'+S4'
p2925
stRp2926
ag3
(g4
g5
(dp2927
g2645
S'Tempobj revisions'
p2928
sg2494
S'0x0400'
p2929
sg21
S'+S5'
p2930
stRp2931
ag3
(g4
g5
(dp2932
g2645
S'Tempobj revisions'
p2933
sg2494
S'0x0500'
p2934
sg21
S'+S6'
p2935
stRp2936
ag3
(g4
g5
(dp2937
g2645
S'Tempobj revisions'
p2938
sg2494
S'0x0600'
p2939
sg21
S'+S7'
p2940
stRp2941
ag3
(g4
g5
(dp2942
g2645
S'Tempobj revisions'
p2943
sg2494
S'0x0700'
p2944
sg21
S'+S8'
p2945
stRp2946
ag3
(g4
g5
(dp2947
g2645
S'Tempobj revisions'
p2948
sg2494
S'0x0800'
p2949
sg21
S'+S9'
p2950
stRp2951
ag3
(g4
g5
(dp2952
g2645
S'Tempobj revisions'
p2953
sg2494
S'0x0900'
p2954
sg21
S'+S10'
p2955
stRp2956
ag3
(g4
g5
(dp2957
g2645
S'Tempobj revisions'
p2958
sg2494
S'0x0A00'
p2959
sg21
S'+S16'
p2960
stRp2961
ag3
(g4
g5
(dp2962
g2645
S'Tempobj revisions'
p2963
sg2494
S'0x0B00'
p2964
sg21
S'+S32'
p2965
stRp2966
ag3
(g4
g5
(dp2967
g2645
S'Tempobj revisions'
p2968
sg2494
S'0x0C00'
p2969
sg21
S'+S64'
p2970
stRp2971
ag3
(g4
g5
(dp2972
g2645
S'Tempobj revisions'
p2973
sg2494
S'0x0D00'
p2974
sg21
S'+S128'
p2975
stRp2976
ag3
(g4
g5
(dp2977
g2645
S'Tempobj revisions'
p2978
sg2494
S'0x0E00'
p2979
sg21
S'+S256'
p2980
stRp2981
ag3
(g4
g5
(dp2982
g2645
S'Tempobj revisions'
p2983
sg2494
S'0x0F00'
p2984
sg21
S'+S512'
p2985
stRp2986
ag3
(g4
g5
(dp2987
g2645
S'Client Type'
p2988
sg2494
S'0x0000000'
p2989
sg21
S'text'
p2990
stRp2991
ag3
(g4
g5
(dp2992
g2645
S'Client Type'
p2993
sg2494
S'0x0010000'
p2994
sg21
S'binary'
p2995
stRp2996
ag3
(g4
g5
(dp2997
g2645
S'Client Type'
p2998
sg2494
S'0x0020000'
p2999
sg21
S'executable bit set'
p3000
stRp3001
ag3
(g4
g5
(dp3002
g2645
S'Client Type'
p3003
sg2494
S'0x0040000'
p3004
sg21
S'symlink'
p3005
stRp3006
ag3
(g4
g5
(dp3007
g2645
S'Client Type'
p3008
sg2494
S'0x0050000'
p3009
sg21
S'resource fork'
p3010
stRp3011
ag3
(g4
g5
(dp3012
g2645
S'Client Type'
p3013
sg2494
S'0x0080000'
p3014
sg21
S'unicode'
p3015
stRp3016
ag3
(g4
g5
(dp3017
g2645
S'Client Type'
p3018
sg2494
S'0x0090000'
p3019
sg21
S'raw text (nocrlf - 99.1)'
p3020
stRp3021
ag3
(g4
g5
(dp3022
g2645
S'Client Type'
p3023
sg2494
S'0x00C0000'
p3024
sg21
S'apple data + resource file (since 2000.2)'
p3025
stRp3026
ag3
(g4
g5
(dp3027
g2645
S'Client Type'
p3028
sg2494
S'0x00D0000'
p3029
sg21
S'apple data + resource file (99.2)'
p3030
stRp3031
ag3
(g4
g5
(dp3032
g2645
S'Client Type'
p3033
sg2494
S'0x1000000'
p3034
sg21
S'Used to support filetype detection'
p3035
stRp3036
ag3
(g4
g5
(dp3037
g2645
S'Client Mods'
p3038
sg2494
S'0x0100000'
p3039
sg21
S'writable'
p3040
stRp3041
ag3
(g4
g5
(dp3042
g2645
S'Client Mods'
p3043
sg2494
S'0x0200000'
p3044
sg21
S'modtime'
p3045
stRp3046
ag3
(g4
g5
(dp3047
g2645
S'Client Mods'
p3048
sg2494
S'0x0400000'
p3049
sg21
S'uncompress on client'
p3050
stRp3051
atRp3052
sg17
S'FileType'
p3053
sg2645
g3
(g8
g9
(lp3054
g3
(g4
g5
(dp3055
g17
S'Storage Type'
p3056
sg2494
S'0x000F'
p3057
sg21
S"Bits used to store the server's storage type"
p3058
stRp3059
ag3
(g4
g5
(dp3060
g17
S'Storage Mods'
p3061
sg2494
S'0x00F0'
p3062
sg21
S"Bits used to store the modifiers to the server's storage \n\t\t    type"
p3063
stRp3064
ag3
(g4
g5
(dp3065
g17
S'Tempobj revisions'
p3066
sg2494
S'0x0F00'
p3067
sg21
S'Bits used to store the number of revisions to be stored\n\t\t    for +Sn files.'
p3068
stRp3069
ag3
(g4
g5
(dp3070
g17
S'Client Type'
p3071
sg2494
S'0x10D0000'
p3072
sg21
S"Bits used to store the file type from the client's point\n\t\t    of view."
p3073
stRp3074
ag3
(g4
g5
(dp3075
g17
S'Client Mods'
p3076
sg2494
S'0x720000'
p3077
sg21
S'Bits used to store the modifiers applied to the file\n\t\t    on the client.'
p3078
stRp3079
atRp3080
sg2489
S'Type of file'
p3081
sg19
S'bitmask'
p3082
sg21
S'The FileType is a bitmask specifying the type and modifiers\n\t\tof a revision from both the client and server points of view.\n\t\tThe first 16 bits are used to store the storage type and \n\t\tmodifiers, the next 16 bits are used to store the client \n\t\taccess method and modifiers.'
p3083
stRp3084
ag3
(g4
g5
(dp3085
g2489
S'Status of a fixed job'
p3086
sg19
S'string'
p3087
sg17
S'FixStatus'
p3088
sg21
S'This type is a wrapper around the \'Text\' type that handles\n\t\tthe pre-2000.1 "closed" default value.'
p3089
stRp3090
ag3
(g4
g5
(dp3091
g2489
S'A 32-bit integer'
p3092
sg19
S'integer'
p3093
sg17
S'Int'
p3094
sg21
S'A 32-bit integer'
p3095
stRp3096
ag3
(g4
g5
(dp3097
g2489
S'An 8-bit integer'
p3098
sg19
S'integer'
p3099
sg17
S'Int8'
p3100
sg21
S'An 8-bit integer: an unsigned char'
p3101
stRp3102
ag3
(g4
g5
(dp3103
g2489
S'A 64-bit integer'
p3104
sg19
S'integer'
p3105
sg17
S'Int64'
p3106
sg21
S'A 64-bit integer.'
p3107
stRp3108
ag3
(g4
g5
(dp3109
g241
S'All integration records should have a corresponding \n\t\treverse record. The \'branch from\' (2) and \'merge from\' (0) \n\t\trecords have corresponding "dirty" reverse records for cases \n\t\twhere the target file took more than one change or was \n\t\t(re)opened for \'edit\' or \'add\'.'
p3110
sg2491
g3
(g8
g9
(lp3111
g3
(g4
g5
(dp3112
g2494
S'0'
sg21
S'merge from: integration with other changes'
p3113
stRp3114
ag3
(g4
g5
(dp3115
g2494
S'1'
sg21
S'merge into: reverse merge'
p3116
stRp3117
ag3
(g4
g5
(dp3118
g2494
S'2'
sg21
S'branch from: integration was branch of file'
p3119
stRp3120
ag3
(g4
g5
(dp3121
g2494
S'3'
sg21
S'branch into: reverse branch'
p3122
stRp3123
ag3
(g4
g5
(dp3124
g2494
S'4'
sg21
S'copy from: integration took source file whole'
p3125
stRp3126
ag3
(g4
g5
(dp3127
g2494
S'5'
sg21
S'copy into: reverse take'
p3128
stRp3129
ag3
(g4
g5
(dp3130
g2494
S'6'
sg21
S'ignored: integration ignored source changes'
p3131
stRp3132
ag3
(g4
g5
(dp3133
g2494
S'7'
sg21
S'ignored by: reverse copy'
p3134
stRp3135
ag3
(g4
g5
(dp3136
g2494
S'8'
sg21
S'delete from: integration of delete'
p3137
stRp3138
ag3
(g4
g5
(dp3139
g2494
S'9'
sg21
S'delete into: reverse delete'
p3140
stRp3141
ag3
(g4
g5
(dp3142
g2494
S'10'
p3143
sg21
S'edit into: reverse of integration downgraded to \n\t\t    edit'
p3144
stRp3145
ag3
(g4
g5
(dp3146
g2494
S'11'
p3147
sg21
S'add into: reverse of branch downgraded to add'
p3148
stRp3149
ag3
(g4
g5
(dp3150
g2494
S'12'
p3151
sg21
S'edit from: merge that the user edited'
p3152
stRp3153
ag3
(g4
g5
(dp3154
g2494
S'13'
p3155
sg21
S'add from: branch downgraded to add'
p3156
stRp3157
ag3
(g4
g5
(dp3158
g2494
S'14'
p3159
sg21
S'moved from: reverse of renamed file'
p3160
stRp3161
ag3
(g4
g5
(dp3162
g2494
S'15'
p3163
sg21
S'moved into: file was renamed'
p3164
stRp3165
ag3
(g4
g5
(dp3166
g2494
S'16'
p3167
sg21
S"'delete' target rev ignoring non-deleted source"
p3168
stRp3169
ag3
(g4
g5
(dp3170
g2494
S'17'
p3171
sg21
S"non-deleted source ignored by 'delete' target rev"
p3172
stRp3173
ag3
(g4
g5
(dp3174
g2494
S'18'
p3175
sg21
S"'integrate' target rev ignoring deleted source"
p3176
stRp3177
ag3
(g4
g5
(dp3178
g2494
S'19'
p3179
sg21
S"deleted source ignored by 'integrate' target rev"
p3180
stRp3181
ag3
(g4
g5
(dp3182
g2494
S'20'
p3183
sg21
S'deleted branch ("branch from")'
p3184
stRp3185
ag3
(g4
g5
(dp3186
g2494
S'21'
p3187
sg21
S'deleted branch ("delete into")'
p3188
stRp3189
atRp3190
sg17
S'IntegHow'
p3191
sg2489
S'Integration methods'
p3192
sg19
S'flag'
p3193
sg21
S"Specifies how an integration was performed. Integrations\n\t\talways come in pairs: the 'forward' and 'reverse' records.\n\t\tAs a general rule, the forward records contain the word \n\t\t'from'; and the reverse records contain the word 'into'."
p3194
stRp3195
ag3
(g4
g5
(dp3196
g19
S'flag'
p3197
sg2489
S'Job status - defunct'
p3198
sg2491
g3
(g8
g9
(lp3199
g3
(g4
g5
(dp3200
g2494
S'0'
sg21
S'open'
p3201
stRp3202
ag3
(g4
g5
(dp3203
g2494
S'1'
sg21
S'closed'
p3204
stRp3205
ag3
(g4
g5
(dp3206
g2494
S'2'
sg21
S'suspended'
p3207
stRp3208
atRp3209
sg17
S'JobStat'
p3210
sg21
S'Old (pre-98.2) job status values.'
p3211
stRp3212
ag3
(g4
g5
(dp3213
g2489
S'A key name'
p3214
sg19
S'string'
p3215
sg17
S'Key'
p3216
sg21
S'A string representing the key name. Key names must \n\t\tcontain no spaces, contain no slashes, and be identifiers \n\t\t(cannot begin with a dash and cannot be all-numeric)'
p3217
stRp3218
ag3
(g4
g5
(dp3219
g19
S'flag'
p3220
sg2489
S'Types of mapping'
p3221
sg2491
g3
(g8
g9
(lp3222
g3
(g4
g5
(dp3223
g2494
S'0'
sg21
S'mapped-in (the default)'
p3224
stRp3225
ag3
(g4
g5
(dp3226
g2494
S'1'
sg21
S"mapped-out (mappings that start with '-')"
p3227
stRp3228
ag3
(g4
g5
(dp3229
g2494
S'2'
sg21
S"overlay (mappings that start with '+')"
p3230
stRp3231
ag3
(g4
g5
(dp3232
g2494
S'3'
sg21
S"haveMap (mappings that start with '$'). Used internally\n\t\t    only"
p3233
stRp3234
ag3
(g4
g5
(dp3235
g2494
S'4'
sg21
S"changeMap (mappings that start with '@')"
p3236
stRp3237
atRp3238
sg17
S'MapFlag'
p3239
sg21
S'Specifies how the files specified by a mapping should be\n\t\ttreated'
p3240
stRp3241
ag3
(g4
g5
(dp3242
g2489
S'A string representing a mapping'
p3243
sg19
S'string'
p3244
sg17
S'Mapping'
p3245
sg21
S'A Mapping is essentially a file name that may contain\n\t\twildcards'
p3246
stRp3247
ag3
(g4
g5
(dp3248
g2489
S'Maximum number of milliseconds to hold locks'
p3249
sg19
S'integer'
p3250
sg17
S'MaxLockTime'
p3251
sg21
S"The number of milliseconds for which a command may hold locks.\n\t\tCommands that take longer than this time period will abort. \n\t\tThe value 0 means 'unlimited'."
p3252
stRp3253
ag3
(g4
g5
(dp3254
g2489
S'Maximum number of results permitted'
p3255
sg19
S'integer'
p3256
sg17
S'MaxResults'
p3257
sg21
S"The number of results that commands run by the restricted\n\t\tuser are permitted to return. The value 0 means 'unlimited'."
p3258
stRp3259
ag3
(g4
g5
(dp3260
g2489
S'Maximum number of records scanned'
p3261
sg19
S'integer'
p3262
sg17
S'MaxScanRows'
p3263
sg21
S"The maximum number of records that the server may read\n\t\ton behalf of the restricted user. The value 0 means \n\t\t'unlimited'."
p3264
stRp3265
ag3
(g4
g5
(dp3266
g2489
S'Encoded hex string'
p3267
sg19
S'string'
p3268
sg17
S'Octet String'
p3269
sg21
S'A variable length encoded hex string. The first octet \n\t\tstores the length of the string.'
p3270
stRp3271
ag3
(g4
g5
(dp3272
g2489
S'The MD5 hash of a password'
p3273
sg19
S'string'
p3274
sg17
S'Password'
p3275
sg21
S'The MD5 hash of an encrypted password.'
p3276
stRp3277
ag3
(g4
g5
(dp3278
g2491
g3
(g8
g9
(lp3279
g3
(g4
g5
(dp3280
g2645
S'PermTypeBits'
p3281
sg17
S'None'
p3282
sg2494
S'0x0000'
p3283
sg21
S'none'
p3284
stRp3285
ag3
(g4
g5
(dp3286
g2645
S'PermTypeBits'
p3287
sg17
S'List'
p3288
sg2494
S'0x0001'
p3289
sg21
S'Grants list access'
p3290
stRp3291
ag3
(g4
g5
(dp3292
g2645
S'PermTypeBits'
p3293
sg17
S'Read'
p3294
sg2494
S'0x0002'
p3295
sg21
S'Grants read access'
p3296
stRp3297
ag3
(g4
g5
(dp3298
g2645
S'PermTypeBits'
p3299
sg17
S'Branch'
p3300
sg2494
S'0x0004'
p3301
sg21
S'Grants ability to branch/integ from'
p3302
stRp3303
ag3
(g4
g5
(dp3304
g2645
S'PermTypeBits'
p3305
sg17
S'Open'
p3306
sg2494
S'0x0008'
p3307
sg21
S'Grants open access'
p3308
stRp3309
ag3
(g4
g5
(dp3310
g2645
S'PermTypeBits'
p3311
sg17
S'Write'
p3312
sg2494
S'0x0010'
p3313
sg21
S'Grants write access'
p3314
stRp3315
ag3
(g4
g5
(dp3316
g2645
S'PermTypeBits'
p3317
sg17
S'Review'
p3318
sg2494
S'0x0020'
p3319
sg21
S'Grants review access'
p3320
stRp3321
ag3
(g4
g5
(dp3322
g2645
S'PermTypeBits'
p3323
sg17
S'Admin'
p3324
sg2494
S'0x0080'
p3325
sg21
S'Grants admin access'
p3326
stRp3327
ag3
(g4
g5
(dp3328
g2645
S'PermTypeBits'
p3329
sg17
S'Super'
p3330
sg2494
S'0x0040'
p3331
sg21
S'Grants super-user access'
p3332
stRp3333
atRp3334
sg17
S'Perm'
p3335
sg2645
g3
(g4
g5
(dp3336
g17
S'PermTypeBits'
p3337
sg2494
S'0x00FF'
p3338
sg21
S'Bits used to store granted permissions'
p3339
stRp3340
sg2489
S'Bitmask of permissions'
p3341
sg19
S'bitmask'
p3342
sg21
S'A bitmask of granted permissions'
p3343
stRp3344
ag3
(g4
g5
(dp3345
g19
S'flag'
p3346
sg2489
S'Archive pull transfer status'
p3347
sg2491
g3
(g8
g9
(lp3348
g3
(g4
g5
(dp3349
g17
S'new'
p3350
sg2494
S'new'
p3351
sg21
S'new transfer'
p3352
stRp3353
ag3
(g4
g5
(dp3354
g17
S'active'
p3355
sg2494
S'active'
p3356
sg21
S'active transfer'
p3357
stRp3358
ag3
(g4
g5
(dp3359
g17
S'done'
p3360
sg2494
S'done'
p3361
sg21
S'completed transfer'
p3362
stRp3363
ag3
(g4
g5
(dp3364
g17
S'error'
p3365
sg2494
S'error'
p3366
sg21
S'errored transfer'
p3367
stRp3368
ag3
(g4
g5
(dp3369
g17
S'restart'
p3370
sg2494
S'restart'
p3371
sg21
S'restarted transfer'
p3372
stRp3373
ag3
(g4
g5
(dp3374
g17
S'cancelled'
p3375
sg2494
S'cancelled'
p3376
sg21
S'cancelled transfer'
p3377
stRp3378
atRp3379
sg17
S'PullStatus'
p3380
sg21
S'The status of an archive pull transfer'
p3381
stRp3382
ag3
(g4
g5
(dp3383
g2489
S'A remote name'
p3384
sg19
S'string'
p3385
sg17
S'RemoteID'
p3386
sg21
S'A string representing the name of a remote spec'
p3387
stRp3388
ag3
(g4
g5
(dp3389
g19
S'flag'
p3390
sg2489
S'Resolve actions'
p3391
sg2491
g3
(g8
g9
(lp3392
g3
(g4
g5
(dp3393
g2494
S'0'
sg21
S'Content resolve'
p3394
stRp3395
ag3
(g4
g5
(dp3396
g2494
S'1'
sg21
S'Filetype resolve'
p3397
stRp3398
ag3
(g4
g5
(dp3399
g2494
S'2'
sg21
S'Branch resolve'
p3400
stRp3401
ag3
(g4
g5
(dp3402
g2494
S'3'
sg21
S'Delete resolve'
p3403
stRp3404
ag3
(g4
g5
(dp3405
g2494
S'4'
sg21
S'Move resolve'
p3406
stRp3407
ag3
(g4
g5
(dp3408
g2494
S'5'
sg21
S'Attribute resolve'
p3409
stRp3410
ag3
(g4
g5
(dp3411
g2494
S'6'
sg21
S'Charset resolve'
p3412
stRp3413
atRp3414
sg17
S'ResolveState'
p3415
sg21
S'Pending or completed resolve actions.'
p3416
stRp3417
ag3
(g4
g5
(dp3418
g19
S'flag'
p3419
sg2489
S'Resolve methods (obsolete in 2011.1, replaced by ResolveState)'
p3420
sg2491
g3
(g8
g9
(lp3421
g3
(g4
g5
(dp3422
g2494
S'0'
sg21
S'Not yet resolved'
p3423
stRp3424
ag3
(g4
g5
(dp3425
g2494
S'1'
sg21
S'Resolved manually'
p3426
stRp3427
ag3
(g4
g5
(dp3428
g2494
S'2'
sg21
S'Resolved automatically as part of a branch'
p3429
stRp3430
ag3
(g4
g5
(dp3431
g2494
S'3'
sg21
S'Resolved automatically as part of a delete'
p3432
stRp3433
ag3
(g4
g5
(dp3434
g2494
S'4'
sg21
S'Resolved automatically as part of a move'
p3435
stRp3436
atRp3437
sg17
S'ResolvedStatus'
p3438
sg21
S'Specifies how the user resolved merge operations.'
p3439
stRp3440
ag3
(g4
g5
(dp3441
g2489
S'A revision number'
p3442
sg19
S'integer'
p3443
sg17
S'Rev'
p3444
sg21
S"The positive integer number of a specific revision of a file. \n\t\tThe number 0 represents '#none'."
p3445
stRp3446
ag3
(g4
g5
(dp3447
g2491
g3
(g8
g9
(lp3448
g3
(g4
g5
(dp3449
g2645
S'RevStatusBits'
p3450
sg2494
S'0x0000'
p3451
sg21
S'single revision with content'
p3452
stRp3453
ag3
(g4
g5
(dp3454
g2645
S'RevStatusBits'
p3455
sg2494
S'0x0001'
p3456
sg21
S'single revision lazy copied'
p3457
stRp3458
ag3
(g4
g5
(dp3459
g2645
S'RevStatusBits'
p3460
sg2494
S'0x0002'
p3461
sg21
S'revision task sparse'
p3462
stRp3463
ag3
(g4
g5
(dp3464
g2645
S'RevStatusBits'
p3465
sg2494
S'0x0004'
p3466
sg21
S'revision task branch'
p3467
stRp3468
ag3
(g4
g5
(dp3469
g2645
S'RevCharsetBits'
p3470
sg2494
S'0'
sg21
S'NONE'
p3471
stRp3472
ag3
(g4
g5
(dp3473
g2645
S'RevCharsetBits'
p3474
sg2494
S'1'
sg21
S'UTF_8'
p3475
stRp3476
ag3
(g4
g5
(dp3477
g2645
S'RevCharsetBits'
p3478
sg2494
S'2'
sg21
S'ISO8859_1'
p3479
stRp3480
ag3
(g4
g5
(dp3481
g2645
S'RevCharsetBits'
p3482
sg2494
S'3'
sg21
S'UTF_16'
p3483
stRp3484
ag3
(g4
g5
(dp3485
g2645
S'RevCharsetBits'
p3486
sg2494
S'4'
sg21
S'SHIFTJIS'
p3487
stRp3488
ag3
(g4
g5
(dp3489
g2645
S'RevCharsetBits'
p3490
sg2494
S'5'
sg21
S'EUCJP'
p3491
stRp3492
ag3
(g4
g5
(dp3493
g2645
S'RevCharsetBits'
p3494
sg2494
S'6'
sg21
S'WIN_US_ANSI'
p3495
stRp3496
ag3
(g4
g5
(dp3497
g2645
S'RevCharsetBits'
p3498
sg2494
S'7'
sg21
S'WIN_US_OEM'
p3499
stRp3500
ag3
(g4
g5
(dp3501
g2645
S'RevCharsetBits'
p3502
sg2494
S'8'
sg21
S'MACOS_ROMAN'
p3503
stRp3504
ag3
(g4
g5
(dp3505
g2645
S'RevCharsetBits'
p3506
sg2494
S'9'
sg21
S'ISO8859_15'
p3507
stRp3508
ag3
(g4
g5
(dp3509
g2645
S'RevCharsetBits'
p3510
sg2494
S'10'
p3511
sg21
S'ISO8859_5'
p3512
stRp3513
ag3
(g4
g5
(dp3514
g2645
S'RevCharsetBits'
p3515
sg2494
S'11'
p3516
sg21
S'KOI8_R'
p3517
stRp3518
ag3
(g4
g5
(dp3519
g2645
S'RevCharsetBits'
p3520
sg2494
S'12'
p3521
sg21
S'WIN_CP_1251'
p3522
stRp3523
ag3
(g4
g5
(dp3524
g2645
S'RevCharsetBits'
p3525
sg2494
S'13'
p3526
sg21
S'UTF_16_LE'
p3527
stRp3528
ag3
(g4
g5
(dp3529
g2645
S'RevCharsetBits'
p3530
sg2494
S'14'
p3531
sg21
S'UTF_16_BE'
p3532
stRp3533
ag3
(g4
g5
(dp3534
g2645
S'RevCharsetBits'
p3535
sg2494
S'15'
p3536
sg21
S'UTF_16_LE_BOM'
p3537
stRp3538
ag3
(g4
g5
(dp3539
g2645
S'RevCharsetBits'
p3540
sg2494
S'16'
p3541
sg21
S'UTF_16_BE_BOM'
p3542
stRp3543
ag3
(g4
g5
(dp3544
g2645
S'RevCharsetBits'
p3545
sg2494
S'17'
p3546
sg21
S'UTF_16_BOM'
p3547
stRp3548
ag3
(g4
g5
(dp3549
g2645
S'RevCharsetBits'
p3550
sg2494
S'18'
p3551
sg21
S'UTF_8_BOM'
p3552
stRp3553
ag3
(g4
g5
(dp3554
g2645
S'RevCharsetBits'
p3555
sg2494
S'19'
p3556
sg21
S'UTF_32'
p3557
stRp3558
ag3
(g4
g5
(dp3559
g2645
S'RevCharsetBits'
p3560
sg2494
S'20'
p3561
sg21
S'UTF_32_LE'
p3562
stRp3563
ag3
(g4
g5
(dp3564
g2645
S'RevCharsetBits'
p3565
sg2494
S'21'
p3566
sg21
S'UTF_32_BE'
p3567
stRp3568
ag3
(g4
g5
(dp3569
g2645
S'RevCharsetBits'
p3570
sg2494
S'22'
p3571
sg21
S'UTF_32_LE_BOM'
p3572
stRp3573
ag3
(g4
g5
(dp3574
g2645
S'RevCharsetBits'
p3575
sg2494
S'23'
p3576
sg21
S'UTF_32_BE_BOM'
p3577
stRp3578
ag3
(g4
g5
(dp3579
g2645
S'RevCharsetBits'
p3580
sg2494
S'24'
p3581
sg21
S'UTF_32_BOM'
p3582
stRp3583
ag3
(g4
g5
(dp3584
g2645
S'RevCharsetBits'
p3585
sg2494
S'25'
p3586
sg21
S'UTF_8_UNCHECKED'
p3587
stRp3588
ag3
(g4
g5
(dp3589
g2645
S'RevCharsetBits'
p3590
sg2494
S'26'
p3591
sg21
S'UTF_8_UNCHECKED_BOM'
p3592
stRp3593
ag3
(g4
g5
(dp3594
g2645
S'RevCharsetBits'
p3595
sg2494
S'27'
p3596
sg21
S'CP949'
p3597
stRp3598
ag3
(g4
g5
(dp3599
g2645
S'RevCharsetBits'
p3600
sg2494
S'28'
p3601
sg21
S'CP936'
p3602
stRp3603
ag3
(g4
g5
(dp3604
g2645
S'RevCharsetBits'
p3605
sg2494
S'29'
p3606
sg21
S'CP950'
p3607
stRp3608
ag3
(g4
g5
(dp3609
g2645
S'RevCharsetBits'
p3610
sg2494
S'30'
p3611
sg21
S'CP850'
p3612
stRp3613
ag3
(g4
g5
(dp3614
g2645
S'RevCharsetBits'
p3615
sg2494
S'31'
p3616
sg21
S'CP858'
p3617
stRp3618
atRp3619
sg17
S'RevStatus'
p3620
sg2645
g3
(g8
g9
(lp3621
g3
(g4
g5
(dp3622
g17
S'RevStatusBits'
p3623
sg2494
S'0x000F'
p3624
sg21
S'Bits used to store revision status'
p3625
stRp3626
ag3
(g4
g5
(dp3627
g17
S'RevCharsetBits'
p3628
sg2494
S'0x007F'
p3629
sg21
S'Bits used to store revision charset (high 8 bits). Value shifted right 24 bits before applying mask'
p3630
stRp3631
atRp3632
sg2489
S'A revision status'
p3633
sg19
S'bitmask'
p3634
sg21
S'Lazy copy, task stream promotion, and charset status'
p3635
stRp3636
ag3
(g4
g5
(dp3637
g2489
S'Type of reviewer'
p3638
sg19
S'integer'
p3639
sg17
S'Reviewer'
p3640
sg21
S'The type of reviewer. Currently there is only one type of\n\t\treviewer and 0 is the only valid value.'
p3641
stRp3642
ag3
(g4
g5
(dp3643
g19
S'flag'
p3644
sg2489
S'The type of server'
p3645
sg2491
g3
(g8
g9
(lp3646
g3
(g4
g5
(dp3647
g2494
S'0'
sg21
S'server'
p3648
stRp3649
ag3
(g4
g5
(dp3650
g2494
S'1'
sg21
S'proxy'
p3651
stRp3652
ag3
(g4
g5
(dp3653
g2494
S'2'
sg21
S'broker'
p3654
stRp3655
atRp3656
sg17
S'ServerType'
p3657
sg21
S'The type of server'
p3658
stRp3659
ag3
(g4
g5
(dp3660
g2491
g3
(g8
g9
(lp3661
g3
(g4
g5
(dp3662
g2645
S'Service Set Value'
p3663
sg2494
S'0x0903'
p3664
sg21
S'standard \t\t( db-read | db-write | rmt-depot | rmt-journal )'
p3665
stRp3666
ag3
(g4
g5
(dp3667
g2645
S'Service Set Value'
p3668
sg2494
S'0x0045'
p3669
sg21
S'replica \t\t( db-read | db-replication | file-replication | rmt-depot | rmt-journal )'
p3670
stRp3671
ag3
(g4
g5
(dp3672
g2645
S'Service Set Value'
p3673
sg2494
S'0x0030'
p3674
sg21
S'broker ( brokering | forwarding )'
p3675
stRp3676
ag3
(g4
g5
(dp3677
g2645
S'Service Set Value'
p3678
sg2494
S'0x00A0'
p3679
sg21
S'proxy ( forwarding | file-cacheing )'
p3680
stRp3681
ag3
(g4
g5
(dp3682
g2645
S'Service Set Value'
p3683
sg2494
S'0x00E5'
p3684
sg21
S'forwarding-replica ( db-read | db-replication | forwarding | file-replication | file-cacheing | rmt-depot | rmt-journal )'
p3685
stRp3686
ag3
(g4
g5
(dp3687
g2645
S'Service Set Value'
p3688
sg2494
S'0x004D'
p3689
sg21
S'build-server ( db-read | db-replicaton | bound-clients | file-replication | rmt-depot | rmt-journal )'
p3690
stRp3691
ag3
(g4
g5
(dp3692
g2645
S'Service Set Value'
p3693
sg2494
S'0x0203'
p3694
sg21
S'P4AUTH ( db-read | db-write | rmt-auth )'
p3695
stRp3696
ag3
(g4
g5
(dp3697
g2645
S'Service Set Value'
p3698
sg2494
S'0x0403'
p3699
sg21
S'P4CHANGE ( db-read | db-write | rmt-change )'
p3700
stRp3701
ag3
(g4
g5
(dp3702
g2645
S'Service Set Value'
p3703
sg2494
S'0x19ED'
p3704
sg21
S'edge-server ( db-read | db-replication | bound-clients | forwarding | file-replication | file-cacheing | rmt-depot | rmt-journal | local-opens )'
p3705
stRp3706
ag3
(g4
g5
(dp3707
g2645
S'Service Set Value'
p3708
sg2494
S'0x2F03'
p3709
sg21
S'commit-server ( db-read | db-write | rmt-depot | rmt-journal | rmt-change | rmt-auth | commit-server )'
p3710
stRp3711
ag3
(g4
g5
(dp3712
g2645
S'Service Set Value'
p3713
sg2494
S'0x6F03'
p3714
sg21
S'depot-master ( db-read | db-write | rmt-depot | rmt-journal | rmt-change | rmt-auth | commit-server | p4zk-managed )'
p3715
stRp3716
ag3
(g4
g5
(dp3717
g2645
S'Service Set Value'
p3718
sg2494
S'0xC945'
p3719
sg21
S'depot-standby ( db-read | db-replication | file-replication | rmt-depot | rmt-journal | journal-copy | p4zk-managed )'
p3720
stRp3721
ag3
(g4
g5
(dp3722
g2645
S'Service Set Value'
p3723
sg2494
S'0x59ED'
p3724
sg21
S'workspace-server ( db-read | db-replication | bound-clients | forwarding | file-replication | file-cacheing | rmt-depot | rmt-journal | local-opens | p4zk-managed )'
p3725
stRp3726
ag3
(g4
g5
(dp3727
g2645
S'Service Set Value'
p3728
sg2494
S'0x8945'
p3729
sg21
S'standby ( db-read | db-replication | file-replication | rmt-depot | rmt-journal | journal-copy )'
p3730
stRp3731
ag3
(g4
g5
(dp3732
g2645
S'Service Set Value'
p3733
sg2494
S'0x89E5'
p3734
sg21
S'forwarding-standby ( db-read | db-replication | forwarding | file-replication | file-cacheing | rmt-depot | rmt-journal | journal-copy )'
p3735
stRp3736
ag3
(g4
g5
(dp3737
g2645
S'Service Set Value'
p3738
sg2494
S'0x4030'
p3739
sg21
S'workspace-router ( brokering | forwarding | p4zk-managed )'
p3740
stRp3741
ag3
(g4
g5
(dp3742
g2645
S'Service Set Value'
p3743
sg2494
S'0x10003'
p3744
sg21
S'local ( db-read | db-write | dvcs-local )'
p3745
stRp3746
ag3
(g4
g5
(dp3747
g2645
S'Service Property'
p3748
sg2494
S'0x0001'
p3749
sg21
S'db-read'
p3750
stRp3751
ag3
(g4
g5
(dp3752
g2645
S'Service Property'
p3753
sg2494
S'0x0002'
p3754
sg21
S'db-write'
p3755
stRp3756
ag3
(g4
g5
(dp3757
g2645
S'Service Property'
p3758
sg2494
S'0x0004'
p3759
sg21
S'db-replication'
p3760
stRp3761
ag3
(g4
g5
(dp3762
g2645
S'Service Property'
p3763
sg2494
S'0x0008'
p3764
sg21
S'bound-clients'
p3765
stRp3766
ag3
(g4
g5
(dp3767
g2645
S'Service Property'
p3768
sg2494
S'0x0010'
p3769
sg21
S'brokering'
p3770
stRp3771
ag3
(g4
g5
(dp3772
g2645
S'Service Property'
p3773
sg2494
S'0x0020'
p3774
sg21
S'forwarding'
p3775
stRp3776
ag3
(g4
g5
(dp3777
g2645
S'Service Property'
p3778
sg2494
S'0x0040'
p3779
sg21
S'file-replication'
p3780
stRp3781
ag3
(g4
g5
(dp3782
g2645
S'Service Property'
p3783
sg2494
S'0x0080'
p3784
sg21
S'file-cacheing'
p3785
stRp3786
ag3
(g4
g5
(dp3787
g2645
S'Service Property'
p3788
sg2494
S'0x0100'
p3789
sg21
S'rmt-depot'
p3790
stRp3791
ag3
(g4
g5
(dp3792
g2645
S'Service Property'
p3793
sg2494
S'0x0200'
p3794
sg21
S'rmt-auth'
p3795
stRp3796
ag3
(g4
g5
(dp3797
g2645
S'Service Property'
p3798
sg2494
S'0x0400'
p3799
sg21
S'rmt-change'
p3800
stRp3801
ag3
(g4
g5
(dp3802
g2645
S'Service Property'
p3803
sg2494
S'0x0800'
p3804
sg21
S'rmt-journal'
p3805
stRp3806
ag3
(g4
g5
(dp3807
g2645
S'Service Property'
p3808
sg2494
S'0x1000'
p3809
sg21
S'local-opens'
p3810
stRp3811
ag3
(g4
g5
(dp3812
g2645
S'Service Property'
p3813
sg2494
S'0x2000'
p3814
sg21
S'commit-server'
p3815
stRp3816
ag3
(g4
g5
(dp3817
g2645
S'Service Property'
p3818
sg2494
S'0x4000'
p3819
sg21
S'p4zk-managed'
p3820
stRp3821
ag3
(g4
g5
(dp3822
g2645
S'Service Property'
p3823
sg2494
S'0x8000'
p3824
sg21
S'journal-copy'
p3825
stRp3826
ag3
(g4
g5
(dp3827
g2645
S'Service Property'
p3828
sg2494
S'0x10000'
p3829
sg21
S'dvcs-local'
p3830
stRp3831
atRp3832
sg17
S'ServerServiceType'
p3833
sg2645
g3
(g8
g9
(lp3834
g3
(g4
g5
(dp3835
g17
S'Service Set Value'
p3836
sg2494
S'None'
p3837
sg21
S"The server service type setting is generated by OR'ing the generic ServerServiceProperties defined below"
p3838
stRp3839
ag3
(g4
g5
(dp3840
g17
S'Service Property'
p3841
sg2494
S'None'
p3842
sg21
S'ServerServiceProperties: Bits used to identify generic server properties'
p3843
stRp3844
atRp3845
sg2489
S'The type of server service'
p3846
sg19
S'bitmask'
p3847
sg21
S'The services offered by a type of service.'
p3848
stRp3849
ag3
(g4
g5
(dp3850
g19
S'flag'
p3851
sg2489
S'Stash type'
p3852
sg2491
g3
(g8
g9
(lp3853
g3
(g4
g5
(dp3854
g2494
S'0'
sg21
S'switch: A shelf with work-in-progress for a particular stream/branch'
p3855
stRp3856
ag3
(g4
g5
(dp3857
g2494
S'1'
sg21
S"tangent: Work-in-progress relocated by 'p4 fetch -t'. Consumed and removed by 'p4 resubmit'"
p3858
stRp3859
atRp3860
sg17
S'StashType'
p3861
sg21
S'Stash type'
p3862
stRp3863
ag3
(g4
g5
(dp3864
g19
S'flag'
p3865
sg2489
S'Server specification view type'
p3866
sg2491
g3
(g8
g9
(lp3867
g3
(g4
g5
(dp3868
g2494
S'0'
sg21
S'ClientDataFilter'
p3869
stRp3870
ag3
(g4
g5
(dp3871
g2494
S'1'
sg21
S'RevisionDataFilter'
p3872
stRp3873
ag3
(g4
g5
(dp3874
g2494
S'2'
sg21
S'ArchiveDataFilter'
p3875
stRp3876
atRp3877
sg17
S'SvrViewType'
p3878
sg21
S'Server specification view type'
p3879
stRp3880
ag3
(g4
g5
(dp3881
g2491
g3
(g8
g9
(lp3882
g3
(g4
g5
(dp3883
g2645
S'Stream Status'
p3884
sg2494
S'0x0000'
p3885
sg21
S'Clear cache'
p3886
stRp3887
ag3
(g4
g5
(dp3888
g2645
S'Stream Status'
p3889
sg2494
S'0x0001'
p3890
sg21
S'Needs copy'
p3891
stRp3892
ag3
(g4
g5
(dp3893
g2645
S'Stream Status'
p3894
sg2494
S'0x0002'
p3895
sg21
S'Copy up-to-date'
p3896
stRp3897
ag3
(g4
g5
(dp3898
g2645
S'Stream Status'
p3899
sg2494
S'0x0004'
p3900
sg21
S'Needs merge'
p3901
stRp3902
ag3
(g4
g5
(dp3903
g2645
S'Stream Status'
p3904
sg2494
S'0x0008'
p3905
sg21
S'Merge up-to-date'
p3906
stRp3907
atRp3908
sg17
S'StreamStatus'
p3909
sg2645
g3
(g4
g5
(dp3910
g17
S'Stream Status'
p3911
sg2494
S'Copy: 0x0003, Merge: 0x000C'
p3912
sg21
S'Bits used to store the stream integration status'
p3913
stRp3914
sg2489
S'Stream integration status'
p3915
sg19
S'bitmask'
p3916
sg21
S'The stream integration status.'
p3917
stRp3918
ag3
(g4
g5
(dp3919
g19
S'flag'
p3920
sg2489
S'Type of stream path'
p3921
sg2491
g3
(g8
g9
(lp3922
g3
(g4
g5
(dp3923
g2494
S'0'
sg21
S'share'
p3924
stRp3925
ag3
(g4
g5
(dp3926
g2494
S'1'
sg21
S'isolate'
p3927
stRp3928
ag3
(g4
g5
(dp3929
g2494
S'2'
sg21
S'import'
p3930
stRp3931
ag3
(g4
g5
(dp3932
g2494
S'3'
sg21
S'exclude'
p3933
stRp3934
ag3
(g4
g5
(dp3935
g2494
S'4'
sg21
S'remapped'
p3936
stRp3937
ag3
(g4
g5
(dp3938
g2494
S'5'
sg21
S'ignored'
p3939
stRp3940
ag3
(g4
g5
(dp3941
g2494
S'6'
sg21
S'inclusive'
p3942
stRp3943
ag3
(g4
g5
(dp3944
g2494
S'7'
sg21
S'import+'
p3945
stRp3946
atRp3947
sg17
S'StreamPathType'
p3948
sg21
S'The path type for file paths in a stream view.'
p3949
stRp3950
ag3
(g4
g5
(dp3951
g19
S'flag'
p3952
sg2489
S'Type of stream'
p3953
sg2491
g3
(g8
g9
(lp3954
g3
(g4
g5
(dp3955
g2494
S'0'
sg21
S'mainline'
p3956
stRp3957
ag3
(g4
g5
(dp3958
g2494
S'1'
sg21
S'release'
p3959
stRp3960
ag3
(g4
g5
(dp3961
g2494
S'2'
sg21
S'development'
p3962
stRp3963
ag3
(g4
g5
(dp3964
g2494
S'3'
sg21
S'virtual'
p3965
stRp3966
ag3
(g4
g5
(dp3967
g2494
S'4'
sg21
S'task'
p3968
stRp3969
ag3
(g4
g5
(dp3970
g2494
S'5'
sg21
S'task - unloaded'
p3971
stRp3972
atRp3973
sg17
S'StreamType'
p3974
sg21
S'The type of stream.'
p3975
stRp3976
ag3
(g4
g5
(dp3977
g19
S'flag'
p3978
sg2489
S'Strength check of a password'
p3979
sg2491
g3
(g8
g9
(lp3980
g3
(g4
g5
(dp3981
g2494
S'0'
sg21
S'Strength unknown'
p3982
stRp3983
ag3
(g4
g5
(dp3984
g2494
S'1'
sg21
S'Password is strong'
p3985
stRp3986
ag3
(g4
g5
(dp3987
g2494
S'2'
sg21
S'Unset'
p3988
stRp3989
atRp3990
sg17
S'Strength'
p3991
sg21
S"Whether or not a user's password has been tested for strength."
p3992
stRp3993
ag3
(g4
g5
(dp3994
S'restriction'
p3995
g3
(g8
g9
(lp3996
S'Cannot be empty'
p3997
aS'Cannot consist solely of a dash (-)'
p3998
aS'Cannot be all-numeric'
p3999
aS'Cannot contain non-printable characters'
p4000
aS'Spaces are replaced with underscores ( _ )'
p4001
aS'Revision characters (# and @) are prohibited'
p4002
aS'Slashes (/) are prohibited'
p4003
aS'Wildcards (... and *) are prohibited'
p4004
atRp4005
sg2489
S'A string up to 1024 characters long'
p4006
sg19
S'string'
p4007
sg17
S'String'
p4008
sg21
S'A string up to 1024 characters in length.  Depending on the \n\t\tcontext in which the string is used, restrictions \n\t\tmay apply. Strings are often used as key fields in the \n\t\tschema.'
p4009
stRp4010
ag3
(g4
g5
(dp4011
g19
S'flag'
p4012
sg2489
S'Tamper-state of workspace file'
p4013
sg2491
g3
(g8
g9
(lp4014
g3
(g4
g5
(dp4015
g2494
S'0'
sg21
S'Do not check for tampering'
p4016
stRp4017
ag3
(g4
g5
(dp4018
g2494
S'1'
sg21
S'Check for tampering'
p4019
stRp4020
ag3
(g4
g5
(dp4021
g2494
S'2'
sg21
S'Tamper-check failed'
p4022
stRp4023
atRp4024
sg17
S'TamperCheck'
p4025
sg21
S'Indicates the tamper-state of a file in a workspace. This\n\t\tis used to decide whether or not to check the file, and\n\t\tif checked, to hold the result.'
p4026
stRp4027
ag3
(g4
g5
(dp4028
g2489
S'A string value'
p4029
sg19
S'string'
p4030
sg17
S'Text'
p4031
sg21
S'A text string value - used to hold longer blocks of text.'
p4032
stRp4033
ag3
(g4
g5
(dp4034
g2489
S'The id of a group of traits'
p4035
sg19
S'integer'
p4036
sg17
S'TraitLot'
p4037
sg21
S'An integer identifying a group of traits which may be\n\t\tshared by several revisions.'
p4038
stRp4039
ag3
(g4
g5
(dp4040
g19
S'flag'
p4041
sg2489
S'A type of trait'
p4042
sg2491
g3
(g8
g9
(lp4043
g3
(g4
g5
(dp4044
g2494
S'0'
sg21
S'Special trait for reference counting'
p4045
stRp4046
ag3
(g4
g5
(dp4047
g2494
S'1'
sg21
S'Binary trait'
p4048
stRp4049
ag3
(g4
g5
(dp4050
g2494
S'2'
sg21
S'Binary trait that gets propagated'
p4051
stRp4052
atRp4053
sg17
S'TraitType'
p4054
sg21
S'The type of trait.'
p4055
stRp4056
ag3
(g4
g5
(dp4057
g19
S'flag'
p4058
sg2489
S'A type of trigger'
p4059
sg2491
g3
(g8
g9
(lp4060
g3
(g4
g5
(dp4061
g2494
S'0'
sg21
S'change-submit (formerly pre-submit triggers)'
p4062
stRp4063
ag3
(g4
g5
(dp4064
g2494
S'1'
sg21
S'change-content'
p4065
stRp4066
ag3
(g4
g5
(dp4067
g2494
S'2'
sg21
S'change-commit'
p4068
stRp4069
ag3
(g4
g5
(dp4070
g2494
S'3'
sg21
S'form-in'
p4071
stRp4072
ag3
(g4
g5
(dp4073
g2494
S'4'
sg21
S'form-out'
p4074
stRp4075
ag3
(g4
g5
(dp4076
g2494
S'5'
sg21
S'form-save'
p4077
stRp4078
ag3
(g4
g5
(dp4079
g2494
S'6'
sg21
S'form-delete'
p4080
stRp4081
ag3
(g4
g5
(dp4082
g2494
S'7'
sg21
S'form-commit'
p4083
stRp4084
ag3
(g4
g5
(dp4085
g2494
S'8'
sg21
S'auth-check'
p4086
stRp4087
ag3
(g4
g5
(dp4088
g2494
S'9'
sg21
S'auth-check-sso'
p4089
stRp4090
ag3
(g4
g5
(dp4091
g2494
S'10'
p4092
sg21
S'auth-set'
p4093
stRp4094
ag3
(g4
g5
(dp4095
g2494
S'11'
p4096
sg21
S'fix-add'
p4097
stRp4098
ag3
(g4
g5
(dp4099
g2494
S'12'
p4100
sg21
S'fix-delete'
p4101
stRp4102
ag3
(g4
g5
(dp4103
g2494
S'13'
p4104
sg21
S'archive'
p4105
stRp4106
ag3
(g4
g5
(dp4107
g2494
S'14'
p4108
sg21
S'shelve-submit'
p4109
stRp4110
ag3
(g4
g5
(dp4111
g2494
S'15'
p4112
sg21
S'shelve-commit'
p4113
stRp4114
ag3
(g4
g5
(dp4115
g2494
S'16'
p4116
sg21
S'shelve-delete'
p4117
stRp4118
ag3
(g4
g5
(dp4119
g2494
S'17'
p4120
sg21
S'service-check'
p4121
stRp4122
ag3
(g4
g5
(dp4123
g2494
S'18'
p4124
sg21
S'edge-submit'
p4125
stRp4126
ag3
(g4
g5
(dp4127
g2494
S'19'
p4128
sg21
S'edge-content'
p4129
stRp4130
ag3
(g4
g5
(dp4131
g2494
S'20'
p4132
sg21
S'change-failed'
p4133
stRp4134
ag3
(g4
g5
(dp4135
g2494
S'21'
p4136
sg21
S'command'
p4137
stRp4138
atRp4139
sg17
S'Trigger'
p4140
sg21
S'The type of a trigger.'
p4141
stRp4142
ag3
(g4
g5
(dp4143
g2489
S'A user or group name'
p4144
sg21
S'The name of a Perforce user or group.'
p4145
sg19
S'string'
p4146
sg17
S'User'
p4147
sg165
S'String'
p4148
stRp4149
ag3
(g4
g5
(dp4150
g19
S'flag'
p4151
sg2489
S'User functionality level'
p4152
sg2491
g3
(g8
g9
(lp4153
g3
(g4
g5
(dp4154
g2494
S'0'
sg21
S'standard'
p4155
stRp4156
ag3
(g4
g5
(dp4157
g2494
S'1'
sg21
S'service'
p4158
stRp4159
ag3
(g4
g5
(dp4160
g2494
S'2'
sg21
S'operator'
p4161
stRp4162
atRp4163
sg17
S'UserLevel'
p4164
sg21
S'User functionality level'
p4165
stRp4166
ag3
(g4
g5
(dp4167
g2491
g3
(g8
g9
(lp4168
g3
(g4
g5
(dp4169
g2645
S'UserTypeBits'
p4170
sg17
S'User'
p4171
sg2494
S'0x0001'
p4172
sg21
S'User is an ordinary user'
p4173
stRp4174
ag3
(g4
g5
(dp4175
g2645
S'UserTypeBits'
p4176
sg17
S'SubGroup'
p4177
sg2494
S'0x0002'
p4178
sg21
S'Group is a sub-group'
p4179
stRp4180
ag3
(g4
g5
(dp4181
g2645
S'UserTypeBits'
p4182
sg17
S'Owner'
p4183
sg2494
S'0x0004'
p4184
sg21
S'User is the owner of a group'
p4185
stRp4186
atRp4187
sg17
S'UserType'
p4188
sg2645
g3
(g4
g5
(dp4189
g17
S'UserTypeBits'
p4190
sg2494
S'0x0007'
p4191
sg21
S'Bits used to store the role of a user in a group'
p4192
stRp4193
sg2489
S'The role of a user within a group'
p4194
sg19
S'bitmask'
p4195
sg21
S'The role of a user (or group) within a group.'
p4196
stRp4197
ag3
(g4
g5
(dp4198
g2489
S'A user or group name with wildcards'
p4199
sg21
S'A user/group name that may contain wildcards (*)'
p4200
sg19
S'string'
p4201
sg17
S'UserWild'
p4202
sg165
S'User'
p4203
stRp4204
ag3
(g4
g5
(dp4205
g2489
S'A number or a string'
p4206
sg19
S'string'
p4207
sg17
S'Value'
p4208
sg21
S'A number, stored in a string, or a string'
p4209
stRp4210
atRp4211
stRp4212
s.