(dp1
S'tables'
p2
ccopy_reg
_reconstructor
p3
(clib.sqUtils
Storage
p4
c__builtin__
dict
p5
(dp6
S'table'
p7
g3
(clib.sqUtils
Lst
p8
c__builtin__
list
p9
(lp10
g3
(g4
g5
(dp11
S'version'
p12
S'1'
sS'keying'
p13
S'serverName, name'
p14
sS'name'
p15
S'db.config'
p16
sS'type'
p17
S'Config'
p18
sS'lockseq'
p19
S'1'
sS'desc'
p20
S'Perforce server configurations table'
p21
stRp22
ag3
(g4
g5
(dp23
g12
S'1'
sg13
S'name'
p24
sg15
S'db.counters'
p25
sg17
S'Counters'
p26
sg19
S'2'
sg20
S'Perforce counters table'
p27
stRp28
ag3
(g4
g5
(dp29
g12
S'1'
sg13
S'name'
p30
sg15
S'db.nameval'
p31
sg17
S'Keys'
p32
sg19
S'3'
sg20
S'A table to store key/value pairs'
p33
stRp34
ag3
(g4
g5
(dp35
g12
S'0'
sg13
S'seq'
p36
sg15
S'db.logger'
p37
sg17
S'Logger'
p38
sg19
S'4'
sg20
S"Support for 'p4 logger' command. Logs any changes to \n\t\tchangelists and jobs"
p39
stRp40
ag3
(g4
g5
(dp41
g12
S'0'
sg13
S'id'
p42
sg15
S'db.server'
p43
sg17
S'Server'
p44
sg19
S'5'
sg20
S'Perforce server specifications'
p45
stRp46
ag3
(g4
g5
(dp47
g12
S'0'
sg13
S'id, type, seq'
p48
sg15
S'db.svrview'
p49
sg17
S'SvrView'
p50
sg19
S'6'
sg20
S'View data for servers specifications'
p51
stRp52
ag3
(g4
g5
(dp53
g12
S'6'
sg13
S'user'
p54
sg15
S'db.user.rp'
p55
sg17
S'User'
p56
sg19
S'7'
sg20
S"Used by replica server's to store login information"
p57
stRp58
ag3
(g4
g5
(dp59
g12
S'6'
sg13
S'user'
p60
sg15
S'db.user'
p61
sg17
S'User'
p62
sg19
S'8'
sg20
S'Perforce users'
p63
stRp64
ag3
(g4
g5
(dp65
g12
S'8'
sg13
S'user, group'
p66
sg15
S'db.group'
p67
sg17
S'Group'
p68
sg19
S'9'
sg20
S'Groups of Perforce users'
p69
stRp70
ag3
(g4
g5
(dp71
g12
S'1'
sg13
S'name'
p72
sg15
S'db.depot'
p73
sg17
S'Depot'
p74
sg19
S'10'
p75
sg20
S'Perforce depots'
p76
stRp77
ag3
(g4
g5
(dp78
g12
S'1'
sg13
S'stream'
p79
sg15
S'db.stream'
p80
sg17
S'Stream'
p81
sg19
S'11'
p82
sg20
S'Perforce streams'
p83
stRp84
ag3
(g4
g5
(dp85
g12
S'6'
sg13
S'name'
p86
sg15
S'db.domain'
p87
sg17
S'Domain'
p88
sg19
S'12'
p89
sg20
S'Domains: depots, clients, labels, branches, streams, and typemap'
p90
stRp91
ag3
(g4
g5
(dp92
g12
S'0'
sg13
S'name, change, sequence'
p93
sg15
S'db.template'
p94
sg17
S'Template'
p95
sg19
S'13'
p96
sg20
S'Streams templates'
p97
stRp98
ag3
(g4
g5
(dp99
g12
S'1'
sg13
S'name seq'
p100
sg15
S'db.view.rp'
p101
sg17
S'View'
p102
sg19
S'14'
p103
sg20
S'Contains views for clients of build-server replicas'
p104
stRp105
ag3
(g4
g5
(dp106
g12
S'1'
sg13
S'name, seq'
p107
sg15
S'db.view'
p108
sg17
S'View'
p109
sg19
S'15'
p110
sg20
S'Contains views for domains'
p111
stRp112
ag3
(g4
g5
(dp113
g12
S'1'
sg13
S'user, seq'
p114
sg15
S'db.review'
p115
sg17
S'Review'
p116
sg19
S'16'
p117
sg20
S"Contains user's review mappings"
p118
stRp119
ag3
(g4
g5
(dp120
g13
S'toFile, fromFile, startFromRev'
p121
sg15
S'db.integ'
p122
sS'note'
p123
S'Obsoleted in 2001.1'
p124
sg12
S'0'
sg20
S'Integration records: obsolete since 2001.1'
p125
sg17
S'Integ'
p126
sg19
S'17'
p127
sS'seeAlso'
p128
g3
(g8
g9
(lp129
S'db.integed'
p130
aS'db.resolve'
p131
atRp132
stRp133
ag3
(g4
g5
(dp134
g12
S'0'
sg13
S'toFile, fromFile, startFromRev, endFromRev, \n\t\tstartToRev, endToRev'
p135
sg15
S'db.integed'
p136
sg20
S'Permanent integration records'
p137
sg17
S'Integed'
p138
sg19
S'18'
p139
sg128
S'db.resolve'
p140
stRp141
ag3
(g4
g5
(dp142
g12
S'0'
sg13
S'toFile, fromFile, startFromRev, endFromRev, \n\t\tstartToRev, endToRev'
p143
sg15
S'db.integtx'
p144
sg20
S'Temporary integration records'
p145
sg17
S'Integed'
p146
sg19
S'19'
p147
sg128
S'db.resolve'
p148
stRp149
ag3
(g4
g5
(dp150
g12
S'1'
sg13
S'toFile, fromFile, startFromRev'
p151
sg15
S'db.resolve'
p152
sg20
S'Pending integration records'
p153
sg17
S'Resolve'
p154
sg19
S'20'
p155
sg128
S'db.integed'
p156
stRp157
ag3
(g4
g5
(dp158
g12
S'1'
sg13
S'toFile, fromFile, startFromRev'
p159
sg15
S'db.resolvex'
p160
sg20
S'Pending integration records for shelved files'
p161
sg17
S'Resolve'
p162
sg19
S'21'
p163
sg128
S'db.integed'
p164
stRp165
ag3
(g4
g5
(dp166
g12
S'2'
sg13
S'clientFile depotFile haveRev'
p167
sg15
S'db.have.rp'
p168
sg17
S'Have'
p169
sg19
S'22'
p170
sg20
S"Contains the 'have-list' for clients of build-server replicas"
p171
stRp172
ag3
(g4
g5
(dp173
g12
S'2'
sg13
S'clientFile'
p174
sg15
S'db.have'
p175
sg17
S'Have'
p176
sg19
S'23'
p177
sg20
S"Contains the 'have-list' for all clients"
p178
stRp179
ag3
(g4
g5
(dp180
g12
S'0'
sg13
S'name, depotFile'
p181
sg15
S'db.label'
p182
sg17
S'Label'
p183
sg19
S'24'
p184
sg20
S'Lists the revisions of files in labels'
p185
stRp186
ag3
(g4
g5
(dp187
g12
S'2'
sg13
S'depotFile, client'
p188
sg15
S'db.locks'
p189
sg17
S'Locks'
p190
sg19
S'25'
p191
sg20
S'Locked/Unlocked files'
p192
stRp193
ag3
(g4
g5
(dp194
g123
S'Obsoleted in 2006.2.'
p195
sg12
S'1'
sg13
S'lbrFile, lbrRev, depotFile, depotRev'
p196
sg20
S'Archive information for each revision that is lazy-copied: obsolete since 2006.2'
p197
sg17
S'Archive'
p198
sg19
S'26'
p199
sg15
S'db.archive'
p200
stRp201
ag3
(g4
g5
(dp202
g123
S'Supercedes db.archive'
p203
sg12
S'0'
sg13
S'lbrFile, depotFile'
p204
sg20
S'Mappings entries for lazy-copies'
p205
sg17
S'ArchMap'
p206
sg19
S'27'
p207
sg15
S'db.archmap'
p208
stRp209
ag3
(g4
g5
(dp210
g12
S'9'
sg13
S'depotFile, depotRev'
p211
sg15
S'db.rev'
p212
sg17
S'Rev'
p213
sg19
S'28'
p214
sg20
S'Revision records'
p215
stRp216
ag3
(g4
g5
(dp217
g12
S'9'
sg13
S'depotFile, depotRev'
p218
sg15
S'db.revtx'
p219
sg17
S'Rev'
p220
sg19
S'29'
p221
sg20
S'Temporary revision records'
p222
stRp223
ag3
(g4
g5
(dp224
g12
S'0'
sg13
S'change, depotFile'
p225
sg15
S'db.revcx'
p226
sg17
S'RevCx'
p227
sg19
S'30'
p228
sg20
S'Secondary index of db.rev'
p229
stRp230
ag3
(g4
g5
(dp231
g12
S'9'
sg13
S'depotFile'
p232
sg15
S'db.revdx'
p233
sg17
S'Rev'
p234
sg19
S'31'
p235
sg20
S'Revision records for revisions deleted at the head revision'
p236
stRp237
ag3
(g4
g5
(dp238
g12
S'9'
sg13
S'depotFile'
p239
sg15
S'db.revhx'
p240
sg17
S'Rev'
p241
sg19
S'32'
p242
sg20
S'Revision records for revisions NOT deleted at the head revision'
p243
stRp244
ag3
(g4
g5
(dp245
g123
S'Only populated during content trigger execution to allow \n\t\ttriggers access to the revisions being submitted.'
p246
sg12
S'9'
sg13
S'depotFile, depotRev'
p247
sg20
S'Pending revision records'
p248
sg17
S'Rev'
p249
sg19
S'33'
p250
sg15
S'db.revpx'
p251
stRp252
ag3
(g4
g5
(dp253
g12
S'9'
sg13
S'depotFile, depotRev'
p254
sg15
S'db.revsx'
p255
sg17
S'Rev'
p256
sg19
S'34'
p257
sg20
S'Revision records for spec depot files'
p258
stRp259
ag3
(g4
g5
(dp260
g12
S'9'
sg13
S'depotFile, depotRev, type, action, change'
p261
sg15
S'db.revsh'
p262
sg17
S'Rev'
p263
sg19
S'35'
p264
sg20
S'Revision records for shelved files'
p265
stRp266
ag3
(g4
g5
(dp267
g12
S'9'
sg13
S'depotFile, depotRev'
p268
sg15
S'db.revbx'
p269
sg17
S'Rev'
p270
sg19
S'36'
p271
sg20
S'Revision records for archived files'
p272
stRp273
ag3
(g4
g5
(dp274
g12
S'9'
sg13
S'depotFile'
p275
sg15
S'db.revux'
p276
sg17
S'Rev'
p277
sg19
S'37'
p278
sg20
S'Revision records for unload depot files'
p279
stRp280
ag3
(g4
g5
(dp281
g12
S'9'
sg13
S'clientFile'
p282
sg15
S'db.working'
p283
sg17
S'Working'
p284
sg19
S'38'
p285
sg20
S'Records for work in progress'
p286
stRp287
ag3
(g4
g5
(dp288
g12
S'9'
sg13
S'clientFile'
p289
sg15
S'db.workingx'
p290
sg17
S'Working'
p291
sg19
S'39'
p292
sg20
S'Records for shelved open files'
p293
stRp294
ag3
(g4
g5
(dp295
g12
S'0'
sg13
S'traitLot, name'
p296
sg15
S'db.traits'
p297
sg17
S'Trait'
p298
sg19
S'40'
p299
sg20
S'Attributes associated with file revisions'
p300
stRp301
ag3
(g4
g5
(dp302
g12
S'2'
sg13
S'seq'
p303
sg15
S'db.trigger'
p304
sg17
S'Trigger'
p305
sg19
S'41'
p306
sg20
S'Trigger specifications'
p307
stRp308
ag3
(g4
g5
(dp309
g12
S'2'
sg13
S'change'
p310
sg15
S'db.change'
p311
sg17
S'Change'
p312
sg19
S'42'
p313
sg20
S'Changelists'
p314
stRp315
ag3
(g4
g5
(dp316
g123
S'contains records for pending changelists only.'
p317
sg12
S'2'
sg13
S'change'
p318
sg20
S'Subset of db.change - records for pending changelists only'
p319
sg17
S'Change'
p320
sg19
S'43'
p321
sg15
S'db.changex'
p322
stRp323
ag3
(g4
g5
(dp324
g12
S'0'
sg13
S'descKey'
p325
sg15
S'db.desc'
p326
sg17
S'Desc'
p327
sg19
S'44'
p328
sg20
S'Change descriptions'
p329
stRp330
ag3
(g4
g5
(dp331
g12
S'0'
sg13
S'job'
p332
sg15
S'db.job'
p333
sg20
S'Job records'
p334
sg17
S'Job'
p335
sg19
S'45'
p336
sg128
S'db.bodtext'
p337
stRp338
ag3
(g4
g5
(dp339
g12
S'0'
sg13
S'user, job'
p340
sg15
S'db.jobpend'
p341
sg20
S'Obsolete in 98.2'
p342
sg17
S'String'
p343
sg19
S'46'
p344
sg128
S'db.bodtext'
p345
stRp346
ag3
(g4
g5
(dp347
g12
S'0'
sg13
S'job'
p348
sg15
S'db.jobdesc'
p349
sg20
S'Obsolete in 98.2'
p350
sg17
S'JobDesc'
p351
sg19
S'47'
p352
sg128
S'db.bodtext'
p353
stRp354
ag3
(g4
g5
(dp355
g12
S'1'
sg13
S'job, change'
p356
sg15
S'db.fix'
p357
sg20
S'Fix records - indexed by job'
p358
sg17
S'Fix'
p359
sg19
S'48'
p360
sg128
S'db.fixrev'
p361
stRp362
ag3
(g4
g5
(dp363
g12
S'1'
sg13
S'change, job'
p364
sg15
S'db.fixrev'
p365
sg20
S'Fix records - indexed by change'
p366
sg17
S'Fix'
p367
sg19
S'49'
p368
sg128
S'db.fix'
p369
stRp370
ag3
(g4
g5
(dp371
g123
S'Obsoleted in 2009.2'
p372
sg12
S'0'
sg13
S'key, attr'
p373
sg20
S'Job data for date-valued attributes: obsolete since 2009.2'
p374
sg17
S'BodyDate'
p375
sg19
S'50'
p376
sg15
S'db.boddate'
p377
stRp378
ag3
(g4
g5
(dp379
g12
S'1'
sg13
S'key, attr'
p380
sg15
S'db.bodtext'
p381
sg17
S'BodyText'
p382
sg19
S'51'
p383
sg20
S'Job data for job attributes'
p384
stRp385
ag3
(g4
g5
(dp386
g13
S'date, attr, value'
p387
sg15
S'db.ixdate'
p388
sg123
S'Obsoleted in 2009.2'
p389
sg12
S'0'
sg20
S'Indexing data for date-valued job attributes: obsolete since 2009.2'
p390
sg17
S'IndexDate'
p391
sg19
S'52'
p392
sg128
S'db.ixtext'
p393
stRp394
ag3
(g4
g5
(dp395
g12
S'0'
sg13
S'word, attr, value'
p396
sg15
S'db.ixtext'
p397
sg17
S'IndexText'
p398
sg19
S'53'
p399
sg20
S'Indexing data for job attributes'
p400
stRp401
ag3
(g4
g5
(dp402
g12
S'4'
sg13
S'seq'
p403
sg15
S'db.protect'
p404
sg17
S'Protect'
p405
sg19
S'54'
p406
sg20
S'The protections table'
p407
stRp408
ag3
(g4
g5
(dp409
g12
S'0'
sg13
S'name, seq, type, scope'
p410
sg15
S'db.property'
p411
sg17
S'Property'
p412
sg19
S'55'
p413
sg20
S'Properties'
p414
stRp415
ag3
(g4
g5
(dp416
g12
S'0'
sg13
S'language, id'
p417
sg15
S'db.message'
p418
sg17
S'Message'
p419
sg19
S'56'
p420
sg20
S'System messages'
p421
stRp422
ag3
(g4
g5
(dp423
g12
S'1'
sg13
S'id'
p424
sg15
S'db.monitor'
p425
sg17
S'Monitor'
p426
sg19
S'57'
p427
sg20
S'Perforce process information'
p428
stRp429
ag3
(g4
g5
(dp430
g17
S'ReplicaArchiveTransfer'
p431
sg15
S'rdb.lbr'
p432
sg20
S'Replica server pending archive transfer table'
p433
stRp434
ag3
(g4
g5
(dp435
g17
S'TinyDb'
p436
sg13
S'fileAndRev'
p437
sg15
S'tiny.db'
p438
sg20
S'Records revision and content data for files using the +T file type modifier'
p439
stRp440
atRp441
stRp442
sg12
S'2013.1'
p443
sS'numUpgrades'
p444
S'23'
p445
sS'recordtypes'
p446
g3
(g4
g5
(dp447
S'record'
p448
g3
(g8
g9
(lp449
g3
(g4
g5
(dp450
S'column'
p451
g3
(g8
g9
(lp452
g3
(g4
g5
(dp453
g17
S'File'
p454
sg15
S'lbrFile'
p455
sg20
S"Specifies the location in the librarian's archives where\n\t\t    the revision may be found"
p456
stRp457
ag3
(g4
g5
(dp458
g17
S'String'
p459
sg15
S'lbrRev'
p460
sg20
S"Revision in the librarian's archives"
p461
stRp462
ag3
(g4
g5
(dp463
g17
S'File'
p464
sg15
S'depotFile'
p465
sg20
S'Name of the file in the depot'
p466
stRp467
ag3
(g4
g5
(dp468
g17
S'Rev'
p469
sg15
S'depotRev'
p470
sg20
S'Name of the file in the depot'
p471
stRp472
ag3
(g4
g5
(dp473
g17
S'FileType'
p474
sg15
S'lbrType'
p475
sg20
S"File type for librarian's purposes"
p476
stRp477
atRp478
sg15
S'Archive'
p479
stRp480
ag3
(g4
g5
(dp481
g451
g3
(g8
g9
(lp482
g3
(g4
g5
(dp483
g17
S'File'
p484
sg15
S'lbrFile'
p485
sg20
S'Paths in the librarian namespace that recieve lazy\n\t\t    copies.'
p486
stRp487
ag3
(g4
g5
(dp488
g17
S'File'
p489
sg15
S'depotFile'
p490
sg20
S'Paths in the depot namespace that provide lazy copies.'
p491
stRp492
atRp493
sg15
S'ArchMap'
p494
stRp495
ag3
(g4
g5
(dp496
g451
g3
(g8
g9
(lp497
g3
(g4
g5
(dp498
g17
S'String'
p499
sg15
S'key'
p500
sg20
S'The job to which this attribute belongs'
p501
stRp502
ag3
(g4
g5
(dp503
g17
S'Int'
p504
sg15
S'attr'
p505
sg20
S'The attribute number (from the jobspec) of this attribute'
p506
stRp507
ag3
(g4
g5
(dp508
g17
S'Date'
p509
sg15
S'date'
p510
sg20
S'The date value itself'
p511
stRp512
atRp513
sg15
S'BodyDate'
p514
stRp515
ag3
(g4
g5
(dp516
g451
g3
(g8
g9
(lp517
g3
(g4
g5
(dp518
g17
S'String'
p519
sg15
S'key'
p520
sg20
S'The job to which this attribute belongs'
p521
stRp522
ag3
(g4
g5
(dp523
g17
S'Int'
p524
sg15
S'attr'
p525
sg20
S'The attribute number (from the jobspec) of this attribute'
p526
stRp527
ag3
(g4
g5
(dp528
g17
S'Int'
p529
sg15
S'isBulk'
p530
sg20
S'Indicates whether (1), or not (0) the field is a bulk\n\t\t    text field that should not be indexed.'
p531
stRp532
ag3
(g4
g5
(dp533
g17
S'Text'
p534
sg15
S'text'
p535
sg20
S'The attribute value'
p536
stRp537
atRp538
sg15
S'BodyText'
p539
stRp540
ag3
(g4
g5
(dp541
g451
g3
(g8
g9
(lp542
g3
(g4
g5
(dp543
g17
S'Change'
p544
sg15
S'change'
p545
sg20
S'The change number'
p546
stRp547
ag3
(g4
g5
(dp548
g17
S'Change'
p549
sg15
S'descKey'
p550
sg20
S"The description key. Normally the same as 'change', but\n\t\t    may differ if a changelist was renumbered on submission."
p551
stRp552
ag3
(g4
g5
(dp553
g17
S'Domain'
p554
sg15
S'client'
p555
sg20
S'The client from which the change originates'
p556
stRp557
ag3
(g4
g5
(dp558
g17
S'User'
p559
sg15
S'user'
p560
sg20
S'The user who owns the change'
p561
stRp562
ag3
(g4
g5
(dp563
g17
S'Date'
p564
sg15
S'date'
p565
sg20
S'Date and time the changelist was submitted'
p566
stRp567
ag3
(g4
g5
(dp568
g17
S'ChangeStatus'
p569
sg15
S'status'
p570
sg20
S'Status of the change'
p571
stRp572
ag3
(g4
g5
(dp573
g17
S'DescShort'
p574
sg15
S'description'
p575
sg20
S'Short description of the change.'
p576
stRp577
ag3
(g4
g5
(dp578
g17
S'Mapping'
p579
sg15
S'root'
p580
sg20
S'Common path for all files in the changelist'
p581
stRp582
atRp583
sg15
S'Change'
p584
stRp585
ag3
(g4
g5
(dp586
g451
g3
(g8
g9
(lp587
g3
(g4
g5
(dp588
g17
S'String'
p589
sg15
S'sname'
p590
sg20
S'Server name'
p591
stRp592
ag3
(g4
g5
(dp593
g17
S'String'
p594
sg15
S'name'
p595
sg20
S'Configuration variable name'
p596
stRp597
ag3
(g4
g5
(dp598
g17
S'Value'
p599
sg15
S'value'
p600
sg20
S'Configuration variable value'
p601
stRp602
atRp603
sg15
S'Config'
p604
stRp605
ag3
(g4
g5
(dp606
g451
g3
(g8
g9
(lp607
g3
(g4
g5
(dp608
g17
S'Counter'
p609
sg15
S'name'
p610
sg20
S'Counter name'
p611
stRp612
ag3
(g4
g5
(dp613
g17
S'Value'
p614
sg15
S'value'
p615
sg20
S'Counter value'
p616
stRp617
atRp618
sg15
S'Counters'
p619
stRp620
ag3
(g4
g5
(dp621
g451
g3
(g8
g9
(lp622
g3
(g4
g5
(dp623
g17
S'Domain'
p624
sg15
S'name'
p625
sg20
S'Depot name'
p626
stRp627
ag3
(g4
g5
(dp628
g17
S'DepotType'
p629
sg15
S'type'
p630
sg20
S'Type of depot'
p631
stRp632
ag3
(g4
g5
(dp633
g17
S'Text'
p634
sg15
S'extra'
p635
sg20
S'For remote depots, the P4PORT address of the remote server.\n\t\t    For spec depots, the field contains a suffix to append to \n\t\t    the filename.'
p636
stRp637
ag3
(g4
g5
(dp638
g17
S'Text'
p639
sg15
S'map'
p640
sg20
S"The depot's map (path translation information).  For local \n\t\t    depots, this will be a path relative to the root directory.\n\t\t    For remote depots, this will be specified in terms of the \n\t\t    remote server's namespace."
p641
stRp642
atRp643
sg15
S'Depot'
p644
stRp645
ag3
(g4
g5
(dp646
g451
g3
(g8
g9
(lp647
g3
(g4
g5
(dp648
g17
S'Change'
p649
sg15
S'descKey'
p650
sg20
S'Original number of the change to which this description\n\t\t    applies. This may differ from the final change number if\n\t\t    the change is renumbered on submission.'
p651
stRp652
ag3
(g4
g5
(dp653
g17
S'Text'
p654
sg15
S'description'
p655
sg20
S'The change description itself'
p656
stRp657
atRp658
sg15
S'Desc'
p659
stRp660
ag3
(g4
g5
(dp661
g451
g3
(g8
g9
(lp662
g3
(g4
g5
(dp663
g17
S'Domain'
p664
sg15
S'name'
p665
sg20
S'Domain name'
p666
stRp667
ag3
(g4
g5
(dp668
g17
S'DomainType'
p669
sg15
S'type'
p670
sg20
S'Type of domain'
p671
stRp672
ag3
(g4
g5
(dp673
g17
S'Text'
p674
sg15
S'extra'
p675
sg20
S'Formerly "host". Associated host or, for labels, revision \n\t\t    number.'
p676
stRp677
ag3
(g4
g5
(dp678
g17
S'Text'
p679
sg15
S'mount'
p680
sg20
S'The client root'
p681
stRp682
ag3
(g4
g5
(dp683
g17
S'Text'
p684
sg15
S'mount2'
p685
sg20
S'Alternate client root'
p686
stRp687
ag3
(g4
g5
(dp688
g17
S'Text'
p689
sg15
S'mount3'
p690
sg20
S'Alternate client root'
p691
stRp692
ag3
(g4
g5
(dp693
g17
S'User'
p694
sg15
S'owner'
p695
sg20
S'Name of user who owns the domain.'
p696
stRp697
ag3
(g4
g5
(dp698
g17
S'Date'
p699
sg15
S'updateDate'
p700
sg20
S'Date of last update to domain specification.'
p701
stRp702
ag3
(g4
g5
(dp703
g17
S'Date'
p704
sg15
S'accessDate'
p705
sg20
S'Date of last access to domain specification.'
p706
stRp707
ag3
(g4
g5
(dp708
g17
S'DomainOpts'
p709
sg15
S'options'
p710
sg20
S'Options for client, label, and branch domains.'
p711
stRp712
ag3
(g4
g5
(dp713
g17
S'Text'
p714
sg15
S'description'
p715
sg20
S'Description of domain.'
p716
stRp717
ag3
(g4
g5
(dp718
g17
S'Text'
p719
sg15
S'stream'
p720
sg20
S'Associated stream for client records'
p721
stRp722
ag3
(g4
g5
(dp723
g17
S'Text'
p724
sg15
S'serverid'
p725
sg20
S'Associated server ID for client records'
p726
stRp727
ag3
(g4
g5
(dp728
g17
S'Int'
p729
sg15
S'partition'
p730
sg20
S'Currently unused. Reserved for future use'
p731
stRp732
atRp733
sg15
S'Domain'
p734
stRp735
ag3
(g4
g5
(dp736
g451
g3
(g8
g9
(lp737
g3
(g4
g5
(dp738
g17
S'String'
p739
sg15
S'job'
p740
sg20
S'Job name'
p741
stRp742
ag3
(g4
g5
(dp743
g17
S'Change'
p744
sg15
S'change'
p745
sg20
S'Changelist number'
p746
stRp747
ag3
(g4
g5
(dp748
g17
S'Date'
p749
sg15
S'date'
p750
sg20
S'Date fix was recorded (may differ from date change was\n\t\t    submitted).'
p751
stRp752
ag3
(g4
g5
(dp753
g17
S'FixStatus'
p754
sg15
S'status'
p755
sg20
S'Status of the job'
p756
stRp757
ag3
(g4
g5
(dp758
g17
S'Domain'
p759
sg15
S'client'
p760
sg20
S'The client where the fix originated'
p761
stRp762
ag3
(g4
g5
(dp763
g17
S'User'
p764
sg15
S'user'
p765
sg20
S'The user who fixed the job'
p766
stRp767
atRp768
sg15
S'Fix'
p769
stRp770
ag3
(g4
g5
(dp771
g451
g3
(g8
g9
(lp772
g3
(g4
g5
(dp773
g17
S'User'
p774
sg15
S'user'
p775
sg20
S'User name'
p776
stRp777
ag3
(g4
g5
(dp778
g17
S'User'
p779
sg15
S'group'
p780
sg20
S'Group name'
p781
stRp782
ag3
(g4
g5
(dp783
g17
S'UserType'
p784
sg15
S'type'
p785
sg20
S'Type of user in this group.'
p786
stRp787
ag3
(g4
g5
(dp788
g17
S'MaxResults'
p789
sg15
S'maxResults'
p790
sg20
S'MaxResults setting for the group.'
p791
stRp792
ag3
(g4
g5
(dp793
g17
S'MaxScanRows'
p794
sg15
S'maxScanRows'
p795
sg20
S'MaxScanRows setting for the group.'
p796
stRp797
ag3
(g4
g5
(dp798
g17
S'MaxLockTime'
p799
sg15
S'maxLockTime'
p800
sg20
S'MaxLockTime setting for the group.'
p801
stRp802
ag3
(g4
g5
(dp803
g17
S'Int'
p804
sg15
S'timeout'
p805
sg20
S'Length of time (in seconds) a login ticket remains valid.'
p806
stRp807
ag3
(g4
g5
(dp808
g17
S'Int'
p809
sg15
S'passwordTimeout'
p810
sg20
S'Length of time (in seconds) a password remains valid for users in the group.'
p811
stRp812
atRp813
sg15
S'Group'
p814
stRp815
ag3
(g4
g5
(dp816
g451
g3
(g8
g9
(lp817
g3
(g4
g5
(dp818
g17
S'File'
p819
sg15
S'clientFile'
p820
sg20
S'The file in its location on the client'
p821
stRp822
ag3
(g4
g5
(dp823
g17
S'File'
p824
sg15
S'depotFile'
p825
sg20
S'The file in the depot'
p826
stRp827
ag3
(g4
g5
(dp828
g17
S'Rev'
p829
sg15
S'haveRev'
p830
sg20
S'The revision synced to the client'
p831
stRp832
ag3
(g4
g5
(dp833
g17
S'FileType'
p834
sg15
S'type'
p835
sg20
S'The filetype of the synced revision'
p836
stRp837
atRp838
sg15
S'Have'
p839
stRp840
ag3
(g4
g5
(dp841
g451
g3
(g8
g9
(lp842
g3
(g4
g5
(dp843
g17
S'Date'
p844
sg15
S'date'
p845
sg20
S'Date value'
p846
stRp847
ag3
(g4
g5
(dp848
g17
S'Int'
p849
sg15
S'attr'
p850
sg20
S'The attribute number (from the jobspec) to which this\n\t\t    date belongs'
p851
stRp852
ag3
(g4
g5
(dp853
g17
S'String'
p854
sg15
S'value'
p855
sg20
S'A job name'
p856
stRp857
atRp858
sg15
S'IndexDate'
p859
stRp860
ag3
(g4
g5
(dp861
g451
g3
(g8
g9
(lp862
g3
(g4
g5
(dp863
g17
S'String'
p864
sg15
S'word'
p865
sg20
S'The word being indexed'
p866
stRp867
ag3
(g4
g5
(dp868
g17
S'Int'
p869
sg15
S'attr'
p870
sg20
S'The attribute number (from the jobspec) to which this\n\t\t    word belongs'
p871
stRp872
ag3
(g4
g5
(dp873
g17
S'String'
p874
sg15
S'value'
p875
sg20
S'A job name'
p876
stRp877
atRp878
sg15
S'IndexText'
p879
stRp880
ag3
(g4
g5
(dp881
g451
g3
(g8
g9
(lp882
g3
(g4
g5
(dp883
g17
S'File'
p884
sg15
S'toFile'
p885
sg20
S'File to which integration is being performed (target).'
p886
stRp887
ag3
(g4
g5
(dp888
g17
S'File'
p889
sg15
S'fromFile'
p890
sg20
S'File from which integration is being performed (source).'
p891
stRp892
ag3
(g4
g5
(dp893
g17
S'Rev'
p894
sg15
S'startFromRev'
p895
sg20
S'Starting revision of fromFile'
p896
stRp897
ag3
(g4
g5
(dp898
g17
S'Rev'
p899
sg15
S'endFromRev'
p900
sg20
S'Ending revision of fromFile. If integrating from a single \n\t\t    revision (not a revision range), the startFromRev and \n\t\t    endFromRev fields will be identical.'
p901
stRp902
ag3
(g4
g5
(dp903
g17
S'Rev'
p904
sg15
S'toRev'
p905
sg20
S'Revision of toFile into which integration is being \n\t\t    performed.'
p906
stRp907
ag3
(g4
g5
(dp908
g17
S'IntegHow'
p909
sg15
S'how'
p910
sg20
S'Integration method: variations on \n\t\t    merge/branch/copy/ignore/delete.'
p911
stRp912
ag3
(g4
g5
(dp913
g17
S'Int'
p914
sg15
S'committed'
p915
sg20
S'Flag: 0 for pending, 1 for committed.'
p916
stRp917
ag3
(g4
g5
(dp918
g17
S'ResolvedStatus'
p919
sg15
S'resolved'
p920
sg20
S'Resolution method: unresolved, resolved manually, \n\t\t    or resolved as part of a branch or delete.'
p921
stRp922
ag3
(g4
g5
(dp923
g17
S'Change'
p924
sg15
S'change'
p925
sg20
S'Changelist associated with the integration.'
p926
stRp927
atRp928
sg15
S'Integ'
p929
stRp930
ag3
(g4
g5
(dp931
g451
g3
(g8
g9
(lp932
g3
(g4
g5
(dp933
g17
S'File'
p934
sg15
S'toFile'
p935
sg20
S'File to which integration is being performed (target).'
p936
stRp937
ag3
(g4
g5
(dp938
g17
S'File'
p939
sg15
S'fromFile'
p940
sg20
S'File from which integration is being performed (source).'
p941
stRp942
ag3
(g4
g5
(dp943
g17
S'Rev'
p944
sg15
S'startFromRev'
p945
sg20
S'Starting revision of fromFile'
p946
stRp947
ag3
(g4
g5
(dp948
g17
S'Rev'
p949
sg15
S'endFromRev'
p950
sg20
S'Ending revision of fromFile. If integrating from a single \n\t\t    revision (not a revision range), the startFromRev and \n\t\t    endFromRev fields will be identical.'
p951
stRp952
ag3
(g4
g5
(dp953
g17
S'Rev'
p954
sg15
S'startToRev'
p955
sg20
S'Start revision of toFile into which integration was \n\t\t    performed.'
p956
stRp957
ag3
(g4
g5
(dp958
g17
S'Rev'
p959
sg15
S'endToRev'
p960
sg20
S'End revision of toFile into which integration was \n\t\t    performed. Only varies from startToRev for reverse \n\t\t    integration records.'
p961
stRp962
ag3
(g4
g5
(dp963
g17
S'IntegHow'
p964
sg15
S'how'
p965
sg20
S'Integration method: variations on \n\t\t    merge/branch/copy/ignore/delete.'
p966
stRp967
ag3
(g4
g5
(dp968
g17
S'Change'
p969
sg15
S'change'
p970
sg20
S'Changelist associated with the integration.'
p971
stRp972
atRp973
sg15
S'Integed'
p974
stRp975
ag3
(g4
g5
(dp976
g451
g3
(g8
g9
(lp977
g3
(g4
g5
(dp978
g17
S'String'
p979
sg15
S'job'
p980
sg20
S'The job name'
p981
stRp982
ag3
(g4
g5
(dp983
g17
S'User'
p984
sg15
S'xuser'
p985
sg20
S'User name: defunct'
p986
stRp987
ag3
(g4
g5
(dp988
g17
S'Date'
p989
sg15
S'xdate'
p990
sg20
S'The date: defunct'
p991
stRp992
ag3
(g4
g5
(dp993
g17
S'JobStat'
p994
sg15
S'xstatus'
p995
sg20
S'Job status: defunct'
p996
stRp997
ag3
(g4
g5
(dp998
g17
S'DescShort'
p999
sg15
S'description'
p1000
sg20
S'Short description'
p1001
stRp1002
atRp1003
sg15
S'Job'
p1004
stRp1005
ag3
(g4
g5
(dp1006
g451
g3
(g8
g9
(lp1007
g3
(g4
g5
(dp1008
g17
S'String'
p1009
sg15
S'xjob'
p1010
sg20
S'The job name'
p1011
stRp1012
ag3
(g4
g5
(dp1013
g17
S'Text'
p1014
sg15
S'xdescription'
p1015
sg20
S'Jobdescription'
p1016
stRp1017
atRp1018
sg15
S'JobDesc'
p1019
stRp1020
ag3
(g4
g5
(dp1021
g451
g3
(g8
g9
(lp1022
g3
(g4
g5
(dp1023
g17
S'Key'
p1024
sg15
S'name'
p1025
sg20
S'Key name'
p1026
stRp1027
ag3
(g4
g5
(dp1028
g17
S'Value'
p1029
sg15
S'value'
p1030
sg20
S'Key value'
p1031
stRp1032
atRp1033
sg15
S'Keys'
p1034
stRp1035
ag3
(g4
g5
(dp1036
g451
g3
(g8
g9
(lp1037
g3
(g4
g5
(dp1038
g17
S'Domain'
p1039
sg15
S'name'
p1040
sg20
S'Name of the label'
p1041
stRp1042
ag3
(g4
g5
(dp1043
g17
S'File'
p1044
sg15
S'depotFile'
p1045
sg20
S'File name'
p1046
stRp1047
ag3
(g4
g5
(dp1048
g17
S'Rev'
p1049
sg15
S'haveRev'
p1050
sg20
S'The revision of the file in the label'
p1051
stRp1052
atRp1053
sg15
S'Label'
p1054
stRp1055
ag3
(g4
g5
(dp1056
g451
g3
(g8
g9
(lp1057
g3
(g4
g5
(dp1058
g17
S'File'
p1059
sg15
S'depotFile'
p1060
sg20
S'File in depot'
p1061
stRp1062
ag3
(g4
g5
(dp1063
g17
S'Domain'
p1064
sg15
S'client'
p1065
sg20
S'Domain (client) in which file is open'
p1066
stRp1067
ag3
(g4
g5
(dp1068
g17
S'User'
p1069
sg15
S'user'
p1070
sg20
S'User who presently has the file open'
p1071
stRp1072
ag3
(g4
g5
(dp1073
g17
S'Action'
p1074
sg15
S'action'
p1075
sg20
S'Action file is open for: add, edit, delete, branch,\n\t\t    integrate, or import'
p1076
stRp1077
ag3
(g4
g5
(dp1078
g17
S'Int'
p1079
sg15
S'isLocked'
p1080
sg20
S'Flag: 0 for unlocked, 1 for locked'
p1081
stRp1082
ag3
(g4
g5
(dp1083
g17
S'Int'
p1084
sg15
S'change'
p1085
sg20
S'Changelist in which the revision is open: 0 for the\n\t\t    default changelist'
p1086
stRp1087
atRp1088
sg15
S'Locks'
p1089
stRp1090
ag3
(g4
g5
(dp1091
g451
g3
(g8
g9
(lp1092
g3
(g4
g5
(dp1093
g17
S'Int'
p1094
sg15
S'seq'
p1095
sg20
S'Sequence number of event'
p1096
stRp1097
ag3
(g4
g5
(dp1098
g17
S'String'
p1099
sg15
S'key'
p1100
sg20
S"Either the word 'change' or the word 'job'"
p1101
stRp1102
ag3
(g4
g5
(dp1103
g17
S'String'
p1104
sg15
S'attr'
p1105
sg20
S'The number of the change, or name of the job that was \n\t\t    altered.'
p1106
stRp1107
atRp1108
sg15
S'Logger'
p1109
stRp1110
ag3
(g4
g5
(dp1111
g451
g3
(g8
g9
(lp1112
g3
(g4
g5
(dp1113
g17
S'String'
p1114
sg15
S'language'
p1115
sg20
S'The language for which this message applies'
p1116
stRp1117
ag3
(g4
g5
(dp1118
g17
S'Int'
p1119
sg15
S'id'
p1120
sg20
S'The message number'
p1121
stRp1122
ag3
(g4
g5
(dp1123
g17
S'String'
p1124
sg15
S'message'
p1125
sg20
S'The message text'
p1126
stRp1127
atRp1128
sg15
S'Message'
p1129
stRp1130
ag3
(g4
g5
(dp1131
g451
g3
(g8
g9
(lp1132
g3
(g4
g5
(dp1133
g17
S'Int'
p1134
sg15
S'id'
p1135
sg20
S'Thread/process id'
p1136
stRp1137
ag3
(g4
g5
(dp1138
g17
S'User'
p1139
sg15
S'user'
p1140
sg20
S'Username of the user running the command'
p1141
stRp1142
ag3
(g4
g5
(dp1143
g17
S'String'
p1144
sg15
S'function'
p1145
sg20
S'The command being executed.'
p1146
stRp1147
ag3
(g4
g5
(dp1148
g17
S'String'
p1149
sg15
S'args'
p1150
sg20
S'Arguments passed to the command'
p1151
stRp1152
ag3
(g4
g5
(dp1153
g17
S'Date'
p1154
sg15
S'startDate'
p1155
sg20
S'The date and time the command started'
p1156
stRp1157
ag3
(g4
g5
(dp1158
g17
S'Int'
p1159
sg15
S'runstate'
p1160
sg20
S'Flag: 0 for running, 1 for terminated, 2 for paused'
p1161
stRp1162
ag3
(g4
g5
(dp1163
g17
S'Domain'
p1164
sg15
S'client'
p1165
sg20
S'The client workspace'
p1166
stRp1167
ag3
(g4
g5
(dp1168
g17
S'Text'
p1169
sg15
S'host'
p1170
sg20
S'The IP address of the client'
p1171
stRp1172
ag3
(g4
g5
(dp1173
g17
S'Text'
p1174
sg15
S'prog'
p1175
sg20
S'The name (and version) of the client program'
p1176
stRp1177
atRp1178
sg15
S'Monitor'
p1179
stRp1180
ag3
(g4
g5
(dp1181
g451
g3
(g8
g9
(lp1182
g3
(g4
g5
(dp1183
g17
S'String'
p1184
sg15
S'name'
p1185
sg20
S'Property name'
p1186
stRp1187
ag3
(g4
g5
(dp1188
g17
S'String'
p1189
sg15
S'sequence'
p1190
sg20
S'Sequence number'
p1191
stRp1192
ag3
(g4
g5
(dp1193
g17
S'Integer'
p1194
sg15
S'type'
p1195
sg20
S'Property type'
p1196
stRp1197
ag3
(g4
g5
(dp1198
g17
S'String'
p1199
sg15
S'scope'
p1200
sg20
S'Property scope'
p1201
stRp1202
ag3
(g4
g5
(dp1203
g17
S'String'
p1204
sg15
S'value'
p1205
sg20
S'Property value'
p1206
stRp1207
ag3
(g4
g5
(dp1208
g17
S'String'
p1209
sg15
S'date'
p1210
sg20
S'Property date'
p1211
stRp1212
ag3
(g4
g5
(dp1213
g17
S'String'
p1214
sg15
S'user'
p1215
sg20
S'Property user'
p1216
stRp1217
atRp1218
sg15
S'Property'
p1219
stRp1220
ag3
(g4
g5
(dp1221
g451
g3
(g8
g9
(lp1222
g3
(g4
g5
(dp1223
g17
S'Int'
p1224
sg15
S'seq'
p1225
sg20
S'Sequence number: for ordering the protections table'
p1226
stRp1227
ag3
(g4
g5
(dp1228
g17
S'Int'
p1229
sg15
S'isGroup'
p1230
sg20
S'Flag: 0 for a per-user setting, 1 for a per-group setting.'
p1231
stRp1232
ag3
(g4
g5
(dp1233
g17
S'UserWild'
p1234
sg15
S'user'
p1235
sg20
S'User(s), or Group(s) for whom this record applies.'
p1236
stRp1237
ag3
(g4
g5
(dp1238
g17
S'DomainWild'
p1239
sg15
S'host'
p1240
sg20
S'Domain(s) (IP addresses) for which this record applies.'
p1241
stRp1242
ag3
(g4
g5
(dp1243
g17
S'Perm'
p1244
sg15
S'perm'
p1245
sg20
S'Permissions to be granted/revoked'
p1246
stRp1247
ag3
(g4
g5
(dp1248
g17
S'MapFlag'
p1249
sg15
S'mapFlag'
p1250
sg20
S'Flag: Map the files in or out?'
p1251
stRp1252
ag3
(g4
g5
(dp1253
g17
S'Mapping'
p1254
sg15
S'depotFile'
p1255
sg20
S'Files to be mapped in or out.'
p1256
stRp1257
atRp1258
sg15
S'Protect'
p1259
stRp1260
ag3
(g4
g5
(dp1261
g451
g3
(g8
g9
(lp1262
g3
(g4
g5
(dp1263
g17
S'File'
p1264
sg15
S'depotFile'
p1265
sg20
S'The file name'
p1266
stRp1267
ag3
(g4
g5
(dp1268
g17
S'String'
p1269
sg15
S'lbrRev'
p1270
sg20
S'The librarian revision'
p1271
stRp1272
ag3
(g4
g5
(dp1273
g17
S'String'
p1274
sg15
S'type'
p1275
sg20
S'The file type of the revision'
p1276
stRp1277
ag3
(g4
g5
(dp1278
g17
S'PullStatus'
p1279
sg15
S'status'
p1280
sg20
S'The status of the archive transfer'
p1281
stRp1282
ag3
(g4
g5
(dp1283
g17
S'Action'
p1284
sg15
S'action'
p1285
sg20
S'The action that created the revision'
p1286
stRp1287
ag3
(g4
g5
(dp1288
g17
S'Digest'
p1289
sg15
S'digest'
p1290
sg20
S'The MD5 digest of the revision'
p1291
stRp1292
ag3
(g4
g5
(dp1293
g17
S'FileSize'
p1294
sg15
S'size'
p1295
sg20
S'The size of the file in bytes'
p1296
stRp1297
ag3
(g4
g5
(dp1298
g17
S'Change'
p1299
sg15
S'change'
p1300
sg20
S'The changelist that created the revision'
p1301
stRp1302
ag3
(g4
g5
(dp1303
g17
S'Date'
p1304
sg15
S'lbrDate'
p1305
sg20
S'Librarian date'
p1306
stRp1307
ag3
(g4
g5
(dp1308
g17
S'Date'
p1309
sg15
S'lbrModTime'
p1310
sg20
S'Librarian modtime'
p1311
stRp1312
ag3
(g4
g5
(dp1313
g17
S'Int'
p1314
sg15
S'pid'
p1315
sg20
S'The process id (PID) of the pull process'
p1316
stRp1317
ag3
(g4
g5
(dp1318
g17
S'Date'
p1319
sg15
S'requestTime'
p1320
sg20
S'Pull request time'
p1321
stRp1322
ag3
(g4
g5
(dp1323
g17
S'Int'
p1324
sg15
S'retries'
p1325
sg20
S'The number of retries that have occurred after transfer error'
p1326
stRp1327
ag3
(g4
g5
(dp1328
g17
S'String'
p1329
sg15
S'transferError'
p1330
sg20
S'The error message for a failed transfer'
p1331
stRp1332
atRp1333
sg15
S'ReplicaArchiveTransfer'
p1334
stRp1335
ag3
(g4
g5
(dp1336
g451
g3
(g8
g9
(lp1337
g3
(g4
g5
(dp1338
g17
S'File'
p1339
sg15
S'toFile'
p1340
sg20
S'File to which integration is being performed (target).'
p1341
stRp1342
ag3
(g4
g5
(dp1343
g17
S'File'
p1344
sg15
S'fromFile'
p1345
sg20
S'File from which integration is being performed (source).'
p1346
stRp1347
ag3
(g4
g5
(dp1348
g17
S'Rev'
p1349
sg15
S'startFromRev'
p1350
sg20
S'Starting revision of fromFile'
p1351
stRp1352
ag3
(g4
g5
(dp1353
g17
S'Rev'
p1354
sg15
S'endFromRev'
p1355
sg20
S'Ending revision of fromFile. If integrating from a single \n\t\t    revision (not a revision range), the startFromRev and \n\t\t    endFromRev fields will be identical.'
p1356
stRp1357
ag3
(g4
g5
(dp1358
g17
S'Rev'
p1359
sg15
S'startToRev'
p1360
sg20
S'Start revision of toFile into which integration was \n\t\t    performed.'
p1361
stRp1362
ag3
(g4
g5
(dp1363
g17
S'Rev'
p1364
sg15
S'endToRev'
p1365
sg20
S'End revision of toFile into which integration was \n\t\t    performed. Only varies from startToRev for reverse \n\t\t    integration records.'
p1366
stRp1367
ag3
(g4
g5
(dp1368
g17
S'IntegHow'
p1369
sg15
S'how'
p1370
sg20
S'Integration method: variations on \n\t\t    merge/branch/copy/ignore/delete.'
p1371
stRp1372
ag3
(g4
g5
(dp1373
g17
S'ResolveState'
p1374
sg15
S'state'
p1375
sg20
S'How the user performed the resolve.'
p1376
stRp1377
ag3
(g4
g5
(dp1378
g17
S'File'
p1379
sg15
S'baseFile'
p1380
sg20
S'File used as the base for merging.'
p1381
stRp1382
ag3
(g4
g5
(dp1383
g17
S'Rev'
p1384
sg15
S'baseRev'
p1385
sg20
S'Revision of baseFile used as the merge base.'
p1386
stRp1387
atRp1388
sg15
S'Resolve'
p1389
stRp1390
ag3
(g4
g5
(dp1391
g451
g3
(g8
g9
(lp1392
g3
(g4
g5
(dp1393
g17
S'File'
p1394
sg15
S'depotFile'
p1395
sg20
S'The file name'
p1396
stRp1397
ag3
(g4
g5
(dp1398
g17
S'Rev'
p1399
sg15
S'depotRev'
p1400
sg20
S'The revision number'
p1401
stRp1402
ag3
(g4
g5
(dp1403
g17
S'FileType'
p1404
sg15
S'type'
p1405
sg20
S'The file type of the revision'
p1406
stRp1407
ag3
(g4
g5
(dp1408
g17
S'Action'
p1409
sg15
S'action'
p1410
sg20
S'The action that created the revision'
p1411
stRp1412
ag3
(g4
g5
(dp1413
g17
S'Change'
p1414
sg15
S'change'
p1415
sg20
S'The changelist that created the revision'
p1416
stRp1417
ag3
(g4
g5
(dp1418
g17
S'Date'
p1419
sg15
S'date'
p1420
sg20
S'The date/time the changelist that created the revision\n\t\t    was submitted'
p1421
stRp1422
ag3
(g4
g5
(dp1423
g17
S'Date'
p1424
sg15
S'modTime'
p1425
sg20
S"The timestamp on the file in the user's workspace when\n\t\t    the revision was submitted."
p1426
stRp1427
ag3
(g4
g5
(dp1428
g17
S'Digest'
p1429
sg15
S'digest'
p1430
sg20
S'The MD5 digest of the revision.'
p1431
stRp1432
ag3
(g4
g5
(dp1433
g17
S'FileSize'
p1434
sg15
S'size'
p1435
sg20
S'The size of the file in bytes'
p1436
stRp1437
ag3
(g4
g5
(dp1438
g17
S'TraitLot'
p1439
sg15
S'traitLot'
p1440
sg20
S'Group of traits (attributes) associated with the revision.'
p1441
stRp1442
ag3
(g4
g5
(dp1443
g17
S'RevStatus'
p1444
sg15
S'lbrIsLazy'
p1445
sg20
S'Specifies whether or not the revision gets its content from \n\t  \t    another file (lazy copy) and data about promotion of revision\n\t \t    content from task streams (task sparse, task branch).'
p1446
stRp1447
ag3
(g4
g5
(dp1448
g17
S'File'
p1449
sg15
S'lbrFile'
p1450
sg20
S"Filename for librarian's purposes.  Specifies location in \n\t\t    the archives where the file containing the revision may\n\t\t    be found. Usually the same as depotFile, but differs in\n\t\t    the case of branched/copied revisions."
p1451
stRp1452
ag3
(g4
g5
(dp1453
g17
S'String'
p1454
sg15
S'lbrRev'
p1455
sg20
S'The revision of lbrFile that contains the revision content.'
p1456
stRp1457
ag3
(g4
g5
(dp1458
g17
S'FileType'
p1459
sg15
S'lbrType'
p1460
sg20
S'The file type of the librarian revision. Usually the same\n\t\t    as type, but differs in the case of branched/copied \n\t\t    revisions.'
p1461
stRp1462
atRp1463
sg15
S'Rev'
p1464
stRp1465
ag3
(g4
g5
(dp1466
g451
g3
(g8
g9
(lp1467
g3
(g4
g5
(dp1468
g17
S'Change'
p1469
sg15
S'change'
p1470
sg20
S'The changelist that created the revision'
p1471
stRp1472
ag3
(g4
g5
(dp1473
g17
S'File'
p1474
sg15
S'depotFile'
p1475
sg20
S'The file name'
p1476
stRp1477
ag3
(g4
g5
(dp1478
g17
S'Rev'
p1479
sg15
S'depotRev'
p1480
sg20
S'The revision number'
p1481
stRp1482
ag3
(g4
g5
(dp1483
g17
S'Action'
p1484
sg15
S'action'
p1485
sg20
S'The action that created the revision'
p1486
stRp1487
atRp1488
sg15
S'RevCx'
p1489
stRp1490
ag3
(g4
g5
(dp1491
g451
g3
(g8
g9
(lp1492
g3
(g4
g5
(dp1493
g17
S'User'
p1494
sg15
S'user'
p1495
sg20
S'A user name'
p1496
stRp1497
ag3
(g4
g5
(dp1498
g17
S'Int'
p1499
sg15
S'seq'
p1500
sg20
S'Sequence number: used for ordering multi-line views'
p1501
stRp1502
ag3
(g4
g5
(dp1503
g17
S'MapFlag'
p1504
sg15
S'mapFlag'
p1505
sg20
S'Type of mapping'
p1506
stRp1507
ag3
(g4
g5
(dp1508
g17
S'Mapping'
p1509
sg15
S'depotFile'
p1510
sg20
S'The files to be reviewed'
p1511
stRp1512
ag3
(g4
g5
(dp1513
g17
S'Reviewer'
p1514
sg15
S'type'
p1515
sg20
S'Type of reviewer'
p1516
stRp1517
atRp1518
sg15
S'Review'
p1519
stRp1520
ag3
(g4
g5
(dp1521
g451
g3
(g8
g9
(lp1522
g3
(g4
g5
(dp1523
g17
S'text'
p1524
sg15
S'id'
p1525
sg20
S'The server identifier'
p1526
stRp1527
ag3
(g4
g5
(dp1528
g17
S'ServerType'
p1529
sg15
S'type'
p1530
sg20
S'The server type: server/broker/proxy'
p1531
stRp1532
ag3
(g4
g5
(dp1533
g17
S'text'
p1534
sg15
S'name'
p1535
sg20
S'The P4NAME used by this server'
p1536
stRp1537
ag3
(g4
g5
(dp1538
g17
S'text'
p1539
sg15
S'address'
p1540
sg20
S'The P4PORT used by this server'
p1541
stRp1542
ag3
(g4
g5
(dp1543
g17
S'ServerServiceType'
p1544
sg15
S'services'
p1545
sg20
S'Service provided by this server'
p1546
stRp1547
ag3
(g4
g5
(dp1548
g17
S'text'
p1549
sg15
S'desc'
p1550
sg20
S'Server description'
p1551
stRp1552
atRp1553
sg15
S'Server'
p1554
stRp1555
ag3
(g4
g5
(dp1556
g451
g3
(g8
g9
(lp1557
g3
(g4
g5
(dp1558
g17
S'Domain'
p1559
sg15
S'stream'
p1560
sg20
S'Stream name'
p1561
stRp1562
ag3
(g4
g5
(dp1563
g17
S'Domain'
p1564
sg15
S'parent'
p1565
sg20
S'Parent stream name'
p1566
stRp1567
ag3
(g4
g5
(dp1568
g17
S'Text'
p1569
sg15
S'title'
p1570
sg20
S'Stream title (alias for the stream name)'
p1571
stRp1572
ag3
(g4
g5
(dp1573
g17
S'StreamType'
p1574
sg15
S'type'
p1575
sg20
S'The type of stream'
p1576
stRp1577
ag3
(g4
g5
(dp1578
g17
S'Date'
p1579
sg15
S'preview'
p1580
sg20
S'Stream template modification time'
p1581
stRp1582
ag3
(g4
g5
(dp1583
g17
S'Change'
p1584
sg15
S'change'
p1585
sg20
S'Last submit to stream'
p1586
stRp1587
ag3
(g4
g5
(dp1588
g17
S'Change'
p1589
sg15
S'copychg'
p1590
sg20
S'Parent change at last copy'
p1591
stRp1592
ag3
(g4
g5
(dp1593
g17
S'Change'
p1594
sg15
S'mergechg'
p1595
sg20
S'Parent change at last merge'
p1596
stRp1597
ag3
(g4
g5
(dp1598
g17
S'Change'
p1599
sg15
S'highchg'
p1600
sg20
S'Highest change at last merge'
p1601
stRp1602
ag3
(g4
g5
(dp1603
g17
S'Int'
p1604
sg15
S'hash'
p1605
sg20
S'Hash value of dynamic branch'
p1606
stRp1607
ag3
(g4
g5
(dp1608
g17
S'StreamStatus'
p1609
sg15
S'status'
p1610
sg20
S'Flow status'
p1611
stRp1612
atRp1613
sg15
S'Stream'
p1614
stRp1615
ag3
(g4
g5
(dp1616
g451
g3
(g8
g9
(lp1617
g3
(g4
g5
(dp1618
g17
S'Text'
p1619
sg15
S'id'
p1620
sg20
S'Server name'
p1621
stRp1622
ag3
(g4
g5
(dp1623
g17
S'SvrViewType'
p1624
sg15
S'type'
p1625
sg20
S'View type'
p1626
stRp1627
ag3
(g4
g5
(dp1628
g17
S'Int'
p1629
sg15
S'seq'
p1630
sg20
S'Sequence (line) number'
p1631
stRp1632
ag3
(g4
g5
(dp1633
g17
S'MapFlag'
p1634
sg15
S'mapFlag'
p1635
sg20
S'Type of mapping'
p1636
stRp1637
ag3
(g4
g5
(dp1638
g17
S'Mapping'
p1639
sg15
S'viewFile'
p1640
sg20
S'View file'
p1641
stRp1642
atRp1643
sg15
S'SvrView'
p1644
stRp1645
ag3
(g4
g5
(dp1646
g451
g3
(g8
g9
(lp1647
g3
(g4
g5
(dp1648
g17
S'Domain'
p1649
sg15
S'name'
p1650
sg20
S'Stream name'
p1651
stRp1652
ag3
(g4
g5
(dp1653
g17
S'Change'
p1654
sg15
S'change'
p1655
sg20
S'Versioned at change'
p1656
stRp1657
ag3
(g4
g5
(dp1658
g17
S'Int'
p1659
sg15
S'seq'
p1660
sg20
S'Sequence (line) number'
p1661
stRp1662
ag3
(g4
g5
(dp1663
g17
S'Domain'
p1664
sg15
S'parent'
p1665
sg20
S'Parent stream name'
p1666
stRp1667
ag3
(g4
g5
(dp1668
g17
S'StreamType'
p1669
sg15
S'type'
p1670
sg20
S'Type of stream'
p1671
stRp1672
ag3
(g4
g5
(dp1673
g17
S'StreamPathType'
p1674
sg15
S'path'
p1675
sg20
S'Stream path type'
p1676
stRp1677
ag3
(g4
g5
(dp1678
g17
S'Mapping'
p1679
sg15
S'viewFile'
p1680
sg20
S'View file (left hand side of path)'
p1681
stRp1682
ag3
(g4
g5
(dp1683
g17
S'Mapping'
p1684
sg15
S'depotFile'
p1685
sg20
S'Depot file (right hand side of path)'
p1686
stRp1687
atRp1688
sg15
S'Template'
p1689
stRp1690
ag3
(g4
g5
(dp1691
g451
g3
(g8
g9
(lp1692
g3
(g4
g5
(dp1693
g17
S'String'
p1694
sg15
S'fileAndRev'
p1695
sg20
S'The file name and revision'
p1696
stRp1697
ag3
(g4
g5
(dp1698
g17
S'Octet String'
p1699
sg15
S'fileContent'
p1700
sg20
S'The (encoded) file content'
p1701
stRp1702
atRp1703
sg15
S'TinyDb'
p1704
stRp1705
ag3
(g4
g5
(dp1706
g451
g3
(g8
g9
(lp1707
g3
(g4
g5
(dp1708
g17
S'Int'
p1709
sg15
S'traitLot'
p1710
sg20
S'Indicates a specific collection of traits (referred to \n\t\t    externally as "attributes".)'
p1711
stRp1712
ag3
(g4
g5
(dp1713
g17
S'String'
p1714
sg15
S'name'
p1715
sg20
S'Trait (attribute) name'
p1716
stRp1717
ag3
(g4
g5
(dp1718
g17
S'TraitType'
p1719
sg15
S'type'
p1720
sg20
S'Type of trait'
p1721
stRp1722
ag3
(g4
g5
(dp1723
g17
S'Octet String'
p1724
sg15
S'value'
p1725
sg20
S'The value'
p1726
stRp1727
atRp1728
sg15
S'Trait'
p1729
stRp1730
ag3
(g4
g5
(dp1731
g451
g3
(g8
g9
(lp1732
g3
(g4
g5
(dp1733
g17
S'Int'
p1734
sg15
S'seq'
p1735
sg20
S'Sequence number: for ordering the trigger list'
p1736
stRp1737
ag3
(g4
g5
(dp1738
g17
S'String'
p1739
sg15
S'name'
p1740
sg20
S'Name of the trigger'
p1741
stRp1742
ag3
(g4
g5
(dp1743
g17
S'MapFlag'
p1744
sg15
S'mapFlag'
p1745
sg20
S'Type of mapping: specifies whether the trigger applies \n\t\t    to the files or not.'
p1746
stRp1747
ag3
(g4
g5
(dp1748
g17
S'Mapping'
p1749
sg15
S'depotFile'
p1750
sg20
S'The files to apply the trigger to'
p1751
stRp1752
ag3
(g4
g5
(dp1753
g17
S'Trigger'
p1754
sg15
S'trigger'
p1755
sg20
S'Type of trigger'
p1756
stRp1757
ag3
(g4
g5
(dp1758
g17
S'Text'
p1759
sg15
S'action'
p1760
sg20
S'Command to execute when trigger runs'
p1761
stRp1762
atRp1763
sg15
S'Trigger'
p1764
stRp1765
ag3
(g4
g5
(dp1766
g451
g3
(g8
g9
(lp1767
g3
(g4
g5
(dp1768
g17
S'User'
p1769
sg15
S'user'
p1770
sg20
S'The username'
p1771
stRp1772
ag3
(g4
g5
(dp1773
g17
S'Text'
p1774
sg15
S'email'
p1775
sg20
S"The user's email address"
p1776
stRp1777
ag3
(g4
g5
(dp1778
g17
S'Text'
p1779
sg15
S'jobView'
p1780
sg20
S"The user's job view"
p1781
stRp1782
ag3
(g4
g5
(dp1783
g17
S'Date'
p1784
sg15
S'updateDate'
p1785
sg20
S'The date/time the user record was last updated'
p1786
stRp1787
ag3
(g4
g5
(dp1788
g17
S'Date'
p1789
sg15
S'accessDate'
p1790
sg20
S'The date/time the user record was last used'
p1791
stRp1792
ag3
(g4
g5
(dp1793
g17
S'Text'
p1794
sg15
S'fullName'
p1795
sg20
S"The user's full name"
p1796
stRp1797
ag3
(g4
g5
(dp1798
g17
S'Password'
p1799
sg15
S'password'
p1800
sg20
S'The MD5 hash of the users (encrypted) password'
p1801
stRp1802
ag3
(g4
g5
(dp1803
g17
S'Strength'
p1804
sg15
S'strength'
p1805
sg20
S"Measure of the strength of the user's password"
p1806
stRp1807
ag3
(g4
g5
(dp1808
g17
S'Password'
p1809
sg15
S'ticket'
p1810
sg20
S"'p4 login' ticket for this user"
p1811
stRp1812
ag3
(g4
g5
(dp1813
g17
S'Date'
p1814
sg15
S'endDate'
p1815
sg20
S"Date/time the user's ticket expires"
p1816
stRp1817
ag3
(g4
g5
(dp1818
g17
S'UserLevel'
p1819
sg15
S'type'
p1820
sg20
S'Type of user'
p1821
stRp1822
ag3
(g4
g5
(dp1823
g17
S'Date'
p1824
sg15
S'passDate'
p1825
sg20
S'Date password was last changed'
p1826
stRp1827
ag3
(g4
g5
(dp1828
g17
S'Date'
p1829
sg15
S'passExpire'
p1830
sg20
S'Date of password expiration'
p1831
stRp1832
atRp1833
sg15
S'User'
p1834
stRp1835
ag3
(g4
g5
(dp1836
g451
g3
(g8
g9
(lp1837
g3
(g4
g5
(dp1838
g17
S'Domain'
p1839
sg15
S'name'
p1840
sg20
S'Domain name to which this view applies'
p1841
stRp1842
ag3
(g4
g5
(dp1843
g17
S'Int'
p1844
sg15
S'seq'
p1845
sg20
S'Sequence number: for ordering multi-line views'
p1846
stRp1847
ag3
(g4
g5
(dp1848
g17
S'MapFlag'
p1849
sg15
S'mapFlag'
p1850
sg20
S'Type of mapping'
p1851
stRp1852
ag3
(g4
g5
(dp1853
g17
S'Mapping'
p1854
sg15
S'viewFile'
p1855
sg20
S"The right-hand-side of the view. For clients, this is\n\t\t    the client-side, for labels it's the generated label \n\t\t    view. For branches, it's the target side of the branch\n\t\t    view."
p1856
stRp1857
ag3
(g4
g5
(dp1858
g17
S'Mapping'
p1859
sg15
S'depotFile'
p1860
sg20
S'The left-hand-side of the view - a mapping to file(s)\n\t\t    in the depot.'
p1861
stRp1862
atRp1863
sg15
S'View'
p1864
stRp1865
ag3
(g4
g5
(dp1866
g451
g3
(g8
g9
(lp1867
g3
(g4
g5
(dp1868
g17
S'File'
p1869
sg15
S'clientFile'
p1870
sg20
S'File on the client'
p1871
stRp1872
ag3
(g4
g5
(dp1873
g17
S'File'
p1874
sg15
S'depotFile'
p1875
sg20
S'File in the depot'
p1876
stRp1877
ag3
(g4
g5
(dp1878
g17
S'Domain'
p1879
sg15
S'client'
p1880
sg20
S'The client the file is opened on'
p1881
stRp1882
ag3
(g4
g5
(dp1883
g17
S'User'
p1884
sg15
S'user'
p1885
sg20
S'The user who has the file opened'
p1886
stRp1887
ag3
(g4
g5
(dp1888
g17
S'Rev'
p1889
sg15
S'haveRev'
p1890
sg20
S"Revision presently in user's client workspace.  This is \n\t\t    normally identical to workRev except for the case in which \n\t\t    you've tried to submit a file where you no longer have the \n\t\t    head revision. Perforce schedules the integrate (moves \n\t\t    workRev to headRev, but doesn't change the haveRev, so that \n\t\t    a p4 revert will return the file originally checked-out \n\t\t    instead of the new head revision."
p1891
stRp1892
ag3
(g4
g5
(dp1893
g17
S'Rev'
p1894
sg15
S'workRev'
p1895
sg20
S'Working revision; this is identical to the haveRev except \n\t\t    in the case described above.'
p1896
stRp1897
ag3
(g4
g5
(dp1898
g17
S'Int'
p1899
sg15
S'isVirtual'
p1900
sg20
S'Flag: if 1, file was opened with "p4 integ -v".'
p1901
stRp1902
ag3
(g4
g5
(dp1903
g17
S'FileType'
p1904
sg15
S'type'
p1905
sg20
S'File type'
p1906
stRp1907
ag3
(g4
g5
(dp1908
g17
S'Action'
p1909
sg15
S'action'
p1910
sg20
S"What the user's doing with the file"
p1911
stRp1912
ag3
(g4
g5
(dp1913
g17
S'Change'
p1914
sg15
S'change'
p1915
sg20
S'Associated changelist, or zero for the default changelist.'
p1916
stRp1917
ag3
(g4
g5
(dp1918
g17
S'Date'
p1919
sg15
S'modTime'
p1920
sg20
S"Modification timestamp on the file in the user's workspace."
p1921
stRp1922
ag3
(g4
g5
(dp1923
g17
S'Int'
p1924
sg15
S'isLocked'
p1925
sg20
S'Flag: 0 for unlocked, 1 for locked.'
p1926
stRp1927
ag3
(g4
g5
(dp1928
g17
S'Digest'
p1929
sg15
S'digest'
p1930
sg20
S'MD5 digest of working file.'
p1931
stRp1932
ag3
(g4
g5
(dp1933
g17
S'Int64'
p1934
sg15
S'size'
p1935
sg20
S'File size'
p1936
stRp1937
ag3
(g4
g5
(dp1938
g17
S'Int'
p1939
sg15
S'traitLot'
p1940
sg20
S'Group of traits associated with file revision.'
p1941
stRp1942
ag3
(g4
g5
(dp1943
g17
S'TamperCheck'
p1944
sg15
S'tampered'
p1945
sg20
S'Flag indicating the tamper-state of the file in the\n\t\t    workspace.'
p1946
stRp1947
ag3
(g4
g5
(dp1948
g17
S'FileType'
p1949
sg15
S'clntType'
p1950
sg20
S'Type of the file in the client workspace.'
p1951
stRp1952
ag3
(g4
g5
(dp1953
g17
S'File'
p1954
sg15
S'mFile'
p1955
sg20
S'Moved filename'
p1956
stRp1957
atRp1958
sg15
S'Working'
p1959
stRp1960
atRp1961
stRp1962
sS'upgrades'
p1963
g3
(g4
g5
(dp1964
S'upgrade'
p1965
g3
(g8
g9
(lp1966
g3
(g4
g5
(dp1967
S'release'
p1968
S'2001.1'
p1969
sS'index'
p1970
S'1'
sg20
S'Split db.integ into db.integed and db.resolve'
p1971
stRp1972
ag3
(g4
g5
(dp1973
g1968
S'2001.1'
p1974
sg1970
S'2'
sg20
S'Splt db.have into db.have and db.label'
p1975
stRp1976
ag3
(g4
g5
(dp1977
g1968
S'2002.1'
p1978
sg1970
S'3'
sg20
S'Split db.change into db.change and db.changex'
p1979
stRp1980
ag3
(g4
g5
(dp1981
g1968
S'2002.2'
p1982
sg1970
S'4'
sg20
S'Upgrade tempobj filetype in db.rev'
p1983
stRp1984
ag3
(g4
g5
(dp1985
g1968
S'2002.2'
p1986
sg1970
S'5'
sg20
S'Upgrade tempobj filetype in db.working'
p1987
stRp1988
ag3
(g4
g5
(dp1989
g1968
S'2003.1'
p1990
sg1970
S'6'
sg20
S'JnlInitialize default depot'
p1991
stRp1992
ag3
(g4
g5
(dp1993
g1968
S'2003.2'
p1994
sg1970
S'7'
sg20
S'Upgrade db.user'
p1995
stRp1996
ag3
(g4
g5
(dp1997
g1968
S'2005.1'
p1998
sg1970
S'8'
sg20
S'Build db.revhx (headrev) table'
p1999
stRp2000
ag3
(g4
g5
(dp2001
g1968
S'2005.1'
p2002
sg1970
S'9'
sg20
S'Rebuild db.locks from db.working'
p2003
stRp2004
ag3
(g4
g5
(dp2005
g1968
S'2005.1'
p2006
sg1970
S'10'
p2007
sg123
S'Removed in 2006.2'
p2008
sg20
S'Build lazy-copy index (db.archive)'
p2009
stRp2010
ag3
(g4
g5
(dp2011
g1968
S'2005.2'
p2012
sg1970
S'11'
p2013
sg20
S'Build db.revdx (delrev) table'
p2014
stRp2015
ag3
(g4
g5
(dp2016
g1968
S'2005.2'
p2017
sg1970
S'12'
p2018
sg123
S'Moved to 16 in 2007.3'
p2019
sg20
S'Build haveMap from db.have/db.working'
p2020
stRp2021
ag3
(g4
g5
(dp2022
g1968
S'2005.2'
p2023
sg1970
S'13'
p2024
sg20
S'Move spec depot entries into db.revsx'
p2025
stRp2026
ag3
(g4
g5
(dp2027
g1968
S'2006.2'
p2028
sg1970
S'14'
p2029
sg123
S'Moved to 17 in 2007.3'
p2030
sg20
S'Build db.archmap (lazy-copy map) table'
p2031
stRp2032
ag3
(g4
g5
(dp2033
g1968
S'2006.2'
p2034
sg1970
S'15'
p2035
sg123
S'Moved to 18 in 2007.3'
p2036
sg20
S'Remove (obsolete) db.archive table'
p2037
stRp2038
ag3
(g4
g5
(dp2039
g1968
S'2007.3'
p2040
sg1970
S'16'
p2041
sg123
S'Rewritten in 2007.3'
p2042
sg20
S'Build/Rebuild haveMap from db.have/db.working'
p2043
stRp2044
ag3
(g4
g5
(dp2045
g1968
S'2007.3'
p2046
sg1970
S'17'
p2047
sg123
S'Rewritten in 2007.3'
p2048
sg20
S'Build/Rebuild db.archmap (lazy-copy map) table'
p2049
stRp2050
ag3
(g4
g5
(dp2051
g1968
S'2007.3'
p2052
sg1970
S'18'
p2053
sg123
S'Moved from 15 in 2007.3'
p2054
sg20
S'Remove (obsolete) db.archive table'
p2055
stRp2056
ag3
(g4
g5
(dp2057
g1968
S'2008.1'
p2058
sg1970
S'19'
p2059
sg20
S'Build db.change common path'
p2060
stRp2061
ag3
(g4
g5
(dp2062
g1968
S'2009.2'
p2063
sg1970
S'20'
p2064
sg20
S'Move db.boddate/db.ixdate into db.bodtext/db.ixtext'
p2065
stRp2066
ag3
(g4
g5
(dp2067
g1968
S'2009.2'
p2068
sg1970
S'21'
p2069
sg20
S'Remove db.boddate/db.ixdate'
p2070
stRp2071
ag3
(g4
g5
(dp2072
g1968
S'2010.2'
p2073
sg1970
S'22'
p2074
sg20
S'Add db.config'
p2075
stRp2076
ag3
(g4
g5
(dp2077
g1968
S'2011.1'
p2078
sg1970
S'23'
p2079
sg20
S'Upgrade tiny.db'
p2080
stRp2081
atRp2082
stRp2083
sS'datatypes'
p2084
g3
(g4
g5
(dp2085
S'datatype'
p2086
g3
(g8
g9
(lp2087
g3
(g4
g5
(dp2088
g17
S'flag'
p2089
sS'summary'
p2090
S'Type of action'
p2091
sS'values'
p2092
g3
(g8
g9
(lp2093
g3
(g4
g5
(dp2094
S'value'
p2095
S'0'
sg20
S'add; user adds a file'
p2096
stRp2097
ag3
(g4
g5
(dp2098
g2095
S'1'
sg20
S'edit; user edits a file'
p2099
stRp2100
ag3
(g4
g5
(dp2101
g2095
S'2'
sg20
S'delete; user deletes a file'
p2102
stRp2103
ag3
(g4
g5
(dp2104
g2095
S'3'
sg20
S'branch; add via integration'
p2105
stRp2106
ag3
(g4
g5
(dp2107
g2095
S'4'
sg20
S'integ; edit via integration'
p2108
stRp2109
ag3
(g4
g5
(dp2110
g2095
S'5'
sg20
S'import; add via remote depot'
p2111
stRp2112
ag3
(g4
g5
(dp2113
g2095
S'6'
sg20
S'purge; purged revision, no longer available'
p2114
stRp2115
ag3
(g4
g5
(dp2116
g2095
S'7'
sg20
S'movefrom; move from another filename'
p2117
stRp2118
ag3
(g4
g5
(dp2119
g2095
S'8'
sg20
S'moveto; move to another filename'
p2120
stRp2121
ag3
(g4
g5
(dp2122
g2095
S'9'
sg20
S'archive; stored in archive depot'
p2123
stRp2124
atRp2125
sg15
S'Action'
p2126
sg20
S'Revisions are produced by user actions. The Action\n\t\ttype defines the available actions and their internal values.'
p2127
stRp2128
ag3
(g4
g5
(dp2129
g2090
S'A changelist number'
p2130
sg17
S'integer'
p2131
sg15
S'Change'
p2132
sg20
S'The number of a changelist. The number 0 represents the\n\t\tdefault pending changelist.'
p2133
stRp2134
ag3
(g4
g5
(dp2135
g17
S'flag'
p2136
sg2090
S'The status of a change'
p2137
sg2092
g3
(g8
g9
(lp2138
g3
(g4
g5
(dp2139
g2095
S'0'
sg20
S'pending'
p2140
stRp2141
ag3
(g4
g5
(dp2142
g2095
S'1'
sg20
S'committed'
p2143
stRp2144
ag3
(g4
g5
(dp2145
g2095
S'2'
sg20
S'shelved'
p2146
stRp2147
ag3
(g4
g5
(dp2148
g2095
S'4'
sg20
S'restricted, pending'
p2149
stRp2150
ag3
(g4
g5
(dp2151
g2095
S'5'
sg20
S'restricted, committed'
p2152
stRp2153
ag3
(g4
g5
(dp2154
g2095
S'6'
sg20
S'restricted, shelved'
p2155
stRp2156
atRp2157
sg15
S'ChangeStatus'
p2158
sg20
S'A integer value representing the status of a change'
p2159
stRp2160
ag3
(g4
g5
(dp2161
g2090
S'A counter name'
p2162
sg17
S'string'
p2163
sg15
S'Counter'
p2164
sg20
S'A string representing the counter name. Counter names must \n\t\tcontain no spaces, contain no slashes, and be identifiers \n\t\t(cannot begin with a dash and cannot be all-numeric)'
p2165
stRp2166
ag3
(g4
g5
(dp2167
g2090
S'A unix-style date and time'
p2168
sg17
S'integer'
p2169
sg15
S'Date'
p2170
sg20
S'A date and time represented as the number of seconds since \n\t\tthe Epoch: 01 January 1970 00:00:00 UTC. This is the same \n\t\tconvention as that used on Unix platforms.'
p2171
stRp2172
ag3
(g4
g5
(dp2173
g17
S'flag'
p2174
sg2090
S'Type of Depot'
p2175
sg2092
g3
(g8
g9
(lp2176
g3
(g4
g5
(dp2177
g2095
S'0'
sg20
S'local depot'
p2178
stRp2179
ag3
(g4
g5
(dp2180
g2095
S'1'
sg20
S'remote depot'
p2181
stRp2182
ag3
(g4
g5
(dp2183
g2095
S'2'
sg20
S'spec depot'
p2184
stRp2185
ag3
(g4
g5
(dp2186
g2095
S'3'
sg20
S'stream depot'
p2187
stRp2188
ag3
(g4
g5
(dp2189
g2095
S'4'
sg20
S'archive depot'
p2190
stRp2191
ag3
(g4
g5
(dp2192
g2095
S'5'
sg20
S'unload depot'
p2193
stRp2194
atRp2195
sg15
S'DepotType'
p2196
sg20
S'The type of a given depot'
p2197
stRp2198
ag3
(g4
g5
(dp2199
g2090
S'A short string value'
p2200
sg20
S'The first 31 characters of a Text string'
p2201
sg17
S'string'
p2202
sg15
S'DescShort'
p2203
sg128
S'Text'
p2204
stRp2205
ag3
(g4
g5
(dp2206
g2090
S'An MD5 digest'
p2207
sg17
S'string'
p2208
sg15
S'Digest'
p2209
sg20
S'A string containing an MD5 digest.'
p2210
stRp2211
ag3
(g4
g5
(dp2212
g2090
S'A domain name'
p2213
sg17
S'string'
p2214
sg15
S'Domain'
p2215
sg20
S'A string representing the name of a depot, label, client,\n\t\tbranch, typemap, or stream.'
p2216
stRp2217
ag3
(g4
g5
(dp2218
g2090
S'A string with optional wildcards'
p2219
sg17
S'string'
p2220
sg15
S'DomainWild'
p2221
sg20
S'A string that may contain wildcards - usually an IP address\n\t\tin the protections table.'
p2222
stRp2223
ag3
(g4
g5
(dp2224
g2092
g3
(g8
g9
(lp2225
g3
(g4
g5
(dp2226
S'mask'
p2227
S'Domain Flags'
p2228
sg2095
S'0x0001'
p2229
sg20
S'modtime'
p2230
stRp2231
ag3
(g4
g5
(dp2232
g2227
S'Domain Flags'
p2233
sg2095
S'0x0002'
p2234
sg20
S'clobber'
p2235
stRp2236
ag3
(g4
g5
(dp2237
g2227
S'Domain Flags'
p2238
sg2095
S'0x0004'
p2239
sg20
S'allwrite'
p2240
stRp2241
ag3
(g4
g5
(dp2242
g2227
S'Domain Flags'
p2243
sg2095
S'0x0008'
p2244
sg20
S'locked'
p2245
stRp2246
ag3
(g4
g5
(dp2247
g2227
S'Domain Flags'
p2248
sg2095
S'0x0020'
p2249
sg20
S'compress'
p2250
stRp2251
ag3
(g4
g5
(dp2252
g2227
S'Domain Flags'
p2253
sg2095
S'0x0040'
p2254
sg20
S'rmdir'
p2255
stRp2256
ag3
(g4
g5
(dp2257
g2227
S'Domain Flags'
p2258
sg2095
S'0x1000'
p2259
sg20
S'indirect (obsolete since 2004.2)'
p2260
stRp2261
ag3
(g4
g5
(dp2262
g2227
S'Domain Flags'
p2263
sg2095
S'0x8000'
p2264
sg20
S'autoreload'
p2265
stRp2266
ag3
(g4
g5
(dp2267
g2227
S'Domain LineEnd'
p2268
sg2095
S'0x0000'
p2269
sg20
S'local'
p2270
stRp2271
ag3
(g4
g5
(dp2272
g2227
S'Domain LineEnd'
p2273
sg2095
S'0x0010'
p2274
sg20
S'unix (LF)'
p2275
stRp2276
ag3
(g4
g5
(dp2277
g2227
S'Domain LineEnd'
p2278
sg2095
S'0x0200'
p2279
sg20
S'mac (CR)'
p2280
stRp2281
ag3
(g4
g5
(dp2282
g2227
S'Domain LineEnd'
p2283
sg2095
S'0x0300'
p2284
sg20
S'win (CRLF)'
p2285
stRp2286
ag3
(g4
g5
(dp2287
g2227
S'Domain LineEnd'
p2288
sg2095
S'0x0400'
p2289
sg20
S'share (LF/CRLF)'
p2290
stRp2291
ag3
(g4
g5
(dp2292
g2227
S'Domain SubmitMask'
p2293
sg2095
S'0x1000'
p2294
sg20
S'Revert unchanged files'
p2295
stRp2296
ag3
(g4
g5
(dp2297
g2227
S'Domain SubmitMask'
p2298
sg2095
S'0x2000'
p2299
sg20
S'Leave unchanged files'
p2300
stRp2301
ag3
(g4
g5
(dp2302
g2227
S'Domain SubmitMask'
p2303
sg2095
S'0x4000'
p2304
sg20
S'Submit, and re-open unchanged files'
p2305
stRp2306
ag3
(g4
g5
(dp2307
g2227
S'Domain StreamMask'
p2308
sg2095
S'0x0001'
p2309
sg20
S'ownersubmit'
p2310
stRp2311
ag3
(g4
g5
(dp2312
g2227
S'Domain StreamMask'
p2313
sg2095
S'0x0002'
p2314
sg20
S'locked'
p2315
stRp2316
ag3
(g4
g5
(dp2317
g2227
S'Domain StreamMask'
p2318
sg2095
S'0x0004'
p2319
sg20
S'change flows to parent'
p2320
stRp2321
ag3
(g4
g5
(dp2322
g2227
S'Domain StreamMask'
p2323
sg2095
S'0x0008'
p2324
sg20
S'change flows from parent'
p2325
stRp2326
atRp2327
sg15
S'DomainOpts'
p2328
sg2227
g3
(g8
g9
(lp2329
g3
(g4
g5
(dp2330
g15
S'Domain Flags'
p2331
sg2095
S'0x10EF'
p2332
sg20
S'Bits used to store client, label, and branch options'
p2333
stRp2334
ag3
(g4
g5
(dp2335
g15
S'Domain LineEnd'
p2336
sg2095
S'0x0710'
p2337
sg20
S'Bits used to store client line termination settings.'
p2338
stRp2339
ag3
(g4
g5
(dp2340
g15
S'Domain SubmitMask'
p2341
sg2095
S'0x7000'
p2342
sg20
S'Bits used to store client submit options'
p2343
stRp2344
ag3
(g4
g5
(dp2345
g15
S'Domain StreamMask'
p2346
sg2095
S'0x000F'
p2347
sg20
S'Bits used to store stream options'
p2348
stRp2349
atRp2350
sg2090
S'Options for domains'
p2351
sg17
S'bitmask'
p2352
sg20
S'A integer value representing the options for a domain'
p2353
stRp2354
ag3
(g4
g5
(dp2355
g17
S'flag'
p2356
sg2090
S'A domain type'
p2357
sg2092
g3
(g8
g9
(lp2358
g3
(g4
g5
(dp2359
g2095
S"67 (ASCII 'C')"
p2360
sg20
S'unloaded client'
p2361
stRp2362
ag3
(g4
g5
(dp2363
g2095
S"76 (ASCII 'L')"
p2364
sg20
S'unloaded label'
p2365
stRp2366
ag3
(g4
g5
(dp2367
g2095
S"83 (ASCII 'S')"
p2368
sg20
S'unloaded task stream'
p2369
stRp2370
ag3
(g4
g5
(dp2371
g2095
S"98 (ASCII 'b')"
p2372
sg20
S'branch'
p2373
stRp2374
ag3
(g4
g5
(dp2375
g2095
S"99 (ASCII 'c')"
p2376
sg20
S'client'
p2377
stRp2378
ag3
(g4
g5
(dp2379
g2095
S"100 (ASCII 'd')"
p2380
sg20
S'depot'
p2381
stRp2382
ag3
(g4
g5
(dp2383
g2095
S"108 (ASCII 'l')"
p2384
sg20
S'label'
p2385
stRp2386
ag3
(g4
g5
(dp2387
g2095
S"115 (ASCII 's')"
p2388
sg20
S'stream'
p2389
stRp2390
ag3
(g4
g5
(dp2391
g2095
S"116 (ASCII 't')"
p2392
sg20
S'typemap'
p2393
stRp2394
atRp2395
sg15
S'DomainType'
p2396
sg20
S'A integer value representing the type of a domain'
p2397
stRp2398
ag3
(g4
g5
(dp2399
g2090
S'A file name'
p2400
sg20
S'A string representing the filename'
p2401
sg17
S'string'
p2402
sg15
S'File'
p2403
sg128
S'FileType'
p2404
stRp2405
ag3
(g4
g5
(dp2406
g2090
S'A file size'
p2407
sg17
S'integer'
p2408
sg15
S'FileSize'
p2409
sg20
S'A 64-bit integer used to store file sizes. The value -1 is\n\t\tused to represent unknown filesizes.'
p2410
stRp2411
ag3
(g4
g5
(dp2412
g2092
g3
(g8
g9
(lp2413
g3
(g4
g5
(dp2414
g2227
S'Storage Type'
p2415
sg2095
S'0x0000'
p2416
sg20
S'RCS'
p2417
stRp2418
ag3
(g4
g5
(dp2419
g2227
S'Storage Type'
p2420
sg2095
S'0x0001'
p2421
sg20
S'Binary'
p2422
stRp2423
ag3
(g4
g5
(dp2424
g2227
S'Storage Type'
p2425
sg2095
S'0x0002'
p2426
sg20
S'Tiny'
p2427
stRp2428
ag3
(g4
g5
(dp2429
g2227
S'Storage Type'
p2430
sg2095
S'0x0003'
p2431
sg20
S'Compressed'
p2432
stRp2433
ag3
(g4
g5
(dp2434
g2227
S'Storage Type'
p2435
sg2095
S'0x0004'
p2436
sg20
S'tempobj (deprecated since 2002.1)'
p2437
stRp2438
ag3
(g4
g5
(dp2439
g2227
S'Storage Type'
p2440
sg2095
S'0x0005'
p2441
sg20
S'Detect type. Used internally when no type is\n\t\t    given by the user.'
p2442
stRp2443
ag3
(g4
g5
(dp2444
g2227
S'Storage Type'
p2445
sg2095
S'0x0006'
p2446
sg20
S'Comressed tempobj (deprecated since 2002.1)'
p2447
stRp2448
ag3
(g4
g5
(dp2449
g2227
S'Storage Type'
p2450
sg2095
S'0x0007'
p2451
sg20
S'Binary access to compressed data. Used internally.'
p2452
stRp2453
ag3
(g4
g5
(dp2454
g2227
S'Storage Type'
p2455
sg2095
S'0x0008'
p2456
sg20
S'Stored externally via librarian trigger'
p2457
stRp2458
ag3
(g4
g5
(dp2459
g2227
S'Storage Mods'
p2460
sg2095
S'0x0010'
p2461
sg20
S'99.2-style keyword expansion/contraction'
p2462
stRp2463
ag3
(g4
g5
(dp2464
g2227
S'Storage Mods'
p2465
sg2095
S'0x0020'
p2466
sg20
S'2000.1-style keyword expansion/contraction'
p2467
stRp2468
ag3
(g4
g5
(dp2469
g2227
S'Storage Mods'
p2470
sg2095
S'0x0030'
p2471
sg20
S'Any type of keyword expansion'
p2472
stRp2473
ag3
(g4
g5
(dp2474
g2227
S'Storage Mods'
p2475
sg2095
S'0x0040'
p2476
sg20
S'Exclusive open'
p2477
stRp2478
ag3
(g4
g5
(dp2479
g2227
S'Storage Mods'
p2480
sg2095
S'0x0080'
p2481
sg20
S'New tempobj (+S modifier)'
p2482
stRp2483
ag3
(g4
g5
(dp2484
g2227
S'Tempobj revisions'
p2485
sg2095
S'0x0000'
p2486
sg20
S'+S1'
p2487
stRp2488
ag3
(g4
g5
(dp2489
g2227
S'Tempobj revisions'
p2490
sg2095
S'0x0100'
p2491
sg20
S'+S2'
p2492
stRp2493
ag3
(g4
g5
(dp2494
g2227
S'Tempobj revisions'
p2495
sg2095
S'0x0200'
p2496
sg20
S'+S3'
p2497
stRp2498
ag3
(g4
g5
(dp2499
g2227
S'Tempobj revisions'
p2500
sg2095
S'0x0300'
p2501
sg20
S'+S4'
p2502
stRp2503
ag3
(g4
g5
(dp2504
g2227
S'Tempobj revisions'
p2505
sg2095
S'0x0400'
p2506
sg20
S'+S5'
p2507
stRp2508
ag3
(g4
g5
(dp2509
g2227
S'Tempobj revisions'
p2510
sg2095
S'0x0500'
p2511
sg20
S'+S6'
p2512
stRp2513
ag3
(g4
g5
(dp2514
g2227
S'Tempobj revisions'
p2515
sg2095
S'0x0600'
p2516
sg20
S'+S7'
p2517
stRp2518
ag3
(g4
g5
(dp2519
g2227
S'Tempobj revisions'
p2520
sg2095
S'0x0700'
p2521
sg20
S'+S8'
p2522
stRp2523
ag3
(g4
g5
(dp2524
g2227
S'Tempobj revisions'
p2525
sg2095
S'0x0800'
p2526
sg20
S'+S9'
p2527
stRp2528
ag3
(g4
g5
(dp2529
g2227
S'Tempobj revisions'
p2530
sg2095
S'0x0900'
p2531
sg20
S'+S10'
p2532
stRp2533
ag3
(g4
g5
(dp2534
g2227
S'Tempobj revisions'
p2535
sg2095
S'0x0A00'
p2536
sg20
S'+S16'
p2537
stRp2538
ag3
(g4
g5
(dp2539
g2227
S'Tempobj revisions'
p2540
sg2095
S'0x0B00'
p2541
sg20
S'+S32'
p2542
stRp2543
ag3
(g4
g5
(dp2544
g2227
S'Tempobj revisions'
p2545
sg2095
S'0x0C00'
p2546
sg20
S'+S64'
p2547
stRp2548
ag3
(g4
g5
(dp2549
g2227
S'Tempobj revisions'
p2550
sg2095
S'0x0D00'
p2551
sg20
S'+S128'
p2552
stRp2553
ag3
(g4
g5
(dp2554
g2227
S'Tempobj revisions'
p2555
sg2095
S'0x0E00'
p2556
sg20
S'+S256'
p2557
stRp2558
ag3
(g4
g5
(dp2559
g2227
S'Tempobj revisions'
p2560
sg2095
S'0x0F00'
p2561
sg20
S'+S512'
p2562
stRp2563
ag3
(g4
g5
(dp2564
g2227
S'Client Type'
p2565
sg2095
S'0x0000000'
p2566
sg20
S'text'
p2567
stRp2568
ag3
(g4
g5
(dp2569
g2227
S'Client Type'
p2570
sg2095
S'0x0010000'
p2571
sg20
S'binary'
p2572
stRp2573
ag3
(g4
g5
(dp2574
g2227
S'Client Type'
p2575
sg2095
S'0x0020000'
p2576
sg20
S'executable bit set'
p2577
stRp2578
ag3
(g4
g5
(dp2579
g2227
S'Client Type'
p2580
sg2095
S'0x0040000'
p2581
sg20
S'symlink'
p2582
stRp2583
ag3
(g4
g5
(dp2584
g2227
S'Client Type'
p2585
sg2095
S'0x0050000'
p2586
sg20
S'resource fork'
p2587
stRp2588
ag3
(g4
g5
(dp2589
g2227
S'Client Type'
p2590
sg2095
S'0x0080000'
p2591
sg20
S'unicode'
p2592
stRp2593
ag3
(g4
g5
(dp2594
g2227
S'Client Type'
p2595
sg2095
S'0x0090000'
p2596
sg20
S'raw text (nocrlf - 99.1)'
p2597
stRp2598
ag3
(g4
g5
(dp2599
g2227
S'Client Type'
p2600
sg2095
S'0x00C0000'
p2601
sg20
S'apple data + resource file (since 2000.2)'
p2602
stRp2603
ag3
(g4
g5
(dp2604
g2227
S'Client Type'
p2605
sg2095
S'0x00D0000'
p2606
sg20
S'apple data + resource file (99.2)'
p2607
stRp2608
ag3
(g4
g5
(dp2609
g2227
S'Client Type'
p2610
sg2095
S'0x1000000'
p2611
sg20
S'Used to support filetype detection'
p2612
stRp2613
ag3
(g4
g5
(dp2614
g2227
S'Client Mods'
p2615
sg2095
S'0x0100000'
p2616
sg20
S'writable'
p2617
stRp2618
ag3
(g4
g5
(dp2619
g2227
S'Client Mods'
p2620
sg2095
S'0x0200000'
p2621
sg20
S'modtime'
p2622
stRp2623
ag3
(g4
g5
(dp2624
g2227
S'Client Mods'
p2625
sg2095
S'0x0400000'
p2626
sg20
S'uncompress on client'
p2627
stRp2628
atRp2629
sg15
S'FileType'
p2630
sg2227
g3
(g8
g9
(lp2631
g3
(g4
g5
(dp2632
g15
S'Storage Type'
p2633
sg2095
S'0x000F'
p2634
sg20
S"Bits used to store the server's storage type"
p2635
stRp2636
ag3
(g4
g5
(dp2637
g15
S'Storage Mods'
p2638
sg2095
S'0x00F0'
p2639
sg20
S"Bits used to store the modifiers to the server's storage \n\t\t    type"
p2640
stRp2641
ag3
(g4
g5
(dp2642
g15
S'Tempobj revisions'
p2643
sg2095
S'0x0F00'
p2644
sg20
S'Bits used to store the number of revisions to be stored\n\t\t    for +Sn files.'
p2645
stRp2646
ag3
(g4
g5
(dp2647
g15
S'Client Type'
p2648
sg2095
S'0x10D0000'
p2649
sg20
S"Bits used to store the file type from the client's point\n\t\t    of view."
p2650
stRp2651
ag3
(g4
g5
(dp2652
g15
S'Client Mods'
p2653
sg2095
S'0x720000'
p2654
sg20
S'Bits used to store the modifiers applied to the file\n\t\t    on the client.'
p2655
stRp2656
atRp2657
sg2090
S'Type of file'
p2658
sg17
S'bitmask'
p2659
sg20
S'The FileType is a bitmask specifying the type and modifiers\n\t\tof a revision from both the client and server points of view.\n\t\tThe first 16 bits are used to store the storage type and \n\t\tmodifiers, the next 16 bits are used to store the client \n\t\taccess method and modifiers.'
p2660
stRp2661
ag3
(g4
g5
(dp2662
g2090
S'Status of a fixed job'
p2663
sg17
S'string'
p2664
sg15
S'FixStatus'
p2665
sg20
S'This type is a wrapper around the \'Text\' type that handles\n\t\tthe pre-2000.1 "closed" default value.'
p2666
stRp2667
ag3
(g4
g5
(dp2668
g2090
S'A 32-bit integer'
p2669
sg17
S'integer'
p2670
sg15
S'Int'
p2671
sg20
S'A 32-bit integer'
p2672
stRp2673
ag3
(g4
g5
(dp2674
g2090
S'An 8-bit integer'
p2675
sg17
S'integer'
p2676
sg15
S'Int8'
p2677
sg20
S'An 8-bit integer: an unsigned char'
p2678
stRp2679
ag3
(g4
g5
(dp2680
g2090
S'A 64-bit integer'
p2681
sg17
S'integer'
p2682
sg15
S'Int64'
p2683
sg20
S'A 64-bit integer.'
p2684
stRp2685
ag3
(g4
g5
(dp2686
g123
S'All integration records should have a corresponding \n\t\treverse record. The \'branch from\' (2) and \'merge from\' (0) \n\t\trecords have corresponding "dirty" reverse records for cases \n\t\twhere the target file took more than one change or was \n\t\t(re)opened for \'edit\' or \'add\'.'
p2687
sg2092
g3
(g8
g9
(lp2688
g3
(g4
g5
(dp2689
g2095
S'0'
sg20
S'merge from: integration with other changes'
p2690
stRp2691
ag3
(g4
g5
(dp2692
g2095
S'1'
sg20
S'merge into: reverse merge'
p2693
stRp2694
ag3
(g4
g5
(dp2695
g2095
S'2'
sg20
S'branch from: integration was branch of file'
p2696
stRp2697
ag3
(g4
g5
(dp2698
g2095
S'3'
sg20
S'branch into: reverse branch'
p2699
stRp2700
ag3
(g4
g5
(dp2701
g2095
S'4'
sg20
S'copy from: integration took source file whole'
p2702
stRp2703
ag3
(g4
g5
(dp2704
g2095
S'5'
sg20
S'copy into: reverse take'
p2705
stRp2706
ag3
(g4
g5
(dp2707
g2095
S'6'
sg20
S'ignored: integration ignored source changes'
p2708
stRp2709
ag3
(g4
g5
(dp2710
g2095
S'7'
sg20
S'ignored by: reverse copy'
p2711
stRp2712
ag3
(g4
g5
(dp2713
g2095
S'8'
sg20
S'delete from: integration of delete'
p2714
stRp2715
ag3
(g4
g5
(dp2716
g2095
S'9'
sg20
S'delete into: reverse delete'
p2717
stRp2718
ag3
(g4
g5
(dp2719
g2095
S'10'
p2720
sg20
S'edit into: reverse of integration downgraded to \n\t\t    edit'
p2721
stRp2722
ag3
(g4
g5
(dp2723
g2095
S'11'
p2724
sg20
S'add into: reverse of branch downgraded to add'
p2725
stRp2726
ag3
(g4
g5
(dp2727
g2095
S'12'
p2728
sg20
S'edit from: merge that the user edited'
p2729
stRp2730
ag3
(g4
g5
(dp2731
g2095
S'13'
p2732
sg20
S'add from: branch downgraded to add'
p2733
stRp2734
ag3
(g4
g5
(dp2735
g2095
S'14'
p2736
sg20
S'moved from: reverse of renamed file'
p2737
stRp2738
ag3
(g4
g5
(dp2739
g2095
S'15'
p2740
sg20
S'moved into: file was renamed'
p2741
stRp2742
ag3
(g4
g5
(dp2743
g2095
S'16'
p2744
sg20
S"'delete' target rev ignoring non-deleted source"
p2745
stRp2746
ag3
(g4
g5
(dp2747
g2095
S'17'
p2748
sg20
S"non-deleted source ignored by 'delete' target rev"
p2749
stRp2750
ag3
(g4
g5
(dp2751
g2095
S'18'
p2752
sg20
S"'integrate' target rev ignoring deleted source"
p2753
stRp2754
ag3
(g4
g5
(dp2755
g2095
S'19'
p2756
sg20
S"deleted source ignored by 'integrate' target rev"
p2757
stRp2758
atRp2759
sg15
S'IntegHow'
p2760
sg2090
S'Integration methods'
p2761
sg17
S'flag'
p2762
sg20
S"Specifies how an integration was performed. Integrations\n\t\talways come in pairs: the 'forward' and 'reverse' records.\n\t\tAs a general rule, the forward records contain the word \n\t\t'from'; and the reverse records contain the word 'into'."
p2763
stRp2764
ag3
(g4
g5
(dp2765
g17
S'flag'
p2766
sg2090
S'Job status - defunct'
p2767
sg2092
g3
(g8
g9
(lp2768
g3
(g4
g5
(dp2769
g2095
S'0'
sg20
S'open'
p2770
stRp2771
ag3
(g4
g5
(dp2772
g2095
S'1'
sg20
S'closed'
p2773
stRp2774
ag3
(g4
g5
(dp2775
g2095
S'2'
sg20
S'suspended'
p2776
stRp2777
atRp2778
sg15
S'JobStat'
p2779
sg20
S'Old (pre-98.2) job status values.'
p2780
stRp2781
ag3
(g4
g5
(dp2782
g2090
S'A key name'
p2783
sg17
S'string'
p2784
sg15
S'Key'
p2785
sg20
S'A string representing the key name. Key names must \n\t\tcontain no spaces, contain no slashes, and be identifiers \n\t\t(cannot begin with a dash and cannot be all-numeric)'
p2786
stRp2787
ag3
(g4
g5
(dp2788
g17
S'flag'
p2789
sg2090
S'Types of mapping'
p2790
sg2092
g3
(g8
g9
(lp2791
g3
(g4
g5
(dp2792
g2095
S'0'
sg20
S'mapped-in (the default)'
p2793
stRp2794
ag3
(g4
g5
(dp2795
g2095
S'1'
sg20
S"mapped-out (mappings that start with '-')"
p2796
stRp2797
ag3
(g4
g5
(dp2798
g2095
S'2'
sg20
S"overlay (mappings that start with '+')"
p2799
stRp2800
ag3
(g4
g5
(dp2801
g2095
S'3'
sg20
S"haveMap (mappings that start with '$'). Used internally\n\t\t    only"
p2802
stRp2803
atRp2804
sg15
S'MapFlag'
p2805
sg20
S'Specifies how the files specified by a mapping should be\n\t\ttreated'
p2806
stRp2807
ag3
(g4
g5
(dp2808
g2090
S'A string representing a mapping'
p2809
sg17
S'string'
p2810
sg15
S'Mapping'
p2811
sg20
S'A Mapping is essentially a file name that may contain\n\t\twildcards'
p2812
stRp2813
ag3
(g4
g5
(dp2814
g2090
S'Maximum number of milliseconds to hold locks'
p2815
sg17
S'integer'
p2816
sg15
S'MaxLockTime'
p2817
sg20
S"The number of milliseconds for which a command may hold locks.\n\t\tCommands that take longer than this time period will abort. \n\t\tThe value 0 means 'unlimited'."
p2818
stRp2819
ag3
(g4
g5
(dp2820
g2090
S'Maximum number of results permitted'
p2821
sg17
S'integer'
p2822
sg15
S'MaxResults'
p2823
sg20
S"The number of results that commands run by the restricted\n\t\tuser are permitted to return. The value 0 means 'unlimited'."
p2824
stRp2825
ag3
(g4
g5
(dp2826
g2090
S'Maximum number of records scanned'
p2827
sg17
S'integer'
p2828
sg15
S'MaxScanRows'
p2829
sg20
S"The maximum number of records that the server may read\n\t\ton behalf of the restricted user. The value 0 means \n\t\t'unlimited'."
p2830
stRp2831
ag3
(g4
g5
(dp2832
g2090
S'Encoded hex string'
p2833
sg17
S'string'
p2834
sg15
S'Octet String'
p2835
sg20
S'A variable length encoded hex string. The first octet \n\t\tstores the length of the string.'
p2836
stRp2837
ag3
(g4
g5
(dp2838
g2090
S'The MD5 hash of a password'
p2839
sg17
S'string'
p2840
sg15
S'Password'
p2841
sg20
S'The MD5 hash of an encrypted password.'
p2842
stRp2843
ag3
(g4
g5
(dp2844
g2092
g3
(g8
g9
(lp2845
g3
(g4
g5
(dp2846
g2227
S'PermTypeBits'
p2847
sg15
S'List'
p2848
sg2095
S'0x0001'
p2849
sg20
S'Grants list access'
p2850
stRp2851
ag3
(g4
g5
(dp2852
g2227
S'PermTypeBits'
p2853
sg15
S'Read'
p2854
sg2095
S'0x0002'
p2855
sg20
S'Grants read access'
p2856
stRp2857
ag3
(g4
g5
(dp2858
g2227
S'PermTypeBits'
p2859
sg15
S'Branch'
p2860
sg2095
S'0x0004'
p2861
sg20
S'Grants ability to branch/integ from'
p2862
stRp2863
ag3
(g4
g5
(dp2864
g2227
S'PermTypeBits'
p2865
sg15
S'Open'
p2866
sg2095
S'0x0008'
p2867
sg20
S'Grants open access'
p2868
stRp2869
ag3
(g4
g5
(dp2870
g2227
S'PermTypeBits'
p2871
sg15
S'Write'
p2872
sg2095
S'0x0010'
p2873
sg20
S'Grants write access'
p2874
stRp2875
ag3
(g4
g5
(dp2876
g2227
S'PermTypeBits'
p2877
sg15
S'Review'
p2878
sg2095
S'0x0020'
p2879
sg20
S'Grants review access'
p2880
stRp2881
ag3
(g4
g5
(dp2882
g2227
S'PermTypeBits'
p2883
sg15
S'Admin'
p2884
sg2095
S'0x0080'
p2885
sg20
S'Grants admin access'
p2886
stRp2887
ag3
(g4
g5
(dp2888
g2227
S'PermTypeBits'
p2889
sg15
S'Super'
p2890
sg2095
S'0x0040'
p2891
sg20
S'Grants super-user access'
p2892
stRp2893
atRp2894
sg15
S'Perm'
p2895
sg2227
g3
(g4
g5
(dp2896
g15
S'PermTypeBits'
p2897
sg2095
S'0x00FF'
p2898
sg20
S'Bits used to store granted permissions'
p2899
stRp2900
sg2090
S'Bitmask of permissions'
p2901
sg17
S'bitmask'
p2902
sg20
S'A bitmask of granted permissions'
p2903
stRp2904
ag3
(g4
g5
(dp2905
g17
S'flag'
p2906
sg2090
S'Archive pull transfer status'
p2907
sg2092
g3
(g8
g9
(lp2908
g3
(g4
g5
(dp2909
g15
S'new'
p2910
sg2095
S'new'
p2911
sg20
S'new transfer'
p2912
stRp2913
ag3
(g4
g5
(dp2914
g15
S'active'
p2915
sg2095
S'active'
p2916
sg20
S'active transfer'
p2917
stRp2918
ag3
(g4
g5
(dp2919
g15
S'done'
p2920
sg2095
S'done'
p2921
sg20
S'completed transfer'
p2922
stRp2923
ag3
(g4
g5
(dp2924
g15
S'error'
p2925
sg2095
S'error'
p2926
sg20
S'errored transfer'
p2927
stRp2928
ag3
(g4
g5
(dp2929
g15
S'restart'
p2930
sg2095
S'restart'
p2931
sg20
S'restarted transfer'
p2932
stRp2933
atRp2934
sg15
S'PullStatus'
p2935
sg20
S'The status of an archive pull transfer'
p2936
stRp2937
ag3
(g4
g5
(dp2938
g17
S'flag'
p2939
sg2090
S'Resolve actions'
p2940
sg2092
g3
(g8
g9
(lp2941
g3
(g4
g5
(dp2942
g2095
S'0'
sg20
S'Content resolve'
p2943
stRp2944
ag3
(g4
g5
(dp2945
g2095
S'1'
sg20
S'Filetype resolve'
p2946
stRp2947
ag3
(g4
g5
(dp2948
g2095
S'2'
sg20
S'Branch resolve'
p2949
stRp2950
ag3
(g4
g5
(dp2951
g2095
S'3'
sg20
S'Delete resolve'
p2952
stRp2953
ag3
(g4
g5
(dp2954
g2095
S'4'
sg20
S'Move resolve'
p2955
stRp2956
atRp2957
sg15
S'ResolveState'
p2958
sg20
S'Pending or completed resolve actions.'
p2959
stRp2960
ag3
(g4
g5
(dp2961
g17
S'flag'
p2962
sg2090
S'Resolve methods (obsolete in 2011.1, replaced by ResolveState)'
p2963
sg2092
g3
(g8
g9
(lp2964
g3
(g4
g5
(dp2965
g2095
S'0'
sg20
S'Not yet resolved'
p2966
stRp2967
ag3
(g4
g5
(dp2968
g2095
S'1'
sg20
S'Resolved manually'
p2969
stRp2970
ag3
(g4
g5
(dp2971
g2095
S'2'
sg20
S'Resolved automatically as part of a branch'
p2972
stRp2973
ag3
(g4
g5
(dp2974
g2095
S'3'
sg20
S'Resolved automatically as part of a delete'
p2975
stRp2976
ag3
(g4
g5
(dp2977
g2095
S'4'
sg20
S'Resolved automatically as part of a move'
p2978
stRp2979
atRp2980
sg15
S'ResolvedStatus'
p2981
sg20
S'Specifies how the user resolved merge operations.'
p2982
stRp2983
ag3
(g4
g5
(dp2984
g2090
S'A revision number'
p2985
sg17
S'integer'
p2986
sg15
S'Rev'
p2987
sg20
S"The positive integer number of a specific revision of a file. \n\t\tThe number 0 represents '#none'."
p2988
stRp2989
ag3
(g4
g5
(dp2990
g2092
g3
(g8
g9
(lp2991
g3
(g4
g5
(dp2992
g2227
S'RevStatusBits'
p2993
sg2095
S'0x0000'
p2994
sg20
S'single revision with content'
p2995
stRp2996
ag3
(g4
g5
(dp2997
g2227
S'RevStatusBits'
p2998
sg2095
S'0x0001'
p2999
sg20
S'single revision lazy copied'
p3000
stRp3001
ag3
(g4
g5
(dp3002
g2227
S'RevStatusBits'
p3003
sg2095
S'0x0002'
p3004
sg20
S'revision task sparse'
p3005
stRp3006
ag3
(g4
g5
(dp3007
g2227
S'RevStatusBits'
p3008
sg2095
S'0x0004'
p3009
sg20
S'revision task branch'
p3010
stRp3011
atRp3012
sg15
S'RevStatus'
p3013
sg2227
g3
(g4
g5
(dp3014
g15
S'RevStatusBits'
p3015
sg2095
S'0x000F'
p3016
sg20
S'Bits used to store revision status'
p3017
stRp3018
sg2090
S'A revision status'
p3019
sg17
S'bitmask'
p3020
sg20
S'Lazy copy and task stream promotion status'
p3021
stRp3022
ag3
(g4
g5
(dp3023
g2090
S'Type of reviewer'
p3024
sg17
S'integer'
p3025
sg15
S'Reviewer'
p3026
sg20
S'The type of reviewer. Currently there is only one type of\n\t\treviewer and 0 is the only valid value.'
p3027
stRp3028
ag3
(g4
g5
(dp3029
g17
S'flag'
p3030
sg2090
S'The type of server'
p3031
sg2092
g3
(g8
g9
(lp3032
g3
(g4
g5
(dp3033
g2095
S'0'
sg20
S'standard'
p3034
stRp3035
ag3
(g4
g5
(dp3036
g2095
S'1'
sg20
S'proxy'
p3037
stRp3038
ag3
(g4
g5
(dp3039
g2095
S'2'
sg20
S'broker'
p3040
stRp3041
atRp3042
sg15
S'ServerType'
p3043
sg20
S'The type of server'
p3044
stRp3045
ag3
(g4
g5
(dp3046
g2092
g3
(g8
g9
(lp3047
g3
(g4
g5
(dp3048
g2227
S'Service Set Value'
p3049
sg2095
S'0x0903'
p3050
sg20
S'standard \t\t( db-read | db-write | rmt-depot | rmt-journal )'
p3051
stRp3052
ag3
(g4
g5
(dp3053
g2227
S'Service Set Value'
p3054
sg2095
S'0x0045'
p3055
sg20
S'replica \t\t( db-read | db-replication | file-replication | rmt-depot | rmt-journal )'
p3056
stRp3057
ag3
(g4
g5
(dp3058
g2227
S'Service Set Value'
p3059
sg2095
S'0x0030'
p3060
sg20
S'broker ( brokering | forwarding )'
p3061
stRp3062
ag3
(g4
g5
(dp3063
g2227
S'Service Set Value'
p3064
sg2095
S'0x00A0'
p3065
sg20
S'proxy ( forwarding | file-cacheing )'
p3066
stRp3067
ag3
(g4
g5
(dp3068
g2227
S'Service Set Value'
p3069
sg2095
S'0x00E5'
p3070
sg20
S'forwarding-replica ( db-read | db-replication | forwarding | file-replication | file-cacheing | rmt-depot | rmt-journal )'
p3071
stRp3072
ag3
(g4
g5
(dp3073
g2227
S'Service Set Value'
p3074
sg2095
S'0x004D'
p3075
sg20
S'build-server ( db-read | db-replicaton | bound-clients | file-replication | rmt-depot | rmt-journal )'
p3076
stRp3077
ag3
(g4
g5
(dp3078
g2227
S'Service Set Value'
p3079
sg2095
S'0x0203'
p3080
sg20
S'P4AUTH ( db-read | db-write | rmt-auth )'
p3081
stRp3082
ag3
(g4
g5
(dp3083
g2227
S'Service Set Value'
p3084
sg2095
S'0x0403'
p3085
sg20
S'P4CHANGE ( db-read | db-write | rmt-change )'
p3086
stRp3087
ag3
(g4
g5
(dp3088
g2227
S'Service Property'
p3089
sg2095
S'0x0001'
p3090
sg20
S'db-read'
p3091
stRp3092
ag3
(g4
g5
(dp3093
g2227
S'Service Property'
p3094
sg2095
S'0x0002'
p3095
sg20
S'db-write'
p3096
stRp3097
ag3
(g4
g5
(dp3098
g2227
S'Service Property'
p3099
sg2095
S'0x0004'
p3100
sg20
S'db-replication'
p3101
stRp3102
ag3
(g4
g5
(dp3103
g2227
S'Service Property'
p3104
sg2095
S'0x0008'
p3105
sg20
S'bound-clients'
p3106
stRp3107
ag3
(g4
g5
(dp3108
g2227
S'Service Property'
p3109
sg2095
S'0x0010'
p3110
sg20
S'brokering'
p3111
stRp3112
ag3
(g4
g5
(dp3113
g2227
S'Service Property'
p3114
sg2095
S'0x0020'
p3115
sg20
S'forwarding'
p3116
stRp3117
ag3
(g4
g5
(dp3118
g2227
S'Service Property'
p3119
sg2095
S'0x0040'
p3120
sg20
S'file-replication'
p3121
stRp3122
ag3
(g4
g5
(dp3123
g2227
S'Service Property'
p3124
sg2095
S'0x0080'
p3125
sg20
S'file-cacheing'
p3126
stRp3127
ag3
(g4
g5
(dp3128
g2227
S'Service Property'
p3129
sg2095
S'0x0100'
p3130
sg20
S'rmt-depot'
p3131
stRp3132
ag3
(g4
g5
(dp3133
g2227
S'Service Property'
p3134
sg2095
S'0x0200'
p3135
sg20
S'rmt-auth'
p3136
stRp3137
ag3
(g4
g5
(dp3138
g2227
S'Service Property'
p3139
sg2095
S'0x0400'
p3140
sg20
S'rmt-change'
p3141
stRp3142
ag3
(g4
g5
(dp3143
g2227
S'Service Property'
p3144
sg2095
S'0x0800'
p3145
sg20
S'rmt-journal'
p3146
stRp3147
atRp3148
sg15
S'ServerServiceType'
p3149
sg2227
g3
(g8
g9
(lp3150
g3
(g4
g5
(dp3151
g15
S'Service Set Value'
p3152
sg2095
S'None'
p3153
sg20
S"The server service type setting is generated by OR'ing the generic ServerServiceProperties defined below"
p3154
stRp3155
ag3
(g4
g5
(dp3156
g15
S'Service Property'
p3157
sg2095
S'None'
p3158
sg20
S'ServerServiceProperties: Bits used to identify generic server properties'
p3159
stRp3160
atRp3161
sg2090
S'The type of server service'
p3162
sg17
S'bitmask'
p3163
sg20
S'One of standard, replica, broker, proxy, forwarding-replica, build-server, P4AUTH, or P4CHANGE.'
p3164
stRp3165
ag3
(g4
g5
(dp3166
g17
S'flag'
p3167
sg2090
S'Server specification view type'
p3168
sg2092
g3
(g8
g9
(lp3169
g3
(g4
g5
(dp3170
g2095
S'0'
sg20
S'ClientDataFilter'
p3171
stRp3172
ag3
(g4
g5
(dp3173
g2095
S'1'
sg20
S'RevisionDataFilter'
p3174
stRp3175
atRp3176
sg15
S'SvrViewType'
p3177
sg20
S'Server specification view type'
p3178
stRp3179
ag3
(g4
g5
(dp3180
g2092
g3
(g8
g9
(lp3181
g3
(g4
g5
(dp3182
g2227
S'Stream Status'
p3183
sg2095
S'0x0000'
p3184
sg20
S'Clear cache'
p3185
stRp3186
ag3
(g4
g5
(dp3187
g2227
S'Stream Status'
p3188
sg2095
S'0x0001'
p3189
sg20
S'Needs copy'
p3190
stRp3191
ag3
(g4
g5
(dp3192
g2227
S'Stream Status'
p3193
sg2095
S'0x0002'
p3194
sg20
S'Copy up-to-date'
p3195
stRp3196
ag3
(g4
g5
(dp3197
g2227
S'Stream Status'
p3198
sg2095
S'0x0004'
p3199
sg20
S'Needs merge'
p3200
stRp3201
ag3
(g4
g5
(dp3202
g2227
S'Stream Status'
p3203
sg2095
S'0x0008'
p3204
sg20
S'Merge up-to-date'
p3205
stRp3206
atRp3207
sg15
S'StreamStatus'
p3208
sg2227
g3
(g4
g5
(dp3209
g15
S'Stream Status'
p3210
sg2095
S'Copy: 0x0003, Merge: 0x000C'
p3211
sg20
S'Bits used to store the stream integration status'
p3212
stRp3213
sg2090
S'Stream integration status'
p3214
sg17
S'bitmask'
p3215
sg20
S'The stream integration status.'
p3216
stRp3217
ag3
(g4
g5
(dp3218
g17
S'flag'
p3219
sg2090
S'Type of stream path'
p3220
sg2092
g3
(g8
g9
(lp3221
g3
(g4
g5
(dp3222
g2095
S'0'
sg20
S'share'
p3223
stRp3224
ag3
(g4
g5
(dp3225
g2095
S'1'
sg20
S'isolate'
p3226
stRp3227
ag3
(g4
g5
(dp3228
g2095
S'2'
sg20
S'import'
p3229
stRp3230
ag3
(g4
g5
(dp3231
g2095
S'3'
sg20
S'exclude'
p3232
stRp3233
ag3
(g4
g5
(dp3234
g2095
S'4'
sg20
S'remapped'
p3235
stRp3236
ag3
(g4
g5
(dp3237
g2095
S'5'
sg20
S'ignored'
p3238
stRp3239
atRp3240
sg15
S'StreamPathType'
p3241
sg20
S'The path type for file paths in a stream view.'
p3242
stRp3243
ag3
(g4
g5
(dp3244
g17
S'flag'
p3245
sg2090
S'Type of stream'
p3246
sg2092
g3
(g8
g9
(lp3247
g3
(g4
g5
(dp3248
g2095
S'0'
sg20
S'mainline'
p3249
stRp3250
ag3
(g4
g5
(dp3251
g2095
S'1'
sg20
S'release'
p3252
stRp3253
ag3
(g4
g5
(dp3254
g2095
S'2'
sg20
S'development'
p3255
stRp3256
ag3
(g4
g5
(dp3257
g2095
S'3'
sg20
S'virtual'
p3258
stRp3259
ag3
(g4
g5
(dp3260
g2095
S'4'
sg20
S'task'
p3261
stRp3262
ag3
(g4
g5
(dp3263
g2095
S'5'
sg20
S'task - unloaded'
p3264
stRp3265
atRp3266
sg15
S'StreamType'
p3267
sg20
S'The type of stream.'
p3268
stRp3269
ag3
(g4
g5
(dp3270
g17
S'flag'
p3271
sg2090
S'Strength check of a password'
p3272
sg2092
g3
(g8
g9
(lp3273
g3
(g4
g5
(dp3274
g2095
S'0'
sg20
S'Strength unknown'
p3275
stRp3276
ag3
(g4
g5
(dp3277
g2095
S'1'
sg20
S'Password is strong'
p3278
stRp3279
ag3
(g4
g5
(dp3280
g2095
S'2'
sg20
S'Password is not strong'
p3281
stRp3282
atRp3283
sg15
S'Strength'
p3284
sg20
S"Whether or not a user's password has been tested for strength."
p3285
stRp3286
ag3
(g4
g5
(dp3287
S'restriction'
p3288
g3
(g8
g9
(lp3289
S'Cannot be empty'
p3290
aS'Cannot consist solely of a dash (-)'
p3291
aS'Cannot be all-numeric'
p3292
aS'Cannot contain non-printable characters'
p3293
aS'Spaces are replaced with underscores ( _ )'
p3294
aS'Revision characters (# and @) are prohibited'
p3295
aS'Slashes (/) are prohibited'
p3296
aS'Wildcards (... and *) are prohibited'
p3297
atRp3298
sg2090
S'A string up to 1024 characters long'
p3299
sg17
S'string'
p3300
sg15
S'String'
p3301
sg20
S'A string up to 1024 characters in length.  Depending on the \n\t\tcontext in which the string is used, restrictions \n\t\tmay apply. Strings are often used as key fields in the \n\t\tschema.'
p3302
stRp3303
ag3
(g4
g5
(dp3304
g17
S'flag'
p3305
sg2090
S'Tamper-state of workspace file'
p3306
sg2092
g3
(g8
g9
(lp3307
g3
(g4
g5
(dp3308
g2095
S'0'
sg20
S'Do not check for tampering'
p3309
stRp3310
ag3
(g4
g5
(dp3311
g2095
S'1'
sg20
S'Check for tampering'
p3312
stRp3313
ag3
(g4
g5
(dp3314
g2095
S'2'
sg20
S'Tamper-check failed'
p3315
stRp3316
atRp3317
sg15
S'TamperCheck'
p3318
sg20
S'Indicates the tamper-state of a file in a workspace. This\n\t\tis used to decide whether or not to check the file, and\n\t\tif checked, to hold the result.'
p3319
stRp3320
ag3
(g4
g5
(dp3321
g2090
S'A string value'
p3322
sg17
S'string'
p3323
sg15
S'Text'
p3324
sg20
S'A text string value - used to hold longer blocks of text.'
p3325
stRp3326
ag3
(g4
g5
(dp3327
g2090
S'The id of a group of traits'
p3328
sg17
S'integer'
p3329
sg15
S'TraitLot'
p3330
sg20
S'An integer identifying a group of traits which may be\n\t\tshared by several revisions.'
p3331
stRp3332
ag3
(g4
g5
(dp3333
g17
S'flag'
p3334
sg2090
S'A type of trait'
p3335
sg2092
g3
(g8
g9
(lp3336
g3
(g4
g5
(dp3337
g2095
S'0'
sg20
S'special trait for reference counting'
p3338
stRp3339
ag3
(g4
g5
(dp3340
g2095
S'1'
sg20
S'Binary trait'
p3341
stRp3342
ag3
(g4
g5
(dp3343
g2095
S'2'
sg20
S'Binary trait that gets propagated'
p3344
stRp3345
atRp3346
sg15
S'TraitType'
p3347
sg20
S'The type of trait.'
p3348
stRp3349
ag3
(g4
g5
(dp3350
g17
S'flag'
p3351
sg2090
S'A type of trigger'
p3352
sg2092
g3
(g8
g9
(lp3353
g3
(g4
g5
(dp3354
g2095
S'0'
sg20
S'change-submit (formerly pre-submit triggers)'
p3355
stRp3356
ag3
(g4
g5
(dp3357
g2095
S'1'
sg20
S'change-content'
p3358
stRp3359
ag3
(g4
g5
(dp3360
g2095
S'2'
sg20
S'change-commit'
p3361
stRp3362
ag3
(g4
g5
(dp3363
g2095
S'3'
sg20
S'form-in'
p3364
stRp3365
ag3
(g4
g5
(dp3366
g2095
S'4'
sg20
S'form-out'
p3367
stRp3368
ag3
(g4
g5
(dp3369
g2095
S'5'
sg20
S'form-save'
p3370
stRp3371
ag3
(g4
g5
(dp3372
g2095
S'6'
sg20
S'form-delete'
p3373
stRp3374
ag3
(g4
g5
(dp3375
g2095
S'7'
sg20
S'form-commit'
p3376
stRp3377
ag3
(g4
g5
(dp3378
g2095
S'8'
sg20
S'auth-check'
p3379
stRp3380
ag3
(g4
g5
(dp3381
g2095
S'9'
sg20
S'auth-check-sso'
p3382
stRp3383
ag3
(g4
g5
(dp3384
g2095
S'10'
p3385
sg20
S'auth-set'
p3386
stRp3387
ag3
(g4
g5
(dp3388
g2095
S'11'
p3389
sg20
S'fix-add'
p3390
stRp3391
ag3
(g4
g5
(dp3392
g2095
S'12'
p3393
sg20
S'fix-delete'
p3394
stRp3395
ag3
(g4
g5
(dp3396
g2095
S'13'
p3397
sg20
S'archive'
p3398
stRp3399
ag3
(g4
g5
(dp3400
g2095
S'14'
p3401
sg20
S'shelve-submit'
p3402
stRp3403
ag3
(g4
g5
(dp3404
g2095
S'15'
p3405
sg20
S'shelve-commit'
p3406
stRp3407
ag3
(g4
g5
(dp3408
g2095
S'16'
p3409
sg20
S'shelve-delete'
p3410
stRp3411
ag3
(g4
g5
(dp3412
g2095
S'17'
p3413
sg20
S'service-check'
p3414
stRp3415
atRp3416
sg15
S'Trigger'
p3417
sg20
S'The type of a trigger.'
p3418
stRp3419
ag3
(g4
g5
(dp3420
g2090
S'A user or group name'
p3421
sg20
S'The name of a Perforce user or group.'
p3422
sg17
S'string'
p3423
sg15
S'User'
p3424
sg128
S'String'
p3425
stRp3426
ag3
(g4
g5
(dp3427
g17
S'flag'
p3428
sg2090
S'User functionality level'
p3429
sg2092
g3
(g8
g9
(lp3430
g3
(g4
g5
(dp3431
g2095
S'0'
sg20
S'standard'
p3432
stRp3433
ag3
(g4
g5
(dp3434
g2095
S'1'
sg20
S'service'
p3435
stRp3436
ag3
(g4
g5
(dp3437
g2095
S'2'
sg20
S'operator'
p3438
stRp3439
atRp3440
sg15
S'UserLevel'
p3441
sg20
S'User functionality level'
p3442
stRp3443
ag3
(g4
g5
(dp3444
g2092
g3
(g8
g9
(lp3445
g3
(g4
g5
(dp3446
g2227
S'UserTypeBits'
p3447
sg15
S'User'
p3448
sg2095
S'0x0001'
p3449
sg20
S'User is an ordinary user'
p3450
stRp3451
ag3
(g4
g5
(dp3452
g2227
S'UserTypeBits'
p3453
sg15
S'SubGroup'
p3454
sg2095
S'0x0002'
p3455
sg20
S'Group is a sub-group'
p3456
stRp3457
ag3
(g4
g5
(dp3458
g2227
S'UserTypeBits'
p3459
sg15
S'Owner'
p3460
sg2095
S'0x0004'
p3461
sg20
S'User is the owner of a group'
p3462
stRp3463
atRp3464
sg15
S'UserType'
p3465
sg2227
g3
(g4
g5
(dp3466
g15
S'UserTypeBits'
p3467
sg2095
S'0x0007'
p3468
sg20
S'Bits used to store the role of a user in a group'
p3469
stRp3470
sg2090
S'The role of a user within a group'
p3471
sg17
S'bitmask'
p3472
sg20
S'The role of a user (or group) within a group.'
p3473
stRp3474
ag3
(g4
g5
(dp3475
g2090
S'A user or group name with wildcards'
p3476
sg20
S'A user/group name that may contain wildcards (*)'
p3477
sg17
S'string'
p3478
sg15
S'UserWild'
p3479
sg128
S'User'
p3480
stRp3481
ag3
(g4
g5
(dp3482
g2090
S'A number or a string'
p3483
sg17
S'string'
p3484
sg15
S'Value'
p3485
sg20
S'A number, stored in a string, or a string'
p3486
stRp3487
atRp3488
stRp3489
s.