(dp1
S'tables'
p2
ccopy_reg
_reconstructor
p3
(clib.sqUtils
Storage
p4
c__builtin__
dict
p5
(dp6
S'table'
p7
g3
(clib.sqUtils
Lst
p8
c__builtin__
list
p9
(lp10
g3
(g4
g5
(dp11
S'version'
p12
S'1'
sS'keying'
p13
S'serverName, name'
p14
sS'name'
p15
S'db.config'
p16
sS'type'
p17
S'Config'
p18
sS'lockseq'
p19
S'1'
sS'desc'
p20
S'Perforce server configurations table'
p21
stRp22
ag3
(g4
g5
(dp23
g12
S'1'
sg13
S'name'
p24
sg15
S'db.counters'
p25
sg17
S'Counters'
p26
sg19
S'2'
sg20
S'Perforce counters table'
p27
stRp28
ag3
(g4
g5
(dp29
g12
S'0'
sg13
S'seq'
p30
sg15
S'db.logger'
p31
sg17
S'Logger'
p32
sg19
S'3'
sg20
S"Support for 'p4 logger' command. Logs any changes to \n\t\tchangelists and jobs"
p33
stRp34
ag3
(g4
g5
(dp35
g12
S'4'
sg13
S'user'
p36
sg15
S'db.user.rp'
p37
sg17
S'User'
p38
sg19
S'4'
sg20
S'Perforce users of a replica server'
p39
stRp40
ag3
(g4
g5
(dp41
g12
S'4'
sg13
S'user'
p42
sg15
S'db.user'
p43
sg17
S'User'
p44
sg19
S'5'
sg20
S'Perforce users'
p45
stRp46
ag3
(g4
g5
(dp47
g12
S'8'
sg13
S'user, group'
p48
sg15
S'db.group'
p49
sg17
S'Group'
p50
sg19
S'6'
sg20
S'Groups of Perforce users'
p51
stRp52
ag3
(g4
g5
(dp53
g12
S'1'
sg13
S'name'
p54
sg15
S'db.depot'
p55
sg17
S'Depot'
p56
sg19
S'7'
sg20
S'Perforce depots'
p57
stRp58
ag3
(g4
g5
(dp59
g12
S'1'
sg13
S'stream'
p60
sg15
S'db.stream'
p61
sg17
S'Stream'
p62
sg19
S'8'
sg20
S'Perforce streams'
p63
stRp64
ag3
(g4
g5
(dp65
g12
S'5'
sg13
S'name'
p66
sg15
S'db.domain'
p67
sg17
S'Domain'
p68
sg19
S'9'
sg20
S'Domains: depots, clients, labels, branches, streams, and typemap'
p69
stRp70
ag3
(g4
g5
(dp71
g12
S'0'
sg13
S'name, change, sequence'
p72
sg15
S'db.template'
p73
sg17
S'Template'
p74
sg19
S'10'
p75
sg20
S'Streams templates'
p76
stRp77
ag3
(g4
g5
(dp78
g12
S'1'
sg13
S'name, seq'
p79
sg15
S'db.view'
p80
sg17
S'View'
p81
sg19
S'11'
p82
sg20
S'Contains views for domains'
p83
stRp84
ag3
(g4
g5
(dp85
g12
S'1'
sg13
S'user, seq'
p86
sg15
S'db.review'
p87
sg17
S'Review'
p88
sg19
S'12'
p89
sg20
S"Contains user's review mappings"
p90
stRp91
ag3
(g4
g5
(dp92
g13
S'toFile, fromFile, startFromRev'
p93
sg15
S'db.integ'
p94
sS'note'
p95
S'Obsoleted in 2001.1'
p96
sg12
S'0'
sg20
S'Integration records: obsolete since 2001.1'
p97
sg17
S'Integ'
p98
sg19
S'13'
p99
sS'seeAlso'
p100
g3
(g8
g9
(lp101
S'db.integed'
p102
aS'db.resolve'
p103
atRp104
stRp105
ag3
(g4
g5
(dp106
g12
S'0'
sg13
S'toFile, fromFile, startFromRev, endFromRev, \n\t\tstartToRev, endToRev'
p107
sg15
S'db.integed'
p108
sg20
S'Permanent integration records'
p109
sg17
S'Integed'
p110
sg19
S'14'
p111
sg100
S'db.resolve'
p112
stRp113
ag3
(g4
g5
(dp114
g12
S'1'
sg13
S'toFile, fromFile, startFromRev'
p115
sg15
S'db.resolve'
p116
sg20
S'Pending integration records'
p117
sg17
S'Resolve'
p118
sg19
S'15'
p119
sg100
S'db.integed'
p120
stRp121
ag3
(g4
g5
(dp122
g12
S'1'
sg13
S'toFile, fromFile, startFromRev'
p123
sg15
S'db.resolvex'
p124
sg20
S'Pending integration records for shelved files'
p125
sg17
S'Resolve'
p126
sg19
S'16'
p127
sg100
S'db.integed'
p128
stRp129
ag3
(g4
g5
(dp130
g12
S'2'
sg13
S'clientFile'
p131
sg15
S'db.have'
p132
sg17
S'Have'
p133
sg19
S'17'
p134
sg20
S"Contains the 'have-list' for all clients"
p135
stRp136
ag3
(g4
g5
(dp137
g12
S'0'
sg13
S'name, depotFile'
p138
sg15
S'db.label'
p139
sg17
S'Label'
p140
sg19
S'18'
p141
sg20
S'Lists the revisions of files in labels.'
p142
stRp143
ag3
(g4
g5
(dp144
g12
S'2'
sg13
S'depotFile, client'
p145
sg15
S'db.locks'
p146
sg17
S'Locks'
p147
sg19
S'19'
p148
sg20
S'Locked/Unlocked files'
p149
stRp150
ag3
(g4
g5
(dp151
g95
S'Obsoleted in 2006.2.'
p152
sg12
S'1'
sg13
S'lbrFile, lbrRev, depotFile, depotRev'
p153
sg20
S'Archive information for each revision that is lazy-copied: obsolete since 2006.2'
p154
sg17
S'Archive'
p155
sg19
S'20'
p156
sg15
S'db.archive'
p157
stRp158
ag3
(g4
g5
(dp159
g95
S'Supercedes db.archive'
p160
sg12
S'0'
sg13
S'lbrFile, depotFile'
p161
sg20
S'Mappings entries for lazy-copies.'
p162
sg17
S'ArchMap'
p163
sg19
S'21'
p164
sg15
S'db.archmap'
p165
stRp166
ag3
(g4
g5
(dp167
g12
S'9'
sg13
S'depotFile, depotRev'
p168
sg15
S'db.rev'
p169
sg17
S'Rev'
p170
sg19
S'22'
p171
sg20
S'Revision records'
p172
stRp173
ag3
(g4
g5
(dp174
g12
S'0'
sg13
S'change, depotFile'
p175
sg15
S'db.revcx'
p176
sg17
S'RevCx'
p177
sg19
S'23'
p178
sg20
S'Secondary index of db.rev'
p179
stRp180
ag3
(g4
g5
(dp181
g12
S'9'
sg13
S'depotFile'
p182
sg15
S'db.revdx'
p183
sg17
S'Rev'
p184
sg19
S'24'
p185
sg20
S'Revision records for revisions deleted at the head revision.'
p186
stRp187
ag3
(g4
g5
(dp188
g12
S'9'
sg13
S'depotFile'
p189
sg15
S'db.revhx'
p190
sg17
S'Rev'
p191
sg19
S'25'
p192
sg20
S'Revision records for revisions NOT deleted at the head revision.'
p193
stRp194
ag3
(g4
g5
(dp195
g95
S'Only populated during content trigger execution to allow \n\t\ttriggers access to the revisions being submitted.'
p196
sg12
S'9'
sg13
S'depotFile, depotRev'
p197
sg20
S'Pending revision records.'
p198
sg17
S'Rev'
p199
sg19
S'26'
p200
sg15
S'db.revpx'
p201
stRp202
ag3
(g4
g5
(dp203
g12
S'9'
sg13
S'depotFile, depotRev'
p204
sg15
S'db.revsx'
p205
sg17
S'Rev'
p206
sg19
S'27'
p207
sg20
S'Revision records for spec depot files.'
p208
stRp209
ag3
(g4
g5
(dp210
g12
S'9'
sg13
S'depotFile, depotRev, type, action, change'
p211
sg15
S'db.revsh'
p212
sg17
S'Rev'
p213
sg19
S'28'
p214
sg20
S'Revision records for shelved files.'
p215
stRp216
ag3
(g4
g5
(dp217
g12
S'9'
sg13
S'depotFile, depotRev'
p218
sg15
S'db.revbx'
p219
sg17
S'Rev'
p220
sg19
S'29'
p221
sg20
S'Revision records for archived files.'
p222
stRp223
ag3
(g4
g5
(dp224
g12
S'9'
sg13
S'clientFile'
p225
sg15
S'db.working'
p226
sg17
S'Working'
p227
sg19
S'30'
p228
sg20
S'Records for work in progress'
p229
stRp230
ag3
(g4
g5
(dp231
g12
S'9'
sg13
S'clientFile'
p232
sg15
S'db.workingx'
p233
sg17
S'Working'
p234
sg19
S'31'
p235
sg20
S'Records for shelved open files'
p236
stRp237
ag3
(g4
g5
(dp238
g12
S'0'
sg13
S'traitLot, name'
p239
sg15
S'db.traits'
p240
sg17
S'Trait'
p241
sg19
S'32'
p242
sg20
S'Attributes associated with file revisions'
p243
stRp244
ag3
(g4
g5
(dp245
g12
S'2'
sg13
S'seq'
p246
sg15
S'db.trigger'
p247
sg17
S'Trigger'
p248
sg19
S'33'
p249
sg20
S'Trigger specifications'
p250
stRp251
ag3
(g4
g5
(dp252
g12
S'2'
sg13
S'change'
p253
sg15
S'db.change'
p254
sg17
S'Change'
p255
sg19
S'34'
p256
sg20
S'Changelists'
p257
stRp258
ag3
(g4
g5
(dp259
g95
S'contains records for pending changelists only.'
p260
sg12
S'2'
sg13
S'change'
p261
sg20
S'Subset of db.change - records for pending changelists only'
p262
sg17
S'Change'
p263
sg19
S'35'
p264
sg15
S'db.changex'
p265
stRp266
ag3
(g4
g5
(dp267
g12
S'0'
sg13
S'descKey'
p268
sg15
S'db.desc'
p269
sg17
S'Desc'
p270
sg19
S'36'
p271
sg20
S'Change descriptions'
p272
stRp273
ag3
(g4
g5
(dp274
g12
S'0'
sg13
S'job'
p275
sg15
S'db.job'
p276
sg20
S'Job records'
p277
sg17
S'Job'
p278
sg19
S'37'
p279
sg100
S'db.bodtext'
p280
stRp281
ag3
(g4
g5
(dp282
g12
S'0'
sg13
S'user, job'
p283
sg15
S'db.jobpend'
p284
sg20
S'Obsolete in 98.2'
p285
sg17
S'String'
p286
sg19
S'38'
p287
sg100
S'db.bodtext'
p288
stRp289
ag3
(g4
g5
(dp290
g12
S'0'
sg13
S'job'
p291
sg15
S'db.jobdesc'
p292
sg20
S'Obsolete in 98.2'
p293
sg17
S'JobDesc'
p294
sg19
S'39'
p295
sg100
S'db.bodtext'
p296
stRp297
ag3
(g4
g5
(dp298
g12
S'1'
sg13
S'job, change'
p299
sg15
S'db.fix'
p300
sg20
S'Fix records - indexed by job'
p301
sg17
S'Fix'
p302
sg19
S'40'
p303
sg100
S'db.fixrev'
p304
stRp305
ag3
(g4
g5
(dp306
g12
S'1'
sg13
S'change, job'
p307
sg15
S'db.fixrev'
p308
sg20
S'Fix records - indexed by change'
p309
sg17
S'Fix'
p310
sg19
S'41'
p311
sg100
S'db.fix'
p312
stRp313
ag3
(g4
g5
(dp314
g95
S'Obsoleted in 2009.2'
p315
sg12
S'0'
sg13
S'key, attr'
p316
sg20
S'Job data for date-valued attributes: obsolete since 2009.2'
p317
sg17
S'BodyDate'
p318
sg19
S'42'
p319
sg15
S'db.boddate'
p320
stRp321
ag3
(g4
g5
(dp322
g12
S'1'
sg13
S'key, attr'
p323
sg15
S'db.bodtext'
p324
sg17
S'BodyText'
p325
sg19
S'43'
p326
sg20
S'Job data for job attributes.'
p327
stRp328
ag3
(g4
g5
(dp329
g13
S'date, attr, value'
p330
sg15
S'db.ixdate'
p331
sg95
S'Obsoleted in 2009.2'
p332
sg12
S'0'
sg20
S'Indexing data for date-valued job attributes: obsolete since 2009.2'
p333
sg17
S'IndexDate'
p334
sg19
S'44'
p335
sg100
S'db.ixtext'
p336
stRp337
ag3
(g4
g5
(dp338
g12
S'0'
sg13
S'word, attr, value'
p339
sg15
S'db.ixtext'
p340
sg17
S'IndexText'
p341
sg19
S'45'
p342
sg20
S'Indexing data for job attributes.'
p343
stRp344
ag3
(g4
g5
(dp345
g12
S'4'
sg13
S'seq'
p346
sg15
S'db.protect'
p347
sg17
S'Protect'
p348
sg19
S'46'
p349
sg20
S'The protections table'
p350
stRp351
ag3
(g4
g5
(dp352
g12
S'0'
sg13
S'language, id'
p353
sg15
S'db.message'
p354
sg17
S'Message'
p355
sg19
S'47'
p356
sg20
S'System messages'
p357
stRp358
ag3
(g4
g5
(dp359
g12
S'1'
sg13
S'id'
p360
sg15
S'db.monitor'
p361
sg17
S'Monitor'
p362
sg19
S'48'
p363
sg20
S'Perforce process information'
p364
stRp365
atRp366
stRp367
sg12
S'2011.1'
p368
sS'numUpgrades'
p369
S'23'
p370
sS'recordtypes'
p371
g3
(g4
g5
(dp372
S'record'
p373
g3
(g8
g9
(lp374
g3
(g4
g5
(dp375
S'column'
p376
g3
(g8
g9
(lp377
g3
(g4
g5
(dp378
g17
S'File'
p379
sg15
S'lbrFile'
p380
sg20
S"Specifies the location in the librarian's archives where\n\t\t    the revision may be found"
p381
stRp382
ag3
(g4
g5
(dp383
g17
S'String'
p384
sg15
S'lbrRev'
p385
sg20
S"Revision in the librarian's archives"
p386
stRp387
ag3
(g4
g5
(dp388
g17
S'File'
p389
sg15
S'depotFile'
p390
sg20
S'Name of the file in the depot'
p391
stRp392
ag3
(g4
g5
(dp393
g17
S'Rev'
p394
sg15
S'depotRev'
p395
sg20
S'Name of the file in the depot'
p396
stRp397
ag3
(g4
g5
(dp398
g17
S'FileType'
p399
sg15
S'lbrType'
p400
sg20
S"File type for librarian's purposes"
p401
stRp402
atRp403
sg15
S'Archive'
p404
stRp405
ag3
(g4
g5
(dp406
g376
g3
(g8
g9
(lp407
g3
(g4
g5
(dp408
g17
S'File'
p409
sg15
S'lbrFile'
p410
sg20
S'Paths in the librarian namespace that recieve lazy\n\t\t    copies.'
p411
stRp412
ag3
(g4
g5
(dp413
g17
S'File'
p414
sg15
S'depotFile'
p415
sg20
S'Paths in the depot namespace that provide lazy copies.'
p416
stRp417
atRp418
sg15
S'ArchMap'
p419
stRp420
ag3
(g4
g5
(dp421
g376
g3
(g8
g9
(lp422
g3
(g4
g5
(dp423
g17
S'String'
p424
sg15
S'key'
p425
sg20
S'The job to which this attribute belongs'
p426
stRp427
ag3
(g4
g5
(dp428
g17
S'Int'
p429
sg15
S'attr'
p430
sg20
S'The attribute number (from the jobspec) of this attribute'
p431
stRp432
ag3
(g4
g5
(dp433
g17
S'Date'
p434
sg15
S'date'
p435
sg20
S'The date value itself'
p436
stRp437
atRp438
sg15
S'BodyDate'
p439
stRp440
ag3
(g4
g5
(dp441
g376
g3
(g8
g9
(lp442
g3
(g4
g5
(dp443
g17
S'String'
p444
sg15
S'key'
p445
sg20
S'The job to which this attribute belongs'
p446
stRp447
ag3
(g4
g5
(dp448
g17
S'Int'
p449
sg15
S'attr'
p450
sg20
S'The attribute number (from the jobspec) of this attribute'
p451
stRp452
ag3
(g4
g5
(dp453
g17
S'Int'
p454
sg15
S'isBulk'
p455
sg20
S'Indicates whether (1), or not (0) the field is a bulk\n\t\t    text field that should not be indexed.'
p456
stRp457
ag3
(g4
g5
(dp458
g17
S'Text'
p459
sg15
S'text'
p460
sg20
S'The attribute value'
p461
stRp462
atRp463
sg15
S'BodyText'
p464
stRp465
ag3
(g4
g5
(dp466
g376
g3
(g8
g9
(lp467
g3
(g4
g5
(dp468
g17
S'Change'
p469
sg15
S'change'
p470
sg20
S'The change number'
p471
stRp472
ag3
(g4
g5
(dp473
g17
S'Change'
p474
sg15
S'descKey'
p475
sg20
S"The description key. Normally the same as 'change', but\n\t\t    may differ if a changelist was renumbered on submission."
p476
stRp477
ag3
(g4
g5
(dp478
g17
S'Domain'
p479
sg15
S'client'
p480
sg20
S'The client from which the change originates'
p481
stRp482
ag3
(g4
g5
(dp483
g17
S'User'
p484
sg15
S'user'
p485
sg20
S'The user who owns the change'
p486
stRp487
ag3
(g4
g5
(dp488
g17
S'Date'
p489
sg15
S'date'
p490
sg20
S'Date and time the changelist was submitted'
p491
stRp492
ag3
(g4
g5
(dp493
g17
S'ChangeStatus'
p494
sg15
S'status'
p495
sg20
S'Status of the change'
p496
stRp497
ag3
(g4
g5
(dp498
g17
S'DescShort'
p499
sg15
S'description'
p500
sg20
S'Short description of the change.'
p501
stRp502
ag3
(g4
g5
(dp503
g17
S'Mapping'
p504
sg15
S'root'
p505
sg20
S'Common path for all files in the changelist'
p506
stRp507
atRp508
sg15
S'Change'
p509
stRp510
ag3
(g4
g5
(dp511
g376
g3
(g8
g9
(lp512
g3
(g4
g5
(dp513
g17
S'String'
p514
sg15
S'serverName'
p515
sg20
S'Server name'
p516
stRp517
ag3
(g4
g5
(dp518
g17
S'String'
p519
sg15
S'name'
p520
sg20
S'Configuration variable name'
p521
stRp522
ag3
(g4
g5
(dp523
g17
S'Value'
p524
sg15
S'value'
p525
sg20
S'Configuration variable value'
p526
stRp527
atRp528
sg15
S'Config'
p529
stRp530
ag3
(g4
g5
(dp531
g376
g3
(g8
g9
(lp532
g3
(g4
g5
(dp533
g17
S'Counter'
p534
sg15
S'name'
p535
sg20
S'Counter name'
p536
stRp537
ag3
(g4
g5
(dp538
g17
S'Value'
p539
sg15
S'value'
p540
sg20
S'Counter value'
p541
stRp542
atRp543
sg15
S'Counters'
p544
stRp545
ag3
(g4
g5
(dp546
g376
g3
(g8
g9
(lp547
g3
(g4
g5
(dp548
g17
S'Domain'
p549
sg15
S'name'
p550
sg20
S'Depot name'
p551
stRp552
ag3
(g4
g5
(dp553
g17
S'DepotType'
p554
sg15
S'type'
p555
sg20
S'Type of depot'
p556
stRp557
ag3
(g4
g5
(dp558
g17
S'Text'
p559
sg15
S'extra'
p560
sg20
S'For remote depots, the P4PORT address of the remote server.\n\t\t    For spec depots, the field contains a suffix to append to \n\t\t    the filename.'
p561
stRp562
ag3
(g4
g5
(dp563
g17
S'Text'
p564
sg15
S'map'
p565
sg20
S"The depot's map (path translation information).  For local \n\t\t    depots, this will be a path relative to the root directory.\n\t\t    For remote depots, this will be specified in terms of the \n\t\t    remote server's namespace."
p566
stRp567
atRp568
sg15
S'Depot'
p569
stRp570
ag3
(g4
g5
(dp571
g376
g3
(g8
g9
(lp572
g3
(g4
g5
(dp573
g17
S'Change'
p574
sg15
S'descKey'
p575
sg20
S'Original number of the change to which this description\n\t\t    applies. This may differ from the final change number if\n\t\t    the change is renumbered on submission.'
p576
stRp577
ag3
(g4
g5
(dp578
g17
S'Text'
p579
sg15
S'description'
p580
sg20
S'The change description itself'
p581
stRp582
atRp583
sg15
S'Desc'
p584
stRp585
ag3
(g4
g5
(dp586
g376
g3
(g8
g9
(lp587
g3
(g4
g5
(dp588
g17
S'Domain'
p589
sg15
S'name'
p590
sg20
S'Domain name'
p591
stRp592
ag3
(g4
g5
(dp593
g17
S'DomainType'
p594
sg15
S'type'
p595
sg20
S'Type of domain'
p596
stRp597
ag3
(g4
g5
(dp598
g17
S'Text'
p599
sg15
S'extra'
p600
sg20
S'Formerly "host". Associated host or, for labels, revision \n\t\t    number.'
p601
stRp602
ag3
(g4
g5
(dp603
g17
S'Text'
p604
sg15
S'mount'
p605
sg20
S'The client root'
p606
stRp607
ag3
(g4
g5
(dp608
g17
S'Text'
p609
sg15
S'mount2'
p610
sg20
S'Alternate client root'
p611
stRp612
ag3
(g4
g5
(dp613
g17
S'Text'
p614
sg15
S'mount3'
p615
sg20
S'Alternate client root'
p616
stRp617
ag3
(g4
g5
(dp618
g17
S'User'
p619
sg15
S'owner'
p620
sg20
S'Name of user who owns the domain.'
p621
stRp622
ag3
(g4
g5
(dp623
g17
S'Date'
p624
sg15
S'updateDate'
p625
sg20
S'Date of last update to domain specification.'
p626
stRp627
ag3
(g4
g5
(dp628
g17
S'Date'
p629
sg15
S'accessDate'
p630
sg20
S'Date of last access to domain specification.'
p631
stRp632
ag3
(g4
g5
(dp633
g17
S'DomainOpts'
p634
sg15
S'options'
p635
sg20
S'Options for client, label, and branch domains.'
p636
stRp637
ag3
(g4
g5
(dp638
g17
S'Text'
p639
sg15
S'description'
p640
sg20
S'Description of domain.'
p641
stRp642
atRp643
sg15
S'Domain'
p644
stRp645
ag3
(g4
g5
(dp646
g376
g3
(g8
g9
(lp647
g3
(g4
g5
(dp648
g17
S'String'
p649
sg15
S'job'
p650
sg20
S'Job name'
p651
stRp652
ag3
(g4
g5
(dp653
g17
S'Change'
p654
sg15
S'change'
p655
sg20
S'Changelist number'
p656
stRp657
ag3
(g4
g5
(dp658
g17
S'Date'
p659
sg15
S'date'
p660
sg20
S'Date fix was recorded (may differ from date change was\n\t\t    submitted).'
p661
stRp662
ag3
(g4
g5
(dp663
g17
S'FixStatus'
p664
sg15
S'status'
p665
sg20
S'Status of the job'
p666
stRp667
ag3
(g4
g5
(dp668
g17
S'Domain'
p669
sg15
S'client'
p670
sg20
S'The client where the fix originated'
p671
stRp672
ag3
(g4
g5
(dp673
g17
S'User'
p674
sg15
S'user'
p675
sg20
S'The user who fixed the job'
p676
stRp677
atRp678
sg15
S'Fix'
p679
stRp680
ag3
(g4
g5
(dp681
g376
g3
(g8
g9
(lp682
g3
(g4
g5
(dp683
g17
S'User'
p684
sg15
S'user'
p685
sg20
S'User name'
p686
stRp687
ag3
(g4
g5
(dp688
g17
S'User'
p689
sg15
S'group'
p690
sg20
S'Group name'
p691
stRp692
ag3
(g4
g5
(dp693
g17
S'UserType'
p694
sg15
S'type'
p695
sg20
S'Type of user in this group.'
p696
stRp697
ag3
(g4
g5
(dp698
g17
S'MaxResults'
p699
sg15
S'maxResults'
p700
sg20
S'MaxResults setting for the group.'
p701
stRp702
ag3
(g4
g5
(dp703
g17
S'MaxScanRows'
p704
sg15
S'maxScanRows'
p705
sg20
S'MaxScanRows setting for the group.'
p706
stRp707
ag3
(g4
g5
(dp708
g17
S'MaxLockTime'
p709
sg15
S'maxLockTime'
p710
sg20
S'MaxLockTime setting for the group.'
p711
stRp712
ag3
(g4
g5
(dp713
g17
S'Int'
p714
sg15
S'timeout'
p715
sg20
S'Length of time (in seconds) a login ticket remains valid.'
p716
stRp717
ag3
(g4
g5
(dp718
g17
S'Int'
p719
sg15
S'passwordTimeout'
p720
sg20
S'Length of time (in seconds) a password remains valid for users in the group.'
p721
stRp722
atRp723
sg15
S'Group'
p724
stRp725
ag3
(g4
g5
(dp726
g376
g3
(g8
g9
(lp727
g3
(g4
g5
(dp728
g17
S'File'
p729
sg15
S'clientFile'
p730
sg20
S'The file in its location on the client'
p731
stRp732
ag3
(g4
g5
(dp733
g17
S'File'
p734
sg15
S'depotFile'
p735
sg20
S'The file in the depot'
p736
stRp737
ag3
(g4
g5
(dp738
g17
S'Rev'
p739
sg15
S'haveRev'
p740
sg20
S'The revision synced to the client'
p741
stRp742
ag3
(g4
g5
(dp743
g17
S'FileType'
p744
sg15
S'type'
p745
sg20
S'The filetype of the synced revision'
p746
stRp747
atRp748
sg15
S'Have'
p749
stRp750
ag3
(g4
g5
(dp751
g376
g3
(g8
g9
(lp752
g3
(g4
g5
(dp753
g17
S'Date'
p754
sg15
S'date'
p755
sg20
S'Date value'
p756
stRp757
ag3
(g4
g5
(dp758
g17
S'Int'
p759
sg15
S'attr'
p760
sg20
S'The attribute number (from the jobspec) to which this\n\t\t    date belongs'
p761
stRp762
ag3
(g4
g5
(dp763
g17
S'String'
p764
sg15
S'value'
p765
sg20
S'A job name'
p766
stRp767
atRp768
sg15
S'IndexDate'
p769
stRp770
ag3
(g4
g5
(dp771
g376
g3
(g8
g9
(lp772
g3
(g4
g5
(dp773
g17
S'String'
p774
sg15
S'word'
p775
sg20
S'The word being indexed'
p776
stRp777
ag3
(g4
g5
(dp778
g17
S'Int'
p779
sg15
S'attr'
p780
sg20
S'The attribute number (from the jobspec) to which this\n\t\t    word belongs'
p781
stRp782
ag3
(g4
g5
(dp783
g17
S'String'
p784
sg15
S'value'
p785
sg20
S'A job name'
p786
stRp787
atRp788
sg15
S'IndexText'
p789
stRp790
ag3
(g4
g5
(dp791
g376
g3
(g8
g9
(lp792
g3
(g4
g5
(dp793
g17
S'File'
p794
sg15
S'toFile'
p795
sg20
S'File to which integration is being performed (target).'
p796
stRp797
ag3
(g4
g5
(dp798
g17
S'File'
p799
sg15
S'fromFile'
p800
sg20
S'File from which integration is being performed (source).'
p801
stRp802
ag3
(g4
g5
(dp803
g17
S'Rev'
p804
sg15
S'startFromRev'
p805
sg20
S'Starting revision of fromFile'
p806
stRp807
ag3
(g4
g5
(dp808
g17
S'Rev'
p809
sg15
S'endFromRev'
p810
sg20
S'Ending revision of fromFile. If integrating from a single \n\t\t    revision (not a revision range), the startFromRev and \n\t\t    endFromRev fields will be identical.'
p811
stRp812
ag3
(g4
g5
(dp813
g17
S'Rev'
p814
sg15
S'toRev'
p815
sg20
S'Revision of toFile into which integration is being \n\t\t    performed.'
p816
stRp817
ag3
(g4
g5
(dp818
g17
S'IntegHow'
p819
sg15
S'how'
p820
sg20
S'Integration method: variations on \n\t\t    merge/branch/copy/ignore/delete.'
p821
stRp822
ag3
(g4
g5
(dp823
g17
S'Int'
p824
sg15
S'committed'
p825
sg20
S'Flag: 0 for pending, 1 for committed.'
p826
stRp827
ag3
(g4
g5
(dp828
g17
S'ResolvedStatus'
p829
sg15
S'resolved'
p830
sg20
S'Resolution method: unresolved, resolved manually, \n\t\t    or resolved as part of a branch or delete.'
p831
stRp832
ag3
(g4
g5
(dp833
g17
S'Change'
p834
sg15
S'change'
p835
sg20
S'Changelist associated with the integration.'
p836
stRp837
atRp838
sg15
S'Integ'
p839
stRp840
ag3
(g4
g5
(dp841
g376
g3
(g8
g9
(lp842
g3
(g4
g5
(dp843
g17
S'File'
p844
sg15
S'toFile'
p845
sg20
S'File to which integration is being performed (target).'
p846
stRp847
ag3
(g4
g5
(dp848
g17
S'File'
p849
sg15
S'fromFile'
p850
sg20
S'File from which integration is being performed (source).'
p851
stRp852
ag3
(g4
g5
(dp853
g17
S'Rev'
p854
sg15
S'startFromRev'
p855
sg20
S'Starting revision of fromFile'
p856
stRp857
ag3
(g4
g5
(dp858
g17
S'Rev'
p859
sg15
S'endFromRev'
p860
sg20
S'Ending revision of fromFile. If integrating from a single \n\t\t    revision (not a revision range), the startFromRev and \n\t\t    endFromRev fields will be identical.'
p861
stRp862
ag3
(g4
g5
(dp863
g17
S'Rev'
p864
sg15
S'startToRev'
p865
sg20
S'Start revision of toFile into which integration was \n\t\t    performed.'
p866
stRp867
ag3
(g4
g5
(dp868
g17
S'Rev'
p869
sg15
S'endToRev'
p870
sg20
S'End revision of toFile into which integration was \n\t\t    performed. Only varies from startToRev for reverse \n\t\t    integration records.'
p871
stRp872
ag3
(g4
g5
(dp873
g17
S'IntegHow'
p874
sg15
S'how'
p875
sg20
S'Integration method: variations on \n\t\t    merge/branch/copy/ignore/delete.'
p876
stRp877
ag3
(g4
g5
(dp878
g17
S'Change'
p879
sg15
S'change'
p880
sg20
S'Changelist associated with the integration.'
p881
stRp882
atRp883
sg15
S'Integed'
p884
stRp885
ag3
(g4
g5
(dp886
g376
g3
(g8
g9
(lp887
g3
(g4
g5
(dp888
g17
S'String'
p889
sg15
S'job'
p890
sg20
S'The job name'
p891
stRp892
ag3
(g4
g5
(dp893
g17
S'User'
p894
sg15
S'xuser'
p895
sg20
S'User name: defunct'
p896
stRp897
ag3
(g4
g5
(dp898
g17
S'Date'
p899
sg15
S'xdate'
p900
sg20
S'The date: defunct'
p901
stRp902
ag3
(g4
g5
(dp903
g17
S'JobStat'
p904
sg15
S'xstatus'
p905
sg20
S'Job status: defunct'
p906
stRp907
ag3
(g4
g5
(dp908
g17
S'DescShort'
p909
sg15
S'description'
p910
sg20
S'Short description'
p911
stRp912
atRp913
sg15
S'Job'
p914
stRp915
ag3
(g4
g5
(dp916
g376
g3
(g8
g9
(lp917
g3
(g4
g5
(dp918
g17
S'String'
p919
sg15
S'xjob'
p920
sg20
S'The job name'
p921
stRp922
ag3
(g4
g5
(dp923
g17
S'Text'
p924
sg15
S'xdescription'
p925
sg20
S'Jobdescription'
p926
stRp927
atRp928
sg15
S'JobDesc'
p929
stRp930
ag3
(g4
g5
(dp931
g376
g3
(g8
g9
(lp932
g3
(g4
g5
(dp933
g17
S'Domain'
p934
sg15
S'name'
p935
sg20
S'Name of the label'
p936
stRp937
ag3
(g4
g5
(dp938
g17
S'File'
p939
sg15
S'depotFile'
p940
sg20
S'File name'
p941
stRp942
ag3
(g4
g5
(dp943
g17
S'Rev'
p944
sg15
S'haveRev'
p945
sg20
S'The revision of the file in the label'
p946
stRp947
atRp948
sg15
S'Label'
p949
stRp950
ag3
(g4
g5
(dp951
g376
g3
(g8
g9
(lp952
g3
(g4
g5
(dp953
g17
S'File'
p954
sg15
S'depotFile'
p955
sg20
S'File in depot'
p956
stRp957
ag3
(g4
g5
(dp958
g17
S'Domain'
p959
sg15
S'client'
p960
sg20
S'Domain (client) in which file is open'
p961
stRp962
ag3
(g4
g5
(dp963
g17
S'User'
p964
sg15
S'user'
p965
sg20
S'User who presently has the file open'
p966
stRp967
ag3
(g4
g5
(dp968
g17
S'Action'
p969
sg15
S'action'
p970
sg20
S'Action file is open for: add, edit, delete, branch,\n\t\t    integrate, or import'
p971
stRp972
ag3
(g4
g5
(dp973
g17
S'Int'
p974
sg15
S'isLocked'
p975
sg20
S'Flag: 0 for unlocked, 1 for locked'
p976
stRp977
ag3
(g4
g5
(dp978
g17
S'Int'
p979
sg15
S'change'
p980
sg20
S'Changelist in which the revision is open: 0 for the\n\t\t    default changelist'
p981
stRp982
atRp983
sg15
S'Locks'
p984
stRp985
ag3
(g4
g5
(dp986
g376
g3
(g8
g9
(lp987
g3
(g4
g5
(dp988
g17
S'Int'
p989
sg15
S'seq'
p990
sg20
S'Sequence number of event'
p991
stRp992
ag3
(g4
g5
(dp993
g17
S'String'
p994
sg15
S'key'
p995
sg20
S"Either the word 'change' or the word 'job'"
p996
stRp997
ag3
(g4
g5
(dp998
g17
S'String'
p999
sg15
S'attr'
p1000
sg20
S'The number of the change, or name of the job that was \n\t\t    altered.'
p1001
stRp1002
atRp1003
sg15
S'Logger'
p1004
stRp1005
ag3
(g4
g5
(dp1006
g376
g3
(g8
g9
(lp1007
g3
(g4
g5
(dp1008
g17
S'String'
p1009
sg15
S'language'
p1010
sg20
S'The language for which this message applies'
p1011
stRp1012
ag3
(g4
g5
(dp1013
g17
S'Int'
p1014
sg15
S'id'
p1015
sg20
S'The message number'
p1016
stRp1017
ag3
(g4
g5
(dp1018
g17
S'String'
p1019
sg15
S'message'
p1020
sg20
S'The message text'
p1021
stRp1022
atRp1023
sg15
S'Message'
p1024
stRp1025
ag3
(g4
g5
(dp1026
g376
g3
(g8
g9
(lp1027
g3
(g4
g5
(dp1028
g17
S'Int'
p1029
sg15
S'id'
p1030
sg20
S'Thread/process id'
p1031
stRp1032
ag3
(g4
g5
(dp1033
g17
S'User'
p1034
sg15
S'user'
p1035
sg20
S'Username of the user running the command'
p1036
stRp1037
ag3
(g4
g5
(dp1038
g17
S'String'
p1039
sg15
S'function'
p1040
sg20
S'The command being executed.'
p1041
stRp1042
ag3
(g4
g5
(dp1043
g17
S'String'
p1044
sg15
S'args'
p1045
sg20
S'Arguments passed to the command'
p1046
stRp1047
ag3
(g4
g5
(dp1048
g17
S'Date'
p1049
sg15
S'startDate'
p1050
sg20
S'The date and time the command started'
p1051
stRp1052
ag3
(g4
g5
(dp1053
g17
S'Int'
p1054
sg15
S'runstate'
p1055
sg20
S'Flag: 0 for running, 1 for terminated, 2 for paused'
p1056
stRp1057
ag3
(g4
g5
(dp1058
g17
S'Domain'
p1059
sg15
S'client'
p1060
sg20
S'The client workspace'
p1061
stRp1062
ag3
(g4
g5
(dp1063
g17
S'Text'
p1064
sg15
S'host'
p1065
sg20
S'The IP address of the client'
p1066
stRp1067
ag3
(g4
g5
(dp1068
g17
S'Text'
p1069
sg15
S'prog'
p1070
sg20
S'The name (and version) of the client program'
p1071
stRp1072
atRp1073
sg15
S'Monitor'
p1074
stRp1075
ag3
(g4
g5
(dp1076
g376
g3
(g8
g9
(lp1077
g3
(g4
g5
(dp1078
g17
S'Int'
p1079
sg15
S'seq'
p1080
sg20
S'Sequence number: for ordering the protections table'
p1081
stRp1082
ag3
(g4
g5
(dp1083
g17
S'Int'
p1084
sg15
S'isGroup'
p1085
sg20
S'Flag: 0 for a per-user setting, 1 for a per-group setting.'
p1086
stRp1087
ag3
(g4
g5
(dp1088
g17
S'UserWild'
p1089
sg15
S'user'
p1090
sg20
S'User(s), or Group(s) for whom this record applies.'
p1091
stRp1092
ag3
(g4
g5
(dp1093
g17
S'DomainWild'
p1094
sg15
S'host'
p1095
sg20
S'Domain(s) (IP addresses) for which this record applies.'
p1096
stRp1097
ag3
(g4
g5
(dp1098
g17
S'Perm'
p1099
sg15
S'perm'
p1100
sg20
S'Permissions to be granted/revoked'
p1101
stRp1102
ag3
(g4
g5
(dp1103
g17
S'MapFlag'
p1104
sg15
S'mapFlag'
p1105
sg20
S'Flag: Map the files in or out?'
p1106
stRp1107
ag3
(g4
g5
(dp1108
g17
S'Mapping'
p1109
sg15
S'depotFile'
p1110
sg20
S'Files to be mapped in or out.'
p1111
stRp1112
atRp1113
sg15
S'Protect'
p1114
stRp1115
ag3
(g4
g5
(dp1116
g376
g3
(g8
g9
(lp1117
g3
(g4
g5
(dp1118
g17
S'File'
p1119
sg15
S'toFile'
p1120
sg20
S'File to which integration is being performed (target).'
p1121
stRp1122
ag3
(g4
g5
(dp1123
g17
S'File'
p1124
sg15
S'fromFile'
p1125
sg20
S'File from which integration is being performed (source).'
p1126
stRp1127
ag3
(g4
g5
(dp1128
g17
S'Rev'
p1129
sg15
S'startFromRev'
p1130
sg20
S'Starting revision of fromFile'
p1131
stRp1132
ag3
(g4
g5
(dp1133
g17
S'Rev'
p1134
sg15
S'endFromRev'
p1135
sg20
S'Ending revision of fromFile. If integrating from a single \n\t\t    revision (not a revision range), the startFromRev and \n\t\t    endFromRev fields will be identical.'
p1136
stRp1137
ag3
(g4
g5
(dp1138
g17
S'Rev'
p1139
sg15
S'startToRev'
p1140
sg20
S'Start revision of toFile into which integration was \n\t\t    performed.'
p1141
stRp1142
ag3
(g4
g5
(dp1143
g17
S'Rev'
p1144
sg15
S'endToRev'
p1145
sg20
S'End revision of toFile into which integration was \n\t\t    performed. Only varies from startToRev for reverse \n\t\t    integration records.'
p1146
stRp1147
ag3
(g4
g5
(dp1148
g17
S'IntegHow'
p1149
sg15
S'how'
p1150
sg20
S'Integration method: variations on \n\t\t    merge/branch/copy/ignore/delete.'
p1151
stRp1152
ag3
(g4
g5
(dp1153
g17
S'ResolveState'
p1154
sg15
S'state'
p1155
sg20
S'How the user performed the resolve.'
p1156
stRp1157
ag3
(g4
g5
(dp1158
g17
S'File'
p1159
sg15
S'baseFile'
p1160
sg20
S'File used as the base for merging.'
p1161
stRp1162
ag3
(g4
g5
(dp1163
g17
S'Rev'
p1164
sg15
S'baseRev'
p1165
sg20
S'Revision of baseFile used as the merge base.'
p1166
stRp1167
atRp1168
sg15
S'Resolve'
p1169
stRp1170
ag3
(g4
g5
(dp1171
g376
g3
(g8
g9
(lp1172
g3
(g4
g5
(dp1173
g17
S'File'
p1174
sg15
S'depotFile'
p1175
sg20
S'The file name'
p1176
stRp1177
ag3
(g4
g5
(dp1178
g17
S'Rev'
p1179
sg15
S'depotRev'
p1180
sg20
S'The revision number'
p1181
stRp1182
ag3
(g4
g5
(dp1183
g17
S'FileType'
p1184
sg15
S'type'
p1185
sg20
S'The file type of the revision'
p1186
stRp1187
ag3
(g4
g5
(dp1188
g17
S'Action'
p1189
sg15
S'action'
p1190
sg20
S'The action that created the revision'
p1191
stRp1192
ag3
(g4
g5
(dp1193
g17
S'Change'
p1194
sg15
S'change'
p1195
sg20
S'The changelist that created the revision'
p1196
stRp1197
ag3
(g4
g5
(dp1198
g17
S'Date'
p1199
sg15
S'date'
p1200
sg20
S'The date/time the changelist that created the revision\n\t\t    was submitted'
p1201
stRp1202
ag3
(g4
g5
(dp1203
g17
S'Date'
p1204
sg15
S'modTime'
p1205
sg20
S"The timestamp on the file in the user's workspace when\n\t\t    the revision was submitted."
p1206
stRp1207
ag3
(g4
g5
(dp1208
g17
S'Digest'
p1209
sg15
S'digest'
p1210
sg20
S'The MD5 digest of the revision.'
p1211
stRp1212
ag3
(g4
g5
(dp1213
g17
S'FileSize'
p1214
sg15
S'size'
p1215
sg20
S'The size of the file in bytes'
p1216
stRp1217
ag3
(g4
g5
(dp1218
g17
S'TraitLot'
p1219
sg15
S'traitLot'
p1220
sg20
S'Group of traits (attributes) associated with the revision.'
p1221
stRp1222
ag3
(g4
g5
(dp1223
g17
S'Int'
p1224
sg15
S'lbrIsLazy'
p1225
sg20
S'Flag specifying whether or not the revision gets its\n\t\t    content from another file (i.e. whether or not depotFile\n\t\t    and lbrFile differ)'
p1226
stRp1227
ag3
(g4
g5
(dp1228
g17
S'File'
p1229
sg15
S'lbrFile'
p1230
sg20
S"Filename for librarian's purposes.  Specifies location in \n\t\t    the archives where the file containing the revision may\n\t\t    be found. Usually the same as depotFile, but differs in\n\t\t    the case of branched/copied revisions."
p1231
stRp1232
ag3
(g4
g5
(dp1233
g17
S'String'
p1234
sg15
S'lbrRev'
p1235
sg20
S'The revision of lbrFile that contains the revision content.'
p1236
stRp1237
ag3
(g4
g5
(dp1238
g17
S'FileType'
p1239
sg15
S'lbrType'
p1240
sg20
S'The file type of the librarian revision. Usually the same\n\t\t    as type, but differs in the case of branched/copied \n\t\t    revisions.'
p1241
stRp1242
atRp1243
sg15
S'Rev'
p1244
stRp1245
ag3
(g4
g5
(dp1246
g376
g3
(g8
g9
(lp1247
g3
(g4
g5
(dp1248
g17
S'Change'
p1249
sg15
S'change'
p1250
sg20
S'The changelist that created the revision'
p1251
stRp1252
ag3
(g4
g5
(dp1253
g17
S'File'
p1254
sg15
S'depotFile'
p1255
sg20
S'The file name'
p1256
stRp1257
ag3
(g4
g5
(dp1258
g17
S'Rev'
p1259
sg15
S'depotRev'
p1260
sg20
S'The revision number'
p1261
stRp1262
ag3
(g4
g5
(dp1263
g17
S'Action'
p1264
sg15
S'action'
p1265
sg20
S'The action that created the revision'
p1266
stRp1267
atRp1268
sg15
S'RevCx'
p1269
stRp1270
ag3
(g4
g5
(dp1271
g376
g3
(g8
g9
(lp1272
g3
(g4
g5
(dp1273
g17
S'User'
p1274
sg15
S'user'
p1275
sg20
S'A user name'
p1276
stRp1277
ag3
(g4
g5
(dp1278
g17
S'Int'
p1279
sg15
S'seq'
p1280
sg20
S'Sequence number: used for ordering multi-line views'
p1281
stRp1282
ag3
(g4
g5
(dp1283
g17
S'MapFlag'
p1284
sg15
S'mapFlag'
p1285
sg20
S'Type of mapping'
p1286
stRp1287
ag3
(g4
g5
(dp1288
g17
S'Mapping'
p1289
sg15
S'depotFile'
p1290
sg20
S'The files to be reviewed'
p1291
stRp1292
ag3
(g4
g5
(dp1293
g17
S'Reviewer'
p1294
sg15
S'type'
p1295
sg20
S'Type of reviewer'
p1296
stRp1297
atRp1298
sg15
S'Review'
p1299
stRp1300
ag3
(g4
g5
(dp1301
g376
g3
(g8
g9
(lp1302
g3
(g4
g5
(dp1303
g17
S'Domain'
p1304
sg15
S'stream'
p1305
sg20
S'Stream name'
p1306
stRp1307
ag3
(g4
g5
(dp1308
g17
S'Domain'
p1309
sg15
S'parent'
p1310
sg20
S'Parent stream name'
p1311
stRp1312
ag3
(g4
g5
(dp1313
g17
S'Text'
p1314
sg15
S'title'
p1315
sg20
S'Stream title (alias for the stream name)'
p1316
stRp1317
ag3
(g4
g5
(dp1318
g17
S'StreamType'
p1319
sg15
S'type'
p1320
sg20
S'The type of stream'
p1321
stRp1322
ag3
(g4
g5
(dp1323
g17
S'Date'
p1324
sg15
S'preview'
p1325
sg20
S'Stream template modification time'
p1326
stRp1327
ag3
(g4
g5
(dp1328
g17
S'Change'
p1329
sg15
S'change'
p1330
sg20
S'Last submit to stream'
p1331
stRp1332
ag3
(g4
g5
(dp1333
g17
S'Change'
p1334
sg15
S'copychg'
p1335
sg20
S'Parent change at last copy'
p1336
stRp1337
ag3
(g4
g5
(dp1338
g17
S'Change'
p1339
sg15
S'mergechg'
p1340
sg20
S'Parent change at last merge'
p1341
stRp1342
ag3
(g4
g5
(dp1343
g17
S'Change'
p1344
sg15
S'highchg'
p1345
sg20
S'Highest change at last merge'
p1346
stRp1347
ag3
(g4
g5
(dp1348
g17
S'Int'
p1349
sg15
S'hash'
p1350
sg20
S'Hash value of dynamic branch'
p1351
stRp1352
ag3
(g4
g5
(dp1353
g17
S'StreamStatus'
p1354
sg15
S'status'
p1355
sg20
S'Flow status'
p1356
stRp1357
atRp1358
sg15
S'Stream'
p1359
stRp1360
ag3
(g4
g5
(dp1361
g376
g3
(g8
g9
(lp1362
g3
(g4
g5
(dp1363
g17
S'Domain'
p1364
sg15
S'name'
p1365
sg20
S'Stream name'
p1366
stRp1367
ag3
(g4
g5
(dp1368
g17
S'Change'
p1369
sg15
S'change'
p1370
sg20
S'Versioned at change'
p1371
stRp1372
ag3
(g4
g5
(dp1373
g17
S'Int'
p1374
sg15
S'seq'
p1375
sg20
S'Sequence (line) number'
p1376
stRp1377
ag3
(g4
g5
(dp1378
g17
S'Domain'
p1379
sg15
S'parent'
p1380
sg20
S'Parent stream name'
p1381
stRp1382
ag3
(g4
g5
(dp1383
g17
S'StreamType'
p1384
sg15
S'type'
p1385
sg20
S'Type of stream'
p1386
stRp1387
ag3
(g4
g5
(dp1388
g17
S'StreamPathType'
p1389
sg15
S'path'
p1390
sg20
S'Stream path type'
p1391
stRp1392
ag3
(g4
g5
(dp1393
g17
S'Mapping'
p1394
sg15
S'viewFile'
p1395
sg20
S'View file (left hand side of path)'
p1396
stRp1397
ag3
(g4
g5
(dp1398
g17
S'Mapping'
p1399
sg15
S'depotFile'
p1400
sg20
S'Depot file (right hand side of path)'
p1401
stRp1402
atRp1403
sg15
S'Template'
p1404
stRp1405
ag3
(g4
g5
(dp1406
g376
g3
(g8
g9
(lp1407
g3
(g4
g5
(dp1408
g17
S'Int'
p1409
sg15
S'traitLot'
p1410
sg20
S'Indicates a specific collection of traits (referred to \n\t\t    externally as "attributes".)'
p1411
stRp1412
ag3
(g4
g5
(dp1413
g17
S'String'
p1414
sg15
S'name'
p1415
sg20
S'Trait (attribute) name'
p1416
stRp1417
ag3
(g4
g5
(dp1418
g17
S'TraitType'
p1419
sg15
S'type'
p1420
sg20
S'Type of trait'
p1421
stRp1422
ag3
(g4
g5
(dp1423
g17
S'Octet String'
p1424
sg15
S'value'
p1425
sg20
S'The value'
p1426
stRp1427
atRp1428
sg15
S'Trait'
p1429
stRp1430
ag3
(g4
g5
(dp1431
g376
g3
(g8
g9
(lp1432
g3
(g4
g5
(dp1433
g17
S'Int'
p1434
sg15
S'seq'
p1435
sg20
S'Sequence number: for ordering the trigger list'
p1436
stRp1437
ag3
(g4
g5
(dp1438
g17
S'String'
p1439
sg15
S'name'
p1440
sg20
S'Name of the trigger'
p1441
stRp1442
ag3
(g4
g5
(dp1443
g17
S'MapFlag'
p1444
sg15
S'mapFlag'
p1445
sg20
S'Type of mapping: specifies whether the trigger applies \n\t\t    to the files or not.'
p1446
stRp1447
ag3
(g4
g5
(dp1448
g17
S'Mapping'
p1449
sg15
S'depotFile'
p1450
sg20
S'The files to apply the trigger to'
p1451
stRp1452
ag3
(g4
g5
(dp1453
g17
S'Trigger'
p1454
sg15
S'trigger'
p1455
sg20
S'Type of trigger'
p1456
stRp1457
ag3
(g4
g5
(dp1458
g17
S'Text'
p1459
sg15
S'action'
p1460
sg20
S'Command to execute when trigger runs'
p1461
stRp1462
atRp1463
sg15
S'Trigger'
p1464
stRp1465
ag3
(g4
g5
(dp1466
g376
g3
(g8
g9
(lp1467
g3
(g4
g5
(dp1468
g17
S'User'
p1469
sg15
S'user'
p1470
sg20
S'The username'
p1471
stRp1472
ag3
(g4
g5
(dp1473
g17
S'Text'
p1474
sg15
S'email'
p1475
sg20
S"The user's email address"
p1476
stRp1477
ag3
(g4
g5
(dp1478
g17
S'Text'
p1479
sg15
S'jobView'
p1480
sg20
S"The user's job view"
p1481
stRp1482
ag3
(g4
g5
(dp1483
g17
S'Date'
p1484
sg15
S'updateDate'
p1485
sg20
S'The date/time the user record was last updated'
p1486
stRp1487
ag3
(g4
g5
(dp1488
g17
S'Date'
p1489
sg15
S'accessDate'
p1490
sg20
S'The date/time the user record was last used'
p1491
stRp1492
ag3
(g4
g5
(dp1493
g17
S'Text'
p1494
sg15
S'fullName'
p1495
sg20
S"The user's full name"
p1496
stRp1497
ag3
(g4
g5
(dp1498
g17
S'Password'
p1499
sg15
S'password'
p1500
sg20
S'The MD5 hash of the users (encrypted) password'
p1501
stRp1502
ag3
(g4
g5
(dp1503
g17
S'Strength'
p1504
sg15
S'strength'
p1505
sg20
S"Measure of the strength of the user's password"
p1506
stRp1507
ag3
(g4
g5
(dp1508
g17
S'Password'
p1509
sg15
S'ticket'
p1510
sg20
S"'p4 login' ticket for this user"
p1511
stRp1512
ag3
(g4
g5
(dp1513
g17
S'Date'
p1514
sg15
S'endDate'
p1515
sg20
S"Date/time the user's ticket expires"
p1516
stRp1517
ag3
(g4
g5
(dp1518
g17
S'UserLevel'
p1519
sg15
S'type'
p1520
sg20
S'Type of user'
p1521
stRp1522
ag3
(g4
g5
(dp1523
g17
S'Date'
p1524
sg15
S'passwordChangeDate'
p1525
sg20
S'Date password was last changed'
p1526
stRp1527
atRp1528
sg15
S'User'
p1529
stRp1530
ag3
(g4
g5
(dp1531
g376
g3
(g8
g9
(lp1532
g3
(g4
g5
(dp1533
g17
S'Domain'
p1534
sg15
S'name'
p1535
sg20
S'Domain name to which this view applies'
p1536
stRp1537
ag3
(g4
g5
(dp1538
g17
S'Int'
p1539
sg15
S'seq'
p1540
sg20
S'Sequence number: for ordering multi-line views'
p1541
stRp1542
ag3
(g4
g5
(dp1543
g17
S'MapFlag'
p1544
sg15
S'mapFlag'
p1545
sg20
S'Type of mapping'
p1546
stRp1547
ag3
(g4
g5
(dp1548
g17
S'Mapping'
p1549
sg15
S'viewFile'
p1550
sg20
S"The right-hand-side of the view. For clients, this is\n\t\t    the client-side, for labels it's the generated label \n\t\t    view. For branches, it's the target side of the branch\n\t\t    view."
p1551
stRp1552
ag3
(g4
g5
(dp1553
g17
S'Mapping'
p1554
sg15
S'depotFile'
p1555
sg20
S'The left-hand-side of the view - a mapping to file(s)\n\t\t    in the depot.'
p1556
stRp1557
atRp1558
sg15
S'View'
p1559
stRp1560
ag3
(g4
g5
(dp1561
g376
g3
(g8
g9
(lp1562
g3
(g4
g5
(dp1563
g17
S'File'
p1564
sg15
S'clientFile'
p1565
sg20
S'File on the client'
p1566
stRp1567
ag3
(g4
g5
(dp1568
g17
S'File'
p1569
sg15
S'depotFile'
p1570
sg20
S'File in the depot'
p1571
stRp1572
ag3
(g4
g5
(dp1573
g17
S'Domain'
p1574
sg15
S'client'
p1575
sg20
S'The client the file is opened on'
p1576
stRp1577
ag3
(g4
g5
(dp1578
g17
S'User'
p1579
sg15
S'user'
p1580
sg20
S'The user who has the file opened'
p1581
stRp1582
ag3
(g4
g5
(dp1583
g17
S'Rev'
p1584
sg15
S'haveRev'
p1585
sg20
S"Revision presently in user's client workspace.  This is \n\t\t    normally identical to workRev except for the case in which \n\t\t    you've tried to submit a file where you no longer have the \n\t\t    head revision. Perforce schedules the integrate (moves \n\t\t    workRev to headRev, but doesn't change the haveRev, so that \n\t\t    a p4 revert will return the file originally checked-out \n\t\t    instead of the new head revision."
p1586
stRp1587
ag3
(g4
g5
(dp1588
g17
S'Rev'
p1589
sg15
S'workRev'
p1590
sg20
S'Working revision; this is identical to the haveRev except \n\t\t    in the case described above.'
p1591
stRp1592
ag3
(g4
g5
(dp1593
g17
S'Int'
p1594
sg15
S'isVirtual'
p1595
sg20
S'Flag: if 1, file was opened with "p4 integ -v".'
p1596
stRp1597
ag3
(g4
g5
(dp1598
g17
S'FileType'
p1599
sg15
S'type'
p1600
sg20
S'File type'
p1601
stRp1602
ag3
(g4
g5
(dp1603
g17
S'Action'
p1604
sg15
S'action'
p1605
sg20
S"What the user's doing with the file"
p1606
stRp1607
ag3
(g4
g5
(dp1608
g17
S'Change'
p1609
sg15
S'change'
p1610
sg20
S'Associated changelist, or zero for the default changelist.'
p1611
stRp1612
ag3
(g4
g5
(dp1613
g17
S'Date'
p1614
sg15
S'modTime'
p1615
sg20
S"Modification timestamp on the file in the user's workspace."
p1616
stRp1617
ag3
(g4
g5
(dp1618
g17
S'Int'
p1619
sg15
S'isLocked'
p1620
sg20
S'Flag: 0 for unlocked, 1 for locked.'
p1621
stRp1622
ag3
(g4
g5
(dp1623
g17
S'Digest'
p1624
sg15
S'digest'
p1625
sg20
S'MD5 digest of working file.'
p1626
stRp1627
ag3
(g4
g5
(dp1628
g17
S'Int64'
p1629
sg15
S'size'
p1630
sg20
S'File size'
p1631
stRp1632
ag3
(g4
g5
(dp1633
g17
S'int'
p1634
sg15
S'traitLot'
p1635
sg20
S'Group of traits associated with file revision.'
p1636
stRp1637
ag3
(g4
g5
(dp1638
g17
S'TamperCheck'
p1639
sg15
S'tampered'
p1640
sg20
S'Flag indicating the tamper-state of the file in the\n\t\t    workspace.'
p1641
stRp1642
ag3
(g4
g5
(dp1643
g17
S'FileType'
p1644
sg15
S'clntType'
p1645
sg20
S'Type of the file in the client workspace.'
p1646
stRp1647
ag3
(g4
g5
(dp1648
g17
S'File'
p1649
sg15
S'mFile'
p1650
sg20
S'Moved filename'
p1651
stRp1652
atRp1653
sg15
S'Working'
p1654
stRp1655
atRp1656
stRp1657
sS'upgrades'
p1658
g3
(g4
g5
(dp1659
S'upgrade'
p1660
g3
(g8
g9
(lp1661
g3
(g4
g5
(dp1662
S'release'
p1663
S'2001.1'
p1664
sS'index'
p1665
S'1'
sg20
S'Split db.integ into db.integed and db.resolve'
p1666
stRp1667
ag3
(g4
g5
(dp1668
g1663
S'2001.1'
p1669
sg1665
S'2'
sg20
S'Splt db.have into db.have and db.label'
p1670
stRp1671
ag3
(g4
g5
(dp1672
g1663
S'2002.1'
p1673
sg1665
S'3'
sg20
S'Split db.change into db.change and db.changex'
p1674
stRp1675
ag3
(g4
g5
(dp1676
g1663
S'2002.2'
p1677
sg1665
S'4'
sg20
S'Upgrade tempobj filetype in db.rev'
p1678
stRp1679
ag3
(g4
g5
(dp1680
g1663
S'2002.2'
p1681
sg1665
S'5'
sg20
S'Upgrade tempobj filetype in db.working'
p1682
stRp1683
ag3
(g4
g5
(dp1684
g1663
S'2003.1'
p1685
sg1665
S'6'
sg20
S'JnlInitialize default depot'
p1686
stRp1687
ag3
(g4
g5
(dp1688
g1663
S'2003.2'
p1689
sg1665
S'7'
sg20
S'Upgrade db.user'
p1690
stRp1691
ag3
(g4
g5
(dp1692
g1663
S'2005.1'
p1693
sg1665
S'8'
sg20
S'Build db.revhx (headrev) table'
p1694
stRp1695
ag3
(g4
g5
(dp1696
g1663
S'2005.1'
p1697
sg1665
S'9'
sg20
S'Rebuild db.locks from db.working'
p1698
stRp1699
ag3
(g4
g5
(dp1700
g1663
S'2005.1'
p1701
sg1665
S'10'
p1702
sg95
S'Removed in 2006.2'
p1703
sg20
S'Build lazy-copy index (db.archive)'
p1704
stRp1705
ag3
(g4
g5
(dp1706
g1663
S'2005.2'
p1707
sg1665
S'11'
p1708
sg20
S'Build db.revdx (delrev) table'
p1709
stRp1710
ag3
(g4
g5
(dp1711
g1663
S'2005.2'
p1712
sg1665
S'12'
p1713
sg95
S'Moved to 16 in 2007.3'
p1714
sg20
S'Build haveMap from db.have/db.working'
p1715
stRp1716
ag3
(g4
g5
(dp1717
g1663
S'2005.2'
p1718
sg1665
S'13'
p1719
sg20
S'Move spec depot entries into db.revsx'
p1720
stRp1721
ag3
(g4
g5
(dp1722
g1663
S'2006.2'
p1723
sg1665
S'14'
p1724
sg95
S'Moved to 17 in 2007.3'
p1725
sg20
S'Build db.archmap (lazy-copy map) table'
p1726
stRp1727
ag3
(g4
g5
(dp1728
g1663
S'2006.2'
p1729
sg1665
S'15'
p1730
sg95
S'Moved to 18 in 2007.3'
p1731
sg20
S'Remove (obsolete) db.archive table'
p1732
stRp1733
ag3
(g4
g5
(dp1734
g1663
S'2007.3'
p1735
sg1665
S'16'
p1736
sg95
S'Rewritten in 2007.3'
p1737
sg20
S'Build/Rebuild haveMap from db.have/db.working'
p1738
stRp1739
ag3
(g4
g5
(dp1740
g1663
S'2007.3'
p1741
sg1665
S'17'
p1742
sg95
S'Rewritten in 2007.3'
p1743
sg20
S'Build/Rebuild db.archmap (lazy-copy map) table'
p1744
stRp1745
ag3
(g4
g5
(dp1746
g1663
S'2007.3'
p1747
sg1665
S'18'
p1748
sg95
S'Moved from 15 in 2007.3'
p1749
sg20
S'Remove (obsolete) db.archive table'
p1750
stRp1751
ag3
(g4
g5
(dp1752
g1663
S'2008.1'
p1753
sg1665
S'19'
p1754
sg20
S'Build db.change common path'
p1755
stRp1756
ag3
(g4
g5
(dp1757
g1663
S'2009.2'
p1758
sg1665
S'20'
p1759
sg20
S'Move db.boddate/db.ixdate into db.bodtext/db.ixtext'
p1760
stRp1761
ag3
(g4
g5
(dp1762
g1663
S'2009.2'
p1763
sg1665
S'21'
p1764
sg20
S'Remove db.boddate/db.ixdate'
p1765
stRp1766
ag3
(g4
g5
(dp1767
g1663
S'2010.2'
p1768
sg1665
S'22'
p1769
sg20
S'Add db.config'
p1770
stRp1771
ag3
(g4
g5
(dp1772
g1663
S'2011.1'
p1773
sg1665
S'23'
p1774
sg20
S'Upgrade tiny.db'
p1775
stRp1776
atRp1777
stRp1778
sS'datatypes'
p1779
g3
(g4
g5
(dp1780
S'datatype'
p1781
g3
(g8
g9
(lp1782
g3
(g4
g5
(dp1783
g17
S'flag'
p1784
sS'summary'
p1785
S'Type of action'
p1786
sS'values'
p1787
g3
(g8
g9
(lp1788
g3
(g4
g5
(dp1789
S'value'
p1790
S'0'
sg20
S'add; user adds a file'
p1791
stRp1792
ag3
(g4
g5
(dp1793
g1790
S'1'
sg20
S'edit; user edits a file'
p1794
stRp1795
ag3
(g4
g5
(dp1796
g1790
S'2'
sg20
S'delete; user deletes a file'
p1797
stRp1798
ag3
(g4
g5
(dp1799
g1790
S'3'
sg20
S'branch; add via integration'
p1800
stRp1801
ag3
(g4
g5
(dp1802
g1790
S'4'
sg20
S'integ; edit via integration'
p1803
stRp1804
ag3
(g4
g5
(dp1805
g1790
S'5'
sg20
S'import; add via remote depot'
p1806
stRp1807
ag3
(g4
g5
(dp1808
g1790
S'6'
sg20
S'purge; purged revision, no longer available'
p1809
stRp1810
ag3
(g4
g5
(dp1811
g1790
S'7'
sg20
S'movefrom; move from another filename'
p1812
stRp1813
ag3
(g4
g5
(dp1814
g1790
S'8'
sg20
S'moveto; move to another filename'
p1815
stRp1816
ag3
(g4
g5
(dp1817
g1790
S'9'
sg20
S'archive; stored in archive depot'
p1818
stRp1819
atRp1820
sg15
S'Action'
p1821
sg20
S'Revisions are produced by user actions. The Action\n\t\ttype defines the available actions and their internal values.'
p1822
stRp1823
ag3
(g4
g5
(dp1824
g1785
S'A changelist number'
p1825
sg17
S'integer'
p1826
sg15
S'Change'
p1827
sg20
S'The number of a changelist. The number 0 represents the\n\t\tdefault pending changelist.'
p1828
stRp1829
ag3
(g4
g5
(dp1830
g17
S'flag'
p1831
sg1785
S'The status of a change'
p1832
sg1787
g3
(g8
g9
(lp1833
g3
(g4
g5
(dp1834
g1790
S'0'
sg20
S'pending'
p1835
stRp1836
ag3
(g4
g5
(dp1837
g1790
S'1'
sg20
S'committed'
p1838
stRp1839
ag3
(g4
g5
(dp1840
g1790
S'2'
sg20
S'shelved'
p1841
stRp1842
ag3
(g4
g5
(dp1843
g1790
S'4'
sg20
S'restricted, pending'
p1844
stRp1845
ag3
(g4
g5
(dp1846
g1790
S'5'
sg20
S'restricted, committed'
p1847
stRp1848
ag3
(g4
g5
(dp1849
g1790
S'6'
sg20
S'restricted, shelved'
p1850
stRp1851
atRp1852
sg15
S'ChangeStatus'
p1853
sg20
S'A integer value representing the status of a change'
p1854
stRp1855
ag3
(g4
g5
(dp1856
g1785
S'A counter name'
p1857
sg17
S'string'
p1858
sg15
S'Counter'
p1859
sg20
S'A string representing the counter name. Counter names must \n\t\tcontain no spaces, contain no slashes, and be identifiers \n\t\t(cannot begin with a dash and cannot be all-numeric)'
p1860
stRp1861
ag3
(g4
g5
(dp1862
g1785
S'A unix-style date and time'
p1863
sg17
S'integer'
p1864
sg15
S'Date'
p1865
sg20
S'A date and time represented as the number of seconds since \n\t\tthe Epoch: 01 January 1970 00:00:00 UTC. This is the same \n\t\tconvention as that used on Unix platforms.'
p1866
stRp1867
ag3
(g4
g5
(dp1868
g17
S'flag'
p1869
sg1785
S'Type of Depot'
p1870
sg1787
g3
(g8
g9
(lp1871
g3
(g4
g5
(dp1872
g1790
S'0'
sg20
S'A local depot'
p1873
stRp1874
ag3
(g4
g5
(dp1875
g1790
S'1'
sg20
S'A remote depot'
p1876
stRp1877
ag3
(g4
g5
(dp1878
g1790
S'2'
sg20
S'A spec depot'
p1879
stRp1880
ag3
(g4
g5
(dp1881
g1790
S'3'
sg20
S'A stream depot'
p1882
stRp1883
ag3
(g4
g5
(dp1884
g1790
S'4'
sg20
S'An archive depot'
p1885
stRp1886
atRp1887
sg15
S'DepotType'
p1888
sg20
S'The type of a given depot'
p1889
stRp1890
ag3
(g4
g5
(dp1891
g1785
S'A short string value'
p1892
sg20
S'The first 31 characters of a Text string'
p1893
sg17
S'string'
p1894
sg15
S'DescShort'
p1895
sg100
S'Text'
p1896
stRp1897
ag3
(g4
g5
(dp1898
g1785
S'An MD5 digest'
p1899
sg17
S'string'
p1900
sg15
S'Digest'
p1901
sg20
S'A string containing an MD5 digest.'
p1902
stRp1903
ag3
(g4
g5
(dp1904
g1785
S'A domain name'
p1905
sg17
S'string'
p1906
sg15
S'Domain'
p1907
sg20
S'A string representing the name of a depot, label, client,\n\t\tbranch, typemap, or stream.'
p1908
stRp1909
ag3
(g4
g5
(dp1910
g1785
S'A string with optional wildcards'
p1911
sg17
S'string'
p1912
sg15
S'DomainWild'
p1913
sg20
S'A string that may contain wildcards - usually an IP address\n\t\tin the protections table.'
p1914
stRp1915
ag3
(g4
g5
(dp1916
g1787
g3
(g8
g9
(lp1917
g3
(g4
g5
(dp1918
S'mask'
p1919
S'Domain Flags'
p1920
sg1790
S'0x0001'
p1921
sg20
S'modtime'
p1922
stRp1923
ag3
(g4
g5
(dp1924
g1919
S'Domain Flags'
p1925
sg1790
S'0x0002'
p1926
sg20
S'clobber'
p1927
stRp1928
ag3
(g4
g5
(dp1929
g1919
S'Domain Flags'
p1930
sg1790
S'0x0004'
p1931
sg20
S'allwrite'
p1932
stRp1933
ag3
(g4
g5
(dp1934
g1919
S'Domain Flags'
p1935
sg1790
S'0x0008'
p1936
sg20
S'locked'
p1937
stRp1938
ag3
(g4
g5
(dp1939
g1919
S'Domain Flags'
p1940
sg1790
S'0x0020'
p1941
sg20
S'compress'
p1942
stRp1943
ag3
(g4
g5
(dp1944
g1919
S'Domain Flags'
p1945
sg1790
S'0x0040'
p1946
sg20
S'rmdir'
p1947
stRp1948
ag3
(g4
g5
(dp1949
g1919
S'Domain Flags'
p1950
sg1790
S'0x1000'
p1951
sg20
S'indirect (obsolete since 2004.2)'
p1952
stRp1953
ag3
(g4
g5
(dp1954
g1919
S'Domain LineEnd'
p1955
sg1790
S'0x0000'
p1956
sg20
S'local'
p1957
stRp1958
ag3
(g4
g5
(dp1959
g1919
S'Domain LineEnd'
p1960
sg1790
S'0x0010'
p1961
sg20
S'unix (LF)'
p1962
stRp1963
ag3
(g4
g5
(dp1964
g1919
S'Domain LineEnd'
p1965
sg1790
S'0x0200'
p1966
sg20
S'mac (CR)'
p1967
stRp1968
ag3
(g4
g5
(dp1969
g1919
S'Domain LineEnd'
p1970
sg1790
S'0x0300'
p1971
sg20
S'win (CRLF)'
p1972
stRp1973
ag3
(g4
g5
(dp1974
g1919
S'Domain LineEnd'
p1975
sg1790
S'0x0400'
p1976
sg20
S'share (LF/CRLF)'
p1977
stRp1978
ag3
(g4
g5
(dp1979
g1919
S'Domain SubmitMask'
p1980
sg1790
S'0x1000'
p1981
sg20
S'Revert unchanged files'
p1982
stRp1983
ag3
(g4
g5
(dp1984
g1919
S'Domain SubmitMask'
p1985
sg1790
S'0x2000'
p1986
sg20
S'Leave unchanged files'
p1987
stRp1988
ag3
(g4
g5
(dp1989
g1919
S'Domain SubmitMask'
p1990
sg1790
S'0x4000'
p1991
sg20
S'Submit, and re-open unchanged files'
p1992
stRp1993
ag3
(g4
g5
(dp1994
g1919
S'Domain StreamMask'
p1995
sg1790
S'0x0001'
p1996
sg20
S'ownersubmit'
p1997
stRp1998
ag3
(g4
g5
(dp1999
g1919
S'Domain StreamMask'
p2000
sg1790
S'0x0002'
p2001
sg20
S'locked'
p2002
stRp2003
ag3
(g4
g5
(dp2004
g1919
S'Domain StreamMask'
p2005
sg1790
S'0x0004'
p2006
sg20
S'change flows to parent'
p2007
stRp2008
ag3
(g4
g5
(dp2009
g1919
S'Domain StreamMask'
p2010
sg1790
S'0x0008'
p2011
sg20
S'change flows from parent'
p2012
stRp2013
atRp2014
sg15
S'DomainOpts'
p2015
sg1919
g3
(g8
g9
(lp2016
g3
(g4
g5
(dp2017
g15
S'Domain Flags'
p2018
sg1790
S'0x10EF'
p2019
sg20
S'Bits used to store client, label, and branch options'
p2020
stRp2021
ag3
(g4
g5
(dp2022
g15
S'Domain LineEnd'
p2023
sg1790
S'0x0710'
p2024
sg20
S'Bits used to store client line termination settings.'
p2025
stRp2026
ag3
(g4
g5
(dp2027
g15
S'Domain SubmitMask'
p2028
sg1790
S'0x7000'
p2029
sg20
S'Bits used to store client submit options'
p2030
stRp2031
ag3
(g4
g5
(dp2032
g15
S'Domain StreamMask'
p2033
sg1790
S'0x000F'
p2034
sg20
S'Bits used to store stream options'
p2035
stRp2036
atRp2037
sg1785
S'Options for domains'
p2038
sg17
S'bitmask'
p2039
sg20
S'A integer value representing the options for a domain'
p2040
stRp2041
ag3
(g4
g5
(dp2042
g17
S'flag'
p2043
sg1785
S'A domain type'
p2044
sg1787
g3
(g8
g9
(lp2045
g3
(g4
g5
(dp2046
g1790
S"98 (ASCII 'b')"
p2047
sg20
S'branch'
p2048
stRp2049
ag3
(g4
g5
(dp2050
g1790
S"99 (ASCII 'c')"
p2051
sg20
S'client'
p2052
stRp2053
ag3
(g4
g5
(dp2054
g1790
S"100 (ASCII 'd')"
p2055
sg20
S'depot'
p2056
stRp2057
ag3
(g4
g5
(dp2058
g1790
S"108 (ASCII 'l')"
p2059
sg20
S'label'
p2060
stRp2061
ag3
(g4
g5
(dp2062
g1790
S"115 (ASCII 's')"
p2063
sg20
S'stream'
p2064
stRp2065
ag3
(g4
g5
(dp2066
g1790
S"116 (ASCII 't')"
p2067
sg20
S'typemap'
p2068
stRp2069
atRp2070
sg15
S'DomainType'
p2071
sg20
S'A integer value representing the type of a domain'
p2072
stRp2073
ag3
(g4
g5
(dp2074
g1785
S'A file name'
p2075
sg20
S'A string representing the filename'
p2076
sg17
S'string'
p2077
sg15
S'File'
p2078
sg100
S'FileType'
p2079
stRp2080
ag3
(g4
g5
(dp2081
g1785
S'A file size'
p2082
sg17
S'integer'
p2083
sg15
S'FileSize'
p2084
sg20
S'A 64-bit integer used to store file sizes. The value -1 is\n\t\tused to represent unknown filesizes.'
p2085
stRp2086
ag3
(g4
g5
(dp2087
g1787
g3
(g8
g9
(lp2088
g3
(g4
g5
(dp2089
g1919
S'Storage Type'
p2090
sg1790
S'0x0000'
p2091
sg20
S'RCS'
p2092
stRp2093
ag3
(g4
g5
(dp2094
g1919
S'Storage Type'
p2095
sg1790
S'0x0001'
p2096
sg20
S'Binary'
p2097
stRp2098
ag3
(g4
g5
(dp2099
g1919
S'Storage Type'
p2100
sg1790
S'0x0002'
p2101
sg20
S'Tiny'
p2102
stRp2103
ag3
(g4
g5
(dp2104
g1919
S'Storage Type'
p2105
sg1790
S'0x0003'
p2106
sg20
S'Compressed'
p2107
stRp2108
ag3
(g4
g5
(dp2109
g1919
S'Storage Type'
p2110
sg1790
S'0x0004'
p2111
sg20
S'tempobj (deprecated since 2002.1)'
p2112
stRp2113
ag3
(g4
g5
(dp2114
g1919
S'Storage Type'
p2115
sg1790
S'0x0005'
p2116
sg20
S'Detect type. Used internally when no type is\n\t\t    given by the user.'
p2117
stRp2118
ag3
(g4
g5
(dp2119
g1919
S'Storage Type'
p2120
sg1790
S'0x0006'
p2121
sg20
S'Comressed tempobj (deprecated since 2002.1)'
p2122
stRp2123
ag3
(g4
g5
(dp2124
g1919
S'Storage Type'
p2125
sg1790
S'0x0007'
p2126
sg20
S'Binary access to compressed data. Used internally.'
p2127
stRp2128
ag3
(g4
g5
(dp2129
g1919
S'Storage Type'
p2130
sg1790
S'0x0008'
p2131
sg20
S'Stored externally via librarian trigger'
p2132
stRp2133
ag3
(g4
g5
(dp2134
g1919
S'Storage Mods'
p2135
sg1790
S'0x0010'
p2136
sg20
S'99.2-style keyword expansion/contraction'
p2137
stRp2138
ag3
(g4
g5
(dp2139
g1919
S'Storage Mods'
p2140
sg1790
S'0x0020'
p2141
sg20
S'2000.1-style keyword expansion/contraction'
p2142
stRp2143
ag3
(g4
g5
(dp2144
g1919
S'Storage Mods'
p2145
sg1790
S'0x0030'
p2146
sg20
S'Any type of keyword expansion'
p2147
stRp2148
ag3
(g4
g5
(dp2149
g1919
S'Storage Mods'
p2150
sg1790
S'0x0040'
p2151
sg20
S'Exclusive open'
p2152
stRp2153
ag3
(g4
g5
(dp2154
g1919
S'Storage Mods'
p2155
sg1790
S'0x0080'
p2156
sg20
S'New tempobj (+S modifier)'
p2157
stRp2158
ag3
(g4
g5
(dp2159
g1919
S'Tempobj revisions'
p2160
sg1790
S'0x0000'
p2161
sg20
S'+S1'
p2162
stRp2163
ag3
(g4
g5
(dp2164
g1919
S'Tempobj revisions'
p2165
sg1790
S'0x0100'
p2166
sg20
S'+S2'
p2167
stRp2168
ag3
(g4
g5
(dp2169
g1919
S'Tempobj revisions'
p2170
sg1790
S'0x0200'
p2171
sg20
S'+S3'
p2172
stRp2173
ag3
(g4
g5
(dp2174
g1919
S'Tempobj revisions'
p2175
sg1790
S'0x0300'
p2176
sg20
S'+S4'
p2177
stRp2178
ag3
(g4
g5
(dp2179
g1919
S'Tempobj revisions'
p2180
sg1790
S'0x0400'
p2181
sg20
S'+S5'
p2182
stRp2183
ag3
(g4
g5
(dp2184
g1919
S'Tempobj revisions'
p2185
sg1790
S'0x0500'
p2186
sg20
S'+S6'
p2187
stRp2188
ag3
(g4
g5
(dp2189
g1919
S'Tempobj revisions'
p2190
sg1790
S'0x0600'
p2191
sg20
S'+S7'
p2192
stRp2193
ag3
(g4
g5
(dp2194
g1919
S'Tempobj revisions'
p2195
sg1790
S'0x0700'
p2196
sg20
S'+S8'
p2197
stRp2198
ag3
(g4
g5
(dp2199
g1919
S'Tempobj revisions'
p2200
sg1790
S'0x0800'
p2201
sg20
S'+S9'
p2202
stRp2203
ag3
(g4
g5
(dp2204
g1919
S'Tempobj revisions'
p2205
sg1790
S'0x0900'
p2206
sg20
S'+S10'
p2207
stRp2208
ag3
(g4
g5
(dp2209
g1919
S'Tempobj revisions'
p2210
sg1790
S'0x0A00'
p2211
sg20
S'+S16'
p2212
stRp2213
ag3
(g4
g5
(dp2214
g1919
S'Tempobj revisions'
p2215
sg1790
S'0x0B00'
p2216
sg20
S'+S32'
p2217
stRp2218
ag3
(g4
g5
(dp2219
g1919
S'Tempobj revisions'
p2220
sg1790
S'0x0C00'
p2221
sg20
S'+S64'
p2222
stRp2223
ag3
(g4
g5
(dp2224
g1919
S'Tempobj revisions'
p2225
sg1790
S'0x0D00'
p2226
sg20
S'+S128'
p2227
stRp2228
ag3
(g4
g5
(dp2229
g1919
S'Tempobj revisions'
p2230
sg1790
S'0x0E00'
p2231
sg20
S'+S256'
p2232
stRp2233
ag3
(g4
g5
(dp2234
g1919
S'Tempobj revisions'
p2235
sg1790
S'0x0F00'
p2236
sg20
S'+S512'
p2237
stRp2238
ag3
(g4
g5
(dp2239
g1919
S'Client Type'
p2240
sg1790
S'0x0000000'
p2241
sg20
S'text'
p2242
stRp2243
ag3
(g4
g5
(dp2244
g1919
S'Client Type'
p2245
sg1790
S'0x0010000'
p2246
sg20
S'binary'
p2247
stRp2248
ag3
(g4
g5
(dp2249
g1919
S'Client Type'
p2250
sg1790
S'0x0020000'
p2251
sg20
S'executable bit set'
p2252
stRp2253
ag3
(g4
g5
(dp2254
g1919
S'Client Type'
p2255
sg1790
S'0x0040000'
p2256
sg20
S'symlink'
p2257
stRp2258
ag3
(g4
g5
(dp2259
g1919
S'Client Type'
p2260
sg1790
S'0x0050000'
p2261
sg20
S'resource fork'
p2262
stRp2263
ag3
(g4
g5
(dp2264
g1919
S'Client Type'
p2265
sg1790
S'0x0080000'
p2266
sg20
S'unicode'
p2267
stRp2268
ag3
(g4
g5
(dp2269
g1919
S'Client Type'
p2270
sg1790
S'0x0090000'
p2271
sg20
S'raw text (nocrlf - 99.1)'
p2272
stRp2273
ag3
(g4
g5
(dp2274
g1919
S'Client Type'
p2275
sg1790
S'0x00C0000'
p2276
sg20
S'apple data + resource file (since 2000.2)'
p2277
stRp2278
ag3
(g4
g5
(dp2279
g1919
S'Client Type'
p2280
sg1790
S'0x00D0000'
p2281
sg20
S'apple data + resource file (99.2)'
p2282
stRp2283
ag3
(g4
g5
(dp2284
g1919
S'Client Type'
p2285
sg1790
S'0x1000000'
p2286
sg20
S'Used to support filetype detection'
p2287
stRp2288
ag3
(g4
g5
(dp2289
g1919
S'Client Mods'
p2290
sg1790
S'0x0100000'
p2291
sg20
S'writable'
p2292
stRp2293
ag3
(g4
g5
(dp2294
g1919
S'Client Mods'
p2295
sg1790
S'0x0200000'
p2296
sg20
S'modtime'
p2297
stRp2298
ag3
(g4
g5
(dp2299
g1919
S'Client Mods'
p2300
sg1790
S'0x0400000'
p2301
sg20
S'uncompress on client'
p2302
stRp2303
atRp2304
sg15
S'FileType'
p2305
sg1919
g3
(g8
g9
(lp2306
g3
(g4
g5
(dp2307
g15
S'Storage Type'
p2308
sg1790
S'0x000F'
p2309
sg20
S"Bits used to store the server's storage type"
p2310
stRp2311
ag3
(g4
g5
(dp2312
g15
S'Storage Mods'
p2313
sg1790
S'0x00F0'
p2314
sg20
S"Bits used to store the modifiers to the server's storage \n\t\t    type"
p2315
stRp2316
ag3
(g4
g5
(dp2317
g15
S'Tempobj revisions'
p2318
sg1790
S'0x0F00'
p2319
sg20
S'Bits used to store the number of revisions to be stored\n\t\t    for +Sn files.'
p2320
stRp2321
ag3
(g4
g5
(dp2322
g15
S'Client Type'
p2323
sg1790
S'0x10D0000'
p2324
sg20
S"Bits used to store the file type from the client's point\n\t\t    of view."
p2325
stRp2326
ag3
(g4
g5
(dp2327
g15
S'Client Mods'
p2328
sg1790
S'0x720000'
p2329
sg20
S'Bits used to store the modifiers applied to the file\n\t\t    on the client.'
p2330
stRp2331
atRp2332
sg1785
S'Type of file'
p2333
sg17
S'bitmask'
p2334
sg20
S'The FileType is a bitmask specifying the type and modifiers\n\t\tof a revision from both the client and server points of view.\n\t\tThe first 16 bits are used to store the storage type and \n\t\tmodifiers, the next 16 bits are used to store the client \n\t\taccess method and modifiers.'
p2335
stRp2336
ag3
(g4
g5
(dp2337
g1785
S'Status of a fixed job'
p2338
sg17
S'string'
p2339
sg15
S'FixStatus'
p2340
sg20
S'This type is a wrapper around the \'Text\' type that handles\n\t\tthe pre-2000.1 "closed" default value.'
p2341
stRp2342
ag3
(g4
g5
(dp2343
g1785
S'A 32-bit integer'
p2344
sg17
S'integer'
p2345
sg15
S'Int'
p2346
sg20
S'A 32-bit integer'
p2347
stRp2348
ag3
(g4
g5
(dp2349
g1785
S'An 8-bit integer'
p2350
sg17
S'integer'
p2351
sg15
S'Int8'
p2352
sg20
S'An 8-bit integer: an unsigned char'
p2353
stRp2354
ag3
(g4
g5
(dp2355
g1785
S'A 64-bit integer'
p2356
sg17
S'integer'
p2357
sg15
S'Int64'
p2358
sg20
S'A 64-bit integer.'
p2359
stRp2360
ag3
(g4
g5
(dp2361
g95
S'All integration records should have a corresponding \n\t\treverse record. The \'branch from\' (2) and \'merge from\' (0) \n\t\trecords have corresponding "dirty" reverse records for cases \n\t\twhere the target file took more than one change or was \n\t\t(re)opened for \'edit\' or \'add\'.'
p2362
sg1787
g3
(g8
g9
(lp2363
g3
(g4
g5
(dp2364
g1790
S'0'
sg20
S'merge from: integration with other changes'
p2365
stRp2366
ag3
(g4
g5
(dp2367
g1790
S'1'
sg20
S'merge into: reverse merge'
p2368
stRp2369
ag3
(g4
g5
(dp2370
g1790
S'2'
sg20
S'branch from: integration was branch of file'
p2371
stRp2372
ag3
(g4
g5
(dp2373
g1790
S'3'
sg20
S'branch into: reverse branch'
p2374
stRp2375
ag3
(g4
g5
(dp2376
g1790
S'4'
sg20
S'copy from: integration took source file whole'
p2377
stRp2378
ag3
(g4
g5
(dp2379
g1790
S'5'
sg20
S'copy into: reverse take'
p2380
stRp2381
ag3
(g4
g5
(dp2382
g1790
S'6'
sg20
S'ignored: integration ignored source changes'
p2383
stRp2384
ag3
(g4
g5
(dp2385
g1790
S'7'
sg20
S'ignored by: reverse copy'
p2386
stRp2387
ag3
(g4
g5
(dp2388
g1790
S'8'
sg20
S'delete from: integration of delete'
p2389
stRp2390
ag3
(g4
g5
(dp2391
g1790
S'9'
sg20
S'delete into: reverse delete'
p2392
stRp2393
ag3
(g4
g5
(dp2394
g1790
S'10'
p2395
sg20
S'edit into: reverse of integration downgraded to \n\t\t    edit'
p2396
stRp2397
ag3
(g4
g5
(dp2398
g1790
S'11'
p2399
sg20
S'add into: reverse of branch downgraded to add'
p2400
stRp2401
ag3
(g4
g5
(dp2402
g1790
S'12'
p2403
sg20
S'edit from: merge that the user edited'
p2404
stRp2405
ag3
(g4
g5
(dp2406
g1790
S'13'
p2407
sg20
S'add from: branch downgraded to add'
p2408
stRp2409
ag3
(g4
g5
(dp2410
g1790
S'14'
p2411
sg20
S'moved from: reverse of renamed file'
p2412
stRp2413
ag3
(g4
g5
(dp2414
g1790
S'15'
p2415
sg20
S'moved into: file was renamed'
p2416
stRp2417
ag3
(g4
g5
(dp2418
g1790
S'16'
p2419
sg20
S"'delete' target rev ignoring non-deleted source"
p2420
stRp2421
ag3
(g4
g5
(dp2422
g1790
S'17'
p2423
sg20
S"non-deleted source ignored by 'delete' target rev"
p2424
stRp2425
ag3
(g4
g5
(dp2426
g1790
S'18'
p2427
sg20
S"'integrate' target rev ignoring deleted source"
p2428
stRp2429
ag3
(g4
g5
(dp2430
g1790
S'19'
p2431
sg20
S"deleted source ignored by 'integrate' target rev"
p2432
stRp2433
atRp2434
sg15
S'IntegHow'
p2435
sg1785
S'Integration methods'
p2436
sg17
S'flag'
p2437
sg20
S"Specifies how an integration was performed. Integrations\n\t\talways come in pairs: the 'forward' and 'reverse' records.\n\t\tAs a general rule, the forward records contain the word \n\t\t'from'; and the reverse records contain the word 'into'."
p2438
stRp2439
ag3
(g4
g5
(dp2440
g17
S'flag'
p2441
sg1785
S'Job status - defunct'
p2442
sg1787
g3
(g8
g9
(lp2443
g3
(g4
g5
(dp2444
g1790
S'0'
sg20
S'open'
p2445
stRp2446
ag3
(g4
g5
(dp2447
g1790
S'1'
sg20
S'closed'
p2448
stRp2449
ag3
(g4
g5
(dp2450
g1790
S'2'
sg20
S'suspended'
p2451
stRp2452
atRp2453
sg15
S'JobStat'
p2454
sg20
S'Old (pre-98.2) job status values.'
p2455
stRp2456
ag3
(g4
g5
(dp2457
g17
S'flag'
p2458
sg1785
S'Types of mapping'
p2459
sg1787
g3
(g8
g9
(lp2460
g3
(g4
g5
(dp2461
g1790
S'0'
sg20
S'mapped-in (the default)'
p2462
stRp2463
ag3
(g4
g5
(dp2464
g1790
S'1'
sg20
S"mapped-out (mappings that start with '-')"
p2465
stRp2466
ag3
(g4
g5
(dp2467
g1790
S'2'
sg20
S"overlay (mappings that start with '+')"
p2468
stRp2469
ag3
(g4
g5
(dp2470
g1790
S'3'
sg20
S"haveMap (mappings that start with '$'). Used internally\n\t\t    only"
p2471
stRp2472
atRp2473
sg15
S'MapFlag'
p2474
sg20
S'Specifies how the files specified by a mapping should be\n\t\ttreated'
p2475
stRp2476
ag3
(g4
g5
(dp2477
g1785
S'A string representing a mapping'
p2478
sg17
S'string'
p2479
sg15
S'Mapping'
p2480
sg20
S'A Mapping is essentially a file name that may contain\n\t\twildcards'
p2481
stRp2482
ag3
(g4
g5
(dp2483
g1785
S'Maximum number of milliseconds to hold locks'
p2484
sg17
S'integer'
p2485
sg15
S'MaxLockTime'
p2486
sg20
S"The number of milliseconds for which a command may hold locks.\n\t\tCommands that take longer than this time period will abort. \n\t\tThe value 0 means 'unlimited'."
p2487
stRp2488
ag3
(g4
g5
(dp2489
g1785
S'Maximum number of results permitted'
p2490
sg17
S'integer'
p2491
sg15
S'MaxResults'
p2492
sg20
S"The number of results that commands run by the restricted\n\t\tuser are permitted to return. The value 0 means 'unlimited'."
p2493
stRp2494
ag3
(g4
g5
(dp2495
g1785
S'Maximum number of records scanned'
p2496
sg17
S'integer'
p2497
sg15
S'MaxScanRows'
p2498
sg20
S"The maximum number of records that the server may read\n\t\ton behalf of the restricted user. The value 0 means \n\t\t'unlimited'."
p2499
stRp2500
ag3
(g4
g5
(dp2501
g1785
S'Encoded hex string'
p2502
sg17
S'string'
p2503
sg15
S'Octet String'
p2504
sg20
S'A variable length encoded hex string. The first octet \n\t\tstores the length of the string.'
p2505
stRp2506
ag3
(g4
g5
(dp2507
g1785
S'The MD5 hash of a password'
p2508
sg17
S'string'
p2509
sg15
S'Password'
p2510
sg20
S'The MD5 hash of an encrypted password.'
p2511
stRp2512
ag3
(g4
g5
(dp2513
g1787
g3
(g8
g9
(lp2514
g3
(g4
g5
(dp2515
g1919
S'PermTypeBits'
p2516
sg15
S'List'
p2517
sg1790
S'0x0001'
p2518
sg20
S'Grants list access'
p2519
stRp2520
ag3
(g4
g5
(dp2521
g1919
S'PermTypeBits'
p2522
sg15
S'Read'
p2523
sg1790
S'0x0002'
p2524
sg20
S'Grants read access'
p2525
stRp2526
ag3
(g4
g5
(dp2527
g1919
S'PermTypeBits'
p2528
sg15
S'Branch'
p2529
sg1790
S'0x0004'
p2530
sg20
S'Grants ability to branch/integ from'
p2531
stRp2532
ag3
(g4
g5
(dp2533
g1919
S'PermTypeBits'
p2534
sg15
S'Open'
p2535
sg1790
S'0x0008'
p2536
sg20
S'Grants open access'
p2537
stRp2538
ag3
(g4
g5
(dp2539
g1919
S'PermTypeBits'
p2540
sg15
S'Write'
p2541
sg1790
S'0x0010'
p2542
sg20
S'Grants write access'
p2543
stRp2544
ag3
(g4
g5
(dp2545
g1919
S'PermTypeBits'
p2546
sg15
S'Review'
p2547
sg1790
S'0x0020'
p2548
sg20
S'Grants review access'
p2549
stRp2550
ag3
(g4
g5
(dp2551
g1919
S'PermTypeBits'
p2552
sg15
S'Admin'
p2553
sg1790
S'0x0080'
p2554
sg20
S'Grants admin access'
p2555
stRp2556
ag3
(g4
g5
(dp2557
g1919
S'PermTypeBits'
p2558
sg15
S'Super'
p2559
sg1790
S'0x0040'
p2560
sg20
S'Grants super-user access'
p2561
stRp2562
atRp2563
sg15
S'Perm'
p2564
sg1919
g3
(g4
g5
(dp2565
g15
S'PermTypeBits'
p2566
sg1790
S'0x00FF'
p2567
sg20
S'Bits used to store granted permissions'
p2568
stRp2569
sg1785
S'Bitmask of permissions'
p2570
sg17
S'bitmask'
p2571
sg20
S'A bitmask of granted permissions'
p2572
stRp2573
ag3
(g4
g5
(dp2574
g17
S'flag'
p2575
sg1785
S'Resolve actions'
p2576
sg1787
g3
(g8
g9
(lp2577
g3
(g4
g5
(dp2578
g1790
S'0'
sg20
S'Content resolve'
p2579
stRp2580
ag3
(g4
g5
(dp2581
g1790
S'1'
sg20
S'Filetype resolve'
p2582
stRp2583
ag3
(g4
g5
(dp2584
g1790
S'2'
sg20
S'Branch resolve'
p2585
stRp2586
ag3
(g4
g5
(dp2587
g1790
S'3'
sg20
S'Delete resolve'
p2588
stRp2589
ag3
(g4
g5
(dp2590
g1790
S'4'
sg20
S'Move resolve'
p2591
stRp2592
atRp2593
sg15
S'ResolveState'
p2594
sg20
S'Pending or completed resolve actions.'
p2595
stRp2596
ag3
(g4
g5
(dp2597
g17
S'flag'
p2598
sg1785
S'Resolve methods (obsolete in 2011.1, replaced by ResolveState)'
p2599
sg1787
g3
(g8
g9
(lp2600
g3
(g4
g5
(dp2601
g1790
S'0'
sg20
S'Not yet resolved'
p2602
stRp2603
ag3
(g4
g5
(dp2604
g1790
S'1'
sg20
S'Resolved manually'
p2605
stRp2606
ag3
(g4
g5
(dp2607
g1790
S'2'
sg20
S'Resolved automatically as part of a branch'
p2608
stRp2609
ag3
(g4
g5
(dp2610
g1790
S'3'
sg20
S'Resolved automatically as part of a delete'
p2611
stRp2612
ag3
(g4
g5
(dp2613
g1790
S'4'
sg20
S'Resolved automatically as part of a move'
p2614
stRp2615
atRp2616
sg15
S'ResolvedStatus'
p2617
sg20
S'Specifies how the user resolved merge operations.'
p2618
stRp2619
ag3
(g4
g5
(dp2620
g1785
S'A revision number'
p2621
sg17
S'integer'
p2622
sg15
S'Rev'
p2623
sg20
S"The positive integer number of a specific revision of a file. \n\t\tThe number 0 represents '#none'."
p2624
stRp2625
ag3
(g4
g5
(dp2626
g1785
S'Type of reviewer'
p2627
sg17
S'integer'
p2628
sg15
S'Reviewer'
p2629
sg20
S'The type of reviewer. Currently there is only one type of\n\t\treviewer and 0 is the only valid value.'
p2630
stRp2631
ag3
(g4
g5
(dp2632
g1787
g3
(g8
g9
(lp2633
g3
(g4
g5
(dp2634
g1919
S'Stream Status'
p2635
sg1790
S'0x0000'
p2636
sg20
S'Clear cache'
p2637
stRp2638
ag3
(g4
g5
(dp2639
g1919
S'Stream Status'
p2640
sg1790
S'0x0001'
p2641
sg20
S'Needs copy'
p2642
stRp2643
ag3
(g4
g5
(dp2644
g1919
S'Stream Status'
p2645
sg1790
S'0x0002'
p2646
sg20
S'Copy up-to-date'
p2647
stRp2648
ag3
(g4
g5
(dp2649
g1919
S'Stream Status'
p2650
sg1790
S'0x0004'
p2651
sg20
S'Needs merge'
p2652
stRp2653
ag3
(g4
g5
(dp2654
g1919
S'Stream Status'
p2655
sg1790
S'0x0008'
p2656
sg20
S'Merge up-to-date'
p2657
stRp2658
atRp2659
sg15
S'StreamStatus'
p2660
sg1919
g3
(g4
g5
(dp2661
g15
S'Stream Status'
p2662
sg1790
S'Copy: 0x0003, Merge: 0x000C'
p2663
sg20
S'Bits used to store the stream integration status'
p2664
stRp2665
sg1785
S'Stream integration status'
p2666
sg17
S'bitmask'
p2667
sg20
S'The stream integration status.'
p2668
stRp2669
ag3
(g4
g5
(dp2670
g17
S'flag'
p2671
sg1785
S'Type of stream path'
p2672
sg1787
g3
(g8
g9
(lp2673
g3
(g4
g5
(dp2674
g1790
S'0'
sg20
S'share'
p2675
stRp2676
ag3
(g4
g5
(dp2677
g1790
S'1'
sg20
S'isolate'
p2678
stRp2679
ag3
(g4
g5
(dp2680
g1790
S'2'
sg20
S'import'
p2681
stRp2682
ag3
(g4
g5
(dp2683
g1790
S'3'
sg20
S'exclude'
p2684
stRp2685
ag3
(g4
g5
(dp2686
g1790
S'4'
sg20
S'remapped'
p2687
stRp2688
ag3
(g4
g5
(dp2689
g1790
S'5'
sg20
S'ignored'
p2690
stRp2691
atRp2692
sg15
S'StreamPathType'
p2693
sg20
S'The path type for file paths in a stream view.'
p2694
stRp2695
ag3
(g4
g5
(dp2696
g17
S'flag'
p2697
sg1785
S'Type of stream'
p2698
sg1787
g3
(g8
g9
(lp2699
g3
(g4
g5
(dp2700
g1790
S'0'
sg20
S'mainline'
p2701
stRp2702
ag3
(g4
g5
(dp2703
g1790
S'1'
sg20
S'release'
p2704
stRp2705
ag3
(g4
g5
(dp2706
g1790
S'2'
sg20
S'development'
p2707
stRp2708
atRp2709
sg15
S'StreamType'
p2710
sg20
S'The type of stream.'
p2711
stRp2712
ag3
(g4
g5
(dp2713
g17
S'flag'
p2714
sg1785
S'Strength check of a password'
p2715
sg1787
g3
(g8
g9
(lp2716
g3
(g4
g5
(dp2717
g1790
S'0'
sg20
S'Strength unknown'
p2718
stRp2719
ag3
(g4
g5
(dp2720
g1790
S'1'
sg20
S'Password is strong'
p2721
stRp2722
ag3
(g4
g5
(dp2723
g1790
S'2'
sg20
S'Password is not strong'
p2724
stRp2725
atRp2726
sg15
S'Strength'
p2727
sg20
S"Whether or not a user's password has been tested for strength."
p2728
stRp2729
ag3
(g4
g5
(dp2730
S'restriction'
p2731
g3
(g8
g9
(lp2732
S'Cannot be empty'
p2733
aS'Cannot consist solely of a dash (-)'
p2734
aS'Cannot be all-numeric'
p2735
aS'Cannot contain non-printable characters'
p2736
aS'Spaces are replaced with underscores ( _ )'
p2737
aS'Revision characters (# and @) are prohibited'
p2738
aS'Slashes (/) are prohibited'
p2739
aS'Wildcards (... and *) are prohibited'
p2740
atRp2741
sg1785
S'A string up to 1024 characters long'
p2742
sg17
S'string'
p2743
sg15
S'String'
p2744
sg20
S'A string up to 1024 characters in length.  Depending on the \n\t\tcontext in which the string is used, restrictions \n\t\tmay apply. Strings are often used as key fields in the \n\t\tschema.'
p2745
stRp2746
ag3
(g4
g5
(dp2747
g17
S'flag'
p2748
sg1785
S'Tamper-state of workspace file'
p2749
sg1787
g3
(g8
g9
(lp2750
g3
(g4
g5
(dp2751
g1790
S'0'
sg20
S'Do not check for tampering'
p2752
stRp2753
ag3
(g4
g5
(dp2754
g1790
S'1'
sg20
S'Check for tampering'
p2755
stRp2756
ag3
(g4
g5
(dp2757
g1790
S'2'
sg20
S'Tamper-check failed'
p2758
stRp2759
atRp2760
sg15
S'TamperCheck'
p2761
sg20
S'Indicates the tamper-state of a file in a workspace. This\n\t\tis used to decide whether or not to check the file, and\n\t\tif checked, to hold the result.'
p2762
stRp2763
ag3
(g4
g5
(dp2764
g1785
S'A string value'
p2765
sg17
S'string'
p2766
sg15
S'Text'
p2767
sg20
S'A text string value - used to hold longer blocks of text.'
p2768
stRp2769
ag3
(g4
g5
(dp2770
g1785
S'The id of a group of traits'
p2771
sg17
S'integer'
p2772
sg15
S'TraitLot'
p2773
sg20
S'An integer identifying a group of traits which may be\n\t\tshared by several revisions.'
p2774
stRp2775
ag3
(g4
g5
(dp2776
g17
S'flag'
p2777
sg1785
S'A type of trait'
p2778
sg1787
g3
(g8
g9
(lp2779
g3
(g4
g5
(dp2780
g1790
S'0'
sg20
S'special trait for reference counting'
p2781
stRp2782
ag3
(g4
g5
(dp2783
g1790
S'1'
sg20
S'Binary trait'
p2784
stRp2785
ag3
(g4
g5
(dp2786
g1790
S'2'
sg20
S'Binary trait that gets propagated'
p2787
stRp2788
atRp2789
sg15
S'TraitType'
p2790
sg20
S'The type of trait.'
p2791
stRp2792
ag3
(g4
g5
(dp2793
g17
S'flag'
p2794
sg1785
S'A type of trigger'
p2795
sg1787
g3
(g8
g9
(lp2796
g3
(g4
g5
(dp2797
g1790
S'0'
sg20
S'change-submit (formerly pre-submit triggers)'
p2798
stRp2799
ag3
(g4
g5
(dp2800
g1790
S'1'
sg20
S'change-content'
p2801
stRp2802
ag3
(g4
g5
(dp2803
g1790
S'2'
sg20
S'change-commit'
p2804
stRp2805
ag3
(g4
g5
(dp2806
g1790
S'3'
sg20
S'form-in'
p2807
stRp2808
ag3
(g4
g5
(dp2809
g1790
S'4'
sg20
S'form-out'
p2810
stRp2811
ag3
(g4
g5
(dp2812
g1790
S'5'
sg20
S'form-save'
p2813
stRp2814
ag3
(g4
g5
(dp2815
g1790
S'6'
sg20
S'form-delete'
p2816
stRp2817
ag3
(g4
g5
(dp2818
g1790
S'7'
sg20
S'form-commit'
p2819
stRp2820
ag3
(g4
g5
(dp2821
g1790
S'8'
sg20
S'auth-check'
p2822
stRp2823
ag3
(g4
g5
(dp2824
g1790
S'9'
sg20
S'auth-check-sso'
p2825
stRp2826
ag3
(g4
g5
(dp2827
g1790
S'10'
p2828
sg20
S'auth-set'
p2829
stRp2830
ag3
(g4
g5
(dp2831
g1790
S'11'
p2832
sg20
S'fix-add'
p2833
stRp2834
ag3
(g4
g5
(dp2835
g1790
S'12'
p2836
sg20
S'fix-delete'
p2837
stRp2838
ag3
(g4
g5
(dp2839
g1790
S'13'
p2840
sg20
S'archive'
p2841
stRp2842
ag3
(g4
g5
(dp2843
g1790
S'14'
p2844
sg20
S'shelve-submit'
p2845
stRp2846
ag3
(g4
g5
(dp2847
g1790
S'15'
p2848
sg20
S'shelve-commit'
p2849
stRp2850
ag3
(g4
g5
(dp2851
g1790
S'16'
p2852
sg20
S'shelve-delete'
p2853
stRp2854
ag3
(g4
g5
(dp2855
g1790
S'17'
p2856
sg20
S'service-check'
p2857
stRp2858
atRp2859
sg15
S'Trigger'
p2860
sg20
S'The type of a trigger.'
p2861
stRp2862
ag3
(g4
g5
(dp2863
g1785
S'A user or group name'
p2864
sg20
S'The name of a Perforce user or group.'
p2865
sg17
S'string'
p2866
sg15
S'User'
p2867
sg100
S'String'
p2868
stRp2869
ag3
(g4
g5
(dp2870
g17
S'flag'
p2871
sg1785
S'User functionality level'
p2872
sg1787
g3
(g8
g9
(lp2873
g3
(g4
g5
(dp2874
g1790
S'0'
sg20
S'standard'
p2875
stRp2876
ag3
(g4
g5
(dp2877
g1790
S'1'
sg20
S'service'
p2878
stRp2879
ag3
(g4
g5
(dp2880
g1790
S'2'
sg20
S'operator'
p2881
stRp2882
atRp2883
sg15
S'UserLevel'
p2884
sg20
S'User functionality level'
p2885
stRp2886
ag3
(g4
g5
(dp2887
g1787
g3
(g8
g9
(lp2888
g3
(g4
g5
(dp2889
g1919
S'UserTypeBits'
p2890
sg15
S'User'
p2891
sg1790
S'0x0001'
p2892
sg20
S'User is an ordinary user'
p2893
stRp2894
ag3
(g4
g5
(dp2895
g1919
S'UserTypeBits'
p2896
sg15
S'SubGroup'
p2897
sg1790
S'0x0002'
p2898
sg20
S'Group is a sub-group'
p2899
stRp2900
ag3
(g4
g5
(dp2901
g1919
S'UserTypeBits'
p2902
sg15
S'Owner'
p2903
sg1790
S'0x0004'
p2904
sg20
S'User is the owner of a group'
p2905
stRp2906
atRp2907
sg15
S'UserType'
p2908
sg1919
g3
(g4
g5
(dp2909
g15
S'UserTypeBits'
p2910
sg1790
S'0x0007'
p2911
sg20
S'Bits used to store the role of a user in a group'
p2912
stRp2913
sg1785
S'The role of a user within a group'
p2914
sg17
S'bitmask'
p2915
sg20
S'The role of a user (or group) within a group.'
p2916
stRp2917
ag3
(g4
g5
(dp2918
g1785
S'A user or group name with wildcards'
p2919
sg20
S'A user/group name that may contain wildcards (*)'
p2920
sg17
S'string'
p2921
sg15
S'UserWild'
p2922
sg100
S'User'
p2923
stRp2924
ag3
(g4
g5
(dp2925
g1785
S'A number or a string'
p2926
sg17
S'string'
p2927
sg15
S'Value'
p2928
sg20
S'A number, stored in a string, or a string'
p2929
stRp2930
atRp2931
stRp2932
s.