(dp1
S'tables'
p2
ccopy_reg
_reconstructor
p3
(clib.sqUtils
Storage
p4
c__builtin__
dict
p5
(dp6
S'table'
p7
g3
(clib.sqUtils
Lst
p8
c__builtin__
list
p9
(lp10
g3
(g4
g5
(dp11
S'version'
p12
S'0'
sS'keying'
p13
S'name'
p14
sS'name'
p15
S'db.counters'
p16
sS'type'
p17
S'Counters'
p18
sS'lockseq'
p19
S'1'
sS'desc'
p20
S'Perforce counters table'
p21
stRp22
ag3
(g4
g5
(dp23
g12
S'1'
sg13
S'seq'
p24
sg15
S'db.logger'
p25
sg17
S'Logger'
p26
sg19
S'2'
sg20
S"Support for 'p4 logger' command. Logs any changes to \n\t\tchangelists and jobs"
p27
stRp28
ag3
(g4
g5
(dp29
g12
S'3'
sg13
S'user'
p30
sg15
S'db.user'
p31
sg17
S'User'
p32
sg19
S'3'
sg20
S'Lists users known to Perforce'
p33
stRp34
ag3
(g4
g5
(dp35
g12
S'5'
sg13
S'user, group'
p36
sg15
S'db.group'
p37
sg17
S'Group'
p38
sg19
S'4'
sg20
S'Lists groups known to Perforce'
p39
stRp40
ag3
(g4
g5
(dp41
g12
S'1'
sg13
S'name'
p42
sg15
S'db.depot'
p43
sg17
S'Depot'
p44
sg19
S'5'
sg20
S'Lists depots known to Perforce'
p45
stRp46
ag3
(g4
g5
(dp47
g12
S'4'
sg13
S'name'
p48
sg15
S'db.domain'
p49
sg17
S'Domain'
p50
sg19
S'6'
sg20
S'Domains: depots, clients, labels, branches and typemap'
p51
stRp52
ag3
(g4
g5
(dp53
g12
S'1'
sg13
S'name, seq'
p54
sg15
S'db.view'
p55
sg17
S'View'
p56
sg19
S'7'
sg20
S'Contains views for domains'
p57
stRp58
ag3
(g4
g5
(dp59
g12
S'1'
sg13
S'user, seq'
p60
sg15
S'db.review'
p61
sg17
S'Review'
p62
sg19
S'8'
sg20
S"Contains user's review mappings"
p63
stRp64
ag3
(g4
g5
(dp65
g12
S'2'
sg13
S'clientFile'
p66
sg15
S'db.have'
p67
sg17
S'Have'
p68
sg19
S'9'
sg20
S"Contains the 'have-list' for all clients"
p69
stRp70
ag3
(g4
g5
(dp71
g12
S'0'
sg13
S'name, depotFile'
p72
sg15
S'db.label'
p73
sg17
S'Label'
p74
sg19
S'10'
p75
sg20
S'Lists the revisions of files in labels.'
p76
stRp77
ag3
(g4
g5
(dp78
g12
S'0'
sg13
S'toFile, fromFile, startFromRev'
p79
sg15
S'db.integ'
p80
sg20
S'Integration records: obsolete since 2001.1'
p81
sg17
S'Integ'
p82
sg19
S'11'
p83
sS'seeAlso'
p84
g3
(g8
g9
(lp85
S'db.integed'
p86
aS'db.resolve'
p87
atRp88
stRp89
ag3
(g4
g5
(dp90
g12
S'0'
sg13
S'toFile, fromFile, startFromRev, endFromRev, \n\t\tstartToRev, endToRev'
p91
sg15
S'db.integed'
p92
sg20
S'Permanent integration records'
p93
sg17
S'Integed'
p94
sg19
S'12'
p95
sg84
S'db.resolve'
p96
stRp97
ag3
(g4
g5
(dp98
g12
S'0'
sg13
S'toFile, fromFile, startFromRev'
p99
sg15
S'db.resolve'
p100
sg20
S'Pending integration records'
p101
sg17
S'Resolve'
p102
sg19
S'13'
p103
sg84
S'db.integed'
p104
stRp105
ag3
(g4
g5
(dp106
g12
S'2'
sg13
S'depotFile, client'
p107
sg15
S'db.locks'
p108
sg17
S'Locks'
p109
sg19
S'14'
p110
sg20
S'Locked/Unlocked files'
p111
stRp112
ag3
(g4
g5
(dp113
g12
S'1'
sg13
S'lbrFile, lbrRev, depotFile, depotRev'
p114
sg15
S'db.archive'
p115
sg17
S'Archive'
p116
sg19
S'15'
p117
sg20
S'Archive information for each revision that is \n\t\tlazy-copied. Obsoleted in 2006.2.'
p118
stRp119
ag3
(g4
g5
(dp120
g12
S'0'
sg13
S'lbrFile, depotFile'
p121
sg15
S'db.archmap'
p122
sg17
S'ArchMap'
p123
sg19
S'16'
p124
sg20
S'Mappings entries for lazy-copies.'
p125
stRp126
ag3
(g4
g5
(dp127
g12
S'7'
sg13
S'depotFile, depotRev'
p128
sg15
S'db.rev'
p129
sg17
S'Rev'
p130
sg19
S'17'
p131
sg20
S'Revision records'
p132
stRp133
ag3
(g4
g5
(dp134
g12
S'5'
sg13
S'change, depotFile'
p135
sg15
S'db.revcx'
p136
sg17
S'RevCx'
p137
sg19
S'18'
p138
sg20
S'Secondary index of db.rev'
p139
stRp140
ag3
(g4
g5
(dp141
g12
S'7'
sg13
S'depotFile'
p142
sg15
S'db.revdx'
p143
sg17
S'Rev'
p144
sg19
S'19'
p145
sg20
S'Revision records for revisions deleted at the head revision.'
p146
stRp147
ag3
(g4
g5
(dp148
g12
S'7'
sg13
S'depotFile'
p149
sg15
S'db.revhx'
p150
sg17
S'Rev'
p151
sg19
S'20'
p152
sg20
S'Revision records for revisions NOT deleted at the head revision.'
p153
stRp154
ag3
(g4
g5
(dp155
S'note'
p156
S'Only populated during content trigger execution to allow \n\t\ttriggers access to the revisions being submitted.'
p157
sg12
S'7'
sg13
S'depotFile, depotRev'
p158
sg20
S'Pending revision records.'
p159
sg17
S'Rev'
p160
sg19
S'21'
p161
sg15
S'db.revpx'
p162
stRp163
ag3
(g4
g5
(dp164
g12
S'7'
sg13
S'depotFile, depotRev'
p165
sg15
S'db.revsx'
p166
sg17
S'Rev'
p167
sg19
S'22'
p168
sg20
S'Revision records for spec depot files.'
p169
stRp170
ag3
(g4
g5
(dp171
g12
S'7'
sg13
S'clientFile'
p172
sg15
S'db.working'
p173
sg17
S'Working'
p174
sg19
S'23'
p175
sg20
S'Records for work in progress'
p176
stRp177
ag3
(g4
g5
(dp178
g12
S'0'
sg13
S'traitLot, name'
p179
sg15
S'db.traits'
p180
sg17
S'Trait'
p181
sg19
S'24'
p182
sg20
S'Attributes associated with file revisions'
p183
stRp184
ag3
(g4
g5
(dp185
g12
S'2'
sg13
S'seq'
p186
sg15
S'db.trigger'
p187
sg17
S'Trigger'
p188
sg19
S'25'
p189
sg20
S'Trigger specifications'
p190
stRp191
ag3
(g4
g5
(dp192
g12
S'0'
sg13
S'change'
p193
sg15
S'db.change'
p194
sg17
S'Change'
p195
sg19
S'26'
p196
sg20
S'Changelists'
p197
stRp198
ag3
(g4
g5
(dp199
g156
S'contains records for pending changelists only.'
p200
sg12
S'0'
sg13
S'change'
p201
sg20
S'Subset of db.change'
p202
sg17
S'Change'
p203
sg19
S'27'
p204
sg15
S'db.changex'
p205
stRp206
ag3
(g4
g5
(dp207
g12
S'0'
sg13
S'descKey'
p208
sg15
S'db.desc'
p209
sg17
S'Desc'
p210
sg19
S'28'
p211
sg20
S'Change descriptions'
p212
stRp213
ag3
(g4
g5
(dp214
g12
S'0'
sg13
S'job'
p215
sg15
S'db.job'
p216
sg20
S'Job records'
p217
sg17
S'Job'
p218
sg19
S'29'
p219
sg84
g3
(g8
g9
(lp220
S'db.bodtext'
p221
aS'db.boddate'
p222
atRp223
stRp224
ag3
(g4
g5
(dp225
g12
S'0'
sg13
S'user, job'
p226
sg15
S'db.jobpend'
p227
sg20
S'Obsolete in 98.2'
p228
sg17
S'String'
p229
sg19
S'30'
p230
sg84
g3
(g8
g9
(lp231
S'db.bodtext'
p232
aS'db.boddate'
p233
atRp234
stRp235
ag3
(g4
g5
(dp236
g12
S'0'
sg13
S'job'
p237
sg15
S'db.jobdesc'
p238
sg20
S'Obsolete in 98.2'
p239
sg17
S'JobDesc'
p240
sg19
S'31'
p241
sg84
g3
(g8
g9
(lp242
S'db.bodtext'
p243
aS'db.boddate'
p244
atRp245
stRp246
ag3
(g4
g5
(dp247
g12
S'1'
sg13
S'job, change'
p248
sg15
S'db.fix'
p249
sg20
S'Fix records - indexed by job'
p250
sg17
S'Fix'
p251
sg19
S'32'
p252
sg84
S'db.fixrev'
p253
stRp254
ag3
(g4
g5
(dp255
g12
S'1'
sg13
S'change, job'
p256
sg15
S'db.fixrev'
p257
sg20
S'Fix records - indexed by change'
p258
sg17
S'Fix'
p259
sg19
S'33'
p260
sg84
S'db.fix'
p261
stRp262
ag3
(g4
g5
(dp263
g12
S'0'
sg13
S'key, attr'
p264
sg15
S'db.boddate'
p265
sg17
S'BodyDate'
p266
sg19
S'34'
p267
sg20
S'Job data for date-valued attributes'
p268
stRp269
ag3
(g4
g5
(dp270
g12
S'0'
sg13
S'key, attr'
p271
sg15
S'db.bodtext'
p272
sg17
S'BodyText'
p273
sg19
S'35'
p274
sg20
S'Job data for non-date attributes.'
p275
stRp276
ag3
(g4
g5
(dp277
g12
S'0'
sg13
S'date, attr, value'
p278
sg15
S'db.ixdate'
p279
sg20
S'Indexing data for date-valued job attributes.'
p280
sg17
S'IndexDate'
p281
sg19
S'36'
p282
sg84
S'db.ixtext'
p283
stRp284
ag3
(g4
g5
(dp285
g12
S'0'
sg13
S'word, attr, value'
p286
sg15
S'db.ixtext'
p287
sg20
S'Indexing data for non-date-valued job attributes.'
p288
sg17
S'IndexText'
p289
sg19
S'37'
p290
sg84
S'db.ixdate'
p291
stRp292
ag3
(g4
g5
(dp293
g12
S'4'
sg13
S'seq'
p294
sg15
S'db.protect'
p295
sg17
S'Protect'
p296
sg19
S'38'
p297
sg20
S'The protections table'
p298
stRp299
ag3
(g4
g5
(dp300
g12
S'0'
sg13
S'language, id'
p301
sg15
S'db.message'
p302
sg17
S'Message'
p303
sg19
S'39'
p304
sg20
S'System messages'
p305
stRp306
ag3
(g4
g5
(dp307
g12
S'1'
sg13
S'id'
p308
sg15
S'db.monitor'
p309
sg17
S'Monitor'
p310
sg19
S'40'
p311
sg20
S'System messages'
p312
stRp313
atRp314
stRp315
sS'datatypes'
p316
g3
(g4
g5
(dp317
S'datatype'
p318
g3
(g8
g9
(lp319
g3
(g4
g5
(dp320
g17
S'flag'
p321
sS'summary'
p322
S'Type of action'
p323
sS'values'
p324
g3
(g8
g9
(lp325
g3
(g4
g5
(dp326
S'value'
p327
S'0'
sg20
S'add; user adds a file'
p328
stRp329
ag3
(g4
g5
(dp330
g327
S'1'
sg20
S'edit; user edits a file'
p331
stRp332
ag3
(g4
g5
(dp333
g327
S'2'
sg20
S'delete; user deletes a file'
p334
stRp335
ag3
(g4
g5
(dp336
g327
S'3'
sg20
S'branch; add via integration'
p337
stRp338
ag3
(g4
g5
(dp339
g327
S'4'
sg20
S'integ; edit via integration'
p340
stRp341
ag3
(g4
g5
(dp342
g327
S'5'
sg20
S'import; add via remote depot'
p343
stRp344
ag3
(g4
g5
(dp345
g327
S'6'
sg20
S'purge; purged revision, no longer available'
p346
stRp347
atRp348
sg15
S'Action'
p349
sg20
S'Revisions are produced by user actions. The Action\n\t\ttype defines the available actions and their internal values.'
p350
stRp351
ag3
(g4
g5
(dp352
g322
S'A changelist number'
p353
sg17
S'integer'
p354
sg15
S'Change'
p355
sg20
S'The number of a changelist. The number 0 represents the\n\t\tdefault pending changelist.'
p356
stRp357
ag3
(g4
g5
(dp358
g322
S'A counter name'
p359
sg17
S'string'
p360
sg15
S'Counter'
p361
sg20
S'A string representing the counter name. Counter names must \n\t\tcontain no spaces, contain no slashes, and be identifiers \n\t\t(cannot begin with a dash and cannot be all-numeric)'
p362
stRp363
ag3
(g4
g5
(dp364
g322
S'A unix-style date and time'
p365
sg17
S'integer'
p366
sg15
S'Date'
p367
sg20
S'A date and time represented as the number of seconds since \n\t\tthe Epoch: 01 January 1970 00:00:00 UTC. This is the same \n\t\tconvention as that used on Unix platforms.'
p368
stRp369
ag3
(g4
g5
(dp370
g17
S'flag'
p371
sg322
S'Type of Depot'
p372
sg324
g3
(g8
g9
(lp373
g3
(g4
g5
(dp374
g327
S'0'
sg20
S'A local depot'
p375
stRp376
ag3
(g4
g5
(dp377
g327
S'1'
sg20
S'A remote depot'
p378
stRp379
ag3
(g4
g5
(dp380
g327
S'2'
sg20
S'A spec depot'
p381
stRp382
atRp383
sg15
S'DepotType'
p384
sg20
S'The type of a given depot'
p385
stRp386
ag3
(g4
g5
(dp387
g322
S'A short string value'
p388
sg20
S'The first 31 characters of a Text string'
p389
sg17
S'string'
p390
sg15
S'DescShort'
p391
sg84
S'Text'
p392
stRp393
ag3
(g4
g5
(dp394
g322
S'An MD5 digest'
p395
sg17
S'string'
p396
sg15
S'Digest'
p397
sg20
S'A string containing an MD5 digest.'
p398
stRp399
ag3
(g4
g5
(dp400
g322
S'A domain name'
p401
sg17
S'string'
p402
sg15
S'Domain'
p403
sg20
S'A string representing the name of a depot, label, client,\n\t\tbranch or typemap.'
p404
stRp405
ag3
(g4
g5
(dp406
g322
S'A string with optional wildcards'
p407
sg17
S'string'
p408
sg15
S'DomainWild'
p409
sg20
S'A string that may contain wildcards - usually an IP address\n\t\tin the protections table.'
p410
stRp411
ag3
(g4
g5
(dp412
g324
g3
(g8
g9
(lp413
g3
(g4
g5
(dp414
S'mask'
p415
S'Domain Flags'
p416
sg327
S'0x0001'
p417
sg20
S'modtime'
p418
stRp419
ag3
(g4
g5
(dp420
g415
S'Domain Flags'
p421
sg327
S'0x0002'
p422
sg20
S'clobber'
p423
stRp424
ag3
(g4
g5
(dp425
g415
S'Domain Flags'
p426
sg327
S'0x0004'
p427
sg20
S'allwrite'
p428
stRp429
ag3
(g4
g5
(dp430
g415
S'Domain Flags'
p431
sg327
S'0x0008'
p432
sg20
S'locked'
p433
stRp434
ag3
(g4
g5
(dp435
g415
S'Domain Flags'
p436
sg327
S'0x0020'
p437
sg20
S'compress'
p438
stRp439
ag3
(g4
g5
(dp440
g415
S'Domain Flags'
p441
sg327
S'0x0040'
p442
sg20
S'rmdir'
p443
stRp444
ag3
(g4
g5
(dp445
g415
S'Domain Flags'
p446
sg327
S'0x1000'
p447
sg20
S'indirect (obsolete since 2004.2)'
p448
stRp449
ag3
(g4
g5
(dp450
g415
S'Domain LineEnd'
p451
sg327
S'0x0000'
p452
sg20
S'local'
p453
stRp454
ag3
(g4
g5
(dp455
g415
S'Domain LineEnd'
p456
sg327
S'0x0010'
p457
sg20
S'unix (LF)'
p458
stRp459
ag3
(g4
g5
(dp460
g415
S'Domain LineEnd'
p461
sg327
S'0x0200'
p462
sg20
S'mac (CR)'
p463
stRp464
ag3
(g4
g5
(dp465
g415
S'Domain LineEnd'
p466
sg327
S'0x0300'
p467
sg20
S'win (CRLF)'
p468
stRp469
ag3
(g4
g5
(dp470
g415
S'Domain LineEnd'
p471
sg327
S'0x0400'
p472
sg20
S'share (LFCRLF)'
p473
stRp474
atRp475
sg15
S'DomainOpts'
p476
sg415
g3
(g8
g9
(lp477
g3
(g4
g5
(dp478
g15
S'Domain Flags'
p479
sg327
S'0x10EF'
p480
sg20
S'Bits used to store the domain options'
p481
stRp482
ag3
(g4
g5
(dp483
g15
S'Domain LineEnd'
p484
sg327
S'0x0710'
p485
sg20
S'Bits used to store the line termination settings.'
p486
stRp487
atRp488
sg322
S'Options for domains'
p489
sg17
S'bitmask'
p490
sg20
S'A integer value representing the options for a domain'
p491
stRp492
ag3
(g4
g5
(dp493
g17
S'flag'
p494
sg322
S'A domain type'
p495
sg324
g3
(g8
g9
(lp496
g3
(g4
g5
(dp497
g327
S"98 (ASCII 'b')"
p498
sg20
S'branch'
p499
stRp500
ag3
(g4
g5
(dp501
g327
S"99 (ASCII 'c')"
p502
sg20
S'client'
p503
stRp504
ag3
(g4
g5
(dp505
g327
S"100 (ASCII 'd')"
p506
sg20
S'depot'
p507
stRp508
ag3
(g4
g5
(dp509
g327
S"108 (ASCII 'l')"
p510
sg20
S'label'
p511
stRp512
ag3
(g4
g5
(dp513
g327
S"116 (ASCII 't')"
p514
sg20
S'typemap'
p515
stRp516
atRp517
sg15
S'DomainType'
p518
sg20
S'A integer value representing the type of a domain'
p519
stRp520
ag3
(g4
g5
(dp521
g322
S'A file name'
p522
sg20
S'A string representing the filename'
p523
sg17
S'string'
p524
sg15
S'File'
p525
sg84
S'FileType'
p526
stRp527
ag3
(g4
g5
(dp528
g322
S'A file size'
p529
sg17
S'integer'
p530
sg15
S'FileSize'
p531
sg20
S'A 64-bit integer used to store file sizes. The value -1 is\n\t\tused to represent unknown filesizes.'
p532
stRp533
ag3
(g4
g5
(dp534
g324
g3
(g8
g9
(lp535
g3
(g4
g5
(dp536
g415
S'Storage Type'
p537
sg327
S'0x0000'
p538
sg20
S'RCS'
p539
stRp540
ag3
(g4
g5
(dp541
g415
S'Storage Type'
p542
sg327
S'0x0001'
p543
sg20
S'Binary'
p544
stRp545
ag3
(g4
g5
(dp546
g415
S'Storage Type'
p547
sg327
S'0x0002'
p548
sg20
S'Tiny'
p549
stRp550
ag3
(g4
g5
(dp551
g415
S'Storage Type'
p552
sg327
S'0x0003'
p553
sg20
S'Compressed'
p554
stRp555
ag3
(g4
g5
(dp556
g415
S'Storage Type'
p557
sg327
S'0x0004'
p558
sg20
S'tempobj (deprecated since 2002.1)'
p559
stRp560
ag3
(g4
g5
(dp561
g415
S'Storage Type'
p562
sg327
S'0x0005'
p563
sg20
S'Detect type. Used internally when no type is\n\t\t    given by the user.'
p564
stRp565
ag3
(g4
g5
(dp566
g415
S'Storage Type'
p567
sg327
S'0x0006'
p568
sg20
S'Comressed tempobj (deprecated since 2002.1)'
p569
stRp570
ag3
(g4
g5
(dp571
g415
S'Storage Type'
p572
sg327
S'0x0007'
p573
sg20
S'Binary access to compressed data. Used internally.'
p574
stRp575
ag3
(g4
g5
(dp576
g415
S'Storage Mods'
p577
sg327
S'0x0010'
p578
sg20
S'99.2-style keyword expansion/contraction'
p579
stRp580
ag3
(g4
g5
(dp581
g415
S'Storage Mods'
p582
sg327
S'0x0020'
p583
sg20
S'2000.1-style keyword expansion/contraction'
p584
stRp585
ag3
(g4
g5
(dp586
g415
S'Storage Mods'
p587
sg327
S'0x0030'
p588
sg20
S'Post 2000.1-style keyword expansion/contraction'
p589
stRp590
ag3
(g4
g5
(dp591
g415
S'Storage Mods'
p592
sg327
S'0x0040'
p593
sg20
S'New tempobj (+S modifier)'
p594
stRp595
ag3
(g4
g5
(dp596
g415
S'Client Type'
p597
sg327
S'0x0000000'
p598
sg20
S'text'
p599
stRp600
ag3
(g4
g5
(dp601
g415
S'Client Type'
p602
sg327
S'0x0010000'
p603
sg20
S'binary'
p604
stRp605
ag3
(g4
g5
(dp606
g415
S'Client Type'
p607
sg327
S'0x0020000'
p608
sg20
S'executable bit set'
p609
stRp610
ag3
(g4
g5
(dp611
g415
S'Client Type'
p612
sg327
S'0x0040000'
p613
sg20
S'symlink'
p614
stRp615
ag3
(g4
g5
(dp616
g415
S'Client Type'
p617
sg327
S'0x0050000'
p618
sg20
S'resource fork'
p619
stRp620
ag3
(g4
g5
(dp621
g415
S'Client Type'
p622
sg327
S'0x0080000'
p623
sg20
S'unicode'
p624
stRp625
ag3
(g4
g5
(dp626
g415
S'Client Type'
p627
sg327
S'0x0090000'
p628
sg20
S'raw text (nocrlf - 99.1)'
p629
stRp630
ag3
(g4
g5
(dp631
g415
S'Client Type'
p632
sg327
S'0x00C0000'
p633
sg20
S'apple data + resource file (since 2000.2)'
p634
stRp635
ag3
(g4
g5
(dp636
g415
S'Client Type'
p637
sg327
S'0x00D0000'
p638
sg20
S'apple data + resource file (99.2)'
p639
stRp640
ag3
(g4
g5
(dp641
g415
S'Client Type'
p642
sg327
S'0x1000000'
p643
sg20
S'Used to support filetype detection'
p644
stRp645
ag3
(g4
g5
(dp646
g415
S'Client Mods'
p647
sg327
S'0x0100000'
p648
sg20
S'writable'
p649
stRp650
ag3
(g4
g5
(dp651
g415
S'Client Mods'
p652
sg327
S'0x0200000'
p653
sg20
S'modtime'
p654
stRp655
ag3
(g4
g5
(dp656
g415
S'Client Mods'
p657
sg327
S'0x0400000'
p658
sg20
S'uncompress on client'
p659
stRp660
atRp661
sg15
S'FileType'
p662
sg415
g3
(g8
g9
(lp663
g3
(g4
g5
(dp664
g15
S'Storage Type'
p665
sg327
S'0x000F'
p666
sg20
S"Bits used to store the server's storage type"
p667
stRp668
ag3
(g4
g5
(dp669
g15
S'Storage Mods'
p670
sg327
S'0x00F0'
p671
sg20
S"Bits used to store the modifiers to the server's storage \n\t\t    type"
p672
stRp673
ag3
(g4
g5
(dp674
g15
S'Client Type'
p675
sg327
S'0x10D0000'
p676
sg20
S"Bits used to store the file type from the client's point\n\t\t    of view."
p677
stRp678
ag3
(g4
g5
(dp679
g15
S'Client Mods'
p680
sg327
S'0x720000'
p681
sg20
S'Bits used to store the modifiers applied to the file\n\t\t    on the client.'
p682
stRp683
atRp684
sg322
S'Type of file'
p685
sg17
S'bitmask'
p686
sg20
S'The FileType is a bitmask specifying the type and modifiers\n\t\tof a revision from both the client and server points of view.\n\t\tThe first 16 bits are used to store the storage type and \n\t\tmodifiers, the next 16 bits are used to store the client \n\t\taccess method and modifiers.'
p687
stRp688
ag3
(g4
g5
(dp689
g322
S'Status of a fixed job'
p690
sg17
S'string'
p691
sg15
S'FixStatus'
p692
sg20
S'This type is a wrapper around the \'Text\' type that handles\n\t\tthe pre-2000.1 "closed" default value.'
p693
stRp694
ag3
(g4
g5
(dp695
g322
S'A 32-bit integer'
p696
sg17
S'integer'
p697
sg15
S'Int'
p698
sg20
S'A 32-bit integer'
p699
stRp700
ag3
(g4
g5
(dp701
g322
S'An 8-bit integer'
p702
sg17
S'integer'
p703
sg15
S'Int8'
p704
sg20
S'An 8-bit integer: an unsigned char'
p705
stRp706
ag3
(g4
g5
(dp707
g322
S'A 64-bit integer'
p708
sg17
S'integer'
p709
sg15
S'Int64'
p710
sg20
S'A 64-bit integer.'
p711
stRp712
ag3
(g4
g5
(dp713
g156
S'All integration records should have a corresponding \n\t\treverse record. The \'branch from\' (2) and \'merge from\' (0) \n\t\trecords have corresponding "dirty" reverse records for cases \n\t\twhere the target file took more than one change or was \n\t\t(re)opened for \'edit\' or \'add\'.'
p714
sg324
g3
(g8
g9
(lp715
g3
(g4
g5
(dp716
g327
S'0'
sg20
S'merge from: integration with other changes'
p717
stRp718
ag3
(g4
g5
(dp719
g327
S'1'
sg20
S'merge into: reverse merge'
p720
stRp721
ag3
(g4
g5
(dp722
g327
S'2'
sg20
S'branch from: integration was branch of file'
p723
stRp724
ag3
(g4
g5
(dp725
g327
S'3'
sg20
S'branch into: reverse branch'
p726
stRp727
ag3
(g4
g5
(dp728
g327
S'4'
sg20
S'copy from: integration took source file whole'
p729
stRp730
ag3
(g4
g5
(dp731
g327
S'5'
sg20
S'copy into: reverse take'
p732
stRp733
ag3
(g4
g5
(dp734
g327
S'6'
sg20
S'ignored: integration ignored source changes'
p735
stRp736
ag3
(g4
g5
(dp737
g327
S'7'
sg20
S'ignored by: reverse copy'
p738
stRp739
ag3
(g4
g5
(dp740
g327
S'8'
sg20
S'delete from: integration of delete'
p741
stRp742
ag3
(g4
g5
(dp743
g327
S'9'
sg20
S'delete into: reverse delete'
p744
stRp745
ag3
(g4
g5
(dp746
g327
S'10'
p747
sg20
S'dirty merge into: reverse of integration downgraded to \n\t\t    edit'
p748
stRp749
ag3
(g4
g5
(dp750
g327
S'11'
p751
sg20
S'dirty branch into: reverse of branch downgraded to add'
p752
stRp753
ag3
(g4
g5
(dp754
g327
S'12'
p755
sg20
S'dirty merge from; merge that the user edited'
p756
stRp757
atRp758
sg15
S'IntegHow'
p759
sg322
S'Integration methods'
p760
sg17
S'flag'
p761
sg20
S"Specifies how an integration was performed. Integrations\n\t\talways come in pairs: the 'forward' and 'reverse' records.\n\t\tAs a general rule, the forward records contain the word \n\t\t'from'; and the reverse records contain the word 'into'."
p762
stRp763
ag3
(g4
g5
(dp764
g17
S'flag'
p765
sg322
S'Job status - defunct'
p766
sg324
g3
(g8
g9
(lp767
g3
(g4
g5
(dp768
g327
S'0'
sg20
S'open'
p769
stRp770
ag3
(g4
g5
(dp771
g327
S'1'
sg20
S'closed'
p772
stRp773
ag3
(g4
g5
(dp774
g327
S'2'
sg20
S'suspended'
p775
stRp776
atRp777
sg15
S'JobStat'
p778
sg20
S'Old (pre-98.2) job status values.'
p779
stRp780
ag3
(g4
g5
(dp781
g17
S'flag'
p782
sg322
S'Types of mapping'
p783
sg324
g3
(g8
g9
(lp784
g3
(g4
g5
(dp785
g327
S'0'
sg20
S'mapped-in (the default)'
p786
stRp787
ag3
(g4
g5
(dp788
g327
S'1'
sg20
S"mapped-out (mappings that start with '-')"
p789
stRp790
ag3
(g4
g5
(dp791
g327
S'2'
sg20
S"overlay (mappings that start with '+')"
p792
stRp793
ag3
(g4
g5
(dp794
g327
S'3'
sg20
S"haveMap (mappings that start with '$'). Used internally\n\t\t    only"
p795
stRp796
atRp797
sg15
S'MapFlag'
p798
sg20
S'Specifies how the files specified by a mapping should be\n\t\ttreated'
p799
stRp800
ag3
(g4
g5
(dp801
g322
S'A string representing a mapping'
p802
sg17
S'string'
p803
sg15
S'Mapping'
p804
sg20
S'A Mapping is essentially a file name that may contain\n\t\twildcards'
p805
stRp806
ag3
(g4
g5
(dp807
g322
S'Maximum number of milliseconds to hold locks'
p808
sg17
S'integer'
p809
sg15
S'MaxLockTime'
p810
sg20
S"The number of milliseconds for which a command may hold locks.\n\t\tCommands that take longer than this time period will abort. \n\t\tThe value 0 means 'unlimited'."
p811
stRp812
ag3
(g4
g5
(dp813
g322
S'Maximum number of results permitted'
p814
sg17
S'integer'
p815
sg15
S'MaxResults'
p816
sg20
S"The number of results that commands run by the restricted\n\t\tuser are permitted to return. The value 0 means 'unlimited'."
p817
stRp818
ag3
(g4
g5
(dp819
g322
S'Maximum number of records scanned'
p820
sg17
S'integer'
p821
sg15
S'MaxScanRows'
p822
sg20
S"The maximum number of records that the server may read\n\t\ton behalf of the restricted user. The value 0 means \n\t\t'unlimited'."
p823
stRp824
ag3
(g4
g5
(dp825
g322
S'Encoded hex string'
p826
sg17
S'string'
p827
sg15
S'Octet'
p828
sg20
S'A variable length encoded hex string.'
p829
stRp830
ag3
(g4
g5
(dp831
g322
S'The MD5 hash of a password'
p832
sg17
S'string'
p833
sg15
S'Password'
p834
sg20
S'The MD5 hash of an encrypted password.'
p835
stRp836
ag3
(g4
g5
(dp837
g17
S'flag'
p838
sg322
S'Resolve methods'
p839
sg324
g3
(g8
g9
(lp840
g3
(g4
g5
(dp841
g327
S'0'
sg20
S'Not yet resolved'
p842
stRp843
ag3
(g4
g5
(dp844
g327
S'1'
sg20
S'Resolved manually'
p845
stRp846
ag3
(g4
g5
(dp847
g327
S'2'
sg20
S'Resolved automatically as part of a branch'
p848
stRp849
ag3
(g4
g5
(dp850
g327
S'3'
sg20
S'Resolved automatically as part of a delete'
p851
stRp852
atRp853
sg15
S'ResolvedStatus'
p854
sg20
S'Specifies how the user resolved merge operations.'
p855
stRp856
ag3
(g4
g5
(dp857
g322
S'A revision number'
p858
sg17
S'integer'
p859
sg15
S'Rev'
p860
sg20
S"The positive integer number of a specific revision of a file. \n\t\tThe number 0 represents '#none'."
p861
stRp862
ag3
(g4
g5
(dp863
g322
S'Type of reviewer'
p864
sg17
S'integer'
p865
sg15
S'Reviewer'
p866
sg20
S'The type of reviewer. Currently there is only one type of\n\t\treviewer and 0 is the only valid value.'
p867
stRp868
ag3
(g4
g5
(dp869
g17
S'flag'
p870
sg322
S'Strength check of a password'
p871
sg324
g3
(g8
g9
(lp872
g3
(g4
g5
(dp873
g327
S'0'
sg20
S'Strength unknown'
p874
stRp875
ag3
(g4
g5
(dp876
g327
S'1'
sg20
S'Password is strong'
p877
stRp878
ag3
(g4
g5
(dp879
g327
S'2'
sg20
S'Password is not strong'
p880
stRp881
atRp882
sg15
S'Strength'
p883
sg20
S"Whether or not a user's password has been tested for strength."
p884
stRp885
ag3
(g4
g5
(dp886
S'restriction'
p887
g3
(g8
g9
(lp888
S'Cannot be empty'
p889
aS'Cannot consist solely of a dash (-)'
p890
aS'Cannot be all-numeric'
p891
aS'Cannot contain non-printable characters'
p892
aS'Spaces are replaced with underscores ( _ )'
p893
aS'Revision characters (# and @) are prohibited'
p894
aS'Slashes (/) are prohibited'
p895
aS'Wildcards (... and *) are prohibited'
p896
atRp897
sg322
S'A string up to 1024 characters long'
p898
sg17
S'string'
p899
sg15
S'String'
p900
sg20
S'A string up to 1024 characters in length.  Depending on the \n\t\tcontext in which the string is used, restrictions \n\t\tmay apply. Strings are often used as key fields in the \n\t\tschema.'
p901
stRp902
ag3
(g4
g5
(dp903
g17
S'flag'
p904
sg322
S'Tamper-state of workspace file'
p905
sg324
g3
(g8
g9
(lp906
g3
(g4
g5
(dp907
g327
S'0'
sg20
S'Do not check for tampering'
p908
stRp909
ag3
(g4
g5
(dp910
g327
S'1'
sg20
S'Check for tampering'
p911
stRp912
ag3
(g4
g5
(dp913
g327
S'2'
sg20
S'Tamper-check failed'
p914
stRp915
atRp916
sg15
S'TamperCheck'
p917
sg20
S'Indicates the tamper-state of a file in a workspace. This\n\t\tis used to decide whether or not to check the file, and\n\t\tif checked, to hold the result.'
p918
stRp919
ag3
(g4
g5
(dp920
g322
S'A string value'
p921
sg17
S'string'
p922
sg15
S'Text'
p923
sg20
S'A text string value - used to hold longer blocks of text.'
p924
stRp925
ag3
(g4
g5
(dp926
g322
S'The id of a group of traits'
p927
sg17
S'integer'
p928
sg15
S'TraitLot'
p929
sg20
S'An integer identifying a group of traits which may be\n\t\tshared by several revisions.'
p930
stRp931
ag3
(g4
g5
(dp932
g17
S'flag'
p933
sg322
S'A type of trait'
p934
sg324
g3
(g8
g9
(lp935
g3
(g4
g5
(dp936
g327
S'0'
sg20
S'special trait for reference counting'
p937
stRp938
ag3
(g4
g5
(dp939
g327
S'1'
sg20
S'Binary trait'
p940
stRp941
ag3
(g4
g5
(dp942
g327
S'2'
sg20
S'Binary trait that gets propagated'
p943
stRp944
atRp945
sg15
S'TraitType'
p946
sg20
S'The type of trait.'
p947
stRp948
ag3
(g4
g5
(dp949
g17
S'flag'
p950
sg322
S'A type of trigger'
p951
sg324
g3
(g8
g9
(lp952
g3
(g4
g5
(dp953
g327
S'0'
sg20
S'change-submit (formerly pre-submit triggers)'
p954
stRp955
ag3
(g4
g5
(dp956
g327
S'1'
sg20
S'change-content'
p957
stRp958
ag3
(g4
g5
(dp959
g327
S'2'
sg20
S'change-commit'
p960
stRp961
ag3
(g4
g5
(dp962
g327
S'3'
sg20
S'form-in'
p963
stRp964
ag3
(g4
g5
(dp965
g327
S'4'
sg20
S'form-out'
p966
stRp967
ag3
(g4
g5
(dp968
g327
S'5'
sg20
S'form-save'
p969
stRp970
ag3
(g4
g5
(dp971
g327
S'6'
sg20
S'form-delete'
p972
stRp973
ag3
(g4
g5
(dp974
g327
S'7'
sg20
S'form-commit'
p975
stRp976
ag3
(g4
g5
(dp977
g327
S'8'
sg20
S'auth-check'
p978
stRp979
ag3
(g4
g5
(dp980
g327
S'9'
sg20
S'auth-set'
p981
stRp982
atRp983
sg15
S'Trigger'
p984
sg20
S'The type of a trigger.'
p985
stRp986
ag3
(g4
g5
(dp987
g322
S'A user or group name'
p988
sg20
S'The name of a Perforce user or group.'
p989
sg17
S'string'
p990
sg15
S'User'
p991
sg84
S'String'
p992
stRp993
ag3
(g4
g5
(dp994
g322
S'A user or group name with wildcards'
p995
sg20
S'A user/group name that may contain wildcards (*)'
p996
sg17
S'string'
p997
sg15
S'UserWild'
p998
sg84
S'User'
p999
stRp1000
atRp1001
stRp1002
sg12
S'2006.2'
p1003
sS'recordtypes'
p1004
g3
(g4
g5
(dp1005
S'record'
p1006
g3
(g8
g9
(lp1007
g3
(g4
g5
(dp1008
S'column'
p1009
g3
(g8
g9
(lp1010
g3
(g4
g5
(dp1011
g17
S'File'
p1012
sg15
S'lbrFile'
p1013
sg20
S"Specifies the location in the librarian's archives where\n\t\t    the revision may be found"
p1014
stRp1015
ag3
(g4
g5
(dp1016
g17
S'Rev'
p1017
sg15
S'lbrRev'
p1018
sg20
S"Revision number in the librarian's archives"
p1019
stRp1020
ag3
(g4
g5
(dp1021
g17
S'File'
p1022
sg15
S'depotFile'
p1023
sg20
S'Name of the file in the depot'
p1024
stRp1025
ag3
(g4
g5
(dp1026
g17
S'Rev'
p1027
sg15
S'depotRev'
p1028
sg20
S'Name of the file in the depot'
p1029
stRp1030
ag3
(g4
g5
(dp1031
g17
S'FileType'
p1032
sg15
S'lbrType'
p1033
sg20
S"File type for librarian's purposes"
p1034
stRp1035
atRp1036
sg15
S'Archive'
p1037
stRp1038
ag3
(g4
g5
(dp1039
g1009
g3
(g8
g9
(lp1040
g3
(g4
g5
(dp1041
g17
S'File'
p1042
sg15
S'lbrFile'
p1043
sg20
S'Paths in the librarian namespace that provide lazy\n\t\t    copies.'
p1044
stRp1045
ag3
(g4
g5
(dp1046
g17
S'File'
p1047
sg15
S'depotFile'
p1048
sg20
S'Paths in the depot namespace that receive lazy copies.'
p1049
stRp1050
atRp1051
sg15
S'ArchMap'
p1052
stRp1053
ag3
(g4
g5
(dp1054
g1009
g3
(g8
g9
(lp1055
g3
(g4
g5
(dp1056
g17
S'String'
p1057
sg15
S'key'
p1058
sg20
S'The job to which this attribute belongs'
p1059
stRp1060
ag3
(g4
g5
(dp1061
g17
S'Int'
p1062
sg15
S'attr'
p1063
sg20
S'The attribute number (from the jobspec) of this attribute'
p1064
stRp1065
ag3
(g4
g5
(dp1066
g17
S'Date'
p1067
sg15
S'date'
p1068
sg20
S'The date value itself'
p1069
stRp1070
atRp1071
sg15
S'BodyDate'
p1072
stRp1073
ag3
(g4
g5
(dp1074
g1009
g3
(g8
g9
(lp1075
g3
(g4
g5
(dp1076
g17
S'String'
p1077
sg15
S'key'
p1078
sg20
S'The job to which this attribute belongs'
p1079
stRp1080
ag3
(g4
g5
(dp1081
g17
S'Int'
p1082
sg15
S'attr'
p1083
sg20
S'The attribute number (from the jobspec) of this attribute'
p1084
stRp1085
ag3
(g4
g5
(dp1086
g17
S'Text'
p1087
sg15
S'text'
p1088
sg20
S'The attribute value'
p1089
stRp1090
atRp1091
sg15
S'BodyText'
p1092
stRp1093
ag3
(g4
g5
(dp1094
g1009
g3
(g8
g9
(lp1095
g3
(g4
g5
(dp1096
g17
S'Change'
p1097
sg15
S'change'
p1098
sg20
S'The change number'
p1099
stRp1100
ag3
(g4
g5
(dp1101
g17
S'Change'
p1102
sg15
S'descKey'
p1103
sg20
S"The description key. Normally the same as 'change', but\n\t\t    may differ if a changelist was renumbered on submission."
p1104
stRp1105
ag3
(g4
g5
(dp1106
g17
S'Domain'
p1107
sg15
S'client'
p1108
sg20
S'The client from which the change originates'
p1109
stRp1110
ag3
(g4
g5
(dp1111
g17
S'User'
p1112
sg15
S'user'
p1113
sg20
S'The user who owns the change'
p1114
stRp1115
ag3
(g4
g5
(dp1116
g17
S'Date'
p1117
sg15
S'date'
p1118
sg20
S'Date and time the changelist was submitted'
p1119
stRp1120
ag3
(g4
g5
(dp1121
g17
S'Int'
p1122
sg15
S'status'
p1123
sg20
S'Flag: 0 for pending changes; 1 for committed changes.'
p1124
stRp1125
ag3
(g4
g5
(dp1126
g17
S'DescShort'
p1127
sg15
S'description'
p1128
sg20
S'Short description of the change.'
p1129
stRp1130
atRp1131
sg15
S'Change'
p1132
stRp1133
ag3
(g4
g5
(dp1134
g1009
g3
(g8
g9
(lp1135
g3
(g4
g5
(dp1136
g17
S'Counter'
p1137
sg15
S'name'
p1138
sg20
S'Counter name'
p1139
stRp1140
ag3
(g4
g5
(dp1141
g17
S'Int'
p1142
sg15
S'value'
p1143
sg20
S'Counter value'
p1144
stRp1145
atRp1146
sg15
S'Counters'
p1147
stRp1148
ag3
(g4
g5
(dp1149
g1009
g3
(g8
g9
(lp1150
g3
(g4
g5
(dp1151
g17
S'Domain'
p1152
sg15
S'name'
p1153
sg20
S'Depot name'
p1154
stRp1155
ag3
(g4
g5
(dp1156
g17
S'DepotType'
p1157
sg15
S'type'
p1158
sg20
S'Type of depot'
p1159
stRp1160
ag3
(g4
g5
(dp1161
g17
S'Text'
p1162
sg15
S'extra'
p1163
sg20
S'For remote depots, the P4PORT address of the remote server.\n\t\t    For spec depots, the field contains a suffix to append to \n\t\t    the filename.'
p1164
stRp1165
ag3
(g4
g5
(dp1166
g17
S'Text'
p1167
sg15
S'map'
p1168
sg20
S"The depot's map (path translation information).  For local \n\t\t    depots, this will be a path relative to the root directory.\n\t\t    For remote depots, this will be specified in terms of the \n\t\t    remote server's namespace."
p1169
stRp1170
atRp1171
sg15
S'Depot'
p1172
stRp1173
ag3
(g4
g5
(dp1174
g1009
g3
(g8
g9
(lp1175
g3
(g4
g5
(dp1176
g17
S'Change'
p1177
sg15
S'descKey'
p1178
sg20
S'Original number of the change to which this description\n\t\t    applies. This may differ from the final change number if\n\t\t    the change is renumbered on submission.'
p1179
stRp1180
ag3
(g4
g5
(dp1181
g17
S'Text'
p1182
sg15
S'description'
p1183
sg20
S'The change description itself'
p1184
stRp1185
atRp1186
sg15
S'Desc'
p1187
stRp1188
ag3
(g4
g5
(dp1189
g1009
g3
(g8
g9
(lp1190
g3
(g4
g5
(dp1191
g17
S'Domain'
p1192
sg15
S'name'
p1193
sg20
S'Domain name'
p1194
stRp1195
ag3
(g4
g5
(dp1196
g17
S'DomainType'
p1197
sg15
S'type'
p1198
sg20
S'Type of domain'
p1199
stRp1200
ag3
(g4
g5
(dp1201
g17
S'Text'
p1202
sg15
S'extra'
p1203
sg20
S'Formerly "host". Associated host or, for labels, revision \n\t\t    number.'
p1204
stRp1205
ag3
(g4
g5
(dp1206
g17
S'Text'
p1207
sg15
S'mount'
p1208
sg20
S'The client root'
p1209
stRp1210
ag3
(g4
g5
(dp1211
g17
S'Text'
p1212
sg15
S'mount2'
p1213
sg20
S'Alternate client root'
p1214
stRp1215
ag3
(g4
g5
(dp1216
g17
S'Text'
p1217
sg15
S'mount3'
p1218
sg20
S'Alternate client root'
p1219
stRp1220
ag3
(g4
g5
(dp1221
g17
S'User'
p1222
sg15
S'owner'
p1223
sg20
S'Name of user who owns the domain.'
p1224
stRp1225
ag3
(g4
g5
(dp1226
g17
S'Date'
p1227
sg15
S'updateDate'
p1228
sg20
S'Date of last update to domain specification.'
p1229
stRp1230
ag3
(g4
g5
(dp1231
g17
S'Date'
p1232
sg15
S'accessDate'
p1233
sg20
S'Date of last access to domain specification.'
p1234
stRp1235
ag3
(g4
g5
(dp1236
g17
S'DomainOpts'
p1237
sg15
S'options'
p1238
sg20
S'Options for client, label, and branch domains.'
p1239
stRp1240
ag3
(g4
g5
(dp1241
g17
S'Text'
p1242
sg15
S'description'
p1243
sg20
S'Description of domain.'
p1244
stRp1245
atRp1246
sg15
S'Domain'
p1247
stRp1248
ag3
(g4
g5
(dp1249
g1009
g3
(g8
g9
(lp1250
g3
(g4
g5
(dp1251
g17
S'String'
p1252
sg15
S'job'
p1253
sg20
S'Job name'
p1254
stRp1255
ag3
(g4
g5
(dp1256
g17
S'Change'
p1257
sg15
S'change'
p1258
sg20
S'Changelist number'
p1259
stRp1260
ag3
(g4
g5
(dp1261
g17
S'Date'
p1262
sg15
S'date'
p1263
sg20
S'Date fix was recorded (may differ from date change was\n\t\t    submitted).'
p1264
stRp1265
ag3
(g4
g5
(dp1266
g17
S'FixStatus'
p1267
sg15
S'status'
p1268
sg20
S'Status of the job'
p1269
stRp1270
ag3
(g4
g5
(dp1271
g17
S'Domain'
p1272
sg15
S'client'
p1273
sg20
S'The client where the fix originated'
p1274
stRp1275
ag3
(g4
g5
(dp1276
g17
S'User'
p1277
sg15
S'user'
p1278
sg20
S'The user who fixed the job'
p1279
stRp1280
atRp1281
sg15
S'Fix'
p1282
stRp1283
ag3
(g4
g5
(dp1284
g1009
g3
(g8
g9
(lp1285
g3
(g4
g5
(dp1286
g17
S'User'
p1287
sg15
S'user'
p1288
sg20
S'User name'
p1289
stRp1290
ag3
(g4
g5
(dp1291
g17
S'User'
p1292
sg15
S'group'
p1293
sg20
S'Group name'
p1294
stRp1295
ag3
(g4
g5
(dp1296
g17
S'Int'
p1297
sg15
S'isSubGroup'
p1298
sg20
S'Flag: 0 for groups which are not subgroups, 1 for groups \n\t\t    which are subgroups.'
p1299
stRp1300
ag3
(g4
g5
(dp1301
g17
S'MaxResults'
p1302
sg15
S'maxResults'
p1303
sg20
S'MaxResults setting for the group.'
p1304
stRp1305
ag3
(g4
g5
(dp1306
g17
S'MaxScanRows'
p1307
sg15
S'maxScanRows'
p1308
sg20
S'MaxScanRows setting for the group.'
p1309
stRp1310
ag3
(g4
g5
(dp1311
g17
S'MaxLockTime'
p1312
sg15
S'maxLockTime'
p1313
sg20
S'MaxLockTime setting for the group.'
p1314
stRp1315
ag3
(g4
g5
(dp1316
g17
S'Int'
p1317
sg15
S'timeout'
p1318
sg20
S'Length of time (in seconds) a login ticket remains valid.'
p1319
stRp1320
atRp1321
sg15
S'Group'
p1322
stRp1323
ag3
(g4
g5
(dp1324
g1009
g3
(g8
g9
(lp1325
g3
(g4
g5
(dp1326
g17
S'File'
p1327
sg15
S'clientFile'
p1328
sg20
S'The file in its location on the client'
p1329
stRp1330
ag3
(g4
g5
(dp1331
g17
S'File'
p1332
sg15
S'depotFile'
p1333
sg20
S'The file in the depot'
p1334
stRp1335
ag3
(g4
g5
(dp1336
g17
S'Rev'
p1337
sg15
S'haveRev'
p1338
sg20
S'The revision synced to the client'
p1339
stRp1340
ag3
(g4
g5
(dp1341
g17
S'FileType'
p1342
sg15
S'type'
p1343
sg20
S'The filetype of the synced revision'
p1344
stRp1345
atRp1346
sg15
S'Have'
p1347
stRp1348
ag3
(g4
g5
(dp1349
g1009
g3
(g8
g9
(lp1350
g3
(g4
g5
(dp1351
g17
S'Date'
p1352
sg15
S'date'
p1353
sg20
S'Date value'
p1354
stRp1355
ag3
(g4
g5
(dp1356
g17
S'Int'
p1357
sg15
S'attr'
p1358
sg20
S'The attribute number (from the jobspec) to which this\n\t\t    date belongs'
p1359
stRp1360
ag3
(g4
g5
(dp1361
g17
S'String'
p1362
sg15
S'value'
p1363
sg20
S'A job name'
p1364
stRp1365
atRp1366
sg15
S'IndexDate'
p1367
stRp1368
ag3
(g4
g5
(dp1369
g1009
g3
(g8
g9
(lp1370
g3
(g4
g5
(dp1371
g17
S'String'
p1372
sg15
S'word'
p1373
sg20
S'The word being indexed'
p1374
stRp1375
ag3
(g4
g5
(dp1376
g17
S'Int'
p1377
sg15
S'attr'
p1378
sg20
S'The attribute number (from the jobspec) to which this\n\t\t    word belongs'
p1379
stRp1380
ag3
(g4
g5
(dp1381
g17
S'String'
p1382
sg15
S'value'
p1383
sg20
S'A job name'
p1384
stRp1385
atRp1386
sg15
S'IndexText'
p1387
stRp1388
ag3
(g4
g5
(dp1389
g1009
g3
(g8
g9
(lp1390
g3
(g4
g5
(dp1391
g17
S'File'
p1392
sg15
S'toFile'
p1393
sg20
S'File to which integration is being performed (target).'
p1394
stRp1395
ag3
(g4
g5
(dp1396
g17
S'File'
p1397
sg15
S'fromFile'
p1398
sg20
S'File from which integration is being performed (source).'
p1399
stRp1400
ag3
(g4
g5
(dp1401
g17
S'Rev'
p1402
sg15
S'startFromRev'
p1403
sg20
S'Starting revision of fromFile'
p1404
stRp1405
ag3
(g4
g5
(dp1406
g17
S'Rev'
p1407
sg15
S'endFromRev'
p1408
sg20
S'Ending revision of fromFile. If integrating from a single \n\t\t    revision (not a revision range), the startFromRev and \n\t\t    endFromRev fields will be identical.'
p1409
stRp1410
ag3
(g4
g5
(dp1411
g17
S'Rev'
p1412
sg15
S'toRev'
p1413
sg20
S'Revision of toFile into which integration is being \n\t\t    performed.'
p1414
stRp1415
ag3
(g4
g5
(dp1416
g17
S'IntegHow'
p1417
sg15
S'how'
p1418
sg20
S'Integration method: variations on \n\t\t    merge/branch/copy/ignore/delete.'
p1419
stRp1420
ag3
(g4
g5
(dp1421
g17
S'Int'
p1422
sg15
S'committed'
p1423
sg20
S'Flag: 0 for pending, 1 for committed.'
p1424
stRp1425
ag3
(g4
g5
(dp1426
g17
S'ResolvedStatus'
p1427
sg15
S'resolved'
p1428
sg20
S'Resolution method: unresolved, resolved manually, \n\t\t    or resolved as part of a branch or delete.'
p1429
stRp1430
ag3
(g4
g5
(dp1431
g17
S'Change'
p1432
sg15
S'change'
p1433
sg20
S'Changelist associated with the integration.'
p1434
stRp1435
atRp1436
sg15
S'Integ'
p1437
stRp1438
ag3
(g4
g5
(dp1439
g1009
g3
(g8
g9
(lp1440
g3
(g4
g5
(dp1441
g17
S'File'
p1442
sg15
S'toFile'
p1443
sg20
S'File to which integration is being performed (target).'
p1444
stRp1445
ag3
(g4
g5
(dp1446
g17
S'File'
p1447
sg15
S'fromFile'
p1448
sg20
S'File from which integration is being performed (source).'
p1449
stRp1450
ag3
(g4
g5
(dp1451
g17
S'Rev'
p1452
sg15
S'startFromRev'
p1453
sg20
S'Starting revision of fromFile'
p1454
stRp1455
ag3
(g4
g5
(dp1456
g17
S'Rev'
p1457
sg15
S'endFromRev'
p1458
sg20
S'Ending revision of fromFile. If integrating from a single \n\t\t    revision (not a revision range), the startFromRev and \n\t\t    endFromRev fields will be identical.'
p1459
stRp1460
ag3
(g4
g5
(dp1461
g17
S'Rev'
p1462
sg15
S'startToRev'
p1463
sg20
S'Start revision of toFile into which integration was \n\t\t    performed.'
p1464
stRp1465
ag3
(g4
g5
(dp1466
g17
S'Rev'
p1467
sg15
S'endToRev'
p1468
sg20
S'End revision of toFile into which integration was \n\t\t    performed. Only varies from startToRev for reverse \n\t\t    integration records.'
p1469
stRp1470
ag3
(g4
g5
(dp1471
g17
S'IntegHow'
p1472
sg15
S'how'
p1473
sg20
S'Integration method: variations on \n\t\t    merge/branch/copy/ignore/delete.'
p1474
stRp1475
ag3
(g4
g5
(dp1476
g17
S'Change'
p1477
sg15
S'change'
p1478
sg20
S'Changelist associated with the integration.'
p1479
stRp1480
atRp1481
sg15
S'Integed'
p1482
stRp1483
ag3
(g4
g5
(dp1484
g1009
g3
(g8
g9
(lp1485
g3
(g4
g5
(dp1486
g17
S'String'
p1487
sg15
S'job'
p1488
sg20
S'The job name'
p1489
stRp1490
ag3
(g4
g5
(dp1491
g17
S'User'
p1492
sg15
S'xuser'
p1493
sg20
S'User name: defunct'
p1494
stRp1495
ag3
(g4
g5
(dp1496
g17
S'Date'
p1497
sg15
S'xdate'
p1498
sg20
S'The date: defunct'
p1499
stRp1500
ag3
(g4
g5
(dp1501
g17
S'JobStat'
p1502
sg15
S'xstatus'
p1503
sg20
S'Job status: defunct'
p1504
stRp1505
ag3
(g4
g5
(dp1506
g17
S'DescShort'
p1507
sg15
S'description'
p1508
sg20
S'Short description'
p1509
stRp1510
atRp1511
sg15
S'Job'
p1512
stRp1513
ag3
(g4
g5
(dp1514
g1009
g3
(g8
g9
(lp1515
g3
(g4
g5
(dp1516
g17
S'String'
p1517
sg15
S'xjob'
p1518
sg20
S'The job name'
p1519
stRp1520
ag3
(g4
g5
(dp1521
g17
S'Text'
p1522
sg15
S'xdescription'
p1523
sg20
S'Jobdescription'
p1524
stRp1525
atRp1526
sg15
S'JobDesc'
p1527
stRp1528
ag3
(g4
g5
(dp1529
g1009
g3
(g8
g9
(lp1530
g3
(g4
g5
(dp1531
g17
S'Domain'
p1532
sg15
S'name'
p1533
sg20
S'Name of the label'
p1534
stRp1535
ag3
(g4
g5
(dp1536
g17
S'File'
p1537
sg15
S'depotFile'
p1538
sg20
S'File name'
p1539
stRp1540
ag3
(g4
g5
(dp1541
g17
S'Rev'
p1542
sg15
S'haveRev'
p1543
sg20
S'The revision of the file in the label'
p1544
stRp1545
atRp1546
sg15
S'Label'
p1547
stRp1548
ag3
(g4
g5
(dp1549
g1009
g3
(g8
g9
(lp1550
g3
(g4
g5
(dp1551
g17
S'File'
p1552
sg15
S'depotFile'
p1553
sg20
S'File in depot'
p1554
stRp1555
ag3
(g4
g5
(dp1556
g17
S'Domain'
p1557
sg15
S'client'
p1558
sg20
S'Domain (client) in which file is open'
p1559
stRp1560
ag3
(g4
g5
(dp1561
g17
S'User'
p1562
sg15
S'user'
p1563
sg20
S'User who presently has the file open'
p1564
stRp1565
ag3
(g4
g5
(dp1566
g17
S'Action'
p1567
sg15
S'action'
p1568
sg20
S'Action file is open for: add, edit, delete, branch,\n\t\t    integrate, or import'
p1569
stRp1570
ag3
(g4
g5
(dp1571
g17
S'Int'
p1572
sg15
S'isLocked'
p1573
sg20
S'Flag: 0 for unlocked, 1 for locked'
p1574
stRp1575
ag3
(g4
g5
(dp1576
g17
S'Int'
p1577
sg15
S'change'
p1578
sg20
S'Changelist in which the revision is open: 0 for the\n\t\t    default changelist'
p1579
stRp1580
atRp1581
sg15
S'Locks'
p1582
stRp1583
ag3
(g4
g5
(dp1584
g1009
g3
(g8
g9
(lp1585
g3
(g4
g5
(dp1586
g17
S'Int'
p1587
sg15
S'seq'
p1588
sg20
S'Sequence number of event'
p1589
stRp1590
ag3
(g4
g5
(dp1591
g17
S'String'
p1592
sg15
S'key'
p1593
sg20
S"Either the word 'change' or the word 'job'"
p1594
stRp1595
ag3
(g4
g5
(dp1596
g17
S'String'
p1597
sg15
S'attr'
p1598
sg20
S'The number of the change, or name of the job that was \n\t\t    altered.'
p1599
stRp1600
atRp1601
sg15
S'Logger'
p1602
stRp1603
ag3
(g4
g5
(dp1604
g1009
g3
(g8
g9
(lp1605
g3
(g4
g5
(dp1606
g17
S'String'
p1607
sg15
S'language'
p1608
sg20
S'The language for which this message applies'
p1609
stRp1610
ag3
(g4
g5
(dp1611
g17
S'Int'
p1612
sg15
S'id'
p1613
sg20
S'The message number'
p1614
stRp1615
ag3
(g4
g5
(dp1616
g17
S'String'
p1617
sg15
S'message'
p1618
sg20
S'The message text'
p1619
stRp1620
atRp1621
sg15
S'Message'
p1622
stRp1623
ag3
(g4
g5
(dp1624
g1009
g3
(g8
g9
(lp1625
g3
(g4
g5
(dp1626
g17
S'Int'
p1627
sg15
S'id'
p1628
sg20
S'Thread/process id'
p1629
stRp1630
ag3
(g4
g5
(dp1631
g17
S'User'
p1632
sg15
S'user'
p1633
sg20
S'Username of the user running the command'
p1634
stRp1635
ag3
(g4
g5
(dp1636
g17
S'String'
p1637
sg15
S'function'
p1638
sg20
S'The command being executed.'
p1639
stRp1640
ag3
(g4
g5
(dp1641
g17
S'String'
p1642
sg15
S'args'
p1643
sg20
S'Arguments passed to the command'
p1644
stRp1645
ag3
(g4
g5
(dp1646
g17
S'Date'
p1647
sg15
S'startDate'
p1648
sg20
S'The date and time the command started'
p1649
stRp1650
ag3
(g4
g5
(dp1651
g17
S'Int'
p1652
sg15
S'runstate'
p1653
sg20
S'Flag: 0 for running, 1 for terminated'
p1654
stRp1655
ag3
(g4
g5
(dp1656
g17
S'Domain'
p1657
sg15
S'client'
p1658
sg20
S'The client workspace'
p1659
stRp1660
ag3
(g4
g5
(dp1661
g17
S'Text'
p1662
sg15
S'host'
p1663
sg20
S'The IP address of the client'
p1664
stRp1665
ag3
(g4
g5
(dp1666
g17
S'Text'
p1667
sg15
S'prog'
p1668
sg20
S'The name (and version) of the client program'
p1669
stRp1670
atRp1671
sg15
S'Monitor'
p1672
stRp1673
ag3
(g4
g5
(dp1674
g1009
g3
(g8
g9
(lp1675
g3
(g4
g5
(dp1676
g17
S'Int'
p1677
sg15
S'seq'
p1678
sg20
S'Sequence number: for ordering the protections table'
p1679
stRp1680
ag3
(g4
g5
(dp1681
g17
S'Int'
p1682
sg15
S'isGroup'
p1683
sg20
S'Flag: 0 for a per-user setting, 1 for a per-group setting.'
p1684
stRp1685
ag3
(g4
g5
(dp1686
g17
S'UserWild'
p1687
sg15
S'user'
p1688
sg20
S'User(s), or Group(s) for whom this record applies.'
p1689
stRp1690
ag3
(g4
g5
(dp1691
g17
S'DomainWild'
p1692
sg15
S'host'
p1693
sg20
S'Domain(s) (IP addresses) for which this record applies.'
p1694
stRp1695
ag3
(g4
g5
(dp1696
g17
S'Perm'
p1697
sg15
S'perm'
p1698
sg20
S'Permissions to be granted/revoked'
p1699
stRp1700
ag3
(g4
g5
(dp1701
g17
S'MapFlag'
p1702
sg15
S'mapFlag'
p1703
sg20
S'Flag: Map the files in or out?'
p1704
stRp1705
ag3
(g4
g5
(dp1706
g17
S'Mapping'
p1707
sg15
S'depotFile'
p1708
sg20
S'Files to be mapped in or out.'
p1709
stRp1710
atRp1711
sg15
S'Protect'
p1712
stRp1713
ag3
(g4
g5
(dp1714
g1009
g3
(g8
g9
(lp1715
g3
(g4
g5
(dp1716
g17
S'File'
p1717
sg15
S'toFile'
p1718
sg20
S'File to which integration is being performed (target).'
p1719
stRp1720
ag3
(g4
g5
(dp1721
g17
S'File'
p1722
sg15
S'fromFile'
p1723
sg20
S'File from which integration is being performed (source).'
p1724
stRp1725
ag3
(g4
g5
(dp1726
g17
S'Rev'
p1727
sg15
S'startFromRev'
p1728
sg20
S'Starting revision of fromFile'
p1729
stRp1730
ag3
(g4
g5
(dp1731
g17
S'Rev'
p1732
sg15
S'endFromRev'
p1733
sg20
S'Ending revision of fromFile. If integrating from a single \n\t\t    revision (not a revision range), the startFromRev and \n\t\t    endFromRev fields will be identical.'
p1734
stRp1735
ag3
(g4
g5
(dp1736
g17
S'Rev'
p1737
sg15
S'startToRev'
p1738
sg20
S'Start revision of toFile into which integration was \n\t\t    performed.'
p1739
stRp1740
ag3
(g4
g5
(dp1741
g17
S'Rev'
p1742
sg15
S'endToRev'
p1743
sg20
S'End revision of toFile into which integration was \n\t\t    performed. Only varies from startToRev for reverse \n\t\t    integration records.'
p1744
stRp1745
ag3
(g4
g5
(dp1746
g17
S'IntegHow'
p1747
sg15
S'how'
p1748
sg20
S'Integration method: variations on \n\t\t    merge/branch/copy/ignore/delete.'
p1749
stRp1750
ag3
(g4
g5
(dp1751
g17
S'ResolvedStatus'
p1752
sg15
S'resolved'
p1753
sg20
S'How the user performed the resolve.'
p1754
stRp1755
ag3
(g4
g5
(dp1756
g17
S'File'
p1757
sg15
S'baseFile'
p1758
sg20
S'File used as the base for merging.'
p1759
stRp1760
ag3
(g4
g5
(dp1761
g17
S'Rev'
p1762
sg15
S'baseRev'
p1763
sg20
S'Revision of baseFile used as the merge base.'
p1764
stRp1765
atRp1766
sg15
S'Resolve'
p1767
stRp1768
ag3
(g4
g5
(dp1769
g1009
g3
(g8
g9
(lp1770
g3
(g4
g5
(dp1771
g17
S'File'
p1772
sg15
S'depotFile'
p1773
sg20
S'The file name'
p1774
stRp1775
ag3
(g4
g5
(dp1776
g17
S'Rev'
p1777
sg15
S'depotRev'
p1778
sg20
S'The revision number'
p1779
stRp1780
ag3
(g4
g5
(dp1781
g17
S'FileType'
p1782
sg15
S'type'
p1783
sg20
S'The file type of the revision'
p1784
stRp1785
ag3
(g4
g5
(dp1786
g17
S'Action'
p1787
sg15
S'action'
p1788
sg20
S'The action that created the revision'
p1789
stRp1790
ag3
(g4
g5
(dp1791
g17
S'Change'
p1792
sg15
S'change'
p1793
sg20
S'The changelist that created the revision'
p1794
stRp1795
ag3
(g4
g5
(dp1796
g17
S'Date'
p1797
sg15
S'date'
p1798
sg20
S'The date/time the changelist that created the revision\n\t\t    was submitted'
p1799
stRp1800
ag3
(g4
g5
(dp1801
g17
S'Date'
p1802
sg15
S'modTime'
p1803
sg20
S"The timestamp on the file in the user's workspace when\n\t\t    the revision was submitted."
p1804
stRp1805
ag3
(g4
g5
(dp1806
g17
S'Digest'
p1807
sg15
S'digest'
p1808
sg20
S'The MD5 digest of the revision.'
p1809
stRp1810
ag3
(g4
g5
(dp1811
g17
S'FileSize'
p1812
sg15
S'size'
p1813
sg20
S'The size of the file in bytes'
p1814
stRp1815
ag3
(g4
g5
(dp1816
g17
S'TraitLot'
p1817
sg15
S'traitLot'
p1818
sg20
S'Group of traits (attributes) associated with the revision.'
p1819
stRp1820
ag3
(g4
g5
(dp1821
g17
S'Int'
p1822
sg15
S'lbrIsLazy'
p1823
sg20
S'Flag specifying whether or not the revision gets its\n\t\t    content from another file (i.e. whether or not depotFile\n\t\t    and lbrFile differ)'
p1824
stRp1825
ag3
(g4
g5
(dp1826
g17
S'File'
p1827
sg15
S'lbrFile'
p1828
sg20
S"Filename for librarian's purposes.  Specifies location in \n\t\t    the archives where the file containing the revision may\n\t\t    be found. Usually the same as depotFile, but differs in\n\t\t    the case of branched/copied revisions."
p1829
stRp1830
ag3
(g4
g5
(dp1831
g17
S'Rev'
p1832
sg15
S'lbrRev'
p1833
sg20
S'The revision of lbrFile that contains the revision content.\n\t\t    Usually the same as depotRev, but differs in the case of\n\t\t    branched/copied revisions.'
p1834
stRp1835
ag3
(g4
g5
(dp1836
g17
S'FileType'
p1837
sg15
S'lbrType'
p1838
sg20
S'The file type of the librarian revision. Usually the same\n\t\t    as type, but differs in the case of branched/copied \n\t\t    revisions.'
p1839
stRp1840
atRp1841
sg15
S'Rev'
p1842
stRp1843
ag3
(g4
g5
(dp1844
g1009
g3
(g8
g9
(lp1845
g3
(g4
g5
(dp1846
g17
S'Change'
p1847
sg15
S'change'
p1848
sg20
S'The changelist that created the revision'
p1849
stRp1850
ag3
(g4
g5
(dp1851
g17
S'File'
p1852
sg15
S'depotFile'
p1853
sg20
S'The file name'
p1854
stRp1855
ag3
(g4
g5
(dp1856
g17
S'Rev'
p1857
sg15
S'depotRev'
p1858
sg20
S'The revision number'
p1859
stRp1860
ag3
(g4
g5
(dp1861
g17
S'Action'
p1862
sg15
S'action'
p1863
sg20
S'The action that created the revision'
p1864
stRp1865
atRp1866
sg15
S'RevCx'
p1867
stRp1868
ag3
(g4
g5
(dp1869
g1009
g3
(g8
g9
(lp1870
g3
(g4
g5
(dp1871
g17
S'User'
p1872
sg15
S'user'
p1873
sg20
S'A user name'
p1874
stRp1875
ag3
(g4
g5
(dp1876
g17
S'Int'
p1877
sg15
S'seq'
p1878
sg20
S'Sequence number: used for ordering multi-line views'
p1879
stRp1880
ag3
(g4
g5
(dp1881
g17
S'MapFlag'
p1882
sg15
S'mapFlag'
p1883
sg20
S'Type of mapping'
p1884
stRp1885
ag3
(g4
g5
(dp1886
g17
S'Mapping'
p1887
sg15
S'depotFile'
p1888
sg20
S'The files to be reviewed'
p1889
stRp1890
ag3
(g4
g5
(dp1891
g17
S'Reviewer'
p1892
sg15
S'type'
p1893
sg20
S'Type of reviewer'
p1894
stRp1895
atRp1896
sg15
S'Review'
p1897
stRp1898
ag3
(g4
g5
(dp1899
g1009
g3
(g8
g9
(lp1900
g3
(g4
g5
(dp1901
g17
S'Int'
p1902
sg15
S'traitLot'
p1903
sg20
S'Indicates a specific collection of traits (referred to \n\t\t    externally as "attributes".)'
p1904
stRp1905
ag3
(g4
g5
(dp1906
g17
S'String'
p1907
sg15
S'name'
p1908
sg20
S'Trait (attribute) name'
p1909
stRp1910
ag3
(g4
g5
(dp1911
g17
S'TraitType'
p1912
sg15
S'type'
p1913
sg20
S'Type of trait'
p1914
stRp1915
ag3
(g4
g5
(dp1916
g17
S'Octet'
p1917
sg15
S'value'
p1918
sg20
S'The value'
p1919
stRp1920
atRp1921
sg15
S'Trait'
p1922
stRp1923
ag3
(g4
g5
(dp1924
g1009
g3
(g8
g9
(lp1925
g3
(g4
g5
(dp1926
g17
S'Int'
p1927
sg15
S'seq'
p1928
sg20
S'Sequence number: for ordering the trigger list'
p1929
stRp1930
ag3
(g4
g5
(dp1931
g17
S'String'
p1932
sg15
S'name'
p1933
sg20
S'Name of the trigger'
p1934
stRp1935
ag3
(g4
g5
(dp1936
g17
S'MapFlag'
p1937
sg15
S'mapFlag'
p1938
sg20
S'Type of mapping: specifies whether the trigger applies \n\t\t    to the files or not.'
p1939
stRp1940
ag3
(g4
g5
(dp1941
g17
S'Mapping'
p1942
sg15
S'depotFile'
p1943
sg20
S'The files to apply the trigger to'
p1944
stRp1945
ag3
(g4
g5
(dp1946
g17
S'Trigger'
p1947
sg15
S'trigger'
p1948
sg20
S'Type of trigger'
p1949
stRp1950
ag3
(g4
g5
(dp1951
g17
S'Text'
p1952
sg15
S'action'
p1953
sg20
S'Command to execute when trigger runs'
p1954
stRp1955
atRp1956
sg15
S'Trigger'
p1957
stRp1958
ag3
(g4
g5
(dp1959
g1009
g3
(g8
g9
(lp1960
g3
(g4
g5
(dp1961
g17
S'User'
p1962
sg15
S'user'
p1963
sg20
S'The username'
p1964
stRp1965
ag3
(g4
g5
(dp1966
g17
S'Text'
p1967
sg15
S'email'
p1968
sg20
S"The user's email address"
p1969
stRp1970
ag3
(g4
g5
(dp1971
g17
S'Text'
p1972
sg15
S'jobView'
p1973
sg20
S"The user's job view"
p1974
stRp1975
ag3
(g4
g5
(dp1976
g17
S'Date'
p1977
sg15
S'updateDate'
p1978
sg20
S'The date/time the user record was last updated'
p1979
stRp1980
ag3
(g4
g5
(dp1981
g17
S'Date'
p1982
sg15
S'accessDate'
p1983
sg20
S'The date/time the user record was last used'
p1984
stRp1985
ag3
(g4
g5
(dp1986
g17
S'Text'
p1987
sg15
S'fullName'
p1988
sg20
S"The user's full name"
p1989
stRp1990
ag3
(g4
g5
(dp1991
g17
S'Password'
p1992
sg15
S'password'
p1993
sg20
S'The MD5 hash of the users (encrypted) password'
p1994
stRp1995
ag3
(g4
g5
(dp1996
g17
S'Strength'
p1997
sg15
S'strength'
p1998
sg20
S"Measure of the strength of the user's password"
p1999
stRp2000
ag3
(g4
g5
(dp2001
g17
S'Password'
p2002
sg15
S'ticket'
p2003
sg20
S"'p4 login' ticket for this user"
p2004
stRp2005
ag3
(g4
g5
(dp2006
g17
S'Date'
p2007
sg15
S'endDate'
p2008
sg20
S"Date/time the user's ticket expires"
p2009
stRp2010
atRp2011
sg15
S'User'
p2012
stRp2013
ag3
(g4
g5
(dp2014
g1009
g3
(g8
g9
(lp2015
g3
(g4
g5
(dp2016
g17
S'Domain'
p2017
sg15
S'name'
p2018
sg20
S'Domain name to which this view applies'
p2019
stRp2020
ag3
(g4
g5
(dp2021
g17
S'Int'
p2022
sg15
S'seq'
p2023
sg20
S'Sequence number: for ordering multi-line views'
p2024
stRp2025
ag3
(g4
g5
(dp2026
g17
S'MapFlag'
p2027
sg15
S'mapFlag'
p2028
sg20
S'Type of mapping'
p2029
stRp2030
ag3
(g4
g5
(dp2031
g17
S'Mapping'
p2032
sg15
S'viewFile'
p2033
sg20
S"The right-hand-side of the view. For clients, this is\n\t\t    the client-side, for labels it's the generated label \n\t\t    view. For branches, it's the target side of the branch\n\t\t    view."
p2034
stRp2035
ag3
(g4
g5
(dp2036
g17
S'Mapping'
p2037
sg15
S'depotFile'
p2038
sg20
S'The left-hand-side of the view - a mapping to file(s)\n\t\t    in the depot.'
p2039
stRp2040
atRp2041
sg15
S'View'
p2042
stRp2043
ag3
(g4
g5
(dp2044
g1009
g3
(g8
g9
(lp2045
g3
(g4
g5
(dp2046
g17
S'File'
p2047
sg15
S'clientFile'
p2048
sg20
S'File on the client'
p2049
stRp2050
ag3
(g4
g5
(dp2051
g17
S'File'
p2052
sg15
S'depotFile'
p2053
sg20
S'File in the depot'
p2054
stRp2055
ag3
(g4
g5
(dp2056
g17
S'Domain'
p2057
sg15
S'client'
p2058
sg20
S'The client the file is opened on'
p2059
stRp2060
ag3
(g4
g5
(dp2061
g17
S'User'
p2062
sg15
S'user'
p2063
sg20
S'The user who has the file opened'
p2064
stRp2065
ag3
(g4
g5
(dp2066
g17
S'Rev'
p2067
sg15
S'haveRev'
p2068
sg20
S"Revision presently in user's client workspace.  This is \n\t\t    normally identical to workRev except for the case in which \n\t\t    you've tried to submit a file where you no longer have the \n\t\t    head revision. Perforce schedules the integrate (moves \n\t\t    workRev to headRev, but doesn't change the haveRev, so that \n\t\t    a p4 revert will return the file originally checked-out \n\t\t    instead of the new head revision."
p2069
stRp2070
ag3
(g4
g5
(dp2071
g17
S'Rev'
p2072
sg15
S'workRev'
p2073
sg20
S'Working revision; this is identical to the haveRev except \n\t\t    in the case described above.'
p2074
stRp2075
ag3
(g4
g5
(dp2076
g17
S'Int'
p2077
sg15
S'isVirtual'
p2078
sg20
S'Flag: if 1, file was opened with "p4 integ -v".'
p2079
stRp2080
ag3
(g4
g5
(dp2081
g17
S'FileType'
p2082
sg15
S'type'
p2083
sg20
S'File type'
p2084
stRp2085
ag3
(g4
g5
(dp2086
g17
S'Action'
p2087
sg15
S'action'
p2088
sg20
S"What the user's doing with the file"
p2089
stRp2090
ag3
(g4
g5
(dp2091
g17
S'Change'
p2092
sg15
S'change'
p2093
sg20
S'Associated changelist, or zero for the default changelist.'
p2094
stRp2095
ag3
(g4
g5
(dp2096
g17
S'Date'
p2097
sg15
S'modTime'
p2098
sg20
S'Date when file was opened and added to the pending \n\t\t    changelist.'
p2099
stRp2100
ag3
(g4
g5
(dp2101
g17
S'Int'
p2102
sg15
S'isLocked'
p2103
sg20
S'Flag: 0 for unlocked, 1 for locked.'
p2104
stRp2105
ag3
(g4
g5
(dp2106
g17
S'Digest'
p2107
sg15
S'digest'
p2108
sg20
S'MD5 digest of working file.'
p2109
stRp2110
ag3
(g4
g5
(dp2111
g17
S'Int64'
p2112
sg15
S'size'
p2113
sg20
S'File size'
p2114
stRp2115
ag3
(g4
g5
(dp2116
g17
S'int'
p2117
sg15
S'traitLot'
p2118
sg20
S'Group of traits associated with file revision.'
p2119
stRp2120
ag3
(g4
g5
(dp2121
g17
S'TamperCheck'
p2122
sg15
S'tampered'
p2123
sg20
S'Flag indicating the tamper-state of the file in the\n\t\t    workspace.'
p2124
stRp2125
atRp2126
sg15
S'Working'
p2127
stRp2128
atRp2129
stRp2130
s.