(dp1
S'tables'
p2
ccopy_reg
_reconstructor
p3
(clib.sqUtils
Storage
p4
c__builtin__
dict
p5
(dp6
S'table'
p7
g3
(clib.sqUtils
Lst
p8
c__builtin__
list
p9
(lp10
g3
(g4
g5
(dp11
S'version'
p12
S'1'
sS'classic_lockseq'
p13
S'1'
sS'keying'
p14
S'serverName, name'
p15
sS'peek_lockseq'
p16
S'1'
sS'name'
p17
S'db.config'
p18
sS'type'
p19
S'Config'
p20
sS'desc'
p21
S'Perforce server configurations table'
p22
stRp23
ag3
(g4
g5
(dp24
g12
S'1'
sg13
S'2'
sg14
S'name'
p25
sg16
S'2'
sg17
S'db.counters'
p26
sg19
S'Counters'
p27
sg21
S'Perforce counters table'
p28
stRp29
ag3
(g4
g5
(dp30
g12
S'1'
sg13
S'3'
sg14
S'name'
p31
sg16
S'3'
sg17
S'db.nameval'
p32
sg19
S'Keys'
p33
sg21
S'A table to store key/value pairs'
p34
stRp35
ag3
(g4
g5
(dp36
g12
S'0'
sg13
S'4'
sg14
S'seq'
p37
sg16
S'4'
sg17
S'db.logger'
p38
sg19
S'Logger'
p39
sg21
S"Support for 'p4 logger' command. Logs any changes to \n\t\tchangelists and jobs"
p40
stRp41
ag3
(g4
g5
(dp42
g12
S'0'
sg13
S'5'
sg14
S'id'
p43
sg16
S'5'
sg17
S'db.server'
p44
sg19
S'Server'
p45
sg21
S'Perforce server specifications'
p46
stRp47
ag3
(g4
g5
(dp48
g12
S'0'
sg13
S'6'
sg14
S'id, type, seq'
p49
sg16
S'6'
sg17
S'db.svrview'
p50
sg19
S'SvrView'
p51
sg21
S'View data for servers specifications'
p52
stRp53
ag3
(g4
g5
(dp54
g12
S'6'
sg13
S'7'
sg14
S'user'
p55
sg16
S'7'
sg17
S'db.user.rp'
p56
sg19
S'User'
p57
sg21
S"Used by replica server's to store login information"
p58
stRp59
ag3
(g4
g5
(dp60
g12
S'6'
sg13
S'8'
sg14
S'user'
p61
sg16
S'8'
sg17
S'db.user'
p62
sg19
S'User'
p63
sg21
S'Perforce users'
p64
stRp65
ag3
(g4
g5
(dp66
g12
S'8'
sg13
S'9'
sg14
S'user, group'
p67
sg16
S'9'
sg17
S'db.group'
p68
sg19
S'Group'
p69
sg21
S'Groups of Perforce users'
p70
stRp71
ag3
(g4
g5
(dp72
g12
S'1'
sg13
S'10'
p73
sg14
S'name'
p74
sg16
S'10'
p75
sg17
S'db.depot'
p76
sg19
S'Depot'
p77
sg21
S'Perforce depots'
p78
stRp79
ag3
(g4
g5
(dp80
g12
S'1'
sg13
S'11'
p81
sg14
S'stream'
p82
sg16
S'11'
p83
sg17
S'db.stream'
p84
sg19
S'Stream'
p85
sg21
S'Perforce streams'
p86
stRp87
ag3
(g4
g5
(dp88
g12
S'6'
sg13
S'12'
p89
sg14
S'name'
p90
sg16
S'12'
p91
sg17
S'db.domain'
p92
sg19
S'Domain'
p93
sg21
S'Domains: depots, clients, labels, branches, streams, and typemap'
p94
stRp95
ag3
(g4
g5
(dp96
g12
S'0'
sg13
S'13'
p97
sg14
S'name, change, sequence'
p98
sg16
S'13'
p99
sg17
S'db.template'
p100
sg19
S'Template'
p101
sg21
S'Streams templates'
p102
stRp103
ag3
(g4
g5
(dp104
g12
S'1'
sg13
S'14'
p105
sg14
S'name seq'
p106
sg16
S'14'
p107
sg17
S'db.view.rp'
p108
sg19
S'View'
p109
sg21
S'Contains views for clients of build-server replicas'
p110
stRp111
ag3
(g4
g5
(dp112
g12
S'1'
sg13
S'15'
p113
sg14
S'name, seq'
p114
sg16
S'15'
p115
sg17
S'db.view'
p116
sg19
S'View'
p117
sg21
S'Contains views for domains'
p118
stRp119
ag3
(g4
g5
(dp120
g12
S'1'
sg13
S'16'
p121
sg14
S'user, seq'
p122
sg16
S'16'
p123
sg17
S'db.review'
p124
sg19
S'Review'
p125
sg21
S"Contains user's review mappings"
p126
stRp127
ag3
(g4
g5
(dp128
g14
S'toFile, fromFile, startFromRev, endFromRev, \n\t\tstartToRev, endToRev'
p129
sg16
S'20'
p130
sg17
S'db.integed'
p131
sg12
S'0'
sg13
S'17'
p132
sS'seeAlso'
p133
S'db.resolve'
p134
sg19
S'Integed'
p135
sg21
S'Permanent integration records'
p136
stRp137
ag3
(g4
g5
(dp138
g14
S'toFile, fromFile, startFromRev, endFromRev, \n\t\tstartToRev, endToRev'
p139
sg16
S'21'
p140
sg17
S'db.integtx'
p141
sg12
S'0'
sg13
S'18'
p142
sg133
S'db.resolve'
p143
sg19
S'Integed'
p144
sg21
S'Temporary integration records'
p145
stRp146
ag3
(g4
g5
(dp147
g14
S'toFile, fromFile, startFromRev'
p148
sg16
S'22'
p149
sg17
S'db.resolve'
p150
sg12
S'1'
sg13
S'19'
p151
sg133
S'db.integed'
p152
sg19
S'Resolve'
p153
sg21
S'Pending integration records'
p154
stRp155
ag3
(g4
g5
(dp156
g14
S'toFile, fromFile, startFromRev'
p157
sg16
S'23'
p158
sg17
S'db.resolvex'
p159
sg12
S'1'
sg13
S'20'
p160
sg133
S'db.integed'
p161
sg19
S'Resolve'
p162
sg21
S'Pending integration records for shelved files'
p163
stRp164
ag3
(g4
g5
(dp165
g12
S'2'
sg13
S'21'
p166
sg14
S'clientFile depotFile haveRev'
p167
sg16
S'18'
p168
sg17
S'db.have.rp'
p169
sg19
S'Have'
p170
sg21
S"Contains the 'have-list' for clients of build-server replicas"
p171
stRp172
ag3
(g4
g5
(dp173
g12
S'2'
sg13
S'22'
p174
sg14
S'clientFile'
p175
sg16
S'19'
p176
sg17
S'db.have'
p177
sg19
S'Have'
p178
sg21
S"Contains the 'have-list' for all clients"
p179
stRp180
ag3
(g4
g5
(dp181
g12
S'0'
sg13
S'23'
p182
sg14
S'name, depotFile'
p183
sg16
S'17'
p184
sg17
S'db.label'
p185
sg19
S'Label'
p186
sg21
S'Lists the revisions of files in labels'
p187
stRp188
ag3
(g4
g5
(dp189
g12
S'2'
sg13
S'24'
p190
sg14
S'depotFile, client'
p191
sg16
S'35'
p192
sg17
S'db.locks'
p193
sg19
S'Locks'
p194
sg21
S'Locked/Unlocked files'
p195
stRp196
ag3
(g4
g5
(dp197
g12
S'1'
sg13
S'25'
p198
sg14
S'depotFile'
p199
sg16
S'38'
p200
sg17
S'db.excl'
p201
sg19
S'ExclusiveLock'
p202
sg21
S'Exclusively locked files -  enables coordinated file locking in a Distributed Perforce environment (commit and edge servers)'
p203
stRp204
ag3
(g4
g5
(dp205
g14
S'lbrFile, depotFile'
p206
sg16
S'24'
p207
sg17
S'db.archmap'
p208
sS'note'
p209
S'Supercedes db.archive'
p210
sg12
S'0'
sg13
S'26'
p211
sg19
S'ArchMap'
p212
sg21
S'Mappings entries for lazy-copies'
p213
stRp214
ag3
(g4
g5
(dp215
g12
S'9'
sg13
S'27'
p216
sg14
S'depotFile, depotRev'
p217
sg16
S'33'
p218
sg17
S'db.rev'
p219
sg19
S'Rev'
p220
sg21
S'Revision records'
p221
stRp222
ag3
(g4
g5
(dp223
g12
S'9'
sg13
S'28'
p224
sg14
S'depotFile, depotRev'
p225
sg16
S'34'
p226
sg17
S'db.revtx'
p227
sg19
S'Rev'
p228
sg21
S'Temporary revision records'
p229
stRp230
ag3
(g4
g5
(dp231
g12
S'0'
sg13
S'29'
p232
sg14
S'change, depotFile'
p233
sg16
S'32'
p234
sg17
S'db.revcx'
p235
sg19
S'RevCx'
p236
sg21
S'Secondary index of db.rev'
p237
stRp238
ag3
(g4
g5
(dp239
g12
S'9'
sg13
S'30'
p240
sg14
S'depotFile'
p241
sg16
S'25'
p242
sg17
S'db.revdx'
p243
sg19
S'Rev'
p244
sg21
S'Revision records for revisions deleted at the head revision'
p245
stRp246
ag3
(g4
g5
(dp247
g12
S'9'
sg13
S'31'
p248
sg14
S'depotFile'
p249
sg16
S'26'
p250
sg17
S'db.revhx'
p251
sg19
S'Rev'
p252
sg21
S'Revision records for revisions NOT deleted at the head revision'
p253
stRp254
ag3
(g4
g5
(dp255
g14
S'depotFile, depotRev'
p256
sg16
S'27'
p257
sg17
S'db.revpx'
p258
sg209
S'Only populated during content trigger execution to allow \n\t\ttriggers access to the revisions being submitted.'
p259
sg12
S'9'
sg13
S'32'
p260
sg19
S'Rev'
p261
sg21
S'Pending revision records'
p262
stRp263
ag3
(g4
g5
(dp264
g12
S'9'
sg13
S'33'
p265
sg14
S'depotFile, depotRev'
p266
sg16
S'28'
p267
sg17
S'db.revsx'
p268
sg19
S'Rev'
p269
sg21
S'Revision records for spec depot files'
p270
stRp271
ag3
(g4
g5
(dp272
g12
S'9'
sg13
S'34'
p273
sg14
S'depotFile, depotRev, type, action, change'
p274
sg16
S'29'
p275
sg17
S'db.revsh'
p276
sg19
S'Rev'
p277
sg21
S'Revision records for shelved files'
p278
stRp279
ag3
(g4
g5
(dp280
g12
S'9'
sg13
S'35'
p281
sg14
S'depotFile, depotRev'
p282
sg16
S'30'
p283
sg17
S'db.revbx'
p284
sg19
S'Rev'
p285
sg21
S'Revision records for archived files'
p286
stRp287
ag3
(g4
g5
(dp288
g12
S'9'
sg13
S'36'
p289
sg14
S'depotFile'
p290
sg16
S'31'
p291
sg17
S'db.revux'
p292
sg19
S'Rev'
p293
sg21
S'Revision records for unload depot files'
p294
stRp295
ag3
(g4
g5
(dp296
g12
S'10'
p297
sg13
S'37'
p298
sg14
S'clientFile'
p299
sg16
S'36'
p300
sg17
S'db.working'
p301
sg19
S'Working'
p302
sg21
S'Records for work in progress'
p303
stRp304
ag3
(g4
g5
(dp305
g12
S'10'
p306
sg13
S'38'
p307
sg14
S'clientFile'
p308
sg16
S'37'
p309
sg17
S'db.workingx'
p310
sg19
S'Working'
p311
sg21
S'Records for shelved open files'
p312
stRp313
ag3
(g4
g5
(dp314
g12
S'0'
sg13
S'39'
p315
sg14
S'traitLot, name'
p316
sg16
S'39'
p317
sg17
S'db.traits'
p318
sg19
S'Trait'
p319
sg21
S'Attributes associated with file revisions'
p320
stRp321
ag3
(g4
g5
(dp322
g12
S'2'
sg13
S'40'
p323
sg14
S'seq'
p324
sg16
S'40'
p325
sg17
S'db.trigger'
p326
sg19
S'Trigger'
p327
sg21
S'Trigger specifications'
p328
stRp329
ag3
(g4
g5
(dp330
g12
S'2'
sg13
S'41'
p331
sg14
S'change'
p332
sg16
S'41'
p333
sg17
S'db.change'
p334
sg19
S'Change'
p335
sg21
S'Changelists'
p336
stRp337
ag3
(g4
g5
(dp338
g14
S'change'
p339
sg16
S'42'
p340
sg17
S'db.changex'
p341
sg209
S'contains records for pending changelists only.'
p342
sg12
S'2'
sg13
S'42'
p343
sg19
S'Change'
p344
sg21
S'Subset of db.change - records for pending changelists only'
p345
stRp346
ag3
(g4
g5
(dp347
g12
S'0'
sg13
S'43'
p348
sg14
S'descKey'
p349
sg16
S'43'
p350
sg17
S'db.desc'
p351
sg19
S'Desc'
p352
sg21
S'Change descriptions'
p353
stRp354
ag3
(g4
g5
(dp355
g14
S'job'
p356
sg16
S'44'
p357
sg17
S'db.job'
p358
sg12
S'0'
sg13
S'44'
p359
sg133
S'db.bodtext'
p360
sg19
S'Job'
p361
sg21
S'Job records'
p362
stRp363
ag3
(g4
g5
(dp364
g14
S'job, change'
p365
sg16
S'45'
p366
sg17
S'db.fix'
p367
sg12
S'1'
sg13
S'45'
p368
sg133
S'db.fixrev'
p369
sg19
S'Fix'
p370
sg21
S'Fix records - indexed by job'
p371
stRp372
ag3
(g4
g5
(dp373
g14
S'change, job'
p374
sg16
S'46'
p375
sg17
S'db.fixrev'
p376
sg12
S'1'
sg13
S'46'
p377
sg133
S'db.fix'
p378
sg19
S'Fix'
p379
sg21
S'Fix records - indexed by change'
p380
stRp381
ag3
(g4
g5
(dp382
g12
S'1'
sg13
S'47'
p383
sg14
S'key, attr'
p384
sg16
S'47'
p385
sg17
S'db.bodtext'
p386
sg19
S'BodyText'
p387
sg21
S'Job data for job attributes'
p388
stRp389
ag3
(g4
g5
(dp390
g12
S'0'
sg13
S'48'
p391
sg14
S'word, attr, value'
p392
sg16
S'48'
p393
sg17
S'db.ixtext'
p394
sg19
S'IndexText'
p395
sg21
S'Indexing data for generic and job attributes'
p396
stRp397
ag3
(g4
g5
(dp398
g12
S'0'
sg13
S'49'
p399
sg14
S'word, attr, value'
p400
sg16
S'49'
p401
sg17
S'db.uxtext'
p402
sg19
S'IndexText'
p403
sg21
S'Indexing data for Swarm'
p404
stRp405
ag3
(g4
g5
(dp406
g12
S'4'
sg13
S'50'
p407
sg14
S'seq'
p408
sg16
S'50'
p409
sg17
S'db.protect'
p410
sg19
S'Protect'
p411
sg21
S'The protections table'
p412
stRp413
ag3
(g4
g5
(dp414
g12
S'0'
sg13
S'51'
p415
sg14
S'name, seq, type, scope'
p416
sg16
S'51'
p417
sg17
S'db.property'
p418
sg19
S'Property'
p419
sg21
S'Properties'
p420
stRp421
ag3
(g4
g5
(dp422
g12
S'0'
sg13
S'52'
p423
sg14
S'language, id'
p424
sg16
S'52'
p425
sg17
S'db.message'
p426
sg19
S'Message'
p427
sg21
S'System messages'
p428
stRp429
ag3
(g4
g5
(dp430
g12
S'0'
sg13
S'53'
p431
sg14
S'taskid, seq'
p432
sg16
S'53'
p433
sg17
S'db.sendq'
p434
sg19
S'SendQ'
p435
sg21
S'Parallel file transmission work queue'
p436
stRp437
ag3
(g4
g5
(dp438
g12
S'1'
sg13
S'54'
p439
sg14
S'id'
p440
sg16
S'54'
p441
sg17
S'db.monitor'
p442
sg19
S'Monitor'
p443
sg21
S'Perforce process information'
p444
stRp445
ag3
(g4
g5
(dp446
g19
S'ReplicaArchiveTransfer'
p447
sg17
S'rdb.lbr'
p448
sg21
S'Replica server pending archive transfer table'
p449
stRp450
ag3
(g4
g5
(dp451
g19
S'TinyDb'
p452
sg14
S'fileAndRev'
p453
sg17
S'tiny.db'
p454
sg21
S'Records revision and content data for files using the +T file type modifier'
p455
stRp456
atRp457
stRp458
sg12
S'2014.1'
p459
sS'numUpgrades'
p460
S'23'
p461
sS'recordtypes'
p462
g3
(g4
g5
(dp463
S'record'
p464
g3
(g8
g9
(lp465
g3
(g4
g5
(dp466
S'column'
p467
g3
(g8
g9
(lp468
g3
(g4
g5
(dp469
g19
S'File'
p470
sg17
S'lbrFile'
p471
sg21
S"Specifies the location in the librarian's archives where\n\t\t    the revision may be found"
p472
stRp473
ag3
(g4
g5
(dp474
g19
S'String'
p475
sg17
S'lbrRev'
p476
sg21
S"Revision in the librarian's archives"
p477
stRp478
ag3
(g4
g5
(dp479
g19
S'File'
p480
sg17
S'depotFile'
p481
sg21
S'Name of the file in the depot'
p482
stRp483
ag3
(g4
g5
(dp484
g19
S'Rev'
p485
sg17
S'depotRev'
p486
sg21
S'Name of the file in the depot'
p487
stRp488
ag3
(g4
g5
(dp489
g19
S'FileType'
p490
sg17
S'lbrType'
p491
sg21
S"File type for librarian's purposes"
p492
stRp493
atRp494
sg17
S'Archive'
p495
stRp496
ag3
(g4
g5
(dp497
g467
g3
(g8
g9
(lp498
g3
(g4
g5
(dp499
g19
S'File'
p500
sg17
S'lbrFile'
p501
sg21
S'Paths in the librarian namespace that recieve lazy\n\t\t    copies.'
p502
stRp503
ag3
(g4
g5
(dp504
g19
S'File'
p505
sg17
S'depotFile'
p506
sg21
S'Paths in the depot namespace that provide lazy copies.'
p507
stRp508
atRp509
sg17
S'ArchMap'
p510
stRp511
ag3
(g4
g5
(dp512
g467
g3
(g8
g9
(lp513
g3
(g4
g5
(dp514
g19
S'String'
p515
sg17
S'key'
p516
sg21
S'The job to which this attribute belongs'
p517
stRp518
ag3
(g4
g5
(dp519
g19
S'Int'
p520
sg17
S'attr'
p521
sg21
S'The attribute number (from the jobspec) of this attribute'
p522
stRp523
ag3
(g4
g5
(dp524
g19
S'Date'
p525
sg17
S'date'
p526
sg21
S'The date value itself'
p527
stRp528
atRp529
sg17
S'BodyDate'
p530
stRp531
ag3
(g4
g5
(dp532
g467
g3
(g8
g9
(lp533
g3
(g4
g5
(dp534
g19
S'String'
p535
sg17
S'key'
p536
sg21
S'The job to which this attribute belongs'
p537
stRp538
ag3
(g4
g5
(dp539
g19
S'Int'
p540
sg17
S'attr'
p541
sg21
S'The attribute number (from the jobspec) of this attribute'
p542
stRp543
ag3
(g4
g5
(dp544
g19
S'Int'
p545
sg17
S'isBulk'
p546
sg21
S'Indicates whether (1), or not (0) the field is a bulk\n\t\t    text field that should not be indexed.'
p547
stRp548
ag3
(g4
g5
(dp549
g19
S'Text'
p550
sg17
S'text'
p551
sg21
S'The attribute value'
p552
stRp553
atRp554
sg17
S'BodyText'
p555
stRp556
ag3
(g4
g5
(dp557
g467
g3
(g8
g9
(lp558
g3
(g4
g5
(dp559
g19
S'Change'
p560
sg17
S'change'
p561
sg21
S'The change number'
p562
stRp563
ag3
(g4
g5
(dp564
g19
S'Change'
p565
sg17
S'descKey'
p566
sg21
S"The description key. Normally the same as 'change', but\n\t\t    may differ if a changelist was renumbered on submission."
p567
stRp568
ag3
(g4
g5
(dp569
g19
S'Domain'
p570
sg17
S'client'
p571
sg21
S'The client from which the change originates'
p572
stRp573
ag3
(g4
g5
(dp574
g19
S'User'
p575
sg17
S'user'
p576
sg21
S'The user who owns the change'
p577
stRp578
ag3
(g4
g5
(dp579
g19
S'Date'
p580
sg17
S'date'
p581
sg21
S'Date and time the changelist was submitted'
p582
stRp583
ag3
(g4
g5
(dp584
g19
S'ChangeStatus'
p585
sg17
S'status'
p586
sg21
S'Status of the change'
p587
stRp588
ag3
(g4
g5
(dp589
g19
S'DescShort'
p590
sg17
S'description'
p591
sg21
S'Short description of the change.'
p592
stRp593
ag3
(g4
g5
(dp594
g19
S'Mapping'
p595
sg17
S'root'
p596
sg21
S'Common path for all files in the changelist'
p597
stRp598
atRp599
sg17
S'Change'
p600
stRp601
ag3
(g4
g5
(dp602
g467
g3
(g8
g9
(lp603
g3
(g4
g5
(dp604
g19
S'String'
p605
sg17
S'sname'
p606
sg21
S'Server name'
p607
stRp608
ag3
(g4
g5
(dp609
g19
S'String'
p610
sg17
S'name'
p611
sg21
S'Configuration variable name'
p612
stRp613
ag3
(g4
g5
(dp614
g19
S'Value'
p615
sg17
S'value'
p616
sg21
S'Configuration variable value'
p617
stRp618
atRp619
sg17
S'Config'
p620
stRp621
ag3
(g4
g5
(dp622
g467
g3
(g8
g9
(lp623
g3
(g4
g5
(dp624
g19
S'Counter'
p625
sg17
S'name'
p626
sg21
S'Counter name'
p627
stRp628
ag3
(g4
g5
(dp629
g19
S'Value'
p630
sg17
S'value'
p631
sg21
S'Counter value'
p632
stRp633
atRp634
sg17
S'Counters'
p635
stRp636
ag3
(g4
g5
(dp637
g467
g3
(g8
g9
(lp638
g3
(g4
g5
(dp639
g19
S'Domain'
p640
sg17
S'name'
p641
sg21
S'Depot name'
p642
stRp643
ag3
(g4
g5
(dp644
g19
S'DepotType'
p645
sg17
S'type'
p646
sg21
S'Type of depot'
p647
stRp648
ag3
(g4
g5
(dp649
g19
S'Text'
p650
sg17
S'extra'
p651
sg21
S'For remote depots, the P4PORT address of the remote server.\n\t\t    For spec depots, the field contains a suffix to append to \n\t\t    the filename.'
p652
stRp653
ag3
(g4
g5
(dp654
g19
S'Text'
p655
sg17
S'map'
p656
sg21
S"The depot's map (path translation information).  For local \n\t\t    depots, this will be a path relative to the root directory.\n\t\t    For remote depots, this will be specified in terms of the \n\t\t    remote server's namespace."
p657
stRp658
atRp659
sg17
S'Depot'
p660
stRp661
ag3
(g4
g5
(dp662
g467
g3
(g8
g9
(lp663
g3
(g4
g5
(dp664
g19
S'Change'
p665
sg17
S'descKey'
p666
sg21
S'Original number of the change to which this description\n\t\t    applies. This may differ from the final change number if\n\t\t    the change is renumbered on submission.'
p667
stRp668
ag3
(g4
g5
(dp669
g19
S'Text'
p670
sg17
S'description'
p671
sg21
S'The change description itself'
p672
stRp673
atRp674
sg17
S'Desc'
p675
stRp676
ag3
(g4
g5
(dp677
g467
g3
(g8
g9
(lp678
g3
(g4
g5
(dp679
g19
S'Domain'
p680
sg17
S'name'
p681
sg21
S'Domain name'
p682
stRp683
ag3
(g4
g5
(dp684
g19
S'DomainType'
p685
sg17
S'type'
p686
sg21
S'Type of domain'
p687
stRp688
ag3
(g4
g5
(dp689
g19
S'Text'
p690
sg17
S'extra'
p691
sg21
S'Formerly "host". Associated host or, for labels, revision \n\t\t    number.'
p692
stRp693
ag3
(g4
g5
(dp694
g19
S'Text'
p695
sg17
S'mount'
p696
sg21
S'The client root'
p697
stRp698
ag3
(g4
g5
(dp699
g19
S'Text'
p700
sg17
S'mount2'
p701
sg21
S'Alternate client root'
p702
stRp703
ag3
(g4
g5
(dp704
g19
S'Text'
p705
sg17
S'mount3'
p706
sg21
S'Alternate client root'
p707
stRp708
ag3
(g4
g5
(dp709
g19
S'User'
p710
sg17
S'owner'
p711
sg21
S'Name of user who owns the domain.'
p712
stRp713
ag3
(g4
g5
(dp714
g19
S'Date'
p715
sg17
S'updateDate'
p716
sg21
S'Date of last update to domain specification.'
p717
stRp718
ag3
(g4
g5
(dp719
g19
S'Date'
p720
sg17
S'accessDate'
p721
sg21
S'Date of last access to domain specification.'
p722
stRp723
ag3
(g4
g5
(dp724
g19
S'DomainOpts'
p725
sg17
S'options'
p726
sg21
S'Options for client, label, and branch domains.'
p727
stRp728
ag3
(g4
g5
(dp729
g19
S'Text'
p730
sg17
S'description'
p731
sg21
S'Description of domain.'
p732
stRp733
ag3
(g4
g5
(dp734
g19
S'Text'
p735
sg17
S'stream'
p736
sg21
S'Associated stream for client records'
p737
stRp738
ag3
(g4
g5
(dp739
g19
S'Text'
p740
sg17
S'serverid'
p741
sg21
S'Associated server ID for client records'
p742
stRp743
ag3
(g4
g5
(dp744
g19
S'Int'
p745
sg17
S'partition'
p746
sg21
S'Currently unused. Reserved for future use'
p747
stRp748
atRp749
sg17
S'Domain'
p750
stRp751
ag3
(g4
g5
(dp752
g467
g3
(g8
g9
(lp753
g3
(g4
g5
(dp754
g19
S'File'
p755
sg17
S'depotFile'
p756
sg21
S'The file locked'
p757
stRp758
ag3
(g4
g5
(dp759
g19
S'Domain'
p760
sg17
S'client'
p761
sg21
S'The client for which the file is locked'
p762
stRp763
ag3
(g4
g5
(dp764
g19
S'User'
p765
sg17
S'user'
p766
sg21
S'The user for which the file is locked'
p767
stRp768
atRp769
sg17
S'ExclusiveLock'
p770
stRp771
ag3
(g4
g5
(dp772
g467
g3
(g8
g9
(lp773
g3
(g4
g5
(dp774
g19
S'String'
p775
sg17
S'job'
p776
sg21
S'Job name'
p777
stRp778
ag3
(g4
g5
(dp779
g19
S'Change'
p780
sg17
S'change'
p781
sg21
S'Changelist number'
p782
stRp783
ag3
(g4
g5
(dp784
g19
S'Date'
p785
sg17
S'date'
p786
sg21
S'Date fix was recorded (may differ from date change was\n\t\t    submitted).'
p787
stRp788
ag3
(g4
g5
(dp789
g19
S'FixStatus'
p790
sg17
S'status'
p791
sg21
S'Status of the job'
p792
stRp793
ag3
(g4
g5
(dp794
g19
S'Domain'
p795
sg17
S'client'
p796
sg21
S'The client where the fix originated'
p797
stRp798
ag3
(g4
g5
(dp799
g19
S'User'
p800
sg17
S'user'
p801
sg21
S'The user who fixed the job'
p802
stRp803
atRp804
sg17
S'Fix'
p805
stRp806
ag3
(g4
g5
(dp807
g467
g3
(g8
g9
(lp808
g3
(g4
g5
(dp809
g19
S'User'
p810
sg17
S'user'
p811
sg21
S'User name'
p812
stRp813
ag3
(g4
g5
(dp814
g19
S'User'
p815
sg17
S'group'
p816
sg21
S'Group name'
p817
stRp818
ag3
(g4
g5
(dp819
g19
S'UserType'
p820
sg17
S'type'
p821
sg21
S'Type of user in this group.'
p822
stRp823
ag3
(g4
g5
(dp824
g19
S'MaxResults'
p825
sg17
S'maxResults'
p826
sg21
S'MaxResults setting for the group.'
p827
stRp828
ag3
(g4
g5
(dp829
g19
S'MaxScanRows'
p830
sg17
S'maxScanRows'
p831
sg21
S'MaxScanRows setting for the group.'
p832
stRp833
ag3
(g4
g5
(dp834
g19
S'MaxLockTime'
p835
sg17
S'maxLockTime'
p836
sg21
S'MaxLockTime setting for the group.'
p837
stRp838
ag3
(g4
g5
(dp839
g19
S'Int'
p840
sg17
S'timeout'
p841
sg21
S'Length of time (in seconds) a login ticket remains valid.'
p842
stRp843
ag3
(g4
g5
(dp844
g19
S'Int'
p845
sg17
S'passwordTimeout'
p846
sg21
S'Length of time (in seconds) a password remains valid for users in the group.'
p847
stRp848
atRp849
sg17
S'Group'
p850
stRp851
ag3
(g4
g5
(dp852
g467
g3
(g8
g9
(lp853
g3
(g4
g5
(dp854
g19
S'File'
p855
sg17
S'clientFile'
p856
sg21
S'The file in its location on the client'
p857
stRp858
ag3
(g4
g5
(dp859
g19
S'File'
p860
sg17
S'depotFile'
p861
sg21
S'The file in the depot'
p862
stRp863
ag3
(g4
g5
(dp864
g19
S'Rev'
p865
sg17
S'haveRev'
p866
sg21
S'The revision synced to the client'
p867
stRp868
ag3
(g4
g5
(dp869
g19
S'FileType'
p870
sg17
S'type'
p871
sg21
S'The filetype of the synced revision'
p872
stRp873
atRp874
sg17
S'Have'
p875
stRp876
ag3
(g4
g5
(dp877
g467
g3
(g8
g9
(lp878
g3
(g4
g5
(dp879
g19
S'Date'
p880
sg17
S'date'
p881
sg21
S'Date value'
p882
stRp883
ag3
(g4
g5
(dp884
g19
S'Int'
p885
sg17
S'attr'
p886
sg21
S'The attribute number (from the jobspec) to which this\n\t\t    date belongs'
p887
stRp888
ag3
(g4
g5
(dp889
g19
S'String'
p890
sg17
S'value'
p891
sg21
S'A job name'
p892
stRp893
atRp894
sg17
S'IndexDate'
p895
stRp896
ag3
(g4
g5
(dp897
g467
g3
(g8
g9
(lp898
g3
(g4
g5
(dp899
g19
S'String'
p900
sg17
S'word'
p901
sg21
S'The word being indexed'
p902
stRp903
ag3
(g4
g5
(dp904
g19
S'Int'
p905
sg17
S'attr'
p906
sg21
S'The attribute number to which this word belongs. For\n\t\t    job data, the attribute number from the jobspec.'
p907
stRp908
ag3
(g4
g5
(dp909
g19
S'String'
p910
sg17
S'value'
p911
sg21
S'For job data, a job name. For generic data, the value\n\t\t    of the index keyed by the word.'
p912
stRp913
atRp914
sg17
S'IndexText'
p915
stRp916
ag3
(g4
g5
(dp917
g467
g3
(g8
g9
(lp918
g3
(g4
g5
(dp919
g19
S'File'
p920
sg17
S'toFile'
p921
sg21
S'File to which integration is being performed (target).'
p922
stRp923
ag3
(g4
g5
(dp924
g19
S'File'
p925
sg17
S'fromFile'
p926
sg21
S'File from which integration is being performed (source).'
p927
stRp928
ag3
(g4
g5
(dp929
g19
S'Rev'
p930
sg17
S'startFromRev'
p931
sg21
S'Starting revision of fromFile'
p932
stRp933
ag3
(g4
g5
(dp934
g19
S'Rev'
p935
sg17
S'endFromRev'
p936
sg21
S'Ending revision of fromFile'
p937
stRp938
ag3
(g4
g5
(dp939
g19
S'Rev'
p940
sg17
S'toRev'
p941
sg21
S'Revision of toFile into which integration is being \n\t\t    performed.'
p942
stRp943
ag3
(g4
g5
(dp944
g19
S'IntegHow'
p945
sg17
S'how'
p946
sg21
S'Integration method: variations on \n\t\t    merge/branch/copy/ignore/delete.'
p947
stRp948
ag3
(g4
g5
(dp949
g19
S'Int'
p950
sg17
S'committed'
p951
sg21
S'Flag: 0 for pending, 1 for committed.'
p952
stRp953
ag3
(g4
g5
(dp954
g19
S'ResolvedStatus'
p955
sg17
S'resolved'
p956
sg21
S'Resolution method: unresolved, resolved manually, \n\t\t    or resolved as part of a branch or delete.'
p957
stRp958
ag3
(g4
g5
(dp959
g19
S'Change'
p960
sg17
S'change'
p961
sg21
S'Changelist associated with the integration.'
p962
stRp963
atRp964
sg17
S'Integ'
p965
stRp966
ag3
(g4
g5
(dp967
g467
g3
(g8
g9
(lp968
g3
(g4
g5
(dp969
g19
S'File'
p970
sg17
S'toFile'
p971
sg21
S'File to which integration is being performed (target).'
p972
stRp973
ag3
(g4
g5
(dp974
g19
S'File'
p975
sg17
S'fromFile'
p976
sg21
S'File from which integration is being performed (source).'
p977
stRp978
ag3
(g4
g5
(dp979
g19
S'Rev'
p980
sg17
S'startFromRev'
p981
sg21
S'Starting revision of fromFile'
p982
stRp983
ag3
(g4
g5
(dp984
g19
S'Rev'
p985
sg17
S'endFromRev'
p986
sg21
S'Ending revision of fromFile'
p987
stRp988
ag3
(g4
g5
(dp989
g19
S'Rev'
p990
sg17
S'startToRev'
p991
sg21
S'Start revision of toFile into which integration was \n\t\t    performed.'
p992
stRp993
ag3
(g4
g5
(dp994
g19
S'Rev'
p995
sg17
S'endToRev'
p996
sg21
S'End revision of toFile into which integration was \n\t\t    performed. Only varies from startToRev for reverse \n\t\t    integration records.'
p997
stRp998
ag3
(g4
g5
(dp999
g19
S'IntegHow'
p1000
sg17
S'how'
p1001
sg21
S'Integration method: variations on \n\t\t    merge/branch/copy/ignore/delete.'
p1002
stRp1003
ag3
(g4
g5
(dp1004
g19
S'Change'
p1005
sg17
S'change'
p1006
sg21
S'Changelist associated with the integration.'
p1007
stRp1008
atRp1009
sg17
S'Integed'
p1010
stRp1011
ag3
(g4
g5
(dp1012
g467
g3
(g8
g9
(lp1013
g3
(g4
g5
(dp1014
g19
S'String'
p1015
sg17
S'job'
p1016
sg21
S'The job name'
p1017
stRp1018
ag3
(g4
g5
(dp1019
g19
S'User'
p1020
sg17
S'xuser'
p1021
sg21
S'User name: defunct'
p1022
stRp1023
ag3
(g4
g5
(dp1024
g19
S'Date'
p1025
sg17
S'xdate'
p1026
sg21
S'The date: defunct'
p1027
stRp1028
ag3
(g4
g5
(dp1029
g19
S'JobStat'
p1030
sg17
S'xstatus'
p1031
sg21
S'Job status: defunct'
p1032
stRp1033
ag3
(g4
g5
(dp1034
g19
S'DescShort'
p1035
sg17
S'description'
p1036
sg21
S'Short description'
p1037
stRp1038
atRp1039
sg17
S'Job'
p1040
stRp1041
ag3
(g4
g5
(dp1042
g467
g3
(g8
g9
(lp1043
g3
(g4
g5
(dp1044
g19
S'String'
p1045
sg17
S'xjob'
p1046
sg21
S'The job name'
p1047
stRp1048
ag3
(g4
g5
(dp1049
g19
S'Text'
p1050
sg17
S'xdescription'
p1051
sg21
S'Jobdescription'
p1052
stRp1053
atRp1054
sg17
S'JobDesc'
p1055
stRp1056
ag3
(g4
g5
(dp1057
g467
g3
(g8
g9
(lp1058
g3
(g4
g5
(dp1059
g19
S'Key'
p1060
sg17
S'name'
p1061
sg21
S'Key name'
p1062
stRp1063
ag3
(g4
g5
(dp1064
g19
S'Value'
p1065
sg17
S'value'
p1066
sg21
S'Key value'
p1067
stRp1068
atRp1069
sg17
S'Keys'
p1070
stRp1071
ag3
(g4
g5
(dp1072
g467
g3
(g8
g9
(lp1073
g3
(g4
g5
(dp1074
g19
S'Domain'
p1075
sg17
S'name'
p1076
sg21
S'Name of the label'
p1077
stRp1078
ag3
(g4
g5
(dp1079
g19
S'File'
p1080
sg17
S'depotFile'
p1081
sg21
S'File name'
p1082
stRp1083
ag3
(g4
g5
(dp1084
g19
S'Rev'
p1085
sg17
S'haveRev'
p1086
sg21
S'The revision of the file in the label'
p1087
stRp1088
atRp1089
sg17
S'Label'
p1090
stRp1091
ag3
(g4
g5
(dp1092
g467
g3
(g8
g9
(lp1093
g3
(g4
g5
(dp1094
g19
S'File'
p1095
sg17
S'depotFile'
p1096
sg21
S'File in depot'
p1097
stRp1098
ag3
(g4
g5
(dp1099
g19
S'Domain'
p1100
sg17
S'client'
p1101
sg21
S'Domain (client) in which file is open'
p1102
stRp1103
ag3
(g4
g5
(dp1104
g19
S'User'
p1105
sg17
S'user'
p1106
sg21
S'User who presently has the file open'
p1107
stRp1108
ag3
(g4
g5
(dp1109
g19
S'Action'
p1110
sg17
S'action'
p1111
sg21
S'Action file is open for: add, edit, delete, branch,\n\t\t    integrate, or import'
p1112
stRp1113
ag3
(g4
g5
(dp1114
g19
S'Int'
p1115
sg17
S'isLocked'
p1116
sg21
S'Flag: 0 for unlocked, 1 for locked'
p1117
stRp1118
ag3
(g4
g5
(dp1119
g19
S'Int'
p1120
sg17
S'change'
p1121
sg21
S'Changelist in which the revision is open: 0 for the\n\t\t    default changelist'
p1122
stRp1123
atRp1124
sg17
S'Locks'
p1125
stRp1126
ag3
(g4
g5
(dp1127
g467
g3
(g8
g9
(lp1128
g3
(g4
g5
(dp1129
g19
S'Int'
p1130
sg17
S'seq'
p1131
sg21
S'Sequence number of event'
p1132
stRp1133
ag3
(g4
g5
(dp1134
g19
S'String'
p1135
sg17
S'key'
p1136
sg21
S"Either the word 'change' or the word 'job'"
p1137
stRp1138
ag3
(g4
g5
(dp1139
g19
S'String'
p1140
sg17
S'attr'
p1141
sg21
S'The number of the change, or name of the job that was \n\t\t    altered.'
p1142
stRp1143
atRp1144
sg17
S'Logger'
p1145
stRp1146
ag3
(g4
g5
(dp1147
g467
g3
(g8
g9
(lp1148
g3
(g4
g5
(dp1149
g19
S'String'
p1150
sg17
S'language'
p1151
sg21
S'The language for which this message applies'
p1152
stRp1153
ag3
(g4
g5
(dp1154
g19
S'Int'
p1155
sg17
S'id'
p1156
sg21
S'The message number'
p1157
stRp1158
ag3
(g4
g5
(dp1159
g19
S'String'
p1160
sg17
S'message'
p1161
sg21
S'The message text'
p1162
stRp1163
atRp1164
sg17
S'Message'
p1165
stRp1166
ag3
(g4
g5
(dp1167
g467
g3
(g8
g9
(lp1168
g3
(g4
g5
(dp1169
g19
S'Int'
p1170
sg17
S'id'
p1171
sg21
S'Thread/process id'
p1172
stRp1173
ag3
(g4
g5
(dp1174
g19
S'User'
p1175
sg17
S'user'
p1176
sg21
S'Username of the user running the command'
p1177
stRp1178
ag3
(g4
g5
(dp1179
g19
S'String'
p1180
sg17
S'function'
p1181
sg21
S'The command being executed.'
p1182
stRp1183
ag3
(g4
g5
(dp1184
g19
S'String'
p1185
sg17
S'args'
p1186
sg21
S'Arguments passed to the command'
p1187
stRp1188
ag3
(g4
g5
(dp1189
g19
S'Date'
p1190
sg17
S'startDate'
p1191
sg21
S'The date and time the command started'
p1192
stRp1193
ag3
(g4
g5
(dp1194
g19
S'Int'
p1195
sg17
S'runstate'
p1196
sg21
S'Flag: 0 for running, 1 for terminated, 2 for paused'
p1197
stRp1198
ag3
(g4
g5
(dp1199
g19
S'Domain'
p1200
sg17
S'client'
p1201
sg21
S'The client workspace'
p1202
stRp1203
ag3
(g4
g5
(dp1204
g19
S'Text'
p1205
sg17
S'host'
p1206
sg21
S'The IP address of the client'
p1207
stRp1208
ag3
(g4
g5
(dp1209
g19
S'Text'
p1210
sg17
S'prog'
p1211
sg21
S'The name (and version) of the client program'
p1212
stRp1213
atRp1214
sg17
S'Monitor'
p1215
stRp1216
ag3
(g4
g5
(dp1217
g467
g3
(g8
g9
(lp1218
g3
(g4
g5
(dp1219
g19
S'String'
p1220
sg17
S'name'
p1221
sg21
S'Property name'
p1222
stRp1223
ag3
(g4
g5
(dp1224
g19
S'String'
p1225
sg17
S'sequence'
p1226
sg21
S'Sequence number'
p1227
stRp1228
ag3
(g4
g5
(dp1229
g19
S'Integer'
p1230
sg17
S'type'
p1231
sg21
S'Property type'
p1232
stRp1233
ag3
(g4
g5
(dp1234
g19
S'String'
p1235
sg17
S'scope'
p1236
sg21
S'Property scope'
p1237
stRp1238
ag3
(g4
g5
(dp1239
g19
S'String'
p1240
sg17
S'value'
p1241
sg21
S'Property value'
p1242
stRp1243
ag3
(g4
g5
(dp1244
g19
S'String'
p1245
sg17
S'date'
p1246
sg21
S'Property date'
p1247
stRp1248
ag3
(g4
g5
(dp1249
g19
S'String'
p1250
sg17
S'user'
p1251
sg21
S'Property user'
p1252
stRp1253
atRp1254
sg17
S'Property'
p1255
stRp1256
ag3
(g4
g5
(dp1257
g467
g3
(g8
g9
(lp1258
g3
(g4
g5
(dp1259
g19
S'Int'
p1260
sg17
S'seq'
p1261
sg21
S'Sequence number: for ordering the protections table'
p1262
stRp1263
ag3
(g4
g5
(dp1264
g19
S'Int'
p1265
sg17
S'isGroup'
p1266
sg21
S'Flag: 0 for a per-user setting, 1 for a per-group setting.'
p1267
stRp1268
ag3
(g4
g5
(dp1269
g19
S'UserWild'
p1270
sg17
S'user'
p1271
sg21
S'User(s), or Group(s) for whom this record applies.'
p1272
stRp1273
ag3
(g4
g5
(dp1274
g19
S'DomainWild'
p1275
sg17
S'host'
p1276
sg21
S'Domain(s) (IP addresses) for which this record applies.'
p1277
stRp1278
ag3
(g4
g5
(dp1279
g19
S'Perm'
p1280
sg17
S'perm'
p1281
sg21
S'Permissions to be granted/revoked'
p1282
stRp1283
ag3
(g4
g5
(dp1284
g19
S'MapFlag'
p1285
sg17
S'mapFlag'
p1286
sg21
S'Flag: Map the files in or out?'
p1287
stRp1288
ag3
(g4
g5
(dp1289
g19
S'Mapping'
p1290
sg17
S'depotFile'
p1291
sg21
S'Files to be mapped in or out.'
p1292
stRp1293
atRp1294
sg17
S'Protect'
p1295
stRp1296
ag3
(g4
g5
(dp1297
g467
g3
(g8
g9
(lp1298
g3
(g4
g5
(dp1299
g19
S'File'
p1300
sg17
S'depotFile'
p1301
sg21
S'The file name'
p1302
stRp1303
ag3
(g4
g5
(dp1304
g19
S'String'
p1305
sg17
S'lbrRev'
p1306
sg21
S'The librarian revision'
p1307
stRp1308
ag3
(g4
g5
(dp1309
g19
S'String'
p1310
sg17
S'type'
p1311
sg21
S'The file type of the revision'
p1312
stRp1313
ag3
(g4
g5
(dp1314
g19
S'PullStatus'
p1315
sg17
S'status'
p1316
sg21
S'The status of the archive transfer'
p1317
stRp1318
ag3
(g4
g5
(dp1319
g19
S'Action'
p1320
sg17
S'action'
p1321
sg21
S'The action that created the revision'
p1322
stRp1323
ag3
(g4
g5
(dp1324
g19
S'Digest'
p1325
sg17
S'digest'
p1326
sg21
S'The MD5 digest of the revision'
p1327
stRp1328
ag3
(g4
g5
(dp1329
g19
S'FileSize'
p1330
sg17
S'size'
p1331
sg21
S'The size of the file in bytes'
p1332
stRp1333
ag3
(g4
g5
(dp1334
g19
S'Change'
p1335
sg17
S'change'
p1336
sg21
S'The changelist that created the revision'
p1337
stRp1338
ag3
(g4
g5
(dp1339
g19
S'Date'
p1340
sg17
S'lbrDate'
p1341
sg21
S'Librarian date'
p1342
stRp1343
ag3
(g4
g5
(dp1344
g19
S'Date'
p1345
sg17
S'lbrModTime'
p1346
sg21
S'Librarian modtime'
p1347
stRp1348
ag3
(g4
g5
(dp1349
g19
S'Int'
p1350
sg17
S'pid'
p1351
sg21
S'The process id (PID) of the pull process'
p1352
stRp1353
ag3
(g4
g5
(dp1354
g19
S'Date'
p1355
sg17
S'requestTime'
p1356
sg21
S'Pull request time'
p1357
stRp1358
ag3
(g4
g5
(dp1359
g19
S'Int'
p1360
sg17
S'retries'
p1361
sg21
S'The number of retries that have occurred after transfer error'
p1362
stRp1363
ag3
(g4
g5
(dp1364
g19
S'String'
p1365
sg17
S'transferError'
p1366
sg21
S'The error message for a failed transfer'
p1367
stRp1368
atRp1369
sg17
S'ReplicaArchiveTransfer'
p1370
stRp1371
ag3
(g4
g5
(dp1372
g467
g3
(g8
g9
(lp1373
g3
(g4
g5
(dp1374
g19
S'File'
p1375
sg17
S'toFile'
p1376
sg21
S'File to which integration is being performed (target).'
p1377
stRp1378
ag3
(g4
g5
(dp1379
g19
S'File'
p1380
sg17
S'fromFile'
p1381
sg21
S'File from which integration is being performed (source).'
p1382
stRp1383
ag3
(g4
g5
(dp1384
g19
S'Rev'
p1385
sg17
S'startFromRev'
p1386
sg21
S'Starting revision of fromFile'
p1387
stRp1388
ag3
(g4
g5
(dp1389
g19
S'Rev'
p1390
sg17
S'endFromRev'
p1391
sg21
S'Ending revision of fromFile'
p1392
stRp1393
ag3
(g4
g5
(dp1394
g19
S'Rev'
p1395
sg17
S'startToRev'
p1396
sg21
S'Start revision of toFile into which integration was \n\t\t    performed.'
p1397
stRp1398
ag3
(g4
g5
(dp1399
g19
S'Rev'
p1400
sg17
S'endToRev'
p1401
sg21
S'End revision of toFile into which integration was \n\t\t    performed. Only varies from startToRev for reverse \n\t\t    integration records.'
p1402
stRp1403
ag3
(g4
g5
(dp1404
g19
S'IntegHow'
p1405
sg17
S'how'
p1406
sg21
S'Integration method: variations on \n\t\t    merge/branch/copy/ignore/delete.'
p1407
stRp1408
ag3
(g4
g5
(dp1409
g19
S'ResolveState'
p1410
sg17
S'state'
p1411
sg21
S'How the user performed the resolve.'
p1412
stRp1413
ag3
(g4
g5
(dp1414
g19
S'File'
p1415
sg17
S'baseFile'
p1416
sg21
S'File used as the base for merging.'
p1417
stRp1418
ag3
(g4
g5
(dp1419
g19
S'Rev'
p1420
sg17
S'baseRev'
p1421
sg21
S'Revision of baseFile used as the merge base.'
p1422
stRp1423
atRp1424
sg17
S'Resolve'
p1425
stRp1426
ag3
(g4
g5
(dp1427
g467
g3
(g8
g9
(lp1428
g3
(g4
g5
(dp1429
g19
S'File'
p1430
sg17
S'depotFile'
p1431
sg21
S'The file name'
p1432
stRp1433
ag3
(g4
g5
(dp1434
g19
S'Rev'
p1435
sg17
S'depotRev'
p1436
sg21
S'The revision number'
p1437
stRp1438
ag3
(g4
g5
(dp1439
g19
S'FileType'
p1440
sg17
S'type'
p1441
sg21
S'The file type of the revision'
p1442
stRp1443
ag3
(g4
g5
(dp1444
g19
S'Action'
p1445
sg17
S'action'
p1446
sg21
S'The action that created the revision'
p1447
stRp1448
ag3
(g4
g5
(dp1449
g19
S'Change'
p1450
sg17
S'change'
p1451
sg21
S'The changelist that created the revision'
p1452
stRp1453
ag3
(g4
g5
(dp1454
g19
S'Date'
p1455
sg17
S'date'
p1456
sg21
S'The date/time the changelist that created the revision\n\t\t    was submitted'
p1457
stRp1458
ag3
(g4
g5
(dp1459
g19
S'Date'
p1460
sg17
S'modTime'
p1461
sg21
S"The timestamp on the file in the user's workspace when\n\t\t    the revision was submitted."
p1462
stRp1463
ag3
(g4
g5
(dp1464
g19
S'Digest'
p1465
sg17
S'digest'
p1466
sg21
S'The MD5 digest of the revision.'
p1467
stRp1468
ag3
(g4
g5
(dp1469
g19
S'FileSize'
p1470
sg17
S'size'
p1471
sg21
S'The size of the file in bytes'
p1472
stRp1473
ag3
(g4
g5
(dp1474
g19
S'TraitLot'
p1475
sg17
S'traitLot'
p1476
sg21
S'Group of traits (attributes) associated with the revision.'
p1477
stRp1478
ag3
(g4
g5
(dp1479
g19
S'RevStatus'
p1480
sg17
S'lbrIsLazy'
p1481
sg21
S'Specifies whether or not the revision gets its content from \n\t  \t    another file (lazy copy), data about promotion of revision\n\t \t    content from task streams, and data about revision charset \n            information.'
p1482
stRp1483
ag3
(g4
g5
(dp1484
g19
S'File'
p1485
sg17
S'lbrFile'
p1486
sg21
S"Filename for librarian's purposes.  Specifies location in \n\t\t    the archives where the file containing the revision may\n\t\t    be found. Usually the same as depotFile, but differs in\n\t\t    the case of branched/copied revisions."
p1487
stRp1488
ag3
(g4
g5
(dp1489
g19
S'String'
p1490
sg17
S'lbrRev'
p1491
sg21
S'The revision of lbrFile that contains the revision content.'
p1492
stRp1493
ag3
(g4
g5
(dp1494
g19
S'FileType'
p1495
sg17
S'lbrType'
p1496
sg21
S'The file type of the librarian revision. Usually the same\n\t\t    as type, but differs in the case of branched/copied \n\t\t    revisions.'
p1497
stRp1498
atRp1499
sg17
S'Rev'
p1500
stRp1501
ag3
(g4
g5
(dp1502
g467
g3
(g8
g9
(lp1503
g3
(g4
g5
(dp1504
g19
S'Change'
p1505
sg17
S'change'
p1506
sg21
S'The changelist that created the revision'
p1507
stRp1508
ag3
(g4
g5
(dp1509
g19
S'File'
p1510
sg17
S'depotFile'
p1511
sg21
S'The file name'
p1512
stRp1513
ag3
(g4
g5
(dp1514
g19
S'Rev'
p1515
sg17
S'depotRev'
p1516
sg21
S'The revision number'
p1517
stRp1518
ag3
(g4
g5
(dp1519
g19
S'Action'
p1520
sg17
S'action'
p1521
sg21
S'The action that created the revision'
p1522
stRp1523
atRp1524
sg17
S'RevCx'
p1525
stRp1526
ag3
(g4
g5
(dp1527
g467
g3
(g8
g9
(lp1528
g3
(g4
g5
(dp1529
g19
S'User'
p1530
sg17
S'user'
p1531
sg21
S'A user name'
p1532
stRp1533
ag3
(g4
g5
(dp1534
g19
S'Int'
p1535
sg17
S'seq'
p1536
sg21
S'Sequence number: used for ordering multi-line views'
p1537
stRp1538
ag3
(g4
g5
(dp1539
g19
S'MapFlag'
p1540
sg17
S'mapFlag'
p1541
sg21
S'Type of mapping'
p1542
stRp1543
ag3
(g4
g5
(dp1544
g19
S'Mapping'
p1545
sg17
S'depotFile'
p1546
sg21
S'The files to be reviewed'
p1547
stRp1548
ag3
(g4
g5
(dp1549
g19
S'Reviewer'
p1550
sg17
S'type'
p1551
sg21
S'Type of reviewer'
p1552
stRp1553
atRp1554
sg17
S'Review'
p1555
stRp1556
ag3
(g4
g5
(dp1557
g467
g3
(g8
g9
(lp1558
g3
(g4
g5
(dp1559
g19
S'Int'
p1560
sg17
S'taskID'
p1561
sg21
S'The process id (PID) of the sync'
p1562
stRp1563
ag3
(g4
g5
(dp1564
g19
S'Int'
p1565
sg17
S'seq'
p1566
sg21
S'Sequence number'
p1567
stRp1568
ag3
(g4
g5
(dp1569
g19
S'text'
p1570
sg17
S'handle'
p1571
sg21
S'Handle'
p1572
stRp1573
ag3
(g4
g5
(dp1574
g19
S'File'
p1575
sg17
S'depotFile'
p1576
sg21
S'The file in the depot'
p1577
stRp1578
ag3
(g4
g5
(dp1579
g19
S'File'
p1580
sg17
S'clientFile'
p1581
sg21
S'The file in its location on the client'
p1582
stRp1583
ag3
(g4
g5
(dp1584
g19
S'Rev'
p1585
sg17
S'haveRev'
p1586
sg21
S'Have revision'
p1587
stRp1588
ag3
(g4
g5
(dp1589
g19
S'FileType'
p1590
sg17
S'type'
p1591
sg21
S'File type'
p1592
stRp1593
ag3
(g4
g5
(dp1594
g19
S'Date'
p1595
sg17
S'modtime'
p1596
sg21
S'Modification time'
p1597
stRp1598
ag3
(g4
g5
(dp1599
g19
S'Digest'
p1600
sg17
S'digest'
p1601
sg21
S'The MD5 digest of the revision'
p1602
stRp1603
ag3
(g4
g5
(dp1604
g19
S'FileSize'
p1605
sg17
S'size'
p1606
sg21
S'The size of the file in bytes'
p1607
stRp1608
ag3
(g4
g5
(dp1609
g19
S'File'
p1610
sg17
S'lbrFile'
p1611
sg21
S'Librarian filename'
p1612
stRp1613
ag3
(g4
g5
(dp1614
g19
S'LbrRev'
p1615
sg17
S'lbrRev'
p1616
sg21
S'The revision of lbrFile that contains the revision content'
p1617
stRp1618
ag3
(g4
g5
(dp1619
g19
S'FileType'
p1620
sg17
S'lbrType'
p1621
sg21
S'The file type of the librarian revision'
p1622
stRp1623
ag3
(g4
g5
(dp1624
g19
S'Int'
p1625
sg17
S'flags'
p1626
sg21
S'Flags'
p1627
stRp1628
atRp1629
sg17
S'SendQ'
p1630
stRp1631
ag3
(g4
g5
(dp1632
g467
g3
(g8
g9
(lp1633
g3
(g4
g5
(dp1634
g19
S'text'
p1635
sg17
S'id'
p1636
sg21
S'The server identifier'
p1637
stRp1638
ag3
(g4
g5
(dp1639
g19
S'ServerType'
p1640
sg17
S'type'
p1641
sg21
S'The server type: server/broker/proxy'
p1642
stRp1643
ag3
(g4
g5
(dp1644
g19
S'text'
p1645
sg17
S'name'
p1646
sg21
S'The P4NAME used by this server'
p1647
stRp1648
ag3
(g4
g5
(dp1649
g19
S'text'
p1650
sg17
S'address'
p1651
sg21
S'The P4PORT used by this server'
p1652
stRp1653
ag3
(g4
g5
(dp1654
g19
S'ServerServiceType'
p1655
sg17
S'services'
p1656
sg21
S'Service provided by this server'
p1657
stRp1658
ag3
(g4
g5
(dp1659
g19
S'text'
p1660
sg17
S'desc'
p1661
sg21
S'Server description'
p1662
stRp1663
atRp1664
sg17
S'Server'
p1665
stRp1666
ag3
(g4
g5
(dp1667
g467
g3
(g8
g9
(lp1668
g3
(g4
g5
(dp1669
g19
S'Domain'
p1670
sg17
S'stream'
p1671
sg21
S'Stream name'
p1672
stRp1673
ag3
(g4
g5
(dp1674
g19
S'Domain'
p1675
sg17
S'parent'
p1676
sg21
S'Parent stream name'
p1677
stRp1678
ag3
(g4
g5
(dp1679
g19
S'Text'
p1680
sg17
S'title'
p1681
sg21
S'Stream title (alias for the stream name)'
p1682
stRp1683
ag3
(g4
g5
(dp1684
g19
S'StreamType'
p1685
sg17
S'type'
p1686
sg21
S'The type of stream'
p1687
stRp1688
ag3
(g4
g5
(dp1689
g19
S'Date'
p1690
sg17
S'preview'
p1691
sg21
S'Stream template modification time'
p1692
stRp1693
ag3
(g4
g5
(dp1694
g19
S'Change'
p1695
sg17
S'change'
p1696
sg21
S'Last submit to stream'
p1697
stRp1698
ag3
(g4
g5
(dp1699
g19
S'Change'
p1700
sg17
S'copychg'
p1701
sg21
S'Parent change at last copy'
p1702
stRp1703
ag3
(g4
g5
(dp1704
g19
S'Change'
p1705
sg17
S'mergechg'
p1706
sg21
S'Parent change at last merge'
p1707
stRp1708
ag3
(g4
g5
(dp1709
g19
S'Change'
p1710
sg17
S'highchg'
p1711
sg21
S'Highest change at last merge'
p1712
stRp1713
ag3
(g4
g5
(dp1714
g19
S'Int'
p1715
sg17
S'hash'
p1716
sg21
S'Hash value of dynamic branch'
p1717
stRp1718
ag3
(g4
g5
(dp1719
g19
S'StreamStatus'
p1720
sg17
S'status'
p1721
sg21
S'Flow status'
p1722
stRp1723
atRp1724
sg17
S'Stream'
p1725
stRp1726
ag3
(g4
g5
(dp1727
g467
g3
(g8
g9
(lp1728
g3
(g4
g5
(dp1729
g19
S'Text'
p1730
sg17
S'id'
p1731
sg21
S'Server name'
p1732
stRp1733
ag3
(g4
g5
(dp1734
g19
S'SvrViewType'
p1735
sg17
S'type'
p1736
sg21
S'View type'
p1737
stRp1738
ag3
(g4
g5
(dp1739
g19
S'Int'
p1740
sg17
S'seq'
p1741
sg21
S'Sequence (line) number'
p1742
stRp1743
ag3
(g4
g5
(dp1744
g19
S'MapFlag'
p1745
sg17
S'mapFlag'
p1746
sg21
S'Type of mapping'
p1747
stRp1748
ag3
(g4
g5
(dp1749
g19
S'Mapping'
p1750
sg17
S'viewFile'
p1751
sg21
S'View file'
p1752
stRp1753
atRp1754
sg17
S'SvrView'
p1755
stRp1756
ag3
(g4
g5
(dp1757
g467
g3
(g8
g9
(lp1758
g3
(g4
g5
(dp1759
g19
S'Domain'
p1760
sg17
S'name'
p1761
sg21
S'Stream name'
p1762
stRp1763
ag3
(g4
g5
(dp1764
g19
S'Change'
p1765
sg17
S'change'
p1766
sg21
S'Versioned at change'
p1767
stRp1768
ag3
(g4
g5
(dp1769
g19
S'Int'
p1770
sg17
S'seq'
p1771
sg21
S'Sequence (line) number'
p1772
stRp1773
ag3
(g4
g5
(dp1774
g19
S'Domain'
p1775
sg17
S'parent'
p1776
sg21
S'Parent stream name'
p1777
stRp1778
ag3
(g4
g5
(dp1779
g19
S'StreamType'
p1780
sg17
S'type'
p1781
sg21
S'Type of stream'
p1782
stRp1783
ag3
(g4
g5
(dp1784
g19
S'StreamPathType'
p1785
sg17
S'path'
p1786
sg21
S'Stream path type'
p1787
stRp1788
ag3
(g4
g5
(dp1789
g19
S'Mapping'
p1790
sg17
S'viewFile'
p1791
sg21
S'View file (left hand side of path)'
p1792
stRp1793
ag3
(g4
g5
(dp1794
g19
S'Mapping'
p1795
sg17
S'depotFile'
p1796
sg21
S'Depot file (right hand side of path)'
p1797
stRp1798
ag3
(g4
g5
(dp1799
g19
S'Change'
p1800
sg17
S'changeMap'
p1801
sg21
S'Change Map'
p1802
stRp1803
atRp1804
sg17
S'Template'
p1805
stRp1806
ag3
(g4
g5
(dp1807
g467
g3
(g8
g9
(lp1808
g3
(g4
g5
(dp1809
g19
S'String'
p1810
sg17
S'fileAndRev'
p1811
sg21
S'The file name and revision'
p1812
stRp1813
ag3
(g4
g5
(dp1814
g19
S'Octet String'
p1815
sg17
S'fileContent'
p1816
sg21
S'The (encoded) file content'
p1817
stRp1818
atRp1819
sg17
S'TinyDb'
p1820
stRp1821
ag3
(g4
g5
(dp1822
g467
g3
(g8
g9
(lp1823
g3
(g4
g5
(dp1824
g19
S'Int'
p1825
sg17
S'traitLot'
p1826
sg21
S'Indicates a specific collection of traits (referred to \n\t\t    externally as "attributes".)'
p1827
stRp1828
ag3
(g4
g5
(dp1829
g19
S'String'
p1830
sg17
S'name'
p1831
sg21
S'Trait (attribute) name'
p1832
stRp1833
ag3
(g4
g5
(dp1834
g19
S'TraitType'
p1835
sg17
S'type'
p1836
sg21
S'Type of trait'
p1837
stRp1838
ag3
(g4
g5
(dp1839
g19
S'Octet String'
p1840
sg17
S'value'
p1841
sg21
S'The value'
p1842
stRp1843
atRp1844
sg17
S'Trait'
p1845
stRp1846
ag3
(g4
g5
(dp1847
g467
g3
(g8
g9
(lp1848
g3
(g4
g5
(dp1849
g19
S'Int'
p1850
sg17
S'seq'
p1851
sg21
S'Sequence number: for ordering the trigger list'
p1852
stRp1853
ag3
(g4
g5
(dp1854
g19
S'String'
p1855
sg17
S'name'
p1856
sg21
S'Name of the trigger'
p1857
stRp1858
ag3
(g4
g5
(dp1859
g19
S'MapFlag'
p1860
sg17
S'mapFlag'
p1861
sg21
S'Type of mapping: specifies whether the trigger applies \n\t\t    to the files or not.'
p1862
stRp1863
ag3
(g4
g5
(dp1864
g19
S'Mapping'
p1865
sg17
S'depotFile'
p1866
sg21
S'The files to apply the trigger to'
p1867
stRp1868
ag3
(g4
g5
(dp1869
g19
S'File'
p1870
sg17
S'triggerDepotFile'
p1871
sg21
S'Depot path to the trigger'
p1872
stRp1873
ag3
(g4
g5
(dp1874
g19
S'Trigger'
p1875
sg17
S'trigger'
p1876
sg21
S'Type of trigger'
p1877
stRp1878
ag3
(g4
g5
(dp1879
g19
S'Text'
p1880
sg17
S'action'
p1881
sg21
S'Command to execute when trigger runs'
p1882
stRp1883
atRp1884
sg17
S'Trigger'
p1885
stRp1886
ag3
(g4
g5
(dp1887
g467
g3
(g8
g9
(lp1888
g3
(g4
g5
(dp1889
g19
S'User'
p1890
sg17
S'user'
p1891
sg21
S'The username'
p1892
stRp1893
ag3
(g4
g5
(dp1894
g19
S'Text'
p1895
sg17
S'email'
p1896
sg21
S"The user's email address"
p1897
stRp1898
ag3
(g4
g5
(dp1899
g19
S'Text'
p1900
sg17
S'jobView'
p1901
sg21
S"The user's job view"
p1902
stRp1903
ag3
(g4
g5
(dp1904
g19
S'Date'
p1905
sg17
S'updateDate'
p1906
sg21
S'The date/time the user record was last updated'
p1907
stRp1908
ag3
(g4
g5
(dp1909
g19
S'Date'
p1910
sg17
S'accessDate'
p1911
sg21
S'The date/time the user record was last used'
p1912
stRp1913
ag3
(g4
g5
(dp1914
g19
S'Text'
p1915
sg17
S'fullName'
p1916
sg21
S"The user's full name"
p1917
stRp1918
ag3
(g4
g5
(dp1919
g19
S'Password'
p1920
sg17
S'password'
p1921
sg21
S'The MD5 hash of the users (encrypted) password'
p1922
stRp1923
ag3
(g4
g5
(dp1924
g19
S'Strength'
p1925
sg17
S'strength'
p1926
sg21
S"Measure of the strength of the user's password"
p1927
stRp1928
ag3
(g4
g5
(dp1929
g19
S'Password'
p1930
sg17
S'ticket'
p1931
sg21
S"'p4 login' ticket for this user"
p1932
stRp1933
ag3
(g4
g5
(dp1934
g19
S'Date'
p1935
sg17
S'endDate'
p1936
sg21
S"Date/time the user's ticket expires"
p1937
stRp1938
ag3
(g4
g5
(dp1939
g19
S'UserLevel'
p1940
sg17
S'type'
p1941
sg21
S'Type of user'
p1942
stRp1943
ag3
(g4
g5
(dp1944
g19
S'Date'
p1945
sg17
S'passDate'
p1946
sg21
S'Date password was last changed'
p1947
stRp1948
ag3
(g4
g5
(dp1949
g19
S'Date'
p1950
sg17
S'passExpire'
p1951
sg21
S'Date of password expiration'
p1952
stRp1953
ag3
(g4
g5
(dp1954
g19
S'Date'
p1955
sg17
S'attempts'
p1956
sg21
S'Failed login attempts'
p1957
stRp1958
atRp1959
sg17
S'User'
p1960
stRp1961
ag3
(g4
g5
(dp1962
g467
g3
(g8
g9
(lp1963
g3
(g4
g5
(dp1964
g19
S'Domain'
p1965
sg17
S'name'
p1966
sg21
S'Domain name to which this view applies'
p1967
stRp1968
ag3
(g4
g5
(dp1969
g19
S'Int'
p1970
sg17
S'seq'
p1971
sg21
S'Sequence number: for ordering multi-line views'
p1972
stRp1973
ag3
(g4
g5
(dp1974
g19
S'MapFlag'
p1975
sg17
S'mapFlag'
p1976
sg21
S'Type of mapping'
p1977
stRp1978
ag3
(g4
g5
(dp1979
g19
S'Mapping'
p1980
sg17
S'viewFile'
p1981
sg21
S"The right-hand-side of the view. For clients, this is\n\t\t    the client-side, for labels it's the generated label \n\t\t    view. For branches, it's the target side of the branch\n\t\t    view."
p1982
stRp1983
ag3
(g4
g5
(dp1984
g19
S'Mapping'
p1985
sg17
S'depotFile'
p1986
sg21
S'The left-hand-side of the view - a mapping to file(s)\n\t\t    in the depot.'
p1987
stRp1988
atRp1989
sg17
S'View'
p1990
stRp1991
ag3
(g4
g5
(dp1992
g467
g3
(g8
g9
(lp1993
g3
(g4
g5
(dp1994
g19
S'File'
p1995
sg17
S'clientFile'
p1996
sg21
S'File on the client'
p1997
stRp1998
ag3
(g4
g5
(dp1999
g19
S'File'
p2000
sg17
S'depotFile'
p2001
sg21
S'File in the depot'
p2002
stRp2003
ag3
(g4
g5
(dp2004
g19
S'Domain'
p2005
sg17
S'client'
p2006
sg21
S'The client the file is opened on'
p2007
stRp2008
ag3
(g4
g5
(dp2009
g19
S'User'
p2010
sg17
S'user'
p2011
sg21
S'The user who has the file opened'
p2012
stRp2013
ag3
(g4
g5
(dp2014
g19
S'Rev'
p2015
sg17
S'haveRev'
p2016
sg21
S"Revision presently in user's client workspace"
p2017
stRp2018
ag3
(g4
g5
(dp2019
g19
S'Rev'
p2020
sg17
S'workRev'
p2021
sg21
S'Working revision; normally identical to the haveRev'
p2022
stRp2023
ag3
(g4
g5
(dp2024
g19
S'Int'
p2025
sg17
S'isVirtual'
p2026
sg21
S'Flag: if 1, file was opened with "p4 integ -v".'
p2027
stRp2028
ag3
(g4
g5
(dp2029
g19
S'FileType'
p2030
sg17
S'type'
p2031
sg21
S'File type'
p2032
stRp2033
ag3
(g4
g5
(dp2034
g19
S'Action'
p2035
sg17
S'action'
p2036
sg21
S"What the user's doing with the file"
p2037
stRp2038
ag3
(g4
g5
(dp2039
g19
S'Change'
p2040
sg17
S'change'
p2041
sg21
S'Associated changelist, or zero for the default changelist.'
p2042
stRp2043
ag3
(g4
g5
(dp2044
g19
S'Date'
p2045
sg17
S'modTime'
p2046
sg21
S"Modification timestamp on the file in the user's workspace."
p2047
stRp2048
ag3
(g4
g5
(dp2049
g19
S'Int'
p2050
sg17
S'isLocked'
p2051
sg21
S'Flag: 0 for unlocked, 1 for locked.'
p2052
stRp2053
ag3
(g4
g5
(dp2054
g19
S'Digest'
p2055
sg17
S'digest'
p2056
sg21
S'MD5 digest of working file.'
p2057
stRp2058
ag3
(g4
g5
(dp2059
g19
S'Int64'
p2060
sg17
S'size'
p2061
sg21
S'File size'
p2062
stRp2063
ag3
(g4
g5
(dp2064
g19
S'Int'
p2065
sg17
S'traitLot'
p2066
sg21
S'Group of traits associated with file revision.'
p2067
stRp2068
ag3
(g4
g5
(dp2069
g19
S'TamperCheck'
p2070
sg17
S'tampered'
p2071
sg21
S'Flag indicating the tamper-state of the file in the\n\t\t    workspace.'
p2072
stRp2073
ag3
(g4
g5
(dp2074
g19
S'FileType'
p2075
sg17
S'clntType'
p2076
sg21
S'Type of the file in the client workspace.'
p2077
stRp2078
ag3
(g4
g5
(dp2079
g19
S'File'
p2080
sg17
S'mFile'
p2081
sg21
S'Moved filename'
p2082
stRp2083
ag3
(g4
g5
(dp2084
g19
S'Int'
p2085
sg17
S'status'
p2086
sg21
S'Working status'
p2087
stRp2088
atRp2089
sg17
S'Working'
p2090
stRp2091
atRp2092
stRp2093
sS'upgrades'
p2094
g3
(g4
g5
(dp2095
S'upgrade'
p2096
g3
(g8
g9
(lp2097
g3
(g4
g5
(dp2098
S'release'
p2099
S'2001.1'
p2100
sS'index'
p2101
S'1'
sg21
S'Split db.integ into db.integed and db.resolve'
p2102
stRp2103
ag3
(g4
g5
(dp2104
g2099
S'2001.1'
p2105
sg2101
S'2'
sg21
S'Splt db.have into db.have and db.label'
p2106
stRp2107
ag3
(g4
g5
(dp2108
g2099
S'2002.1'
p2109
sg2101
S'3'
sg21
S'Split db.change into db.change and db.changex'
p2110
stRp2111
ag3
(g4
g5
(dp2112
g2099
S'2002.2'
p2113
sg2101
S'4'
sg21
S'Upgrade tempobj filetype in db.rev'
p2114
stRp2115
ag3
(g4
g5
(dp2116
g2099
S'2002.2'
p2117
sg2101
S'5'
sg21
S'Upgrade tempobj filetype in db.working'
p2118
stRp2119
ag3
(g4
g5
(dp2120
g2099
S'2003.1'
p2121
sg2101
S'6'
sg21
S'JnlInitialize default depot'
p2122
stRp2123
ag3
(g4
g5
(dp2124
g2099
S'2003.2'
p2125
sg2101
S'7'
sg21
S'Upgrade db.user'
p2126
stRp2127
ag3
(g4
g5
(dp2128
g2099
S'2005.1'
p2129
sg2101
S'8'
sg21
S'Build db.revhx (headrev) table'
p2130
stRp2131
ag3
(g4
g5
(dp2132
g2099
S'2005.1'
p2133
sg2101
S'9'
sg21
S'Rebuild db.locks from db.working'
p2134
stRp2135
ag3
(g4
g5
(dp2136
g2099
S'2005.1'
p2137
sg2101
S'10'
p2138
sg209
S'Removed in 2006.2'
p2139
sg21
S'Build lazy-copy index (db.archive)'
p2140
stRp2141
ag3
(g4
g5
(dp2142
g2099
S'2005.2'
p2143
sg2101
S'11'
p2144
sg21
S'Build db.revdx (delrev) table'
p2145
stRp2146
ag3
(g4
g5
(dp2147
g2099
S'2005.2'
p2148
sg2101
S'12'
p2149
sg209
S'Moved to 16 in 2007.3'
p2150
sg21
S'Build haveMap from db.have/db.working'
p2151
stRp2152
ag3
(g4
g5
(dp2153
g2099
S'2005.2'
p2154
sg2101
S'13'
p2155
sg21
S'Move spec depot entries into db.revsx'
p2156
stRp2157
ag3
(g4
g5
(dp2158
g2099
S'2006.2'
p2159
sg2101
S'14'
p2160
sg209
S'Moved to 17 in 2007.3'
p2161
sg21
S'Build db.archmap (lazy-copy map) table'
p2162
stRp2163
ag3
(g4
g5
(dp2164
g2099
S'2006.2'
p2165
sg2101
S'15'
p2166
sg209
S'Moved to 18 in 2007.3'
p2167
sg21
S'Remove (obsolete) db.archive table'
p2168
stRp2169
ag3
(g4
g5
(dp2170
g2099
S'2007.3'
p2171
sg2101
S'16'
p2172
sg209
S'Rewritten in 2007.3'
p2173
sg21
S'Build/Rebuild haveMap from db.have/db.working'
p2174
stRp2175
ag3
(g4
g5
(dp2176
g2099
S'2007.3'
p2177
sg2101
S'17'
p2178
sg209
S'Rewritten in 2007.3'
p2179
sg21
S'Build/Rebuild db.archmap (lazy-copy map) table'
p2180
stRp2181
ag3
(g4
g5
(dp2182
g2099
S'2007.3'
p2183
sg2101
S'18'
p2184
sg209
S'Moved from 15 in 2007.3'
p2185
sg21
S'Remove (obsolete) db.archive table'
p2186
stRp2187
ag3
(g4
g5
(dp2188
g2099
S'2008.1'
p2189
sg2101
S'19'
p2190
sg21
S'Build db.change common path'
p2191
stRp2192
ag3
(g4
g5
(dp2193
g2099
S'2009.2'
p2194
sg2101
S'20'
p2195
sg21
S'Move db.boddate/db.ixdate into db.bodtext/db.ixtext'
p2196
stRp2197
ag3
(g4
g5
(dp2198
g2099
S'2009.2'
p2199
sg2101
S'21'
p2200
sg21
S'Remove db.boddate/db.ixdate'
p2201
stRp2202
ag3
(g4
g5
(dp2203
g2099
S'2010.2'
p2204
sg2101
S'22'
p2205
sg21
S'Add db.config'
p2206
stRp2207
ag3
(g4
g5
(dp2208
g2099
S'2011.1'
p2209
sg2101
S'23'
p2210
sg21
S'Upgrade tiny.db'
p2211
stRp2212
atRp2213
stRp2214
sS'commit_upgrades'
p2215
g3
(g4
g5
(dp2216
S'commit_upgrade'
p2217
g3
(g8
g9
(lp2218
g3
(g4
g5
(dp2219
g2099
S'2013.2'
p2220
sg2101
S'commit-server'
p2221
sg209
S'Generate exclusive lock records in db.excl based on db.working data.'
p2222
sg21
S'Generate exclusive locks'
p2223
stRp2224
ag3
(g4
g5
(dp2225
g2099
S'2014.1'
p2226
sg2101
S'commit-server'
p2227
sg209
S'Promote existing shelves by updating changeStatus in db.change and db.changex.'
p2228
sg21
S'Promote Shelves'
p2229
stRp2230
atRp2231
stRp2232
sS'datatypes'
p2233
g3
(g4
g5
(dp2234
S'datatype'
p2235
g3
(g8
g9
(lp2236
g3
(g4
g5
(dp2237
g19
S'flag'
p2238
sS'summary'
p2239
S'Type of action'
p2240
sS'values'
p2241
g3
(g8
g9
(lp2242
g3
(g4
g5
(dp2243
S'value'
p2244
S'0'
sg21
S'add; user adds a file'
p2245
stRp2246
ag3
(g4
g5
(dp2247
g2244
S'1'
sg21
S'edit; user edits a file'
p2248
stRp2249
ag3
(g4
g5
(dp2250
g2244
S'2'
sg21
S'delete; user deletes a file'
p2251
stRp2252
ag3
(g4
g5
(dp2253
g2244
S'3'
sg21
S'branch; add via integration'
p2254
stRp2255
ag3
(g4
g5
(dp2256
g2244
S'4'
sg21
S'integ; edit via integration'
p2257
stRp2258
ag3
(g4
g5
(dp2259
g2244
S'5'
sg21
S'import; add via remote depot'
p2260
stRp2261
ag3
(g4
g5
(dp2262
g2244
S'6'
sg21
S'purge; purged revision, no longer available'
p2263
stRp2264
ag3
(g4
g5
(dp2265
g2244
S'7'
sg21
S'movefrom; move from another filename'
p2266
stRp2267
ag3
(g4
g5
(dp2268
g2244
S'8'
sg21
S'moveto; move to another filename'
p2269
stRp2270
ag3
(g4
g5
(dp2271
g2244
S'9'
sg21
S'archive; stored in archive depot'
p2272
stRp2273
atRp2274
sg17
S'Action'
p2275
sg21
S'Revisions are produced by user actions. The Action\n\t\ttype defines the available actions and their internal values.'
p2276
stRp2277
ag3
(g4
g5
(dp2278
g2239
S'A changelist number'
p2279
sg19
S'integer'
p2280
sg17
S'Change'
p2281
sg21
S'The number of a changelist. The number 0 represents the\n\t\tdefault pending changelist.'
p2282
stRp2283
ag3
(g4
g5
(dp2284
g19
S'flag'
p2285
sg2239
S'The status of a change'
p2286
sg2241
g3
(g8
g9
(lp2287
g3
(g4
g5
(dp2288
g2244
S'0'
sg21
S'pending'
p2289
stRp2290
ag3
(g4
g5
(dp2291
g2244
S'1'
sg21
S'committed'
p2292
stRp2293
ag3
(g4
g5
(dp2294
g2244
S'2'
sg21
S'shelved'
p2295
stRp2296
ag3
(g4
g5
(dp2297
g2244
S'4'
sg21
S'restricted, pending'
p2298
stRp2299
ag3
(g4
g5
(dp2300
g2244
S'5'
sg21
S'restricted, committed'
p2301
stRp2302
ag3
(g4
g5
(dp2303
g2244
S'8'
sg21
S'hidden (shelf only)'
p2304
stRp2305
ag3
(g4
g5
(dp2306
g2244
S'16'
p2307
sg21
S'promoted (shelf only)'
p2308
stRp2309
atRp2310
sg17
S'ChangeStatus'
p2311
sg21
S'A integer value representing the status of a change'
p2312
stRp2313
ag3
(g4
g5
(dp2314
g2239
S'A counter name'
p2315
sg19
S'string'
p2316
sg17
S'Counter'
p2317
sg21
S'A string representing the counter name. Counter names must \n\t\tcontain no spaces, contain no slashes, and be identifiers \n\t\t(cannot begin with a dash and cannot be all-numeric)'
p2318
stRp2319
ag3
(g4
g5
(dp2320
g2239
S'A unix-style date and time'
p2321
sg19
S'integer'
p2322
sg17
S'Date'
p2323
sg21
S'A date and time represented as the number of seconds since \n\t\tthe Epoch: 01 January 1970 00:00:00 UTC. This is the same \n\t\tconvention as that used on Unix platforms.'
p2324
stRp2325
ag3
(g4
g5
(dp2326
g19
S'flag'
p2327
sg2239
S'Type of Depot'
p2328
sg2241
g3
(g8
g9
(lp2329
g3
(g4
g5
(dp2330
g2244
S'0'
sg21
S'local depot'
p2331
stRp2332
ag3
(g4
g5
(dp2333
g2244
S'1'
sg21
S'remote depot'
p2334
stRp2335
ag3
(g4
g5
(dp2336
g2244
S'2'
sg21
S'spec depot'
p2337
stRp2338
ag3
(g4
g5
(dp2339
g2244
S'3'
sg21
S'stream depot'
p2340
stRp2341
ag3
(g4
g5
(dp2342
g2244
S'4'
sg21
S'archive depot'
p2343
stRp2344
ag3
(g4
g5
(dp2345
g2244
S'5'
sg21
S'unload depot'
p2346
stRp2347
atRp2348
sg17
S'DepotType'
p2349
sg21
S'The type of a given depot'
p2350
stRp2351
ag3
(g4
g5
(dp2352
g2239
S'A short string value'
p2353
sg21
S'The first 31 characters of a Text string'
p2354
sg19
S'string'
p2355
sg17
S'DescShort'
p2356
sg133
S'Text'
p2357
stRp2358
ag3
(g4
g5
(dp2359
g2239
S'An MD5 digest'
p2360
sg19
S'string'
p2361
sg17
S'Digest'
p2362
sg21
S'A string containing an MD5 digest.'
p2363
stRp2364
ag3
(g4
g5
(dp2365
g2239
S'A domain name'
p2366
sg19
S'string'
p2367
sg17
S'Domain'
p2368
sg21
S'A string representing the name of a depot, label, client,\n\t\tbranch, typemap, or stream.'
p2369
stRp2370
ag3
(g4
g5
(dp2371
g2239
S'A string with optional wildcards'
p2372
sg19
S'string'
p2373
sg17
S'DomainWild'
p2374
sg21
S'A string that may contain wildcards - usually an IP address\n\t\tin the protections table.'
p2375
stRp2376
ag3
(g4
g5
(dp2377
g2241
g3
(g8
g9
(lp2378
g3
(g4
g5
(dp2379
S'mask'
p2380
S'Domain Flags'
p2381
sg2244
S'0x0001'
p2382
sg21
S'modtime'
p2383
stRp2384
ag3
(g4
g5
(dp2385
g2380
S'Domain Flags'
p2386
sg2244
S'0x0002'
p2387
sg21
S'clobber'
p2388
stRp2389
ag3
(g4
g5
(dp2390
g2380
S'Domain Flags'
p2391
sg2244
S'0x0004'
p2392
sg21
S'allwrite'
p2393
stRp2394
ag3
(g4
g5
(dp2395
g2380
S'Domain Flags'
p2396
sg2244
S'0x0008'
p2397
sg21
S'locked'
p2398
stRp2399
ag3
(g4
g5
(dp2400
g2380
S'Domain Flags'
p2401
sg2244
S'0x0020'
p2402
sg21
S'compress'
p2403
stRp2404
ag3
(g4
g5
(dp2405
g2380
S'Domain Flags'
p2406
sg2244
S'0x0040'
p2407
sg21
S'rmdir'
p2408
stRp2409
ag3
(g4
g5
(dp2410
g2380
S'Domain Flags'
p2411
sg2244
S'0x1000'
p2412
sg21
S'indirect (obsolete since 2004.2)'
p2413
stRp2414
ag3
(g4
g5
(dp2415
g2380
S'Domain Flags'
p2416
sg2244
S'0x8000'
p2417
sg21
S'autoreload'
p2418
stRp2419
ag3
(g4
g5
(dp2420
g2380
S'Domain LineEnd'
p2421
sg2244
S'0x0000'
p2422
sg21
S'local'
p2423
stRp2424
ag3
(g4
g5
(dp2425
g2380
S'Domain LineEnd'
p2426
sg2244
S'0x0010'
p2427
sg21
S'unix (LF)'
p2428
stRp2429
ag3
(g4
g5
(dp2430
g2380
S'Domain LineEnd'
p2431
sg2244
S'0x0200'
p2432
sg21
S'mac (CR)'
p2433
stRp2434
ag3
(g4
g5
(dp2435
g2380
S'Domain LineEnd'
p2436
sg2244
S'0x0300'
p2437
sg21
S'win (CRLF)'
p2438
stRp2439
ag3
(g4
g5
(dp2440
g2380
S'Domain LineEnd'
p2441
sg2244
S'0x0400'
p2442
sg21
S'share (LF/CRLF)'
p2443
stRp2444
ag3
(g4
g5
(dp2445
g2380
S'Domain SubmitMask'
p2446
sg2244
S'0x1000'
p2447
sg21
S'Revert unchanged files'
p2448
stRp2449
ag3
(g4
g5
(dp2450
g2380
S'Domain SubmitMask'
p2451
sg2244
S'0x2000'
p2452
sg21
S'Leave unchanged files'
p2453
stRp2454
ag3
(g4
g5
(dp2455
g2380
S'Domain SubmitMask'
p2456
sg2244
S'0x4000'
p2457
sg21
S'Submit, and re-open unchanged files'
p2458
stRp2459
ag3
(g4
g5
(dp2460
g2380
S'Domain StreamMask'
p2461
sg2244
S'0x0001'
p2462
sg21
S'ownersubmit'
p2463
stRp2464
ag3
(g4
g5
(dp2465
g2380
S'Domain StreamMask'
p2466
sg2244
S'0x0002'
p2467
sg21
S'locked'
p2468
stRp2469
ag3
(g4
g5
(dp2470
g2380
S'Domain StreamMask'
p2471
sg2244
S'0x0004'
p2472
sg21
S'change flows to parent'
p2473
stRp2474
ag3
(g4
g5
(dp2475
g2380
S'Domain StreamMask'
p2476
sg2244
S'0x0008'
p2477
sg21
S'change flows from parent'
p2478
stRp2479
atRp2480
sg17
S'DomainOpts'
p2481
sg2380
g3
(g8
g9
(lp2482
g3
(g4
g5
(dp2483
g17
S'Domain Flags'
p2484
sg2244
S'0x10EF'
p2485
sg21
S'Bits used to store client, label, and branch options'
p2486
stRp2487
ag3
(g4
g5
(dp2488
g17
S'Domain LineEnd'
p2489
sg2244
S'0x0710'
p2490
sg21
S'Bits used to store client line termination settings.'
p2491
stRp2492
ag3
(g4
g5
(dp2493
g17
S'Domain SubmitMask'
p2494
sg2244
S'0x7000'
p2495
sg21
S'Bits used to store client submit options'
p2496
stRp2497
ag3
(g4
g5
(dp2498
g17
S'Domain StreamMask'
p2499
sg2244
S'0x000F'
p2500
sg21
S'Bits used to store stream options'
p2501
stRp2502
atRp2503
sg2239
S'Options for domains'
p2504
sg19
S'bitmask'
p2505
sg21
S'A integer value representing the options for a domain'
p2506
stRp2507
ag3
(g4
g5
(dp2508
g19
S'flag'
p2509
sg2239
S'A domain type'
p2510
sg2241
g3
(g8
g9
(lp2511
g3
(g4
g5
(dp2512
g2244
S"67 (ASCII 'C')"
p2513
sg21
S'unloaded client'
p2514
stRp2515
ag3
(g4
g5
(dp2516
g2244
S"76 (ASCII 'L')"
p2517
sg21
S'unloaded label'
p2518
stRp2519
ag3
(g4
g5
(dp2520
g2244
S"83 (ASCII 'S')"
p2521
sg21
S'unloaded task stream'
p2522
stRp2523
ag3
(g4
g5
(dp2524
g2244
S"98 (ASCII 'b')"
p2525
sg21
S'branch'
p2526
stRp2527
ag3
(g4
g5
(dp2528
g2244
S"99 (ASCII 'c')"
p2529
sg21
S'client'
p2530
stRp2531
ag3
(g4
g5
(dp2532
g2244
S"100 (ASCII 'd')"
p2533
sg21
S'depot'
p2534
stRp2535
ag3
(g4
g5
(dp2536
g2244
S"108 (ASCII 'l')"
p2537
sg21
S'label'
p2538
stRp2539
ag3
(g4
g5
(dp2540
g2244
S"115 (ASCII 's')"
p2541
sg21
S'stream'
p2542
stRp2543
ag3
(g4
g5
(dp2544
g2244
S"116 (ASCII 't')"
p2545
sg21
S'typemap'
p2546
stRp2547
atRp2548
sg17
S'DomainType'
p2549
sg21
S'A integer value representing the type of a domain'
p2550
stRp2551
ag3
(g4
g5
(dp2552
g2239
S'A file name'
p2553
sg21
S'A string representing the filename'
p2554
sg19
S'string'
p2555
sg17
S'File'
p2556
sg133
S'FileType'
p2557
stRp2558
ag3
(g4
g5
(dp2559
g2239
S'A file size'
p2560
sg19
S'integer'
p2561
sg17
S'FileSize'
p2562
sg21
S'A 64-bit integer used to store file sizes. The value -1 is\n\t\tused to represent unknown filesizes.'
p2563
stRp2564
ag3
(g4
g5
(dp2565
g2241
g3
(g8
g9
(lp2566
g3
(g4
g5
(dp2567
g2380
S'Storage Type'
p2568
sg2244
S'0x0000'
p2569
sg21
S'RCS'
p2570
stRp2571
ag3
(g4
g5
(dp2572
g2380
S'Storage Type'
p2573
sg2244
S'0x0001'
p2574
sg21
S'Binary'
p2575
stRp2576
ag3
(g4
g5
(dp2577
g2380
S'Storage Type'
p2578
sg2244
S'0x0002'
p2579
sg21
S'Tiny'
p2580
stRp2581
ag3
(g4
g5
(dp2582
g2380
S'Storage Type'
p2583
sg2244
S'0x0003'
p2584
sg21
S'Compressed'
p2585
stRp2586
ag3
(g4
g5
(dp2587
g2380
S'Storage Type'
p2588
sg2244
S'0x0004'
p2589
sg21
S'tempobj (deprecated since 2002.1)'
p2590
stRp2591
ag3
(g4
g5
(dp2592
g2380
S'Storage Type'
p2593
sg2244
S'0x0005'
p2594
sg21
S'Detect type. Used internally when no type is\n\t\t    given by the user.'
p2595
stRp2596
ag3
(g4
g5
(dp2597
g2380
S'Storage Type'
p2598
sg2244
S'0x0006'
p2599
sg21
S'Comressed tempobj (deprecated since 2002.1)'
p2600
stRp2601
ag3
(g4
g5
(dp2602
g2380
S'Storage Type'
p2603
sg2244
S'0x0007'
p2604
sg21
S'Binary access to compressed data. Used internally.'
p2605
stRp2606
ag3
(g4
g5
(dp2607
g2380
S'Storage Type'
p2608
sg2244
S'0x0008'
p2609
sg21
S'Stored externally via librarian trigger'
p2610
stRp2611
ag3
(g4
g5
(dp2612
g2380
S'Storage Mods'
p2613
sg2244
S'0x0010'
p2614
sg21
S'99.2-style keyword expansion/contraction'
p2615
stRp2616
ag3
(g4
g5
(dp2617
g2380
S'Storage Mods'
p2618
sg2244
S'0x0020'
p2619
sg21
S'2000.1-style keyword expansion/contraction'
p2620
stRp2621
ag3
(g4
g5
(dp2622
g2380
S'Storage Mods'
p2623
sg2244
S'0x0030'
p2624
sg21
S'Any type of keyword expansion'
p2625
stRp2626
ag3
(g4
g5
(dp2627
g2380
S'Storage Mods'
p2628
sg2244
S'0x0040'
p2629
sg21
S'Exclusive open'
p2630
stRp2631
ag3
(g4
g5
(dp2632
g2380
S'Storage Mods'
p2633
sg2244
S'0x0080'
p2634
sg21
S'New tempobj (+S modifier)'
p2635
stRp2636
ag3
(g4
g5
(dp2637
g2380
S'Tempobj revisions'
p2638
sg2244
S'0x0000'
p2639
sg21
S'+S1'
p2640
stRp2641
ag3
(g4
g5
(dp2642
g2380
S'Tempobj revisions'
p2643
sg2244
S'0x0100'
p2644
sg21
S'+S2'
p2645
stRp2646
ag3
(g4
g5
(dp2647
g2380
S'Tempobj revisions'
p2648
sg2244
S'0x0200'
p2649
sg21
S'+S3'
p2650
stRp2651
ag3
(g4
g5
(dp2652
g2380
S'Tempobj revisions'
p2653
sg2244
S'0x0300'
p2654
sg21
S'+S4'
p2655
stRp2656
ag3
(g4
g5
(dp2657
g2380
S'Tempobj revisions'
p2658
sg2244
S'0x0400'
p2659
sg21
S'+S5'
p2660
stRp2661
ag3
(g4
g5
(dp2662
g2380
S'Tempobj revisions'
p2663
sg2244
S'0x0500'
p2664
sg21
S'+S6'
p2665
stRp2666
ag3
(g4
g5
(dp2667
g2380
S'Tempobj revisions'
p2668
sg2244
S'0x0600'
p2669
sg21
S'+S7'
p2670
stRp2671
ag3
(g4
g5
(dp2672
g2380
S'Tempobj revisions'
p2673
sg2244
S'0x0700'
p2674
sg21
S'+S8'
p2675
stRp2676
ag3
(g4
g5
(dp2677
g2380
S'Tempobj revisions'
p2678
sg2244
S'0x0800'
p2679
sg21
S'+S9'
p2680
stRp2681
ag3
(g4
g5
(dp2682
g2380
S'Tempobj revisions'
p2683
sg2244
S'0x0900'
p2684
sg21
S'+S10'
p2685
stRp2686
ag3
(g4
g5
(dp2687
g2380
S'Tempobj revisions'
p2688
sg2244
S'0x0A00'
p2689
sg21
S'+S16'
p2690
stRp2691
ag3
(g4
g5
(dp2692
g2380
S'Tempobj revisions'
p2693
sg2244
S'0x0B00'
p2694
sg21
S'+S32'
p2695
stRp2696
ag3
(g4
g5
(dp2697
g2380
S'Tempobj revisions'
p2698
sg2244
S'0x0C00'
p2699
sg21
S'+S64'
p2700
stRp2701
ag3
(g4
g5
(dp2702
g2380
S'Tempobj revisions'
p2703
sg2244
S'0x0D00'
p2704
sg21
S'+S128'
p2705
stRp2706
ag3
(g4
g5
(dp2707
g2380
S'Tempobj revisions'
p2708
sg2244
S'0x0E00'
p2709
sg21
S'+S256'
p2710
stRp2711
ag3
(g4
g5
(dp2712
g2380
S'Tempobj revisions'
p2713
sg2244
S'0x0F00'
p2714
sg21
S'+S512'
p2715
stRp2716
ag3
(g4
g5
(dp2717
g2380
S'Client Type'
p2718
sg2244
S'0x0000000'
p2719
sg21
S'text'
p2720
stRp2721
ag3
(g4
g5
(dp2722
g2380
S'Client Type'
p2723
sg2244
S'0x0010000'
p2724
sg21
S'binary'
p2725
stRp2726
ag3
(g4
g5
(dp2727
g2380
S'Client Type'
p2728
sg2244
S'0x0020000'
p2729
sg21
S'executable bit set'
p2730
stRp2731
ag3
(g4
g5
(dp2732
g2380
S'Client Type'
p2733
sg2244
S'0x0040000'
p2734
sg21
S'symlink'
p2735
stRp2736
ag3
(g4
g5
(dp2737
g2380
S'Client Type'
p2738
sg2244
S'0x0050000'
p2739
sg21
S'resource fork'
p2740
stRp2741
ag3
(g4
g5
(dp2742
g2380
S'Client Type'
p2743
sg2244
S'0x0080000'
p2744
sg21
S'unicode'
p2745
stRp2746
ag3
(g4
g5
(dp2747
g2380
S'Client Type'
p2748
sg2244
S'0x0090000'
p2749
sg21
S'raw text (nocrlf - 99.1)'
p2750
stRp2751
ag3
(g4
g5
(dp2752
g2380
S'Client Type'
p2753
sg2244
S'0x00C0000'
p2754
sg21
S'apple data + resource file (since 2000.2)'
p2755
stRp2756
ag3
(g4
g5
(dp2757
g2380
S'Client Type'
p2758
sg2244
S'0x00D0000'
p2759
sg21
S'apple data + resource file (99.2)'
p2760
stRp2761
ag3
(g4
g5
(dp2762
g2380
S'Client Type'
p2763
sg2244
S'0x1000000'
p2764
sg21
S'Used to support filetype detection'
p2765
stRp2766
ag3
(g4
g5
(dp2767
g2380
S'Client Mods'
p2768
sg2244
S'0x0100000'
p2769
sg21
S'writable'
p2770
stRp2771
ag3
(g4
g5
(dp2772
g2380
S'Client Mods'
p2773
sg2244
S'0x0200000'
p2774
sg21
S'modtime'
p2775
stRp2776
ag3
(g4
g5
(dp2777
g2380
S'Client Mods'
p2778
sg2244
S'0x0400000'
p2779
sg21
S'uncompress on client'
p2780
stRp2781
atRp2782
sg17
S'FileType'
p2783
sg2380
g3
(g8
g9
(lp2784
g3
(g4
g5
(dp2785
g17
S'Storage Type'
p2786
sg2244
S'0x000F'
p2787
sg21
S"Bits used to store the server's storage type"
p2788
stRp2789
ag3
(g4
g5
(dp2790
g17
S'Storage Mods'
p2791
sg2244
S'0x00F0'
p2792
sg21
S"Bits used to store the modifiers to the server's storage \n\t\t    type"
p2793
stRp2794
ag3
(g4
g5
(dp2795
g17
S'Tempobj revisions'
p2796
sg2244
S'0x0F00'
p2797
sg21
S'Bits used to store the number of revisions to be stored\n\t\t    for +Sn files.'
p2798
stRp2799
ag3
(g4
g5
(dp2800
g17
S'Client Type'
p2801
sg2244
S'0x10D0000'
p2802
sg21
S"Bits used to store the file type from the client's point\n\t\t    of view."
p2803
stRp2804
ag3
(g4
g5
(dp2805
g17
S'Client Mods'
p2806
sg2244
S'0x720000'
p2807
sg21
S'Bits used to store the modifiers applied to the file\n\t\t    on the client.'
p2808
stRp2809
atRp2810
sg2239
S'Type of file'
p2811
sg19
S'bitmask'
p2812
sg21
S'The FileType is a bitmask specifying the type and modifiers\n\t\tof a revision from both the client and server points of view.\n\t\tThe first 16 bits are used to store the storage type and \n\t\tmodifiers, the next 16 bits are used to store the client \n\t\taccess method and modifiers.'
p2813
stRp2814
ag3
(g4
g5
(dp2815
g2239
S'Status of a fixed job'
p2816
sg19
S'string'
p2817
sg17
S'FixStatus'
p2818
sg21
S'This type is a wrapper around the \'Text\' type that handles\n\t\tthe pre-2000.1 "closed" default value.'
p2819
stRp2820
ag3
(g4
g5
(dp2821
g2239
S'A 32-bit integer'
p2822
sg19
S'integer'
p2823
sg17
S'Int'
p2824
sg21
S'A 32-bit integer'
p2825
stRp2826
ag3
(g4
g5
(dp2827
g2239
S'An 8-bit integer'
p2828
sg19
S'integer'
p2829
sg17
S'Int8'
p2830
sg21
S'An 8-bit integer: an unsigned char'
p2831
stRp2832
ag3
(g4
g5
(dp2833
g2239
S'A 64-bit integer'
p2834
sg19
S'integer'
p2835
sg17
S'Int64'
p2836
sg21
S'A 64-bit integer.'
p2837
stRp2838
ag3
(g4
g5
(dp2839
g209
S'All integration records should have a corresponding \n\t\treverse record. The \'branch from\' (2) and \'merge from\' (0) \n\t\trecords have corresponding "dirty" reverse records for cases \n\t\twhere the target file took more than one change or was \n\t\t(re)opened for \'edit\' or \'add\'.'
p2840
sg2241
g3
(g8
g9
(lp2841
g3
(g4
g5
(dp2842
g2244
S'0'
sg21
S'merge from: integration with other changes'
p2843
stRp2844
ag3
(g4
g5
(dp2845
g2244
S'1'
sg21
S'merge into: reverse merge'
p2846
stRp2847
ag3
(g4
g5
(dp2848
g2244
S'2'
sg21
S'branch from: integration was branch of file'
p2849
stRp2850
ag3
(g4
g5
(dp2851
g2244
S'3'
sg21
S'branch into: reverse branch'
p2852
stRp2853
ag3
(g4
g5
(dp2854
g2244
S'4'
sg21
S'copy from: integration took source file whole'
p2855
stRp2856
ag3
(g4
g5
(dp2857
g2244
S'5'
sg21
S'copy into: reverse take'
p2858
stRp2859
ag3
(g4
g5
(dp2860
g2244
S'6'
sg21
S'ignored: integration ignored source changes'
p2861
stRp2862
ag3
(g4
g5
(dp2863
g2244
S'7'
sg21
S'ignored by: reverse copy'
p2864
stRp2865
ag3
(g4
g5
(dp2866
g2244
S'8'
sg21
S'delete from: integration of delete'
p2867
stRp2868
ag3
(g4
g5
(dp2869
g2244
S'9'
sg21
S'delete into: reverse delete'
p2870
stRp2871
ag3
(g4
g5
(dp2872
g2244
S'10'
p2873
sg21
S'edit into: reverse of integration downgraded to \n\t\t    edit'
p2874
stRp2875
ag3
(g4
g5
(dp2876
g2244
S'11'
p2877
sg21
S'add into: reverse of branch downgraded to add'
p2878
stRp2879
ag3
(g4
g5
(dp2880
g2244
S'12'
p2881
sg21
S'edit from: merge that the user edited'
p2882
stRp2883
ag3
(g4
g5
(dp2884
g2244
S'13'
p2885
sg21
S'add from: branch downgraded to add'
p2886
stRp2887
ag3
(g4
g5
(dp2888
g2244
S'14'
p2889
sg21
S'moved from: reverse of renamed file'
p2890
stRp2891
ag3
(g4
g5
(dp2892
g2244
S'15'
p2893
sg21
S'moved into: file was renamed'
p2894
stRp2895
ag3
(g4
g5
(dp2896
g2244
S'16'
p2897
sg21
S"'delete' target rev ignoring non-deleted source"
p2898
stRp2899
ag3
(g4
g5
(dp2900
g2244
S'17'
p2901
sg21
S"non-deleted source ignored by 'delete' target rev"
p2902
stRp2903
ag3
(g4
g5
(dp2904
g2244
S'18'
p2905
sg21
S"'integrate' target rev ignoring deleted source"
p2906
stRp2907
ag3
(g4
g5
(dp2908
g2244
S'19'
p2909
sg21
S"deleted source ignored by 'integrate' target rev"
p2910
stRp2911
atRp2912
sg17
S'IntegHow'
p2913
sg2239
S'Integration methods'
p2914
sg19
S'flag'
p2915
sg21
S"Specifies how an integration was performed. Integrations\n\t\talways come in pairs: the 'forward' and 'reverse' records.\n\t\tAs a general rule, the forward records contain the word \n\t\t'from'; and the reverse records contain the word 'into'."
p2916
stRp2917
ag3
(g4
g5
(dp2918
g19
S'flag'
p2919
sg2239
S'Job status - defunct'
p2920
sg2241
g3
(g8
g9
(lp2921
g3
(g4
g5
(dp2922
g2244
S'0'
sg21
S'open'
p2923
stRp2924
ag3
(g4
g5
(dp2925
g2244
S'1'
sg21
S'closed'
p2926
stRp2927
ag3
(g4
g5
(dp2928
g2244
S'2'
sg21
S'suspended'
p2929
stRp2930
atRp2931
sg17
S'JobStat'
p2932
sg21
S'Old (pre-98.2) job status values.'
p2933
stRp2934
ag3
(g4
g5
(dp2935
g2239
S'A key name'
p2936
sg19
S'string'
p2937
sg17
S'Key'
p2938
sg21
S'A string representing the key name. Key names must \n\t\tcontain no spaces, contain no slashes, and be identifiers \n\t\t(cannot begin with a dash and cannot be all-numeric)'
p2939
stRp2940
ag3
(g4
g5
(dp2941
g19
S'flag'
p2942
sg2239
S'Types of mapping'
p2943
sg2241
g3
(g8
g9
(lp2944
g3
(g4
g5
(dp2945
g2244
S'0'
sg21
S'mapped-in (the default)'
p2946
stRp2947
ag3
(g4
g5
(dp2948
g2244
S'1'
sg21
S"mapped-out (mappings that start with '-')"
p2949
stRp2950
ag3
(g4
g5
(dp2951
g2244
S'2'
sg21
S"overlay (mappings that start with '+')"
p2952
stRp2953
ag3
(g4
g5
(dp2954
g2244
S'3'
sg21
S"haveMap (mappings that start with '$'). Used internally\n\t\t    only"
p2955
stRp2956
ag3
(g4
g5
(dp2957
g2244
S'4'
sg21
S"changeMap (mappings that start with '@')"
p2958
stRp2959
atRp2960
sg17
S'MapFlag'
p2961
sg21
S'Specifies how the files specified by a mapping should be\n\t\ttreated'
p2962
stRp2963
ag3
(g4
g5
(dp2964
g2239
S'A string representing a mapping'
p2965
sg19
S'string'
p2966
sg17
S'Mapping'
p2967
sg21
S'A Mapping is essentially a file name that may contain\n\t\twildcards'
p2968
stRp2969
ag3
(g4
g5
(dp2970
g2239
S'Maximum number of milliseconds to hold locks'
p2971
sg19
S'integer'
p2972
sg17
S'MaxLockTime'
p2973
sg21
S"The number of milliseconds for which a command may hold locks.\n\t\tCommands that take longer than this time period will abort. \n\t\tThe value 0 means 'unlimited'."
p2974
stRp2975
ag3
(g4
g5
(dp2976
g2239
S'Maximum number of results permitted'
p2977
sg19
S'integer'
p2978
sg17
S'MaxResults'
p2979
sg21
S"The number of results that commands run by the restricted\n\t\tuser are permitted to return. The value 0 means 'unlimited'."
p2980
stRp2981
ag3
(g4
g5
(dp2982
g2239
S'Maximum number of records scanned'
p2983
sg19
S'integer'
p2984
sg17
S'MaxScanRows'
p2985
sg21
S"The maximum number of records that the server may read\n\t\ton behalf of the restricted user. The value 0 means \n\t\t'unlimited'."
p2986
stRp2987
ag3
(g4
g5
(dp2988
g2239
S'Encoded hex string'
p2989
sg19
S'string'
p2990
sg17
S'Octet String'
p2991
sg21
S'A variable length encoded hex string. The first octet \n\t\tstores the length of the string.'
p2992
stRp2993
ag3
(g4
g5
(dp2994
g2239
S'The MD5 hash of a password'
p2995
sg19
S'string'
p2996
sg17
S'Password'
p2997
sg21
S'The MD5 hash of an encrypted password.'
p2998
stRp2999
ag3
(g4
g5
(dp3000
g2241
g3
(g8
g9
(lp3001
g3
(g4
g5
(dp3002
g2380
S'PermTypeBits'
p3003
sg17
S'None'
p3004
sg2244
S'0x0000'
p3005
sg21
S'none'
p3006
stRp3007
ag3
(g4
g5
(dp3008
g2380
S'PermTypeBits'
p3009
sg17
S'List'
p3010
sg2244
S'0x0001'
p3011
sg21
S'Grants list access'
p3012
stRp3013
ag3
(g4
g5
(dp3014
g2380
S'PermTypeBits'
p3015
sg17
S'Read'
p3016
sg2244
S'0x0002'
p3017
sg21
S'Grants read access'
p3018
stRp3019
ag3
(g4
g5
(dp3020
g2380
S'PermTypeBits'
p3021
sg17
S'Branch'
p3022
sg2244
S'0x0004'
p3023
sg21
S'Grants ability to branch/integ from'
p3024
stRp3025
ag3
(g4
g5
(dp3026
g2380
S'PermTypeBits'
p3027
sg17
S'Open'
p3028
sg2244
S'0x0008'
p3029
sg21
S'Grants open access'
p3030
stRp3031
ag3
(g4
g5
(dp3032
g2380
S'PermTypeBits'
p3033
sg17
S'Write'
p3034
sg2244
S'0x0010'
p3035
sg21
S'Grants write access'
p3036
stRp3037
ag3
(g4
g5
(dp3038
g2380
S'PermTypeBits'
p3039
sg17
S'Review'
p3040
sg2244
S'0x0020'
p3041
sg21
S'Grants review access'
p3042
stRp3043
ag3
(g4
g5
(dp3044
g2380
S'PermTypeBits'
p3045
sg17
S'Admin'
p3046
sg2244
S'0x0080'
p3047
sg21
S'Grants admin access'
p3048
stRp3049
ag3
(g4
g5
(dp3050
g2380
S'PermTypeBits'
p3051
sg17
S'Super'
p3052
sg2244
S'0x0040'
p3053
sg21
S'Grants super-user access'
p3054
stRp3055
atRp3056
sg17
S'Perm'
p3057
sg2380
g3
(g4
g5
(dp3058
g17
S'PermTypeBits'
p3059
sg2244
S'0x00FF'
p3060
sg21
S'Bits used to store granted permissions'
p3061
stRp3062
sg2239
S'Bitmask of permissions'
p3063
sg19
S'bitmask'
p3064
sg21
S'A bitmask of granted permissions'
p3065
stRp3066
ag3
(g4
g5
(dp3067
g19
S'flag'
p3068
sg2239
S'Archive pull transfer status'
p3069
sg2241
g3
(g8
g9
(lp3070
g3
(g4
g5
(dp3071
g17
S'new'
p3072
sg2244
S'new'
p3073
sg21
S'new transfer'
p3074
stRp3075
ag3
(g4
g5
(dp3076
g17
S'active'
p3077
sg2244
S'active'
p3078
sg21
S'active transfer'
p3079
stRp3080
ag3
(g4
g5
(dp3081
g17
S'done'
p3082
sg2244
S'done'
p3083
sg21
S'completed transfer'
p3084
stRp3085
ag3
(g4
g5
(dp3086
g17
S'error'
p3087
sg2244
S'error'
p3088
sg21
S'errored transfer'
p3089
stRp3090
ag3
(g4
g5
(dp3091
g17
S'restart'
p3092
sg2244
S'restart'
p3093
sg21
S'restarted transfer'
p3094
stRp3095
atRp3096
sg17
S'PullStatus'
p3097
sg21
S'The status of an archive pull transfer'
p3098
stRp3099
ag3
(g4
g5
(dp3100
g19
S'flag'
p3101
sg2239
S'Resolve actions'
p3102
sg2241
g3
(g8
g9
(lp3103
g3
(g4
g5
(dp3104
g2244
S'0'
sg21
S'Content resolve'
p3105
stRp3106
ag3
(g4
g5
(dp3107
g2244
S'1'
sg21
S'Filetype resolve'
p3108
stRp3109
ag3
(g4
g5
(dp3110
g2244
S'2'
sg21
S'Branch resolve'
p3111
stRp3112
ag3
(g4
g5
(dp3113
g2244
S'3'
sg21
S'Delete resolve'
p3114
stRp3115
ag3
(g4
g5
(dp3116
g2244
S'4'
sg21
S'Move resolve'
p3117
stRp3118
ag3
(g4
g5
(dp3119
g2244
S'5'
sg21
S'Attribute resolve'
p3120
stRp3121
ag3
(g4
g5
(dp3122
g2244
S'6'
sg21
S'Charset resolve'
p3123
stRp3124
atRp3125
sg17
S'ResolveState'
p3126
sg21
S'Pending or completed resolve actions.'
p3127
stRp3128
ag3
(g4
g5
(dp3129
g19
S'flag'
p3130
sg2239
S'Resolve methods (obsolete in 2011.1, replaced by ResolveState)'
p3131
sg2241
g3
(g8
g9
(lp3132
g3
(g4
g5
(dp3133
g2244
S'0'
sg21
S'Not yet resolved'
p3134
stRp3135
ag3
(g4
g5
(dp3136
g2244
S'1'
sg21
S'Resolved manually'
p3137
stRp3138
ag3
(g4
g5
(dp3139
g2244
S'2'
sg21
S'Resolved automatically as part of a branch'
p3140
stRp3141
ag3
(g4
g5
(dp3142
g2244
S'3'
sg21
S'Resolved automatically as part of a delete'
p3143
stRp3144
ag3
(g4
g5
(dp3145
g2244
S'4'
sg21
S'Resolved automatically as part of a move'
p3146
stRp3147
atRp3148
sg17
S'ResolvedStatus'
p3149
sg21
S'Specifies how the user resolved merge operations.'
p3150
stRp3151
ag3
(g4
g5
(dp3152
g2239
S'A revision number'
p3153
sg19
S'integer'
p3154
sg17
S'Rev'
p3155
sg21
S"The positive integer number of a specific revision of a file. \n\t\tThe number 0 represents '#none'."
p3156
stRp3157
ag3
(g4
g5
(dp3158
g2241
g3
(g8
g9
(lp3159
g3
(g4
g5
(dp3160
g2380
S'RevStatusBits'
p3161
sg2244
S'0x0000'
p3162
sg21
S'single revision with content'
p3163
stRp3164
ag3
(g4
g5
(dp3165
g2380
S'RevStatusBits'
p3166
sg2244
S'0x0001'
p3167
sg21
S'single revision lazy copied'
p3168
stRp3169
ag3
(g4
g5
(dp3170
g2380
S'RevStatusBits'
p3171
sg2244
S'0x0002'
p3172
sg21
S'revision task sparse'
p3173
stRp3174
ag3
(g4
g5
(dp3175
g2380
S'RevStatusBits'
p3176
sg2244
S'0x0004'
p3177
sg21
S'revision task branch'
p3178
stRp3179
ag3
(g4
g5
(dp3180
g2380
S'RevCharsetBits'
p3181
sg2244
S'0'
sg21
S'NONE'
p3182
stRp3183
ag3
(g4
g5
(dp3184
g2380
S'RevCharsetBits'
p3185
sg2244
S'1'
sg21
S'UTF_8'
p3186
stRp3187
ag3
(g4
g5
(dp3188
g2380
S'RevCharsetBits'
p3189
sg2244
S'2'
sg21
S'ISO8859_1'
p3190
stRp3191
ag3
(g4
g5
(dp3192
g2380
S'RevCharsetBits'
p3193
sg2244
S'3'
sg21
S'UTF_16'
p3194
stRp3195
ag3
(g4
g5
(dp3196
g2380
S'RevCharsetBits'
p3197
sg2244
S'4'
sg21
S'SHIFTJIS'
p3198
stRp3199
ag3
(g4
g5
(dp3200
g2380
S'RevCharsetBits'
p3201
sg2244
S'5'
sg21
S'EUCJP'
p3202
stRp3203
ag3
(g4
g5
(dp3204
g2380
S'RevCharsetBits'
p3205
sg2244
S'6'
sg21
S'WIN_US_ANSI'
p3206
stRp3207
ag3
(g4
g5
(dp3208
g2380
S'RevCharsetBits'
p3209
sg2244
S'7'
sg21
S'WIN_US_OEM'
p3210
stRp3211
ag3
(g4
g5
(dp3212
g2380
S'RevCharsetBits'
p3213
sg2244
S'8'
sg21
S'MACOS_ROMAN'
p3214
stRp3215
ag3
(g4
g5
(dp3216
g2380
S'RevCharsetBits'
p3217
sg2244
S'9'
sg21
S'ISO8859_15'
p3218
stRp3219
ag3
(g4
g5
(dp3220
g2380
S'RevCharsetBits'
p3221
sg2244
S'10'
p3222
sg21
S'ISO8859_5'
p3223
stRp3224
ag3
(g4
g5
(dp3225
g2380
S'RevCharsetBits'
p3226
sg2244
S'11'
p3227
sg21
S'KOI8_R'
p3228
stRp3229
ag3
(g4
g5
(dp3230
g2380
S'RevCharsetBits'
p3231
sg2244
S'12'
p3232
sg21
S'WIN_CP_1251'
p3233
stRp3234
ag3
(g4
g5
(dp3235
g2380
S'RevCharsetBits'
p3236
sg2244
S'13'
p3237
sg21
S'UTF_16_LE'
p3238
stRp3239
ag3
(g4
g5
(dp3240
g2380
S'RevCharsetBits'
p3241
sg2244
S'14'
p3242
sg21
S'UTF_16_BE'
p3243
stRp3244
ag3
(g4
g5
(dp3245
g2380
S'RevCharsetBits'
p3246
sg2244
S'15'
p3247
sg21
S'UTF_16_LE_BOM'
p3248
stRp3249
ag3
(g4
g5
(dp3250
g2380
S'RevCharsetBits'
p3251
sg2244
S'16'
p3252
sg21
S'UTF_16_BE_BOM'
p3253
stRp3254
ag3
(g4
g5
(dp3255
g2380
S'RevCharsetBits'
p3256
sg2244
S'17'
p3257
sg21
S'UTF_16_BOM'
p3258
stRp3259
ag3
(g4
g5
(dp3260
g2380
S'RevCharsetBits'
p3261
sg2244
S'18'
p3262
sg21
S'UTF_8_BOM'
p3263
stRp3264
ag3
(g4
g5
(dp3265
g2380
S'RevCharsetBits'
p3266
sg2244
S'19'
p3267
sg21
S'UTF_32'
p3268
stRp3269
ag3
(g4
g5
(dp3270
g2380
S'RevCharsetBits'
p3271
sg2244
S'20'
p3272
sg21
S'UTF_32_LE'
p3273
stRp3274
ag3
(g4
g5
(dp3275
g2380
S'RevCharsetBits'
p3276
sg2244
S'21'
p3277
sg21
S'UTF_32_BE'
p3278
stRp3279
ag3
(g4
g5
(dp3280
g2380
S'RevCharsetBits'
p3281
sg2244
S'22'
p3282
sg21
S'UTF_32_LE_BOM'
p3283
stRp3284
ag3
(g4
g5
(dp3285
g2380
S'RevCharsetBits'
p3286
sg2244
S'23'
p3287
sg21
S'UTF_32_BE_BOM'
p3288
stRp3289
ag3
(g4
g5
(dp3290
g2380
S'RevCharsetBits'
p3291
sg2244
S'24'
p3292
sg21
S'UTF_32_BOM'
p3293
stRp3294
ag3
(g4
g5
(dp3295
g2380
S'RevCharsetBits'
p3296
sg2244
S'25'
p3297
sg21
S'UTF_8_UNCHECKED'
p3298
stRp3299
ag3
(g4
g5
(dp3300
g2380
S'RevCharsetBits'
p3301
sg2244
S'26'
p3302
sg21
S'UTF_8_UNCHECKED_BOM'
p3303
stRp3304
ag3
(g4
g5
(dp3305
g2380
S'RevCharsetBits'
p3306
sg2244
S'27'
p3307
sg21
S'CP949'
p3308
stRp3309
ag3
(g4
g5
(dp3310
g2380
S'RevCharsetBits'
p3311
sg2244
S'28'
p3312
sg21
S'CP936'
p3313
stRp3314
ag3
(g4
g5
(dp3315
g2380
S'RevCharsetBits'
p3316
sg2244
S'29'
p3317
sg21
S'CP950'
p3318
stRp3319
ag3
(g4
g5
(dp3320
g2380
S'RevCharsetBits'
p3321
sg2244
S'30'
p3322
sg21
S'CP850'
p3323
stRp3324
ag3
(g4
g5
(dp3325
g2380
S'RevCharsetBits'
p3326
sg2244
S'31'
p3327
sg21
S'CP858'
p3328
stRp3329
atRp3330
sg17
S'RevStatus'
p3331
sg2380
g3
(g8
g9
(lp3332
g3
(g4
g5
(dp3333
g17
S'RevStatusBits'
p3334
sg2244
S'0x000F'
p3335
sg21
S'Bits used to store revision status'
p3336
stRp3337
ag3
(g4
g5
(dp3338
g17
S'RevCharsetBits'
p3339
sg2244
S'0x007F'
p3340
sg21
S'Bits used to store revision charset (high 8 bits). Value shifted right 24 bits before applying mask'
p3341
stRp3342
atRp3343
sg2239
S'A revision status'
p3344
sg19
S'bitmask'
p3345
sg21
S'Lazy copy, task stream promotion, and charset status'
p3346
stRp3347
ag3
(g4
g5
(dp3348
g2239
S'Type of reviewer'
p3349
sg19
S'integer'
p3350
sg17
S'Reviewer'
p3351
sg21
S'The type of reviewer. Currently there is only one type of\n\t\treviewer and 0 is the only valid value.'
p3352
stRp3353
ag3
(g4
g5
(dp3354
g19
S'flag'
p3355
sg2239
S'The type of server'
p3356
sg2241
g3
(g8
g9
(lp3357
g3
(g4
g5
(dp3358
g2244
S'0'
sg21
S'standard'
p3359
stRp3360
ag3
(g4
g5
(dp3361
g2244
S'1'
sg21
S'proxy'
p3362
stRp3363
ag3
(g4
g5
(dp3364
g2244
S'2'
sg21
S'broker'
p3365
stRp3366
atRp3367
sg17
S'ServerType'
p3368
sg21
S'The type of server'
p3369
stRp3370
ag3
(g4
g5
(dp3371
g2241
g3
(g8
g9
(lp3372
g3
(g4
g5
(dp3373
g2380
S'Service Set Value'
p3374
sg2244
S'0x0903'
p3375
sg21
S'standard \t\t( db-read | db-write | rmt-depot | rmt-journal )'
p3376
stRp3377
ag3
(g4
g5
(dp3378
g2380
S'Service Set Value'
p3379
sg2244
S'0x0045'
p3380
sg21
S'replica \t\t( db-read | db-replication | file-replication | rmt-depot | rmt-journal )'
p3381
stRp3382
ag3
(g4
g5
(dp3383
g2380
S'Service Set Value'
p3384
sg2244
S'0x0030'
p3385
sg21
S'broker ( brokering | forwarding )'
p3386
stRp3387
ag3
(g4
g5
(dp3388
g2380
S'Service Set Value'
p3389
sg2244
S'0x00A0'
p3390
sg21
S'proxy ( forwarding | file-cacheing )'
p3391
stRp3392
ag3
(g4
g5
(dp3393
g2380
S'Service Set Value'
p3394
sg2244
S'0x00E5'
p3395
sg21
S'forwarding-replica ( db-read | db-replication | forwarding | file-replication | file-cacheing | rmt-depot | rmt-journal )'
p3396
stRp3397
ag3
(g4
g5
(dp3398
g2380
S'Service Set Value'
p3399
sg2244
S'0x004D'
p3400
sg21
S'build-server ( db-read | db-replicaton | bound-clients | file-replication | rmt-depot | rmt-journal )'
p3401
stRp3402
ag3
(g4
g5
(dp3403
g2380
S'Service Set Value'
p3404
sg2244
S'0x0203'
p3405
sg21
S'P4AUTH ( db-read | db-write | rmt-auth )'
p3406
stRp3407
ag3
(g4
g5
(dp3408
g2380
S'Service Set Value'
p3409
sg2244
S'0x0403'
p3410
sg21
S'P4CHANGE ( db-read | db-write | rmt-change )'
p3411
stRp3412
ag3
(g4
g5
(dp3413
g2380
S'Service Set Value'
p3414
sg2244
S'0x19ED'
p3415
sg21
S'edge-server ( db-read | db-replication | bound-clients | forwarding | file-replication | file-cacheing | rmt-depot | rmt-journal | local-opens )'
p3416
stRp3417
ag3
(g4
g5
(dp3418
g2380
S'Service Set Value'
p3419
sg2244
S'0x2F03'
p3420
sg21
S'commit-server ( db-read | db-write | rmt-depot | rmt-journal | rmt-change | rmt-auth | commit-server )'
p3421
stRp3422
ag3
(g4
g5
(dp3423
g2380
S'Service Property'
p3424
sg2244
S'0x0001'
p3425
sg21
S'db-read'
p3426
stRp3427
ag3
(g4
g5
(dp3428
g2380
S'Service Property'
p3429
sg2244
S'0x0002'
p3430
sg21
S'db-write'
p3431
stRp3432
ag3
(g4
g5
(dp3433
g2380
S'Service Property'
p3434
sg2244
S'0x0004'
p3435
sg21
S'db-replication'
p3436
stRp3437
ag3
(g4
g5
(dp3438
g2380
S'Service Property'
p3439
sg2244
S'0x0008'
p3440
sg21
S'bound-clients'
p3441
stRp3442
ag3
(g4
g5
(dp3443
g2380
S'Service Property'
p3444
sg2244
S'0x0010'
p3445
sg21
S'brokering'
p3446
stRp3447
ag3
(g4
g5
(dp3448
g2380
S'Service Property'
p3449
sg2244
S'0x0020'
p3450
sg21
S'forwarding'
p3451
stRp3452
ag3
(g4
g5
(dp3453
g2380
S'Service Property'
p3454
sg2244
S'0x0040'
p3455
sg21
S'file-replication'
p3456
stRp3457
ag3
(g4
g5
(dp3458
g2380
S'Service Property'
p3459
sg2244
S'0x0080'
p3460
sg21
S'file-cacheing'
p3461
stRp3462
ag3
(g4
g5
(dp3463
g2380
S'Service Property'
p3464
sg2244
S'0x0100'
p3465
sg21
S'rmt-depot'
p3466
stRp3467
ag3
(g4
g5
(dp3468
g2380
S'Service Property'
p3469
sg2244
S'0x0200'
p3470
sg21
S'rmt-auth'
p3471
stRp3472
ag3
(g4
g5
(dp3473
g2380
S'Service Property'
p3474
sg2244
S'0x0400'
p3475
sg21
S'rmt-change'
p3476
stRp3477
ag3
(g4
g5
(dp3478
g2380
S'Service Property'
p3479
sg2244
S'0x0800'
p3480
sg21
S'rmt-journal'
p3481
stRp3482
ag3
(g4
g5
(dp3483
g2380
S'Service Property'
p3484
sg2244
S'0x1000'
p3485
sg21
S'local-opens'
p3486
stRp3487
ag3
(g4
g5
(dp3488
g2380
S'Service Property'
p3489
sg2244
S'0x2000'
p3490
sg21
S'commit-server'
p3491
stRp3492
atRp3493
sg17
S'ServerServiceType'
p3494
sg2380
g3
(g8
g9
(lp3495
g3
(g4
g5
(dp3496
g17
S'Service Set Value'
p3497
sg2244
S'None'
p3498
sg21
S"The server service type setting is generated by OR'ing the generic ServerServiceProperties defined below"
p3499
stRp3500
ag3
(g4
g5
(dp3501
g17
S'Service Property'
p3502
sg2244
S'None'
p3503
sg21
S'ServerServiceProperties: Bits used to identify generic server properties'
p3504
stRp3505
atRp3506
sg2239
S'The type of server service'
p3507
sg19
S'bitmask'
p3508
sg21
S'One of standard, replica, broker, proxy, forwarding-replica, build-server, P4AUTH, or P4CHANGE.'
p3509
stRp3510
ag3
(g4
g5
(dp3511
g19
S'flag'
p3512
sg2239
S'Server specification view type'
p3513
sg2241
g3
(g8
g9
(lp3514
g3
(g4
g5
(dp3515
g2244
S'0'
sg21
S'ClientDataFilter'
p3516
stRp3517
ag3
(g4
g5
(dp3518
g2244
S'1'
sg21
S'RevisionDataFilter'
p3519
stRp3520
ag3
(g4
g5
(dp3521
g2244
S'2'
sg21
S'ArchiveDataFilter'
p3522
stRp3523
atRp3524
sg17
S'SvrViewType'
p3525
sg21
S'Server specification view type'
p3526
stRp3527
ag3
(g4
g5
(dp3528
g2241
g3
(g8
g9
(lp3529
g3
(g4
g5
(dp3530
g2380
S'Stream Status'
p3531
sg2244
S'0x0000'
p3532
sg21
S'Clear cache'
p3533
stRp3534
ag3
(g4
g5
(dp3535
g2380
S'Stream Status'
p3536
sg2244
S'0x0001'
p3537
sg21
S'Needs copy'
p3538
stRp3539
ag3
(g4
g5
(dp3540
g2380
S'Stream Status'
p3541
sg2244
S'0x0002'
p3542
sg21
S'Copy up-to-date'
p3543
stRp3544
ag3
(g4
g5
(dp3545
g2380
S'Stream Status'
p3546
sg2244
S'0x0004'
p3547
sg21
S'Needs merge'
p3548
stRp3549
ag3
(g4
g5
(dp3550
g2380
S'Stream Status'
p3551
sg2244
S'0x0008'
p3552
sg21
S'Merge up-to-date'
p3553
stRp3554
atRp3555
sg17
S'StreamStatus'
p3556
sg2380
g3
(g4
g5
(dp3557
g17
S'Stream Status'
p3558
sg2244
S'Copy: 0x0003, Merge: 0x000C'
p3559
sg21
S'Bits used to store the stream integration status'
p3560
stRp3561
sg2239
S'Stream integration status'
p3562
sg19
S'bitmask'
p3563
sg21
S'The stream integration status.'
p3564
stRp3565
ag3
(g4
g5
(dp3566
g19
S'flag'
p3567
sg2239
S'Type of stream path'
p3568
sg2241
g3
(g8
g9
(lp3569
g3
(g4
g5
(dp3570
g2244
S'0'
sg21
S'share'
p3571
stRp3572
ag3
(g4
g5
(dp3573
g2244
S'1'
sg21
S'isolate'
p3574
stRp3575
ag3
(g4
g5
(dp3576
g2244
S'2'
sg21
S'import'
p3577
stRp3578
ag3
(g4
g5
(dp3579
g2244
S'3'
sg21
S'exclude'
p3580
stRp3581
ag3
(g4
g5
(dp3582
g2244
S'4'
sg21
S'remapped'
p3583
stRp3584
ag3
(g4
g5
(dp3585
g2244
S'5'
sg21
S'ignored'
p3586
stRp3587
atRp3588
sg17
S'StreamPathType'
p3589
sg21
S'The path type for file paths in a stream view.'
p3590
stRp3591
ag3
(g4
g5
(dp3592
g19
S'flag'
p3593
sg2239
S'Type of stream'
p3594
sg2241
g3
(g8
g9
(lp3595
g3
(g4
g5
(dp3596
g2244
S'0'
sg21
S'mainline'
p3597
stRp3598
ag3
(g4
g5
(dp3599
g2244
S'1'
sg21
S'release'
p3600
stRp3601
ag3
(g4
g5
(dp3602
g2244
S'2'
sg21
S'development'
p3603
stRp3604
ag3
(g4
g5
(dp3605
g2244
S'3'
sg21
S'virtual'
p3606
stRp3607
ag3
(g4
g5
(dp3608
g2244
S'4'
sg21
S'task'
p3609
stRp3610
ag3
(g4
g5
(dp3611
g2244
S'5'
sg21
S'task - unloaded'
p3612
stRp3613
atRp3614
sg17
S'StreamType'
p3615
sg21
S'The type of stream.'
p3616
stRp3617
ag3
(g4
g5
(dp3618
g19
S'flag'
p3619
sg2239
S'Strength check of a password'
p3620
sg2241
g3
(g8
g9
(lp3621
g3
(g4
g5
(dp3622
g2244
S'0'
sg21
S'Strength unknown'
p3623
stRp3624
ag3
(g4
g5
(dp3625
g2244
S'1'
sg21
S'Password is strong'
p3626
stRp3627
ag3
(g4
g5
(dp3628
g2244
S'2'
sg21
S'unset'
p3629
stRp3630
atRp3631
sg17
S'Strength'
p3632
sg21
S"Whether or not a user's password has been tested for strength."
p3633
stRp3634
ag3
(g4
g5
(dp3635
S'restriction'
p3636
g3
(g8
g9
(lp3637
S'Cannot be empty'
p3638
aS'Cannot consist solely of a dash (-)'
p3639
aS'Cannot be all-numeric'
p3640
aS'Cannot contain non-printable characters'
p3641
aS'Spaces are replaced with underscores ( _ )'
p3642
aS'Revision characters (# and @) are prohibited'
p3643
aS'Slashes (/) are prohibited'
p3644
aS'Wildcards (... and *) are prohibited'
p3645
atRp3646
sg2239
S'A string up to 1024 characters long'
p3647
sg19
S'string'
p3648
sg17
S'String'
p3649
sg21
S'A string up to 1024 characters in length.  Depending on the \n\t\tcontext in which the string is used, restrictions \n\t\tmay apply. Strings are often used as key fields in the \n\t\tschema.'
p3650
stRp3651
ag3
(g4
g5
(dp3652
g19
S'flag'
p3653
sg2239
S'Tamper-state of workspace file'
p3654
sg2241
g3
(g8
g9
(lp3655
g3
(g4
g5
(dp3656
g2244
S'0'
sg21
S'Do not check for tampering'
p3657
stRp3658
ag3
(g4
g5
(dp3659
g2244
S'1'
sg21
S'Check for tampering'
p3660
stRp3661
ag3
(g4
g5
(dp3662
g2244
S'2'
sg21
S'Tamper-check failed'
p3663
stRp3664
atRp3665
sg17
S'TamperCheck'
p3666
sg21
S'Indicates the tamper-state of a file in a workspace. This\n\t\tis used to decide whether or not to check the file, and\n\t\tif checked, to hold the result.'
p3667
stRp3668
ag3
(g4
g5
(dp3669
g2239
S'A string value'
p3670
sg19
S'string'
p3671
sg17
S'Text'
p3672
sg21
S'A text string value - used to hold longer blocks of text.'
p3673
stRp3674
ag3
(g4
g5
(dp3675
g2239
S'The id of a group of traits'
p3676
sg19
S'integer'
p3677
sg17
S'TraitLot'
p3678
sg21
S'An integer identifying a group of traits which may be\n\t\tshared by several revisions.'
p3679
stRp3680
ag3
(g4
g5
(dp3681
g19
S'flag'
p3682
sg2239
S'A type of trait'
p3683
sg2241
g3
(g8
g9
(lp3684
g3
(g4
g5
(dp3685
g2244
S'0'
sg21
S'special trait for reference counting'
p3686
stRp3687
ag3
(g4
g5
(dp3688
g2244
S'1'
sg21
S'Binary trait'
p3689
stRp3690
ag3
(g4
g5
(dp3691
g2244
S'2'
sg21
S'Binary trait that gets propagated'
p3692
stRp3693
atRp3694
sg17
S'TraitType'
p3695
sg21
S'The type of trait.'
p3696
stRp3697
ag3
(g4
g5
(dp3698
g19
S'flag'
p3699
sg2239
S'A type of trigger'
p3700
sg2241
g3
(g8
g9
(lp3701
g3
(g4
g5
(dp3702
g2244
S'0'
sg21
S'change-submit (formerly pre-submit triggers)'
p3703
stRp3704
ag3
(g4
g5
(dp3705
g2244
S'1'
sg21
S'change-content'
p3706
stRp3707
ag3
(g4
g5
(dp3708
g2244
S'2'
sg21
S'change-commit'
p3709
stRp3710
ag3
(g4
g5
(dp3711
g2244
S'3'
sg21
S'form-in'
p3712
stRp3713
ag3
(g4
g5
(dp3714
g2244
S'4'
sg21
S'form-out'
p3715
stRp3716
ag3
(g4
g5
(dp3717
g2244
S'5'
sg21
S'form-save'
p3718
stRp3719
ag3
(g4
g5
(dp3720
g2244
S'6'
sg21
S'form-delete'
p3721
stRp3722
ag3
(g4
g5
(dp3723
g2244
S'7'
sg21
S'form-commit'
p3724
stRp3725
ag3
(g4
g5
(dp3726
g2244
S'8'
sg21
S'auth-check'
p3727
stRp3728
ag3
(g4
g5
(dp3729
g2244
S'9'
sg21
S'auth-check-sso'
p3730
stRp3731
ag3
(g4
g5
(dp3732
g2244
S'10'
p3733
sg21
S'auth-set'
p3734
stRp3735
ag3
(g4
g5
(dp3736
g2244
S'11'
p3737
sg21
S'fix-add'
p3738
stRp3739
ag3
(g4
g5
(dp3740
g2244
S'12'
p3741
sg21
S'fix-delete'
p3742
stRp3743
ag3
(g4
g5
(dp3744
g2244
S'13'
p3745
sg21
S'archive'
p3746
stRp3747
ag3
(g4
g5
(dp3748
g2244
S'14'
p3749
sg21
S'shelve-submit'
p3750
stRp3751
ag3
(g4
g5
(dp3752
g2244
S'15'
p3753
sg21
S'shelve-commit'
p3754
stRp3755
ag3
(g4
g5
(dp3756
g2244
S'16'
p3757
sg21
S'shelve-delete'
p3758
stRp3759
ag3
(g4
g5
(dp3760
g2244
S'17'
p3761
sg21
S'service-check'
p3762
stRp3763
ag3
(g4
g5
(dp3764
g2244
S'18'
p3765
sg21
S'edge-submit'
p3766
stRp3767
ag3
(g4
g5
(dp3768
g2244
S'19'
p3769
sg21
S'edge-content'
p3770
stRp3771
ag3
(g4
g5
(dp3772
g2244
S'20'
p3773
sg21
S'change-failed'
p3774
stRp3775
ag3
(g4
g5
(dp3776
g2244
S'21'
p3777
sg21
S'command'
p3778
stRp3779
atRp3780
sg17
S'Trigger'
p3781
sg21
S'The type of a trigger.'
p3782
stRp3783
ag3
(g4
g5
(dp3784
g2239
S'A user or group name'
p3785
sg21
S'The name of a Perforce user or group.'
p3786
sg19
S'string'
p3787
sg17
S'User'
p3788
sg133
S'String'
p3789
stRp3790
ag3
(g4
g5
(dp3791
g19
S'flag'
p3792
sg2239
S'User functionality level'
p3793
sg2241
g3
(g8
g9
(lp3794
g3
(g4
g5
(dp3795
g2244
S'0'
sg21
S'standard'
p3796
stRp3797
ag3
(g4
g5
(dp3798
g2244
S'1'
sg21
S'service'
p3799
stRp3800
ag3
(g4
g5
(dp3801
g2244
S'2'
sg21
S'operator'
p3802
stRp3803
atRp3804
sg17
S'UserLevel'
p3805
sg21
S'User functionality level'
p3806
stRp3807
ag3
(g4
g5
(dp3808
g2241
g3
(g8
g9
(lp3809
g3
(g4
g5
(dp3810
g2380
S'UserTypeBits'
p3811
sg17
S'User'
p3812
sg2244
S'0x0001'
p3813
sg21
S'User is an ordinary user'
p3814
stRp3815
ag3
(g4
g5
(dp3816
g2380
S'UserTypeBits'
p3817
sg17
S'SubGroup'
p3818
sg2244
S'0x0002'
p3819
sg21
S'Group is a sub-group'
p3820
stRp3821
ag3
(g4
g5
(dp3822
g2380
S'UserTypeBits'
p3823
sg17
S'Owner'
p3824
sg2244
S'0x0004'
p3825
sg21
S'User is the owner of a group'
p3826
stRp3827
atRp3828
sg17
S'UserType'
p3829
sg2380
g3
(g4
g5
(dp3830
g17
S'UserTypeBits'
p3831
sg2244
S'0x0007'
p3832
sg21
S'Bits used to store the role of a user in a group'
p3833
stRp3834
sg2239
S'The role of a user within a group'
p3835
sg19
S'bitmask'
p3836
sg21
S'The role of a user (or group) within a group.'
p3837
stRp3838
ag3
(g4
g5
(dp3839
g2239
S'A user or group name with wildcards'
p3840
sg21
S'A user/group name that may contain wildcards (*)'
p3841
sg19
S'string'
p3842
sg17
S'UserWild'
p3843
sg133
S'User'
p3844
stRp3845
ag3
(g4
g5
(dp3846
g2239
S'A number or a string'
p3847
sg19
S'string'
p3848
sg17
S'Value'
p3849
sg21
S'A number, stored in a string, or a string'
p3850
stRp3851
atRp3852
stRp3853
s.