(dp1
S'tables'
p2
ccopy_reg
_reconstructor
p3
(clib.sqUtils
Storage
p4
c__builtin__
dict
p5
(dp6
S'table'
p7
g3
(clib.sqUtils
Lst
p8
c__builtin__
list
p9
(lp10
g3
(g4
g5
(dp11
S'version'
p12
S'1'
sS'keying'
p13
S'serverName, name'
p14
sS'name'
p15
S'db.config'
p16
sS'type'
p17
S'Config'
p18
sS'lockseq'
p19
S'1'
sS'desc'
p20
S'Server configurations table'
p21
stRp22
ag3
(g4
g5
(dp23
g12
S'0'
sg13
S'sName, name, version, date, server'
p24
sg15
S'db.configh'
p25
sg17
S'ConfigHist'
p26
sg19
S'2'
sg20
S'Server configuration history'
p27
stRp28
ag3
(g4
g5
(dp29
g12
S'1'
sg13
S'name'
p30
sg15
S'db.counters'
p31
sg17
S'Counters'
p32
sg19
S'3'
sg20
S'Counters table'
p33
stRp34
ag3
(g4
g5
(dp35
g12
S'1'
sg13
S'name'
p36
sg15
S'db.nameval'
p37
sg17
S'Keys'
p38
sg19
S'4'
sg20
S'A table to store key/value pairs'
p39
stRp40
ag3
(g4
g5
(dp41
g12
S'0'
sg13
S'seq'
p42
sg15
S'db.upgrades.rp'
p43
sg17
S'Upgrades'
p44
sg19
S'5'
sg20
S'Store replica upgrade info'
p45
stRp46
ag3
(g4
g5
(dp47
g12
S'0'
sg13
S'seq'
p48
sg15
S'db.upgrades'
p49
sg17
S'Upgrades'
p50
sg19
S'6'
sg20
S'Store server upgrade info'
p51
stRp52
ag3
(g4
g5
(dp53
g12
S'0'
sg13
S'seq'
p54
sg15
S'db.logger'
p55
sg17
S'Logger'
p56
sg19
S'7'
sg20
S"Support for 'p4 logger' command. Logs any changes to \n\t\tchangelists and jobs"
p57
stRp58
ag3
(g4
g5
(dp59
g12
S'0'
sg13
S'name'
p60
sg15
S'db.ldap'
p61
sg17
S'Ldap'
p62
sg19
S'8'
sg20
S'LDAP specifications'
p63
stRp64
ag3
(g4
g5
(dp65
g12
S'3'
sg13
S'id'
p66
sg15
S'db.server'
p67
sg17
S'Server'
p68
sg19
S'9'
sg20
S'Server specifications'
p69
stRp70
ag3
(g4
g5
(dp71
g12
S'0'
sg13
S'id, type, seq'
p72
sg15
S'db.svrview'
p73
sg17
S'SvrView'
p74
sg19
S'10'
p75
sg20
S'View data for servers specifications'
p76
stRp77
ag3
(g4
g5
(dp78
g12
S'1'
sg13
S'id'
p79
sg15
S'db.remote'
p80
sg17
S'Remote'
p81
sg19
S'11'
p82
sg20
S'Remote specifications'
p83
stRp84
ag3
(g4
g5
(dp85
g12
S'1'
sg13
S'id, seq'
p86
sg15
S'db.rmtview'
p87
sg17
S'RmtView'
p88
sg19
S'12'
p89
sg20
S'View data for remote specifications'
p90
stRp91
ag3
(g4
g5
(dp92
g12
S'0'
sg13
S'client, stream, type, seq'
p93
sg15
S'db.stash'
p94
sg17
S'Stash'
p95
sg19
S'13'
p96
sg20
S'Stash data'
p97
stRp98
ag3
(g4
g5
(dp99
g12
S'7'
sg13
S'user'
p100
sg15
S'db.user.rp'
p101
sg17
S'User'
p102
sg19
S'14'
p103
sg20
S"Used by replica server's to store login information"
p104
stRp105
ag3
(g4
g5
(dp106
g12
S'7'
sg13
S'user'
p107
sg15
S'db.user'
p108
sg17
S'User'
p109
sg19
S'15'
p110
sg20
S'User specifications'
p111
stRp112
ag3
(g4
g5
(dp113
g12
S'0'
sg13
S'user, host'
p114
sg15
S'db.ticket.rp'
p115
sg17
S'Ticket'
p116
sg19
S'16'
p117
sg20
S'Second factor authentication state on a per user/host basis (replica)'
p118
stRp119
ag3
(g4
g5
(dp120
g12
S'0'
sg13
S'user, host'
p121
sg15
S'db.ticket'
p122
sg17
S'Ticket'
p123
sg19
S'17'
p124
sg20
S'Second factor authentication state on a per user/host basis'
p125
stRp126
ag3
(g4
g5
(dp127
g12
S'9'
sg13
S'user, group'
p128
sg15
S'db.group'
p129
sg17
S'Group'
p130
sg19
S'18'
p131
sg20
S'Group specifications'
p132
stRp133
ag3
(g4
g5
(dp134
g12
S'1'
sg13
S'group'
p135
sg15
S'db.groupx'
p136
sg17
S'GroupX'
p137
sg19
S'19'
p138
sg20
S'Per-group data to support group membership controlled by AD/LDAP group membership'
p139
stRp140
ag3
(g4
g5
(dp141
g12
S'1'
sg13
S'name'
p142
sg15
S'db.depot'
p143
sg17
S'Depot'
p144
sg19
S'20'
p145
sg20
S'Depot specifications'
p146
stRp147
ag3
(g4
g5
(dp148
g12
S'1'
sg13
S'stream'
p149
sg15
S'db.stream'
p150
sg17
S'Stream'
p151
sg19
S'21'
p152
sg20
S'Stream specifications'
p153
stRp154
ag3
(g4
g5
(dp155
g12
S'7'
sg13
S'name'
p156
sg15
S'db.domain'
p157
sg17
S'Domain'
p158
sg19
S'22'
p159
sg20
S'Domains: depots, clients, labels, branches, streams, and typemap'
p160
stRp161
ag3
(g4
g5
(dp162
g12
S'2'
sg13
S'name, change, seq'
p163
sg15
S'db.template'
p164
sg17
S'Template'
p165
sg19
S'23'
p166
sg20
S'Streams templates'
p167
stRp168
ag3
(g4
g5
(dp169
g12
S'1'
sg13
S'shelf, name, seq'
p170
sg15
S'db.templatesx'
p171
sg17
S'TemplateSx'
p172
sg19
S'24'
p173
sg20
S'Shelved stream templates'
p174
stRp175
ag3
(g4
g5
(dp176
g12
S'1'
sg13
S'client, name, seq'
p177
sg15
S'db.templatewx'
p178
sg17
S'TemplateWx'
p179
sg19
S'25'
p180
sg20
S'Pending stream templates'
p181
stRp182
ag3
(g4
g5
(dp183
g12
S'1'
sg13
S'name, seq'
p184
sg15
S'db.view.rp'
p185
sg17
S'View'
p186
sg19
S'26'
p187
sg20
S'View data for clients of build-server replicas'
p188
stRp189
ag3
(g4
g5
(dp190
g12
S'1'
sg13
S'name, seq'
p191
sg15
S'db.view'
p192
sg17
S'View'
p193
sg19
S'27'
p194
sg20
S'View data for domain records'
p195
stRp196
ag3
(g4
g5
(dp197
g12
S'1'
sg13
S'name, seq'
p198
sg15
S'db.haveview'
p199
sg17
S'View'
p200
sg19
S'29'
p201
sg20
S'Stores mapping changes for clients mapping graph depot content'
p202
stRp203
ag3
(g4
g5
(dp204
g12
S'1'
sg13
S'user, seq'
p205
sg15
S'db.review'
p206
sg17
S'Review'
p207
sg19
S'30'
p208
sg20
S"User's review mappings"
p209
stRp210
ag3
(g4
g5
(dp211
g12
S'0'
sg13
S'name, depotFile'
p212
sg15
S'db.label'
p213
sg17
S'Label'
p214
sg19
S'31'
p215
sg20
S'Revisions of files in labels'
p216
stRp217
ag3
(g4
g5
(dp218
g12
S'3'
sg13
S'clientFile'
p219
sg15
S'db.have.rp'
p220
sg17
S'Have'
p221
sg19
S'32'
p222
sg20
S"Contains the 'have-list' for clients of build-server replicas"
p223
stRp224
ag3
(g4
g5
(dp225
g12
S'3'
sg13
S'clientFile'
p226
sg15
S'db.have.pt'
p227
sg17
S'Have'
p228
sg19
S'33'
p229
sg20
S'Placeholder for read-only clients'
p230
stRp231
ag3
(g4
g5
(dp232
g12
S'3'
sg13
S'clientFile'
p233
sg15
S'db.have'
p234
sg17
S'Have'
p235
sg19
S'34'
p236
sg20
S"Contains the 'have-list' for all clients"
p237
stRp238
ag3
(g4
g5
(dp239
g12
S'0'
sg13
S'toFile, fromFile, startFromRev, endFromRev,\n\t\t\tstartToRev, endToRev'
p240
sg15
S'db.integed'
p241
sg20
S'Permanent integration records'
p242
sg17
S'Integed'
p243
sg19
S'36'
p244
sS'seeAlso'
p245
S'db.resolve'
p246
stRp247
ag3
(g4
g5
(dp248
g12
S'0'
sg13
S'toFile, fromFile, startFromRev, endFromRev,\n\t\t\tstartToRev, endToRev'
p249
sg15
S'db.integtx'
p250
sg20
S'Temporary integration records used by task streams'
p251
sg17
S'Integed'
p252
sg19
S'37'
p253
sg245
S'db.resolve'
p254
stRp255
ag3
(g4
g5
(dp256
g12
S'1'
sg13
S'toFile, fromFile, startFromRev'
p257
sg15
S'db.resolve'
p258
sg20
S'Pending integration records'
p259
sg17
S'Resolve'
p260
sg19
S'38'
p261
sg245
S'db.integed'
p262
stRp263
ag3
(g4
g5
(dp264
g12
S'1'
sg13
S'toFile, fromFile, startFromRev'
p265
sg15
S'db.resolvex'
p266
sg20
S'Pending integration records for shelved files'
p267
sg17
S'Resolve'
p268
sg19
S'39'
p269
sg245
S'db.integed'
p270
stRp271
ag3
(g4
g5
(dp272
g12
S'0'
sg13
S'toFile, fromFile, baseSha'
p273
sg15
S'db.resolveg'
p274
sg17
S'ResolveG'
p275
sg19
S'40'
p276
sg20
S'Resolve records for clients of type graph'
p277
stRp278
ag3
(g4
g5
(dp279
g12
S'0'
sg13
S'lskey, seq'
p280
sg15
S'db.scandir'
p281
sg17
S'ScanDir'
p282
sg19
S'43'
p283
sg20
S'Scandir'
p284
stRp285
ag3
(g4
g5
(dp286
g12
S'0'
sg13
S'file'
p287
sg15
S'db.scanctl'
p288
sg17
S'ScanCtl'
p289
sg19
S'44'
p290
sg20
S'ScanCtl'
p291
stRp292
ag3
(g4
g5
(dp293
g12
S'1'
sg13
S'file, rev, type'
p294
sg15
S'db.storagesh'
p295
sg17
S'Storage'
p296
sg19
S'45'
p297
sg20
S'Track references to shelved archive files'
p298
stRp299
ag3
(g4
g5
(dp300
S'note'
p301
S'Supersedes db.archmap in 2019.1'
p302
sg12
S'1'
sg13
S'file, rev, type'
p303
sg20
S'Track references to archive files'
p304
sg17
S'Storage'
p305
sg19
S'46'
p306
sg15
S'db.storage'
p307
stRp308
ag3
(g4
g5
(dp309
g12
S'0'
sg13
S'repo, sha, type'
p310
sg15
S'db.storageg'
p311
sg17
S'StorageG'
p312
sg19
S'47'
p313
sg20
S'Track references to Graph Depot archive files (for future use)'
p314
stRp315
ag3
(g4
g5
(dp316
g12
S'9'
sg13
S'depotFile'
p317
sg15
S'db.revdx'
p318
sg17
S'Rev'
p319
sg19
S'48'
p320
sg20
S'Revision records for revisions deleted at the head revision'
p321
stRp322
ag3
(g4
g5
(dp323
g12
S'9'
sg13
S'depotFile'
p324
sg15
S'db.revhx'
p325
sg17
S'Rev'
p326
sg19
S'49'
p327
sg20
S'Revision records for revisions NOT deleted at the head revision'
p328
stRp329
ag3
(g4
g5
(dp330
g301
S'Only populated during content trigger execution to allow\n\t\t\ttriggers access to the revisions being submitted.'
p331
sg12
S'9'
sg13
S'depotFile, depotRev'
p332
sg20
S'Pending revision records'
p333
sg17
S'Rev'
p334
sg19
S'50'
p335
sg15
S'db.revpx'
p336
stRp337
ag3
(g4
g5
(dp338
g12
S'9'
sg13
S'depotFile, depotRev'
p339
sg15
S'db.revsx'
p340
sg17
S'Rev'
p341
sg19
S'51'
p342
sg20
S'Revision records for spec depot files'
p343
stRp344
ag3
(g4
g5
(dp345
g12
S'9'
sg13
S'depotFile, depotRev, type, action, change'
p346
sg15
S'db.revsh'
p347
sg17
S'Rev'
p348
sg19
S'52'
p349
sg20
S'Revision records for shelved files'
p350
stRp351
ag3
(g4
g5
(dp352
g12
S'9'
sg13
S'depotFile, depotRev'
p353
sg15
S'db.revbx'
p354
sg17
S'Rev'
p355
sg19
S'53'
p356
sg20
S'Revision records for archived files'
p357
stRp358
ag3
(g4
g5
(dp359
g12
S'9'
sg13
S'depotFile, depotRev'
p360
sg15
S'db.revux'
p361
sg17
S'Rev'
p362
sg19
S'54'
p363
sg20
S'Revision records for unload depot files'
p364
stRp365
ag3
(g4
g5
(dp366
g12
S'0'
sg13
S'change, depotFile'
p367
sg15
S'db.revcx'
p368
sg17
S'RevCx'
p369
sg19
S'55'
p370
sg20
S'Secondary index of db.rev'
p371
stRp372
ag3
(g4
g5
(dp373
g12
S'9'
sg13
S'depotFile, depotRev'
p374
sg15
S'db.rev'
p375
sg17
S'Rev'
p376
sg19
S'56'
p377
sg20
S'Revision records'
p378
stRp379
ag3
(g4
g5
(dp380
g12
S'9'
sg13
S'depotFile, depotRev'
p381
sg15
S'db.revtx'
p382
sg17
S'Rev'
p383
sg19
S'57'
p384
sg20
S'Task stream revision records'
p385
stRp386
ag3
(g4
g5
(dp387
g12
S'9'
sg13
S'depotFile, depotRev'
p388
sg15
S'db.revstg'
p389
sg17
S'Rev'
p390
sg19
S'58'
p391
sg20
S'Temporary revision records for storage upgrade process'
p392
stRp393
ag3
(g4
g5
(dp394
g12
S'2'
sg13
S'depotFile, client'
p395
sg15
S'db.locks'
p396
sg17
S'Locks'
p397
sg19
S'59'
p398
sg20
S'Locked/Unlocked files'
p399
stRp400
ag3
(g4
g5
(dp401
g12
S'2'
sg13
S'depotFile, client'
p402
sg15
S'db.locksg'
p403
sg17
S'Locks'
p404
sg19
S'60'
p405
sg20
S'Lock records for clients of type graph'
p406
stRp407
ag3
(g4
g5
(dp408
g12
S'10'
p409
sg13
S'clientFile'
p410
sg15
S'db.working'
p411
sg17
S'Working'
p412
sg19
S'61'
p413
sg20
S'Records for work in progress'
p414
stRp415
ag3
(g4
g5
(dp416
g12
S'10'
p417
sg13
S'clientFile'
p418
sg15
S'db.workingx'
p419
sg17
S'Working'
p420
sg19
S'62'
p421
sg20
S'Records for shelved open files'
p422
stRp423
ag3
(g4
g5
(dp424
g12
S'0'
sg13
S'clientFile'
p425
sg15
S'db.workingg'
p426
sg17
S'WorkingG'
p427
sg19
S'63'
p428
sg20
S'Working records for clients of type graph'
p429
stRp430
ag3
(g4
g5
(dp431
g12
S'0'
sg13
S'repo, clientFile'
p432
sg15
S'db.haveg'
p433
sg17
S'Haveg'
p434
sg19
S'64'
p435
sg20
S"Contains the 'have-list' for graph depot files that are not at the same revision as defined by the client's have reference."
p436
stRp437
ag3
(g4
g5
(dp438
g12
S'1'
sg13
S'depotFile'
p439
sg15
S'db.excl'
p440
sg17
S'ExclusiveLock'
p441
sg19
S'65'
p442
sg20
S'Exclusively locked (+l) files -  enables coordinated file locking in commit/edge server environments'
p443
stRp444
ag3
(g4
g5
(dp445
g12
S'0'
sg13
S'repo, ref, file'
p446
sg15
S'db.exclg'
p447
sg17
S'ExclG'
p448
sg19
S'66'
p449
sg20
S'Graph depot LFS locks'
p450
stRp451
ag3
(g4
g5
(dp452
g12
S'0'
sg13
S'lockId'
p453
sg15
S'db.exclgx'
p454
sg17
S'ExclGX'
p455
sg19
S'67'
p456
sg20
S'Graph depot LFS locks indexed by lockId'
p457
stRp458
ag3
(g4
g5
(dp459
g12
S'0'
sg13
S'traitLot, name'
p460
sg15
S'db.traits'
p461
sg17
S'Trait'
p462
sg19
S'68'
p463
sg20
S'Attributes associated with file revisions'
p464
stRp465
ag3
(g4
g5
(dp466
g12
S'3'
sg13
S'seq'
p467
sg15
S'db.trigger'
p468
sg17
S'Trigger'
p469
sg19
S'69'
p470
sg20
S'Trigger specifications'
p471
stRp472
ag3
(g4
g5
(dp473
g12
S'6'
sg13
S'change'
p474
sg15
S'db.change'
p475
sg17
S'Change'
p476
sg19
S'70'
p477
sg20
S'Changelists'
p478
stRp479
ag3
(g4
g5
(dp480
g301
S'contains records for pending changelists only.'
p481
sg12
S'6'
sg13
S'change'
p482
sg20
S'Subset of db.change - records for pending changelists only'
p483
sg17
S'Change'
p484
sg19
S'71'
p485
sg15
S'db.changex'
p486
stRp487
ag3
(g4
g5
(dp488
g12
S'1'
sg13
S'identity'
p489
sg15
S'db.changeidx'
p490
sg17
S'ChangeIdx'
p491
sg19
S'72'
p492
sg20
S'Secondary index of db.change/db.changex'
p493
stRp494
ag3
(g4
g5
(dp495
g12
S'0'
sg13
S'descKey'
p496
sg15
S'db.desc'
p497
sg17
S'Desc'
p498
sg19
S'73'
p499
sg20
S'Change descriptions'
p500
stRp501
ag3
(g4
g5
(dp502
g12
S'3'
sg13
S'repo'
p503
sg15
S'db.repo'
p504
sg17
S'Repo'
p505
sg19
S'74'
p506
sg20
S'Repository specifications'
p507
stRp508
ag3
(g4
g5
(dp509
g12
S'0'
sg13
S'repo, type, name, date, action, user, ref'
p510
sg15
S'db.refhist'
p511
sg17
S'RefHist'
p512
sg19
S'75'
p513
sg20
S'Reference history for graph depots'
p514
stRp515
ag3
(g4
g5
(dp516
g12
S'0'
sg13
S'repo, type, name'
p517
sg15
S'db.ref'
p518
sg17
S'Ref'
p519
sg19
S'76'
p520
sg20
S'Reference content for graph depots'
p521
stRp522
ag3
(g4
g5
(dp523
g12
S'0'
sg13
S'sha'
p524
sg15
S'db.object'
p525
sg17
S'Object'
p526
sg19
S'77'
p527
sg20
S'Object storage for graph depots'
p528
stRp529
ag3
(g4
g5
(dp530
g12
S'1'
sg13
S'id, name, date, blobSha, commitSha'
p531
sg15
S'db.graphindex'
p532
sg17
S'GraphIndex'
p533
sg19
S'78'
p534
sg20
S'Graph depot repository index data'
p535
stRp536
ag3
(g4
g5
(dp537
g12
S'0'
sg13
S'name, repo, ref, type, user, perm'
p538
sg15
S'db.graphperm'
p539
sg17
S'GraphPerm'
p540
sg19
S'79'
p541
sg20
S'Graph depot permissions'
p542
stRp543
ag3
(g4
g5
(dp544
g12
S'0'
sg13
S'repo, path'
p545
sg15
S'db.submodule'
p546
sg17
S'Submodule'
p547
sg19
S'80'
p548
sg20
S'Submodule configuration data'
p549
stRp550
ag3
(g4
g5
(dp551
g12
S'0'
sg13
S'user, scope'
p552
sg15
S'db.pubkey'
p553
sg17
S'PublicKey'
p554
sg19
S'81'
p555
sg20
S'SSH Public keys'
p556
stRp557
ag3
(g4
g5
(dp558
g12
S'0'
sg13
S'job'
p559
sg15
S'db.job'
p560
sg20
S'Job records'
p561
sg17
S'Job'
p562
sg19
S'82'
p563
sg245
S'db.bodtext'
p564
stRp565
ag3
(g4
g5
(dp566
g12
S'1'
sg13
S'job, change'
p567
sg15
S'db.fix'
p568
sg20
S'Fix records - indexed by job'
p569
sg17
S'Fix'
p570
sg19
S'85'
p571
sg245
S'db.fixrev'
p572
stRp573
ag3
(g4
g5
(dp574
g12
S'1'
sg13
S'change, job'
p575
sg15
S'db.fixrev'
p576
sg20
S'Fix records - indexed by change'
p577
sg17
S'Fix'
p578
sg19
S'86'
p579
sg245
S'db.fix'
p580
stRp581
ag3
(g4
g5
(dp582
g12
S'0'
sg13
S'type, client, toKey, attr, fromKey, fromChange'
p583
sg15
S'db.bodresolve'
p584
sg17
S'BodyResolve'
p585
sg19
S'87'
p586
sg20
S'Resolve data for stream specifications'
p587
stRp588
ag3
(g4
g5
(dp589
g12
S'1'
sg13
S'key, attr'
p590
sg15
S'db.bodtext'
p591
sg17
S'BodyText'
p592
sg19
S'88'
p593
sg20
S'Job data for job attributes'
p594
stRp595
ag3
(g4
g5
(dp596
g12
S'0'
sg13
S'type, key, change, attr'
p597
sg15
S'db.bodtextcx'
p598
sg17
S'BodyTextCx'
p599
sg19
S'89'
p600
sg20
S'Versioned openable spec fields'
p601
stRp602
ag3
(g4
g5
(dp603
g12
S'0'
sg13
S'type, key, attr'
p604
sg15
S'db.bodtexthx'
p605
sg17
S'BodyTextHx'
p606
sg19
S'90'
p607
sg20
S'Head revision of spec fields'
p608
stRp609
ag3
(g4
g5
(dp610
g12
S'0'
sg13
S'type, shelf, key, attr'
p611
sg15
S'db.bodtextsx'
p612
sg17
S'BodyTextSx'
p613
sg19
S'91'
p614
sg20
S'Shelved openable spec fields'
p615
stRp616
ag3
(g4
g5
(dp617
g12
S'0'
sg13
S'type, client, key, attr'
p618
sg15
S'db.bodtextwx'
p619
sg17
S'BodyTextWx'
p620
sg19
S'92'
p621
sg20
S'Open openable spec fields'
p622
stRp623
ag3
(g4
g5
(dp624
g12
S'0'
sg13
S'word, attr, value'
p625
sg15
S'db.ixtext'
p626
sg17
S'IndexText'
p627
sg19
S'94'
p628
sg20
S'Indexing data for generic and job attributes'
p629
stRp630
ag3
(g4
g5
(dp631
g12
S'0'
sg13
S'type, word, attr, value'
p632
sg15
S'db.ixtexthx'
p633
sg17
S'IndexTextHx'
p634
sg19
S'95'
p635
sg20
S'Indexing data for head revision of all spec fields'
p636
stRp637
ag3
(g4
g5
(dp638
g12
S'0'
sg13
S'word, attr, value'
p639
sg15
S'db.uxtext'
p640
sg17
S'IndexText'
p641
sg19
S'96'
p642
sg20
S'Indexing data for Swarm'
p643
stRp644
ag3
(g4
g5
(dp645
g12
S'5'
sg13
S'seq'
p646
sg15
S'db.protect'
p647
sg17
S'Protect'
p648
sg19
S'97'
p649
sg20
S'The protections table'
p650
stRp651
ag3
(g4
g5
(dp652
g12
S'0'
sg13
S'name, seq, type, scope'
p653
sg15
S'db.property'
p654
sg17
S'Property'
p655
sg19
S'98'
p656
sg20
S'Properties'
p657
stRp658
ag3
(g4
g5
(dp659
g12
S'0'
sg13
S'language, id'
p660
sg15
S'db.message'
p661
sg17
S'Message'
p662
sg19
S'99'
p663
sg20
S'System messages'
p664
stRp665
ag3
(g4
g5
(dp666
g12
S'4'
sg13
S'taskid, seq'
p667
sg15
S'db.sendq'
p668
sg17
S'SendQ'
p669
sg19
S'100'
p670
sg20
S'Parallel file transmission work queue'
p671
stRp672
ag3
(g4
g5
(dp673
g12
S'4'
sg13
S'taskid, seq'
p674
sg15
S'db.sendq.pt'
p675
sg17
S'SendQ'
p676
sg19
S'101'
p677
sg20
S'Per Client transmission work queue'
p678
stRp679
ag3
(g4
g5
(dp680
g12
S'1'
sg13
S'serverId'
p681
sg15
S'db.jnlack'
p682
sg17
S'JnlAck'
p683
sg19
S'102'
p684
sg20
S'Tracks journal positions of all replicas'
p685
stRp686
ag3
(g4
g5
(dp687
g12
S'2'
sg13
S'id'
p688
sg15
S'db.monitor'
p689
sg17
S'Monitor'
p690
sg19
S'103'
p691
sg20
S'Helix Server process information'
p692
stRp693
ag3
(g4
g5
(dp694
g12
S'3'
sg17
S'ReplicaArchiveTransfer'
p695
sg13
S'file, rev'
p696
sg15
S'rdb.lbr'
p697
sg20
S'Replica server pending archive transfer table'
p698
stRp699
ag3
(g4
g5
(dp700
g12
S'3'
sg17
S'ReplicaArchiveTransfer'
p701
sg13
S'file, rev'
p702
sg15
S'pdb.lbr'
p703
sg20
S'Proxy server pending archive transfer table'
p704
stRp705
ag3
(g4
g5
(dp706
g12
S'0'
sg17
S'TinyDb'
p707
sg13
S'key'
p708
sg15
S'tiny.db'
p709
sg20
S'Records content data for tiny files using the +T file type modifier'
p710
stRp711
atRp712
stRp713
sS'numUpgrades'
p714
S'35'
p715
sS'commit_upgrades'
p716
g3
(g4
g5
(dp717
S'commit_upgrade'
p718
g3
(g8
g9
(lp719
g3
(g4
g5
(dp720
S'release'
p721
S'2013.2'
p722
sS'index'
p723
S'commit-server'
p724
sg301
S'Generate exclusive lock records in db.excl based on db.working data.'
p725
sg20
S'Generate exclusive locks'
p726
stRp727
ag3
(g4
g5
(dp728
g721
S'2014.1'
p729
sg723
S'commit-server'
p730
sg301
S'Promote existing shelves by updating changeStatus in db.change and db.changex.'
p731
sg20
S'Promote Shelves'
p732
stRp733
atRp734
stRp735
sS'server_versions'
p736
g3
(g4
g5
(dp737
S'server_version'
p738
g3
(g8
g9
(lp739
g3
(g4
g5
(dp740
g12
S'97.1'
p741
sS'level'
p742
S'1'
stRp743
ag3
(g4
g5
(dp744
g12
S'97.2'
p745
sg742
S'2'
stRp746
ag3
(g4
g5
(dp747
g12
S'97.3'
p748
sg742
S'3'
stRp749
ag3
(g4
g5
(dp750
g12
S'98.2 (early)'
p751
sg742
S'4'
stRp752
ag3
(g4
g5
(dp753
g12
S'98.2'
p754
sg742
S'5'
stRp755
ag3
(g4
g5
(dp756
g12
S'99.1 (early)'
p757
sg742
S'6'
stRp758
ag3
(g4
g5
(dp759
g12
S'99.1'
p760
sg742
S'7'
stRp761
ag3
(g4
g5
(dp762
g12
S'99.2'
p763
sg742
S'8'
stRp764
ag3
(g4
g5
(dp765
g12
S'2000.1'
p766
sg742
S'9'
stRp767
ag3
(g4
g5
(dp768
g12
S'2000.2'
p769
sg742
S'10'
p770
stRp771
ag3
(g4
g5
(dp772
S'removed'
p773
S'db.jobpend db.jobdesc'
p774
sg12
S'2001.1'
p775
sg742
S'11'
p776
stRp777
ag3
(g4
g5
(dp778
g12
S'2001.2'
p779
sg742
S'12'
p780
stRp781
ag3
(g4
g5
(dp782
g12
S'2002.1'
p783
sg742
S'13'
p784
stRp785
ag3
(g4
g5
(dp786
g12
S'2002.2'
p787
sg742
S'14'
p788
stRp789
ag3
(g4
g5
(dp790
g12
S'2003.1 (early)'
p791
sg742
S'15'
p792
stRp793
ag3
(g4
g5
(dp794
g12
S'2003.1'
p795
sg742
S'16'
p796
stRp797
ag3
(g4
g5
(dp798
g12
S'2003.2'
p799
sg742
S'17'
p800
stRp801
ag3
(g4
g5
(dp802
g12
S'2004.2'
p803
sg742
S'18'
p804
stRp805
ag3
(g4
g5
(dp806
g12
S'2005.1'
p807
sg742
S'19'
p808
stRp809
ag3
(g4
g5
(dp810
g12
S'2005.2'
p811
sS'added'
p812
S'db.revdx db.revsx'
p813
sg742
S'20'
p814
stRp815
ag3
(g4
g5
(dp816
g12
S'2006.1'
p817
sg742
S'21'
p818
stRp819
ag3
(g4
g5
(dp820
g773
S'db.archive'
p821
sg12
S'2006.2'
p822
sg812
S'db.archmap'
p823
sg742
S'22'
p824
stRp825
ag3
(g4
g5
(dp826
g12
S'2007.2'
p827
sg742
S'23'
p828
stRp829
ag3
(g4
g5
(dp830
g12
S'2007.3'
p831
sg742
S'24'
p832
stRp833
ag3
(g4
g5
(dp834
g12
S'2008.1'
p835
sg742
S'25'
p836
stRp837
ag3
(g4
g5
(dp838
g12
S'2008.2'
p839
sg742
S'26'
p840
stRp841
ag3
(g4
g5
(dp842
g12
S'2009.1'
p843
sg812
S'db.stream'
p844
sg742
S'27'
p845
stRp846
ag3
(g4
g5
(dp847
g773
S'db.boddate db.ixdate'
p848
sg12
S'2009.2'
p849
sg812
S'db.resolvex db.revsh db.workingx'
p850
sg742
S'28'
p851
stRp852
ag3
(g4
g5
(dp853
g12
S'2010.1'
p854
sg812
S'db.nameval db.template db.revbx'
p855
sg742
S'29'
p856
stRp857
ag3
(g4
g5
(dp858
g12
S'2010.2'
p859
sg812
S'db.config'
p860
sg742
S'30'
p861
stRp862
ag3
(g4
g5
(dp863
g12
S'2011.1'
p864
sg812
S'db.user.rp'
p865
sg742
S'31'
p866
stRp867
ag3
(g4
g5
(dp868
g12
S'2012.1'
p869
sg812
S'db.server db.view.rp db.have.rp'
p870
sg742
S'32'
p871
stRp872
ag3
(g4
g5
(dp873
g12
S'2012.2'
p874
sg812
S'db.revux'
p875
sg742
S'33'
p876
stRp877
ag3
(g4
g5
(dp878
g12
S'2013.1'
p879
sg812
S'db.srvview db.integtx db.property db.revtx'
p880
sg742
S'34'
p881
stRp882
ag3
(g4
g5
(dp883
g12
S'2013.2'
p884
sg812
S'db.excl'
p885
sg742
S'35'
p886
stRp887
ag3
(g4
g5
(dp888
g12
S'2013.3'
p889
sg742
S'36'
p890
stRp891
ag3
(g4
g5
(dp892
g12
S'2014.1'
p893
sg812
S'db.sendq db.sendq.pt db.uxtext'
p894
sg742
S'37'
p895
stRp896
ag3
(g4
g5
(dp897
g12
S'2014.2'
p898
sg812
S'db.jnlack'
p899
sg742
S'38'
p900
stRp901
ag3
(g4
g5
(dp902
g12
S'2015.1'
p903
sg812
S'db.remote db.rmtview db.stash db.groupx'
p904
sg742
S'39'
p905
stRp906
ag3
(g4
g5
(dp907
g12
S'2015.2'
p908
sg812
S'db.changeidx db.have.pt db.ldap'
p909
sg742
S'40'
p910
stRp911
ag3
(g4
g5
(dp912
g12
S'2016.1'
p913
sg812
S'db.bodresolve db.bodtextcx db.bodtexthx db.bodtextwx db.ixtexthx db.templatesx db.templatewx'
p914
sg742
S'41'
p915
stRp916
ag3
(g4
g5
(dp917
g12
S'2016.2'
p918
sg812
S'db.graphperm db.object db.pubkey db.ref db.refhist db.repo db.repoview'
p919
sg742
S'42'
p920
stRp921
ag3
(g4
g5
(dp922
g773
S'db.repoview db.submodule'
p923
sg12
S'2017.2'
p924
sg812
S'db.haveview'
p925
sg742
S'43'
p926
stRp927
ag3
(g4
g5
(dp928
g12
S'2017.2'
p929
sg812
S'db.ticket.rp db.ticket db.graphindex'
p930
sg742
S'44'
p931
stRp932
ag3
(g4
g5
(dp933
g12
S'2018.1'
p934
sg812
S'db.haveg'
p935
sg742
S'45'
p936
stRp937
ag3
(g4
g5
(dp938
g12
S'2018.2'
p939
sg742
S'46'
p940
stRp941
ag3
(g4
g5
(dp942
g773
S'db.archmap'
p943
sg12
S'2019.1'
p944
sg812
S'db.exclg db.exclgx db.storagesh db.storage db.storageg db.revstg'
p945
sg742
S'47'
p946
stRp947
atRp948
stRp949
sg12
S'2019.2'
p950
sS'recordtypes'
p951
g3
(g4
g5
(dp952
S'record'
p953
g3
(g8
g9
(lp954
g3
(g4
g5
(dp955
S'column'
p956
g3
(g8
g9
(lp957
g3
(g4
g5
(dp958
g17
S'File'
p959
sg15
S'lbrFile'
p960
sg20
S"Specifies the location in the librarian's archives where\n\t\t    the revision may be found"
p961
stRp962
ag3
(g4
g5
(dp963
g17
S'String'
p964
sg15
S'lbrRev'
p965
sg20
S"Revision in the librarian's archives"
p966
stRp967
ag3
(g4
g5
(dp968
g17
S'File'
p969
sg15
S'depotFile'
p970
sg20
S'Name of the file in the depot'
p971
stRp972
ag3
(g4
g5
(dp973
g17
S'Rev'
p974
sg15
S'depotRev'
p975
sg20
S'Name of the file in the depot'
p976
stRp977
ag3
(g4
g5
(dp978
g17
S'FileType'
p979
sg15
S'lbrType'
p980
sg20
S"File type for librarian's purposes"
p981
stRp982
atRp983
sg15
S'Archive'
p984
stRp985
ag3
(g4
g5
(dp986
g956
g3
(g8
g9
(lp987
g3
(g4
g5
(dp988
g17
S'File'
p989
sg15
S'lbrFile'
p990
sg20
S'Paths in the librarian namespace that receive lazy\n\t\t    copies.'
p991
stRp992
ag3
(g4
g5
(dp993
g17
S'File'
p994
sg15
S'depotFile'
p995
sg20
S'Paths in the depot namespace that provide lazy copies.'
p996
stRp997
atRp998
sg15
S'ArchMap'
p999
stRp1000
ag3
(g4
g5
(dp1001
g956
g3
(g8
g9
(lp1002
g3
(g4
g5
(dp1003
g17
S'Key'
p1004
sg15
S'key'
p1005
sg20
S'The job to which this attribute belongs'
p1006
stRp1007
ag3
(g4
g5
(dp1008
g17
S'Int'
p1009
sg15
S'attr'
p1010
sg20
S'The attribute number (from the jobspec) of this attribute'
p1011
stRp1012
ag3
(g4
g5
(dp1013
g17
S'Date'
p1014
sg15
S'date'
p1015
sg20
S'The date value itself'
p1016
stRp1017
atRp1018
sg15
S'BodyDate'
p1019
stRp1020
ag3
(g4
g5
(dp1021
g956
g3
(g8
g9
(lp1022
g3
(g4
g5
(dp1023
g17
S'SpecType'
p1024
sg15
S'type'
p1025
sg20
S'The spec type'
p1026
stRp1027
ag3
(g4
g5
(dp1028
g17
S'Domain'
p1029
sg15
S'client'
p1030
sg20
S'The client name'
p1031
stRp1032
ag3
(g4
g5
(dp1033
g17
S'Key'
p1034
sg15
S'toKey'
p1035
sg20
S'To Key'
p1036
stRp1037
ag3
(g4
g5
(dp1038
g17
S'Int'
p1039
sg15
S'attr'
p1040
sg20
S'The attribute value'
p1041
stRp1042
ag3
(g4
g5
(dp1043
g17
S'Key'
p1044
sg15
S'fromKey'
p1045
sg20
S'From key'
p1046
stRp1047
ag3
(g4
g5
(dp1048
g17
S'Change'
p1049
sg15
S'fromChange'
p1050
sg20
S'From change'
p1051
stRp1052
ag3
(g4
g5
(dp1053
g17
S'Key'
p1054
sg15
S'baseKey'
p1055
sg20
S'Base Key'
p1056
stRp1057
ag3
(g4
g5
(dp1058
g17
S'Change'
p1059
sg15
S'baseChange'
p1060
sg20
S'Base change'
p1061
stRp1062
atRp1063
sg15
S'BodyResolve'
p1064
stRp1065
ag3
(g4
g5
(dp1066
g956
g3
(g8
g9
(lp1067
g3
(g4
g5
(dp1068
g17
S'Key'
p1069
sg15
S'key'
p1070
sg20
S'The job to which this attribute belongs'
p1071
stRp1072
ag3
(g4
g5
(dp1073
g17
S'Int'
p1074
sg15
S'attr'
p1075
sg20
S'The attribute number (from the jobspec) of this attribute'
p1076
stRp1077
ag3
(g4
g5
(dp1078
g17
S'Int'
p1079
sg15
S'isBulk'
p1080
sg20
S'Indicates whether (1), or not (0) the field is a bulk\n\t\t    text field that should not be indexed.'
p1081
stRp1082
ag3
(g4
g5
(dp1083
g17
S'Text'
p1084
sg15
S'text'
p1085
sg20
S'The attribute value'
p1086
stRp1087
atRp1088
sg15
S'BodyText'
p1089
stRp1090
ag3
(g4
g5
(dp1091
g956
g3
(g8
g9
(lp1092
g3
(g4
g5
(dp1093
g17
S'Int'
p1094
sg15
S'type'
p1095
sg20
S'The type of spec'
p1096
stRp1097
ag3
(g4
g5
(dp1098
g17
S'Key'
p1099
sg15
S'key'
p1100
sg20
S'The spec to which this attribute belongs'
p1101
stRp1102
ag3
(g4
g5
(dp1103
g17
S'Change'
p1104
sg15
S'change'
p1105
sg20
S'The change to which this attribute belongs'
p1106
stRp1107
ag3
(g4
g5
(dp1108
g17
S'Int'
p1109
sg15
S'attr'
p1110
sg20
S'The attribute number of this attribute'
p1111
stRp1112
ag3
(g4
g5
(dp1113
g17
S'Text'
p1114
sg15
S'text'
p1115
sg20
S'The attribute value'
p1116
stRp1117
atRp1118
sg15
S'BodyTextCx'
p1119
stRp1120
ag3
(g4
g5
(dp1121
g956
g3
(g8
g9
(lp1122
g3
(g4
g5
(dp1123
g17
S'Int'
p1124
sg15
S'type'
p1125
sg20
S'The type of spec'
p1126
stRp1127
ag3
(g4
g5
(dp1128
g17
S'Key'
p1129
sg15
S'key'
p1130
sg20
S'The spec to which this attribute belongs'
p1131
stRp1132
ag3
(g4
g5
(dp1133
g17
S'Int'
p1134
sg15
S'attr'
p1135
sg20
S'The attribute number of this attribute'
p1136
stRp1137
ag3
(g4
g5
(dp1138
g17
S'Int'
p1139
sg15
S'bulk'
p1140
sg20
S'Indicates whether (1), or not (0) the field is a bulk\n\t\t    text field that should not be indexed.'
p1141
stRp1142
ag3
(g4
g5
(dp1143
g17
S'Text'
p1144
sg15
S'text'
p1145
sg20
S'The attribute value'
p1146
stRp1147
atRp1148
sg15
S'BodyTextHx'
p1149
stRp1150
ag3
(g4
g5
(dp1151
g956
g3
(g8
g9
(lp1152
g3
(g4
g5
(dp1153
g17
S'Int'
p1154
sg15
S'type'
p1155
sg20
S'The type of spec'
p1156
stRp1157
ag3
(g4
g5
(dp1158
g17
S'Change'
p1159
sg15
S'shelf'
p1160
sg20
S'The shelf to which this attribute belongs'
p1161
stRp1162
ag3
(g4
g5
(dp1163
g17
S'Key'
p1164
sg15
S'key'
p1165
sg20
S'The spec to which this attribute belongs'
p1166
stRp1167
ag3
(g4
g5
(dp1168
g17
S'Int'
p1169
sg15
S'attr'
p1170
sg20
S'The attribute number of this attribute'
p1171
stRp1172
ag3
(g4
g5
(dp1173
g17
S'Text'
p1174
sg15
S'text'
p1175
sg20
S'The attribute value'
p1176
stRp1177
ag3
(g4
g5
(dp1178
g17
S'Change'
p1179
sg15
S'workChange'
p1180
sg20
S'The working change'
p1181
stRp1182
atRp1183
sg15
S'BodyTextSx'
p1184
stRp1185
ag3
(g4
g5
(dp1186
g956
g3
(g8
g9
(lp1187
g3
(g4
g5
(dp1188
g17
S'Int'
p1189
sg15
S'type'
p1190
sg20
S'The type of spec'
p1191
stRp1192
ag3
(g4
g5
(dp1193
g17
S'Domain'
p1194
sg15
S'client'
p1195
sg20
S'The client the spec is opened on'
p1196
stRp1197
ag3
(g4
g5
(dp1198
g17
S'Key'
p1199
sg15
S'key'
p1200
sg20
S'The spec to which this attribute belongs'
p1201
stRp1202
ag3
(g4
g5
(dp1203
g17
S'Int'
p1204
sg15
S'attr'
p1205
sg20
S'The attribute number of this attribute'
p1206
stRp1207
ag3
(g4
g5
(dp1208
g17
S'Text'
p1209
sg15
S'text'
p1210
sg20
S'The attribute value'
p1211
stRp1212
ag3
(g4
g5
(dp1213
g17
S'Change'
p1214
sg15
S'workChange'
p1215
sg20
S'The working change'
p1216
stRp1217
atRp1218
sg15
S'BodyTextWx'
p1219
stRp1220
ag3
(g4
g5
(dp1221
g956
g3
(g8
g9
(lp1222
g3
(g4
g5
(dp1223
g17
S'Change'
p1224
sg15
S'change'
p1225
sg20
S'The change number'
p1226
stRp1227
ag3
(g4
g5
(dp1228
g17
S'Change'
p1229
sg15
S'descKey'
p1230
sg20
S"The description key. Normally the same as 'change', but\n\t\t    may differ if a changelist was renumbered on submission."
p1231
stRp1232
ag3
(g4
g5
(dp1233
g17
S'Domain'
p1234
sg15
S'client'
p1235
sg20
S'The client from which the change originates'
p1236
stRp1237
ag3
(g4
g5
(dp1238
g17
S'User'
p1239
sg15
S'user'
p1240
sg20
S'The user who owns the change'
p1241
stRp1242
ag3
(g4
g5
(dp1243
g17
S'Date'
p1244
sg15
S'date'
p1245
sg20
S'Date and time the changelist was submitted'
p1246
stRp1247
ag3
(g4
g5
(dp1248
g17
S'ChangeStatus'
p1249
sg15
S'status'
p1250
sg20
S'Status of the change'
p1251
stRp1252
ag3
(g4
g5
(dp1253
g17
S'DescShort'
p1254
sg15
S'description'
p1255
sg20
S'Short description of the change.'
p1256
stRp1257
ag3
(g4
g5
(dp1258
g17
S'Mapping'
p1259
sg15
S'root'
p1260
sg20
S'Common path for all files in the changelist'
p1261
stRp1262
ag3
(g4
g5
(dp1263
g17
S'User'
p1264
sg15
S'importer'
p1265
sg20
S'The user who fetched or pushed this change to this server'
p1266
stRp1267
ag3
(g4
g5
(dp1268
g17
S'Key'
p1269
sg15
S'identity'
p1270
sg20
S'Identifier for this change'
p1271
stRp1272
ag3
(g4
g5
(dp1273
g17
S'Date'
p1274
sg15
S'access'
p1275
sg20
S'Shelve last access'
p1276
stRp1277
ag3
(g4
g5
(dp1278
g17
S'Date'
p1279
sg15
S'update'
p1280
sg20
S'Shelve last update'
p1281
stRp1282
ag3
(g4
g5
(dp1283
g17
S'Domain'
p1284
sg15
S'stream'
p1285
sg20
S'Stream spec name in changelist'
p1286
stRp1287
atRp1288
sg15
S'Change'
p1289
stRp1290
ag3
(g4
g5
(dp1291
g956
g3
(g8
g9
(lp1292
g3
(g4
g5
(dp1293
g17
S'Key'
p1294
sg15
S'identity'
p1295
sg20
S'Identifier for this change'
p1296
stRp1297
ag3
(g4
g5
(dp1298
g17
S'Change'
p1299
sg15
S'change'
p1300
sg20
S'Changelist'
p1301
stRp1302
atRp1303
sg15
S'ChangeIdx'
p1304
stRp1305
ag3
(g4
g5
(dp1306
g956
g3
(g8
g9
(lp1307
g3
(g4
g5
(dp1308
g17
S'Key'
p1309
sg15
S'serverName'
p1310
sg20
S'Server name'
p1311
stRp1312
ag3
(g4
g5
(dp1313
g17
S'Key'
p1314
sg15
S'name'
p1315
sg20
S'Configuration variable name'
p1316
stRp1317
ag3
(g4
g5
(dp1318
g17
S'Value'
p1319
sg15
S'value'
p1320
sg20
S'Configuration variable value'
p1321
stRp1322
atRp1323
sg15
S'Config'
p1324
stRp1325
ag3
(g4
g5
(dp1326
g956
g3
(g8
g9
(lp1327
g3
(g4
g5
(dp1328
g17
S'Key'
p1329
sg15
S'sName'
p1330
sg20
S'Server name where configurable applies'
p1331
stRp1332
ag3
(g4
g5
(dp1333
g17
S'Key'
p1334
sg15
S'name'
p1335
sg20
S'variable name'
p1336
stRp1337
ag3
(g4
g5
(dp1338
g17
S'Int'
p1339
sg15
S'version'
p1340
sg20
S'configuration version'
p1341
stRp1342
ag3
(g4
g5
(dp1343
g17
S'Date'
p1344
sg15
S'date'
p1345
sg20
S'date'
p1346
stRp1347
ag3
(g4
g5
(dp1348
g17
S'Key'
p1349
sg15
S'server'
p1350
sg20
S'server ID where the configurable was set'
p1351
stRp1352
ag3
(g4
g5
(dp1353
g17
S'User'
p1354
sg15
S'user'
p1355
sg20
S'user'
p1356
stRp1357
ag3
(g4
g5
(dp1358
g17
S'Value'
p1359
sg15
S'ovalue'
p1360
sg20
S'old value'
p1361
stRp1362
ag3
(g4
g5
(dp1363
g17
S'Value'
p1364
sg15
S'nvalue'
p1365
sg20
S'new value'
p1366
stRp1367
atRp1368
sg15
S'ConfigHist'
p1369
stRp1370
ag3
(g4
g5
(dp1371
g956
g3
(g8
g9
(lp1372
g3
(g4
g5
(dp1373
g17
S'Counter'
p1374
sg15
S'name'
p1375
sg20
S'Counter name'
p1376
stRp1377
ag3
(g4
g5
(dp1378
g17
S'Value'
p1379
sg15
S'value'
p1380
sg20
S'Counter value'
p1381
stRp1382
atRp1383
sg15
S'Counters'
p1384
stRp1385
ag3
(g4
g5
(dp1386
g956
g3
(g8
g9
(lp1387
g3
(g4
g5
(dp1388
g17
S'Domain'
p1389
sg15
S'name'
p1390
sg20
S'Depot name'
p1391
stRp1392
ag3
(g4
g5
(dp1393
g17
S'DepotType'
p1394
sg15
S'type'
p1395
sg20
S'Type of depot'
p1396
stRp1397
ag3
(g4
g5
(dp1398
g17
S'Text'
p1399
sg15
S'extra'
p1400
sg20
S'For remote depots, the P4PORT address of the remote server.\n\t\t    For spec depots, a suffix to append to the filename.\n                   For stream depots, stream depth'
p1401
stRp1402
ag3
(g4
g5
(dp1403
g17
S'Text'
p1404
sg15
S'map'
p1405
sg20
S"The depot's map (path translation information).  For local \n\t\t    depots, this will be a path relative to the root directory.\n\t\t    For remote depots, this will be specified in terms of the \n\t\t    remote server's namespace."
p1406
stRp1407
atRp1408
sg15
S'Depot'
p1409
stRp1410
ag3
(g4
g5
(dp1411
g956
g3
(g8
g9
(lp1412
g3
(g4
g5
(dp1413
g17
S'Change'
p1414
sg15
S'descKey'
p1415
sg20
S'Original number of the change to which this description\n\t\t    applies. This may differ from the final change number if\n\t\t    the change is renumbered on submission.'
p1416
stRp1417
ag3
(g4
g5
(dp1418
g17
S'Text'
p1419
sg15
S'description'
p1420
sg20
S'The change description itself'
p1421
stRp1422
atRp1423
sg15
S'Desc'
p1424
stRp1425
ag3
(g4
g5
(dp1426
g956
g3
(g8
g9
(lp1427
g3
(g4
g5
(dp1428
g17
S'Domain'
p1429
sg15
S'name'
p1430
sg20
S'Domain name'
p1431
stRp1432
ag3
(g4
g5
(dp1433
g17
S'DomainType'
p1434
sg15
S'type'
p1435
sg20
S'Type of domain'
p1436
stRp1437
ag3
(g4
g5
(dp1438
g17
S'Text'
p1439
sg15
S'extra'
p1440
sg20
S'Formerly "host". Associated host or, for labels, revision \n\t\t    number.'
p1441
stRp1442
ag3
(g4
g5
(dp1443
g17
S'Text'
p1444
sg15
S'mount'
p1445
sg20
S'The client root'
p1446
stRp1447
ag3
(g4
g5
(dp1448
g17
S'Text'
p1449
sg15
S'mount2'
p1450
sg20
S'Alternate client root'
p1451
stRp1452
ag3
(g4
g5
(dp1453
g17
S'Text'
p1454
sg15
S'mount3'
p1455
sg20
S'Alternate client root'
p1456
stRp1457
ag3
(g4
g5
(dp1458
g17
S'User'
p1459
sg15
S'owner'
p1460
sg20
S'Name of user who owns the domain.'
p1461
stRp1462
ag3
(g4
g5
(dp1463
g17
S'Date'
p1464
sg15
S'updateDate'
p1465
sg20
S'Date of last update to domain specification.'
p1466
stRp1467
ag3
(g4
g5
(dp1468
g17
S'Date'
p1469
sg15
S'accessDate'
p1470
sg20
S'Date of last access to domain specification.'
p1471
stRp1472
ag3
(g4
g5
(dp1473
g17
S'DomainOpts'
p1474
sg15
S'options'
p1475
sg20
S'Options for client, label, and branch domains.'
p1476
stRp1477
ag3
(g4
g5
(dp1478
g17
S'Text'
p1479
sg15
S'description'
p1480
sg20
S'Description of domain.'
p1481
stRp1482
ag3
(g4
g5
(dp1483
g17
S'Domain'
p1484
sg15
S'stream'
p1485
sg20
S'Associated stream for client records'
p1486
stRp1487
ag3
(g4
g5
(dp1488
g17
S'Key'
p1489
sg15
S'serverId'
p1490
sg20
S'Associated server ID for client records'
p1491
stRp1492
ag3
(g4
g5
(dp1493
g17
S'Int'
p1494
sg15
S'contents'
p1495
sg20
S'Client domain contents. 1: Maps only classic depot files, 2: Maps only graph depot files, 3: Maps both classic and graph depot files'
p1496
stRp1497
atRp1498
sg15
S'Domain'
p1499
stRp1500
ag3
(g4
g5
(dp1501
g956
g3
(g8
g9
(lp1502
g3
(g4
g5
(dp1503
g17
S'File'
p1504
sg15
S'depotFile'
p1505
sg20
S'The file locked'
p1506
stRp1507
ag3
(g4
g5
(dp1508
g17
S'Domain'
p1509
sg15
S'client'
p1510
sg20
S'The client for which the file is locked'
p1511
stRp1512
ag3
(g4
g5
(dp1513
g17
S'User'
p1514
sg15
S'user'
p1515
sg20
S'The user for which the file is locked'
p1516
stRp1517
atRp1518
sg15
S'ExclusiveLock'
p1519
stRp1520
ag3
(g4
g5
(dp1521
g956
g3
(g8
g9
(lp1522
g3
(g4
g5
(dp1523
g17
S'Key'
p1524
sg15
S'repo'
p1525
sg20
S'The name of the repository on which the lock is applied'
p1526
stRp1527
ag3
(g4
g5
(dp1528
g17
S'Text'
p1529
sg15
S'ref'
p1530
sg20
S'The reference on which the lock is applied'
p1531
stRp1532
ag3
(g4
g5
(dp1533
g17
S'File'
p1534
sg15
S'file'
p1535
sg20
S'The git file path'
p1536
stRp1537
ag3
(g4
g5
(dp1538
g17
S'String'
p1539
sg15
S'lockId'
p1540
sg20
S'The git LFS lock identifier'
p1541
stRp1542
ag3
(g4
g5
(dp1543
g17
S'User'
p1544
sg15
S'user'
p1545
sg20
S'The user for which the file is locked'
p1546
stRp1547
ag3
(g4
g5
(dp1548
g17
S'String'
p1549
sg15
S'created'
p1550
sg20
S'The lock creation date stored in git data format'
p1551
stRp1552
atRp1553
sg15
S'ExclG'
p1554
stRp1555
ag3
(g4
g5
(dp1556
g956
g3
(g8
g9
(lp1557
g3
(g4
g5
(dp1558
g17
S'String'
p1559
sg15
S'lockId'
p1560
sg20
S'The git LFS lock identifier'
p1561
stRp1562
ag3
(g4
g5
(dp1563
g17
S'Key'
p1564
sg15
S'repo'
p1565
sg20
S'The name of the repository on which the lock is applied'
p1566
stRp1567
ag3
(g4
g5
(dp1568
g17
S'Text'
p1569
sg15
S'ref'
p1570
sg20
S'The reference on which the lock is applied'
p1571
stRp1572
ag3
(g4
g5
(dp1573
g17
S'File'
p1574
sg15
S'file'
p1575
sg20
S'The git file path'
p1576
stRp1577
ag3
(g4
g5
(dp1578
g17
S'User'
p1579
sg15
S'user'
p1580
sg20
S'The user for which the file is locked'
p1581
stRp1582
ag3
(g4
g5
(dp1583
g17
S'String'
p1584
sg15
S'created'
p1585
sg20
S'The lock creation date stored in git data format'
p1586
stRp1587
atRp1588
sg15
S'ExclGX'
p1589
stRp1590
ag3
(g4
g5
(dp1591
g956
g3
(g8
g9
(lp1592
g3
(g4
g5
(dp1593
g17
S'Key'
p1594
sg15
S'job'
p1595
sg20
S'Job name'
p1596
stRp1597
ag3
(g4
g5
(dp1598
g17
S'Change'
p1599
sg15
S'change'
p1600
sg20
S'Changelist number'
p1601
stRp1602
ag3
(g4
g5
(dp1603
g17
S'Date'
p1604
sg15
S'date'
p1605
sg20
S'Date fix was recorded (may differ from date change was\n\t\t    submitted).'
p1606
stRp1607
ag3
(g4
g5
(dp1608
g17
S'FixStatus'
p1609
sg15
S'status'
p1610
sg20
S'Status of the job'
p1611
stRp1612
ag3
(g4
g5
(dp1613
g17
S'Domain'
p1614
sg15
S'client'
p1615
sg20
S'The client where the fix originated'
p1616
stRp1617
ag3
(g4
g5
(dp1618
g17
S'User'
p1619
sg15
S'user'
p1620
sg20
S'The user who fixed the job'
p1621
stRp1622
atRp1623
sg15
S'Fix'
p1624
stRp1625
ag3
(g4
g5
(dp1626
g956
g3
(g8
g9
(lp1627
g3
(g4
g5
(dp1628
g17
S'Int'
p1629
sg15
S'id'
p1630
sg20
S'ID of repo index belongs to'
p1631
stRp1632
ag3
(g4
g5
(dp1633
g17
S'File'
p1634
sg15
S'name'
p1635
sg20
S'File name (minus the repo name)'
p1636
stRp1637
ag3
(g4
g5
(dp1638
g17
S'Date'
p1639
sg15
S'date'
p1640
sg20
S'Descending historical commit sequence'
p1641
stRp1642
ag3
(g4
g5
(dp1643
g17
S'SHA1'
p1644
sg15
S'blobSha'
p1645
sg20
S'SHA of blob'
p1646
stRp1647
ag3
(g4
g5
(dp1648
g17
S'SHA1'
p1649
sg15
S'commitSha'
p1650
sg20
S'SHA of commit that added/edited this file'
p1651
stRp1652
ag3
(g4
g5
(dp1653
g17
S'Int'
p1654
sg15
S'flags'
p1655
sg20
S'Miscellaneous flags'
p1656
stRp1657
ag3
(g4
g5
(dp1658
g17
S'FileSize'
p1659
sg15
S'size'
p1660
sg20
S'The size of the file (or target LFS file)'
p1661
stRp1662
ag3
(g4
g5
(dp1663
g17
S'FileType'
p1664
sg15
S'type'
p1665
sg20
S'The filetype of the graph file'
p1666
stRp1667
ag3
(g4
g5
(dp1668
g17
S'Text'
p1669
sg15
S'lfsoid'
p1670
sg20
S'LFS Object ID'
p1671
stRp1672
atRp1673
sg15
S'GraphIndex'
p1674
stRp1675
ag3
(g4
g5
(dp1676
g956
g3
(g8
g9
(lp1677
g3
(g4
g5
(dp1678
g17
S'Domain'
p1679
sg15
S'name'
p1680
sg20
S'Graph depot name'
p1681
stRp1682
ag3
(g4
g5
(dp1683
g17
S'Mapping'
p1684
sg15
S'repo'
p1685
sg20
S'Repository name'
p1686
stRp1687
ag3
(g4
g5
(dp1688
g17
S'Mapping'
p1689
sg15
S'ref'
p1690
sg20
S'Reference'
p1691
stRp1692
ag3
(g4
g5
(dp1693
g17
S'UserType'
p1694
sg15
S'type'
p1695
sg20
S'Type of user'
p1696
stRp1697
ag3
(g4
g5
(dp1698
g17
S'UserWild'
p1699
sg15
S'user'
p1700
sg20
S'User or Group for permission'
p1701
stRp1702
ag3
(g4
g5
(dp1703
g17
S'GraphPermType'
p1704
sg15
S'perm'
p1705
sg20
S'Permission'
p1706
stRp1707
atRp1708
sg15
S'GraphPerm'
p1709
stRp1710
ag3
(g4
g5
(dp1711
g956
g3
(g8
g9
(lp1712
g3
(g4
g5
(dp1713
g17
S'User'
p1714
sg15
S'user'
p1715
sg20
S'User name'
p1716
stRp1717
ag3
(g4
g5
(dp1718
g17
S'User'
p1719
sg15
S'group'
p1720
sg20
S'Group name'
p1721
stRp1722
ag3
(g4
g5
(dp1723
g17
S'UserType'
p1724
sg15
S'type'
p1725
sg20
S'Type of user in this group.'
p1726
stRp1727
ag3
(g4
g5
(dp1728
g17
S'MaxResults'
p1729
sg15
S'maxResults'
p1730
sg20
S'MaxResults setting for the group.'
p1731
stRp1732
ag3
(g4
g5
(dp1733
g17
S'MaxScanRows'
p1734
sg15
S'maxScanRows'
p1735
sg20
S'MaxScanRows setting for the group.'
p1736
stRp1737
ag3
(g4
g5
(dp1738
g17
S'MaxLockTime'
p1739
sg15
S'maxLockTime'
p1740
sg20
S'MaxLockTime setting for the group.'
p1741
stRp1742
ag3
(g4
g5
(dp1743
g17
S'MaxOpenFiles'
p1744
sg15
S'maxOpenFiles'
p1745
sg20
S'MaxOpenFiles setting for the group.'
p1746
stRp1747
ag3
(g4
g5
(dp1748
g17
S'Int'
p1749
sg15
S'timeout'
p1750
sg20
S'Length of time (in seconds) a login ticket remains valid.'
p1751
stRp1752
ag3
(g4
g5
(dp1753
g17
S'Int'
p1754
sg15
S'passwordTimeout'
p1755
sg20
S'Length of time (in seconds) a password remains valid for users in the group.'
p1756
stRp1757
atRp1758
sg15
S'Group'
p1759
stRp1760
ag3
(g4
g5
(dp1761
g956
g3
(g8
g9
(lp1762
g3
(g4
g5
(dp1763
g17
S'User'
p1764
sg15
S'group'
p1765
sg20
S'Group name'
p1766
stRp1767
ag3
(g4
g5
(dp1768
g17
S'String'
p1769
sg15
S'ldapConf'
p1770
sg20
S"The LDAP configuration to use when populating the group's user list from an LDAP query"
p1771
stRp1772
ag3
(g4
g5
(dp1773
g17
S'String'
p1774
sg15
S'ldapSearchQuery'
p1775
sg20
S'The LDAP query used to identify the members of the group'
p1776
stRp1777
ag3
(g4
g5
(dp1778
g17
S'String'
p1779
sg15
S'ldapUserAttribute'
p1780
sg20
S"The LDAP attribute that represents the user's username"
p1781
stRp1782
ag3
(g4
g5
(dp1783
g17
S'String'
p1784
sg15
S'ldapDNAttribute'
p1785
sg20
S"The LDAP attribute that represents the user's DN"
p1786
stRp1787
atRp1788
sg15
S'GroupX'
p1789
stRp1790
ag3
(g4
g5
(dp1791
g956
g3
(g8
g9
(lp1792
g3
(g4
g5
(dp1793
g17
S'File'
p1794
sg15
S'clientFile'
p1795
sg20
S'The file in its location on the client'
p1796
stRp1797
ag3
(g4
g5
(dp1798
g17
S'File'
p1799
sg15
S'depotFile'
p1800
sg20
S'The file in the depot'
p1801
stRp1802
ag3
(g4
g5
(dp1803
g17
S'Rev'
p1804
sg15
S'haveRev'
p1805
sg20
S'The revision synced to the client'
p1806
stRp1807
ag3
(g4
g5
(dp1808
g17
S'FileType'
p1809
sg15
S'type'
p1810
sg20
S'The filetype of the synced file'
p1811
stRp1812
ag3
(g4
g5
(dp1813
g17
S'Date'
p1814
sg15
S'time'
p1815
sg20
S'The sync time of the synced revision'
p1816
stRp1817
atRp1818
sg15
S'Have'
p1819
stRp1820
ag3
(g4
g5
(dp1821
g956
g3
(g8
g9
(lp1822
g3
(g4
g5
(dp1823
g17
S'Key'
p1824
sg15
S'repo'
p1825
sg20
S'Repository name'
p1826
stRp1827
ag3
(g4
g5
(dp1828
g17
S'File'
p1829
sg15
S'clientFile'
p1830
sg20
S'The file in its location on the client'
p1831
stRp1832
ag3
(g4
g5
(dp1833
g17
S'File'
p1834
sg15
S'depotFile'
p1835
sg20
S'The git file path'
p1836
stRp1837
ag3
(g4
g5
(dp1838
g17
S'Domain'
p1839
sg15
S'client'
p1840
sg20
S'Domain (client) in which file is synced'
p1841
stRp1842
ag3
(g4
g5
(dp1843
g17
S'FileType'
p1844
sg15
S'type'
p1845
sg20
S'The filetype of the synced revision'
p1846
stRp1847
ag3
(g4
g5
(dp1848
g17
S'Action'
p1849
sg15
S'action'
p1850
sg20
S'Action file is open for: add, edit, delete, branch, integrate, or import'
p1851
stRp1852
ag3
(g4
g5
(dp1853
g17
S'SHA1'
p1854
sg15
S'blobSha'
p1855
sg20
S'SHA of blob'
p1856
stRp1857
ag3
(g4
g5
(dp1858
g17
S'SHA1'
p1859
sg15
S'commitSha'
p1860
sg20
S'SHA of commit that added/edited this file'
p1861
stRp1862
ag3
(g4
g5
(dp1863
g17
S'Int'
p1864
sg15
S'flags'
p1865
sg20
S'Miscellaneous flags'
p1866
stRp1867
atRp1868
sg15
S'Haveg'
p1869
stRp1870
ag3
(g4
g5
(dp1871
g956
g3
(g8
g9
(lp1872
g3
(g4
g5
(dp1873
g17
S'Date'
p1874
sg15
S'date'
p1875
sg20
S'Date value'
p1876
stRp1877
ag3
(g4
g5
(dp1878
g17
S'Int'
p1879
sg15
S'attr'
p1880
sg20
S'The attribute number (from the jobspec) to which this\n\t\t    date belongs'
p1881
stRp1882
ag3
(g4
g5
(dp1883
g17
S'Key'
p1884
sg15
S'value'
p1885
sg20
S'A job name'
p1886
stRp1887
atRp1888
sg15
S'IndexDate'
p1889
stRp1890
ag3
(g4
g5
(dp1891
g956
g3
(g8
g9
(lp1892
g3
(g4
g5
(dp1893
g17
S'Key'
p1894
sg15
S'word'
p1895
sg20
S'The word being indexed'
p1896
stRp1897
ag3
(g4
g5
(dp1898
g17
S'Int'
p1899
sg15
S'attr'
p1900
sg20
S'The attribute number to which this word belongs. For\n\t\t    job data, the attribute number from the jobspec.'
p1901
stRp1902
ag3
(g4
g5
(dp1903
g17
S'Key'
p1904
sg15
S'value'
p1905
sg20
S'For job data, a job name. For generic data, the value\n\t\t    of the index keyed by the word.'
p1906
stRp1907
atRp1908
sg15
S'IndexText'
p1909
stRp1910
ag3
(g4
g5
(dp1911
g956
g3
(g8
g9
(lp1912
g3
(g4
g5
(dp1913
g17
S'SpecType'
p1914
sg15
S'type'
p1915
sg20
S'The type'
p1916
stRp1917
ag3
(g4
g5
(dp1918
g17
S'Key'
p1919
sg15
S'word'
p1920
sg20
S'The word being indexed'
p1921
stRp1922
ag3
(g4
g5
(dp1923
g17
S'Int'
p1924
sg15
S'attr'
p1925
sg20
S'The attribute number to which this word belongs.'
p1926
stRp1927
ag3
(g4
g5
(dp1928
g17
S'Key'
p1929
sg15
S'value'
p1930
sg20
S'The value of the index keyed by the word.'
p1931
stRp1932
atRp1933
sg15
S'IndexTextHx'
p1934
stRp1935
ag3
(g4
g5
(dp1936
g956
g3
(g8
g9
(lp1937
g3
(g4
g5
(dp1938
g17
S'File'
p1939
sg15
S'toFile'
p1940
sg20
S'File to which integration is being performed (target).'
p1941
stRp1942
ag3
(g4
g5
(dp1943
g17
S'File'
p1944
sg15
S'fromFile'
p1945
sg20
S'File from which integration is being performed (source).'
p1946
stRp1947
ag3
(g4
g5
(dp1948
g17
S'Rev'
p1949
sg15
S'startFromRev'
p1950
sg20
S'Starting revision of fromFile'
p1951
stRp1952
ag3
(g4
g5
(dp1953
g17
S'Rev'
p1954
sg15
S'endFromRev'
p1955
sg20
S'Ending revision of fromFile'
p1956
stRp1957
ag3
(g4
g5
(dp1958
g17
S'Rev'
p1959
sg15
S'toRev'
p1960
sg20
S'Revision of toFile into which integration is being \n\t\t    performed.'
p1961
stRp1962
ag3
(g4
g5
(dp1963
g17
S'IntegHow'
p1964
sg15
S'how'
p1965
sg20
S'Integration method: variations on \n\t\t    merge/branch/copy/ignore/delete.'
p1966
stRp1967
ag3
(g4
g5
(dp1968
g17
S'Int'
p1969
sg15
S'committed'
p1970
sg20
S'Flag: 0 for pending, 1 for committed.'
p1971
stRp1972
ag3
(g4
g5
(dp1973
g17
S'ResolvedStatus'
p1974
sg15
S'resolved'
p1975
sg20
S'Resolution method: unresolved, resolved manually, \n\t\t    or resolved as part of a branch or delete.'
p1976
stRp1977
ag3
(g4
g5
(dp1978
g17
S'Change'
p1979
sg15
S'change'
p1980
sg20
S'Changelist associated with the integration.'
p1981
stRp1982
atRp1983
sg15
S'Integ'
p1984
stRp1985
ag3
(g4
g5
(dp1986
g956
g3
(g8
g9
(lp1987
g3
(g4
g5
(dp1988
g17
S'File'
p1989
sg15
S'toFile'
p1990
sg20
S'File to which integration is being performed (target).'
p1991
stRp1992
ag3
(g4
g5
(dp1993
g17
S'File'
p1994
sg15
S'fromFile'
p1995
sg20
S'File from which integration is being performed (source).'
p1996
stRp1997
ag3
(g4
g5
(dp1998
g17
S'Rev'
p1999
sg15
S'startFromRev'
p2000
sg20
S'Starting revision of fromFile'
p2001
stRp2002
ag3
(g4
g5
(dp2003
g17
S'Rev'
p2004
sg15
S'endFromRev'
p2005
sg20
S'Ending revision of fromFile'
p2006
stRp2007
ag3
(g4
g5
(dp2008
g17
S'Rev'
p2009
sg15
S'startToRev'
p2010
sg20
S'Start revision of toFile into which integration was \n\t\t    performed.'
p2011
stRp2012
ag3
(g4
g5
(dp2013
g17
S'Rev'
p2014
sg15
S'endToRev'
p2015
sg20
S'End revision of toFile into which integration was \n\t\t    performed. Only varies from startToRev for reverse \n\t\t    integration records.'
p2016
stRp2017
ag3
(g4
g5
(dp2018
g17
S'IntegHow'
p2019
sg15
S'how'
p2020
sg20
S'Integration method: variations on \n\t\t    merge/branch/copy/ignore/delete.'
p2021
stRp2022
ag3
(g4
g5
(dp2023
g17
S'Change'
p2024
sg15
S'change'
p2025
sg20
S'Changelist associated with the integration.'
p2026
stRp2027
atRp2028
sg15
S'Integed'
p2029
stRp2030
ag3
(g4
g5
(dp2031
g956
g3
(g8
g9
(lp2032
g3
(g4
g5
(dp2033
g17
S'Key'
p2034
sg15
S'serverId'
p2035
sg20
S'The serverId of the replica for whom this record applies'
p2036
stRp2037
ag3
(g4
g5
(dp2038
g17
S'Date'
p2039
sg15
S'lastUpdate'
p2040
sg20
S'The date and time of last update'
p2041
stRp2042
ag3
(g4
g5
(dp2043
g17
S'ServerServiceType'
p2044
sg15
S'serverType'
p2045
sg20
S'The server services offered by this replica'
p2046
stRp2047
ag3
(g4
g5
(dp2048
g17
S'Int'
p2049
sg15
S'persistedJnl'
p2050
sg20
S'The last journal number persisted by this replica'
p2051
stRp2052
ag3
(g4
g5
(dp2053
g17
S'Int'
p2054
sg15
S'appliedJnl'
p2055
sg20
S'The last journal number applied by this replica'
p2056
stRp2057
ag3
(g4
g5
(dp2058
g17
S'Int64'
p2059
sg15
S'persistedPos'
p2060
sg20
S'The last journal position persisted by this replica'
p2061
stRp2062
ag3
(g4
g5
(dp2063
g17
S'Int64'
p2064
sg15
S'appliedPos'
p2065
sg20
S'The last journal position applied by this replica'
p2066
stRp2067
ag3
(g4
g5
(dp2068
g17
S'JournalCopyFlags'
p2069
sg15
S'jcflags'
p2070
sg20
S'Journalcopy Flags'
p2071
stRp2072
ag3
(g4
g5
(dp2073
g17
S'Int'
p2074
sg15
S'isAlive'
p2075
sg20
S'1 = alive'
p2076
stRp2077
ag3
(g4
g5
(dp2078
g17
S'ServerOptionsType'
p2079
sg15
S'serverOptions'
p2080
sg20
S'Server Options'
p2081
stRp2082
ag3
(g4
g5
(dp2083
g17
S'Text'
p2084
sg15
S'failoverSeen'
p2085
sg20
S'Failover was seen'
p2086
stRp2087
atRp2088
sg15
S'JnlAck'
p2089
stRp2090
ag3
(g4
g5
(dp2091
g956
g3
(g8
g9
(lp2092
g3
(g4
g5
(dp2093
g17
S'Key'
p2094
sg15
S'job'
p2095
sg20
S'The job name'
p2096
stRp2097
ag3
(g4
g5
(dp2098
g17
S'User'
p2099
sg15
S'xuser'
p2100
sg20
S'User name: defunct'
p2101
stRp2102
ag3
(g4
g5
(dp2103
g17
S'Date'
p2104
sg15
S'xdate'
p2105
sg20
S'The date: defunct'
p2106
stRp2107
ag3
(g4
g5
(dp2108
g17
S'JobStat'
p2109
sg15
S'xstatus'
p2110
sg20
S'Job status: defunct'
p2111
stRp2112
ag3
(g4
g5
(dp2113
g17
S'DescShort'
p2114
sg15
S'description'
p2115
sg20
S'Short description'
p2116
stRp2117
atRp2118
sg15
S'Job'
p2119
stRp2120
ag3
(g4
g5
(dp2121
g956
g3
(g8
g9
(lp2122
g3
(g4
g5
(dp2123
g17
S'Key'
p2124
sg15
S'xjob'
p2125
sg20
S'The job name'
p2126
stRp2127
ag3
(g4
g5
(dp2128
g17
S'Text'
p2129
sg15
S'xdescription'
p2130
sg20
S'Jobdescription'
p2131
stRp2132
atRp2133
sg15
S'JobDesc'
p2134
stRp2135
ag3
(g4
g5
(dp2136
g956
g3
(g8
g9
(lp2137
g3
(g4
g5
(dp2138
g17
S'Key'
p2139
sg15
S'name'
p2140
sg20
S'Key name'
p2141
stRp2142
ag3
(g4
g5
(dp2143
g17
S'Value'
p2144
sg15
S'value'
p2145
sg20
S'Key value'
p2146
stRp2147
atRp2148
sg15
S'Keys'
p2149
stRp2150
ag3
(g4
g5
(dp2151
g956
g3
(g8
g9
(lp2152
g3
(g4
g5
(dp2153
g17
S'Domain'
p2154
sg15
S'name'
p2155
sg20
S'Name of the label'
p2156
stRp2157
ag3
(g4
g5
(dp2158
g17
S'File'
p2159
sg15
S'depotFile'
p2160
sg20
S'File name'
p2161
stRp2162
ag3
(g4
g5
(dp2163
g17
S'Rev'
p2164
sg15
S'haveRev'
p2165
sg20
S'The revision of the file in the label'
p2166
stRp2167
atRp2168
sg15
S'Label'
p2169
stRp2170
ag3
(g4
g5
(dp2171
g956
g3
(g8
g9
(lp2172
g3
(g4
g5
(dp2173
g17
S'Key'
p2174
sg15
S'name'
p2175
sg20
S'The LDAP configuration name'
p2176
stRp2177
ag3
(g4
g5
(dp2178
g17
S'String'
p2179
sg15
S'host'
p2180
sg20
S'The FQDN of the directory server'
p2181
stRp2182
ag3
(g4
g5
(dp2183
g17
S'Int'
p2184
sg15
S'port'
p2185
sg20
S'The port number on which to connect to the directory server'
p2186
stRp2187
ag3
(g4
g5
(dp2188
g17
S'Int'
p2189
sg15
S'ssl'
p2190
sg20
S"The encryption method to use when connecting to the The FQDN of the directory server.\n\t\t\tOptions are: 0='none', 1='ssl' and 2='tls'"
p2191
stRp2192
ag3
(g4
g5
(dp2193
g17
S'Int'
p2194
sg15
S'type'
p2195
sg20
S"The bind method to use with this directory.  Options are: 0='simple', 1='search' and 2='sasl'."
p2196
stRp2197
ag3
(g4
g5
(dp2198
g17
S'Text'
p2199
sg15
S'pattern'
p2200
sg20
S"The DN used to bind against to validate the user's credentials."
p2201
stRp2202
ag3
(g4
g5
(dp2203
g17
S'Text'
p2204
sg15
S'baseDN'
p2205
sg20
S'The DN from which to start the search for the user object'
p2206
stRp2207
ag3
(g4
g5
(dp2208
g17
S'Text'
p2209
sg15
S'filter'
p2210
sg20
S'The LDAP query filter to use to identify the user object which will be used to bind against'
p2211
stRp2212
ag3
(g4
g5
(dp2213
g17
S'Int'
p2214
sg15
S'scope'
p2215
sg20
S'The scope to use when searching for the user records. Options are:\n                 0 = baseonly - Just the BaseDN object\n                 1 = children - The BaseDN and its direct children\n                 2 = subtree - The BaseDN and all objects below it'
p2216
stRp2217
ag3
(g4
g5
(dp2218
g17
S'Text'
p2219
sg15
S'bindDN'
p2220
sg20
S'The DN to bind against in order to search the directory'
p2221
stRp2222
ag3
(g4
g5
(dp2223
g17
S'Text'
p2224
sg15
S'bindpass'
p2225
sg20
S'The password for the BindDN record'
p2226
stRp2227
ag3
(g4
g5
(dp2228
g17
S'Text'
p2229
sg15
S'realm'
p2230
sg20
S'The optional realm to use when authenticating the user via SASL'
p2231
stRp2232
ag3
(g4
g5
(dp2233
g17
S'Text'
p2234
sg15
S'groupBaseDN'
p2235
sg20
S'The search base for performing the group search. If unset this will default to the SearchBaseDN'
p2236
stRp2237
ag3
(g4
g5
(dp2238
g17
S'Text'
p2239
sg15
S'groupFilter'
p2240
sg20
S'The filter to use for the group search'
p2241
stRp2242
ag3
(g4
g5
(dp2243
g17
S'Int'
p2244
sg15
S'groupScope'
p2245
sg20
S'The scope to use when performing the group search.Options are:\n \t\t\t\t0 = baseonly - Just the BaseDN object\n\t\t\t\t1 = children - The BaseDN and its direct children\n\t\t\t\t2 = subtree - The BaseDN and all objects below it'
p2246
stRp2247
ag3
(g4
g5
(dp2248
g17
S'Int'
p2249
sg15
S'options'
p2250
sg20
S'LDAP options bitmask: 1=[no]downcase, 2=[no]getattrs and 4=[no]realminusername'
p2251
stRp2252
ag3
(g4
g5
(dp2253
g17
S'Text'
p2254
sg15
S'attrUid'
p2255
sg20
S"The name of the attribute in the directory's user records that contain the users' UIDs"
p2256
stRp2257
ag3
(g4
g5
(dp2258
g17
S'Text'
p2259
sg15
S'attrEmail'
p2260
sg20
S"The name of the attribute in the directory's user records that contain the users' email addresses."
p2261
stRp2262
ag3
(g4
g5
(dp2263
g17
S'Text'
p2264
sg15
S'attrName'
p2265
sg20
S"The name(s) of the attribute(s) in the directory's user records that contain the users' full names."
p2266
stRp2267
atRp2268
sg15
S'Ldap'
p2269
stRp2270
ag3
(g4
g5
(dp2271
g956
g3
(g8
g9
(lp2272
g3
(g4
g5
(dp2273
g17
S'File'
p2274
sg15
S'depotFile'
p2275
sg20
S'File in depot'
p2276
stRp2277
ag3
(g4
g5
(dp2278
g17
S'Domain'
p2279
sg15
S'client'
p2280
sg20
S'Domain (client) in which file is open'
p2281
stRp2282
ag3
(g4
g5
(dp2283
g17
S'User'
p2284
sg15
S'user'
p2285
sg20
S'User who presently has the file open'
p2286
stRp2287
ag3
(g4
g5
(dp2288
g17
S'Action'
p2289
sg15
S'action'
p2290
sg20
S'Action file is open for: add, edit, delete, branch,\n\t\t    integrate, or import'
p2291
stRp2292
ag3
(g4
g5
(dp2293
g17
S'Int'
p2294
sg15
S'isLocked'
p2295
sg20
S'Flag: 0 for unlocked, 1 for locked'
p2296
stRp2297
ag3
(g4
g5
(dp2298
g17
S'Change'
p2299
sg15
S'change'
p2300
sg20
S'Changelist in which the revision is open: 0 for the\n\t\t    default changelist'
p2301
stRp2302
atRp2303
sg15
S'Locks'
p2304
stRp2305
ag3
(g4
g5
(dp2306
g956
g3
(g8
g9
(lp2307
g3
(g4
g5
(dp2308
g17
S'Int'
p2309
sg15
S'seq'
p2310
sg20
S'Sequence number of event'
p2311
stRp2312
ag3
(g4
g5
(dp2313
g17
S'Key'
p2314
sg15
S'key'
p2315
sg20
S"Either the word 'change' or the word 'job'"
p2316
stRp2317
ag3
(g4
g5
(dp2318
g17
S'Key'
p2319
sg15
S'attr'
p2320
sg20
S'The number of the change, or name of the job that was \n\t\t    altered.'
p2321
stRp2322
atRp2323
sg15
S'Logger'
p2324
stRp2325
ag3
(g4
g5
(dp2326
g956
g3
(g8
g9
(lp2327
g3
(g4
g5
(dp2328
g17
S'Key'
p2329
sg15
S'language'
p2330
sg20
S'The language for which this message applies'
p2331
stRp2332
ag3
(g4
g5
(dp2333
g17
S'Int'
p2334
sg15
S'id'
p2335
sg20
S'The message number'
p2336
stRp2337
ag3
(g4
g5
(dp2338
g17
S'String'
p2339
sg15
S'message'
p2340
sg20
S'The message text'
p2341
stRp2342
atRp2343
sg15
S'Message'
p2344
stRp2345
ag3
(g4
g5
(dp2346
g956
g3
(g8
g9
(lp2347
g3
(g4
g5
(dp2348
g17
S'Int'
p2349
sg15
S'id'
p2350
sg20
S'Thread/process id'
p2351
stRp2352
ag3
(g4
g5
(dp2353
g17
S'User'
p2354
sg15
S'user'
p2355
sg20
S'Username of the user running the command'
p2356
stRp2357
ag3
(g4
g5
(dp2358
g17
S'String'
p2359
sg15
S'function'
p2360
sg20
S'The command being executed.'
p2361
stRp2362
ag3
(g4
g5
(dp2363
g17
S'String'
p2364
sg15
S'args'
p2365
sg20
S'Arguments passed to the command'
p2366
stRp2367
ag3
(g4
g5
(dp2368
g17
S'Date'
p2369
sg15
S'startDate'
p2370
sg20
S'The date and time the command started'
p2371
stRp2372
ag3
(g4
g5
(dp2373
g17
S'Int'
p2374
sg15
S'runstate'
p2375
sg20
S'Flag: 0 for running, 1 for terminated, 2 for paused'
p2376
stRp2377
ag3
(g4
g5
(dp2378
g17
S'Domain'
p2379
sg15
S'client'
p2380
sg20
S'The client workspace'
p2381
stRp2382
ag3
(g4
g5
(dp2383
g17
S'Text'
p2384
sg15
S'host'
p2385
sg20
S'The IP address of the client'
p2386
stRp2387
ag3
(g4
g5
(dp2388
g17
S'Text'
p2389
sg15
S'prog'
p2390
sg20
S'The name (and version) of the client program'
p2391
stRp2392
ag3
(g4
g5
(dp2393
g17
S'Text'
p2394
sg15
S'lockInfo'
p2395
sg20
S'Table locking information for command'
p2396
stRp2397
atRp2398
sg15
S'Monitor'
p2399
stRp2400
ag3
(g4
g5
(dp2401
g956
g3
(g8
g9
(lp2402
g3
(g4
g5
(dp2403
g17
S'SHA1'
p2404
sg15
S'sha'
p2405
sg20
S'The SHA1 of the object'
p2406
stRp2407
ag3
(g4
g5
(dp2408
g17
S'ObjectType'
p2409
sg15
S'type'
p2410
sg20
S'The object type'
p2411
stRp2412
ag3
(g4
g5
(dp2413
g17
S'Octet String'
p2414
sg15
S'data'
p2415
sg20
S'The object content'
p2416
stRp2417
atRp2418
sg15
S'Object'
p2419
stRp2420
ag3
(g4
g5
(dp2421
g956
g3
(g8
g9
(lp2422
g3
(g4
g5
(dp2423
g17
S'Key'
p2424
sg15
S'name'
p2425
sg20
S'The property name'
p2426
stRp2427
ag3
(g4
g5
(dp2428
g17
S'Int'
p2429
sg15
S'seq'
p2430
sg20
S'Sequence number of property'
p2431
stRp2432
ag3
(g4
g5
(dp2433
g17
S'UserType'
p2434
sg15
S'type'
p2435
sg20
S'Only uses 1=user or 2=group and only applies when scope is set'
p2436
stRp2437
ag3
(g4
g5
(dp2438
g17
S'User'
p2439
sg15
S'scope'
p2440
sg20
S'The user or group the property applies to (may be empty)'
p2441
stRp2442
ag3
(g4
g5
(dp2443
g17
S'Value'
p2444
sg15
S'value'
p2445
sg20
S'The property value'
p2446
stRp2447
ag3
(g4
g5
(dp2448
g17
S'Date'
p2449
sg15
S'date'
p2450
sg20
S'The date/time the property was last updated'
p2451
stRp2452
ag3
(g4
g5
(dp2453
g17
S'User'
p2454
sg15
S'user'
p2455
sg20
S'The user that last modified the property'
p2456
stRp2457
atRp2458
sg15
S'Property'
p2459
stRp2460
ag3
(g4
g5
(dp2461
g956
g3
(g8
g9
(lp2462
g3
(g4
g5
(dp2463
g17
S'Int'
p2464
sg15
S'seq'
p2465
sg20
S'Sequence number: for ordering the protections table'
p2466
stRp2467
ag3
(g4
g5
(dp2468
g17
S'Int'
p2469
sg15
S'isGroup'
p2470
sg20
S'Flag: 0 for a per-user setting, 1 for a per-group setting.'
p2471
stRp2472
ag3
(g4
g5
(dp2473
g17
S'UserWild'
p2474
sg15
S'user'
p2475
sg20
S'User(s), or Group(s) for whom this record applies.'
p2476
stRp2477
ag3
(g4
g5
(dp2478
g17
S'DomainWild'
p2479
sg15
S'host'
p2480
sg20
S'Domain(s) (IP addresses) for which this record applies.'
p2481
stRp2482
ag3
(g4
g5
(dp2483
g17
S'Perm'
p2484
sg15
S'perm'
p2485
sg20
S'Permissions to be granted/revoked'
p2486
stRp2487
ag3
(g4
g5
(dp2488
g17
S'MapFlag'
p2489
sg15
S'mapFlag'
p2490
sg20
S'Flag: Map the files in or out?'
p2491
stRp2492
ag3
(g4
g5
(dp2493
g17
S'Mapping'
p2494
sg15
S'depotFile'
p2495
sg20
S'Files to be mapped in or out.'
p2496
stRp2497
ag3
(g4
g5
(dp2498
g17
S'Mapping'
p2499
sg15
S'subPath'
p2500
sg20
S'Root path of the sub-protections table'
p2501
stRp2502
ag3
(g4
g5
(dp2503
g17
S'Date'
p2504
sg15
S'update'
p2505
sg20
S'Date this specification was last modified'
p2506
stRp2507
atRp2508
sg15
S'Protect'
p2509
stRp2510
ag3
(g4
g5
(dp2511
g956
g3
(g8
g9
(lp2512
g3
(g4
g5
(dp2513
g17
S'User'
p2514
sg15
S'user'
p2515
sg20
S'User'
p2516
stRp2517
ag3
(g4
g5
(dp2518
g17
S'Key'
p2519
sg15
S'scope'
p2520
sg20
S'Scope'
p2521
stRp2522
ag3
(g4
g5
(dp2523
g17
S'Text'
p2524
sg15
S'key'
p2525
sg20
S'Key'
p2526
stRp2527
ag3
(g4
g5
(dp2528
g17
S'Digest'
p2529
sg15
S'digest'
p2530
sg20
S'Digest'
p2531
stRp2532
ag3
(g4
g5
(dp2533
g17
S'Date'
p2534
sg15
S'update'
p2535
sg20
S'Update date'
p2536
stRp2537
atRp2538
sg15
S'PublicKey'
p2539
stRp2540
ag3
(g4
g5
(dp2541
g956
g3
(g8
g9
(lp2542
g3
(g4
g5
(dp2543
g17
S'Key'
p2544
sg15
S'repo'
p2545
sg20
S'Repository name'
p2546
stRp2547
ag3
(g4
g5
(dp2548
g17
S'Key'
p2549
sg15
S'name'
p2550
sg20
S'Reference name'
p2551
stRp2552
ag3
(g4
g5
(dp2553
g17
S'RefType'
p2554
sg15
S'type'
p2555
sg20
S'Reference type'
p2556
stRp2557
ag3
(g4
g5
(dp2558
g17
S'SHA1'
p2559
sg15
S'ref'
p2560
sg20
S'Target of the reference'
p2561
stRp2562
ag3
(g4
g5
(dp2563
g17
S'Text'
p2564
sg15
S'symref'
p2565
sg20
S'Target of symbolic reference'
p2566
stRp2567
atRp2568
sg15
S'Ref'
p2569
stRp2570
ag3
(g4
g5
(dp2571
g956
g3
(g8
g9
(lp2572
g3
(g4
g5
(dp2573
g17
S'Key'
p2574
sg15
S'repo'
p2575
sg20
S'Repository name'
p2576
stRp2577
ag3
(g4
g5
(dp2578
g17
S'Key'
p2579
sg15
S'name'
p2580
sg20
S'Reference name'
p2581
stRp2582
ag3
(g4
g5
(dp2583
g17
S'RefType'
p2584
sg15
S'type'
p2585
sg20
S'Reference type'
p2586
stRp2587
ag3
(g4
g5
(dp2588
g17
S'RefAction'
p2589
sg15
S'action'
p2590
sg20
S'Reference action'
p2591
stRp2592
ag3
(g4
g5
(dp2593
g17
S'Date'
p2594
sg15
S'date'
p2595
sg20
S'The date the reference was updated'
p2596
stRp2597
ag3
(g4
g5
(dp2598
g17
S'User'
p2599
sg15
S'user'
p2600
sg20
S'The user who made the reference update'
p2601
stRp2602
ag3
(g4
g5
(dp2603
g17
S'SHA1'
p2604
sg15
S'ref'
p2605
sg20
S'Encoded reference value'
p2606
stRp2607
ag3
(g4
g5
(dp2608
g17
S'Text'
p2609
sg15
S'symref'
p2610
sg20
S'Symbolic reference'
p2611
stRp2612
atRp2613
sg15
S'RefHist'
p2614
stRp2615
ag3
(g4
g5
(dp2616
g956
g3
(g8
g9
(lp2617
g3
(g4
g5
(dp2618
g17
S'RemoteID'
p2619
sg15
S'id'
p2620
sg20
S'The remote identifier'
p2621
stRp2622
ag3
(g4
g5
(dp2623
g17
S'User'
p2624
sg15
S'owner'
p2625
sg20
S'The user who created this remote'
p2626
stRp2627
ag3
(g4
g5
(dp2628
g17
S'Int'
p2629
sg15
S'options'
p2630
sg20
S'Remote options bitmask: 0: unlocked/nocompress, 1: locked/nocompress, 2: unlocked/compress, 4: locked/compress'
p2631
stRp2632
ag3
(g4
g5
(dp2633
g17
S'Text'
p2634
sg15
S'address'
p2635
sg20
S'The P4PORT used by the remote server'
p2636
stRp2637
ag3
(g4
g5
(dp2638
g17
S'Text'
p2639
sg15
S'desc'
p2640
sg20
S'Description of the remote server'
p2641
stRp2642
ag3
(g4
g5
(dp2643
g17
S'Date'
p2644
sg15
S'update'
p2645
sg20
S'The date this specification was last modified'
p2646
stRp2647
ag3
(g4
g5
(dp2648
g17
S'Date'
p2649
sg15
S'access'
p2650
sg20
S'The date of the last push/fetch on this remote'
p2651
stRp2652
ag3
(g4
g5
(dp2653
g17
S'Change'
p2654
sg15
S'fetch'
p2655
sg20
S'The last changelist that was fetched'
p2656
stRp2657
ag3
(g4
g5
(dp2658
g17
S'Change'
p2659
sg15
S'push'
p2660
sg20
S'The last changelist that was pushed'
p2661
stRp2662
ag3
(g4
g5
(dp2663
g17
S'User'
p2664
sg15
S'rmtuser'
p2665
sg20
S'The user to use when connecting to the remote server'
p2666
stRp2667
atRp2668
sg15
S'Remote'
p2669
stRp2670
ag3
(g4
g5
(dp2671
g956
g3
(g8
g9
(lp2672
g3
(g4
g5
(dp2673
g17
S'File'
p2674
sg15
S'file'
p2675
sg20
S'The file name'
p2676
stRp2677
ag3
(g4
g5
(dp2678
g17
S'String'
p2679
sg15
S'rev'
p2680
sg20
S'The librarian revision'
p2681
stRp2682
ag3
(g4
g5
(dp2683
g17
S'FileType'
p2684
sg15
S'type'
p2685
sg20
S'The file type of the revision'
p2686
stRp2687
ag3
(g4
g5
(dp2688
g17
S'PullStatus'
p2689
sg15
S'status'
p2690
sg20
S'The status of the archive transfer'
p2691
stRp2692
ag3
(g4
g5
(dp2693
g17
S'Int'
p2694
sg15
S'who'
p2695
sg20
S'The process / thread id ID of the pull process'
p2696
stRp2697
ag3
(g4
g5
(dp2698
g17
S'Int'
p2699
sg15
S'when'
p2700
sg20
S'The timestamp from when the transfer was scheduled'
p2701
stRp2702
ag3
(g4
g5
(dp2703
g17
S'Action'
p2704
sg15
S'action'
p2705
sg20
S'The action that created the revision'
p2706
stRp2707
ag3
(g4
g5
(dp2708
g17
S'Digest'
p2709
sg15
S'digest'
p2710
sg20
S'The MD5 digest of the revision'
p2711
stRp2712
ag3
(g4
g5
(dp2713
g17
S'FileSize'
p2714
sg15
S'size'
p2715
sg20
S'The size of the file in bytes'
p2716
stRp2717
ag3
(g4
g5
(dp2718
g17
S'Int'
p2719
sg15
S'retries'
p2720
sg20
S'Error retry count'
p2721
stRp2722
ag3
(g4
g5
(dp2723
g17
S'Octet String'
p2724
sg15
S'errmsg'
p2725
sg20
S'Last Error Message'
p2726
stRp2727
ag3
(g4
g5
(dp2728
g17
S'Change'
p2729
sg15
S'change'
p2730
sg20
S'The changelist that created the revision'
p2731
stRp2732
ag3
(g4
g5
(dp2733
g17
S'Date'
p2734
sg15
S'date'
p2735
sg20
S'Librarian date'
p2736
stRp2737
ag3
(g4
g5
(dp2738
g17
S'Date'
p2739
sg15
S'modTime'
p2740
sg20
S'Librarian modtime'
p2741
stRp2742
ag3
(g4
g5
(dp2743
g17
S'Int'
p2744
sg15
S'origin'
p2745
sg20
S'The revision type that this transfer originates from:\n\t\t      1 = db.rev\n\t\t      2 = db.revsh\n\t\t      3 = db.revsx\n\t\t      4 = db.revux\n\t\t      5 = db.object'
p2746
stRp2747
ag3
(g4
g5
(dp2748
g17
S'Text'
p2749
sg15
S'target'
p2750
sg20
S'Edge server to transfer from (reverse replication only)'
p2751
stRp2752
atRp2753
sg15
S'ReplicaArchiveTransfer'
p2754
stRp2755
ag3
(g4
g5
(dp2756
g956
g3
(g8
g9
(lp2757
g3
(g4
g5
(dp2758
g17
S'Key'
p2759
sg15
S'repo'
p2760
sg20
S'Name of the repo'
p2761
stRp2762
ag3
(g4
g5
(dp2763
g17
S'User'
p2764
sg15
S'owner'
p2765
sg20
S'Owner of the repo'
p2766
stRp2767
ag3
(g4
g5
(dp2768
g17
S'Date'
p2769
sg15
S'created'
p2770
sg20
S'Date the repo specification was created'
p2771
stRp2772
ag3
(g4
g5
(dp2773
g17
S'Date'
p2774
sg15
S'pushed'
p2775
sg20
S'Date of the last push to the repo'
p2776
stRp2777
ag3
(g4
g5
(dp2778
g17
S'Key'
p2779
sg15
S'forked'
p2780
sg20
S'Name of the repo from which this repo was forked'
p2781
stRp2782
ag3
(g4
g5
(dp2783
g17
S'Text'
p2784
sg15
S'desc'
p2785
sg20
S'Repo Description'
p2786
stRp2787
ag3
(g4
g5
(dp2788
g17
S'Text'
p2789
sg15
S'branch'
p2790
sg20
S'Default branch to clone from the repo'
p2791
stRp2792
ag3
(g4
g5
(dp2793
g17
S'Text'
p2794
sg15
S'mirror'
p2795
sg20
S'Upstream URL that this repo is mirrored (readonly) from'
p2796
stRp2797
ag3
(g4
g5
(dp2798
g17
S'Int'
p2799
sg15
S'options'
p2800
sg20
S'Repo options: 0 = nolfs, 1 = lfs'
p2801
stRp2802
ag3
(g4
g5
(dp2803
g17
S'Int'
p2804
sg15
S'id'
p2805
sg20
S'Repo index ID'
p2806
stRp2807
ag3
(g4
g5
(dp2808
g17
S'Text'
p2809
sg15
S'gcmrrserver'
p2810
sg20
S'gconn Mirror Server ID'
p2811
stRp2812
atRp2813
sg15
S'Repo'
p2814
stRp2815
ag3
(g4
g5
(dp2816
g956
g3
(g8
g9
(lp2817
g3
(g4
g5
(dp2818
g17
S'File'
p2819
sg15
S'toFile'
p2820
sg20
S'File to which integration is being performed (target).'
p2821
stRp2822
ag3
(g4
g5
(dp2823
g17
S'File'
p2824
sg15
S'fromFile'
p2825
sg20
S'File from which integration is being performed (source).'
p2826
stRp2827
ag3
(g4
g5
(dp2828
g17
S'Rev'
p2829
sg15
S'startFromRev'
p2830
sg20
S'Starting revision of fromFile'
p2831
stRp2832
ag3
(g4
g5
(dp2833
g17
S'Rev'
p2834
sg15
S'endFromRev'
p2835
sg20
S'Ending revision of fromFile'
p2836
stRp2837
ag3
(g4
g5
(dp2838
g17
S'Rev'
p2839
sg15
S'startToRev'
p2840
sg20
S'Start revision of toFile into which integration was \n\t\t    performed.'
p2841
stRp2842
ag3
(g4
g5
(dp2843
g17
S'Rev'
p2844
sg15
S'endToRev'
p2845
sg20
S'End revision of toFile into which integration was \n\t\t    performed. Only varies from startToRev for reverse \n\t\t    integration records.'
p2846
stRp2847
ag3
(g4
g5
(dp2848
g17
S'IntegHow'
p2849
sg15
S'how'
p2850
sg20
S'Integration method: variations on \n\t\t    merge/branch/copy/ignore/delete.'
p2851
stRp2852
ag3
(g4
g5
(dp2853
g17
S'ResolveState'
p2854
sg15
S'state'
p2855
sg20
S'How the user performed the resolve.'
p2856
stRp2857
ag3
(g4
g5
(dp2858
g17
S'File'
p2859
sg15
S'baseFile'
p2860
sg20
S'File used as the base for merging.'
p2861
stRp2862
ag3
(g4
g5
(dp2863
g17
S'Rev'
p2864
sg15
S'baseRev'
p2865
sg20
S'Revision of baseFile used as the merge base.'
p2866
stRp2867
atRp2868
sg15
S'Resolve'
p2869
stRp2870
ag3
(g4
g5
(dp2871
g956
g3
(g8
g9
(lp2872
g3
(g4
g5
(dp2873
g17
S'File'
p2874
sg15
S'toFile'
p2875
sg20
S'ToFile'
p2876
stRp2877
ag3
(g4
g5
(dp2878
g17
S'File'
p2879
sg15
S'fromFile'
p2880
sg20
S'FromFile'
p2881
stRp2882
ag3
(g4
g5
(dp2883
g17
S'SHA1'
p2884
sg15
S'baseSHA'
p2885
sg20
S'Base SHA'
p2886
stRp2887
ag3
(g4
g5
(dp2888
g17
S'SHA1'
p2889
sg15
S'wantsSHA'
p2890
sg20
S'Wants SHA'
p2891
stRp2892
ag3
(g4
g5
(dp2893
g17
S'IntegHow'
p2894
sg15
S'how'
p2895
sg20
S'How'
p2896
stRp2897
ag3
(g4
g5
(dp2898
g17
S'ResolvedStatus'
p2899
sg15
S'state'
p2900
sg20
S'State'
p2901
stRp2902
atRp2903
sg15
S'ResolveG'
p2904
stRp2905
ag3
(g4
g5
(dp2906
g956
g3
(g8
g9
(lp2907
g3
(g4
g5
(dp2908
g17
S'File'
p2909
sg15
S'depotFile'
p2910
sg20
S'The file name'
p2911
stRp2912
ag3
(g4
g5
(dp2913
g17
S'Rev'
p2914
sg15
S'depotRev'
p2915
sg20
S'The revision number'
p2916
stRp2917
ag3
(g4
g5
(dp2918
g17
S'FileType'
p2919
sg15
S'type'
p2920
sg20
S'The file type of the revision'
p2921
stRp2922
ag3
(g4
g5
(dp2923
g17
S'Action'
p2924
sg15
S'action'
p2925
sg20
S'The action that created the revision'
p2926
stRp2927
ag3
(g4
g5
(dp2928
g17
S'Change'
p2929
sg15
S'change'
p2930
sg20
S'The changelist that created the revision'
p2931
stRp2932
ag3
(g4
g5
(dp2933
g17
S'Date'
p2934
sg15
S'date'
p2935
sg20
S'The date/time the changelist that created the revision\n\t\t    was submitted'
p2936
stRp2937
ag3
(g4
g5
(dp2938
g17
S'Date'
p2939
sg15
S'modTime'
p2940
sg20
S"The timestamp on the file in the user's workspace when\n\t\t    the revision was submitted."
p2941
stRp2942
ag3
(g4
g5
(dp2943
g17
S'Digest'
p2944
sg15
S'digest'
p2945
sg20
S'The MD5 digest of the revision.'
p2946
stRp2947
ag3
(g4
g5
(dp2948
g17
S'FileSize'
p2949
sg15
S'size'
p2950
sg20
S'The size of the file in bytes'
p2951
stRp2952
ag3
(g4
g5
(dp2953
g17
S'TraitLot'
p2954
sg15
S'traitLot'
p2955
sg20
S'Group of traits (attributes) associated with the revision.'
p2956
stRp2957
ag3
(g4
g5
(dp2958
g17
S'RevStatus'
p2959
sg15
S'lbrIsLazy'
p2960
sg20
S'Specifies whether or not the revision gets its content from \n\t  \t    another file (lazy copy), data about promotion of revision\n\t \t    content from task streams, and data about revision charset \n            information.'
p2961
stRp2962
ag3
(g4
g5
(dp2963
g17
S'File'
p2964
sg15
S'lbrFile'
p2965
sg20
S"Filename for librarian's purposes.  Specifies location in \n\t\t    the archives where the file containing the revision may\n\t\t    be found. Usually the same as depotFile, but differs in\n\t\t    the case of branched/copied revisions."
p2966
stRp2967
ag3
(g4
g5
(dp2968
g17
S'String'
p2969
sg15
S'lbrRev'
p2970
sg20
S'The revision of lbrFile that contains the revision content.'
p2971
stRp2972
ag3
(g4
g5
(dp2973
g17
S'FileType'
p2974
sg15
S'lbrType'
p2975
sg20
S'The file type of the librarian revision. Usually the same\n\t\t    as type, but differs in the case of branched/copied \n\t\t    revisions.'
p2976
stRp2977
atRp2978
sg15
S'Rev'
p2979
stRp2980
ag3
(g4
g5
(dp2981
g956
g3
(g8
g9
(lp2982
g3
(g4
g5
(dp2983
g17
S'Change'
p2984
sg15
S'change'
p2985
sg20
S'The changelist that created the revision'
p2986
stRp2987
ag3
(g4
g5
(dp2988
g17
S'File'
p2989
sg15
S'depotFile'
p2990
sg20
S'The file name'
p2991
stRp2992
ag3
(g4
g5
(dp2993
g17
S'Rev'
p2994
sg15
S'depotRev'
p2995
sg20
S'The revision number'
p2996
stRp2997
ag3
(g4
g5
(dp2998
g17
S'Action'
p2999
sg15
S'action'
p3000
sg20
S'The action that created the revision'
p3001
stRp3002
atRp3003
sg15
S'RevCx'
p3004
stRp3005
ag3
(g4
g5
(dp3006
g956
g3
(g8
g9
(lp3007
g3
(g4
g5
(dp3008
g17
S'User'
p3009
sg15
S'user'
p3010
sg20
S'A user name'
p3011
stRp3012
ag3
(g4
g5
(dp3013
g17
S'Int'
p3014
sg15
S'seq'
p3015
sg20
S'Sequence number: used for ordering multi-line views'
p3016
stRp3017
ag3
(g4
g5
(dp3018
g17
S'MapFlag'
p3019
sg15
S'mapFlag'
p3020
sg20
S'Type of mapping'
p3021
stRp3022
ag3
(g4
g5
(dp3023
g17
S'Mapping'
p3024
sg15
S'depotFile'
p3025
sg20
S'The files to be reviewed'
p3026
stRp3027
ag3
(g4
g5
(dp3028
g17
S'Reviewer'
p3029
sg15
S'type'
p3030
sg20
S'Type of reviewer'
p3031
stRp3032
atRp3033
sg15
S'Review'
p3034
stRp3035
ag3
(g4
g5
(dp3036
g956
g3
(g8
g9
(lp3037
g3
(g4
g5
(dp3038
g17
S'RemoteID'
p3039
sg15
S'id'
p3040
sg20
S'Remote name'
p3041
stRp3042
ag3
(g4
g5
(dp3043
g17
S'Int'
p3044
sg15
S'seq'
p3045
sg20
S'Sequence number: for ordering multi-line views'
p3046
stRp3047
ag3
(g4
g5
(dp3048
g17
S'MapFlag'
p3049
sg15
S'mapFlag'
p3050
sg20
S'Type of mapping'
p3051
stRp3052
ag3
(g4
g5
(dp3053
g17
S'Mapping'
p3054
sg15
S'localFile'
p3055
sg20
S'Local file'
p3056
stRp3057
ag3
(g4
g5
(dp3058
g17
S'Mapping'
p3059
sg15
S'remoteFile'
p3060
sg20
S'Remote file'
p3061
stRp3062
ag3
(g4
g5
(dp3063
g17
S'Int'
p3064
sg15
S'retain'
p3065
sg20
S'ArchiveLimits'
p3066
stRp3067
atRp3068
sg15
S'RmtView'
p3069
stRp3070
ag3
(g4
g5
(dp3071
g956
g3
(g8
g9
(lp3072
g3
(g4
g5
(dp3073
g17
S'File'
p3074
sg15
S'depotPath'
p3075
sg20
S'name of scanner task'
p3076
stRp3077
ag3
(g4
g5
(dp3078
g17
S'ScanState'
p3079
sg15
S'state'
p3080
sg20
S'scan state'
p3081
stRp3082
ag3
(g4
g5
(dp3083
g17
S'Int'
p3084
sg15
S'seq'
p3085
sg20
S'Next internal sequence number of working directories'
p3086
stRp3087
ag3
(g4
g5
(dp3088
g17
S'Int'
p3089
sg15
S'dirs'
p3090
sg20
S'directories processed'
p3091
stRp3092
ag3
(g4
g5
(dp3093
g17
S'Int'
p3094
sg15
S'files'
p3095
sg20
S'files processed'
p3096
stRp3097
ag3
(g4
g5
(dp3098
g17
S'Int'
p3099
sg15
S'zeros'
p3100
sg20
S'orphaned revisions'
p3101
stRp3102
ag3
(g4
g5
(dp3103
g17
S'Int'
p3104
sg15
S'dirserr'
p3105
sg20
S'directories skipped due to errors'
p3106
stRp3107
ag3
(g4
g5
(dp3108
g17
S'Int'
p3109
sg15
S'pri'
p3110
sg20
S'Priority (unused)'
p3111
stRp3112
ag3
(g4
g5
(dp3113
g17
S'Int'
p3114
sg15
S'reqpause'
p3115
sg20
S'request paused'
p3116
stRp3117
ag3
(g4
g5
(dp3118
g17
S'Text'
p3119
sg15
S'err'
p3120
sg20
S'background process error'
p3121
stRp3122
atRp3123
sg15
S'ScanCtl'
p3124
stRp3125
ag3
(g4
g5
(dp3126
g956
g3
(g8
g9
(lp3127
g3
(g4
g5
(dp3128
g17
S'File'
p3129
sg15
S'lskey'
p3130
sg20
S'library scan key'
p3131
stRp3132
ag3
(g4
g5
(dp3133
g17
S'Int'
p3134
sg15
S'seq'
p3135
sg20
S'The sequence of the work directory'
p3136
stRp3137
ag3
(g4
g5
(dp3138
g17
S'File'
p3139
sg15
S'file'
p3140
sg20
S'The path of the pending work directory'
p3141
stRp3142
atRp3143
sg15
S'ScanDir'
p3144
stRp3145
ag3
(g4
g5
(dp3146
g956
g3
(g8
g9
(lp3147
g3
(g4
g5
(dp3148
g17
S'Int'
p3149
sg15
S'taskid'
p3150
sg20
S'The process id (PID) of the sync'
p3151
stRp3152
ag3
(g4
g5
(dp3153
g17
S'Int'
p3154
sg15
S'seq'
p3155
sg20
S'Sequence number'
p3156
stRp3157
ag3
(g4
g5
(dp3158
g17
S'Text'
p3159
sg15
S'handle'
p3160
sg20
S'Handle'
p3161
stRp3162
ag3
(g4
g5
(dp3163
g17
S'File'
p3164
sg15
S'depotFile'
p3165
sg20
S'The file in the depot'
p3166
stRp3167
ag3
(g4
g5
(dp3168
g17
S'File'
p3169
sg15
S'clientFile'
p3170
sg20
S'The file in its location on the client'
p3171
stRp3172
ag3
(g4
g5
(dp3173
g17
S'Rev'
p3174
sg15
S'haveRev'
p3175
sg20
S'Have revision'
p3176
stRp3177
ag3
(g4
g5
(dp3178
g17
S'FileType'
p3179
sg15
S'type'
p3180
sg20
S'File type'
p3181
stRp3182
ag3
(g4
g5
(dp3183
g17
S'Date'
p3184
sg15
S'modtime'
p3185
sg20
S'Modification time'
p3186
stRp3187
ag3
(g4
g5
(dp3188
g17
S'Digest'
p3189
sg15
S'digest'
p3190
sg20
S'The MD5 digest of the revision'
p3191
stRp3192
ag3
(g4
g5
(dp3193
g17
S'FileSize'
p3194
sg15
S'size'
p3195
sg20
S'The size of the file in bytes'
p3196
stRp3197
ag3
(g4
g5
(dp3198
g17
S'File'
p3199
sg15
S'lbrFile'
p3200
sg20
S'Librarian filename'
p3201
stRp3202
ag3
(g4
g5
(dp3203
g17
S'String'
p3204
sg15
S'lbrRev'
p3205
sg20
S'The librarian revision number'
p3206
stRp3207
ag3
(g4
g5
(dp3208
g17
S'FileType'
p3209
sg15
S'lbrType'
p3210
sg20
S'The file type of the librarian revision'
p3211
stRp3212
ag3
(g4
g5
(dp3213
g17
S'Int'
p3214
sg15
S'flags'
p3215
sg20
S'Miscellaneous flags'
p3216
stRp3217
ag3
(g4
g5
(dp3218
g17
S'FileType'
p3219
sg15
S'clientType'
p3220
sg20
S'The client file type of the revision'
p3221
stRp3222
ag3
(g4
g5
(dp3223
g17
S'Rev'
p3224
sg15
S'depotRev'
p3225
sg20
S'The revision number of depotFile'
p3226
stRp3227
ag3
(g4
g5
(dp3228
g17
S'Change'
p3229
sg15
S'change'
p3230
sg20
S'The changelist that created the depotRev of depotFile'
p3231
stRp3232
ag3
(g4
g5
(dp3233
g17
S'Date'
p3234
sg15
S'date'
p3235
sg20
S'The date/time when the changelist that created depotRev of depotFile was submitted'
p3236
stRp3237
ag3
(g4
g5
(dp3238
g17
S'SHA1'
p3239
sg15
S'blobSha'
p3240
sg20
S'The Blob SHA'
p3241
stRp3242
ag3
(g4
g5
(dp3243
g17
S'Int'
p3244
sg15
S'repoSlot'
p3245
sg20
S'The repo slot (internal repo ordering)'
p3246
stRp3247
ag3
(g4
g5
(dp3248
g17
S'Digest'
p3249
sg15
S'shelveDigest'
p3250
sg20
S'Digest of previous shelved revision'
p3251
stRp3252
atRp3253
sg15
S'SendQ'
p3254
stRp3255
ag3
(g4
g5
(dp3256
g956
g3
(g8
g9
(lp3257
g3
(g4
g5
(dp3258
g17
S'Key'
p3259
sg15
S'id'
p3260
sg20
S'The server identifier'
p3261
stRp3262
ag3
(g4
g5
(dp3263
g17
S'ServerType'
p3264
sg15
S'type'
p3265
sg20
S'The server type: server/broker/proxy'
p3266
stRp3267
ag3
(g4
g5
(dp3268
g17
S'Text'
p3269
sg15
S'name'
p3270
sg20
S'The P4NAME used by this server'
p3271
stRp3272
ag3
(g4
g5
(dp3273
g17
S'Text'
p3274
sg15
S'address'
p3275
sg20
S'The P4PORT used by this server'
p3276
stRp3277
ag3
(g4
g5
(dp3278
g17
S'Text'
p3279
sg15
S'externalAddress'
p3280
sg20
S'For an edge server, this optional field contains its external address for connections from the commit server. This field is required for federated parallel submit.'
p3281
stRp3282
ag3
(g4
g5
(dp3283
g17
S'ServerServiceType'
p3284
sg15
S'services'
p3285
sg20
S'Service provided by this server'
p3286
stRp3287
ag3
(g4
g5
(dp3288
g17
S'Text'
p3289
sg15
S'desc'
p3290
sg20
S'Server description'
p3291
stRp3292
ag3
(g4
g5
(dp3293
g17
S'User'
p3294
sg15
S'user'
p3295
sg20
S'The service user used by this server'
p3296
stRp3297
ag3
(g4
g5
(dp3298
g17
S'ServerOptionsType'
p3299
sg15
S'options'
p3300
sg20
S'Server options'
p3301
stRp3302
ag3
(g4
g5
(dp3303
g17
S'Key'
p3304
sg15
S'rplFrom'
p3305
sg20
S'Replication from Server ID'
p3306
stRp3307
ag3
(g4
g5
(dp3308
g17
S'Text'
p3309
sg15
S'failoverSeen'
p3310
sg20
S'Mark failover as seen'
p3311
stRp3312
atRp3313
sg15
S'Server'
p3314
stRp3315
ag3
(g4
g5
(dp3316
g956
g3
(g8
g9
(lp3317
g3
(g4
g5
(dp3318
g17
S'File'
p3319
sg15
S'file'
p3320
sg20
S'Librarian file'
p3321
stRp3322
ag3
(g4
g5
(dp3323
g17
S'String'
p3324
sg15
S'rev'
p3325
sg20
S'Librarian revision'
p3326
stRp3327
ag3
(g4
g5
(dp3328
g17
S'FileType'
p3329
sg15
S'type'
p3330
sg20
S'The file type of the librarian revision'
p3331
stRp3332
ag3
(g4
g5
(dp3333
g17
S'Int'
p3334
sg15
S'refCount'
p3335
sg20
S'Reference count'
p3336
stRp3337
ag3
(g4
g5
(dp3338
g17
S'Digest'
p3339
sg15
S'digest'
p3340
sg20
S'MD5 of librarian file (ktext collapsed)'
p3341
stRp3342
ag3
(g4
g5
(dp3343
g17
S'FileSize'
p3344
sg15
S'size'
p3345
sg20
S'Size of file'
p3346
stRp3347
ag3
(g4
g5
(dp3348
g17
S'FileSize'
p3349
sg15
S'serverSize'
p3350
sg20
S'Size of librarian file on server at time of submit / shelve operation'
p3351
stRp3352
ag3
(g4
g5
(dp3353
g17
S'Digest'
p3354
sg15
S'compCksum'
p3355
sg20
S'Digest of compressed librarian file'
p3356
stRp3357
ag3
(g4
g5
(dp3358
g17
S'Date'
p3359
sg15
S'date'
p3360
sg20
S'Date of last update to the storage record'
p3361
stRp3362
atRp3363
sg15
S'Storage'
p3364
stRp3365
ag3
(g4
g5
(dp3366
g956
g3
(g8
g9
(lp3367
g3
(g4
g5
(dp3368
g17
S'Key'
p3369
sg15
S'repo'
p3370
sg20
S'Repository name'
p3371
stRp3372
ag3
(g4
g5
(dp3373
g17
S'Key'
p3374
sg15
S'sha'
p3375
sg20
S'Digest of the file in type appropriate format'
p3376
stRp3377
ag3
(g4
g5
(dp3378
g17
S'ObjectType'
p3379
sg15
S'type'
p3380
sg20
S'Type of graph object'
p3381
stRp3382
ag3
(g4
g5
(dp3383
g17
S'Int'
p3384
sg15
S'refCount'
p3385
sg20
S'Reference count'
p3386
stRp3387
ag3
(g4
g5
(dp3388
g17
S'Date'
p3389
sg15
S'date'
p3390
sg20
S'Date of last update to the storage record'
p3391
stRp3392
atRp3393
sg15
S'StorageG'
p3394
stRp3395
ag3
(g4
g5
(dp3396
g956
g3
(g8
g9
(lp3397
g3
(g4
g5
(dp3398
g17
S'Domain'
p3399
sg15
S'client'
p3400
sg20
S'Client the stash refers to'
p3401
stRp3402
ag3
(g4
g5
(dp3403
g17
S'Domain'
p3404
sg15
S'stream'
p3405
sg20
S'Stream the stash refers to'
p3406
stRp3407
ag3
(g4
g5
(dp3408
g17
S'StashType'
p3409
sg15
S'type'
p3410
sg20
S'Stash type'
p3411
stRp3412
ag3
(g4
g5
(dp3413
g17
S'Int'
p3414
sg15
S'seq'
p3415
sg20
S'Sequence number'
p3416
stRp3417
ag3
(g4
g5
(dp3418
g17
S'Change'
p3419
sg15
S'change'
p3420
sg20
S'Stash change number'
p3421
stRp3422
atRp3423
sg15
S'Stash'
p3424
stRp3425
ag3
(g4
g5
(dp3426
g956
g3
(g8
g9
(lp3427
g3
(g4
g5
(dp3428
g17
S'Domain'
p3429
sg15
S'stream'
p3430
sg20
S'Stream name'
p3431
stRp3432
ag3
(g4
g5
(dp3433
g17
S'Domain'
p3434
sg15
S'parent'
p3435
sg20
S'Parent stream name'
p3436
stRp3437
ag3
(g4
g5
(dp3438
g17
S'Text'
p3439
sg15
S'title'
p3440
sg20
S'Stream title (alias for the stream name)'
p3441
stRp3442
ag3
(g4
g5
(dp3443
g17
S'StreamType'
p3444
sg15
S'type'
p3445
sg20
S'The type of stream'
p3446
stRp3447
ag3
(g4
g5
(dp3448
g17
S'Date'
p3449
sg15
S'preview'
p3450
sg20
S'Stream template modification time'
p3451
stRp3452
ag3
(g4
g5
(dp3453
g17
S'Change'
p3454
sg15
S'change'
p3455
sg20
S'Last submit to stream'
p3456
stRp3457
ag3
(g4
g5
(dp3458
g17
S'Change'
p3459
sg15
S'copyChange'
p3460
sg20
S'Parent change at last copy'
p3461
stRp3462
ag3
(g4
g5
(dp3463
g17
S'Change'
p3464
sg15
S'mergeChange'
p3465
sg20
S'Parent change at last merge'
p3466
stRp3467
ag3
(g4
g5
(dp3468
g17
S'Change'
p3469
sg15
S'highChange'
p3470
sg20
S'Highest change at last merge'
p3471
stRp3472
ag3
(g4
g5
(dp3473
g17
S'Int'
p3474
sg15
S'hash'
p3475
sg20
S'Hash value of dynamic branch'
p3476
stRp3477
ag3
(g4
g5
(dp3478
g17
S'StreamStatus'
p3479
sg15
S'status'
p3480
sg20
S'Flow status'
p3481
stRp3482
atRp3483
sg15
S'Stream'
p3484
stRp3485
ag3
(g4
g5
(dp3486
g956
g3
(g8
g9
(lp3487
g3
(g4
g5
(dp3488
g17
S'Key'
p3489
sg15
S'id'
p3490
sg20
S'Server name'
p3491
stRp3492
ag3
(g4
g5
(dp3493
g17
S'SvrViewType'
p3494
sg15
S'type'
p3495
sg20
S'View type'
p3496
stRp3497
ag3
(g4
g5
(dp3498
g17
S'Int'
p3499
sg15
S'seq'
p3500
sg20
S'Sequence (line) number'
p3501
stRp3502
ag3
(g4
g5
(dp3503
g17
S'MapFlag'
p3504
sg15
S'mapFlag'
p3505
sg20
S'Type of mapping'
p3506
stRp3507
ag3
(g4
g5
(dp3508
g17
S'Mapping'
p3509
sg15
S'viewFile'
p3510
sg20
S'View file'
p3511
stRp3512
atRp3513
sg15
S'SvrView'
p3514
stRp3515
ag3
(g4
g5
(dp3516
g956
g3
(g8
g9
(lp3517
g3
(g4
g5
(dp3518
g17
S'Key'
p3519
sg15
S'repo'
p3520
sg20
S'Repository name'
p3521
stRp3522
ag3
(g4
g5
(dp3523
g17
S'Key'
p3524
sg15
S'path'
p3525
sg20
S'Path at which the submodule is linked'
p3526
stRp3527
ag3
(g4
g5
(dp3528
g17
S'Key'
p3529
sg15
S'subrepo'
p3530
sg20
S'Submodule repository name'
p3531
stRp3532
atRp3533
sg15
S'Submodule'
p3534
stRp3535
ag3
(g4
g5
(dp3536
g956
g3
(g8
g9
(lp3537
g3
(g4
g5
(dp3538
g17
S'Domain'
p3539
sg15
S'name'
p3540
sg20
S'Stream name'
p3541
stRp3542
ag3
(g4
g5
(dp3543
g17
S'Change'
p3544
sg15
S'change'
p3545
sg20
S'Versioned at change'
p3546
stRp3547
ag3
(g4
g5
(dp3548
g17
S'Int'
p3549
sg15
S'seq'
p3550
sg20
S'Sequence (line) number'
p3551
stRp3552
ag3
(g4
g5
(dp3553
g17
S'Domain'
p3554
sg15
S'parent'
p3555
sg20
S'Parent stream name'
p3556
stRp3557
ag3
(g4
g5
(dp3558
g17
S'StreamType'
p3559
sg15
S'type'
p3560
sg20
S'Type of stream'
p3561
stRp3562
ag3
(g4
g5
(dp3563
g17
S'StreamPathType'
p3564
sg15
S'path'
p3565
sg20
S'Stream path type'
p3566
stRp3567
ag3
(g4
g5
(dp3568
g17
S'Mapping'
p3569
sg15
S'viewFile'
p3570
sg20
S'View file (left hand side of path)'
p3571
stRp3572
ag3
(g4
g5
(dp3573
g17
S'Mapping'
p3574
sg15
S'depotFile'
p3575
sg20
S'Depot file (right hand side of path)'
p3576
stRp3577
ag3
(g4
g5
(dp3578
g17
S'Value'
p3579
sg15
S'changeMap'
p3580
sg20
S"Stream 'import' path changelist specifier. The changelist\n\t\t\tlimits in effect for a given client are displayed in a\n\t    \tread-only client spec field called 'ChangeView'"
p3581
stRp3582
atRp3583
sg15
S'Template'
p3584
stRp3585
ag3
(g4
g5
(dp3586
g956
g3
(g8
g9
(lp3587
g3
(g4
g5
(dp3588
g17
S'Change'
p3589
sg15
S'shelf'
p3590
sg20
S'Shelf changelist number'
p3591
stRp3592
ag3
(g4
g5
(dp3593
g17
S'Domain'
p3594
sg15
S'name'
p3595
sg20
S'Stream name'
p3596
stRp3597
ag3
(g4
g5
(dp3598
g17
S'Int'
p3599
sg15
S'seq'
p3600
sg20
S'Sequence (line) number'
p3601
stRp3602
ag3
(g4
g5
(dp3603
g17
S'Change'
p3604
sg15
S'change'
p3605
sg20
S'Versioned at change'
p3606
stRp3607
ag3
(g4
g5
(dp3608
g17
S'Domain'
p3609
sg15
S'parent'
p3610
sg20
S'Parent stream name'
p3611
stRp3612
ag3
(g4
g5
(dp3613
g17
S'StreamType'
p3614
sg15
S'type'
p3615
sg20
S'Type of stream'
p3616
stRp3617
ag3
(g4
g5
(dp3618
g17
S'StreamPathType'
p3619
sg15
S'path'
p3620
sg20
S'Stream path type'
p3621
stRp3622
ag3
(g4
g5
(dp3623
g17
S'Mapping'
p3624
sg15
S'viewFile'
p3625
sg20
S'View file (left hand side of path)'
p3626
stRp3627
ag3
(g4
g5
(dp3628
g17
S'Mapping'
p3629
sg15
S'depotFile'
p3630
sg20
S'Depot file (right hand side of path)'
p3631
stRp3632
ag3
(g4
g5
(dp3633
g17
S'Value'
p3634
sg15
S'changeMap'
p3635
sg20
S"Stream 'import' path changelist specifier. The changelist\n\t\t\tlimits in effect for a given client are displayed in a\n\t    \tread-only client spec field called 'ChangeView'"
p3636
stRp3637
ag3
(g4
g5
(dp3638
g17
S'Change'
p3639
sg15
S'changeAtOpen'
p3640
sg20
S'Base change at time of opening'
p3641
stRp3642
atRp3643
sg15
S'TemplateSx'
p3644
stRp3645
ag3
(g4
g5
(dp3646
g956
g3
(g8
g9
(lp3647
g3
(g4
g5
(dp3648
g17
S'Domain'
p3649
sg15
S'client'
p3650
sg20
S'Stream client'
p3651
stRp3652
ag3
(g4
g5
(dp3653
g17
S'Domain'
p3654
sg15
S'name'
p3655
sg20
S'Stream name'
p3656
stRp3657
ag3
(g4
g5
(dp3658
g17
S'Int'
p3659
sg15
S'seq'
p3660
sg20
S'Sequence (line) number'
p3661
stRp3662
ag3
(g4
g5
(dp3663
g17
S'Change'
p3664
sg15
S'change'
p3665
sg20
S'Versioned at change'
p3666
stRp3667
ag3
(g4
g5
(dp3668
g17
S'Domain'
p3669
sg15
S'parent'
p3670
sg20
S'Parent stream name'
p3671
stRp3672
ag3
(g4
g5
(dp3673
g17
S'StreamType'
p3674
sg15
S'type'
p3675
sg20
S'Type of stream'
p3676
stRp3677
ag3
(g4
g5
(dp3678
g17
S'StreamPathType'
p3679
sg15
S'path'
p3680
sg20
S'Stream path type'
p3681
stRp3682
ag3
(g4
g5
(dp3683
g17
S'Mapping'
p3684
sg15
S'viewFile'
p3685
sg20
S'View file (left hand side of path)'
p3686
stRp3687
ag3
(g4
g5
(dp3688
g17
S'Mapping'
p3689
sg15
S'depotFile'
p3690
sg20
S'Depot file (right hand side of path)'
p3691
stRp3692
ag3
(g4
g5
(dp3693
g17
S'Value'
p3694
sg15
S'changeMap'
p3695
sg20
S"Stream 'import' path changelist specifier. The changelist\n\t\t\tlimits in effect for a given client are displayed in a\n\t    \tread-only client spec field called 'ChangeView'"
p3696
stRp3697
ag3
(g4
g5
(dp3698
g17
S'Change'
p3699
sg15
S'changeAtOpen'
p3700
sg20
S'Base change at time of opening'
p3701
stRp3702
atRp3703
sg15
S'TemplateWx'
p3704
stRp3705
ag3
(g4
g5
(dp3706
g956
g3
(g8
g9
(lp3707
g3
(g4
g5
(dp3708
g17
S'User'
p3709
sg15
S'user'
p3710
sg20
S'User the ticket was issued for'
p3711
stRp3712
ag3
(g4
g5
(dp3713
g17
S'Key'
p3714
sg15
S'host'
p3715
sg20
S'Host the ticket was issued for'
p3716
stRp3717
ag3
(g4
g5
(dp3718
g17
S'Password'
p3719
sg15
S'ticket'
p3720
sg20
S"The 'p4 login' ticket for this user"
p3721
stRp3722
ag3
(g4
g5
(dp3723
g17
S'2FAState'
p3724
sg15
S'state'
p3725
sg20
S'The state of 2 Factor Authentication'
p3726
stRp3727
ag3
(g4
g5
(dp3728
g17
S'String'
p3729
sg15
S'token'
p3730
sg20
S'The 2 Factor Authentication token'
p3731
stRp3732
ag3
(g4
g5
(dp3733
g17
S'Date'
p3734
sg15
S'updateDate'
p3735
sg20
S'The date of the last ticket update'
p3736
stRp3737
atRp3738
sg15
S'Ticket'
p3739
stRp3740
ag3
(g4
g5
(dp3741
g956
g3
(g8
g9
(lp3742
g3
(g4
g5
(dp3743
g17
S'Key'
p3744
sg15
S'key'
p3745
sg20
S'The file name and revision'
p3746
stRp3747
ag3
(g4
g5
(dp3748
g17
S'Octet String'
p3749
sg15
S'value'
p3750
sg20
S'The (encoded) file content'
p3751
stRp3752
atRp3753
sg15
S'TinyDb'
p3754
stRp3755
ag3
(g4
g5
(dp3756
g956
g3
(g8
g9
(lp3757
g3
(g4
g5
(dp3758
g17
S'Int'
p3759
sg15
S'traitLot'
p3760
sg20
S'Indicates a specific collection of traits (referred to \n\t\t    externally as "attributes".)'
p3761
stRp3762
ag3
(g4
g5
(dp3763
g17
S'Key'
p3764
sg15
S'name'
p3765
sg20
S'Trait (attribute) name'
p3766
stRp3767
ag3
(g4
g5
(dp3768
g17
S'TraitType'
p3769
sg15
S'type'
p3770
sg20
S'Type of trait'
p3771
stRp3772
ag3
(g4
g5
(dp3773
g17
S'Octet String'
p3774
sg15
S'value'
p3775
sg20
S'The value'
p3776
stRp3777
atRp3778
sg15
S'Trait'
p3779
stRp3780
ag3
(g4
g5
(dp3781
g956
g3
(g8
g9
(lp3782
g3
(g4
g5
(dp3783
g17
S'Int'
p3784
sg15
S'seq'
p3785
sg20
S'Sequence number: for ordering the trigger list'
p3786
stRp3787
ag3
(g4
g5
(dp3788
g17
S'Key'
p3789
sg15
S'name'
p3790
sg20
S'Name of the trigger'
p3791
stRp3792
ag3
(g4
g5
(dp3793
g17
S'MapFlag'
p3794
sg15
S'mapFlag'
p3795
sg20
S'Type of mapping: specifies whether the trigger applies \n\t\t    to the files or not.'
p3796
stRp3797
ag3
(g4
g5
(dp3798
g17
S'Mapping'
p3799
sg15
S'depotFile'
p3800
sg20
S'The files to apply the trigger to'
p3801
stRp3802
ag3
(g4
g5
(dp3803
g17
S'File'
p3804
sg15
S'triggerDepotFile'
p3805
sg20
S'Depot path to the trigger'
p3806
stRp3807
ag3
(g4
g5
(dp3808
g17
S'Trigger'
p3809
sg15
S'trigger'
p3810
sg20
S'Type of trigger'
p3811
stRp3812
ag3
(g4
g5
(dp3813
g17
S'Text'
p3814
sg15
S'action'
p3815
sg20
S'Command to execute when trigger runs'
p3816
stRp3817
atRp3818
sg15
S'Trigger'
p3819
stRp3820
ag3
(g4
g5
(dp3821
g956
g3
(g8
g9
(lp3822
g3
(g4
g5
(dp3823
g17
S'Int'
p3824
sg15
S'seq'
p3825
sg20
S'Sequence'
p3826
stRp3827
ag3
(g4
g5
(dp3828
g17
S'Text'
p3829
sg15
S'name'
p3830
sg20
S'name of upgrade'
p3831
stRp3832
ag3
(g4
g5
(dp3833
g17
S'UpgradeState'
p3834
sg15
S'state'
p3835
sg20
S'current state'
p3836
stRp3837
ag3
(g4
g5
(dp3838
g17
S'Date'
p3839
sg15
S'startdate'
p3840
sg20
S'upgrade started'
p3841
stRp3842
ag3
(g4
g5
(dp3843
g17
S'Date'
p3844
sg15
S'enddate'
p3845
sg20
S'upgrade ended'
p3846
stRp3847
ag3
(g4
g5
(dp3848
g17
S'Text'
p3849
sg15
S'info'
p3850
sg20
S'optional information specific to the upgrade step'
p3851
stRp3852
atRp3853
sg15
S'Upgrades'
p3854
stRp3855
ag3
(g4
g5
(dp3856
g956
g3
(g8
g9
(lp3857
g3
(g4
g5
(dp3858
g17
S'User'
p3859
sg15
S'user'
p3860
sg20
S'The username'
p3861
stRp3862
ag3
(g4
g5
(dp3863
g17
S'Text'
p3864
sg15
S'email'
p3865
sg20
S"The user's email address"
p3866
stRp3867
ag3
(g4
g5
(dp3868
g17
S'Text'
p3869
sg15
S'jobView'
p3870
sg20
S"The user's job view"
p3871
stRp3872
ag3
(g4
g5
(dp3873
g17
S'Date'
p3874
sg15
S'updateDate'
p3875
sg20
S'The date/time the user record was last updated'
p3876
stRp3877
ag3
(g4
g5
(dp3878
g17
S'Date'
p3879
sg15
S'accessDate'
p3880
sg20
S'The date/time the user record was last used'
p3881
stRp3882
ag3
(g4
g5
(dp3883
g17
S'Text'
p3884
sg15
S'fullName'
p3885
sg20
S"The user's full name"
p3886
stRp3887
ag3
(g4
g5
(dp3888
g17
S'Password'
p3889
sg15
S'password'
p3890
sg20
S'The MD5 hash of the users (encrypted) password'
p3891
stRp3892
ag3
(g4
g5
(dp3893
g17
S'Strength'
p3894
sg15
S'strength'
p3895
sg20
S"Measure of the strength of the user's password"
p3896
stRp3897
ag3
(g4
g5
(dp3898
g17
S'Password'
p3899
sg15
S'ticket'
p3900
sg20
S"'p4 login' ticket for this user"
p3901
stRp3902
ag3
(g4
g5
(dp3903
g17
S'Date'
p3904
sg15
S'endDate'
p3905
sg20
S"Date/time the user's ticket expires"
p3906
stRp3907
ag3
(g4
g5
(dp3908
g17
S'UserLevel'
p3909
sg15
S'type'
p3910
sg20
S'Type of user'
p3911
stRp3912
ag3
(g4
g5
(dp3913
g17
S'Date'
p3914
sg15
S'passDate'
p3915
sg20
S'Date password was last changed'
p3916
stRp3917
ag3
(g4
g5
(dp3918
g17
S'Date'
p3919
sg15
S'passExpire'
p3920
sg20
S'Date of password expiration'
p3921
stRp3922
ag3
(g4
g5
(dp3923
g17
S'Date'
p3924
sg15
S'attempts'
p3925
sg20
S'Failed login attempts'
p3926
stRp3927
ag3
(g4
g5
(dp3928
g17
S'UserAuthType'
p3929
sg15
S'auth'
p3930
sg20
S'Authentication method (AuthMethod) for the user'
p3931
stRp3932
atRp3933
sg15
S'User'
p3934
stRp3935
ag3
(g4
g5
(dp3936
g956
g3
(g8
g9
(lp3937
g3
(g4
g5
(dp3938
g17
S'Domain'
p3939
sg15
S'name'
p3940
sg20
S'Domain name to which this view applies'
p3941
stRp3942
ag3
(g4
g5
(dp3943
g17
S'Int'
p3944
sg15
S'seq'
p3945
sg20
S'Sequence number: for ordering multi-line views'
p3946
stRp3947
ag3
(g4
g5
(dp3948
g17
S'MapFlag'
p3949
sg15
S'mapFlag'
p3950
sg20
S'Type of mapping'
p3951
stRp3952
ag3
(g4
g5
(dp3953
g17
S'Mapping'
p3954
sg15
S'viewFile'
p3955
sg20
S"The right-hand-side of the view. For clients, this is\n\t\t    the client-side, for labels it's the generated label \n\t\t    view. For branches, it's the target side of the branch\n\t\t    view."
p3956
stRp3957
ag3
(g4
g5
(dp3958
g17
S'Mapping'
p3959
sg15
S'depotFile'
p3960
sg20
S'The left-hand-side of the view - a mapping to file(s)\n\t\t    in the depot.'
p3961
stRp3962
atRp3963
sg15
S'View'
p3964
stRp3965
ag3
(g4
g5
(dp3966
g956
g3
(g8
g9
(lp3967
g3
(g4
g5
(dp3968
g17
S'File'
p3969
sg15
S'clientFile'
p3970
sg20
S'File on the client'
p3971
stRp3972
ag3
(g4
g5
(dp3973
g17
S'File'
p3974
sg15
S'depotFile'
p3975
sg20
S'File in the depot'
p3976
stRp3977
ag3
(g4
g5
(dp3978
g17
S'Domain'
p3979
sg15
S'client'
p3980
sg20
S'The client the file is opened on'
p3981
stRp3982
ag3
(g4
g5
(dp3983
g17
S'User'
p3984
sg15
S'user'
p3985
sg20
S'The user who has the file opened'
p3986
stRp3987
ag3
(g4
g5
(dp3988
g17
S'Rev'
p3989
sg15
S'haveRev'
p3990
sg20
S"Revision presently in user's client workspace"
p3991
stRp3992
ag3
(g4
g5
(dp3993
g17
S'Rev'
p3994
sg15
S'workRev'
p3995
sg20
S'Working revision; normally identical to the haveRev'
p3996
stRp3997
ag3
(g4
g5
(dp3998
g17
S'Int'
p3999
sg15
S'isVirtual'
p4000
sg20
S'Flag: if 1, file was opened with "p4 integ -v".'
p4001
stRp4002
ag3
(g4
g5
(dp4003
g17
S'FileType'
p4004
sg15
S'type'
p4005
sg20
S'File type'
p4006
stRp4007
ag3
(g4
g5
(dp4008
g17
S'Action'
p4009
sg15
S'action'
p4010
sg20
S"What the user's doing with the file"
p4011
stRp4012
ag3
(g4
g5
(dp4013
g17
S'Change'
p4014
sg15
S'change'
p4015
sg20
S'Associated changelist, or zero for the default changelist.'
p4016
stRp4017
ag3
(g4
g5
(dp4018
g17
S'Date'
p4019
sg15
S'modTime'
p4020
sg20
S"Modification timestamp on the file in the user's workspace."
p4021
stRp4022
ag3
(g4
g5
(dp4023
g17
S'Int'
p4024
sg15
S'isLocked'
p4025
sg20
S'Flag: 0 for unlocked, 1 for locked.'
p4026
stRp4027
ag3
(g4
g5
(dp4028
g17
S'Digest'
p4029
sg15
S'digest'
p4030
sg20
S'MD5 digest of working file.'
p4031
stRp4032
ag3
(g4
g5
(dp4033
g17
S'FileSize'
p4034
sg15
S'size'
p4035
sg20
S'File size'
p4036
stRp4037
ag3
(g4
g5
(dp4038
g17
S'TraitLot'
p4039
sg15
S'traitLot'
p4040
sg20
S'Group of traits associated with file revision.'
p4041
stRp4042
ag3
(g4
g5
(dp4043
g17
S'TamperCheck'
p4044
sg15
S'tampered'
p4045
sg20
S'Flag indicating the tamper-state of the file in the\n\t\t    workspace.'
p4046
stRp4047
ag3
(g4
g5
(dp4048
g17
S'FileType'
p4049
sg15
S'clientType'
p4050
sg20
S'Type of the file in the client workspace.'
p4051
stRp4052
ag3
(g4
g5
(dp4053
g17
S'File'
p4054
sg15
S'movedFile'
p4055
sg20
S'Moved from filename'
p4056
stRp4057
ag3
(g4
g5
(dp4058
g17
S'WorkStatus'
p4059
sg15
S'status'
p4060
sg20
S'Working status'
p4061
stRp4062
atRp4063
sg15
S'Working'
p4064
stRp4065
ag3
(g4
g5
(dp4066
g956
g3
(g8
g9
(lp4067
g3
(g4
g5
(dp4068
g17
S'File'
p4069
sg15
S'clientFile'
p4070
sg20
S'File on the client'
p4071
stRp4072
ag3
(g4
g5
(dp4073
g17
S'File'
p4074
sg15
S'depotFile'
p4075
sg20
S'File in the depot'
p4076
stRp4077
ag3
(g4
g5
(dp4078
g17
S'Domain'
p4079
sg15
S'client'
p4080
sg20
S'The client on which the file is opened'
p4081
stRp4082
ag3
(g4
g5
(dp4083
g17
S'User'
p4084
sg15
S'user'
p4085
sg20
S'The user who has the file opened'
p4086
stRp4087
ag3
(g4
g5
(dp4088
g17
S'Rev'
p4089
sg15
S'haveRev'
p4090
sg20
S"Revision presently in user's client workspace"
p4091
stRp4092
ag3
(g4
g5
(dp4093
g17
S'Rev'
p4094
sg15
S'workRev'
p4095
sg20
S'Working revision; normally identical to the haveRev'
p4096
stRp4097
ag3
(g4
g5
(dp4098
g17
S'Int'
p4099
sg15
S'isVirtual'
p4100
sg20
S'Flag: if 1, file was opened with "p4 integ -v".'
p4101
stRp4102
ag3
(g4
g5
(dp4103
g17
S'FileType'
p4104
sg15
S'type'
p4105
sg20
S'File type'
p4106
stRp4107
ag3
(g4
g5
(dp4108
g17
S'Action'
p4109
sg15
S'action'
p4110
sg20
S"What the user's doing with the file"
p4111
stRp4112
ag3
(g4
g5
(dp4113
g17
S'Change'
p4114
sg15
S'change'
p4115
sg20
S'Associated changelist, or zero for the default changelist.'
p4116
stRp4117
ag3
(g4
g5
(dp4118
g17
S'Date'
p4119
sg15
S'modTime'
p4120
sg20
S"Modification timestamp on the file in the user's workspace."
p4121
stRp4122
ag3
(g4
g5
(dp4123
g17
S'Int'
p4124
sg15
S'isLocked'
p4125
sg20
S'Flag: 0 for unlocked, 1 for locked.'
p4126
stRp4127
ag3
(g4
g5
(dp4128
g17
S'Digest'
p4129
sg15
S'digest'
p4130
sg20
S'MD5 digest of working file.'
p4131
stRp4132
ag3
(g4
g5
(dp4133
g17
S'FileSize'
p4134
sg15
S'size'
p4135
sg20
S'File size'
p4136
stRp4137
ag3
(g4
g5
(dp4138
g17
S'TraitLot'
p4139
sg15
S'traitLot'
p4140
sg20
S'Group of traits associated with file revision.'
p4141
stRp4142
ag3
(g4
g5
(dp4143
g17
S'TamperCheck'
p4144
sg15
S'tampered'
p4145
sg20
S'Flag indicating the tamper-state of the file in the\n\t\t    workspace.'
p4146
stRp4147
ag3
(g4
g5
(dp4148
g17
S'FileType'
p4149
sg15
S'clientType'
p4150
sg20
S'Type of the file in the client workspace.'
p4151
stRp4152
ag3
(g4
g5
(dp4153
g17
S'File'
p4154
sg15
S'movedFile'
p4155
sg20
S'Moved from filename'
p4156
stRp4157
ag3
(g4
g5
(dp4158
g17
S'WorkStatus'
p4159
sg15
S'status'
p4160
sg20
S'Working status'
p4161
stRp4162
ag3
(g4
g5
(dp4163
g17
S'SHA1'
p4164
sg15
S'blobSha'
p4165
sg20
S'Blob SHA'
p4166
stRp4167
ag3
(g4
g5
(dp4168
g17
S'Key'
p4169
sg15
S'repo'
p4170
sg20
S'Repository name'
p4171
stRp4172
atRp4173
sg15
S'WorkingG'
p4174
stRp4175
atRp4176
stRp4177
sS'upgrades'
p4178
g3
(g4
g5
(dp4179
S'upgrade'
p4180
g3
(g8
g9
(lp4181
g3
(g4
g5
(dp4182
g721
S'2001.1'
p4183
sg723
S'1'
sg20
S'Split db.integ into db.integed and db.resolve'
p4184
stRp4185
ag3
(g4
g5
(dp4186
g721
S'2001.1'
p4187
sg723
S'2'
sg20
S'Split db.have into db.have and db.label'
p4188
stRp4189
ag3
(g4
g5
(dp4190
g721
S'2002.1'
p4191
sg723
S'3'
sg20
S'Split db.change into db.change and db.changex'
p4192
stRp4193
ag3
(g4
g5
(dp4194
g721
S'2002.2'
p4195
sg723
S'4'
sg20
S'Upgrade tempobj filetype in db.rev'
p4196
stRp4197
ag3
(g4
g5
(dp4198
g721
S'2002.2'
p4199
sg723
S'5'
sg20
S'Upgrade tempobj filetype in db.working'
p4200
stRp4201
ag3
(g4
g5
(dp4202
g721
S'2003.1'
p4203
sg723
S'6'
sg20
S'JnlInitialize default depot'
p4204
stRp4205
ag3
(g4
g5
(dp4206
g721
S'2003.2'
p4207
sg723
S'7'
sg20
S'Upgrade db.user'
p4208
stRp4209
ag3
(g4
g5
(dp4210
g721
S'2005.1'
p4211
sg723
S'8'
sg20
S'Build db.revhx (headrev) table'
p4212
stRp4213
ag3
(g4
g5
(dp4214
g721
S'2005.1'
p4215
sg723
S'9'
sg20
S'Rebuild db.locks from db.working'
p4216
stRp4217
ag3
(g4
g5
(dp4218
g721
S'2005.1'
p4219
sg723
S'10'
p4220
sg301
S'Removed in 2006.2'
p4221
sg20
S'Build lazy-copy index (db.archive)'
p4222
stRp4223
ag3
(g4
g5
(dp4224
g721
S'2005.2'
p4225
sg723
S'11'
p4226
sg20
S'Build db.revdx (delrev) table'
p4227
stRp4228
ag3
(g4
g5
(dp4229
g721
S'2005.2'
p4230
sg723
S'12'
p4231
sg301
S'Moved to 16 in 2007.3'
p4232
sg20
S'Build haveMap from db.have/db.working'
p4233
stRp4234
ag3
(g4
g5
(dp4235
g721
S'2005.2'
p4236
sg723
S'13'
p4237
sg20
S'Move spec depot entries into db.revsx'
p4238
stRp4239
ag3
(g4
g5
(dp4240
g721
S'2006.2'
p4241
sg723
S'14'
p4242
sg301
S'Moved to 17 in 2007.3'
p4243
sg20
S'Build db.archmap (lazy-copy map) table'
p4244
stRp4245
ag3
(g4
g5
(dp4246
g721
S'2006.2'
p4247
sg723
S'15'
p4248
sg301
S'Moved to 18 in 2007.3'
p4249
sg20
S'Remove (obsolete) db.archive table'
p4250
stRp4251
ag3
(g4
g5
(dp4252
g721
S'2007.3'
p4253
sg723
S'16'
p4254
sg301
S'Rewritten in 2007.3'
p4255
sg20
S'Build/Rebuild haveMap from db.have/db.working'
p4256
stRp4257
ag3
(g4
g5
(dp4258
g721
S'2007.3'
p4259
sg723
S'17'
p4260
sg301
S'Removed in 2019.1'
p4261
sg20
S'Build/Rebuild db.archmap (lazy-copy map) table'
p4262
stRp4263
ag3
(g4
g5
(dp4264
g721
S'2007.3'
p4265
sg723
S'18'
p4266
sg301
S'Moved from 15 in 2007.3'
p4267
sg20
S'Remove (obsolete) db.archive table'
p4268
stRp4269
ag3
(g4
g5
(dp4270
g721
S'2008.1'
p4271
sg723
S'19'
p4272
sg20
S'Build db.change common path'
p4273
stRp4274
ag3
(g4
g5
(dp4275
g721
S'2009.2'
p4276
sg723
S'20'
p4277
sg20
S'Move db.boddate/db.ixdate into db.bodtext/db.ixtext'
p4278
stRp4279
ag3
(g4
g5
(dp4280
g721
S'2009.2'
p4281
sg723
S'21'
p4282
sg20
S'Remove db.boddate/db.ixdate'
p4283
stRp4284
ag3
(g4
g5
(dp4285
g721
S'2010.2'
p4286
sg723
S'22'
p4287
sg20
S'Move system counters into db.config'
p4288
stRp4289
ag3
(g4
g5
(dp4290
g721
S'2011.1'
p4291
sg723
S'23'
p4292
sg20
S'Upgrade tiny.db'
p4293
stRp4294
ag3
(g4
g5
(dp4295
g721
S'2015.2'
p4296
sg723
S'24'
p4297
sg20
S'Move LDAP specs into db.ldap'
p4298
stRp4299
ag3
(g4
g5
(dp4300
g721
S'2016.1'
p4301
sg723
S'25'
p4302
sg20
S'Create db.templatesx and db.templatewx'
p4303
stRp4304
ag3
(g4
g5
(dp4305
g721
S'2016.2'
p4306
sg723
S'26'
p4307
sg20
S'JnlInitialize graph depot'
p4308
stRp4309
ag3
(g4
g5
(dp4310
g721
S'2017.1'
p4311
sg723
S'27'
p4312
sg20
S'Rename repo specifications, build owner graph permissions, remove db.repoview'
p4313
stRp4314
ag3
(g4
g5
(dp4315
g721
S'2017.2'
p4316
sg723
S'28'
p4317
sg20
S'No upgrades - upgrade counter value increment only'
p4318
stRp4319
ag3
(g4
g5
(dp4320
g721
S'2018.1'
p4321
sg723
S'29'
p4322
sg301
S'remove db.graphindex'
p4323
sg20
S'Remove existing db.graphindex'
p4324
stRp4325
ag3
(g4
g5
(dp4326
g721
S'2018.2'
p4327
sg723
S'30'
p4328
sg20
S'JnlInitialize Extensions depot and server.extensions.dir'
p4329
stRp4330
ag3
(g4
g5
(dp4331
g721
S'2018.2'
p4332
sg723
S'31'
p4333
sg20
S'Normalize a field in the triggers table'
p4334
stRp4335
ag3
(g4
g5
(dp4336
g721
S'2019.1'
p4337
sg723
S'32'
p4338
sg20
S'Build db.storage from db.rev, db.revsh and db.revtx, remove db.archmap'
p4339
stRp4340
ag3
(g4
g5
(dp4341
g721
S'2019.1'
p4342
sg723
S'33'
p4343
sg20
S'Add default namespace to Extension configurations'
p4344
stRp4345
ag3
(g4
g5
(dp4346
g721
S'2019.2'
p4347
sg723
S'34'
p4348
sg20
S'Upgrade git-connector server specs'
p4349
stRp4350
ag3
(g4
g5
(dp4351
g721
S'2019.2'
p4352
sg723
S'35'
p4353
sg20
S'Correct configurationVersion server names'
p4354
stRp4355
atRp4356
stRp4357
sS'datatypes'
p4358
g3
(g4
g5
(dp4359
S'datatype'
p4360
g3
(g8
g9
(lp4361
g3
(g4
g5
(dp4362
S'values'
p4363
g3
(g8
g9
(lp4364
g3
(g4
g5
(dp4365
S'mask'
p4366
S'Scheme Flags'
p4367
sS'value'
p4368
S'0x0001'
p4369
sg20
S'otp-generated; one-time password generated'
p4370
stRp4371
ag3
(g4
g5
(dp4372
g4366
S'Scheme Flags'
p4373
sg4368
S'0x0002'
p4374
sg20
S'otp-requested; one-time password requested'
p4375
stRp4376
ag3
(g4
g5
(dp4377
g4366
S'Scheme Flags'
p4378
sg4368
S'0x0003'
p4379
sg20
S'challenge; challenge/response'
p4380
stRp4381
ag3
(g4
g5
(dp4382
g4366
S'Scheme Flags'
p4383
sg4368
S'0x0004'
p4384
sg20
S'external; 3rd-party prompting'
p4385
stRp4386
ag3
(g4
g5
(dp4387
g4366
S'Status Flags'
p4388
sg4368
S'0x0100'
p4389
sg20
S'authenticated; host is authenticated'
p4390
stRp4391
ag3
(g4
g5
(dp4392
g4366
S'Status Flags'
p4393
sg4368
S'0x0200'
p4394
sg20
S'persisted; 2FA persists for this host'
p4395
stRp4396
ag3
(g4
g5
(dp4397
g4366
S'Status Flags'
p4398
sg4368
S'0x0400'
p4399
sg20
S'forced; superuser skipped the checks'
p4400
stRp4401
ag3
(g4
g5
(dp4402
g4366
S'Status Flags'
p4403
sg4368
S'0x0800'
p4404
sg20
S'skipped; 2FA was not required'
p4405
stRp4406
ag3
(g4
g5
(dp4407
g4366
S'Status Flags'
p4408
sg4368
S'0x1000'
p4409
sg20
S'waiting; waiting on 2FA service'
p4410
stRp4411
ag3
(g4
g5
(dp4412
g4366
S'Status Flags'
p4413
sg4368
S'0x2000'
p4414
sg20
S'token-requested; OTP requested from 2FA service'
p4415
stRp4416
ag3
(g4
g5
(dp4417
g4366
S'Status Flags'
p4418
sg4368
S'0x4000'
p4419
sg20
S'required; 2FA required'
p4420
stRp4421
ag3
(g4
g5
(dp4422
g4366
S'Status Flags'
p4423
sg4368
S'0x8000'
p4424
sg20
S'rejected; external 2FA was rejected'
p4425
stRp4426
atRp4427
sg15
S'2FAState'
p4428
sg4366
g3
(g8
g9
(lp4429
g3
(g4
g5
(dp4430
g15
S'Scheme Flags'
p4431
sg4368
S'0xFF'
p4432
sg20
S'Bits used to store second factor authentication scheme'
p4433
stRp4434
ag3
(g4
g5
(dp4435
g15
S'Status Flags'
p4436
sg4368
S'None'
p4437
sg20
S'Bits used to store second factor authentication status'
p4438
stRp4439
atRp4440
sS'summary'
p4441
S'Second Factor Authentication State'
p4442
sg17
S'bitmask'
p4443
sg20
S'Second factor authentication scheme and status'
p4444
stRp4445
ag3
(g4
g5
(dp4446
g17
S'flag'
p4447
sg4441
S'Type of action'
p4448
sg4363
g3
(g8
g9
(lp4449
g3
(g4
g5
(dp4450
g4368
S'0'
sg20
S'add; user adds a file'
p4451
stRp4452
ag3
(g4
g5
(dp4453
g4368
S'1'
sg20
S'edit; user edits a file'
p4454
stRp4455
ag3
(g4
g5
(dp4456
g4368
S'2'
sg20
S'delete; user deletes a file'
p4457
stRp4458
ag3
(g4
g5
(dp4459
g4368
S'3'
sg20
S'branch; add via integration'
p4460
stRp4461
ag3
(g4
g5
(dp4462
g4368
S'4'
sg20
S'integ; edit via integration'
p4463
stRp4464
ag3
(g4
g5
(dp4465
g4368
S'5'
sg20
S'import; add via remote depot'
p4466
stRp4467
ag3
(g4
g5
(dp4468
g4368
S'6'
sg20
S'purge; purged revision, no longer available'
p4469
stRp4470
ag3
(g4
g5
(dp4471
g4368
S'7'
sg20
S'movefrom; move from another filename'
p4472
stRp4473
ag3
(g4
g5
(dp4474
g4368
S'8'
sg20
S'moveto; move to another filename'
p4475
stRp4476
ag3
(g4
g5
(dp4477
g4368
S'9'
sg20
S'archive; stored in archive depot'
p4478
stRp4479
atRp4480
sg15
S'Action'
p4481
sg20
S'Revisions are produced by user actions. The Action\n\t\ttype defines the available actions and their internal values.'
p4482
stRp4483
ag3
(g4
g5
(dp4484
g4441
S'A changelist number'
p4485
sg17
S'integer'
p4486
sg15
S'Change'
p4487
sg20
S'The number of a changelist. The number 0 represents the\n\t\tdefault pending changelist.'
p4488
stRp4489
ag3
(g4
g5
(dp4490
g4363
g3
(g8
g9
(lp4491
g3
(g4
g5
(dp4492
g4366
S'Change Status Flags'
p4493
sg4368
S'0x0001'
p4494
sg20
S'committed'
p4495
stRp4496
ag3
(g4
g5
(dp4497
g4366
S'Change Status Flags'
p4498
sg4368
S'0x0002'
p4499
sg20
S'shelved'
p4500
stRp4501
ag3
(g4
g5
(dp4502
g4366
S'Change Status Flags'
p4503
sg4368
S'0x0004'
p4504
sg20
S'restricted'
p4505
stRp4506
ag3
(g4
g5
(dp4507
g4366
S'Change Status Flags'
p4508
sg4368
S'0x0008'
p4509
sg20
S'hidden'
p4510
stRp4511
ag3
(g4
g5
(dp4512
g4366
S'Change Status Flags'
p4513
sg4368
S'0x0010'
p4514
sg20
S'elsewhere'
p4515
stRp4516
ag3
(g4
g5
(dp4517
g4366
S'Change Status Flags'
p4518
sg4368
S'0x0012'
p4519
sg20
S'promoted - elsewhere, shelved'
p4520
stRp4521
ag3
(g4
g5
(dp4522
g4366
S'Change Status Flags'
p4523
sg4368
S'0x0020'
p4524
sg20
S'unsubmitted'
p4525
stRp4526
ag3
(g4
g5
(dp4527
g4366
S'Change Status Flags'
p4528
sg4368
S'0x0040'
p4529
sg20
S'hasgraph'
p4530
stRp4531
atRp4532
sg15
S'ChangeStatus'
p4533
sg4366
g3
(g4
g5
(dp4534
g15
S'Change Status Flags'
p4535
sg4368
S'0x7F'
p4536
sg20
S'Bits used to store change status flags'
p4537
stRp4538
sg4441
S'The status of a change'
p4539
sg17
S'flag'
p4540
sg20
S'A bit mask representing the status of a change'
p4541
stRp4542
ag3
(g4
g5
(dp4543
g4441
S'A counter name'
p4544
sg17
S'string'
p4545
sg15
S'Counter'
p4546
sg20
S'A string representing the counter name. Counter names must \n\t\tcontain no spaces, contain no slashes, and be identifiers \n\t\t(cannot begin with a dash and cannot be all-numeric)'
p4547
stRp4548
ag3
(g4
g5
(dp4549
g4441
S'A unix-style date and time'
p4550
sg17
S'integer'
p4551
sg15
S'Date'
p4552
sg20
S'A date and time represented as the number of seconds since \n\t\tthe Epoch: 01 January 1970 00:00:00 UTC. This is the same \n\t\tconvention as that used on Unix platforms.'
p4553
stRp4554
ag3
(g4
g5
(dp4555
g17
S'flag'
p4556
sg4441
S'Type of Depot'
p4557
sg4363
g3
(g8
g9
(lp4558
g3
(g4
g5
(dp4559
g4368
S'0'
sg20
S'local depot'
p4560
stRp4561
ag3
(g4
g5
(dp4562
g4368
S'1'
sg20
S'remote depot'
p4563
stRp4564
ag3
(g4
g5
(dp4565
g4368
S'2'
sg20
S'spec depot'
p4566
stRp4567
ag3
(g4
g5
(dp4568
g4368
S'3'
sg20
S'stream depot'
p4569
stRp4570
ag3
(g4
g5
(dp4571
g4368
S'4'
sg20
S'archive depot'
p4572
stRp4573
ag3
(g4
g5
(dp4574
g4368
S'5'
sg20
S'unload depot'
p4575
stRp4576
ag3
(g4
g5
(dp4577
g4368
S'6'
sg20
S'tangent depot'
p4578
stRp4579
ag3
(g4
g5
(dp4580
g4368
S'7'
sg20
S'graph depot'
p4581
stRp4582
ag3
(g4
g5
(dp4583
g4368
S'8'
sg20
S'extension'
p4584
stRp4585
atRp4586
sg15
S'DepotType'
p4587
sg20
S'The type of a given depot'
p4588
stRp4589
ag3
(g4
g5
(dp4590
g4441
S'A short string value'
p4591
sg20
S'The first 31 characters of a Text string'
p4592
sg17
S'string'
p4593
sg15
S'DescShort'
p4594
sg245
S'Text'
p4595
stRp4596
ag3
(g4
g5
(dp4597
g4441
S'An MD5 digest'
p4598
sg17
S'string'
p4599
sg15
S'Digest'
p4600
sg20
S'A string containing an MD5 digest.'
p4601
stRp4602
ag3
(g4
g5
(dp4603
g4441
S'A domain name'
p4604
sg17
S'string'
p4605
sg15
S'Domain'
p4606
sg20
S'A string representing the name of a depot, label, client,\n\t\tbranch, typemap, or stream.'
p4607
stRp4608
ag3
(g4
g5
(dp4609
g4441
S'A string with optional wildcards'
p4610
sg17
S'string'
p4611
sg15
S'DomainWild'
p4612
sg20
S'A string that may contain wildcards - usually an IP address\n\t\tin the protections table.'
p4613
stRp4614
ag3
(g4
g5
(dp4615
g4363
g3
(g8
g9
(lp4616
g3
(g4
g5
(dp4617
g4366
S'Domain Flags'
p4618
sg4368
S'0x0001'
p4619
sg20
S'modtime'
p4620
stRp4621
ag3
(g4
g5
(dp4622
g4366
S'Domain Flags'
p4623
sg4368
S'0x0002'
p4624
sg20
S'clobber'
p4625
stRp4626
ag3
(g4
g5
(dp4627
g4366
S'Domain Flags'
p4628
sg4368
S'0x0004'
p4629
sg20
S'allwrite'
p4630
stRp4631
ag3
(g4
g5
(dp4632
g4366
S'Domain Flags'
p4633
sg4368
S'0x0008'
p4634
sg20
S'locked'
p4635
stRp4636
ag3
(g4
g5
(dp4637
g4366
S'Domain Flags'
p4638
sg4368
S'0x0020'
p4639
sg20
S'compress'
p4640
stRp4641
ag3
(g4
g5
(dp4642
g4366
S'Domain Flags'
p4643
sg4368
S'0x0040'
p4644
sg20
S'rmdir'
p4645
stRp4646
ag3
(g4
g5
(dp4647
g4366
S'Domain Flags'
p4648
sg4368
S'0x1000'
p4649
sg20
S'indirect (obsolete since 2004.2)'
p4650
stRp4651
ag3
(g4
g5
(dp4652
g4366
S'Domain Flags'
p4653
sg4368
S'0x8000'
p4654
sg20
S'autoreload'
p4655
stRp4656
ag3
(g4
g5
(dp4657
g4366
S'Domain ClientType'
p4658
sg4368
S'0x00000'
p4659
sg20
S'client is writeable'
p4660
stRp4661
ag3
(g4
g5
(dp4662
g4366
S'Domain ClientType'
p4663
sg4368
S'0x10000'
p4664
sg20
S'client is readonly'
p4665
stRp4666
ag3
(g4
g5
(dp4667
g4366
S'Domain ClientType'
p4668
sg4368
S'0x20000'
p4669
sg20
S'client is nobackup'
p4670
stRp4671
ag3
(g4
g5
(dp4672
g4366
S'Domain ClientType'
p4673
sg4368
S'0x110000'
p4674
sg20
S'client is partitioned'
p4675
stRp4676
ag3
(g4
g5
(dp4677
g4366
S'Domain LineEnd'
p4678
sg4368
S'0x0000'
p4679
sg20
S'local'
p4680
stRp4681
ag3
(g4
g5
(dp4682
g4366
S'Domain LineEnd'
p4683
sg4368
S'0x0010'
p4684
sg20
S'unix (LF)'
p4685
stRp4686
ag3
(g4
g5
(dp4687
g4366
S'Domain LineEnd'
p4688
sg4368
S'0x0200'
p4689
sg20
S'mac (CR)'
p4690
stRp4691
ag3
(g4
g5
(dp4692
g4366
S'Domain LineEnd'
p4693
sg4368
S'0x0300'
p4694
sg20
S'win (CRLF)'
p4695
stRp4696
ag3
(g4
g5
(dp4697
g4366
S'Domain LineEnd'
p4698
sg4368
S'0x0400'
p4699
sg20
S'share (LF/CRLF)'
p4700
stRp4701
ag3
(g4
g5
(dp4702
g4366
S'Domain SubmitMask'
p4703
sg4368
S'0x1000'
p4704
sg20
S'Revert unchanged files'
p4705
stRp4706
ag3
(g4
g5
(dp4707
g4366
S'Domain SubmitMask'
p4708
sg4368
S'0x2000'
p4709
sg20
S'Leave unchanged files'
p4710
stRp4711
ag3
(g4
g5
(dp4712
g4366
S'Domain SubmitMask'
p4713
sg4368
S'0x4000'
p4714
sg20
S'Submit, and re-open unchanged files'
p4715
stRp4716
ag3
(g4
g5
(dp4717
g4366
S'Domain StreamMask'
p4718
sg4368
S'0x0001'
p4719
sg20
S'allsubmit or ownersubmit'
p4720
stRp4721
ag3
(g4
g5
(dp4722
g4366
S'Domain StreamMask'
p4723
sg4368
S'0x0002'
p4724
sg20
S'locked or unlocked'
p4725
stRp4726
ag3
(g4
g5
(dp4727
g4366
S'Domain StreamMask'
p4728
sg4368
S'0x0004'
p4729
sg20
S'change flows to parent'
p4730
stRp4731
ag3
(g4
g5
(dp4732
g4366
S'Domain StreamMask'
p4733
sg4368
S'0x0008'
p4734
sg20
S'change flows from parent'
p4735
stRp4736
ag3
(g4
g5
(dp4737
g4366
S'Domain StreamMask'
p4738
sg4368
S'0x0010'
p4739
sg20
S'mergeany or mergedown'
p4740
stRp4741
atRp4742
sg15
S'DomainOpts'
p4743
sg4366
g3
(g8
g9
(lp4744
g3
(g4
g5
(dp4745
g15
S'Domain Flags'
p4746
sg4368
S'0x10EF'
p4747
sg20
S'Bits used to store client, label, and branch options'
p4748
stRp4749
ag3
(g4
g5
(dp4750
g15
S'Domain ClientType'
p4751
sg4368
S'0x190000'
p4752
sg20
S'Bits used to store client type and backup status'
p4753
stRp4754
ag3
(g4
g5
(dp4755
g15
S'Domain LineEnd'
p4756
sg4368
S'0x0710'
p4757
sg20
S'Bits used to store client line termination settings'
p4758
stRp4759
ag3
(g4
g5
(dp4760
g15
S'Domain SubmitMask'
p4761
sg4368
S'0x7000'
p4762
sg20
S'Bits used to store client submit options'
p4763
stRp4764
ag3
(g4
g5
(dp4765
g15
S'Domain StreamMask'
p4766
sg4368
S'0x000C'
p4767
sg20
S'Bits used to store stream options'
p4768
stRp4769
atRp4770
sg4441
S'Options for domains'
p4771
sg17
S'bitmask'
p4772
sg20
S'A integer value representing the options for a domain'
p4773
stRp4774
ag3
(g4
g5
(dp4775
g17
S'flag'
p4776
sg4441
S'A domain type'
p4777
sg4363
g3
(g8
g9
(lp4778
g3
(g4
g5
(dp4779
g4368
S"67 (ASCII 'C')"
p4780
sg20
S'unloaded client'
p4781
stRp4782
ag3
(g4
g5
(dp4783
g4368
S"76 (ASCII 'L')"
p4784
sg20
S'unloaded label'
p4785
stRp4786
ag3
(g4
g5
(dp4787
g4368
S"83 (ASCII 'S')"
p4788
sg20
S'unloaded task stream'
p4789
stRp4790
ag3
(g4
g5
(dp4791
g4368
S"98 (ASCII 'b')"
p4792
sg20
S'branch'
p4793
stRp4794
ag3
(g4
g5
(dp4795
g4368
S"99 (ASCII 'c')"
p4796
sg20
S'client'
p4797
stRp4798
ag3
(g4
g5
(dp4799
g4368
S"100 (ASCII 'd')"
p4800
sg20
S'depot'
p4801
stRp4802
ag3
(g4
g5
(dp4803
g4368
S"108 (ASCII 'l')"
p4804
sg20
S'label'
p4805
stRp4806
ag3
(g4
g5
(dp4807
g4368
S"115 (ASCII 's')"
p4808
sg20
S'stream'
p4809
stRp4810
ag3
(g4
g5
(dp4811
g4368
S"116 (ASCII 't')"
p4812
sg20
S'typemap'
p4813
stRp4814
atRp4815
sg15
S'DomainType'
p4816
sg20
S'A integer value representing the type of a domain'
p4817
stRp4818
ag3
(g4
g5
(dp4819
g4441
S'A file name'
p4820
sg20
S'A string representing the filename'
p4821
sg17
S'string'
p4822
sg15
S'File'
p4823
sg245
S'FileType'
p4824
stRp4825
ag3
(g4
g5
(dp4826
g4441
S'A file size'
p4827
sg17
S'integer'
p4828
sg15
S'FileSize'
p4829
sg20
S'A 64-bit integer used to store file sizes. The value -1 is\n\t\tused to represent unknown file sizes.'
p4830
stRp4831
ag3
(g4
g5
(dp4832
g4363
g3
(g8
g9
(lp4833
g3
(g4
g5
(dp4834
g4366
S'Storage Type'
p4835
sg4368
S'0x0000'
p4836
sg20
S'RCS'
p4837
stRp4838
ag3
(g4
g5
(dp4839
g4366
S'Storage Type'
p4840
sg4368
S'0x0001'
p4841
sg20
S'Binary'
p4842
stRp4843
ag3
(g4
g5
(dp4844
g4366
S'Storage Type'
p4845
sg4368
S'0x0002'
p4846
sg20
S'Tiny'
p4847
stRp4848
ag3
(g4
g5
(dp4849
g4366
S'Storage Type'
p4850
sg4368
S'0x0003'
p4851
sg20
S'Compressed'
p4852
stRp4853
ag3
(g4
g5
(dp4854
g4366
S'Storage Type'
p4855
sg4368
S'0x0004'
p4856
sg20
S'tempobj (deprecated since 2002.1)'
p4857
stRp4858
ag3
(g4
g5
(dp4859
g4366
S'Storage Type'
p4860
sg4368
S'0x0005'
p4861
sg20
S'Detect type. Used internally when no type is\n\t\t    given by the user.'
p4862
stRp4863
ag3
(g4
g5
(dp4864
g4366
S'Storage Type'
p4865
sg4368
S'0x0006'
p4866
sg20
S'Compressed tempobj (deprecated since 2002.1)'
p4867
stRp4868
ag3
(g4
g5
(dp4869
g4366
S'Storage Type'
p4870
sg4368
S'0x0007'
p4871
sg20
S'Binary access to compressed data. Used internally.'
p4872
stRp4873
ag3
(g4
g5
(dp4874
g4366
S'Storage Type'
p4875
sg4368
S'0x0008'
p4876
sg20
S'Stored externally via librarian trigger'
p4877
stRp4878
ag3
(g4
g5
(dp4879
g4366
S'Storage Mods'
p4880
sg4368
S'0x0010'
p4881
sg20
S'99.2-style keyword expansion/contraction'
p4882
stRp4883
ag3
(g4
g5
(dp4884
g4366
S'Storage Mods'
p4885
sg4368
S'0x0020'
p4886
sg20
S'2000.1-style keyword expansion/contraction'
p4887
stRp4888
ag3
(g4
g5
(dp4889
g4366
S'Storage Mods'
p4890
sg4368
S'0x0030'
p4891
sg20
S'Any type of keyword expansion'
p4892
stRp4893
ag3
(g4
g5
(dp4894
g4366
S'Storage Mods'
p4895
sg4368
S'0x0040'
p4896
sg20
S'Exclusive open'
p4897
stRp4898
ag3
(g4
g5
(dp4899
g4366
S'Storage Mods'
p4900
sg4368
S'0x0080'
p4901
sg20
S'New tempobj (+S modifier)'
p4902
stRp4903
ag3
(g4
g5
(dp4904
g4366
S'Tempobj revisions'
p4905
sg4368
S'0x0000'
p4906
sg20
S'+S1'
p4907
stRp4908
ag3
(g4
g5
(dp4909
g4366
S'Tempobj revisions'
p4910
sg4368
S'0x0100'
p4911
sg20
S'+S2'
p4912
stRp4913
ag3
(g4
g5
(dp4914
g4366
S'Tempobj revisions'
p4915
sg4368
S'0x0200'
p4916
sg20
S'+S3'
p4917
stRp4918
ag3
(g4
g5
(dp4919
g4366
S'Tempobj revisions'
p4920
sg4368
S'0x0300'
p4921
sg20
S'+S4'
p4922
stRp4923
ag3
(g4
g5
(dp4924
g4366
S'Tempobj revisions'
p4925
sg4368
S'0x0400'
p4926
sg20
S'+S5'
p4927
stRp4928
ag3
(g4
g5
(dp4929
g4366
S'Tempobj revisions'
p4930
sg4368
S'0x0500'
p4931
sg20
S'+S6'
p4932
stRp4933
ag3
(g4
g5
(dp4934
g4366
S'Tempobj revisions'
p4935
sg4368
S'0x0600'
p4936
sg20
S'+S7'
p4937
stRp4938
ag3
(g4
g5
(dp4939
g4366
S'Tempobj revisions'
p4940
sg4368
S'0x0700'
p4941
sg20
S'+S8'
p4942
stRp4943
ag3
(g4
g5
(dp4944
g4366
S'Tempobj revisions'
p4945
sg4368
S'0x0800'
p4946
sg20
S'+S9'
p4947
stRp4948
ag3
(g4
g5
(dp4949
g4366
S'Tempobj revisions'
p4950
sg4368
S'0x0900'
p4951
sg20
S'+S10'
p4952
stRp4953
ag3
(g4
g5
(dp4954
g4366
S'Tempobj revisions'
p4955
sg4368
S'0x0A00'
p4956
sg20
S'+S16'
p4957
stRp4958
ag3
(g4
g5
(dp4959
g4366
S'Tempobj revisions'
p4960
sg4368
S'0x0B00'
p4961
sg20
S'+S32'
p4962
stRp4963
ag3
(g4
g5
(dp4964
g4366
S'Tempobj revisions'
p4965
sg4368
S'0x0C00'
p4966
sg20
S'+S64'
p4967
stRp4968
ag3
(g4
g5
(dp4969
g4366
S'Tempobj revisions'
p4970
sg4368
S'0x0D00'
p4971
sg20
S'+S128'
p4972
stRp4973
ag3
(g4
g5
(dp4974
g4366
S'Tempobj revisions'
p4975
sg4368
S'0x0E00'
p4976
sg20
S'+S256'
p4977
stRp4978
ag3
(g4
g5
(dp4979
g4366
S'Tempobj revisions'
p4980
sg4368
S'0x0F00'
p4981
sg20
S'+S512'
p4982
stRp4983
ag3
(g4
g5
(dp4984
g4366
S'Client Type'
p4985
sg4368
S'0x0000000'
p4986
sg20
S'text'
p4987
stRp4988
ag3
(g4
g5
(dp4989
g4366
S'Client Type'
p4990
sg4368
S'0x0010000'
p4991
sg20
S'binary'
p4992
stRp4993
ag3
(g4
g5
(dp4994
g4366
S'Client Type'
p4995
sg4368
S'0x0020000'
p4996
sg20
S'executable bit set'
p4997
stRp4998
ag3
(g4
g5
(dp4999
g4366
S'Client Type'
p5000
sg4368
S'0x0040000'
p5001
sg20
S'symlink'
p5002
stRp5003
ag3
(g4
g5
(dp5004
g4366
S'Client Type'
p5005
sg4368
S'0x0050000'
p5006
sg20
S'resource fork'
p5007
stRp5008
ag3
(g4
g5
(dp5009
g4366
S'Client Type'
p5010
sg4368
S'0x0080000'
p5011
sg20
S'unicode'
p5012
stRp5013
ag3
(g4
g5
(dp5014
g4366
S'Client Type'
p5015
sg4368
S'0x0090000'
p5016
sg20
S'raw text (nocrlf - 99.1)'
p5017
stRp5018
ag3
(g4
g5
(dp5019
g4366
S'Client Type'
p5020
sg4368
S'0x00C0000'
p5021
sg20
S'apple data + resource file (since 2000.2)'
p5022
stRp5023
ag3
(g4
g5
(dp5024
g4366
S'Client Type'
p5025
sg4368
S'0x00D0000'
p5026
sg20
S'apple data + resource file (99.2)'
p5027
stRp5028
ag3
(g4
g5
(dp5029
g4366
S'Client Type'
p5030
sg4368
S'0x1000000'
p5031
sg20
S'Used to support filetype detection'
p5032
stRp5033
ag3
(g4
g5
(dp5034
g4366
S'Client Mods'
p5035
sg4368
S'0x0100000'
p5036
sg20
S'writable'
p5037
stRp5038
ag3
(g4
g5
(dp5039
g4366
S'Client Mods'
p5040
sg4368
S'0x0200000'
p5041
sg20
S'modtime'
p5042
stRp5043
ag3
(g4
g5
(dp5044
g4366
S'Client Mods'
p5045
sg4368
S'0x0400000'
p5046
sg20
S'uncompress on client'
p5047
stRp5048
atRp5049
sg15
S'FileType'
p5050
sg4366
g3
(g8
g9
(lp5051
g3
(g4
g5
(dp5052
g15
S'Storage Type'
p5053
sg4368
S'0x000F'
p5054
sg20
S"Bits used to store the server's storage type"
p5055
stRp5056
ag3
(g4
g5
(dp5057
g15
S'Storage Mods'
p5058
sg4368
S'0x00F0'
p5059
sg20
S"Bits used to store the modifiers to the server's storage \n\t\t    type"
p5060
stRp5061
ag3
(g4
g5
(dp5062
g15
S'Tempobj revisions'
p5063
sg4368
S'0x0F00'
p5064
sg20
S'Bits used to store the number of revisions to be stored\n\t\t    for +Sn files.'
p5065
stRp5066
ag3
(g4
g5
(dp5067
g15
S'Client Type'
p5068
sg4368
S'0x10D0000'
p5069
sg20
S"Bits used to store the file type from the client's point\n\t\t    of view."
p5070
stRp5071
ag3
(g4
g5
(dp5072
g15
S'Client Mods'
p5073
sg4368
S'0x720000'
p5074
sg20
S'Bits used to store the modifiers applied to the file\n\t\t    on the client.'
p5075
stRp5076
atRp5077
sg4441
S'Type of file'
p5078
sg17
S'bitmask'
p5079
sg20
S'The FileType is a bitmask specifying the type and modifiers\n\t\tof a revision from both the client and server points of view.\n\t\tThe first 16 bits are used to store the storage type and \n\t\tmodifiers, the next 16 bits are used to store the client \n\t\taccess method and modifiers.'
p5080
stRp5081
ag3
(g4
g5
(dp5082
g4441
S'Status of a fixed job'
p5083
sg17
S'string'
p5084
sg15
S'FixStatus'
p5085
sg20
S'This type is a wrapper around the \'Text\' type that handles\n\t\tthe pre-2000.1 "closed" default value.'
p5086
stRp5087
ag3
(g4
g5
(dp5088
g17
S'flag'
p5089
sg4441
S'Type of Graph Permission'
p5090
sg4363
g3
(g8
g9
(lp5091
g3
(g4
g5
(dp5092
g4368
S'0'
sg20
S'none'
p5093
stRp5094
ag3
(g4
g5
(dp5095
g4368
S'1'
sg20
S'read'
p5096
stRp5097
ag3
(g4
g5
(dp5098
g4368
S'2'
sg20
S'write-ref'
p5099
stRp5100
ag3
(g4
g5
(dp5101
g4368
S'4'
sg20
S'write-all'
p5102
stRp5103
ag3
(g4
g5
(dp5104
g4368
S'8'
sg20
S'create-repo'
p5105
stRp5106
ag3
(g4
g5
(dp5107
g4368
S'16'
p5108
sg20
S'delete-repo'
p5109
stRp5110
ag3
(g4
g5
(dp5111
g4368
S'32'
p5112
sg20
S'create-ref'
p5113
stRp5114
ag3
(g4
g5
(dp5115
g4368
S'64'
p5116
sg20
S'delete-ref'
p5117
stRp5118
ag3
(g4
g5
(dp5119
g4368
S'128'
p5120
sg20
S'force-push'
p5121
stRp5122
ag3
(g4
g5
(dp5123
g4368
S'256'
p5124
sg20
S'admin'
p5125
stRp5126
ag3
(g4
g5
(dp5127
g4368
S'4096'
p5128
sg20
S'restricted-ref'
p5129
stRp5130
atRp5131
sg15
S'GraphPermType'
p5132
sg20
S'The type of a graph depot permission'
p5133
stRp5134
ag3
(g4
g5
(dp5135
g4441
S'A 32-bit integer'
p5136
sg17
S'integer'
p5137
sg15
S'Int'
p5138
sg20
S'A 32-bit integer'
p5139
stRp5140
ag3
(g4
g5
(dp5141
g4441
S'An 8-bit integer'
p5142
sg17
S'integer'
p5143
sg15
S'Int8'
p5144
sg20
S'An 8-bit integer: an unsigned char'
p5145
stRp5146
ag3
(g4
g5
(dp5147
g4441
S'A 64-bit integer'
p5148
sg17
S'integer'
p5149
sg15
S'Int64'
p5150
sg20
S'A 64-bit integer.'
p5151
stRp5152
ag3
(g4
g5
(dp5153
g301
S'All integration records should have a corresponding \n\t\treverse record. The \'branch from\' (2) and \'merge from\' (0) \n\t\trecords have corresponding "dirty" reverse records for cases \n\t\twhere the target file took more than one change or was \n\t\t(re)opened for \'edit\' or \'add\'.'
p5154
sg4363
g3
(g8
g9
(lp5155
g3
(g4
g5
(dp5156
g4368
S'0'
sg20
S'merge from: integration with other changes'
p5157
stRp5158
ag3
(g4
g5
(dp5159
g4368
S'1'
sg20
S'merge into: reverse merge'
p5160
stRp5161
ag3
(g4
g5
(dp5162
g4368
S'2'
sg20
S'branch from: integration was branch of file'
p5163
stRp5164
ag3
(g4
g5
(dp5165
g4368
S'3'
sg20
S'branch into: reverse branch'
p5166
stRp5167
ag3
(g4
g5
(dp5168
g4368
S'4'
sg20
S'copy from: integration took source file whole'
p5169
stRp5170
ag3
(g4
g5
(dp5171
g4368
S'5'
sg20
S'copy into: reverse take'
p5172
stRp5173
ag3
(g4
g5
(dp5174
g4368
S'6'
sg20
S'ignored: integration ignored source changes'
p5175
stRp5176
ag3
(g4
g5
(dp5177
g4368
S'7'
sg20
S'ignored by: reverse copy'
p5178
stRp5179
ag3
(g4
g5
(dp5180
g4368
S'8'
sg20
S'delete from: integration of delete'
p5181
stRp5182
ag3
(g4
g5
(dp5183
g4368
S'9'
sg20
S'delete into: reverse delete'
p5184
stRp5185
ag3
(g4
g5
(dp5186
g4368
S'10'
p5187
sg20
S'edit into: reverse of integration downgraded to \n\t\t    edit'
p5188
stRp5189
ag3
(g4
g5
(dp5190
g4368
S'11'
p5191
sg20
S'add into: reverse of branch downgraded to add'
p5192
stRp5193
ag3
(g4
g5
(dp5194
g4368
S'12'
p5195
sg20
S'edit from: merge that the user edited'
p5196
stRp5197
ag3
(g4
g5
(dp5198
g4368
S'13'
p5199
sg20
S'add from: branch downgraded to add'
p5200
stRp5201
ag3
(g4
g5
(dp5202
g4368
S'14'
p5203
sg20
S'moved from: reverse of renamed file'
p5204
stRp5205
ag3
(g4
g5
(dp5206
g4368
S'15'
p5207
sg20
S'moved into: file was renamed'
p5208
stRp5209
ag3
(g4
g5
(dp5210
g4368
S'16'
p5211
sg20
S"'delete' target rev ignoring non-deleted source"
p5212
stRp5213
ag3
(g4
g5
(dp5214
g4368
S'17'
p5215
sg20
S"non-deleted source ignored by 'delete' target rev"
p5216
stRp5217
ag3
(g4
g5
(dp5218
g4368
S'18'
p5219
sg20
S"'integrate' target rev ignoring deleted source"
p5220
stRp5221
ag3
(g4
g5
(dp5222
g4368
S'19'
p5223
sg20
S"deleted source ignored by 'integrate' target rev"
p5224
stRp5225
ag3
(g4
g5
(dp5226
g4368
S'20'
p5227
sg20
S'deleted branch: branch from'
p5228
stRp5229
ag3
(g4
g5
(dp5230
g4368
S'21'
p5231
sg20
S'deleted branch: delete into'
p5232
stRp5233
ag3
(g4
g5
(dp5234
g4368
S'22'
p5235
sg20
S'undo: opposite of merge'
p5236
stRp5237
ag3
(g4
g5
(dp5238
g4368
S'23'
p5239
sg20
S'undo reverse'
p5240
stRp5241
ag3
(g4
g5
(dp5242
g4368
S'24'
p5243
sg20
S'move undo: move + undo as one record'
p5244
stRp5245
ag3
(g4
g5
(dp5246
g4368
S'25'
p5247
sg20
S'move undo reverse'
p5248
stRp5249
atRp5250
sg15
S'IntegHow'
p5251
sg4441
S'Integration methods'
p5252
sg17
S'flag'
p5253
sg20
S"Specifies how an integration was performed. Integrations\n\t\talways come in pairs: the 'forward' and 'reverse' records.\n\t\tAs a general rule, the forward records contain the word \n\t\t'from'; and the reverse records contain the word 'into'."
p5254
stRp5255
ag3
(g4
g5
(dp5256
g17
S'flag'
p5257
sg4441
S'Job status - defunct'
p5258
sg4363
g3
(g8
g9
(lp5259
g3
(g4
g5
(dp5260
g4368
S'0'
sg20
S'open'
p5261
stRp5262
ag3
(g4
g5
(dp5263
g4368
S'1'
sg20
S'closed'
p5264
stRp5265
ag3
(g4
g5
(dp5266
g4368
S'2'
sg20
S'suspended'
p5267
stRp5268
atRp5269
sg15
S'JobStat'
p5270
sg20
S'Old (pre-98.2) job status values.'
p5271
stRp5272
ag3
(g4
g5
(dp5273
g17
S'flag'
p5274
sg4441
S'"Journal Copy State"'
p5275
sg4363
g3
(g8
g9
(lp5276
g3
(g4
g5
(dp5277
g15
S'DurableOnly'
p5278
sg4368
S'1'
sg20
S'Durable Only'
p5279
stRp5280
ag3
(g4
g5
(dp5281
g15
S'NonAcknowledging'
p5282
sg4368
S'2'
sg20
S'Non Acknowledging'
p5283
stRp5284
ag3
(g4
g5
(dp5285
g15
S'JournalWait'
p5286
sg4368
S'4'
sg20
S'Journal Wait'
p5287
stRp5288
atRp5289
sg15
S'JournalCopyFlags'
p5290
sg20
S'Used to maintain Journal Copy State'
p5291
stRp5292
ag3
(g4
g5
(dp5293
g4441
S'A key name'
p5294
sg20
S'A string representing the key name. Key names must \n\t\tcontain no spaces, contain no slashes, and be identifiers \n\t\t(cannot begin with a dash and cannot be all-numeric)'
p5295
sg17
S'string'
p5296
sg15
S'Key'
p5297
sg245
S'String'
p5298
stRp5299
ag3
(g4
g5
(dp5300
g17
S'flag'
p5301
sg4441
S'Types of mapping'
p5302
sg4363
g3
(g8
g9
(lp5303
g3
(g4
g5
(dp5304
g4368
S'0'
sg20
S'mapped-in (the default)'
p5305
stRp5306
ag3
(g4
g5
(dp5307
g4368
S'1'
sg20
S"mapped-out (mappings that start with '-')"
p5308
stRp5309
ag3
(g4
g5
(dp5310
g4368
S'2'
sg20
S"overlay (mappings that start with '+')"
p5311
stRp5312
ag3
(g4
g5
(dp5313
g4368
S'3'
sg20
S"haveMap (mappings that start with '$'). Used internally\n\t\t    only"
p5314
stRp5315
ag3
(g4
g5
(dp5316
g4368
S'4'
sg20
S"changeMap (mappings that start with '@')"
p5317
stRp5318
atRp5319
sg15
S'MapFlag'
p5320
sg20
S'Specifies how the files specified by a mapping should be\n\t\ttreated'
p5321
stRp5322
ag3
(g4
g5
(dp5323
g4441
S'A string representing a mapping'
p5324
sg17
S'string'
p5325
sg15
S'Mapping'
p5326
sg20
S'A Mapping is essentially a file name that may contain\n\t\twildcards'
p5327
stRp5328
ag3
(g4
g5
(dp5329
g4441
S'Maximum number of milliseconds to hold locks'
p5330
sg17
S'integer'
p5331
sg15
S'MaxLockTime'
p5332
sg20
S"The number of milliseconds for which a command may hold locks.\n\t\tCommands that take longer than this time period will abort. \n\t\tThe value 0 means 'unlimited'."
p5333
stRp5334
ag3
(g4
g5
(dp5335
g4441
S'Maximum number of results permitted'
p5336
sg17
S'integer'
p5337
sg15
S'MaxResults'
p5338
sg20
S"The number of results that commands run by the restricted\n\t\tuser are permitted to return. The value 0 means 'unlimited'."
p5339
stRp5340
ag3
(g4
g5
(dp5341
g4441
S'Maximum number of records scanned'
p5342
sg17
S'integer'
p5343
sg15
S'MaxScanRows'
p5344
sg20
S"The maximum number of records that the server may read\n\t\ton behalf of the restricted user. The value 0 means \n\t\t'unlimited'."
p5345
stRp5346
ag3
(g4
g5
(dp5347
g17
S'flag'
p5348
sg4441
S'Object type'
p5349
sg4363
g3
(g8
g9
(lp5350
g3
(g4
g5
(dp5351
g4368
S'0'
sg20
S'commit'
p5352
stRp5353
ag3
(g4
g5
(dp5354
g4368
S'1'
sg20
S'tree'
p5355
stRp5356
ag3
(g4
g5
(dp5357
g4368
S'2'
sg20
S'tag'
p5358
stRp5359
ag3
(g4
g5
(dp5360
g4368
S'3'
sg20
S'null'
p5361
stRp5362
atRp5363
sg15
S'ObjectType'
p5364
sg20
S'Object type'
p5365
stRp5366
ag3
(g4
g5
(dp5367
g4441
S'Encoded hex string'
p5368
sg17
S'string'
p5369
sg15
S'Octet String'
p5370
sg20
S'A variable length encoded hex string. The first octet \n\t\tstores the length of the string.'
p5371
stRp5372
ag3
(g4
g5
(dp5373
g4441
S'The MD5 hash of a password'
p5374
sg17
S'string'
p5375
sg15
S'Password'
p5376
sg20
S'The MD5 hash of an encrypted password.'
p5377
stRp5378
ag3
(g4
g5
(dp5379
g4363
g3
(g8
g9
(lp5380
g3
(g4
g5
(dp5381
g4366
S'PermTypeBits'
p5382
sg15
S'None'
p5383
sg4368
S'0x0000'
p5384
sg20
S'none'
p5385
stRp5386
ag3
(g4
g5
(dp5387
g4366
S'PermTypeBits'
p5388
sg15
S'List'
p5389
sg4368
S'0x0001'
p5390
sg20
S'Grants list access'
p5391
stRp5392
ag3
(g4
g5
(dp5393
g4366
S'PermTypeBits'
p5394
sg15
S'Read'
p5395
sg4368
S'0x0002'
p5396
sg20
S'Grants read access'
p5397
stRp5398
ag3
(g4
g5
(dp5399
g4366
S'PermTypeBits'
p5400
sg15
S'Branch'
p5401
sg4368
S'0x0004'
p5402
sg20
S'Grants ability to branch/integ from'
p5403
stRp5404
ag3
(g4
g5
(dp5405
g4366
S'PermTypeBits'
p5406
sg15
S'Open'
p5407
sg4368
S'0x0008'
p5408
sg20
S'Grants open access'
p5409
stRp5410
ag3
(g4
g5
(dp5411
g4366
S'PermTypeBits'
p5412
sg15
S'Write'
p5413
sg4368
S'0x0010'
p5414
sg20
S'Grants write access'
p5415
stRp5416
ag3
(g4
g5
(dp5417
g4366
S'PermTypeBits'
p5418
sg15
S'Review'
p5419
sg4368
S'0x0020'
p5420
sg20
S'Grants review access'
p5421
stRp5422
ag3
(g4
g5
(dp5423
g4366
S'PermTypeBits'
p5424
sg15
S'Admin'
p5425
sg4368
S'0x0080'
p5426
sg20
S'Grants admin access'
p5427
stRp5428
ag3
(g4
g5
(dp5429
g4366
S'PermTypeBits'
p5430
sg15
S'Super'
p5431
sg4368
S'0x0040'
p5432
sg20
S'Grants super-user access'
p5433
stRp5434
ag3
(g4
g5
(dp5435
g4366
S'PermTypeBits'
p5436
sg15
S'Owner'
p5437
sg4368
S'0x0100'
p5438
sg20
S'Grants owner access'
p5439
stRp5440
atRp5441
sg15
S'Perm'
p5442
sg4366
g3
(g4
g5
(dp5443
g15
S'PermTypeBits'
p5444
sg4368
S'0x00FF'
p5445
sg20
S'Bits used to store granted permissions'
p5446
stRp5447
sg4441
S'Bitmask of permissions'
p5448
sg17
S'bitmask'
p5449
sg20
S'A bitmask of granted permissions'
p5450
stRp5451
ag3
(g4
g5
(dp5452
g17
S'flag'
p5453
sg4441
S'Archive pull transfer status'
p5454
sg4363
g3
(g8
g9
(lp5455
g3
(g4
g5
(dp5456
g15
S'new'
p5457
sg4368
S'new'
p5458
sg20
S'new transfer'
p5459
stRp5460
ag3
(g4
g5
(dp5461
g15
S'active'
p5462
sg4368
S'active'
p5463
sg20
S'active transfer'
p5464
stRp5465
ag3
(g4
g5
(dp5466
g15
S'done'
p5467
sg4368
S'done'
p5468
sg20
S'completed transfer'
p5469
stRp5470
ag3
(g4
g5
(dp5471
g15
S'error'
p5472
sg4368
S'error'
p5473
sg20
S'errored transfer'
p5474
stRp5475
ag3
(g4
g5
(dp5476
g15
S'restart'
p5477
sg4368
S'restart'
p5478
sg20
S'restarted transfer'
p5479
stRp5480
ag3
(g4
g5
(dp5481
g15
S'cancelled'
p5482
sg4368
S'cancelled'
p5483
sg20
S'cancelled transfer'
p5484
stRp5485
atRp5486
sg15
S'PullStatus'
p5487
sg20
S'The status of an archive pull transfer'
p5488
stRp5489
ag3
(g4
g5
(dp5490
g17
S'flag'
p5491
sg4441
S'Reference action'
p5492
sg4363
g3
(g8
g9
(lp5493
g3
(g4
g5
(dp5494
g4368
S'0'
sg20
S'create'
p5495
stRp5496
ag3
(g4
g5
(dp5497
g4368
S'1'
sg20
S'update'
p5498
stRp5499
ag3
(g4
g5
(dp5500
g4368
S'2'
sg20
S'force'
p5501
stRp5502
ag3
(g4
g5
(dp5503
g4368
S'3'
sg20
S'delete'
p5504
stRp5505
atRp5506
sg15
S'RefAction'
p5507
sg20
S'A reference action'
p5508
stRp5509
ag3
(g4
g5
(dp5510
g17
S'flag'
p5511
sg4441
S'A reference type'
p5512
sg4363
g3
(g8
g9
(lp5513
g3
(g4
g5
(dp5514
g4368
S'0'
sg20
S'Branch reference'
p5515
stRp5516
ag3
(g4
g5
(dp5517
g4368
S'1'
sg20
S'Remote reference'
p5518
stRp5519
ag3
(g4
g5
(dp5520
g4368
S'2'
sg20
S'Tag reference'
p5521
stRp5522
ag3
(g4
g5
(dp5523
g4368
S'3'
sg20
S'Workspace branch reference. Pseudo-reference, used by workspaces that access git files'
p5524
stRp5525
ag3
(g4
g5
(dp5526
g4368
S'4'
sg20
S'Workspace have reference. Pseudo-reference, used by workspaces that access git files'
p5527
stRp5528
ag3
(g4
g5
(dp5529
g4368
S'5'
sg20
S'Other reference'
p5530
stRp5531
atRp5532
sg15
S'RefType'
p5533
sg20
S'The type of reference'
p5534
stRp5535
ag3
(g4
g5
(dp5536
g4441
S'A remote name'
p5537
sg17
S'string'
p5538
sg15
S'RemoteID'
p5539
sg20
S'A string representing the name of a remote spec'
p5540
stRp5541
ag3
(g4
g5
(dp5542
g17
S'flag'
p5543
sg4441
S'Resolve actions'
p5544
sg4363
g3
(g8
g9
(lp5545
g3
(g4
g5
(dp5546
g4368
S'0'
sg20
S'Content resolve'
p5547
stRp5548
ag3
(g4
g5
(dp5549
g4368
S'1'
sg20
S'Filetype resolve'
p5550
stRp5551
ag3
(g4
g5
(dp5552
g4368
S'2'
sg20
S'Branch resolve'
p5553
stRp5554
ag3
(g4
g5
(dp5555
g4368
S'3'
sg20
S'Delete resolve'
p5556
stRp5557
ag3
(g4
g5
(dp5558
g4368
S'4'
sg20
S'Move resolve'
p5559
stRp5560
ag3
(g4
g5
(dp5561
g4368
S'5'
sg20
S'Attribute resolve'
p5562
stRp5563
ag3
(g4
g5
(dp5564
g4368
S'6'
sg20
S'Charset resolve'
p5565
stRp5566
atRp5567
sg15
S'ResolveState'
p5568
sg20
S'Pending or completed resolve actions.'
p5569
stRp5570
ag3
(g4
g5
(dp5571
g17
S'flag'
p5572
sg4441
S'Resolve methods (obsolete in 2011.1, replaced by ResolveState)'
p5573
sg4363
g3
(g8
g9
(lp5574
g3
(g4
g5
(dp5575
g4368
S'0'
sg20
S'Not yet resolved'
p5576
stRp5577
ag3
(g4
g5
(dp5578
g4368
S'1'
sg20
S'Resolved manually'
p5579
stRp5580
ag3
(g4
g5
(dp5581
g4368
S'2'
sg20
S'Resolved automatically as part of a branch'
p5582
stRp5583
ag3
(g4
g5
(dp5584
g4368
S'3'
sg20
S'Resolved automatically as part of a delete'
p5585
stRp5586
ag3
(g4
g5
(dp5587
g4368
S'4'
sg20
S'Resolved automatically as part of a move'
p5588
stRp5589
atRp5590
sg15
S'ResolvedStatus'
p5591
sg20
S'Specifies how the user resolved merge operations.'
p5592
stRp5593
ag3
(g4
g5
(dp5594
g4441
S'A revision number'
p5595
sg17
S'integer'
p5596
sg15
S'Rev'
p5597
sg20
S"The positive integer number of a specific revision of a file. \n\t\tThe number 0 represents '#none'."
p5598
stRp5599
ag3
(g4
g5
(dp5600
g4363
g3
(g8
g9
(lp5601
g3
(g4
g5
(dp5602
g4366
S'RevStatusBits'
p5603
sg4368
S'0x0000'
p5604
sg20
S'single revision with content'
p5605
stRp5606
ag3
(g4
g5
(dp5607
g4366
S'RevStatusBits'
p5608
sg4368
S'0x0001'
p5609
sg20
S'single revision lazy copied'
p5610
stRp5611
ag3
(g4
g5
(dp5612
g4366
S'RevStatusBits'
p5613
sg4368
S'0x0002'
p5614
sg20
S'revision task sparse'
p5615
stRp5616
ag3
(g4
g5
(dp5617
g4366
S'RevStatusBits'
p5618
sg4368
S'0x0004'
p5619
sg20
S'revision task branch'
p5620
stRp5621
ag3
(g4
g5
(dp5622
g4366
S'RevCharsetBits'
p5623
sg4368
S'0'
sg20
S'NONE'
p5624
stRp5625
ag3
(g4
g5
(dp5626
g4366
S'RevCharsetBits'
p5627
sg4368
S'1'
sg20
S'UTF_8'
p5628
stRp5629
ag3
(g4
g5
(dp5630
g4366
S'RevCharsetBits'
p5631
sg4368
S'2'
sg20
S'ISO8859_1'
p5632
stRp5633
ag3
(g4
g5
(dp5634
g4366
S'RevCharsetBits'
p5635
sg4368
S'3'
sg20
S'UTF_16'
p5636
stRp5637
ag3
(g4
g5
(dp5638
g4366
S'RevCharsetBits'
p5639
sg4368
S'4'
sg20
S'SHIFTJIS'
p5640
stRp5641
ag3
(g4
g5
(dp5642
g4366
S'RevCharsetBits'
p5643
sg4368
S'5'
sg20
S'EUCJP'
p5644
stRp5645
ag3
(g4
g5
(dp5646
g4366
S'RevCharsetBits'
p5647
sg4368
S'6'
sg20
S'WIN_US_ANSI'
p5648
stRp5649
ag3
(g4
g5
(dp5650
g4366
S'RevCharsetBits'
p5651
sg4368
S'7'
sg20
S'WIN_US_OEM'
p5652
stRp5653
ag3
(g4
g5
(dp5654
g4366
S'RevCharsetBits'
p5655
sg4368
S'8'
sg20
S'MACOS_ROMAN'
p5656
stRp5657
ag3
(g4
g5
(dp5658
g4366
S'RevCharsetBits'
p5659
sg4368
S'9'
sg20
S'ISO8859_15'
p5660
stRp5661
ag3
(g4
g5
(dp5662
g4366
S'RevCharsetBits'
p5663
sg4368
S'10'
p5664
sg20
S'ISO8859_5'
p5665
stRp5666
ag3
(g4
g5
(dp5667
g4366
S'RevCharsetBits'
p5668
sg4368
S'11'
p5669
sg20
S'KOI8_R'
p5670
stRp5671
ag3
(g4
g5
(dp5672
g4366
S'RevCharsetBits'
p5673
sg4368
S'12'
p5674
sg20
S'WIN_CP_1251'
p5675
stRp5676
ag3
(g4
g5
(dp5677
g4366
S'RevCharsetBits'
p5678
sg4368
S'13'
p5679
sg20
S'UTF_16_LE'
p5680
stRp5681
ag3
(g4
g5
(dp5682
g4366
S'RevCharsetBits'
p5683
sg4368
S'14'
p5684
sg20
S'UTF_16_BE'
p5685
stRp5686
ag3
(g4
g5
(dp5687
g4366
S'RevCharsetBits'
p5688
sg4368
S'15'
p5689
sg20
S'UTF_16_LE_BOM'
p5690
stRp5691
ag3
(g4
g5
(dp5692
g4366
S'RevCharsetBits'
p5693
sg4368
S'16'
p5694
sg20
S'UTF_16_BE_BOM'
p5695
stRp5696
ag3
(g4
g5
(dp5697
g4366
S'RevCharsetBits'
p5698
sg4368
S'17'
p5699
sg20
S'UTF_16_BOM'
p5700
stRp5701
ag3
(g4
g5
(dp5702
g4366
S'RevCharsetBits'
p5703
sg4368
S'18'
p5704
sg20
S'UTF_8_BOM'
p5705
stRp5706
ag3
(g4
g5
(dp5707
g4366
S'RevCharsetBits'
p5708
sg4368
S'19'
p5709
sg20
S'UTF_32'
p5710
stRp5711
ag3
(g4
g5
(dp5712
g4366
S'RevCharsetBits'
p5713
sg4368
S'20'
p5714
sg20
S'UTF_32_LE'
p5715
stRp5716
ag3
(g4
g5
(dp5717
g4366
S'RevCharsetBits'
p5718
sg4368
S'21'
p5719
sg20
S'UTF_32_BE'
p5720
stRp5721
ag3
(g4
g5
(dp5722
g4366
S'RevCharsetBits'
p5723
sg4368
S'22'
p5724
sg20
S'UTF_32_LE_BOM'
p5725
stRp5726
ag3
(g4
g5
(dp5727
g4366
S'RevCharsetBits'
p5728
sg4368
S'23'
p5729
sg20
S'UTF_32_BE_BOM'
p5730
stRp5731
ag3
(g4
g5
(dp5732
g4366
S'RevCharsetBits'
p5733
sg4368
S'24'
p5734
sg20
S'UTF_32_BOM'
p5735
stRp5736
ag3
(g4
g5
(dp5737
g4366
S'RevCharsetBits'
p5738
sg4368
S'25'
p5739
sg20
S'UTF_8_UNCHECKED'
p5740
stRp5741
ag3
(g4
g5
(dp5742
g4366
S'RevCharsetBits'
p5743
sg4368
S'26'
p5744
sg20
S'UTF_8_UNCHECKED_BOM'
p5745
stRp5746
ag3
(g4
g5
(dp5747
g4366
S'RevCharsetBits'
p5748
sg4368
S'27'
p5749
sg20
S'CP949'
p5750
stRp5751
ag3
(g4
g5
(dp5752
g4366
S'RevCharsetBits'
p5753
sg4368
S'28'
p5754
sg20
S'CP936'
p5755
stRp5756
ag3
(g4
g5
(dp5757
g4366
S'RevCharsetBits'
p5758
sg4368
S'29'
p5759
sg20
S'CP950'
p5760
stRp5761
ag3
(g4
g5
(dp5762
g4366
S'RevCharsetBits'
p5763
sg4368
S'30'
p5764
sg20
S'CP850'
p5765
stRp5766
ag3
(g4
g5
(dp5767
g4366
S'RevCharsetBits'
p5768
sg4368
S'31'
p5769
sg20
S'CP858'
p5770
stRp5771
atRp5772
sg15
S'RevStatus'
p5773
sg4366
g3
(g8
g9
(lp5774
g3
(g4
g5
(dp5775
g15
S'RevStatusBits'
p5776
sg4368
S'0x00FFFFFF'
p5777
sg20
S'Bits used to store revision status'
p5778
stRp5779
ag3
(g4
g5
(dp5780
g15
S'RevCharsetBits'
p5781
sg4368
S'0x7F000000'
p5782
sg20
S'Bits used to store revision charset (high 8 bits). Values below have been shifted right 24 bits'
p5783
stRp5784
atRp5785
sg4441
S'A revision status'
p5786
sg17
S'bitmask'
p5787
sg20
S'Lazy copy, task stream promotion, and charset status'
p5788
stRp5789
ag3
(g4
g5
(dp5790
g4441
S'Type of reviewer'
p5791
sg17
S'integer'
p5792
sg15
S'Reviewer'
p5793
sg20
S'The type of reviewer. Currently there is only one type of\n\t\treviewer and 0 is the only valid value.'
p5794
stRp5795
ag3
(g4
g5
(dp5796
g17
S'flag'
p5797
sg4441
S'The state of the scan'
p5798
sg4363
g3
(g8
g9
(lp5799
g3
(g4
g5
(dp5800
g4368
S'0'
sg20
S'unset'
p5801
stRp5802
ag3
(g4
g5
(dp5803
g4368
S'1'
sg20
S'run'
p5804
stRp5805
ag3
(g4
g5
(dp5806
g4368
S'2'
sg20
S'paused'
p5807
stRp5808
ag3
(g4
g5
(dp5809
g4368
S'3'
sg20
S'paused'
p5810
stRp5811
ag3
(g4
g5
(dp5812
g4368
S'4'
sg20
S'done'
p5813
stRp5814
ag3
(g4
g5
(dp5815
g4368
S'5'
sg20
S'error'
p5816
stRp5817
ag3
(g4
g5
(dp5818
g4368
S'6'
sg20
S'busy'
p5819
stRp5820
atRp5821
sg15
S'ScanState'
p5822
sg20
S'The state of the scan'
p5823
stRp5824
ag3
(g4
g5
(dp5825
g17
S'flag'
p5826
sg4441
S'The type of server'
p5827
sg4363
g3
(g8
g9
(lp5828
g3
(g4
g5
(dp5829
g4368
S'0'
sg20
S'server'
p5830
stRp5831
ag3
(g4
g5
(dp5832
g4368
S'1'
sg20
S'proxy'
p5833
stRp5834
ag3
(g4
g5
(dp5835
g4368
S'2'
sg20
S'broker'
p5836
stRp5837
ag3
(g4
g5
(dp5838
g4368
S'3'
sg20
S'identifier'
p5839
stRp5840
ag3
(g4
g5
(dp5841
g4368
S'4'
sg20
S'admin'
p5842
stRp5843
ag3
(g4
g5
(dp5844
g4368
S'5'
sg20
S'connector'
p5845
stRp5846
atRp5847
sg15
S'ServerType'
p5848
sg20
S'The type of server'
p5849
stRp5850
ag3
(g4
g5
(dp5851
g4363
g3
(g8
g9
(lp5852
g3
(g4
g5
(dp5853
g4366
S'Service Set Value'
p5854
sg4368
S'0x0903'
p5855
sg20
S'standard \t\t( db-read | db-write | rmt-depot | rmt-journal )'
p5856
stRp5857
ag3
(g4
g5
(dp5858
g4366
S'Service Set Value'
p5859
sg4368
S'0x0945'
p5860
sg20
S'replica \t\t( db-read | db-replication | file-replication | rmt-depot | rmt-journal )'
p5861
stRp5862
ag3
(g4
g5
(dp5863
g4366
S'Service Set Value'
p5864
sg4368
S'0x0030'
p5865
sg20
S'broker ( brokering | forwarding )'
p5866
stRp5867
ag3
(g4
g5
(dp5868
g4366
S'Service Set Value'
p5869
sg4368
S'0x00A0'
p5870
sg20
S'proxy ( forwarding | file-cacheing )'
p5871
stRp5872
ag3
(g4
g5
(dp5873
g4366
S'Service Set Value'
p5874
sg4368
S'0x09E5'
p5875
sg20
S'forwarding-replica ( db-read | db-replication | forwarding | file-replication | file-cacheing | rmt-depot | rmt-journal )'
p5876
stRp5877
ag3
(g4
g5
(dp5878
g4366
S'Service Set Value'
p5879
sg4368
S'0x094D'
p5880
sg20
S'build-server ( db-read | db-replication | bound-clients | file-replication | rmt-depot | rmt-journal )'
p5881
stRp5882
ag3
(g4
g5
(dp5883
g4366
S'Service Set Value'
p5884
sg4368
S'0x0203'
p5885
sg20
S'P4AUTH ( db-read | db-write | rmt-auth )'
p5886
stRp5887
ag3
(g4
g5
(dp5888
g4366
S'Service Set Value'
p5889
sg4368
S'0x0403'
p5890
sg20
S'P4CHANGE ( db-read | db-write | rmt-change )'
p5891
stRp5892
ag3
(g4
g5
(dp5893
g4366
S'Service Set Value'
p5894
sg4368
S'0x19ED'
p5895
sg20
S'edge-server ( db-read | db-replication | bound-clients | forwarding | file-replication | file-cacheing | rmt-depot | rmt-journal | local-opens )'
p5896
stRp5897
ag3
(g4
g5
(dp5898
g4366
S'Service Set Value'
p5899
sg4368
S'0x2F03'
p5900
sg20
S'commit-server ( db-read | db-write | rmt-depot | rmt-journal | rmt-change | rmt-auth | commit-server )'
p5901
stRp5902
ag3
(g4
g5
(dp5903
g4366
S'Service Set Value'
p5904
sg4368
S'0x6F03'
p5905
sg20
S'depot-master ( db-read | db-write | rmt-depot | rmt-journal | rmt-change | rmt-auth | commit-server | p4zk-managed )'
p5906
stRp5907
ag3
(g4
g5
(dp5908
g4366
S'Service Set Value'
p5909
sg4368
S'0xC945'
p5910
sg20
S'depot-standby ( db-read | db-replication | file-replication | rmt-depot | rmt-journal | journal-copy | p4zk-managed )'
p5911
stRp5912
ag3
(g4
g5
(dp5913
g4366
S'Service Set Value'
p5914
sg4368
S'0x59ED'
p5915
sg20
S'workspace-server ( db-read | db-replication | bound-clients | forwarding | file-replication | file-cacheing | rmt-depot | rmt-journal | local-opens | p4zk-managed )'
p5916
stRp5917
ag3
(g4
g5
(dp5918
g4366
S'Service Set Value'
p5919
sg4368
S'0x8945'
p5920
sg20
S'standby ( db-read | db-replication | file-replication | rmt-depot | rmt-journal | journal-copy )'
p5921
stRp5922
ag3
(g4
g5
(dp5923
g4366
S'Service Set Value'
p5924
sg4368
S'0x89E5'
p5925
sg20
S'forwarding-standby ( db-read | db-replication | forwarding | file-replication | file-cacheing | rmt-depot | rmt-journal | journal-copy )'
p5926
stRp5927
ag3
(g4
g5
(dp5928
g4366
S'Service Set Value'
p5929
sg4368
S'0x4030'
p5930
sg20
S'workspace-router ( brokering | forwarding | p4zk-managed )'
p5931
stRp5932
ag3
(g4
g5
(dp5933
g4366
S'Service Set Value'
p5934
sg4368
S'0x10003'
p5935
sg20
S'local ( db-read | db-write | dvcs-local )'
p5936
stRp5937
ag3
(g4
g5
(dp5938
g4366
S'Service Set Value'
p5939
sg4368
S'0x20000'
p5940
sg20
S'cluster ( cluster-id )'
p5941
stRp5942
ag3
(g4
g5
(dp5943
g4366
S'Service Set Value'
p5944
sg4368
S'0x40000'
p5945
sg20
S'zookeeper-server ( zookeeper-server )'
p5946
stRp5947
ag3
(g4
g5
(dp5948
g4366
S'Service Set Value'
p5949
sg4368
S'0x80000'
p5950
sg20
S'hxca-server ( hxca-server )'
p5951
stRp5952
ag3
(g4
g5
(dp5953
g4366
S'Service Set Value'
p5954
sg4368
S'0x100000'
p5955
sg20
S'git-connector'
p5956
stRp5957
ag3
(g4
g5
(dp5958
g4366
S'Service Property'
p5959
sg4368
S'0x0001'
p5960
sg20
S'db-read'
p5961
stRp5962
ag3
(g4
g5
(dp5963
g4366
S'Service Property'
p5964
sg4368
S'0x0002'
p5965
sg20
S'db-write'
p5966
stRp5967
ag3
(g4
g5
(dp5968
g4366
S'Service Property'
p5969
sg4368
S'0x0004'
p5970
sg20
S'db-replication'
p5971
stRp5972
ag3
(g4
g5
(dp5973
g4366
S'Service Property'
p5974
sg4368
S'0x0008'
p5975
sg20
S'bound-clients'
p5976
stRp5977
ag3
(g4
g5
(dp5978
g4366
S'Service Property'
p5979
sg4368
S'0x0010'
p5980
sg20
S'brokering'
p5981
stRp5982
ag3
(g4
g5
(dp5983
g4366
S'Service Property'
p5984
sg4368
S'0x0020'
p5985
sg20
S'forwarding'
p5986
stRp5987
ag3
(g4
g5
(dp5988
g4366
S'Service Property'
p5989
sg4368
S'0x0040'
p5990
sg20
S'file-replication'
p5991
stRp5992
ag3
(g4
g5
(dp5993
g4366
S'Service Property'
p5994
sg4368
S'0x0080'
p5995
sg20
S'file-cacheing'
p5996
stRp5997
ag3
(g4
g5
(dp5998
g4366
S'Service Property'
p5999
sg4368
S'0x0100'
p6000
sg20
S'rmt-depot'
p6001
stRp6002
ag3
(g4
g5
(dp6003
g4366
S'Service Property'
p6004
sg4368
S'0x0200'
p6005
sg20
S'rmt-auth'
p6006
stRp6007
ag3
(g4
g5
(dp6008
g4366
S'Service Property'
p6009
sg4368
S'0x0400'
p6010
sg20
S'rmt-change'
p6011
stRp6012
ag3
(g4
g5
(dp6013
g4366
S'Service Property'
p6014
sg4368
S'0x0800'
p6015
sg20
S'rmt-journal'
p6016
stRp6017
ag3
(g4
g5
(dp6018
g4366
S'Service Property'
p6019
sg4368
S'0x1000'
p6020
sg20
S'local-opens'
p6021
stRp6022
ag3
(g4
g5
(dp6023
g4366
S'Service Property'
p6024
sg4368
S'0x2000'
p6025
sg20
S'commit-server'
p6026
stRp6027
ag3
(g4
g5
(dp6028
g4366
S'Service Property'
p6029
sg4368
S'0x4000'
p6030
sg20
S'p4zk-managed'
p6031
stRp6032
ag3
(g4
g5
(dp6033
g4366
S'Service Property'
p6034
sg4368
S'0x8000'
p6035
sg20
S'journal-copy'
p6036
stRp6037
ag3
(g4
g5
(dp6038
g4366
S'Service Property'
p6039
sg4368
S'0x10000'
p6040
sg20
S'dvcs-local'
p6041
stRp6042
ag3
(g4
g5
(dp6043
g4366
S'Service Property'
p6044
sg4368
S'0x20000'
p6045
sg20
S'cluster-id'
p6046
stRp6047
ag3
(g4
g5
(dp6048
g4366
S'Service Property'
p6049
sg4368
S'0x40000'
p6050
sg20
S'zookeeper'
p6051
stRp6052
ag3
(g4
g5
(dp6053
g4366
S'Service Property'
p6054
sg4368
S'0x80000'
p6055
sg20
S'hxca'
p6056
stRp6057
ag3
(g4
g5
(dp6058
g4366
S'Service Property'
p6059
sg4368
S'0x80000'
p6060
sg20
S'Git-Connector'
p6061
stRp6062
atRp6063
sg15
S'ServerServiceType'
p6064
sg4366
g3
(g8
g9
(lp6065
g3
(g4
g5
(dp6066
g15
S'Service Set Value'
p6067
sg4368
S'None'
p6068
sg20
S"The server service type setting is generated by OR'ing the generic ServerServiceProperties defined below"
p6069
stRp6070
ag3
(g4
g5
(dp6071
g15
S'Service Property'
p6072
sg4368
S'None'
p6073
sg20
S'ServerServiceProperties: Bits used to identify generic server properties'
p6074
stRp6075
atRp6076
sg4441
S'The type of server service'
p6077
sg17
S'bitmask'
p6078
sg20
S'The services offered by a type of service.'
p6079
stRp6080
ag3
(g4
g5
(dp6081
g4363
g3
(g4
g5
(dp6082
g4366
S'Server Option Flag'
p6083
sg4368
S'0x0001'
p6084
sg20
S'mandatory'
p6085
stRp6086
sg15
S'ServerOptionsType'
p6087
sg4366
g3
(g4
g5
(dp6088
g15
S'Server Option Flag'
p6089
sg4368
S'None'
p6090
sg20
S"The server options service type setting is generated by OR'ing the generic ServerOptionFlags defined below"
p6091
stRp6092
sg4441
S'Options for server definitions'
p6093
sg17
S'bitmask'
p6094
sg20
S'Option Flags for server definitions.'
p6095
stRp6096
ag3
(g4
g5
(dp6097
g4441
S'Encoded SHA1'
p6098
sg17
S'string'
p6099
sg15
S'SHA1'
p6100
sg20
S'20 byte SHA1 digest of a block of text'
p6101
stRp6102
ag3
(g4
g5
(dp6103
g17
S'flag'
p6104
sg4441
S'A spec type'
p6105
sg4363
g3
(g8
g9
(lp6106
g3
(g4
g5
(dp6107
g4368
S"98 (ASCII 'b')"
p6108
sg20
S'branch'
p6109
stRp6110
ag3
(g4
g5
(dp6111
g4368
S"67 (ASCII 'C')"
p6112
sg20
S'change'
p6113
stRp6114
ag3
(g4
g5
(dp6115
g4368
S"99 (ASCII 'c')"
p6116
sg20
S'client'
p6117
stRp6118
ag3
(g4
g5
(dp6119
g4368
S"100 (ASCII 'd')"
p6120
sg20
S'depot'
p6121
stRp6122
ag3
(g4
g5
(dp6123
g4368
S"101 (ASCII 'e')"
p6124
sg20
S'spec'
p6125
stRp6126
ag3
(g4
g5
(dp6127
g4368
S"69 (ASCII 'E')"
p6128
sg20
S'extension'
p6129
stRp6130
ag3
(g4
g5
(dp6131
g4368
S"103 (ASCII 'g')"
p6132
sg20
S'group'
p6133
stRp6134
ag3
(g4
g5
(dp6135
g4368
S"106 (ASCII 'j')"
p6136
sg20
S'job'
p6137
stRp6138
ag3
(g4
g5
(dp6139
g4368
S"108 (ASCII 'l')"
p6140
sg20
S'label'
p6141
stRp6142
ag3
(g4
g5
(dp6143
g4368
S"68 (ASCII 'D')"
p6144
sg20
S'ldap'
p6145
stRp6146
ag3
(g4
g5
(dp6147
g4368
S"76 (ASCII 'L')"
p6148
sg20
S'license'
p6149
stRp6150
ag3
(g4
g5
(dp6151
g4368
S"112 (ASCII 'p')"
p6152
sg20
S'protect'
p6153
stRp6154
ag3
(g4
g5
(dp6155
g4368
S"114 (ASCII 'r')"
p6156
sg20
S'remote'
p6157
stRp6158
ag3
(g4
g5
(dp6159
g4368
S"82 (ASCII 'R')"
p6160
sg20
S'repo'
p6161
stRp6162
ag3
(g4
g5
(dp6163
g4368
S"83 (ASCII 'S')"
p6164
sg20
S'server'
p6165
stRp6166
ag3
(g4
g5
(dp6167
g4368
S"115 (ASCII 's')"
p6168
sg20
S'stream'
p6169
stRp6170
ag3
(g4
g5
(dp6171
g4368
S"84 (ASCII 'T')"
p6172
sg20
S'trigger'
p6173
stRp6174
ag3
(g4
g5
(dp6175
g4368
S"116 (ASCII 't')"
p6176
sg20
S'typemap'
p6177
stRp6178
ag3
(g4
g5
(dp6179
g4368
S"117 (ASCII 'u')"
p6180
sg20
S'user'
p6181
stRp6182
atRp6183
sg15
S'SpecType'
p6184
sg20
S'A integer value representing the type of a spec'
p6185
stRp6186
ag3
(g4
g5
(dp6187
g17
S'flag'
p6188
sg4441
S'Stash type'
p6189
sg4363
g3
(g8
g9
(lp6190
g3
(g4
g5
(dp6191
g4368
S'0'
sg20
S'switch: A shelf with work-in-progress for a particular stream/branch'
p6192
stRp6193
ag3
(g4
g5
(dp6194
g4368
S'1'
sg20
S"tangent: Work-in-progress relocated by 'p4 fetch -t'. Consumed and removed by 'p4 resubmit'"
p6195
stRp6196
atRp6197
sg15
S'StashType'
p6198
sg20
S'Stash type'
p6199
stRp6200
ag3
(g4
g5
(dp6201
g17
S'flag'
p6202
sg4441
S'Server specification view type'
p6203
sg4363
g3
(g8
g9
(lp6204
g3
(g4
g5
(dp6205
g4368
S'0'
sg20
S'Client VersionData Filter'
p6206
stRp6207
ag3
(g4
g5
(dp6208
g4368
S'1'
sg20
S'Revision VersionData Filter'
p6209
stRp6210
ag3
(g4
g5
(dp6211
g4368
S'2'
sg20
S'Archive VersionData Filter'
p6212
stRp6213
ag3
(g4
g5
(dp6214
g4368
S'3'
sg20
S'Authorized Addresses'
p6215
stRp6216
ag3
(g4
g5
(dp6217
g4368
S'4'
sg20
S'Repos that should be polled to keep their caches up-to-date'
p6218
stRp6219
atRp6220
sg15
S'SvrViewType'
p6221
sg20
S'Server specification view type'
p6222
stRp6223
ag3
(g4
g5
(dp6224
g4363
g3
(g8
g9
(lp6225
g3
(g4
g5
(dp6226
g4366
S'Stream Status'
p6227
sg4368
S'0x0000'
p6228
sg20
S'Clear cache'
p6229
stRp6230
ag3
(g4
g5
(dp6231
g4366
S'Stream Status'
p6232
sg4368
S'0x0001'
p6233
sg20
S'Needs copy'
p6234
stRp6235
ag3
(g4
g5
(dp6236
g4366
S'Stream Status'
p6237
sg4368
S'0x0002'
p6238
sg20
S'Copy up-to-date'
p6239
stRp6240
ag3
(g4
g5
(dp6241
g4366
S'Stream Status'
p6242
sg4368
S'0x0004'
p6243
sg20
S'Needs merge'
p6244
stRp6245
ag3
(g4
g5
(dp6246
g4366
S'Stream Status'
p6247
sg4368
S'0x0008'
p6248
sg20
S'Merge up-to-date'
p6249
stRp6250
atRp6251
sg15
S'StreamStatus'
p6252
sg4366
g3
(g4
g5
(dp6253
g15
S'Stream Status'
p6254
sg4368
S'Copy: 0x0003, Merge: 0x000C'
p6255
sg20
S'Bits used to store the stream integration status'
p6256
stRp6257
sg4441
S'Stream integration status'
p6258
sg17
S'bitmask'
p6259
sg20
S'The stream integration status.'
p6260
stRp6261
ag3
(g4
g5
(dp6262
g17
S'flag'
p6263
sg4441
S'Type of stream path'
p6264
sg4363
g3
(g8
g9
(lp6265
g3
(g4
g5
(dp6266
g4368
S'0'
sg20
S'share'
p6267
stRp6268
ag3
(g4
g5
(dp6269
g4368
S'1'
sg20
S'isolate'
p6270
stRp6271
ag3
(g4
g5
(dp6272
g4368
S'2'
sg20
S'import'
p6273
stRp6274
ag3
(g4
g5
(dp6275
g4368
S'3'
sg20
S'exclude'
p6276
stRp6277
ag3
(g4
g5
(dp6278
g4368
S'4'
sg20
S'remapped'
p6279
stRp6280
ag3
(g4
g5
(dp6281
g4368
S'5'
sg20
S'ignored'
p6282
stRp6283
ag3
(g4
g5
(dp6284
g4368
S'6'
sg20
S'inclusive'
p6285
stRp6286
ag3
(g4
g5
(dp6287
g4368
S'7'
sg20
S'import+'
p6288
stRp6289
atRp6290
sg15
S'StreamPathType'
p6291
sg20
S'The path type for file paths in a stream view.'
p6292
stRp6293
ag3
(g4
g5
(dp6294
g17
S'flag'
p6295
sg4441
S'Type of stream'
p6296
sg4363
g3
(g8
g9
(lp6297
g3
(g4
g5
(dp6298
g4368
S'0'
sg20
S'mainline'
p6299
stRp6300
ag3
(g4
g5
(dp6301
g4368
S'1'
sg20
S'release'
p6302
stRp6303
ag3
(g4
g5
(dp6304
g4368
S'2'
sg20
S'development'
p6305
stRp6306
ag3
(g4
g5
(dp6307
g4368
S'3'
sg20
S'virtual'
p6308
stRp6309
ag3
(g4
g5
(dp6310
g4368
S'4'
sg20
S'task'
p6311
stRp6312
ag3
(g4
g5
(dp6313
g4368
S'5'
sg20
S'task - unloaded'
p6314
stRp6315
atRp6316
sg15
S'StreamType'
p6317
sg20
S'The type of stream.'
p6318
stRp6319
ag3
(g4
g5
(dp6320
g17
S'flag'
p6321
sg4441
S'Strength check of a password'
p6322
sg4363
g3
(g8
g9
(lp6323
g3
(g4
g5
(dp6324
g4368
S'0'
sg20
S'Strength unknown'
p6325
stRp6326
ag3
(g4
g5
(dp6327
g4368
S'1'
sg20
S'Password is strong'
p6328
stRp6329
ag3
(g4
g5
(dp6330
g4368
S'2'
sg20
S'Unset'
p6331
stRp6332
atRp6333
sg15
S'Strength'
p6334
sg20
S"Whether or not a user's password has been tested for strength."
p6335
stRp6336
ag3
(g4
g5
(dp6337
S'restriction'
p6338
g3
(g8
g9
(lp6339
S'Cannot be empty'
p6340
aS'Cannot consist solely of a dash (-)'
p6341
aS'Cannot be all-numeric'
p6342
aS'Cannot contain non-printable characters'
p6343
aS'Spaces are replaced with underscores ( _ )'
p6344
aS'Revision characters (# and @) are prohibited'
p6345
aS'Slashes (/) are prohibited'
p6346
aS'Wildcards (... and *) are prohibited'
p6347
atRp6348
sg4441
S'A string up to 1024 characters long'
p6349
sg17
S'string'
p6350
sg15
S'String'
p6351
sg20
S'A string up to 1024 characters in length.  Depending on the \n\t\tcontext in which the string is used, restrictions \n\t\tmay apply. Strings are often used as key fields in the \n\t\tschema.'
p6352
stRp6353
ag3
(g4
g5
(dp6354
g17
S'flag'
p6355
sg4441
S'Tamper-state of workspace file'
p6356
sg4363
g3
(g8
g9
(lp6357
g3
(g4
g5
(dp6358
g4368
S'0'
sg20
S'Do not check for tampering'
p6359
stRp6360
ag3
(g4
g5
(dp6361
g4368
S'1'
sg20
S'Check for tampering'
p6362
stRp6363
ag3
(g4
g5
(dp6364
g4368
S'2'
sg20
S'Tamper-check failed'
p6365
stRp6366
atRp6367
sg15
S'TamperCheck'
p6368
sg20
S'Indicates the tamper-state of a file in a workspace. This\n\t\tis used to decide whether or not to check the file, and\n\t\tif checked, to hold the result.'
p6369
stRp6370
ag3
(g4
g5
(dp6371
g4441
S'A string value'
p6372
sg17
S'string'
p6373
sg15
S'Text'
p6374
sg20
S'A text string value - used to hold longer blocks of text.'
p6375
stRp6376
ag3
(g4
g5
(dp6377
g4441
S'The id of a group of traits'
p6378
sg17
S'integer'
p6379
sg15
S'TraitLot'
p6380
sg20
S'An integer identifying a group of traits which may be\n\t\tshared by several revisions.'
p6381
stRp6382
ag3
(g4
g5
(dp6383
g17
S'flag'
p6384
sg4441
S'A type of trait'
p6385
sg4363
g3
(g8
g9
(lp6386
g3
(g4
g5
(dp6387
g4368
S'0'
sg20
S'Special trait for reference counting'
p6388
stRp6389
ag3
(g4
g5
(dp6390
g4368
S'1'
sg20
S'Binary trait'
p6391
stRp6392
ag3
(g4
g5
(dp6393
g4368
S'2'
sg20
S'Binary trait that gets propagated'
p6394
stRp6395
atRp6396
sg15
S'TraitType'
p6397
sg20
S'The type of trait.'
p6398
stRp6399
ag3
(g4
g5
(dp6400
g17
S'flag'
p6401
sg4441
S'A type of trigger'
p6402
sg4363
g3
(g8
g9
(lp6403
g3
(g4
g5
(dp6404
g4368
S'0'
sg20
S'change-submit (formerly pre-submit triggers)'
p6405
stRp6406
ag3
(g4
g5
(dp6407
g4368
S'1'
sg20
S'change-content'
p6408
stRp6409
ag3
(g4
g5
(dp6410
g4368
S'2'
sg20
S'change-commit'
p6411
stRp6412
ag3
(g4
g5
(dp6413
g4368
S'3'
sg20
S'form-in'
p6414
stRp6415
ag3
(g4
g5
(dp6416
g4368
S'4'
sg20
S'form-out'
p6417
stRp6418
ag3
(g4
g5
(dp6419
g4368
S'5'
sg20
S'form-save'
p6420
stRp6421
ag3
(g4
g5
(dp6422
g4368
S'6'
sg20
S'form-delete'
p6423
stRp6424
ag3
(g4
g5
(dp6425
g4368
S'7'
sg20
S'form-commit'
p6426
stRp6427
ag3
(g4
g5
(dp6428
g4368
S'8'
sg20
S'auth-check'
p6429
stRp6430
ag3
(g4
g5
(dp6431
g4368
S'9'
sg20
S'auth-check-sso'
p6432
stRp6433
ag3
(g4
g5
(dp6434
g4368
S'10'
p6435
sg20
S'auth-set'
p6436
stRp6437
ag3
(g4
g5
(dp6438
g4368
S'11'
p6439
sg20
S'fix-add'
p6440
stRp6441
ag3
(g4
g5
(dp6442
g4368
S'12'
p6443
sg20
S'fix-delete'
p6444
stRp6445
ag3
(g4
g5
(dp6446
g4368
S'13'
p6447
sg20
S'archive'
p6448
stRp6449
ag3
(g4
g5
(dp6450
g4368
S'14'
p6451
sg20
S'shelve-submit'
p6452
stRp6453
ag3
(g4
g5
(dp6454
g4368
S'15'
p6455
sg20
S'shelve-commit'
p6456
stRp6457
ag3
(g4
g5
(dp6458
g4368
S'16'
p6459
sg20
S'shelve-delete'
p6460
stRp6461
ag3
(g4
g5
(dp6462
g4368
S'17'
p6463
sg20
S'service-check'
p6464
stRp6465
ag3
(g4
g5
(dp6466
g4368
S'18'
p6467
sg20
S'edge-submit'
p6468
stRp6469
ag3
(g4
g5
(dp6470
g4368
S'19'
p6471
sg20
S'edge-content'
p6472
stRp6473
ag3
(g4
g5
(dp6474
g4368
S'20'
p6475
sg20
S'change-failed'
p6476
stRp6477
ag3
(g4
g5
(dp6478
g4368
S'21'
p6479
sg20
S'command'
p6480
stRp6481
ag3
(g4
g5
(dp6482
g4368
S'22'
p6483
sg20
S'push-submit'
p6484
stRp6485
ag3
(g4
g5
(dp6486
g4368
S'23'
p6487
sg20
S'push-content'
p6488
stRp6489
ag3
(g4
g5
(dp6490
g4368
S'24'
p6491
sg20
S'push-commit'
p6492
stRp6493
ag3
(g4
g5
(dp6494
g4368
S'25'
p6495
sg20
S'journal-rotate'
p6496
stRp6497
ag3
(g4
g5
(dp6498
g4368
S'26'
p6499
sg20
S'journal-rotate-lock'
p6500
stRp6501
ag3
(g4
g5
(dp6502
g4368
S'27'
p6503
sg20
S'graph-push-start'
p6504
stRp6505
ag3
(g4
g5
(dp6506
g4368
S'28'
p6507
sg20
S'graph-push-complete'
p6508
stRp6509
ag3
(g4
g5
(dp6510
g4368
S'29'
p6511
sg20
S'graph-push-reference'
p6512
stRp6513
ag3
(g4
g5
(dp6514
g4368
S'30'
p6515
sg20
S'graph-push-reference-complete'
p6516
stRp6517
ag3
(g4
g5
(dp6518
g4368
S'31'
p6519
sg20
S'graph-lfs-push'
p6520
stRp6521
ag3
(g4
g5
(dp6522
g4368
S'32'
p6523
sg20
S'graph-fork-repo'
p6524
stRp6525
ag3
(g4
g5
(dp6526
g4368
S'33'
p6527
sg20
S'pull-archive'
p6528
stRp6529
ag3
(g4
g5
(dp6530
g4368
S'34'
p6531
sg20
S'auth-pre-2fa'
p6532
stRp6533
ag3
(g4
g5
(dp6534
g4368
S'35'
p6535
sg20
S'auth-init-2fa'
p6536
stRp6537
ag3
(g4
g5
(dp6538
g4368
S'36'
p6539
sg20
S'auth-check-2fa'
p6540
stRp6541
ag3
(g4
g5
(dp6542
g4368
S'37'
p6543
sg20
S'bgtask'
p6544
stRp6545
ag3
(g4
g5
(dp6546
g4368
S'38'
p6547
sg20
S'auth-invalidate'
p6548
stRp6549
ag3
(g4
g5
(dp6550
g4368
S'39'
p6551
sg20
S'extension config'
p6552
stRp6553
ag3
(g4
g5
(dp6554
g4368
S'40'
p6555
sg20
S'pre-SSO session info'
p6556
stRp6557
ag3
(g4
g5
(dp6558
g4368
S'41'
p6559
sg20
S'new master failover'
p6560
stRp6561
ag3
(g4
g5
(dp6562
g4368
S'42'
p6563
sg20
S'extension --run'
p6564
stRp6565
atRp6566
sg15
S'Trigger'
p6567
sg20
S'The type of a trigger.'
p6568
stRp6569
ag3
(g4
g5
(dp6570
g17
S'flag'
p6571
sg4441
S'Upgrade State'
p6572
sg4363
g3
(g8
g9
(lp6573
g3
(g4
g5
(dp6574
g4368
S'0'
sg20
S'upgrade needed'
p6575
stRp6576
ag3
(g4
g5
(dp6577
g4368
S'1'
sg20
S'upgrade pending'
p6578
stRp6579
ag3
(g4
g5
(dp6580
g4368
S'2'
sg20
S'upgrade running'
p6581
stRp6582
ag3
(g4
g5
(dp6583
g4368
S'3'
sg20
S'upgrade completed'
p6584
stRp6585
ag3
(g4
g5
(dp6586
g4368
S'4'
sg20
S'isolated upgrade success'
p6587
stRp6588
ag3
(g4
g5
(dp6589
g4368
S'5'
sg20
S'upgrade failed'
p6590
stRp6591
atRp6592
sg15
S'UpgradeState'
p6593
sg20
S'upgrade state'
p6594
stRp6595
ag3
(g4
g5
(dp6596
g4441
S'A user or group name'
p6597
sg20
S'The name of a Helix Server user or group.'
p6598
sg17
S'string'
p6599
sg15
S'User'
p6600
sg245
S'String'
p6601
stRp6602
ag3
(g4
g5
(dp6603
g17
S'flag'
p6604
sg4441
S'User Authentication Type'
p6605
sg4363
g3
(g8
g9
(lp6606
g3
(g4
g5
(dp6607
g4368
S'0'
sg20
S'perforce'
p6608
stRp6609
ag3
(g4
g5
(dp6610
g4368
S'1'
sg20
S'ldap'
p6611
stRp6612
ag3
(g4
g5
(dp6613
g4368
S'16'
p6614
sg20
S'perforce+2fa'
p6615
stRp6616
ag3
(g4
g5
(dp6617
g4368
S'17'
p6618
sg20
S'ldap+2fa'
p6619
stRp6620
atRp6621
sg15
S'UserAuthType'
p6622
sg20
S'The AuthMethod setting for the user.'
p6623
stRp6624
ag3
(g4
g5
(dp6625
g17
S'flag'
p6626
sg4441
S'User functionality level'
p6627
sg4363
g3
(g8
g9
(lp6628
g3
(g4
g5
(dp6629
g4368
S'0'
sg20
S'standard'
p6630
stRp6631
ag3
(g4
g5
(dp6632
g4368
S'1'
sg20
S'service'
p6633
stRp6634
ag3
(g4
g5
(dp6635
g4368
S'2'
sg20
S'operator'
p6636
stRp6637
atRp6638
sg15
S'UserLevel'
p6639
sg20
S'User functionality level'
p6640
stRp6641
ag3
(g4
g5
(dp6642
g4363
g3
(g8
g9
(lp6643
g3
(g4
g5
(dp6644
g4366
S'UserTypeBits'
p6645
sg15
S'User'
p6646
sg4368
S'0x0001'
p6647
sg20
S'User is an ordinary user'
p6648
stRp6649
ag3
(g4
g5
(dp6650
g4366
S'UserTypeBits'
p6651
sg15
S'SubGroup'
p6652
sg4368
S'0x0002'
p6653
sg20
S'Group is a sub-group'
p6654
stRp6655
ag3
(g4
g5
(dp6656
g4366
S'UserTypeBits'
p6657
sg15
S'Owner'
p6658
sg4368
S'0x0004'
p6659
sg20
S'User is the owner of a group'
p6660
stRp6661
atRp6662
sg15
S'UserType'
p6663
sg4366
g3
(g4
g5
(dp6664
g15
S'UserTypeBits'
p6665
sg4368
S'0x0007'
p6666
sg20
S'Bits used to store the role of a user in a group'
p6667
stRp6668
sg4441
S'The role of a user within a group'
p6669
sg17
S'bitmask'
p6670
sg20
S'The role of a user (or group) within a group.'
p6671
stRp6672
ag3
(g4
g5
(dp6673
g4441
S'A user or group name with wildcards'
p6674
sg20
S'A user/group name that may contain wildcards (*)'
p6675
sg17
S'string'
p6676
sg15
S'UserWild'
p6677
sg245
S'User'
p6678
stRp6679
ag3
(g4
g5
(dp6680
g4441
S'A number or a string'
p6681
sg17
S'string'
p6682
sg15
S'Value'
p6683
sg20
S'A number, stored in a string, or a string'
p6684
stRp6685
ag3
(g4
g5
(dp6686
g4363
g3
(g8
g9
(lp6687
g3
(g4
g5
(dp6688
g4366
S'WorkStatusBits'
p6689
sg15
S'kmerged'
p6690
sg4368
S'0x0001'
p6691
sg20
S'resolved merged ktext'
p6692
stRp6693
ag3
(g4
g5
(dp6694
g4366
S'WorkCharsetBits'
p6695
sg4368
S'0'
sg20
S'NONE'
p6696
stRp6697
ag3
(g4
g5
(dp6698
g4366
S'WorkCharsetBits'
p6699
sg4368
S'1'
sg20
S'UTF_8'
p6700
stRp6701
ag3
(g4
g5
(dp6702
g4366
S'WorkCharsetBits'
p6703
sg4368
S'2'
sg20
S'ISO8859_1'
p6704
stRp6705
ag3
(g4
g5
(dp6706
g4366
S'WorkCharsetBits'
p6707
sg4368
S'3'
sg20
S'UTF_16'
p6708
stRp6709
ag3
(g4
g5
(dp6710
g4366
S'WorkCharsetBits'
p6711
sg4368
S'4'
sg20
S'SHIFTJIS'
p6712
stRp6713
ag3
(g4
g5
(dp6714
g4366
S'WorkCharsetBits'
p6715
sg4368
S'5'
sg20
S'EUCJP'
p6716
stRp6717
ag3
(g4
g5
(dp6718
g4366
S'WorkCharsetBits'
p6719
sg4368
S'6'
sg20
S'WIN_US_ANSI'
p6720
stRp6721
ag3
(g4
g5
(dp6722
g4366
S'WorkCharsetBits'
p6723
sg4368
S'7'
sg20
S'WIN_US_OEM'
p6724
stRp6725
ag3
(g4
g5
(dp6726
g4366
S'WorkCharsetBits'
p6727
sg4368
S'8'
sg20
S'MACOS_ROMAN'
p6728
stRp6729
ag3
(g4
g5
(dp6730
g4366
S'WorkCharsetBits'
p6731
sg4368
S'9'
sg20
S'ISO8859_15'
p6732
stRp6733
ag3
(g4
g5
(dp6734
g4366
S'WorkCharsetBits'
p6735
sg4368
S'10'
p6736
sg20
S'ISO8859_5'
p6737
stRp6738
ag3
(g4
g5
(dp6739
g4366
S'WorkCharsetBits'
p6740
sg4368
S'11'
p6741
sg20
S'KOI8_R'
p6742
stRp6743
ag3
(g4
g5
(dp6744
g4366
S'WorkCharsetBits'
p6745
sg4368
S'12'
p6746
sg20
S'WIN_CP_1251'
p6747
stRp6748
ag3
(g4
g5
(dp6749
g4366
S'WorkCharsetBits'
p6750
sg4368
S'13'
p6751
sg20
S'UTF_16_LE'
p6752
stRp6753
ag3
(g4
g5
(dp6754
g4366
S'WorkCharsetBits'
p6755
sg4368
S'14'
p6756
sg20
S'UTF_16_BE'
p6757
stRp6758
ag3
(g4
g5
(dp6759
g4366
S'WorkCharsetBits'
p6760
sg4368
S'15'
p6761
sg20
S'UTF_16_LE_BOM'
p6762
stRp6763
ag3
(g4
g5
(dp6764
g4366
S'WorkCharsetBits'
p6765
sg4368
S'16'
p6766
sg20
S'UTF_16_BE_BOM'
p6767
stRp6768
ag3
(g4
g5
(dp6769
g4366
S'WorkCharsetBits'
p6770
sg4368
S'17'
p6771
sg20
S'UTF_16_BOM'
p6772
stRp6773
ag3
(g4
g5
(dp6774
g4366
S'WorkCharsetBits'
p6775
sg4368
S'18'
p6776
sg20
S'UTF_8_BOM'
p6777
stRp6778
ag3
(g4
g5
(dp6779
g4366
S'WorkCharsetBits'
p6780
sg4368
S'19'
p6781
sg20
S'UTF_32'
p6782
stRp6783
ag3
(g4
g5
(dp6784
g4366
S'WorkCharsetBits'
p6785
sg4368
S'20'
p6786
sg20
S'UTF_32_LE'
p6787
stRp6788
ag3
(g4
g5
(dp6789
g4366
S'WorkCharsetBits'
p6790
sg4368
S'21'
p6791
sg20
S'UTF_32_BE'
p6792
stRp6793
ag3
(g4
g5
(dp6794
g4366
S'WorkCharsetBits'
p6795
sg4368
S'22'
p6796
sg20
S'UTF_32_LE_BOM'
p6797
stRp6798
ag3
(g4
g5
(dp6799
g4366
S'WorkCharsetBits'
p6800
sg4368
S'23'
p6801
sg20
S'UTF_32_BE_BOM'
p6802
stRp6803
ag3
(g4
g5
(dp6804
g4366
S'WorkCharsetBits'
p6805
sg4368
S'24'
p6806
sg20
S'UTF_32_BOM'
p6807
stRp6808
ag3
(g4
g5
(dp6809
g4366
S'WorkCharsetBits'
p6810
sg4368
S'25'
p6811
sg20
S'UTF_8_UNCHECKED'
p6812
stRp6813
ag3
(g4
g5
(dp6814
g4366
S'WorkCharsetBits'
p6815
sg4368
S'26'
p6816
sg20
S'UTF_8_UNCHECKED_BOM'
p6817
stRp6818
ag3
(g4
g5
(dp6819
g4366
S'WorkCharsetBits'
p6820
sg4368
S'27'
p6821
sg20
S'CP949'
p6822
stRp6823
ag3
(g4
g5
(dp6824
g4366
S'WorkCharsetBits'
p6825
sg4368
S'28'
p6826
sg20
S'CP936'
p6827
stRp6828
ag3
(g4
g5
(dp6829
g4366
S'WorkCharsetBits'
p6830
sg4368
S'29'
p6831
sg20
S'CP950'
p6832
stRp6833
ag3
(g4
g5
(dp6834
g4366
S'WorkCharsetBits'
p6835
sg4368
S'30'
p6836
sg20
S'CP850'
p6837
stRp6838
ag3
(g4
g5
(dp6839
g4366
S'WorkCharsetBits'
p6840
sg4368
S'31'
p6841
sg20
S'CP858'
p6842
stRp6843
atRp6844
sg15
S'WorkStatus'
p6845
sg4366
g3
(g8
g9
(lp6846
g3
(g4
g5
(dp6847
g15
S'WorkStatusBits'
p6848
sg4368
S'0x00FFFFFF'
p6849
sg20
S'Working table status flags, WorkStatus Flags defined below'
p6850
stRp6851
ag3
(g4
g5
(dp6852
g15
S'WorkCharsetBits'
p6853
sg4368
S'0x7F000000'
p6854
sg20
S'Bits used to store working charset (high 8 bits). Values below have been shifted right 24 bits'
p6855
stRp6856
atRp6857
sg4441
S'Working table charset and status'
p6858
sg17
S'bitmask'
p6859
sg20
S'Working State Flags and Charset'
p6860
stRp6861
atRp6862
stRp6863
s.