(dp1
S'tables'
p2
ccopy_reg
_reconstructor
p3
(clib.sqUtils
Storage
p4
c__builtin__
dict
p5
(dp6
S'table'
p7
g3
(clib.sqUtils
Lst
p8
c__builtin__
list
p9
(lp10
g3
(g4
g5
(dp11
S'version'
p12
S'1'
sS'keying'
p13
S'serverName, name'
p14
sS'name'
p15
S'db.config'
p16
sS'type'
p17
S'Config'
p18
sS'lockseq'
p19
S'1'
sS'desc'
p20
S'Server configurations table'
p21
stRp22
ag3
(g4
g5
(dp23
g12
S'0'
sg13
S'sName, name, version, date, server'
p24
sg15
S'db.configh'
p25
sg17
S'ConfigHist'
p26
sg19
S'2'
sg20
S'Server configuration history'
p27
stRp28
ag3
(g4
g5
(dp29
g12
S'1'
sg13
S'name'
p30
sg15
S'db.counters'
p31
sg17
S'Counters'
p32
sg19
S'3'
sg20
S'Counters table'
p33
stRp34
ag3
(g4
g5
(dp35
g12
S'1'
sg13
S'name'
p36
sg15
S'db.nameval'
p37
sg17
S'Keys'
p38
sg19
S'4'
sg20
S'A table to store key/value pairs'
p39
stRp40
ag3
(g4
g5
(dp41
g12
S'0'
sg13
S'seq'
p42
sg15
S'db.upgrades.rp'
p43
sg17
S'Upgrades'
p44
sg19
S'5'
sg20
S'Store replica upgrade info'
p45
stRp46
ag3
(g4
g5
(dp47
g12
S'0'
sg13
S'seq'
p48
sg15
S'db.upgrades'
p49
sg17
S'Upgrades'
p50
sg19
S'6'
sg20
S'Store server upgrade info'
p51
stRp52
ag3
(g4
g5
(dp53
g12
S'0'
sg13
S'seq'
p54
sg15
S'db.logger'
p55
sg17
S'Logger'
p56
sg19
S'7'
sg20
S"Support for 'p4 logger' command. Logs any changes to\n                changelists and jobs"
p57
stRp58
ag3
(g4
g5
(dp59
g12
S'0'
sg13
S'name'
p60
sg15
S'db.ldap'
p61
sg17
S'Ldap'
p62
sg19
S'8'
sg20
S'LDAP specifications'
p63
stRp64
ag3
(g4
g5
(dp65
g12
S'3'
sg13
S'id'
p66
sg15
S'db.server'
p67
sg17
S'Server'
p68
sg19
S'9'
sg20
S'Server specifications'
p69
stRp70
ag3
(g4
g5
(dp71
g12
S'0'
sg13
S'id, type, seq'
p72
sg15
S'db.svrview'
p73
sg17
S'SvrView'
p74
sg19
S'10'
p75
sg20
S'View data for servers specifications'
p76
stRp77
ag3
(g4
g5
(dp78
g12
S'1'
sg13
S'id'
p79
sg15
S'db.remote'
p80
sg17
S'Remote'
p81
sg19
S'11'
p82
sg20
S'Remote specifications'
p83
stRp84
ag3
(g4
g5
(dp85
g12
S'1'
sg13
S'id, seq'
p86
sg15
S'db.rmtview'
p87
sg17
S'RmtView'
p88
sg19
S'12'
p89
sg20
S'View data for remote specifications'
p90
stRp91
ag3
(g4
g5
(dp92
g12
S'0'
sg13
S'client, stream, type, seq'
p93
sg15
S'db.stash'
p94
sg17
S'Stash'
p95
sg19
S'13'
p96
sg20
S'Stash data'
p97
stRp98
ag3
(g4
g5
(dp99
g12
S'7'
sg13
S'user'
p100
sg15
S'db.user.rp'
p101
sg17
S'User'
p102
sg19
S'14'
p103
sg20
S"Used by replica server's to store login information"
p104
stRp105
ag3
(g4
g5
(dp106
g12
S'7'
sg13
S'user'
p107
sg15
S'db.user'
p108
sg17
S'User'
p109
sg19
S'15'
p110
sg20
S'User specifications'
p111
stRp112
ag3
(g4
g5
(dp113
g12
S'0'
sg13
S'user, host'
p114
sg15
S'db.ticket.rp'
p115
sg17
S'Ticket'
p116
sg19
S'16'
p117
sg20
S'Second factor authentication state on a per user/host basis (replica)'
p118
stRp119
ag3
(g4
g5
(dp120
g12
S'0'
sg13
S'user, host'
p121
sg15
S'db.ticket'
p122
sg17
S'Ticket'
p123
sg19
S'17'
p124
sg20
S'Second factor authentication state on a per user/host basis'
p125
stRp126
ag3
(g4
g5
(dp127
g12
S'9'
sg13
S'user, group'
p128
sg15
S'db.group'
p129
sg17
S'Group'
p130
sg19
S'18'
p131
sg20
S'Group specifications'
p132
stRp133
ag3
(g4
g5
(dp134
g12
S'1'
sg13
S'group'
p135
sg15
S'db.groupx'
p136
sg17
S'GroupX'
p137
sg19
S'19'
p138
sg20
S'Per-group data to support group membership controlled by AD/LDAP group membership'
p139
stRp140
ag3
(g4
g5
(dp141
g12
S'1'
sg13
S'name'
p142
sg15
S'db.depot'
p143
sg17
S'Depot'
p144
sg19
S'20'
p145
sg20
S'Depot specifications'
p146
stRp147
ag3
(g4
g5
(dp148
g12
S'1'
sg13
S'stream'
p149
sg15
S'db.stream'
p150
sg17
S'Stream'
p151
sg19
S'21'
p152
sg20
S'Stream specifications'
p153
stRp154
ag3
(g4
g5
(dp155
g12
S'1'
sg13
S'toKey, attr, fromKey, endfromChange'
p156
sg15
S'db.integedss'
p157
sg17
S'StreamSpecInteged'
p158
sg19
S'22'
p159
sg20
S'Stream specification integration history'
p160
stRp161
ag3
(g4
g5
(dp162
g12
S'7'
sg13
S'name'
p163
sg15
S'db.domain'
p164
sg17
S'Domain'
p165
sg19
S'23'
p166
sg20
S'Domains: depots, clients, labels, branches, streams, and typemap'
p167
stRp168
ag3
(g4
g5
(dp169
g12
S'2'
sg13
S'name, change, seq'
p170
sg15
S'db.template'
p171
sg17
S'Template'
p172
sg19
S'24'
p173
sg20
S'Streams templates'
p174
stRp175
ag3
(g4
g5
(dp176
g12
S'2'
sg13
S'shelf, name, seq'
p177
sg15
S'db.templatesx'
p178
sg17
S'TemplateSx'
p179
sg19
S'25'
p180
sg20
S'Shelved stream templates'
p181
stRp182
ag3
(g4
g5
(dp183
g12
S'2'
sg13
S'client, name, seq'
p184
sg15
S'db.templatewx'
p185
sg17
S'TemplateWx'
p186
sg19
S'26'
p187
sg20
S'Pending stream templates'
p188
stRp189
ag3
(g4
g5
(dp190
g12
S'1'
sg13
S'name, seq'
p191
sg15
S'db.view.rp'
p192
sg17
S'View'
p193
sg19
S'27'
p194
sg20
S'View data for clients of build-server replicas'
p195
stRp196
ag3
(g4
g5
(dp197
g12
S'1'
sg13
S'name, seq'
p198
sg15
S'db.view'
p199
sg17
S'View'
p200
sg19
S'28'
p201
sg20
S'View data for domain records'
p202
stRp203
ag3
(g4
g5
(dp204
g12
S'1'
sg13
S'name, seq'
p205
sg15
S'db.haveview'
p206
sg17
S'View'
p207
sg19
S'30'
p208
sg20
S'Stores mapping changes for clients mapping graph depot content'
p209
stRp210
ag3
(g4
g5
(dp211
g12
S'1'
sg13
S'user, seq'
p212
sg15
S'db.review'
p213
sg17
S'Review'
p214
sg19
S'31'
p215
sg20
S"User's review mappings"
p216
stRp217
ag3
(g4
g5
(dp218
g12
S'0'
sg13
S'name, depotFile'
p219
sg15
S'db.label'
p220
sg17
S'Label'
p221
sg19
S'32'
p222
sg20
S'Revisions of files in labels'
p223
stRp224
ag3
(g4
g5
(dp225
g12
S'3'
sg13
S'clientFile'
p226
sg15
S'db.have.rp'
p227
sg17
S'Have'
p228
sg19
S'33'
p229
sg20
S"Contains the 'have-list' for clients of build-server replicas"
p230
stRp231
ag3
(g4
g5
(dp232
g12
S'3'
sg13
S'clientFile'
p233
sg15
S'db.have.pt'
p234
sg17
S'Have'
p235
sg19
S'34'
p236
sg20
S'Placeholder for read-only clients'
p237
stRp238
ag3
(g4
g5
(dp239
g12
S'3'
sg13
S'clientFile'
p240
sg15
S'db.have'
p241
sg17
S'Have'
p242
sg19
S'35'
p243
sg20
S"Contains the 'have-list' for all clients"
p244
stRp245
ag3
(g4
g5
(dp246
g12
S'0'
sg13
S'toFile, fromFile, startFromRev, endFromRev,\n                startToRev, endToRev'
p247
sg15
S'db.integed'
p248
sg20
S'Permanent integration records'
p249
sg17
S'Integed'
p250
sg19
S'37'
p251
sS'seeAlso'
p252
S'db.resolve'
p253
stRp254
ag3
(g4
g5
(dp255
g12
S'0'
sg13
S'toFile, fromFile, startFromRev, endFromRev,\n                startToRev, endToRev'
p256
sg15
S'db.integtx'
p257
sg20
S'Temporary integration records used by task streams'
p258
sg17
S'Integed'
p259
sg19
S'38'
p260
sg252
S'db.resolve'
p261
stRp262
ag3
(g4
g5
(dp263
g12
S'1'
sg13
S'toFile, fromFile, startFromRev'
p264
sg15
S'db.resolve'
p265
sg20
S'Pending integration records'
p266
sg17
S'Resolve'
p267
sg19
S'39'
p268
sg252
S'db.integed'
p269
stRp270
ag3
(g4
g5
(dp271
g12
S'1'
sg13
S'toFile, fromFile, startFromRev'
p272
sg15
S'db.resolvex'
p273
sg20
S'Pending integration records for shelved files'
p274
sg17
S'Resolve'
p275
sg19
S'40'
p276
sg252
S'db.integed'
p277
stRp278
ag3
(g4
g5
(dp279
g12
S'0'
sg13
S'toFile, fromFile, baseSha'
p280
sg15
S'db.resolveg'
p281
sg17
S'ResolveG'
p282
sg19
S'41'
p283
sg20
S'Resolve records for clients of type graph'
p284
stRp285
ag3
(g4
g5
(dp286
g12
S'0'
sg13
S'lskey, seq'
p287
sg15
S'db.scandir'
p288
sg17
S'ScanDir'
p289
sg19
S'44'
p290
sg20
S'Scandir'
p291
stRp292
ag3
(g4
g5
(dp293
g12
S'0'
sg13
S'file'
p294
sg15
S'db.scanctl'
p295
sg17
S'ScanCtl'
p296
sg19
S'45'
p297
sg20
S'ScanCtl'
p298
stRp299
ag3
(g4
g5
(dp300
g12
S'1'
sg13
S'file, rev, type'
p301
sg15
S'db.storagesh'
p302
sg17
S'Storage'
p303
sg19
S'46'
p304
sg20
S'Track references to shelved archive files'
p305
stRp306
ag3
(g4
g5
(dp307
S'note'
p308
S'Supersedes db.archmap in 2019.1'
p309
sg12
S'1'
sg13
S'file, rev, type'
p310
sg20
S'Track references to archive files'
p311
sg17
S'Storage'
p312
sg19
S'47'
p313
sg15
S'db.storage'
p314
stRp315
ag3
(g4
g5
(dp316
g12
S'0'
sg13
S'repo, sha, type'
p317
sg15
S'db.storageg'
p318
sg17
S'StorageG'
p319
sg19
S'48'
p320
sg20
S'Track references to Graph Depot archive files (for future use)'
p321
stRp322
ag3
(g4
g5
(dp323
g12
S'0'
sg13
S'digest,size,file,rev,type'
p324
sg15
S'db.storagesx'
p325
sg17
S'StorageIdx'
p326
sg19
S'49'
p327
sg20
S'Digest and filesize based index for db.storagesh, for finding shelved files with identical content'
p328
stRp329
ag3
(g4
g5
(dp330
g12
S'9'
sg13
S'depotFile'
p331
sg15
S'db.revdx'
p332
sg17
S'Rev'
p333
sg19
S'50'
p334
sg20
S'Revision records for revisions deleted at the head revision'
p335
stRp336
ag3
(g4
g5
(dp337
g12
S'9'
sg13
S'depotFile'
p338
sg15
S'db.revhx'
p339
sg17
S'Rev'
p340
sg19
S'51'
p341
sg20
S'Revision records for revisions NOT deleted at the head revision'
p342
stRp343
ag3
(g4
g5
(dp344
g308
S'Only populated during content trigger execution to allow\n                triggers access to the revisions being submitted.'
p345
sg12
S'9'
sg13
S'depotFile, depotRev'
p346
sg20
S'Pending revision records'
p347
sg17
S'Rev'
p348
sg19
S'52'
p349
sg15
S'db.revpx'
p350
stRp351
ag3
(g4
g5
(dp352
g12
S'9'
sg13
S'depotFile, depotRev'
p353
sg15
S'db.revsx'
p354
sg17
S'Rev'
p355
sg19
S'53'
p356
sg20
S'Revision records for spec depot files'
p357
stRp358
ag3
(g4
g5
(dp359
g12
S'9'
sg13
S'depotFile, depotRev, type, action, change'
p360
sg15
S'db.revsh'
p361
sg17
S'Rev'
p362
sg19
S'54'
p363
sg20
S'Revision records for shelved files'
p364
stRp365
ag3
(g4
g5
(dp366
g12
S'9'
sg13
S'depotFile, depotRev'
p367
sg15
S'db.revbx'
p368
sg17
S'Rev'
p369
sg19
S'55'
p370
sg20
S'Revision records for archived files'
p371
stRp372
ag3
(g4
g5
(dp373
g12
S'9'
sg13
S'depotFile, depotRev'
p374
sg15
S'db.revux'
p375
sg17
S'Rev'
p376
sg19
S'56'
p377
sg20
S'Revision records for unload depot files'
p378
stRp379
ag3
(g4
g5
(dp380
g12
S'0'
sg13
S'change, depotFile'
p381
sg15
S'db.revcx'
p382
sg17
S'RevCx'
p383
sg19
S'57'
p384
sg20
S'Secondary index of db.rev'
p385
stRp386
ag3
(g4
g5
(dp387
g12
S'9'
sg13
S'depotFile, depotRev'
p388
sg15
S'db.rev'
p389
sg17
S'Rev'
p390
sg19
S'58'
p391
sg20
S'Revision records'
p392
stRp393
ag3
(g4
g5
(dp394
g12
S'9'
sg13
S'depotFile, depotRev'
p395
sg15
S'db.revtx'
p396
sg17
S'Rev'
p397
sg19
S'59'
p398
sg20
S'Task stream revision records'
p399
stRp400
ag3
(g4
g5
(dp401
g12
S'9'
sg13
S'depotFile, depotRev'
p402
sg15
S'db.revstg'
p403
sg17
S'Rev'
p404
sg19
S'60'
p405
sg20
S'Temporary revision records for storage upgrade process'
p406
stRp407
ag3
(g4
g5
(dp408
g12
S'2'
sg13
S'depotFile, client'
p409
sg15
S'db.locks'
p410
sg17
S'Locks'
p411
sg19
S'61'
p412
sg20
S'Locked/Unlocked files'
p413
stRp414
ag3
(g4
g5
(dp415
g12
S'2'
sg13
S'depotFile, client'
p416
sg15
S'db.locksg'
p417
sg17
S'Locks'
p418
sg19
S'62'
p419
sg20
S'Lock records for clients of type graph'
p420
stRp421
ag3
(g4
g5
(dp422
g12
S'10'
p423
sg13
S'clientFile'
p424
sg15
S'db.working'
p425
sg17
S'Working'
p426
sg19
S'63'
p427
sg20
S'Records for work in progress'
p428
stRp429
ag3
(g4
g5
(dp430
g12
S'10'
p431
sg13
S'clientFile'
p432
sg15
S'db.workingx'
p433
sg17
S'Working'
p434
sg19
S'64'
p435
sg20
S'Records for shelved open files'
p436
stRp437
ag3
(g4
g5
(dp438
g12
S'0'
sg13
S'clientFile'
p439
sg15
S'db.workingg'
p440
sg17
S'WorkingG'
p441
sg19
S'65'
p442
sg20
S'Working records for clients of type graph'
p443
stRp444
ag3
(g4
g5
(dp445
g12
S'0'
sg13
S'repo, clientFile'
p446
sg15
S'db.haveg'
p447
sg17
S'Haveg'
p448
sg19
S'66'
p449
sg20
S"Contains the 'have-list' for graph depot files that are not at the same revision as defined by the\n                client's have reference."
p450
stRp451
ag3
(g4
g5
(dp452
g12
S'1'
sg13
S'depotFile'
p453
sg15
S'db.excl'
p454
sg17
S'ExclusiveLock'
p455
sg19
S'67'
p456
sg20
S'Exclusively locked (+l) files - enables coordinated file locking in commit/edge server environments'
p457
stRp458
ag3
(g4
g5
(dp459
g12
S'0'
sg13
S'repo, ref, file'
p460
sg15
S'db.exclg'
p461
sg17
S'ExclG'
p462
sg19
S'68'
p463
sg20
S'Graph depot LFS locks'
p464
stRp465
ag3
(g4
g5
(dp466
g12
S'0'
sg13
S'lockId'
p467
sg15
S'db.exclgx'
p468
sg17
S'ExclGX'
p469
sg19
S'69'
p470
sg20
S'Graph depot LFS locks indexed by lockId'
p471
stRp472
ag3
(g4
g5
(dp473
g12
S'0'
sg13
S'traitLot, name'
p474
sg15
S'db.traits'
p475
sg17
S'Trait'
p476
sg19
S'70'
p477
sg20
S'Attributes associated with file revisions'
p478
stRp479
ag3
(g4
g5
(dp480
g12
S'3'
sg13
S'seq'
p481
sg15
S'db.trigger'
p482
sg17
S'Trigger'
p483
sg19
S'71'
p484
sg20
S'Trigger specifications'
p485
stRp486
ag3
(g4
g5
(dp487
g12
S'6'
sg13
S'change'
p488
sg15
S'db.change'
p489
sg17
S'Change'
p490
sg19
S'72'
p491
sg20
S'Changelists'
p492
stRp493
ag3
(g4
g5
(dp494
g308
S'contains records for pending changelists only.'
p495
sg12
S'6'
sg13
S'change'
p496
sg20
S'Subset of db.change - records for pending changelists only'
p497
sg17
S'Change'
p498
sg19
S'73'
p499
sg15
S'db.changex'
p500
stRp501
ag3
(g4
g5
(dp502
g12
S'1'
sg13
S'identity'
p503
sg15
S'db.changeidx'
p504
sg17
S'ChangeIdx'
p505
sg19
S'74'
p506
sg20
S'Secondary index of db.change/db.changex'
p507
stRp508
ag3
(g4
g5
(dp509
g12
S'0'
sg13
S'descKey'
p510
sg15
S'db.desc'
p511
sg17
S'Desc'
p512
sg19
S'75'
p513
sg20
S'Change descriptions'
p514
stRp515
ag3
(g4
g5
(dp516
g12
S'3'
sg13
S'repo'
p517
sg15
S'db.repo'
p518
sg17
S'Repo'
p519
sg19
S'76'
p520
sg20
S'Repository specifications'
p521
stRp522
ag3
(g4
g5
(dp523
g12
S'0'
sg13
S'repo, type, name, date, action, user, ref'
p524
sg15
S'db.refhist'
p525
sg17
S'RefHist'
p526
sg19
S'77'
p527
sg20
S'Reference history for graph depots'
p528
stRp529
ag3
(g4
g5
(dp530
g12
S'0'
sg13
S'repo, type, name'
p531
sg15
S'db.ref'
p532
sg17
S'Ref'
p533
sg19
S'78'
p534
sg20
S'Reference content for graph depots'
p535
stRp536
ag3
(g4
g5
(dp537
g12
S'0'
sg13
S'sha'
p538
sg15
S'db.object'
p539
sg17
S'Object'
p540
sg19
S'79'
p541
sg20
S'Object storage for graph depots'
p542
stRp543
ag3
(g4
g5
(dp544
g12
S'1'
sg13
S'id, name, date, blobSha, commitSha'
p545
sg15
S'db.graphindex'
p546
sg17
S'GraphIndex'
p547
sg19
S'80'
p548
sg20
S'Graph depot repository index data'
p549
stRp550
ag3
(g4
g5
(dp551
g12
S'0'
sg13
S'name, repo, ref, type, user, perm'
p552
sg15
S'db.graphperm'
p553
sg17
S'GraphPerm'
p554
sg19
S'81'
p555
sg20
S'Graph depot permissions'
p556
stRp557
ag3
(g4
g5
(dp558
g12
S'0'
sg13
S'repo, path'
p559
sg15
S'db.submodule'
p560
sg17
S'Submodule'
p561
sg19
S'82'
p562
sg20
S'Submodule configuration data'
p563
stRp564
ag3
(g4
g5
(dp565
g12
S'0'
sg13
S'user, scope'
p566
sg15
S'db.pubkey'
p567
sg17
S'PublicKey'
p568
sg19
S'83'
p569
sg20
S'SSH Public keys'
p570
stRp571
ag3
(g4
g5
(dp572
g12
S'0'
sg13
S'job'
p573
sg15
S'db.job'
p574
sg20
S'Job records'
p575
sg17
S'Job'
p576
sg19
S'84'
p577
sg252
S'db.bodtext'
p578
stRp579
ag3
(g4
g5
(dp580
g12
S'1'
sg13
S'job, change'
p581
sg15
S'db.fix'
p582
sg20
S'Fix records - indexed by job'
p583
sg17
S'Fix'
p584
sg19
S'87'
p585
sg252
S'db.fixrev'
p586
stRp587
ag3
(g4
g5
(dp588
g12
S'1'
sg13
S'change, job'
p589
sg15
S'db.fixrev'
p590
sg20
S'Fix records - indexed by change'
p591
sg17
S'Fix'
p592
sg19
S'88'
p593
sg252
S'db.fix'
p594
stRp595
ag3
(g4
g5
(dp596
g12
S'1'
sg13
S'type, client, toKey, attr, fromKey, fromChange'
p597
sg15
S'db.bodresolve'
p598
sg17
S'BodyResolve'
p599
sg19
S'90'
p600
sg20
S'Resolve data for stream specifications'
p601
stRp602
ag3
(g4
g5
(dp603
g12
S'0'
sg13
S'type, shelf, toKey, attr, fromKey, fromChange'
p604
sg15
S'db.bodresolvex'
p605
sg17
S'BodyResolveX'
p606
sg19
S'91'
p607
sg20
S'Pending integration records for shelved stream specifications'
p608
stRp609
ag3
(g4
g5
(dp610
g12
S'1'
sg13
S'key, attr'
p611
sg15
S'db.bodtext'
p612
sg17
S'BodyText'
p613
sg19
S'92'
p614
sg20
S'Job data for job attributes'
p615
stRp616
ag3
(g4
g5
(dp617
g12
S'0'
sg13
S'type, key, change, attr'
p618
sg15
S'db.bodtextcx'
p619
sg17
S'BodyTextCx'
p620
sg19
S'93'
p621
sg20
S'Versioned openable spec fields'
p622
stRp623
ag3
(g4
g5
(dp624
g12
S'0'
sg13
S'type, key, attr'
p625
sg15
S'db.bodtexthx'
p626
sg17
S'BodyTextHx'
p627
sg19
S'94'
p628
sg20
S'Head revision of spec fields'
p629
stRp630
ag3
(g4
g5
(dp631
g12
S'1'
sg13
S'type, shelf, key, attr'
p632
sg15
S'db.bodtextsx'
p633
sg17
S'BodyTextSx'
p634
sg19
S'95'
p635
sg20
S'Shelved openable spec fields'
p636
stRp637
ag3
(g4
g5
(dp638
g12
S'1'
sg13
S'type, client, key, attr'
p639
sg15
S'db.bodtextwx'
p640
sg17
S'BodyTextWx'
p641
sg19
S'96'
p642
sg20
S'Open openable spec fields'
p643
stRp644
ag3
(g4
g5
(dp645
g12
S'0'
sg13
S'word, attr, value'
p646
sg15
S'db.ixtext'
p647
sg17
S'IndexText'
p648
sg19
S'98'
p649
sg20
S'Indexing data for generic and job attributes'
p650
stRp651
ag3
(g4
g5
(dp652
g12
S'0'
sg13
S'type, word, attr, value'
p653
sg15
S'db.ixtexthx'
p654
sg17
S'IndexTextHx'
p655
sg19
S'99'
p656
sg20
S'Indexing data for head revision of all spec fields'
p657
stRp658
ag3
(g4
g5
(dp659
g12
S'0'
sg13
S'word, attr, value'
p660
sg15
S'db.uxtext'
p661
sg17
S'IndexText'
p662
sg19
S'100'
p663
sg20
S'Indexing data for Swarm'
p664
stRp665
ag3
(g4
g5
(dp666
g12
S'5'
sg13
S'seq'
p667
sg15
S'db.protect'
p668
sg17
S'Protect'
p669
sg19
S'101'
p670
sg20
S'The protections table'
p671
stRp672
ag3
(g4
g5
(dp673
g12
S'0'
sg13
S'name, seq, type, scope'
p674
sg15
S'db.property'
p675
sg17
S'Property'
p676
sg19
S'102'
p677
sg20
S'Properties'
p678
stRp679
ag3
(g4
g5
(dp680
g12
S'0'
sg13
S'language, id'
p681
sg15
S'db.message'
p682
sg17
S'Message'
p683
sg19
S'103'
p684
sg20
S'System messages'
p685
stRp686
ag3
(g4
g5
(dp687
g12
S'4'
sg13
S'taskid, seq'
p688
sg15
S'db.sendq'
p689
sg17
S'SendQ'
p690
sg19
S'104'
p691
sg20
S'Parallel file transmission work queue'
p692
stRp693
ag3
(g4
g5
(dp694
g12
S'4'
sg13
S'taskid, seq'
p695
sg15
S'db.sendq.pt'
p696
sg17
S'SendQ'
p697
sg19
S'105'
p698
sg20
S'Per Client transmission work queue'
p699
stRp700
ag3
(g4
g5
(dp701
g12
S'1'
sg13
S'serverId'
p702
sg15
S'db.jnlack'
p703
sg17
S'JnlAck'
p704
sg19
S'106'
p705
sg20
S'Tracks journal positions of all replicas'
p706
stRp707
ag3
(g4
g5
(dp708
g12
S'2'
sg13
S'id'
p709
sg15
S'db.monitor'
p710
sg17
S'Monitor'
p711
sg19
S'107'
p712
sg20
S'Helix Server process information'
p713
stRp714
ag3
(g4
g5
(dp715
g12
S'3'
sg17
S'ReplicaArchiveTransfer'
p716
sg13
S'file, rev'
p717
sg15
S'rdb.lbr'
p718
sg20
S'Replica server pending archive transfer table'
p719
stRp720
ag3
(g4
g5
(dp721
g12
S'3'
sg17
S'ReplicaArchiveTransfer'
p722
sg13
S'file, rev'
p723
sg15
S'pdb.lbr'
p724
sg20
S'Proxy server pending archive transfer table'
p725
stRp726
ag3
(g4
g5
(dp727
g12
S'0'
sg17
S'TinyDb'
p728
sg13
S'key'
p729
sg15
S'tiny.db'
p730
sg20
S'Records content data for tiny files using the +T file type modifier'
p731
stRp732
atRp733
stRp734
sS'numUpgrades'
p735
S'39'
p736
sS'commit_upgrades'
p737
g3
(g4
g5
(dp738
S'commit_upgrade'
p739
g3
(g8
g9
(lp740
g3
(g4
g5
(dp741
S'release'
p742
S'2013.2'
p743
sS'index'
p744
S'commit-server'
p745
sg308
S'Generate exclusive lock records in db.excl based on db.working data.'
p746
sg20
S'Generate exclusive locks'
p747
stRp748
ag3
(g4
g5
(dp749
g742
S'2014.1'
p750
sg744
S'commit-server'
p751
sg308
S'Promote existing shelves by updating changeStatus in db.change and db.changex.'
p752
sg20
S'Promote Shelves'
p753
stRp754
atRp755
stRp756
sS'server_versions'
p757
g3
(g4
g5
(dp758
S'server_version'
p759
g3
(g8
g9
(lp760
g3
(g4
g5
(dp761
g12
S'97.1'
p762
sS'level'
p763
S'1'
stRp764
ag3
(g4
g5
(dp765
g12
S'97.2'
p766
sg763
S'2'
stRp767
ag3
(g4
g5
(dp768
g12
S'97.3'
p769
sg763
S'3'
stRp770
ag3
(g4
g5
(dp771
g12
S'98.2 (early)'
p772
sg763
S'4'
stRp773
ag3
(g4
g5
(dp774
g12
S'98.2'
p775
sg763
S'5'
stRp776
ag3
(g4
g5
(dp777
g12
S'99.1 (early)'
p778
sg763
S'6'
stRp779
ag3
(g4
g5
(dp780
g12
S'99.1'
p781
sg763
S'7'
stRp782
ag3
(g4
g5
(dp783
g12
S'99.2'
p784
sg763
S'8'
stRp785
ag3
(g4
g5
(dp786
g12
S'2000.1'
p787
sg763
S'9'
stRp788
ag3
(g4
g5
(dp789
g12
S'2000.2'
p790
sg763
S'10'
p791
stRp792
ag3
(g4
g5
(dp793
S'removed'
p794
S'db.jobpend db.jobdesc'
p795
sg12
S'2001.1'
p796
sg763
S'11'
p797
stRp798
ag3
(g4
g5
(dp799
g12
S'2001.2'
p800
sg763
S'12'
p801
stRp802
ag3
(g4
g5
(dp803
g12
S'2002.1'
p804
sg763
S'13'
p805
stRp806
ag3
(g4
g5
(dp807
g12
S'2002.2'
p808
sg763
S'14'
p809
stRp810
ag3
(g4
g5
(dp811
g12
S'2003.1 (early)'
p812
sg763
S'15'
p813
stRp814
ag3
(g4
g5
(dp815
g12
S'2003.1'
p816
sg763
S'16'
p817
stRp818
ag3
(g4
g5
(dp819
g12
S'2003.2'
p820
sg763
S'17'
p821
stRp822
ag3
(g4
g5
(dp823
g12
S'2004.2'
p824
sg763
S'18'
p825
stRp826
ag3
(g4
g5
(dp827
g12
S'2005.1'
p828
sg763
S'19'
p829
stRp830
ag3
(g4
g5
(dp831
g12
S'2005.2'
p832
sS'added'
p833
S'db.revdx db.revsx'
p834
sg763
S'20'
p835
stRp836
ag3
(g4
g5
(dp837
g12
S'2006.1'
p838
sg763
S'21'
p839
stRp840
ag3
(g4
g5
(dp841
g794
S'db.archive'
p842
sg12
S'2006.2'
p843
sg833
S'db.archmap'
p844
sg763
S'22'
p845
stRp846
ag3
(g4
g5
(dp847
g12
S'2007.2'
p848
sg763
S'23'
p849
stRp850
ag3
(g4
g5
(dp851
g12
S'2007.3'
p852
sg763
S'24'
p853
stRp854
ag3
(g4
g5
(dp855
g12
S'2008.1'
p856
sg763
S'25'
p857
stRp858
ag3
(g4
g5
(dp859
g12
S'2008.2'
p860
sg763
S'26'
p861
stRp862
ag3
(g4
g5
(dp863
g12
S'2009.1'
p864
sg833
S'db.stream'
p865
sg763
S'27'
p866
stRp867
ag3
(g4
g5
(dp868
g794
S'db.boddate db.ixdate'
p869
sg12
S'2009.2'
p870
sg833
S'db.resolvex db.revsh db.workingx'
p871
sg763
S'28'
p872
stRp873
ag3
(g4
g5
(dp874
g12
S'2010.1'
p875
sg833
S'db.nameval db.template db.revbx'
p876
sg763
S'29'
p877
stRp878
ag3
(g4
g5
(dp879
g12
S'2010.2'
p880
sg833
S'db.config'
p881
sg763
S'30'
p882
stRp883
ag3
(g4
g5
(dp884
g12
S'2011.1'
p885
sg833
S'db.user.rp'
p886
sg763
S'31'
p887
stRp888
ag3
(g4
g5
(dp889
g12
S'2012.1'
p890
sg833
S'db.server db.view.rp db.have.rp'
p891
sg763
S'32'
p892
stRp893
ag3
(g4
g5
(dp894
g12
S'2012.2'
p895
sg833
S'db.revux'
p896
sg763
S'33'
p897
stRp898
ag3
(g4
g5
(dp899
g12
S'2013.1'
p900
sg833
S'db.srvview db.integtx db.property db.revtx'
p901
sg763
S'34'
p902
stRp903
ag3
(g4
g5
(dp904
g12
S'2013.2'
p905
sg833
S'db.excl'
p906
sg763
S'35'
p907
stRp908
ag3
(g4
g5
(dp909
g12
S'2013.3'
p910
sg763
S'36'
p911
stRp912
ag3
(g4
g5
(dp913
g12
S'2014.1'
p914
sg833
S'db.sendq db.sendq.pt db.uxtext'
p915
sg763
S'37'
p916
stRp917
ag3
(g4
g5
(dp918
g12
S'2014.2'
p919
sg833
S'db.jnlack'
p920
sg763
S'38'
p921
stRp922
ag3
(g4
g5
(dp923
g12
S'2015.1'
p924
sg833
S'db.remote db.rmtview db.stash db.groupx'
p925
sg763
S'39'
p926
stRp927
ag3
(g4
g5
(dp928
g12
S'2015.2'
p929
sg833
S'db.changeidx db.have.pt db.ldap'
p930
sg763
S'40'
p931
stRp932
ag3
(g4
g5
(dp933
g12
S'2016.1'
p934
sg833
S'db.bodresolve db.bodtextcx db.bodtexthx db.bodtextwx db.ixtexthx db.templatesx db.templatewx'
p935
sg763
S'41'
p936
stRp937
ag3
(g4
g5
(dp938
g12
S'2016.2'
p939
sg833
S'db.graphperm db.object db.pubkey db.ref db.refhist db.repo db.repoview'
p940
sg763
S'42'
p941
stRp942
ag3
(g4
g5
(dp943
g794
S'db.repoview db.submodule'
p944
sg12
S'2017.2'
p945
sg833
S'db.haveview'
p946
sg763
S'43'
p947
stRp948
ag3
(g4
g5
(dp949
g12
S'2017.2'
p950
sg833
S'db.ticket.rp db.ticket db.graphindex'
p951
sg763
S'44'
p952
stRp953
ag3
(g4
g5
(dp954
g12
S'2018.1'
p955
sg833
S'db.haveg'
p956
sg763
S'45'
p957
stRp958
ag3
(g4
g5
(dp959
g12
S'2018.2'
p960
sg763
S'46'
p961
stRp962
ag3
(g4
g5
(dp963
g794
S'db.archmap'
p964
sg12
S'2019.1'
p965
sg833
S'db.exclg db.exclgx db.storagesh db.storage db.storageg db.revstg'
p966
sg763
S'47'
p967
stRp968
ag3
(g4
g5
(dp969
g12
S'2019.1 patch 2'
p970
sg763
S'48'
p971
stRp972
ag3
(g4
g5
(dp973
g12
S'2019.2'
p974
sg833
S'db.configh db.upgrades.rp db.scandir db.scanctl'
p975
sg763
S'49'
p976
stRp977
ag3
(g4
g5
(dp978
g12
S'2020.1'
p979
sg833
S'db.integedss db.bodresolvex'
p980
sg763
S'50'
p981
stRp982
ag3
(g4
g5
(dp983
g12
S'2020.2'
p984
sg833
S'db.storagesx'
p985
sg763
S'51'
p986
stRp987
atRp988
stRp989
sg12
S'2020.2'
p990
sS'recordtypes'
p991
g3
(g4
g5
(dp992
S'record'
p993
g3
(g8
g9
(lp994
g3
(g4
g5
(dp995
S'column'
p996
g3
(g8
g9
(lp997
g3
(g4
g5
(dp998
g17
S'File'
p999
sg15
S'lbrFile'
p1000
sg20
S"Specifies the location in the librarian's archives where\n                    the revision may be found"
p1001
stRp1002
ag3
(g4
g5
(dp1003
g17
S'String'
p1004
sg15
S'lbrRev'
p1005
sg20
S"Revision in the librarian's archives"
p1006
stRp1007
ag3
(g4
g5
(dp1008
g17
S'File'
p1009
sg15
S'depotFile'
p1010
sg20
S'Name of the file in the depot'
p1011
stRp1012
ag3
(g4
g5
(dp1013
g17
S'Rev'
p1014
sg15
S'depotRev'
p1015
sg20
S'Name of the file in the depot'
p1016
stRp1017
ag3
(g4
g5
(dp1018
g17
S'FileType'
p1019
sg15
S'lbrType'
p1020
sg20
S"File type for librarian's purposes"
p1021
stRp1022
atRp1023
sg15
S'Archive'
p1024
stRp1025
ag3
(g4
g5
(dp1026
g996
g3
(g8
g9
(lp1027
g3
(g4
g5
(dp1028
g17
S'File'
p1029
sg15
S'lbrFile'
p1030
sg20
S'Paths in the librarian namespace that receive lazy\n                    copies.'
p1031
stRp1032
ag3
(g4
g5
(dp1033
g17
S'File'
p1034
sg15
S'depotFile'
p1035
sg20
S'Paths in the depot namespace that provide lazy copies.'
p1036
stRp1037
atRp1038
sg15
S'ArchMap'
p1039
stRp1040
ag3
(g4
g5
(dp1041
g996
g3
(g8
g9
(lp1042
g3
(g4
g5
(dp1043
g17
S'Key'
p1044
sg15
S'key'
p1045
sg20
S'The job to which this attribute belongs'
p1046
stRp1047
ag3
(g4
g5
(dp1048
g17
S'Int'
p1049
sg15
S'attr'
p1050
sg20
S'The attribute number (from the jobspec) of this attribute'
p1051
stRp1052
ag3
(g4
g5
(dp1053
g17
S'Date'
p1054
sg15
S'date'
p1055
sg20
S'The date value itself'
p1056
stRp1057
atRp1058
sg15
S'BodyDate'
p1059
stRp1060
ag3
(g4
g5
(dp1061
g996
g3
(g8
g9
(lp1062
g3
(g4
g5
(dp1063
g17
S'SpecType'
p1064
sg15
S'type'
p1065
sg20
S'The spec type'
p1066
stRp1067
ag3
(g4
g5
(dp1068
g17
S'Domain'
p1069
sg15
S'client'
p1070
sg20
S'The client name'
p1071
stRp1072
ag3
(g4
g5
(dp1073
g17
S'Key'
p1074
sg15
S'toKey'
p1075
sg20
S'To Key'
p1076
stRp1077
ag3
(g4
g5
(dp1078
g17
S'Int'
p1079
sg15
S'attr'
p1080
sg20
S'The attribute value'
p1081
stRp1082
ag3
(g4
g5
(dp1083
g17
S'Key'
p1084
sg15
S'fromKey'
p1085
sg20
S'From key'
p1086
stRp1087
ag3
(g4
g5
(dp1088
g17
S'Change'
p1089
sg15
S'fromChange'
p1090
sg20
S'From change'
p1091
stRp1092
ag3
(g4
g5
(dp1093
g17
S'Key'
p1094
sg15
S'baseKey'
p1095
sg20
S'Base Key'
p1096
stRp1097
ag3
(g4
g5
(dp1098
g17
S'Change'
p1099
sg15
S'baseChange'
p1100
sg20
S'Base change'
p1101
stRp1102
ag3
(g4
g5
(dp1103
g17
S'IntegHow'
p1104
sg15
S'how'
p1105
sg20
S'Integration method: variations on\n                    merge/branch/copy/ignore/delete.'
p1106
stRp1107
ag3
(g4
g5
(dp1108
g17
S'ResolveState'
p1109
sg15
S'state'
p1110
sg20
S'How the user performed the resolve'
p1111
stRp1112
atRp1113
sg15
S'BodyResolve'
p1114
stRp1115
ag3
(g4
g5
(dp1116
g996
g3
(g8
g9
(lp1117
g3
(g4
g5
(dp1118
g17
S'SpecType'
p1119
sg15
S'type'
p1120
sg20
S'The spec type'
p1121
stRp1122
ag3
(g4
g5
(dp1123
g17
S'Change'
p1124
sg15
S'shelf'
p1125
sg20
S'Shelf change ID'
p1126
stRp1127
ag3
(g4
g5
(dp1128
g17
S'Key'
p1129
sg15
S'toKey'
p1130
sg20
S'To Key'
p1131
stRp1132
ag3
(g4
g5
(dp1133
g17
S'Int'
p1134
sg15
S'attr'
p1135
sg20
S'The attribute value'
p1136
stRp1137
ag3
(g4
g5
(dp1138
g17
S'Key'
p1139
sg15
S'fromKey'
p1140
sg20
S'From key'
p1141
stRp1142
ag3
(g4
g5
(dp1143
g17
S'Change'
p1144
sg15
S'fromChange'
p1145
sg20
S'From change'
p1146
stRp1147
ag3
(g4
g5
(dp1148
g17
S'Key'
p1149
sg15
S'baseKey'
p1150
sg20
S'Base Key'
p1151
stRp1152
ag3
(g4
g5
(dp1153
g17
S'Change'
p1154
sg15
S'baseChange'
p1155
sg20
S'Base change'
p1156
stRp1157
ag3
(g4
g5
(dp1158
g17
S'IntegHow'
p1159
sg15
S'how'
p1160
sg20
S'Integration method: variations on\n                    merge/branch/copy/ignore/delete.'
p1161
stRp1162
ag3
(g4
g5
(dp1163
g17
S'ResolveState'
p1164
sg15
S'state'
p1165
sg20
S'How the user performed the resolve'
p1166
stRp1167
ag3
(g4
g5
(dp1168
g17
S'Domain'
p1169
sg15
S'client'
p1170
sg20
S'The client used for the resolve'
p1171
stRp1172
atRp1173
sg15
S'BodyResolveX'
p1174
stRp1175
ag3
(g4
g5
(dp1176
g996
g3
(g8
g9
(lp1177
g3
(g4
g5
(dp1178
g17
S'Key'
p1179
sg15
S'key'
p1180
sg20
S'The job to which this attribute belongs'
p1181
stRp1182
ag3
(g4
g5
(dp1183
g17
S'Int'
p1184
sg15
S'attr'
p1185
sg20
S'The attribute number (from the jobspec) of this attribute'
p1186
stRp1187
ag3
(g4
g5
(dp1188
g17
S'Int'
p1189
sg15
S'isBulk'
p1190
sg20
S'Indicates whether (1), or not (0) the field is a bulk\n                    text field that should not be indexed.'
p1191
stRp1192
ag3
(g4
g5
(dp1193
g17
S'Text'
p1194
sg15
S'text'
p1195
sg20
S'The attribute value'
p1196
stRp1197
atRp1198
sg15
S'BodyText'
p1199
stRp1200
ag3
(g4
g5
(dp1201
g996
g3
(g8
g9
(lp1202
g3
(g4
g5
(dp1203
g17
S'Int'
p1204
sg15
S'type'
p1205
sg20
S'The type of spec'
p1206
stRp1207
ag3
(g4
g5
(dp1208
g17
S'Key'
p1209
sg15
S'key'
p1210
sg20
S'The spec to which this attribute belongs'
p1211
stRp1212
ag3
(g4
g5
(dp1213
g17
S'Change'
p1214
sg15
S'change'
p1215
sg20
S'The change to which this attribute belongs'
p1216
stRp1217
ag3
(g4
g5
(dp1218
g17
S'Int'
p1219
sg15
S'attr'
p1220
sg20
S'The attribute number of this attribute'
p1221
stRp1222
ag3
(g4
g5
(dp1223
g17
S'Text'
p1224
sg15
S'text'
p1225
sg20
S'The attribute value'
p1226
stRp1227
atRp1228
sg15
S'BodyTextCx'
p1229
stRp1230
ag3
(g4
g5
(dp1231
g996
g3
(g8
g9
(lp1232
g3
(g4
g5
(dp1233
g17
S'Int'
p1234
sg15
S'type'
p1235
sg20
S'The type of spec'
p1236
stRp1237
ag3
(g4
g5
(dp1238
g17
S'Key'
p1239
sg15
S'key'
p1240
sg20
S'The spec to which this attribute belongs'
p1241
stRp1242
ag3
(g4
g5
(dp1243
g17
S'Int'
p1244
sg15
S'attr'
p1245
sg20
S'The attribute number of this attribute'
p1246
stRp1247
ag3
(g4
g5
(dp1248
g17
S'Int'
p1249
sg15
S'bulk'
p1250
sg20
S'Indicates whether (1), or not (0) the field is a bulk\n                    text field that should not be indexed.'
p1251
stRp1252
ag3
(g4
g5
(dp1253
g17
S'Text'
p1254
sg15
S'text'
p1255
sg20
S'The attribute value'
p1256
stRp1257
atRp1258
sg15
S'BodyTextHx'
p1259
stRp1260
ag3
(g4
g5
(dp1261
g996
g3
(g8
g9
(lp1262
g3
(g4
g5
(dp1263
g17
S'Int'
p1264
sg15
S'type'
p1265
sg20
S'The type of spec'
p1266
stRp1267
ag3
(g4
g5
(dp1268
g17
S'Change'
p1269
sg15
S'shelf'
p1270
sg20
S'The shelf to which this attribute belongs'
p1271
stRp1272
ag3
(g4
g5
(dp1273
g17
S'Key'
p1274
sg15
S'key'
p1275
sg20
S'The spec to which this attribute belongs'
p1276
stRp1277
ag3
(g4
g5
(dp1278
g17
S'Int'
p1279
sg15
S'attr'
p1280
sg20
S'The attribute number of this attribute'
p1281
stRp1282
ag3
(g4
g5
(dp1283
g17
S'Text'
p1284
sg15
S'text'
p1285
sg20
S'The attribute value'
p1286
stRp1287
ag3
(g4
g5
(dp1288
g17
S'Change'
p1289
sg15
S'workChange'
p1290
sg20
S'The working change'
p1291
stRp1292
ag3
(g4
g5
(dp1293
g17
S'User'
p1294
sg15
S'user'
p1295
sg20
S'The user that created the change'
p1296
stRp1297
ag3
(g4
g5
(dp1298
g17
S'Action'
p1299
sg15
S'action'
p1300
sg20
S'The Action that created the change'
p1301
stRp1302
atRp1303
sg15
S'BodyTextSx'
p1304
stRp1305
ag3
(g4
g5
(dp1306
g996
g3
(g8
g9
(lp1307
g3
(g4
g5
(dp1308
g17
S'Int'
p1309
sg15
S'type'
p1310
sg20
S'The type of spec'
p1311
stRp1312
ag3
(g4
g5
(dp1313
g17
S'Domain'
p1314
sg15
S'client'
p1315
sg20
S'The client the spec is opened on'
p1316
stRp1317
ag3
(g4
g5
(dp1318
g17
S'Key'
p1319
sg15
S'key'
p1320
sg20
S'The spec to which this attribute belongs'
p1321
stRp1322
ag3
(g4
g5
(dp1323
g17
S'Int'
p1324
sg15
S'attr'
p1325
sg20
S'The attribute number of this attribute'
p1326
stRp1327
ag3
(g4
g5
(dp1328
g17
S'Text'
p1329
sg15
S'text'
p1330
sg20
S'The attribute value'
p1331
stRp1332
ag3
(g4
g5
(dp1333
g17
S'Change'
p1334
sg15
S'workChange'
p1335
sg20
S'The working change'
p1336
stRp1337
ag3
(g4
g5
(dp1338
g17
S'User'
p1339
sg15
S'user'
p1340
sg20
S'The user that created the change'
p1341
stRp1342
ag3
(g4
g5
(dp1343
g17
S'Action'
p1344
sg15
S'action'
p1345
sg20
S'The action that created the change'
p1346
stRp1347
atRp1348
sg15
S'BodyTextWx'
p1349
stRp1350
ag3
(g4
g5
(dp1351
g996
g3
(g8
g9
(lp1352
g3
(g4
g5
(dp1353
g17
S'Change'
p1354
sg15
S'change'
p1355
sg20
S'The change number'
p1356
stRp1357
ag3
(g4
g5
(dp1358
g17
S'Change'
p1359
sg15
S'descKey'
p1360
sg20
S"The description key. Normally the same as 'change', but\n                    may differ if a changelist was renumbered on submission."
p1361
stRp1362
ag3
(g4
g5
(dp1363
g17
S'Domain'
p1364
sg15
S'client'
p1365
sg20
S'The client from which the change originates'
p1366
stRp1367
ag3
(g4
g5
(dp1368
g17
S'User'
p1369
sg15
S'user'
p1370
sg20
S'The user who owns the change'
p1371
stRp1372
ag3
(g4
g5
(dp1373
g17
S'Date'
p1374
sg15
S'date'
p1375
sg20
S'Date and time the changelist was submitted'
p1376
stRp1377
ag3
(g4
g5
(dp1378
g17
S'ChangeStatus'
p1379
sg15
S'status'
p1380
sg20
S'Status of the change'
p1381
stRp1382
ag3
(g4
g5
(dp1383
g17
S'DescShort'
p1384
sg15
S'description'
p1385
sg20
S'Short description of the change.'
p1386
stRp1387
ag3
(g4
g5
(dp1388
g17
S'Mapping'
p1389
sg15
S'root'
p1390
sg20
S'Common path for all files in the changelist'
p1391
stRp1392
ag3
(g4
g5
(dp1393
g17
S'User'
p1394
sg15
S'importer'
p1395
sg20
S'The user who fetched or pushed this change to this server'
p1396
stRp1397
ag3
(g4
g5
(dp1398
g17
S'Key'
p1399
sg15
S'identity'
p1400
sg20
S'Identifier for this change'
p1401
stRp1402
ag3
(g4
g5
(dp1403
g17
S'Date'
p1404
sg15
S'access'
p1405
sg20
S'Shelve last access'
p1406
stRp1407
ag3
(g4
g5
(dp1408
g17
S'Date'
p1409
sg15
S'update'
p1410
sg20
S'Shelve last update'
p1411
stRp1412
ag3
(g4
g5
(dp1413
g17
S'Domain'
p1414
sg15
S'stream'
p1415
sg20
S'Stream spec name in changelist'
p1416
stRp1417
atRp1418
sg15
S'Change'
p1419
stRp1420
ag3
(g4
g5
(dp1421
g996
g3
(g8
g9
(lp1422
g3
(g4
g5
(dp1423
g17
S'Key'
p1424
sg15
S'identity'
p1425
sg20
S'Identifier for this change'
p1426
stRp1427
ag3
(g4
g5
(dp1428
g17
S'Change'
p1429
sg15
S'change'
p1430
sg20
S'Changelist'
p1431
stRp1432
atRp1433
sg15
S'ChangeIdx'
p1434
stRp1435
ag3
(g4
g5
(dp1436
g996
g3
(g8
g9
(lp1437
g3
(g4
g5
(dp1438
g17
S'Key'
p1439
sg15
S'serverName'
p1440
sg20
S'Server name'
p1441
stRp1442
ag3
(g4
g5
(dp1443
g17
S'Key'
p1444
sg15
S'name'
p1445
sg20
S'Configuration variable name'
p1446
stRp1447
ag3
(g4
g5
(dp1448
g17
S'Value'
p1449
sg15
S'value'
p1450
sg20
S'Configuration variable value'
p1451
stRp1452
atRp1453
sg15
S'Config'
p1454
stRp1455
ag3
(g4
g5
(dp1456
g996
g3
(g8
g9
(lp1457
g3
(g4
g5
(dp1458
g17
S'Key'
p1459
sg15
S'sName'
p1460
sg20
S'Server name where configurable applies'
p1461
stRp1462
ag3
(g4
g5
(dp1463
g17
S'Key'
p1464
sg15
S'name'
p1465
sg20
S'variable name'
p1466
stRp1467
ag3
(g4
g5
(dp1468
g17
S'Int'
p1469
sg15
S'version'
p1470
sg20
S'configuration version'
p1471
stRp1472
ag3
(g4
g5
(dp1473
g17
S'Date'
p1474
sg15
S'date'
p1475
sg20
S'date'
p1476
stRp1477
ag3
(g4
g5
(dp1478
g17
S'Key'
p1479
sg15
S'server'
p1480
sg20
S'server ID where the configurable was set'
p1481
stRp1482
ag3
(g4
g5
(dp1483
g17
S'User'
p1484
sg15
S'user'
p1485
sg20
S'user'
p1486
stRp1487
ag3
(g4
g5
(dp1488
g17
S'Value'
p1489
sg15
S'ovalue'
p1490
sg20
S'old value'
p1491
stRp1492
ag3
(g4
g5
(dp1493
g17
S'Value'
p1494
sg15
S'nvalue'
p1495
sg20
S'new value'
p1496
stRp1497
atRp1498
sg15
S'ConfigHist'
p1499
stRp1500
ag3
(g4
g5
(dp1501
g996
g3
(g8
g9
(lp1502
g3
(g4
g5
(dp1503
g17
S'Counter'
p1504
sg15
S'name'
p1505
sg20
S'Counter name'
p1506
stRp1507
ag3
(g4
g5
(dp1508
g17
S'Value'
p1509
sg15
S'value'
p1510
sg20
S'Counter value'
p1511
stRp1512
atRp1513
sg15
S'Counters'
p1514
stRp1515
ag3
(g4
g5
(dp1516
g996
g3
(g8
g9
(lp1517
g3
(g4
g5
(dp1518
g17
S'Domain'
p1519
sg15
S'name'
p1520
sg20
S'Depot name'
p1521
stRp1522
ag3
(g4
g5
(dp1523
g17
S'DepotType'
p1524
sg15
S'type'
p1525
sg20
S'Type of depot'
p1526
stRp1527
ag3
(g4
g5
(dp1528
g17
S'Text'
p1529
sg15
S'extra'
p1530
sg20
S'For remote depots, the P4PORT address of the remote server.\n                    For spec depots, a suffix to append to the filename.\n                    For stream depots, stream depth'
p1531
stRp1532
ag3
(g4
g5
(dp1533
g17
S'Text'
p1534
sg15
S'map'
p1535
sg20
S"The depot's map (path translation information). For local\n                    depots, this will be a path relative to the root directory.\n                    For remote depots, this will be specified in terms of the\n                    remote server's namespace."
p1536
stRp1537
atRp1538
sg15
S'Depot'
p1539
stRp1540
ag3
(g4
g5
(dp1541
g996
g3
(g8
g9
(lp1542
g3
(g4
g5
(dp1543
g17
S'Change'
p1544
sg15
S'descKey'
p1545
sg20
S'Original number of the change to which this description\n                    applies. This may differ from the final change number if\n                    the change is renumbered on submission.'
p1546
stRp1547
ag3
(g4
g5
(dp1548
g17
S'Text'
p1549
sg15
S'description'
p1550
sg20
S'The change description itself'
p1551
stRp1552
atRp1553
sg15
S'Desc'
p1554
stRp1555
ag3
(g4
g5
(dp1556
g996
g3
(g8
g9
(lp1557
g3
(g4
g5
(dp1558
g17
S'Domain'
p1559
sg15
S'name'
p1560
sg20
S'Domain name'
p1561
stRp1562
ag3
(g4
g5
(dp1563
g17
S'DomainType'
p1564
sg15
S'type'
p1565
sg20
S'Type of domain'
p1566
stRp1567
ag3
(g4
g5
(dp1568
g17
S'Text'
p1569
sg15
S'extra'
p1570
sg20
S'Formerly "host". Associated host or, for labels, revision\n                    number.'
p1571
stRp1572
ag3
(g4
g5
(dp1573
g17
S'Text'
p1574
sg15
S'mount'
p1575
sg20
S'The client root'
p1576
stRp1577
ag3
(g4
g5
(dp1578
g17
S'Text'
p1579
sg15
S'mount2'
p1580
sg20
S'Alternate client root'
p1581
stRp1582
ag3
(g4
g5
(dp1583
g17
S'Text'
p1584
sg15
S'mount3'
p1585
sg20
S'Alternate client root'
p1586
stRp1587
ag3
(g4
g5
(dp1588
g17
S'User'
p1589
sg15
S'owner'
p1590
sg20
S'Name of user who owns the domain.'
p1591
stRp1592
ag3
(g4
g5
(dp1593
g17
S'Date'
p1594
sg15
S'updateDate'
p1595
sg20
S'Date of last update to domain specification.'
p1596
stRp1597
ag3
(g4
g5
(dp1598
g17
S'Date'
p1599
sg15
S'accessDate'
p1600
sg20
S'Date of last access to domain specification.'
p1601
stRp1602
ag3
(g4
g5
(dp1603
g17
S'DomainOpts'
p1604
sg15
S'options'
p1605
sg20
S'Options for client, label, and branch domains.'
p1606
stRp1607
ag3
(g4
g5
(dp1608
g17
S'Text'
p1609
sg15
S'description'
p1610
sg20
S'Description of domain.'
p1611
stRp1612
ag3
(g4
g5
(dp1613
g17
S'Domain'
p1614
sg15
S'stream'
p1615
sg20
S'Associated stream for client records'
p1616
stRp1617
ag3
(g4
g5
(dp1618
g17
S'Key'
p1619
sg15
S'serverId'
p1620
sg20
S'Associated server ID for client records'
p1621
stRp1622
ag3
(g4
g5
(dp1623
g17
S'Int'
p1624
sg15
S'contents'
p1625
sg20
S'Client domain contents. 1: Maps only classic depot files, 2: Maps only graph depot files, 3: Maps\n                    both classic and graph depot files'
p1626
stRp1627
atRp1628
sg15
S'Domain'
p1629
stRp1630
ag3
(g4
g5
(dp1631
g996
g3
(g8
g9
(lp1632
g3
(g4
g5
(dp1633
g17
S'File'
p1634
sg15
S'depotFile'
p1635
sg20
S'The file locked'
p1636
stRp1637
ag3
(g4
g5
(dp1638
g17
S'Domain'
p1639
sg15
S'client'
p1640
sg20
S'The client for which the file is locked'
p1641
stRp1642
ag3
(g4
g5
(dp1643
g17
S'User'
p1644
sg15
S'user'
p1645
sg20
S'The user for which the file is locked'
p1646
stRp1647
atRp1648
sg15
S'ExclusiveLock'
p1649
stRp1650
ag3
(g4
g5
(dp1651
g996
g3
(g8
g9
(lp1652
g3
(g4
g5
(dp1653
g17
S'Key'
p1654
sg15
S'repo'
p1655
sg20
S'The name of the repository on which the lock is applied'
p1656
stRp1657
ag3
(g4
g5
(dp1658
g17
S'Text'
p1659
sg15
S'ref'
p1660
sg20
S'The reference on which the lock is applied'
p1661
stRp1662
ag3
(g4
g5
(dp1663
g17
S'File'
p1664
sg15
S'file'
p1665
sg20
S'The git file path'
p1666
stRp1667
ag3
(g4
g5
(dp1668
g17
S'String'
p1669
sg15
S'lockId'
p1670
sg20
S'The git LFS lock identifier'
p1671
stRp1672
ag3
(g4
g5
(dp1673
g17
S'User'
p1674
sg15
S'user'
p1675
sg20
S'The user for which the file is locked'
p1676
stRp1677
ag3
(g4
g5
(dp1678
g17
S'String'
p1679
sg15
S'created'
p1680
sg20
S'The lock creation date stored in git data format'
p1681
stRp1682
atRp1683
sg15
S'ExclG'
p1684
stRp1685
ag3
(g4
g5
(dp1686
g996
g3
(g8
g9
(lp1687
g3
(g4
g5
(dp1688
g17
S'String'
p1689
sg15
S'lockId'
p1690
sg20
S'The git LFS lock identifier'
p1691
stRp1692
ag3
(g4
g5
(dp1693
g17
S'Key'
p1694
sg15
S'repo'
p1695
sg20
S'The name of the repository on which the lock is applied'
p1696
stRp1697
ag3
(g4
g5
(dp1698
g17
S'Text'
p1699
sg15
S'ref'
p1700
sg20
S'The reference on which the lock is applied'
p1701
stRp1702
ag3
(g4
g5
(dp1703
g17
S'File'
p1704
sg15
S'file'
p1705
sg20
S'The git file path'
p1706
stRp1707
ag3
(g4
g5
(dp1708
g17
S'User'
p1709
sg15
S'user'
p1710
sg20
S'The user for which the file is locked'
p1711
stRp1712
ag3
(g4
g5
(dp1713
g17
S'String'
p1714
sg15
S'created'
p1715
sg20
S'The lock creation date stored in git data format'
p1716
stRp1717
atRp1718
sg15
S'ExclGX'
p1719
stRp1720
ag3
(g4
g5
(dp1721
g996
g3
(g8
g9
(lp1722
g3
(g4
g5
(dp1723
g17
S'Key'
p1724
sg15
S'job'
p1725
sg20
S'Job name'
p1726
stRp1727
ag3
(g4
g5
(dp1728
g17
S'Change'
p1729
sg15
S'change'
p1730
sg20
S'Changelist number'
p1731
stRp1732
ag3
(g4
g5
(dp1733
g17
S'Date'
p1734
sg15
S'date'
p1735
sg20
S'Date fix was recorded (may differ from date change was\n                    submitted).'
p1736
stRp1737
ag3
(g4
g5
(dp1738
g17
S'FixStatus'
p1739
sg15
S'status'
p1740
sg20
S'Status of the job'
p1741
stRp1742
ag3
(g4
g5
(dp1743
g17
S'Domain'
p1744
sg15
S'client'
p1745
sg20
S'The client where the fix originated'
p1746
stRp1747
ag3
(g4
g5
(dp1748
g17
S'User'
p1749
sg15
S'user'
p1750
sg20
S'The user who fixed the job'
p1751
stRp1752
atRp1753
sg15
S'Fix'
p1754
stRp1755
ag3
(g4
g5
(dp1756
g996
g3
(g8
g9
(lp1757
g3
(g4
g5
(dp1758
g17
S'Int'
p1759
sg15
S'id'
p1760
sg20
S'ID of repo index belongs to'
p1761
stRp1762
ag3
(g4
g5
(dp1763
g17
S'File'
p1764
sg15
S'name'
p1765
sg20
S'File name (minus the repo name)'
p1766
stRp1767
ag3
(g4
g5
(dp1768
g17
S'Date'
p1769
sg15
S'date'
p1770
sg20
S'Descending historical commit sequence'
p1771
stRp1772
ag3
(g4
g5
(dp1773
g17
S'SHA1'
p1774
sg15
S'blobSha'
p1775
sg20
S'SHA of blob'
p1776
stRp1777
ag3
(g4
g5
(dp1778
g17
S'SHA1'
p1779
sg15
S'commitSha'
p1780
sg20
S'SHA of commit that added/edited this file'
p1781
stRp1782
ag3
(g4
g5
(dp1783
g17
S'Int'
p1784
sg15
S'flags'
p1785
sg20
S'Miscellaneous flags'
p1786
stRp1787
ag3
(g4
g5
(dp1788
g17
S'FileSize'
p1789
sg15
S'size'
p1790
sg20
S'The size of the file (or target LFS file)'
p1791
stRp1792
ag3
(g4
g5
(dp1793
g17
S'FileType'
p1794
sg15
S'type'
p1795
sg20
S'The filetype of the graph file'
p1796
stRp1797
ag3
(g4
g5
(dp1798
g17
S'Text'
p1799
sg15
S'lfsoid'
p1800
sg20
S'LFS Object ID'
p1801
stRp1802
atRp1803
sg15
S'GraphIndex'
p1804
stRp1805
ag3
(g4
g5
(dp1806
g996
g3
(g8
g9
(lp1807
g3
(g4
g5
(dp1808
g17
S'Domain'
p1809
sg15
S'name'
p1810
sg20
S'Graph depot name'
p1811
stRp1812
ag3
(g4
g5
(dp1813
g17
S'Mapping'
p1814
sg15
S'repo'
p1815
sg20
S'Repository name'
p1816
stRp1817
ag3
(g4
g5
(dp1818
g17
S'Mapping'
p1819
sg15
S'ref'
p1820
sg20
S'Reference'
p1821
stRp1822
ag3
(g4
g5
(dp1823
g17
S'UserType'
p1824
sg15
S'type'
p1825
sg20
S'Type of user'
p1826
stRp1827
ag3
(g4
g5
(dp1828
g17
S'UserWild'
p1829
sg15
S'user'
p1830
sg20
S'User or Group for permission'
p1831
stRp1832
ag3
(g4
g5
(dp1833
g17
S'GraphPermType'
p1834
sg15
S'perm'
p1835
sg20
S'Permission'
p1836
stRp1837
atRp1838
sg15
S'GraphPerm'
p1839
stRp1840
ag3
(g4
g5
(dp1841
g996
g3
(g8
g9
(lp1842
g3
(g4
g5
(dp1843
g17
S'User'
p1844
sg15
S'user'
p1845
sg20
S'User name'
p1846
stRp1847
ag3
(g4
g5
(dp1848
g17
S'User'
p1849
sg15
S'group'
p1850
sg20
S'Group name'
p1851
stRp1852
ag3
(g4
g5
(dp1853
g17
S'UserType'
p1854
sg15
S'type'
p1855
sg20
S'Type of user in this group.'
p1856
stRp1857
ag3
(g4
g5
(dp1858
g17
S'MaxResults'
p1859
sg15
S'maxResults'
p1860
sg20
S'MaxResults setting for the group.'
p1861
stRp1862
ag3
(g4
g5
(dp1863
g17
S'MaxScanRows'
p1864
sg15
S'maxScanRows'
p1865
sg20
S'MaxScanRows setting for the group.'
p1866
stRp1867
ag3
(g4
g5
(dp1868
g17
S'MaxLockTime'
p1869
sg15
S'maxLockTime'
p1870
sg20
S'MaxLockTime setting for the group.'
p1871
stRp1872
ag3
(g4
g5
(dp1873
g17
S'MaxOpenFiles'
p1874
sg15
S'maxOpenFiles'
p1875
sg20
S'MaxOpenFiles setting for the group.'
p1876
stRp1877
ag3
(g4
g5
(dp1878
g17
S'Int'
p1879
sg15
S'timeout'
p1880
sg20
S'Length of time (in seconds) a login ticket remains valid.'
p1881
stRp1882
ag3
(g4
g5
(dp1883
g17
S'Int'
p1884
sg15
S'passwordTimeout'
p1885
sg20
S'Length of time (in seconds) a password remains valid for users in the group.'
p1886
stRp1887
atRp1888
sg15
S'Group'
p1889
stRp1890
ag3
(g4
g5
(dp1891
g996
g3
(g8
g9
(lp1892
g3
(g4
g5
(dp1893
g17
S'User'
p1894
sg15
S'group'
p1895
sg20
S'Group name'
p1896
stRp1897
ag3
(g4
g5
(dp1898
g17
S'String'
p1899
sg15
S'ldapConf'
p1900
sg20
S"The LDAP configuration to use when populating the group's user list from an LDAP query"
p1901
stRp1902
ag3
(g4
g5
(dp1903
g17
S'String'
p1904
sg15
S'ldapSearchQuery'
p1905
sg20
S'The LDAP query used to identify the members of the group'
p1906
stRp1907
ag3
(g4
g5
(dp1908
g17
S'String'
p1909
sg15
S'ldapUserAttribute'
p1910
sg20
S"The LDAP attribute that represents the user's username"
p1911
stRp1912
ag3
(g4
g5
(dp1913
g17
S'String'
p1914
sg15
S'ldapDNAttribute'
p1915
sg20
S"The LDAP attribute that represents the user's DN"
p1916
stRp1917
atRp1918
sg15
S'GroupX'
p1919
stRp1920
ag3
(g4
g5
(dp1921
g996
g3
(g8
g9
(lp1922
g3
(g4
g5
(dp1923
g17
S'File'
p1924
sg15
S'clientFile'
p1925
sg20
S'The file in its location on the client'
p1926
stRp1927
ag3
(g4
g5
(dp1928
g17
S'File'
p1929
sg15
S'depotFile'
p1930
sg20
S'The file in the depot'
p1931
stRp1932
ag3
(g4
g5
(dp1933
g17
S'Rev'
p1934
sg15
S'haveRev'
p1935
sg20
S'The revision synced to the client'
p1936
stRp1937
ag3
(g4
g5
(dp1938
g17
S'FileType'
p1939
sg15
S'type'
p1940
sg20
S'The filetype of the synced file'
p1941
stRp1942
ag3
(g4
g5
(dp1943
g17
S'Date'
p1944
sg15
S'time'
p1945
sg20
S'The sync time of the synced revision'
p1946
stRp1947
atRp1948
sg15
S'Have'
p1949
stRp1950
ag3
(g4
g5
(dp1951
g996
g3
(g8
g9
(lp1952
g3
(g4
g5
(dp1953
g17
S'Key'
p1954
sg15
S'repo'
p1955
sg20
S'Repository name'
p1956
stRp1957
ag3
(g4
g5
(dp1958
g17
S'File'
p1959
sg15
S'clientFile'
p1960
sg20
S'The file in its location on the client'
p1961
stRp1962
ag3
(g4
g5
(dp1963
g17
S'File'
p1964
sg15
S'depotFile'
p1965
sg20
S'The git file path'
p1966
stRp1967
ag3
(g4
g5
(dp1968
g17
S'Domain'
p1969
sg15
S'client'
p1970
sg20
S'Domain (client) in which file is synced'
p1971
stRp1972
ag3
(g4
g5
(dp1973
g17
S'FileType'
p1974
sg15
S'type'
p1975
sg20
S'The filetype of the synced revision'
p1976
stRp1977
ag3
(g4
g5
(dp1978
g17
S'Action'
p1979
sg15
S'action'
p1980
sg20
S'Action file is open for: add, edit, delete, branch, integrate, or import'
p1981
stRp1982
ag3
(g4
g5
(dp1983
g17
S'SHA1'
p1984
sg15
S'blobSha'
p1985
sg20
S'SHA of blob'
p1986
stRp1987
ag3
(g4
g5
(dp1988
g17
S'SHA1'
p1989
sg15
S'commitSha'
p1990
sg20
S'SHA of commit that added/edited this file'
p1991
stRp1992
ag3
(g4
g5
(dp1993
g17
S'Int'
p1994
sg15
S'flags'
p1995
sg20
S'Miscellaneous flags'
p1996
stRp1997
atRp1998
sg15
S'Haveg'
p1999
stRp2000
ag3
(g4
g5
(dp2001
g996
g3
(g8
g9
(lp2002
g3
(g4
g5
(dp2003
g17
S'Date'
p2004
sg15
S'date'
p2005
sg20
S'Date value'
p2006
stRp2007
ag3
(g4
g5
(dp2008
g17
S'Int'
p2009
sg15
S'attr'
p2010
sg20
S'The attribute number (from the jobspec) to which this\n                    date belongs'
p2011
stRp2012
ag3
(g4
g5
(dp2013
g17
S'Key'
p2014
sg15
S'value'
p2015
sg20
S'A job name'
p2016
stRp2017
atRp2018
sg15
S'IndexDate'
p2019
stRp2020
ag3
(g4
g5
(dp2021
g996
g3
(g8
g9
(lp2022
g3
(g4
g5
(dp2023
g17
S'Key'
p2024
sg15
S'word'
p2025
sg20
S'The word being indexed'
p2026
stRp2027
ag3
(g4
g5
(dp2028
g17
S'Int'
p2029
sg15
S'attr'
p2030
sg20
S'The attribute number to which this word belongs. For\n                    job data, the attribute number from the jobspec.'
p2031
stRp2032
ag3
(g4
g5
(dp2033
g17
S'Key'
p2034
sg15
S'value'
p2035
sg20
S'For job data, a job name. For generic data, the value\n                    of the index keyed by the word.'
p2036
stRp2037
atRp2038
sg15
S'IndexText'
p2039
stRp2040
ag3
(g4
g5
(dp2041
g996
g3
(g8
g9
(lp2042
g3
(g4
g5
(dp2043
g17
S'SpecType'
p2044
sg15
S'type'
p2045
sg20
S'The type'
p2046
stRp2047
ag3
(g4
g5
(dp2048
g17
S'Key'
p2049
sg15
S'word'
p2050
sg20
S'The word being indexed'
p2051
stRp2052
ag3
(g4
g5
(dp2053
g17
S'Int'
p2054
sg15
S'attr'
p2055
sg20
S'The attribute number to which this word belongs.'
p2056
stRp2057
ag3
(g4
g5
(dp2058
g17
S'Key'
p2059
sg15
S'value'
p2060
sg20
S'The value of the index keyed by the word.'
p2061
stRp2062
atRp2063
sg15
S'IndexTextHx'
p2064
stRp2065
ag3
(g4
g5
(dp2066
g996
g3
(g8
g9
(lp2067
g3
(g4
g5
(dp2068
g17
S'File'
p2069
sg15
S'toFile'
p2070
sg20
S'File to which integration is being performed (target).'
p2071
stRp2072
ag3
(g4
g5
(dp2073
g17
S'File'
p2074
sg15
S'fromFile'
p2075
sg20
S'File from which integration is being performed (source).'
p2076
stRp2077
ag3
(g4
g5
(dp2078
g17
S'Rev'
p2079
sg15
S'startFromRev'
p2080
sg20
S'Starting revision of fromFile'
p2081
stRp2082
ag3
(g4
g5
(dp2083
g17
S'Rev'
p2084
sg15
S'endFromRev'
p2085
sg20
S'Ending revision of fromFile'
p2086
stRp2087
ag3
(g4
g5
(dp2088
g17
S'Rev'
p2089
sg15
S'toRev'
p2090
sg20
S'Revision of toFile into which integration is being\n                    performed.'
p2091
stRp2092
ag3
(g4
g5
(dp2093
g17
S'IntegHow'
p2094
sg15
S'how'
p2095
sg20
S'Integration method: variations on\n                    merge/branch/copy/ignore/delete.'
p2096
stRp2097
ag3
(g4
g5
(dp2098
g17
S'Int'
p2099
sg15
S'committed'
p2100
sg20
S'Flag: 0 for pending, 1 for committed.'
p2101
stRp2102
ag3
(g4
g5
(dp2103
g17
S'ResolvedStatus'
p2104
sg15
S'resolved'
p2105
sg20
S'Resolution method: unresolved, resolved manually,\n                    or resolved as part of a branch or delete.'
p2106
stRp2107
ag3
(g4
g5
(dp2108
g17
S'Change'
p2109
sg15
S'change'
p2110
sg20
S'Changelist associated with the integration.'
p2111
stRp2112
atRp2113
sg15
S'Integ'
p2114
stRp2115
ag3
(g4
g5
(dp2116
g996
g3
(g8
g9
(lp2117
g3
(g4
g5
(dp2118
g17
S'File'
p2119
sg15
S'toFile'
p2120
sg20
S'File to which integration is being performed (target).'
p2121
stRp2122
ag3
(g4
g5
(dp2123
g17
S'File'
p2124
sg15
S'fromFile'
p2125
sg20
S'File from which integration is being performed (source).'
p2126
stRp2127
ag3
(g4
g5
(dp2128
g17
S'Rev'
p2129
sg15
S'startFromRev'
p2130
sg20
S'Starting revision of fromFile'
p2131
stRp2132
ag3
(g4
g5
(dp2133
g17
S'Rev'
p2134
sg15
S'endFromRev'
p2135
sg20
S'Ending revision of fromFile'
p2136
stRp2137
ag3
(g4
g5
(dp2138
g17
S'Rev'
p2139
sg15
S'startToRev'
p2140
sg20
S'Start revision of toFile into which integration was\n                    performed.'
p2141
stRp2142
ag3
(g4
g5
(dp2143
g17
S'Rev'
p2144
sg15
S'endToRev'
p2145
sg20
S'End revision of toFile into which integration was\n                    performed. Only varies from startToRev for reverse\n                    integration records.'
p2146
stRp2147
ag3
(g4
g5
(dp2148
g17
S'IntegHow'
p2149
sg15
S'how'
p2150
sg20
S'Integration method: variations on\n                    merge/branch/copy/ignore/delete.'
p2151
stRp2152
ag3
(g4
g5
(dp2153
g17
S'Change'
p2154
sg15
S'change'
p2155
sg20
S'Changelist associated with the integration.'
p2156
stRp2157
atRp2158
sg15
S'Integed'
p2159
stRp2160
ag3
(g4
g5
(dp2161
g996
g3
(g8
g9
(lp2162
g3
(g4
g5
(dp2163
g17
S'Key'
p2164
sg15
S'serverId'
p2165
sg20
S'The serverId of the replica for whom this record applies'
p2166
stRp2167
ag3
(g4
g5
(dp2168
g17
S'Date'
p2169
sg15
S'lastUpdate'
p2170
sg20
S'The date and time of last update'
p2171
stRp2172
ag3
(g4
g5
(dp2173
g17
S'ServerServiceType'
p2174
sg15
S'serverType'
p2175
sg20
S'The server services offered by this replica'
p2176
stRp2177
ag3
(g4
g5
(dp2178
g17
S'Int'
p2179
sg15
S'persistedJnl'
p2180
sg20
S'The last journal number persisted by this replica'
p2181
stRp2182
ag3
(g4
g5
(dp2183
g17
S'Int'
p2184
sg15
S'appliedJnl'
p2185
sg20
S'The last journal number applied by this replica'
p2186
stRp2187
ag3
(g4
g5
(dp2188
g17
S'Int64'
p2189
sg15
S'persistedPos'
p2190
sg20
S'The last journal position persisted by this replica'
p2191
stRp2192
ag3
(g4
g5
(dp2193
g17
S'Int64'
p2194
sg15
S'appliedPos'
p2195
sg20
S'The last journal position applied by this replica'
p2196
stRp2197
ag3
(g4
g5
(dp2198
g17
S'JournalCopyFlags'
p2199
sg15
S'jcflags'
p2200
sg20
S'Journalcopy Flags'
p2201
stRp2202
ag3
(g4
g5
(dp2203
g17
S'Int'
p2204
sg15
S'isAlive'
p2205
sg20
S'1 = alive'
p2206
stRp2207
ag3
(g4
g5
(dp2208
g17
S'ServerOptionsType'
p2209
sg15
S'serverOptions'
p2210
sg20
S'Server Options'
p2211
stRp2212
ag3
(g4
g5
(dp2213
g17
S'Text'
p2214
sg15
S'failoverSeen'
p2215
sg20
S'Failover was seen'
p2216
stRp2217
atRp2218
sg15
S'JnlAck'
p2219
stRp2220
ag3
(g4
g5
(dp2221
g996
g3
(g8
g9
(lp2222
g3
(g4
g5
(dp2223
g17
S'Key'
p2224
sg15
S'job'
p2225
sg20
S'The job name'
p2226
stRp2227
ag3
(g4
g5
(dp2228
g17
S'User'
p2229
sg15
S'xuser'
p2230
sg20
S'User name: defunct'
p2231
stRp2232
ag3
(g4
g5
(dp2233
g17
S'Date'
p2234
sg15
S'xdate'
p2235
sg20
S'The date: defunct'
p2236
stRp2237
ag3
(g4
g5
(dp2238
g17
S'JobStat'
p2239
sg15
S'xstatus'
p2240
sg20
S'Job status: defunct'
p2241
stRp2242
ag3
(g4
g5
(dp2243
g17
S'DescShort'
p2244
sg15
S'description'
p2245
sg20
S'Short description'
p2246
stRp2247
atRp2248
sg15
S'Job'
p2249
stRp2250
ag3
(g4
g5
(dp2251
g996
g3
(g8
g9
(lp2252
g3
(g4
g5
(dp2253
g17
S'Key'
p2254
sg15
S'xjob'
p2255
sg20
S'The job name'
p2256
stRp2257
ag3
(g4
g5
(dp2258
g17
S'Text'
p2259
sg15
S'xdescription'
p2260
sg20
S'Jobdescription'
p2261
stRp2262
atRp2263
sg15
S'JobDesc'
p2264
stRp2265
ag3
(g4
g5
(dp2266
g996
g3
(g8
g9
(lp2267
g3
(g4
g5
(dp2268
g17
S'Key'
p2269
sg15
S'name'
p2270
sg20
S'Key name'
p2271
stRp2272
ag3
(g4
g5
(dp2273
g17
S'Value'
p2274
sg15
S'value'
p2275
sg20
S'Key value'
p2276
stRp2277
atRp2278
sg15
S'Keys'
p2279
stRp2280
ag3
(g4
g5
(dp2281
g996
g3
(g8
g9
(lp2282
g3
(g4
g5
(dp2283
g17
S'Domain'
p2284
sg15
S'name'
p2285
sg20
S'Name of the label'
p2286
stRp2287
ag3
(g4
g5
(dp2288
g17
S'File'
p2289
sg15
S'depotFile'
p2290
sg20
S'File name'
p2291
stRp2292
ag3
(g4
g5
(dp2293
g17
S'Rev'
p2294
sg15
S'haveRev'
p2295
sg20
S'The revision of the file in the label'
p2296
stRp2297
atRp2298
sg15
S'Label'
p2299
stRp2300
ag3
(g4
g5
(dp2301
g996
g3
(g8
g9
(lp2302
g3
(g4
g5
(dp2303
g17
S'Key'
p2304
sg15
S'name'
p2305
sg20
S'The LDAP configuration name'
p2306
stRp2307
ag3
(g4
g5
(dp2308
g17
S'String'
p2309
sg15
S'host'
p2310
sg20
S'The FQDN of the directory server'
p2311
stRp2312
ag3
(g4
g5
(dp2313
g17
S'Int'
p2314
sg15
S'port'
p2315
sg20
S'The port number on which to connect to the directory server'
p2316
stRp2317
ag3
(g4
g5
(dp2318
g17
S'Int'
p2319
sg15
S'ssl'
p2320
sg20
S"The encryption method to use when connecting to the The FQDN of the directory server.\n                    Options are: 0='none', 1='ssl' and 2='tls'"
p2321
stRp2322
ag3
(g4
g5
(dp2323
g17
S'Int'
p2324
sg15
S'type'
p2325
sg20
S"The bind method to use with this directory. Options are: 0='simple', 1='search' and 2='sasl'."
p2326
stRp2327
ag3
(g4
g5
(dp2328
g17
S'Text'
p2329
sg15
S'pattern'
p2330
sg20
S"The DN used to bind against to validate the user's credentials."
p2331
stRp2332
ag3
(g4
g5
(dp2333
g17
S'Text'
p2334
sg15
S'baseDN'
p2335
sg20
S'The DN from which to start the search for the user object'
p2336
stRp2337
ag3
(g4
g5
(dp2338
g17
S'Text'
p2339
sg15
S'filter'
p2340
sg20
S'The LDAP query filter to use to identify the user object which will be used to bind against'
p2341
stRp2342
ag3
(g4
g5
(dp2343
g17
S'Int'
p2344
sg15
S'scope'
p2345
sg20
S'The scope to use when searching for the user records. Options are:\n                    0 = baseonly - Just the BaseDN object\n                    1 = children - The BaseDN and its direct children\n                    2 = subtree - The BaseDN and all objects below it'
p2346
stRp2347
ag3
(g4
g5
(dp2348
g17
S'Text'
p2349
sg15
S'bindDN'
p2350
sg20
S'The DN to bind against in order to search the directory'
p2351
stRp2352
ag3
(g4
g5
(dp2353
g17
S'Text'
p2354
sg15
S'bindpass'
p2355
sg20
S'The password for the BindDN record'
p2356
stRp2357
ag3
(g4
g5
(dp2358
g17
S'Text'
p2359
sg15
S'realm'
p2360
sg20
S'The optional realm to use when authenticating the user via SASL'
p2361
stRp2362
ag3
(g4
g5
(dp2363
g17
S'Text'
p2364
sg15
S'groupBaseDN'
p2365
sg20
S'The search base for performing the group search. If unset this will default to the SearchBaseDN'
p2366
stRp2367
ag3
(g4
g5
(dp2368
g17
S'Text'
p2369
sg15
S'groupFilter'
p2370
sg20
S'The filter to use for the group search'
p2371
stRp2372
ag3
(g4
g5
(dp2373
g17
S'Int'
p2374
sg15
S'groupScope'
p2375
sg20
S'The scope to use when performing the group search.Options are:\n                    0 = baseonly - Just the BaseDN object\n                    1 = children - The BaseDN and its direct children\n                    2 = subtree - The BaseDN and all objects below it'
p2376
stRp2377
ag3
(g4
g5
(dp2378
g17
S'Int'
p2379
sg15
S'options'
p2380
sg20
S'LDAP options bitmask: 1=[no]downcase, 2=[no]getattrs and 4=[no]realminusername'
p2381
stRp2382
ag3
(g4
g5
(dp2383
g17
S'Text'
p2384
sg15
S'attrUid'
p2385
sg20
S"The name of the attribute in the directory's user records that contain the users' UIDs"
p2386
stRp2387
ag3
(g4
g5
(dp2388
g17
S'Text'
p2389
sg15
S'attrEmail'
p2390
sg20
S"The name of the attribute in the directory's user records that contain the users' email addresses."
p2391
stRp2392
ag3
(g4
g5
(dp2393
g17
S'Text'
p2394
sg15
S'attrName'
p2395
sg20
S"The name(s) of the attribute(s) in the directory's user records that contain the users' full names."
p2396
stRp2397
atRp2398
sg15
S'Ldap'
p2399
stRp2400
ag3
(g4
g5
(dp2401
g996
g3
(g8
g9
(lp2402
g3
(g4
g5
(dp2403
g17
S'File'
p2404
sg15
S'depotFile'
p2405
sg20
S'File in depot'
p2406
stRp2407
ag3
(g4
g5
(dp2408
g17
S'Domain'
p2409
sg15
S'client'
p2410
sg20
S'Domain (client) in which file is open'
p2411
stRp2412
ag3
(g4
g5
(dp2413
g17
S'User'
p2414
sg15
S'user'
p2415
sg20
S'User who presently has the file open'
p2416
stRp2417
ag3
(g4
g5
(dp2418
g17
S'Action'
p2419
sg15
S'action'
p2420
sg20
S'Action file is open for: add, edit, delete, branch,\n                    integrate, or import'
p2421
stRp2422
ag3
(g4
g5
(dp2423
g17
S'LockedType'
p2424
sg15
S'isLocked'
p2425
sg20
S'Bitmask of locked flags'
p2426
stRp2427
ag3
(g4
g5
(dp2428
g17
S'Change'
p2429
sg15
S'change'
p2430
sg20
S'Changelist in which the revision is open: 0 for the\n                    default changelist'
p2431
stRp2432
atRp2433
sg15
S'Locks'
p2434
stRp2435
ag3
(g4
g5
(dp2436
g996
g3
(g8
g9
(lp2437
g3
(g4
g5
(dp2438
g17
S'Int'
p2439
sg15
S'seq'
p2440
sg20
S'Sequence number of event'
p2441
stRp2442
ag3
(g4
g5
(dp2443
g17
S'Key'
p2444
sg15
S'key'
p2445
sg20
S"Either the word 'change' or the word 'job'"
p2446
stRp2447
ag3
(g4
g5
(dp2448
g17
S'Key'
p2449
sg15
S'attr'
p2450
sg20
S'The number of the change, or name of the job that was\n                    altered.'
p2451
stRp2452
atRp2453
sg15
S'Logger'
p2454
stRp2455
ag3
(g4
g5
(dp2456
g996
g3
(g8
g9
(lp2457
g3
(g4
g5
(dp2458
g17
S'Key'
p2459
sg15
S'language'
p2460
sg20
S'The language for which this message applies'
p2461
stRp2462
ag3
(g4
g5
(dp2463
g17
S'Int'
p2464
sg15
S'id'
p2465
sg20
S'The message number'
p2466
stRp2467
ag3
(g4
g5
(dp2468
g17
S'String'
p2469
sg15
S'message'
p2470
sg20
S'The message text'
p2471
stRp2472
atRp2473
sg15
S'Message'
p2474
stRp2475
ag3
(g4
g5
(dp2476
g996
g3
(g8
g9
(lp2477
g3
(g4
g5
(dp2478
g17
S'Int'
p2479
sg15
S'id'
p2480
sg20
S'Thread/process id'
p2481
stRp2482
ag3
(g4
g5
(dp2483
g17
S'User'
p2484
sg15
S'user'
p2485
sg20
S'Username of the user running the command'
p2486
stRp2487
ag3
(g4
g5
(dp2488
g17
S'String'
p2489
sg15
S'function'
p2490
sg20
S'The command being executed.'
p2491
stRp2492
ag3
(g4
g5
(dp2493
g17
S'String'
p2494
sg15
S'args'
p2495
sg20
S'Arguments passed to the command'
p2496
stRp2497
ag3
(g4
g5
(dp2498
g17
S'Date'
p2499
sg15
S'startDate'
p2500
sg20
S'The date and time the command started'
p2501
stRp2502
ag3
(g4
g5
(dp2503
g17
S'Int'
p2504
sg15
S'runstate'
p2505
sg20
S'Flag: 0 for running, 1 for terminated, 2 for paused'
p2506
stRp2507
ag3
(g4
g5
(dp2508
g17
S'Domain'
p2509
sg15
S'client'
p2510
sg20
S'The client workspace'
p2511
stRp2512
ag3
(g4
g5
(dp2513
g17
S'Text'
p2514
sg15
S'host'
p2515
sg20
S'The IP address of the client'
p2516
stRp2517
ag3
(g4
g5
(dp2518
g17
S'Text'
p2519
sg15
S'prog'
p2520
sg20
S'The name (and version) of the client program'
p2521
stRp2522
ag3
(g4
g5
(dp2523
g17
S'Text'
p2524
sg15
S'lockInfo'
p2525
sg20
S'Table locking information for command'
p2526
stRp2527
atRp2528
sg15
S'Monitor'
p2529
stRp2530
ag3
(g4
g5
(dp2531
g996
g3
(g8
g9
(lp2532
g3
(g4
g5
(dp2533
g17
S'SHA1'
p2534
sg15
S'sha'
p2535
sg20
S'The SHA1 of the object'
p2536
stRp2537
ag3
(g4
g5
(dp2538
g17
S'ObjectType'
p2539
sg15
S'type'
p2540
sg20
S'The object type'
p2541
stRp2542
ag3
(g4
g5
(dp2543
g17
S'Octet String'
p2544
sg15
S'data'
p2545
sg20
S'The object content'
p2546
stRp2547
atRp2548
sg15
S'Object'
p2549
stRp2550
ag3
(g4
g5
(dp2551
g996
g3
(g8
g9
(lp2552
g3
(g4
g5
(dp2553
g17
S'Key'
p2554
sg15
S'name'
p2555
sg20
S'The property name'
p2556
stRp2557
ag3
(g4
g5
(dp2558
g17
S'Int'
p2559
sg15
S'seq'
p2560
sg20
S'Sequence number of property'
p2561
stRp2562
ag3
(g4
g5
(dp2563
g17
S'UserType'
p2564
sg15
S'type'
p2565
sg20
S'Only uses 1=user or 2=group and only applies when scope is set'
p2566
stRp2567
ag3
(g4
g5
(dp2568
g17
S'User'
p2569
sg15
S'scope'
p2570
sg20
S'The user or group the property applies to (may be empty)'
p2571
stRp2572
ag3
(g4
g5
(dp2573
g17
S'Value'
p2574
sg15
S'value'
p2575
sg20
S'The property value'
p2576
stRp2577
ag3
(g4
g5
(dp2578
g17
S'Date'
p2579
sg15
S'date'
p2580
sg20
S'The date/time the property was last updated'
p2581
stRp2582
ag3
(g4
g5
(dp2583
g17
S'User'
p2584
sg15
S'user'
p2585
sg20
S'The user that last modified the property'
p2586
stRp2587
atRp2588
sg15
S'Property'
p2589
stRp2590
ag3
(g4
g5
(dp2591
g996
g3
(g8
g9
(lp2592
g3
(g4
g5
(dp2593
g17
S'Int'
p2594
sg15
S'seq'
p2595
sg20
S'Sequence number: for ordering the protections table'
p2596
stRp2597
ag3
(g4
g5
(dp2598
g17
S'Int'
p2599
sg15
S'isGroup'
p2600
sg20
S'Flag: 0 for a per-user setting, 1 for a per-group setting.'
p2601
stRp2602
ag3
(g4
g5
(dp2603
g17
S'UserWild'
p2604
sg15
S'user'
p2605
sg20
S'User(s), or Group(s) for whom this record applies.'
p2606
stRp2607
ag3
(g4
g5
(dp2608
g17
S'DomainWild'
p2609
sg15
S'host'
p2610
sg20
S'Domain(s) (IP addresses) for which this record applies.'
p2611
stRp2612
ag3
(g4
g5
(dp2613
g17
S'Perm'
p2614
sg15
S'perm'
p2615
sg20
S'Permissions to be granted/revoked'
p2616
stRp2617
ag3
(g4
g5
(dp2618
g17
S'MapFlag'
p2619
sg15
S'mapFlag'
p2620
sg20
S'Flag: Map the files in or out?'
p2621
stRp2622
ag3
(g4
g5
(dp2623
g17
S'Mapping'
p2624
sg15
S'depotFile'
p2625
sg20
S'Files to be mapped in or out.'
p2626
stRp2627
ag3
(g4
g5
(dp2628
g17
S'Mapping'
p2629
sg15
S'subPath'
p2630
sg20
S'Root path of the sub-protections table'
p2631
stRp2632
ag3
(g4
g5
(dp2633
g17
S'Date'
p2634
sg15
S'update'
p2635
sg20
S'Date this specification was last modified'
p2636
stRp2637
atRp2638
sg15
S'Protect'
p2639
stRp2640
ag3
(g4
g5
(dp2641
g996
g3
(g8
g9
(lp2642
g3
(g4
g5
(dp2643
g17
S'User'
p2644
sg15
S'user'
p2645
sg20
S'User'
p2646
stRp2647
ag3
(g4
g5
(dp2648
g17
S'Key'
p2649
sg15
S'scope'
p2650
sg20
S'Scope'
p2651
stRp2652
ag3
(g4
g5
(dp2653
g17
S'Text'
p2654
sg15
S'key'
p2655
sg20
S'Key'
p2656
stRp2657
ag3
(g4
g5
(dp2658
g17
S'Digest'
p2659
sg15
S'digest'
p2660
sg20
S'Digest'
p2661
stRp2662
ag3
(g4
g5
(dp2663
g17
S'Date'
p2664
sg15
S'update'
p2665
sg20
S'Update date'
p2666
stRp2667
atRp2668
sg15
S'PublicKey'
p2669
stRp2670
ag3
(g4
g5
(dp2671
g996
g3
(g8
g9
(lp2672
g3
(g4
g5
(dp2673
g17
S'Key'
p2674
sg15
S'repo'
p2675
sg20
S'Repository name'
p2676
stRp2677
ag3
(g4
g5
(dp2678
g17
S'Key'
p2679
sg15
S'name'
p2680
sg20
S'Reference name'
p2681
stRp2682
ag3
(g4
g5
(dp2683
g17
S'RefType'
p2684
sg15
S'type'
p2685
sg20
S'Reference type'
p2686
stRp2687
ag3
(g4
g5
(dp2688
g17
S'SHA1'
p2689
sg15
S'ref'
p2690
sg20
S'Target of the reference'
p2691
stRp2692
ag3
(g4
g5
(dp2693
g17
S'Text'
p2694
sg15
S'symref'
p2695
sg20
S'Target of symbolic reference'
p2696
stRp2697
atRp2698
sg15
S'Ref'
p2699
stRp2700
ag3
(g4
g5
(dp2701
g996
g3
(g8
g9
(lp2702
g3
(g4
g5
(dp2703
g17
S'Key'
p2704
sg15
S'repo'
p2705
sg20
S'Repository name'
p2706
stRp2707
ag3
(g4
g5
(dp2708
g17
S'Key'
p2709
sg15
S'name'
p2710
sg20
S'Reference name'
p2711
stRp2712
ag3
(g4
g5
(dp2713
g17
S'RefType'
p2714
sg15
S'type'
p2715
sg20
S'Reference type'
p2716
stRp2717
ag3
(g4
g5
(dp2718
g17
S'RefAction'
p2719
sg15
S'action'
p2720
sg20
S'Reference action'
p2721
stRp2722
ag3
(g4
g5
(dp2723
g17
S'Date'
p2724
sg15
S'date'
p2725
sg20
S'The date the reference was updated'
p2726
stRp2727
ag3
(g4
g5
(dp2728
g17
S'User'
p2729
sg15
S'user'
p2730
sg20
S'The user who made the reference update'
p2731
stRp2732
ag3
(g4
g5
(dp2733
g17
S'SHA1'
p2734
sg15
S'ref'
p2735
sg20
S'Encoded reference value'
p2736
stRp2737
ag3
(g4
g5
(dp2738
g17
S'Text'
p2739
sg15
S'symref'
p2740
sg20
S'Symbolic reference'
p2741
stRp2742
atRp2743
sg15
S'RefHist'
p2744
stRp2745
ag3
(g4
g5
(dp2746
g996
g3
(g8
g9
(lp2747
g3
(g4
g5
(dp2748
g17
S'RemoteID'
p2749
sg15
S'id'
p2750
sg20
S'The remote identifier'
p2751
stRp2752
ag3
(g4
g5
(dp2753
g17
S'User'
p2754
sg15
S'owner'
p2755
sg20
S'The user who created this remote'
p2756
stRp2757
ag3
(g4
g5
(dp2758
g17
S'Int'
p2759
sg15
S'options'
p2760
sg20
S'Remote options bitmask: 0: unlocked/nocompress, 1: locked/nocompress, 2: unlocked/compress, 4:\n                    locked/compress'
p2761
stRp2762
ag3
(g4
g5
(dp2763
g17
S'Text'
p2764
sg15
S'address'
p2765
sg20
S'The P4PORT used by the remote server'
p2766
stRp2767
ag3
(g4
g5
(dp2768
g17
S'Text'
p2769
sg15
S'desc'
p2770
sg20
S'Description of the remote server'
p2771
stRp2772
ag3
(g4
g5
(dp2773
g17
S'Date'
p2774
sg15
S'update'
p2775
sg20
S'The date this specification was last modified'
p2776
stRp2777
ag3
(g4
g5
(dp2778
g17
S'Date'
p2779
sg15
S'access'
p2780
sg20
S'The date of the last push/fetch on this remote'
p2781
stRp2782
ag3
(g4
g5
(dp2783
g17
S'Change'
p2784
sg15
S'fetch'
p2785
sg20
S'The last changelist that was fetched'
p2786
stRp2787
ag3
(g4
g5
(dp2788
g17
S'Change'
p2789
sg15
S'push'
p2790
sg20
S'The last changelist that was pushed'
p2791
stRp2792
ag3
(g4
g5
(dp2793
g17
S'User'
p2794
sg15
S'rmtuser'
p2795
sg20
S'The user to use when connecting to the remote server'
p2796
stRp2797
atRp2798
sg15
S'Remote'
p2799
stRp2800
ag3
(g4
g5
(dp2801
g996
g3
(g8
g9
(lp2802
g3
(g4
g5
(dp2803
g17
S'File'
p2804
sg15
S'file'
p2805
sg20
S'The file name'
p2806
stRp2807
ag3
(g4
g5
(dp2808
g17
S'String'
p2809
sg15
S'rev'
p2810
sg20
S'The librarian revision'
p2811
stRp2812
ag3
(g4
g5
(dp2813
g17
S'FileType'
p2814
sg15
S'type'
p2815
sg20
S'The file type of the revision'
p2816
stRp2817
ag3
(g4
g5
(dp2818
g17
S'PullStatus'
p2819
sg15
S'status'
p2820
sg20
S'The status of the archive transfer'
p2821
stRp2822
ag3
(g4
g5
(dp2823
g17
S'Int'
p2824
sg15
S'who'
p2825
sg20
S'The process / thread id ID of the pull process'
p2826
stRp2827
ag3
(g4
g5
(dp2828
g17
S'Int'
p2829
sg15
S'when'
p2830
sg20
S'The timestamp from when the transfer was scheduled'
p2831
stRp2832
ag3
(g4
g5
(dp2833
g17
S'Action'
p2834
sg15
S'action'
p2835
sg20
S'The action that created the revision'
p2836
stRp2837
ag3
(g4
g5
(dp2838
g17
S'Digest'
p2839
sg15
S'digest'
p2840
sg20
S'The MD5 digest of the revision'
p2841
stRp2842
ag3
(g4
g5
(dp2843
g17
S'FileSize'
p2844
sg15
S'size'
p2845
sg20
S'The size of the file in bytes'
p2846
stRp2847
ag3
(g4
g5
(dp2848
g17
S'Int'
p2849
sg15
S'retries'
p2850
sg20
S'Error retry count'
p2851
stRp2852
ag3
(g4
g5
(dp2853
g17
S'Octet String'
p2854
sg15
S'errmsg'
p2855
sg20
S'Last Error Message'
p2856
stRp2857
ag3
(g4
g5
(dp2858
g17
S'Change'
p2859
sg15
S'change'
p2860
sg20
S'The changelist that created the revision'
p2861
stRp2862
ag3
(g4
g5
(dp2863
g17
S'Date'
p2864
sg15
S'date'
p2865
sg20
S'Librarian date'
p2866
stRp2867
ag3
(g4
g5
(dp2868
g17
S'Date'
p2869
sg15
S'modTime'
p2870
sg20
S'Librarian modtime'
p2871
stRp2872
ag3
(g4
g5
(dp2873
g17
S'Int'
p2874
sg15
S'origin'
p2875
sg20
S'The revision type that this transfer originates from:\n                    1 = db.rev\n                    2 = db.revsh\n                    3 = db.revsx\n                    4 = db.revux\n                    5 = db.object'
p2876
stRp2877
ag3
(g4
g5
(dp2878
g17
S'Text'
p2879
sg15
S'target'
p2880
sg20
S'Edge server to transfer from (reverse replication only)'
p2881
stRp2882
ag3
(g4
g5
(dp2883
g17
S'Int'
p2884
sg15
S'retryMissing'
p2885
sg20
S'0 or 1: 1 indicates that pull should retry the fetch if this archive is missing.\n                    Set when background submit is used.'
p2886
stRp2887
atRp2888
sg15
S'ReplicaArchiveTransfer'
p2889
stRp2890
ag3
(g4
g5
(dp2891
g996
g3
(g8
g9
(lp2892
g3
(g4
g5
(dp2893
g17
S'Key'
p2894
sg15
S'repo'
p2895
sg20
S'Name of the repo'
p2896
stRp2897
ag3
(g4
g5
(dp2898
g17
S'User'
p2899
sg15
S'owner'
p2900
sg20
S'Owner of the repo'
p2901
stRp2902
ag3
(g4
g5
(dp2903
g17
S'Date'
p2904
sg15
S'created'
p2905
sg20
S'Date the repo specification was created'
p2906
stRp2907
ag3
(g4
g5
(dp2908
g17
S'Date'
p2909
sg15
S'pushed'
p2910
sg20
S'Date of the last push to the repo'
p2911
stRp2912
ag3
(g4
g5
(dp2913
g17
S'Key'
p2914
sg15
S'forked'
p2915
sg20
S'Name of the repo from which this repo was forked'
p2916
stRp2917
ag3
(g4
g5
(dp2918
g17
S'Text'
p2919
sg15
S'desc'
p2920
sg20
S'Repo Description'
p2921
stRp2922
ag3
(g4
g5
(dp2923
g17
S'Text'
p2924
sg15
S'branch'
p2925
sg20
S'Default branch to clone from the repo'
p2926
stRp2927
ag3
(g4
g5
(dp2928
g17
S'Text'
p2929
sg15
S'mirror'
p2930
sg20
S'Upstream URL that this repo is mirrored (readonly) from'
p2931
stRp2932
ag3
(g4
g5
(dp2933
g17
S'Int'
p2934
sg15
S'options'
p2935
sg20
S'Repo options: 0 = nolfs, 1 = lfs'
p2936
stRp2937
ag3
(g4
g5
(dp2938
g17
S'Int'
p2939
sg15
S'id'
p2940
sg20
S'Repo index ID'
p2941
stRp2942
ag3
(g4
g5
(dp2943
g17
S'Text'
p2944
sg15
S'gcmrrserver'
p2945
sg20
S'gconn Mirror Server ID'
p2946
stRp2947
atRp2948
sg15
S'Repo'
p2949
stRp2950
ag3
(g4
g5
(dp2951
g996
g3
(g8
g9
(lp2952
g3
(g4
g5
(dp2953
g17
S'File'
p2954
sg15
S'toFile'
p2955
sg20
S'File to which integration is being performed (target).'
p2956
stRp2957
ag3
(g4
g5
(dp2958
g17
S'File'
p2959
sg15
S'fromFile'
p2960
sg20
S'File from which integration is being performed (source).'
p2961
stRp2962
ag3
(g4
g5
(dp2963
g17
S'Rev'
p2964
sg15
S'startFromRev'
p2965
sg20
S'Starting revision of fromFile'
p2966
stRp2967
ag3
(g4
g5
(dp2968
g17
S'Rev'
p2969
sg15
S'endFromRev'
p2970
sg20
S'Ending revision of fromFile'
p2971
stRp2972
ag3
(g4
g5
(dp2973
g17
S'Rev'
p2974
sg15
S'startToRev'
p2975
sg20
S'Start revision of toFile into which integration was\n                    performed.'
p2976
stRp2977
ag3
(g4
g5
(dp2978
g17
S'Rev'
p2979
sg15
S'endToRev'
p2980
sg20
S'End revision of toFile into which integration was\n                    performed. Only varies from startToRev for reverse\n                    integration records.'
p2981
stRp2982
ag3
(g4
g5
(dp2983
g17
S'IntegHow'
p2984
sg15
S'how'
p2985
sg20
S'Integration method: variations on\n                    merge/branch/copy/ignore/delete.'
p2986
stRp2987
ag3
(g4
g5
(dp2988
g17
S'ResolveState'
p2989
sg15
S'state'
p2990
sg20
S'How the user performed the resolve.'
p2991
stRp2992
ag3
(g4
g5
(dp2993
g17
S'File'
p2994
sg15
S'baseFile'
p2995
sg20
S'File used as the base for merging.'
p2996
stRp2997
ag3
(g4
g5
(dp2998
g17
S'Rev'
p2999
sg15
S'baseRev'
p3000
sg20
S'Revision of baseFile used as the merge base.'
p3001
stRp3002
atRp3003
sg15
S'Resolve'
p3004
stRp3005
ag3
(g4
g5
(dp3006
g996
g3
(g8
g9
(lp3007
g3
(g4
g5
(dp3008
g17
S'File'
p3009
sg15
S'toFile'
p3010
sg20
S'ToFile'
p3011
stRp3012
ag3
(g4
g5
(dp3013
g17
S'File'
p3014
sg15
S'fromFile'
p3015
sg20
S'FromFile'
p3016
stRp3017
ag3
(g4
g5
(dp3018
g17
S'SHA1'
p3019
sg15
S'baseSHA'
p3020
sg20
S'Base SHA'
p3021
stRp3022
ag3
(g4
g5
(dp3023
g17
S'SHA1'
p3024
sg15
S'wantsSHA'
p3025
sg20
S'Wants SHA'
p3026
stRp3027
ag3
(g4
g5
(dp3028
g17
S'IntegHow'
p3029
sg15
S'how'
p3030
sg20
S'Integration method: variations on merge/branch/copy/ignore/delete.'
p3031
stRp3032
ag3
(g4
g5
(dp3033
g17
S'ResolvedStatus'
p3034
sg15
S'state'
p3035
sg20
S'State'
p3036
stRp3037
atRp3038
sg15
S'ResolveG'
p3039
stRp3040
ag3
(g4
g5
(dp3041
g996
g3
(g8
g9
(lp3042
g3
(g4
g5
(dp3043
g17
S'File'
p3044
sg15
S'depotFile'
p3045
sg20
S'The file name'
p3046
stRp3047
ag3
(g4
g5
(dp3048
g17
S'Rev'
p3049
sg15
S'depotRev'
p3050
sg20
S'The revision number'
p3051
stRp3052
ag3
(g4
g5
(dp3053
g17
S'FileType'
p3054
sg15
S'type'
p3055
sg20
S'The file type of the revision'
p3056
stRp3057
ag3
(g4
g5
(dp3058
g17
S'Action'
p3059
sg15
S'action'
p3060
sg20
S'The action that created the revision'
p3061
stRp3062
ag3
(g4
g5
(dp3063
g17
S'Change'
p3064
sg15
S'change'
p3065
sg20
S'The changelist that created the revision'
p3066
stRp3067
ag3
(g4
g5
(dp3068
g17
S'Date'
p3069
sg15
S'date'
p3070
sg20
S'The date/time the changelist that created the revision\n                    was submitted'
p3071
stRp3072
ag3
(g4
g5
(dp3073
g17
S'Date'
p3074
sg15
S'modTime'
p3075
sg20
S"The timestamp on the file in the user's workspace when\n                    the revision was submitted."
p3076
stRp3077
ag3
(g4
g5
(dp3078
g17
S'Digest'
p3079
sg15
S'digest'
p3080
sg20
S'The MD5 digest of the revision.'
p3081
stRp3082
ag3
(g4
g5
(dp3083
g17
S'FileSize'
p3084
sg15
S'size'
p3085
sg20
S'The size of the file in bytes'
p3086
stRp3087
ag3
(g4
g5
(dp3088
g17
S'TraitLot'
p3089
sg15
S'traitLot'
p3090
sg20
S'Group of traits (attributes) associated with the revision.'
p3091
stRp3092
ag3
(g4
g5
(dp3093
g17
S'RevStatus'
p3094
sg15
S'lbrIsLazy'
p3095
sg20
S'Specifies whether or not the revision gets its content from\n                    another file (lazy copy), data about promotion of revision\n                    content from task streams, and data about revision charset\n                    information.'
p3096
stRp3097
ag3
(g4
g5
(dp3098
g17
S'File'
p3099
sg15
S'lbrFile'
p3100
sg20
S"Filename for librarian's purposes. Specifies location in\n                    the archives where the file containing the revision may\n                    be found. Usually the same as depotFile, but differs in\n                    the case of branched/copied revisions."
p3101
stRp3102
ag3
(g4
g5
(dp3103
g17
S'String'
p3104
sg15
S'lbrRev'
p3105
sg20
S'The revision of lbrFile that contains the revision content.'
p3106
stRp3107
ag3
(g4
g5
(dp3108
g17
S'FileType'
p3109
sg15
S'lbrType'
p3110
sg20
S'The file type of the librarian revision. Usually the same\n                    as type, but differs in the case of branched/copied\n                    revisions.'
p3111
stRp3112
atRp3113
sg15
S'Rev'
p3114
stRp3115
ag3
(g4
g5
(dp3116
g996
g3
(g8
g9
(lp3117
g3
(g4
g5
(dp3118
g17
S'Change'
p3119
sg15
S'change'
p3120
sg20
S'The changelist that created the revision'
p3121
stRp3122
ag3
(g4
g5
(dp3123
g17
S'File'
p3124
sg15
S'depotFile'
p3125
sg20
S'The file name'
p3126
stRp3127
ag3
(g4
g5
(dp3128
g17
S'Rev'
p3129
sg15
S'depotRev'
p3130
sg20
S'The revision number'
p3131
stRp3132
ag3
(g4
g5
(dp3133
g17
S'Action'
p3134
sg15
S'action'
p3135
sg20
S'The action that created the revision'
p3136
stRp3137
atRp3138
sg15
S'RevCx'
p3139
stRp3140
ag3
(g4
g5
(dp3141
g996
g3
(g8
g9
(lp3142
g3
(g4
g5
(dp3143
g17
S'User'
p3144
sg15
S'user'
p3145
sg20
S'A user name'
p3146
stRp3147
ag3
(g4
g5
(dp3148
g17
S'Int'
p3149
sg15
S'seq'
p3150
sg20
S'Sequence number: used for ordering multi-line views'
p3151
stRp3152
ag3
(g4
g5
(dp3153
g17
S'MapFlag'
p3154
sg15
S'mapFlag'
p3155
sg20
S'Type of mapping'
p3156
stRp3157
ag3
(g4
g5
(dp3158
g17
S'Mapping'
p3159
sg15
S'depotFile'
p3160
sg20
S'The files to be reviewed'
p3161
stRp3162
ag3
(g4
g5
(dp3163
g17
S'Reviewer'
p3164
sg15
S'type'
p3165
sg20
S'Type of reviewer'
p3166
stRp3167
atRp3168
sg15
S'Review'
p3169
stRp3170
ag3
(g4
g5
(dp3171
g996
g3
(g8
g9
(lp3172
g3
(g4
g5
(dp3173
g17
S'RemoteID'
p3174
sg15
S'id'
p3175
sg20
S'Remote name'
p3176
stRp3177
ag3
(g4
g5
(dp3178
g17
S'Int'
p3179
sg15
S'seq'
p3180
sg20
S'Sequence number: for ordering multi-line views'
p3181
stRp3182
ag3
(g4
g5
(dp3183
g17
S'MapFlag'
p3184
sg15
S'mapFlag'
p3185
sg20
S'Type of mapping'
p3186
stRp3187
ag3
(g4
g5
(dp3188
g17
S'Mapping'
p3189
sg15
S'localFile'
p3190
sg20
S'Local file'
p3191
stRp3192
ag3
(g4
g5
(dp3193
g17
S'Mapping'
p3194
sg15
S'remoteFile'
p3195
sg20
S'Remote file'
p3196
stRp3197
ag3
(g4
g5
(dp3198
g17
S'Int'
p3199
sg15
S'retain'
p3200
sg20
S'ArchiveLimits'
p3201
stRp3202
atRp3203
sg15
S'RmtView'
p3204
stRp3205
ag3
(g4
g5
(dp3206
g996
g3
(g8
g9
(lp3207
g3
(g4
g5
(dp3208
g17
S'File'
p3209
sg15
S'depotPath'
p3210
sg20
S'name of scanner task'
p3211
stRp3212
ag3
(g4
g5
(dp3213
g17
S'ScanState'
p3214
sg15
S'state'
p3215
sg20
S'scan state'
p3216
stRp3217
ag3
(g4
g5
(dp3218
g17
S'Int'
p3219
sg15
S'seq'
p3220
sg20
S'Next internal sequence number of working directories'
p3221
stRp3222
ag3
(g4
g5
(dp3223
g17
S'Int'
p3224
sg15
S'dirs'
p3225
sg20
S'directories processed'
p3226
stRp3227
ag3
(g4
g5
(dp3228
g17
S'Int'
p3229
sg15
S'files'
p3230
sg20
S'files processed'
p3231
stRp3232
ag3
(g4
g5
(dp3233
g17
S'Int'
p3234
sg15
S'zeros'
p3235
sg20
S'orphaned revisions'
p3236
stRp3237
ag3
(g4
g5
(dp3238
g17
S'Int'
p3239
sg15
S'dirserr'
p3240
sg20
S'directories skipped due to errors'
p3241
stRp3242
ag3
(g4
g5
(dp3243
g17
S'Int'
p3244
sg15
S'pri'
p3245
sg20
S'Priority (unused)'
p3246
stRp3247
ag3
(g4
g5
(dp3248
g17
S'Int'
p3249
sg15
S'reqpause'
p3250
sg20
S'request paused'
p3251
stRp3252
ag3
(g4
g5
(dp3253
g17
S'Text'
p3254
sg15
S'err'
p3255
sg20
S'background process error'
p3256
stRp3257
atRp3258
sg15
S'ScanCtl'
p3259
stRp3260
ag3
(g4
g5
(dp3261
g996
g3
(g8
g9
(lp3262
g3
(g4
g5
(dp3263
g17
S'File'
p3264
sg15
S'lskey'
p3265
sg20
S'library scan key'
p3266
stRp3267
ag3
(g4
g5
(dp3268
g17
S'Int'
p3269
sg15
S'seq'
p3270
sg20
S'The sequence of the work directory'
p3271
stRp3272
ag3
(g4
g5
(dp3273
g17
S'File'
p3274
sg15
S'file'
p3275
sg20
S'The path of the pending work directory'
p3276
stRp3277
atRp3278
sg15
S'ScanDir'
p3279
stRp3280
ag3
(g4
g5
(dp3281
g996
g3
(g8
g9
(lp3282
g3
(g4
g5
(dp3283
g17
S'Int'
p3284
sg15
S'taskid'
p3285
sg20
S'The process id (PID) of the sync'
p3286
stRp3287
ag3
(g4
g5
(dp3288
g17
S'Int'
p3289
sg15
S'seq'
p3290
sg20
S'Sequence number'
p3291
stRp3292
ag3
(g4
g5
(dp3293
g17
S'Text'
p3294
sg15
S'handle'
p3295
sg20
S'Handle'
p3296
stRp3297
ag3
(g4
g5
(dp3298
g17
S'File'
p3299
sg15
S'depotFile'
p3300
sg20
S'The file in the depot'
p3301
stRp3302
ag3
(g4
g5
(dp3303
g17
S'File'
p3304
sg15
S'clientFile'
p3305
sg20
S'The file in its location on the client'
p3306
stRp3307
ag3
(g4
g5
(dp3308
g17
S'Rev'
p3309
sg15
S'haveRev'
p3310
sg20
S'Have revision'
p3311
stRp3312
ag3
(g4
g5
(dp3313
g17
S'FileType'
p3314
sg15
S'type'
p3315
sg20
S'File type'
p3316
stRp3317
ag3
(g4
g5
(dp3318
g17
S'Date'
p3319
sg15
S'modtime'
p3320
sg20
S'Modification time'
p3321
stRp3322
ag3
(g4
g5
(dp3323
g17
S'Digest'
p3324
sg15
S'digest'
p3325
sg20
S'The MD5 digest of the revision'
p3326
stRp3327
ag3
(g4
g5
(dp3328
g17
S'FileSize'
p3329
sg15
S'size'
p3330
sg20
S'The size of the file in bytes'
p3331
stRp3332
ag3
(g4
g5
(dp3333
g17
S'File'
p3334
sg15
S'lbrFile'
p3335
sg20
S'Librarian filename'
p3336
stRp3337
ag3
(g4
g5
(dp3338
g17
S'String'
p3339
sg15
S'lbrRev'
p3340
sg20
S'The librarian revision number'
p3341
stRp3342
ag3
(g4
g5
(dp3343
g17
S'FileType'
p3344
sg15
S'lbrType'
p3345
sg20
S'The file type of the librarian revision'
p3346
stRp3347
ag3
(g4
g5
(dp3348
g17
S'Int'
p3349
sg15
S'flags'
p3350
sg20
S'Miscellaneous flags'
p3351
stRp3352
ag3
(g4
g5
(dp3353
g17
S'FileType'
p3354
sg15
S'clientType'
p3355
sg20
S'The client file type of the revision'
p3356
stRp3357
ag3
(g4
g5
(dp3358
g17
S'Rev'
p3359
sg15
S'depotRev'
p3360
sg20
S'The revision number of depotFile'
p3361
stRp3362
ag3
(g4
g5
(dp3363
g17
S'Change'
p3364
sg15
S'change'
p3365
sg20
S'The changelist that created the depotRev of depotFile'
p3366
stRp3367
ag3
(g4
g5
(dp3368
g17
S'Date'
p3369
sg15
S'date'
p3370
sg20
S'The date/time when the changelist that created depotRev of depotFile was submitted'
p3371
stRp3372
ag3
(g4
g5
(dp3373
g17
S'SHA1'
p3374
sg15
S'blobSha'
p3375
sg20
S'The Blob SHA'
p3376
stRp3377
ag3
(g4
g5
(dp3378
g17
S'Int'
p3379
sg15
S'repoSlot'
p3380
sg20
S'The repo slot (internal repo ordering)'
p3381
stRp3382
ag3
(g4
g5
(dp3383
g17
S'Digest'
p3384
sg15
S'shelveDigest'
p3385
sg20
S'Digest of previous shelved revision'
p3386
stRp3387
atRp3388
sg15
S'SendQ'
p3389
stRp3390
ag3
(g4
g5
(dp3391
g996
g3
(g8
g9
(lp3392
g3
(g4
g5
(dp3393
g17
S'Key'
p3394
sg15
S'id'
p3395
sg20
S'The server identifier'
p3396
stRp3397
ag3
(g4
g5
(dp3398
g17
S'ServerType'
p3399
sg15
S'type'
p3400
sg20
S'The server type: server/broker/proxy'
p3401
stRp3402
ag3
(g4
g5
(dp3403
g17
S'Text'
p3404
sg15
S'name'
p3405
sg20
S'The P4NAME used by this server'
p3406
stRp3407
ag3
(g4
g5
(dp3408
g17
S'Text'
p3409
sg15
S'address'
p3410
sg20
S'The P4PORT used by this server'
p3411
stRp3412
ag3
(g4
g5
(dp3413
g17
S'Text'
p3414
sg15
S'externalAddress'
p3415
sg20
S'For an edge server, this optional field contains its external address for connections from the\n                    commit server. This field is required for federated parallel submit.'
p3416
stRp3417
ag3
(g4
g5
(dp3418
g17
S'ServerServiceType'
p3419
sg15
S'services'
p3420
sg20
S'Service provided by this server'
p3421
stRp3422
ag3
(g4
g5
(dp3423
g17
S'Text'
p3424
sg15
S'desc'
p3425
sg20
S'Server description'
p3426
stRp3427
ag3
(g4
g5
(dp3428
g17
S'User'
p3429
sg15
S'user'
p3430
sg20
S'The service user used by this server'
p3431
stRp3432
ag3
(g4
g5
(dp3433
g17
S'ServerOptionsType'
p3434
sg15
S'options'
p3435
sg20
S'Server options'
p3436
stRp3437
ag3
(g4
g5
(dp3438
g17
S'Key'
p3439
sg15
S'rplFrom'
p3440
sg20
S'Replication from Server ID'
p3441
stRp3442
ag3
(g4
g5
(dp3443
g17
S'Text'
p3444
sg15
S'failoverSeen'
p3445
sg20
S'Mark failover as seen'
p3446
stRp3447
atRp3448
sg15
S'Server'
p3449
stRp3450
ag3
(g4
g5
(dp3451
g996
g3
(g8
g9
(lp3452
g3
(g4
g5
(dp3453
g17
S'File'
p3454
sg15
S'file'
p3455
sg20
S'Librarian file'
p3456
stRp3457
ag3
(g4
g5
(dp3458
g17
S'String'
p3459
sg15
S'rev'
p3460
sg20
S'Librarian revision'
p3461
stRp3462
ag3
(g4
g5
(dp3463
g17
S'FileType'
p3464
sg15
S'type'
p3465
sg20
S'The file type of the librarian revision'
p3466
stRp3467
ag3
(g4
g5
(dp3468
g17
S'Int'
p3469
sg15
S'refCount'
p3470
sg20
S'Reference count'
p3471
stRp3472
ag3
(g4
g5
(dp3473
g17
S'Digest'
p3474
sg15
S'digest'
p3475
sg20
S'MD5 of librarian file (ktext collapsed)'
p3476
stRp3477
ag3
(g4
g5
(dp3478
g17
S'FileSize'
p3479
sg15
S'size'
p3480
sg20
S'Size of file'
p3481
stRp3482
ag3
(g4
g5
(dp3483
g17
S'FileSize'
p3484
sg15
S'serverSize'
p3485
sg20
S'Size of librarian file on server at time of submit / shelve operation'
p3486
stRp3487
ag3
(g4
g5
(dp3488
g17
S'Digest'
p3489
sg15
S'compCksum'
p3490
sg20
S'Digest of compressed librarian file'
p3491
stRp3492
ag3
(g4
g5
(dp3493
g17
S'Date'
p3494
sg15
S'date'
p3495
sg20
S'Date of last update to the storage record'
p3496
stRp3497
atRp3498
sg15
S'Storage'
p3499
stRp3500
ag3
(g4
g5
(dp3501
g996
g3
(g8
g9
(lp3502
g3
(g4
g5
(dp3503
g17
S'Key'
p3504
sg15
S'repo'
p3505
sg20
S'Repository name'
p3506
stRp3507
ag3
(g4
g5
(dp3508
g17
S'Key'
p3509
sg15
S'sha'
p3510
sg20
S'Digest of the file in type appropriate format'
p3511
stRp3512
ag3
(g4
g5
(dp3513
g17
S'ObjectType'
p3514
sg15
S'type'
p3515
sg20
S'Type of graph object'
p3516
stRp3517
ag3
(g4
g5
(dp3518
g17
S'Int'
p3519
sg15
S'refCount'
p3520
sg20
S'Reference count'
p3521
stRp3522
ag3
(g4
g5
(dp3523
g17
S'Date'
p3524
sg15
S'date'
p3525
sg20
S'Date of last update to the storage record'
p3526
stRp3527
atRp3528
sg15
S'StorageG'
p3529
stRp3530
ag3
(g4
g5
(dp3531
g996
g3
(g8
g9
(lp3532
g3
(g4
g5
(dp3533
g17
S'Digest'
p3534
sg15
S'digest'
p3535
sg20
S'digest'
p3536
stRp3537
ag3
(g4
g5
(dp3538
g17
S'FileSize'
p3539
sg15
S'size'
p3540
sg20
S'file size'
p3541
stRp3542
ag3
(g4
g5
(dp3543
g17
S'Key'
p3544
sg15
S'file'
p3545
sg20
S'lbrFile'
p3546
stRp3547
ag3
(g4
g5
(dp3548
g17
S'lbrRev'
p3549
sg15
S'rev'
p3550
sg20
S'lbrRev'
p3551
stRp3552
ag3
(g4
g5
(dp3553
g17
S'FileType'
p3554
sg15
S'type'
p3555
sg20
S'lbrType'
p3556
stRp3557
atRp3558
sg15
S'StorageIdx'
p3559
stRp3560
ag3
(g4
g5
(dp3561
g996
g3
(g8
g9
(lp3562
g3
(g4
g5
(dp3563
g17
S'Domain'
p3564
sg15
S'client'
p3565
sg20
S'Client the stash refers to'
p3566
stRp3567
ag3
(g4
g5
(dp3568
g17
S'Domain'
p3569
sg15
S'stream'
p3570
sg20
S'Stream the stash refers to'
p3571
stRp3572
ag3
(g4
g5
(dp3573
g17
S'StashType'
p3574
sg15
S'type'
p3575
sg20
S'Stash type'
p3576
stRp3577
ag3
(g4
g5
(dp3578
g17
S'Int'
p3579
sg15
S'seq'
p3580
sg20
S'Sequence number'
p3581
stRp3582
ag3
(g4
g5
(dp3583
g17
S'Change'
p3584
sg15
S'change'
p3585
sg20
S'Stash change number'
p3586
stRp3587
atRp3588
sg15
S'Stash'
p3589
stRp3590
ag3
(g4
g5
(dp3591
g996
g3
(g8
g9
(lp3592
g3
(g4
g5
(dp3593
g17
S'Domain'
p3594
sg15
S'stream'
p3595
sg20
S'Stream name'
p3596
stRp3597
ag3
(g4
g5
(dp3598
g17
S'Domain'
p3599
sg15
S'parent'
p3600
sg20
S'Parent stream name'
p3601
stRp3602
ag3
(g4
g5
(dp3603
g17
S'Text'
p3604
sg15
S'title'
p3605
sg20
S'Stream title (alias for the stream name)'
p3606
stRp3607
ag3
(g4
g5
(dp3608
g17
S'StreamType'
p3609
sg15
S'type'
p3610
sg20
S'The type of stream'
p3611
stRp3612
ag3
(g4
g5
(dp3613
g17
S'Date'
p3614
sg15
S'preview'
p3615
sg20
S'Stream template modification time'
p3616
stRp3617
ag3
(g4
g5
(dp3618
g17
S'Change'
p3619
sg15
S'change'
p3620
sg20
S'Last submit to stream'
p3621
stRp3622
ag3
(g4
g5
(dp3623
g17
S'Change'
p3624
sg15
S'copyChange'
p3625
sg20
S'Parent change at last copy'
p3626
stRp3627
ag3
(g4
g5
(dp3628
g17
S'Change'
p3629
sg15
S'mergeChange'
p3630
sg20
S'Parent change at last merge'
p3631
stRp3632
ag3
(g4
g5
(dp3633
g17
S'Change'
p3634
sg15
S'highChange'
p3635
sg20
S'Highest change at last merge'
p3636
stRp3637
ag3
(g4
g5
(dp3638
g17
S'Int'
p3639
sg15
S'hash'
p3640
sg20
S'Hash value of dynamic branch'
p3641
stRp3642
ag3
(g4
g5
(dp3643
g17
S'StreamStatus'
p3644
sg15
S'status'
p3645
sg20
S'Flow status'
p3646
stRp3647
ag3
(g4
g5
(dp3648
g17
S'Int'
p3649
sg15
S'parentview'
p3650
sg20
S'Parent view inheritance mode'
p3651
stRp3652
atRp3653
sg15
S'Stream'
p3654
stRp3655
ag3
(g4
g5
(dp3656
g996
g3
(g8
g9
(lp3657
g3
(g4
g5
(dp3658
g17
S'Key'
p3659
sg15
S'toKey'
p3660
sg20
S'Stream specification to which integration is being performed (target)'
p3661
stRp3662
ag3
(g4
g5
(dp3663
g17
S'Int'
p3664
sg15
S'attr'
p3665
sg20
S'The specification field id which is being integrated'
p3666
stRp3667
ag3
(g4
g5
(dp3668
g17
S'Key'
p3669
sg15
S'fromKey'
p3670
sg20
S'Stream specification from which integration is being performed (source)'
p3671
stRp3672
ag3
(g4
g5
(dp3673
g17
S'Change'
p3674
sg15
S'endfromChange'
p3675
sg20
S'The ending change of the from stream spec.'
p3676
stRp3677
ag3
(g4
g5
(dp3678
g17
S'Change'
p3679
sg15
S'startfromChange'
p3680
sg20
S'The starting change of the from stream spec.'
p3681
stRp3682
ag3
(g4
g5
(dp3683
g17
S'Change'
p3684
sg15
S'endtoChange'
p3685
sg20
S'The ending change of the to stream spec'
p3686
stRp3687
ag3
(g4
g5
(dp3688
g17
S'Change'
p3689
sg15
S'starttoChange'
p3690
sg20
S'The starting change of the to stream spec'
p3691
stRp3692
ag3
(g4
g5
(dp3693
g17
S'Key'
p3694
sg15
S'baseKey'
p3695
sg20
S'The base stream specification from which the integration is being performed (source)'
p3696
stRp3697
ag3
(g4
g5
(dp3698
g17
S'Change'
p3699
sg15
S'baseChange'
p3700
sg20
S'The base changelist number of the baseKey'
p3701
stRp3702
ag3
(g4
g5
(dp3703
g17
S'IntegHow'
p3704
sg15
S'how'
p3705
sg20
S'Integration method: variations on merge/branch/copy/ignore/delete'
p3706
stRp3707
ag3
(g4
g5
(dp3708
g17
S'Change'
p3709
sg15
S'change'
p3710
sg20
S'End changelist number of the toKey into which integration was performed'
p3711
stRp3712
atRp3713
sg15
S'StreamSpecInteged'
p3714
stRp3715
ag3
(g4
g5
(dp3716
g996
g3
(g8
g9
(lp3717
g3
(g4
g5
(dp3718
g17
S'Key'
p3719
sg15
S'id'
p3720
sg20
S'Server name'
p3721
stRp3722
ag3
(g4
g5
(dp3723
g17
S'SvrViewType'
p3724
sg15
S'type'
p3725
sg20
S'View type'
p3726
stRp3727
ag3
(g4
g5
(dp3728
g17
S'Int'
p3729
sg15
S'seq'
p3730
sg20
S'Sequence (line) number'
p3731
stRp3732
ag3
(g4
g5
(dp3733
g17
S'MapFlag'
p3734
sg15
S'mapFlag'
p3735
sg20
S'Type of mapping'
p3736
stRp3737
ag3
(g4
g5
(dp3738
g17
S'Mapping'
p3739
sg15
S'viewFile'
p3740
sg20
S'View file'
p3741
stRp3742
atRp3743
sg15
S'SvrView'
p3744
stRp3745
ag3
(g4
g5
(dp3746
g996
g3
(g8
g9
(lp3747
g3
(g4
g5
(dp3748
g17
S'Key'
p3749
sg15
S'repo'
p3750
sg20
S'Repository name'
p3751
stRp3752
ag3
(g4
g5
(dp3753
g17
S'Key'
p3754
sg15
S'path'
p3755
sg20
S'Path at which the submodule is linked'
p3756
stRp3757
ag3
(g4
g5
(dp3758
g17
S'Key'
p3759
sg15
S'subrepo'
p3760
sg20
S'Submodule repository name'
p3761
stRp3762
atRp3763
sg15
S'Submodule'
p3764
stRp3765
ag3
(g4
g5
(dp3766
g996
g3
(g8
g9
(lp3767
g3
(g4
g5
(dp3768
g17
S'Domain'
p3769
sg15
S'name'
p3770
sg20
S'Stream name'
p3771
stRp3772
ag3
(g4
g5
(dp3773
g17
S'Change'
p3774
sg15
S'change'
p3775
sg20
S'Versioned at change'
p3776
stRp3777
ag3
(g4
g5
(dp3778
g17
S'Int'
p3779
sg15
S'seq'
p3780
sg20
S'Sequence (line) number'
p3781
stRp3782
ag3
(g4
g5
(dp3783
g17
S'Domain'
p3784
sg15
S'parent'
p3785
sg20
S'Parent stream name'
p3786
stRp3787
ag3
(g4
g5
(dp3788
g17
S'StreamType'
p3789
sg15
S'type'
p3790
sg20
S'Type of stream'
p3791
stRp3792
ag3
(g4
g5
(dp3793
g17
S'StreamPathType'
p3794
sg15
S'path'
p3795
sg20
S'Stream path type'
p3796
stRp3797
ag3
(g4
g5
(dp3798
g17
S'Mapping'
p3799
sg15
S'viewFile'
p3800
sg20
S'View file (left hand side of path)'
p3801
stRp3802
ag3
(g4
g5
(dp3803
g17
S'Mapping'
p3804
sg15
S'depotFile'
p3805
sg20
S'Depot file (right hand side of path)'
p3806
stRp3807
ag3
(g4
g5
(dp3808
g17
S'Value'
p3809
sg15
S'changeMap'
p3810
sg20
S"Stream 'import' path changelist specifier. The changelist\n                    limits in effect for a given client are displayed in a\n                    read-only client spec field called 'ChangeView'"
p3811
stRp3812
atRp3813
sg15
S'Template'
p3814
stRp3815
ag3
(g4
g5
(dp3816
g996
g3
(g8
g9
(lp3817
g3
(g4
g5
(dp3818
g17
S'Change'
p3819
sg15
S'shelf'
p3820
sg20
S'Shelf changelist number'
p3821
stRp3822
ag3
(g4
g5
(dp3823
g17
S'Domain'
p3824
sg15
S'name'
p3825
sg20
S'Stream name'
p3826
stRp3827
ag3
(g4
g5
(dp3828
g17
S'Int'
p3829
sg15
S'seq'
p3830
sg20
S'Sequence (line) number'
p3831
stRp3832
ag3
(g4
g5
(dp3833
g17
S'Change'
p3834
sg15
S'change'
p3835
sg20
S'Versioned at change'
p3836
stRp3837
ag3
(g4
g5
(dp3838
g17
S'Domain'
p3839
sg15
S'parent'
p3840
sg20
S'Parent stream name'
p3841
stRp3842
ag3
(g4
g5
(dp3843
g17
S'StreamType'
p3844
sg15
S'type'
p3845
sg20
S'Type of stream'
p3846
stRp3847
ag3
(g4
g5
(dp3848
g17
S'StreamPathType'
p3849
sg15
S'path'
p3850
sg20
S'Stream path type'
p3851
stRp3852
ag3
(g4
g5
(dp3853
g17
S'Mapping'
p3854
sg15
S'viewFile'
p3855
sg20
S'View file (left hand side of path)'
p3856
stRp3857
ag3
(g4
g5
(dp3858
g17
S'Mapping'
p3859
sg15
S'depotFile'
p3860
sg20
S'Depot file (right hand side of path)'
p3861
stRp3862
ag3
(g4
g5
(dp3863
g17
S'Value'
p3864
sg15
S'changeMap'
p3865
sg20
S"Stream 'import' path changelist specifier. The changelist\n                    limits in effect for a given client are displayed in a\n                    read-only client spec field called 'ChangeView'"
p3866
stRp3867
ag3
(g4
g5
(dp3868
g17
S'Change'
p3869
sg15
S'changeAtOpen'
p3870
sg20
S'Base change at time of opening'
p3871
stRp3872
ag3
(g4
g5
(dp3873
g17
S'User'
p3874
sg15
S'user'
p3875
sg20
S'The user that created the change'
p3876
stRp3877
ag3
(g4
g5
(dp3878
g17
S'Action'
p3879
sg15
S'action'
p3880
sg20
S'The action that created the change'
p3881
stRp3882
atRp3883
sg15
S'TemplateSx'
p3884
stRp3885
ag3
(g4
g5
(dp3886
g996
g3
(g8
g9
(lp3887
g3
(g4
g5
(dp3888
g17
S'Domain'
p3889
sg15
S'client'
p3890
sg20
S'Stream client'
p3891
stRp3892
ag3
(g4
g5
(dp3893
g17
S'Domain'
p3894
sg15
S'name'
p3895
sg20
S'Stream name'
p3896
stRp3897
ag3
(g4
g5
(dp3898
g17
S'Int'
p3899
sg15
S'seq'
p3900
sg20
S'Sequence (line) number'
p3901
stRp3902
ag3
(g4
g5
(dp3903
g17
S'Change'
p3904
sg15
S'change'
p3905
sg20
S'Versioned at change'
p3906
stRp3907
ag3
(g4
g5
(dp3908
g17
S'Domain'
p3909
sg15
S'parent'
p3910
sg20
S'Parent stream name'
p3911
stRp3912
ag3
(g4
g5
(dp3913
g17
S'StreamType'
p3914
sg15
S'type'
p3915
sg20
S'Type of stream'
p3916
stRp3917
ag3
(g4
g5
(dp3918
g17
S'StreamPathType'
p3919
sg15
S'path'
p3920
sg20
S'Stream path type'
p3921
stRp3922
ag3
(g4
g5
(dp3923
g17
S'Mapping'
p3924
sg15
S'viewFile'
p3925
sg20
S'View file (left hand side of path)'
p3926
stRp3927
ag3
(g4
g5
(dp3928
g17
S'Mapping'
p3929
sg15
S'depotFile'
p3930
sg20
S'Depot file (right hand side of path)'
p3931
stRp3932
ag3
(g4
g5
(dp3933
g17
S'Value'
p3934
sg15
S'changeMap'
p3935
sg20
S"Stream 'import' path changelist specifier. The changelist\n                    limits in effect for a given client are displayed in a\n                    read-only client spec field called 'ChangeView'"
p3936
stRp3937
ag3
(g4
g5
(dp3938
g17
S'Change'
p3939
sg15
S'changeAtOpen'
p3940
sg20
S'Base change at time of opening'
p3941
stRp3942
ag3
(g4
g5
(dp3943
g17
S'User'
p3944
sg15
S'user'
p3945
sg20
S'The user that created the change'
p3946
stRp3947
ag3
(g4
g5
(dp3948
g17
S'Action'
p3949
sg15
S'action'
p3950
sg20
S'The action that created the change'
p3951
stRp3952
atRp3953
sg15
S'TemplateWx'
p3954
stRp3955
ag3
(g4
g5
(dp3956
g996
g3
(g8
g9
(lp3957
g3
(g4
g5
(dp3958
g17
S'User'
p3959
sg15
S'user'
p3960
sg20
S'User the ticket was issued for'
p3961
stRp3962
ag3
(g4
g5
(dp3963
g17
S'Key'
p3964
sg15
S'host'
p3965
sg20
S'Host the ticket was issued for'
p3966
stRp3967
ag3
(g4
g5
(dp3968
g17
S'Password'
p3969
sg15
S'ticket'
p3970
sg20
S"The 'p4 login' ticket for this user"
p3971
stRp3972
ag3
(g4
g5
(dp3973
g17
S'2FAState'
p3974
sg15
S'state'
p3975
sg20
S'The state of 2 Factor Authentication'
p3976
stRp3977
ag3
(g4
g5
(dp3978
g17
S'String'
p3979
sg15
S'token'
p3980
sg20
S'The 2 Factor Authentication token'
p3981
stRp3982
ag3
(g4
g5
(dp3983
g17
S'Date'
p3984
sg15
S'updateDate'
p3985
sg20
S'The date of the last ticket update'
p3986
stRp3987
atRp3988
sg15
S'Ticket'
p3989
stRp3990
ag3
(g4
g5
(dp3991
g996
g3
(g8
g9
(lp3992
g3
(g4
g5
(dp3993
g17
S'Key'
p3994
sg15
S'key'
p3995
sg20
S'The file name and revision'
p3996
stRp3997
ag3
(g4
g5
(dp3998
g17
S'Octet String'
p3999
sg15
S'value'
p4000
sg20
S'The (encoded) file content'
p4001
stRp4002
atRp4003
sg15
S'TinyDb'
p4004
stRp4005
ag3
(g4
g5
(dp4006
g996
g3
(g8
g9
(lp4007
g3
(g4
g5
(dp4008
g17
S'Int'
p4009
sg15
S'traitLot'
p4010
sg20
S'Indicates a specific collection of traits (referred to\n                    externally as "attributes".)'
p4011
stRp4012
ag3
(g4
g5
(dp4013
g17
S'Key'
p4014
sg15
S'name'
p4015
sg20
S'Trait (attribute) name'
p4016
stRp4017
ag3
(g4
g5
(dp4018
g17
S'TraitType'
p4019
sg15
S'type'
p4020
sg20
S'Type of trait'
p4021
stRp4022
ag3
(g4
g5
(dp4023
g17
S'Octet String'
p4024
sg15
S'value'
p4025
sg20
S'The value'
p4026
stRp4027
atRp4028
sg15
S'Trait'
p4029
stRp4030
ag3
(g4
g5
(dp4031
g996
g3
(g8
g9
(lp4032
g3
(g4
g5
(dp4033
g17
S'Int'
p4034
sg15
S'seq'
p4035
sg20
S'Sequence number: for ordering the trigger list'
p4036
stRp4037
ag3
(g4
g5
(dp4038
g17
S'Key'
p4039
sg15
S'name'
p4040
sg20
S'Name of the trigger'
p4041
stRp4042
ag3
(g4
g5
(dp4043
g17
S'MapFlag'
p4044
sg15
S'mapFlag'
p4045
sg20
S'Type of mapping: specifies whether the trigger applies\n                    to the files or not.'
p4046
stRp4047
ag3
(g4
g5
(dp4048
g17
S'Mapping'
p4049
sg15
S'depotFile'
p4050
sg20
S'The files to apply the trigger to'
p4051
stRp4052
ag3
(g4
g5
(dp4053
g17
S'File'
p4054
sg15
S'triggerDepotFile'
p4055
sg20
S'Depot path to the trigger'
p4056
stRp4057
ag3
(g4
g5
(dp4058
g17
S'Trigger'
p4059
sg15
S'trigger'
p4060
sg20
S'Type of trigger'
p4061
stRp4062
ag3
(g4
g5
(dp4063
g17
S'Text'
p4064
sg15
S'action'
p4065
sg20
S'Command to execute when trigger runs'
p4066
stRp4067
atRp4068
sg15
S'Trigger'
p4069
stRp4070
ag3
(g4
g5
(dp4071
g996
g3
(g8
g9
(lp4072
g3
(g4
g5
(dp4073
g17
S'Int'
p4074
sg15
S'seq'
p4075
sg20
S'Sequence'
p4076
stRp4077
ag3
(g4
g5
(dp4078
g17
S'Text'
p4079
sg15
S'name'
p4080
sg20
S'name of upgrade'
p4081
stRp4082
ag3
(g4
g5
(dp4083
g17
S'UpgradeState'
p4084
sg15
S'state'
p4085
sg20
S'current state'
p4086
stRp4087
ag3
(g4
g5
(dp4088
g17
S'Date'
p4089
sg15
S'startdate'
p4090
sg20
S'upgrade started'
p4091
stRp4092
ag3
(g4
g5
(dp4093
g17
S'Date'
p4094
sg15
S'enddate'
p4095
sg20
S'upgrade ended'
p4096
stRp4097
ag3
(g4
g5
(dp4098
g17
S'Text'
p4099
sg15
S'info'
p4100
sg20
S'optional information specific to the upgrade step'
p4101
stRp4102
atRp4103
sg15
S'Upgrades'
p4104
stRp4105
ag3
(g4
g5
(dp4106
g996
g3
(g8
g9
(lp4107
g3
(g4
g5
(dp4108
g17
S'User'
p4109
sg15
S'user'
p4110
sg20
S'The username'
p4111
stRp4112
ag3
(g4
g5
(dp4113
g17
S'Text'
p4114
sg15
S'email'
p4115
sg20
S"The user's email address"
p4116
stRp4117
ag3
(g4
g5
(dp4118
g17
S'Text'
p4119
sg15
S'jobView'
p4120
sg20
S"The user's job view"
p4121
stRp4122
ag3
(g4
g5
(dp4123
g17
S'Date'
p4124
sg15
S'updateDate'
p4125
sg20
S'The date/time the user record was last updated'
p4126
stRp4127
ag3
(g4
g5
(dp4128
g17
S'Date'
p4129
sg15
S'accessDate'
p4130
sg20
S'The date/time the user record was last used'
p4131
stRp4132
ag3
(g4
g5
(dp4133
g17
S'Text'
p4134
sg15
S'fullName'
p4135
sg20
S"The user's full name"
p4136
stRp4137
ag3
(g4
g5
(dp4138
g17
S'Password'
p4139
sg15
S'password'
p4140
sg20
S'The MD5 hash of the users (encrypted) password'
p4141
stRp4142
ag3
(g4
g5
(dp4143
g17
S'Strength'
p4144
sg15
S'strength'
p4145
sg20
S"Measure of the strength of the user's password"
p4146
stRp4147
ag3
(g4
g5
(dp4148
g17
S'Password'
p4149
sg15
S'ticket'
p4150
sg20
S"'p4 login' ticket for this user"
p4151
stRp4152
ag3
(g4
g5
(dp4153
g17
S'Date'
p4154
sg15
S'endDate'
p4155
sg20
S"Date/time the user's ticket expires"
p4156
stRp4157
ag3
(g4
g5
(dp4158
g17
S'UserLevel'
p4159
sg15
S'type'
p4160
sg20
S'Type of user'
p4161
stRp4162
ag3
(g4
g5
(dp4163
g17
S'Date'
p4164
sg15
S'passDate'
p4165
sg20
S'Date password was last changed'
p4166
stRp4167
ag3
(g4
g5
(dp4168
g17
S'Date'
p4169
sg15
S'passExpire'
p4170
sg20
S'Date of password expiration'
p4171
stRp4172
ag3
(g4
g5
(dp4173
g17
S'Date'
p4174
sg15
S'attempts'
p4175
sg20
S'Failed login attempts'
p4176
stRp4177
ag3
(g4
g5
(dp4178
g17
S'UserAuthType'
p4179
sg15
S'auth'
p4180
sg20
S'Authentication method (AuthMethod) for the user'
p4181
stRp4182
atRp4183
sg15
S'User'
p4184
stRp4185
ag3
(g4
g5
(dp4186
g996
g3
(g8
g9
(lp4187
g3
(g4
g5
(dp4188
g17
S'Domain'
p4189
sg15
S'name'
p4190
sg20
S'Domain name to which this view applies'
p4191
stRp4192
ag3
(g4
g5
(dp4193
g17
S'Int'
p4194
sg15
S'seq'
p4195
sg20
S'Sequence number: for ordering multi-line views'
p4196
stRp4197
ag3
(g4
g5
(dp4198
g17
S'MapFlag'
p4199
sg15
S'mapFlag'
p4200
sg20
S'Type of mapping'
p4201
stRp4202
ag3
(g4
g5
(dp4203
g17
S'Mapping'
p4204
sg15
S'viewFile'
p4205
sg20
S"The right-hand-side of the view. For clients, this is\n                    the client-side, for labels it's the generated label\n                    view. For branches, it's the target side of the branch\n                    view."
p4206
stRp4207
ag3
(g4
g5
(dp4208
g17
S'Mapping'
p4209
sg15
S'depotFile'
p4210
sg20
S'The left-hand-side of the view - a mapping to file(s)\n                    in the depot.'
p4211
stRp4212
atRp4213
sg15
S'View'
p4214
stRp4215
ag3
(g4
g5
(dp4216
g996
g3
(g8
g9
(lp4217
g3
(g4
g5
(dp4218
g17
S'File'
p4219
sg15
S'clientFile'
p4220
sg20
S'File on the client'
p4221
stRp4222
ag3
(g4
g5
(dp4223
g17
S'File'
p4224
sg15
S'depotFile'
p4225
sg20
S'File in the depot'
p4226
stRp4227
ag3
(g4
g5
(dp4228
g17
S'Domain'
p4229
sg15
S'client'
p4230
sg20
S'The client the file is opened on'
p4231
stRp4232
ag3
(g4
g5
(dp4233
g17
S'User'
p4234
sg15
S'user'
p4235
sg20
S'The user who has the file opened'
p4236
stRp4237
ag3
(g4
g5
(dp4238
g17
S'Rev'
p4239
sg15
S'haveRev'
p4240
sg20
S"Revision presently in user's client workspace"
p4241
stRp4242
ag3
(g4
g5
(dp4243
g17
S'Rev'
p4244
sg15
S'workRev'
p4245
sg20
S'Working revision; normally identical to the haveRev'
p4246
stRp4247
ag3
(g4
g5
(dp4248
g17
S'Int'
p4249
sg15
S'isVirtual'
p4250
sg20
S'Flag: if 1, file was opened with "p4 integ -v".'
p4251
stRp4252
ag3
(g4
g5
(dp4253
g17
S'FileType'
p4254
sg15
S'type'
p4255
sg20
S'File type'
p4256
stRp4257
ag3
(g4
g5
(dp4258
g17
S'Action'
p4259
sg15
S'action'
p4260
sg20
S"What the user's doing with the file"
p4261
stRp4262
ag3
(g4
g5
(dp4263
g17
S'Change'
p4264
sg15
S'change'
p4265
sg20
S'Associated changelist, or zero for the default changelist.'
p4266
stRp4267
ag3
(g4
g5
(dp4268
g17
S'Date'
p4269
sg15
S'modTime'
p4270
sg20
S"Modification timestamp on the file in the user's workspace."
p4271
stRp4272
ag3
(g4
g5
(dp4273
g17
S'LockedType'
p4274
sg15
S'isLocked'
p4275
sg20
S'Bitmask of locked flags'
p4276
stRp4277
ag3
(g4
g5
(dp4278
g17
S'Digest'
p4279
sg15
S'digest'
p4280
sg20
S'MD5 digest of working file.'
p4281
stRp4282
ag3
(g4
g5
(dp4283
g17
S'FileSize'
p4284
sg15
S'size'
p4285
sg20
S'File size'
p4286
stRp4287
ag3
(g4
g5
(dp4288
g17
S'TraitLot'
p4289
sg15
S'traitLot'
p4290
sg20
S'Group of traits associated with file revision.'
p4291
stRp4292
ag3
(g4
g5
(dp4293
g17
S'TamperCheck'
p4294
sg15
S'tampered'
p4295
sg20
S'Flag indicating the tamper-state of the file in the\n                    workspace.'
p4296
stRp4297
ag3
(g4
g5
(dp4298
g17
S'FileType'
p4299
sg15
S'clientType'
p4300
sg20
S'Type of the file in the client workspace.'
p4301
stRp4302
ag3
(g4
g5
(dp4303
g17
S'File'
p4304
sg15
S'movedFile'
p4305
sg20
S'Moved from filename'
p4306
stRp4307
ag3
(g4
g5
(dp4308
g17
S'WorkStatus'
p4309
sg15
S'status'
p4310
sg20
S'Working status'
p4311
stRp4312
atRp4313
sg15
S'Working'
p4314
stRp4315
ag3
(g4
g5
(dp4316
g996
g3
(g8
g9
(lp4317
g3
(g4
g5
(dp4318
g17
S'File'
p4319
sg15
S'clientFile'
p4320
sg20
S'File on the client'
p4321
stRp4322
ag3
(g4
g5
(dp4323
g17
S'File'
p4324
sg15
S'depotFile'
p4325
sg20
S'File in the depot'
p4326
stRp4327
ag3
(g4
g5
(dp4328
g17
S'Domain'
p4329
sg15
S'client'
p4330
sg20
S'The client on which the file is opened'
p4331
stRp4332
ag3
(g4
g5
(dp4333
g17
S'User'
p4334
sg15
S'user'
p4335
sg20
S'The user who has the file opened'
p4336
stRp4337
ag3
(g4
g5
(dp4338
g17
S'Rev'
p4339
sg15
S'haveRev'
p4340
sg20
S"Revision presently in user's client workspace"
p4341
stRp4342
ag3
(g4
g5
(dp4343
g17
S'Rev'
p4344
sg15
S'workRev'
p4345
sg20
S'Working revision; normally identical to the haveRev'
p4346
stRp4347
ag3
(g4
g5
(dp4348
g17
S'Int'
p4349
sg15
S'isVirtual'
p4350
sg20
S'Flag: if 1, file was opened with "p4 integ -v".'
p4351
stRp4352
ag3
(g4
g5
(dp4353
g17
S'FileType'
p4354
sg15
S'type'
p4355
sg20
S'File type'
p4356
stRp4357
ag3
(g4
g5
(dp4358
g17
S'Action'
p4359
sg15
S'action'
p4360
sg20
S"What the user's doing with the file"
p4361
stRp4362
ag3
(g4
g5
(dp4363
g17
S'Change'
p4364
sg15
S'change'
p4365
sg20
S'Associated changelist, or zero for the default changelist.'
p4366
stRp4367
ag3
(g4
g5
(dp4368
g17
S'Date'
p4369
sg15
S'modTime'
p4370
sg20
S"Modification timestamp on the file in the user's workspace."
p4371
stRp4372
ag3
(g4
g5
(dp4373
g17
S'LockedType'
p4374
sg15
S'isLocked'
p4375
sg20
S'Bitmask of locked flags'
p4376
stRp4377
ag3
(g4
g5
(dp4378
g17
S'Digest'
p4379
sg15
S'digest'
p4380
sg20
S'MD5 digest of working file.'
p4381
stRp4382
ag3
(g4
g5
(dp4383
g17
S'FileSize'
p4384
sg15
S'size'
p4385
sg20
S'File size'
p4386
stRp4387
ag3
(g4
g5
(dp4388
g17
S'TraitLot'
p4389
sg15
S'traitLot'
p4390
sg20
S'Group of traits associated with file revision.'
p4391
stRp4392
ag3
(g4
g5
(dp4393
g17
S'TamperCheck'
p4394
sg15
S'tampered'
p4395
sg20
S'Flag indicating the tamper-state of the file in the\n                    workspace.'
p4396
stRp4397
ag3
(g4
g5
(dp4398
g17
S'FileType'
p4399
sg15
S'clientType'
p4400
sg20
S'Type of the file in the client workspace.'
p4401
stRp4402
ag3
(g4
g5
(dp4403
g17
S'File'
p4404
sg15
S'movedFile'
p4405
sg20
S'Moved from filename'
p4406
stRp4407
ag3
(g4
g5
(dp4408
g17
S'WorkStatus'
p4409
sg15
S'status'
p4410
sg20
S'Working status'
p4411
stRp4412
ag3
(g4
g5
(dp4413
g17
S'SHA1'
p4414
sg15
S'blobSha'
p4415
sg20
S'Blob SHA'
p4416
stRp4417
ag3
(g4
g5
(dp4418
g17
S'Key'
p4419
sg15
S'repo'
p4420
sg20
S'Repository name'
p4421
stRp4422
atRp4423
sg15
S'WorkingG'
p4424
stRp4425
atRp4426
stRp4427
sS'upgrades'
p4428
g3
(g4
g5
(dp4429
S'upgrade'
p4430
g3
(g8
g9
(lp4431
g3
(g4
g5
(dp4432
g742
S'2001.1'
p4433
sg744
S'1'
sg20
S'Split db.integ into db.integed and db.resolve'
p4434
stRp4435
ag3
(g4
g5
(dp4436
g742
S'2001.1'
p4437
sg744
S'2'
sg20
S'Split db.have into db.have and db.label'
p4438
stRp4439
ag3
(g4
g5
(dp4440
g742
S'2002.1'
p4441
sg744
S'3'
sg20
S'Split db.change into db.change and db.changex'
p4442
stRp4443
ag3
(g4
g5
(dp4444
g742
S'2002.2'
p4445
sg744
S'4'
sg20
S'Upgrade tempobj filetype in db.rev'
p4446
stRp4447
ag3
(g4
g5
(dp4448
g742
S'2002.2'
p4449
sg744
S'5'
sg20
S'Upgrade tempobj filetype in db.working'
p4450
stRp4451
ag3
(g4
g5
(dp4452
g742
S'2003.1'
p4453
sg744
S'6'
sg20
S'JnlInitialize default depot'
p4454
stRp4455
ag3
(g4
g5
(dp4456
g742
S'2003.2'
p4457
sg744
S'7'
sg20
S'Upgrade db.user'
p4458
stRp4459
ag3
(g4
g5
(dp4460
g742
S'2005.1'
p4461
sg744
S'8'
sg20
S'Build db.revhx (headrev) table'
p4462
stRp4463
ag3
(g4
g5
(dp4464
g742
S'2005.1'
p4465
sg744
S'9'
sg20
S'Rebuild db.locks from db.working'
p4466
stRp4467
ag3
(g4
g5
(dp4468
g742
S'2005.1'
p4469
sg744
S'10'
p4470
sg308
S'Removed in 2006.2'
p4471
sg20
S'Build lazy-copy index (db.archive)'
p4472
stRp4473
ag3
(g4
g5
(dp4474
g742
S'2005.2'
p4475
sg744
S'11'
p4476
sg20
S'Build db.revdx (delrev) table'
p4477
stRp4478
ag3
(g4
g5
(dp4479
g742
S'2005.2'
p4480
sg744
S'12'
p4481
sg308
S'Moved to 16 in 2007.3'
p4482
sg20
S'Build haveMap from db.have/db.working'
p4483
stRp4484
ag3
(g4
g5
(dp4485
g742
S'2005.2'
p4486
sg744
S'13'
p4487
sg20
S'Move spec depot entries into db.revsx'
p4488
stRp4489
ag3
(g4
g5
(dp4490
g742
S'2006.2'
p4491
sg744
S'14'
p4492
sg308
S'Moved to 17 in 2007.3'
p4493
sg20
S'Build db.archmap (lazy-copy map) table'
p4494
stRp4495
ag3
(g4
g5
(dp4496
g742
S'2006.2'
p4497
sg744
S'15'
p4498
sg308
S'Moved to 18 in 2007.3'
p4499
sg20
S'Remove (obsolete) db.archive table'
p4500
stRp4501
ag3
(g4
g5
(dp4502
g742
S'2007.3'
p4503
sg744
S'16'
p4504
sg308
S'Rewritten in 2007.3'
p4505
sg20
S'Build/Rebuild haveMap from db.have/db.working'
p4506
stRp4507
ag3
(g4
g5
(dp4508
g742
S'2007.3'
p4509
sg744
S'17'
p4510
sg308
S'Removed in 2019.1'
p4511
sg20
S'Build/Rebuild db.archmap (lazy-copy map) table'
p4512
stRp4513
ag3
(g4
g5
(dp4514
g742
S'2007.3'
p4515
sg744
S'18'
p4516
sg308
S'Moved from 15 in 2007.3'
p4517
sg20
S'Remove (obsolete) db.archive table'
p4518
stRp4519
ag3
(g4
g5
(dp4520
g742
S'2008.1'
p4521
sg744
S'19'
p4522
sg20
S'Build db.change common path'
p4523
stRp4524
ag3
(g4
g5
(dp4525
g742
S'2009.2'
p4526
sg744
S'20'
p4527
sg20
S'Move db.boddate/db.ixdate into db.bodtext/db.ixtext'
p4528
stRp4529
ag3
(g4
g5
(dp4530
g742
S'2009.2'
p4531
sg744
S'21'
p4532
sg20
S'Remove db.boddate/db.ixdate'
p4533
stRp4534
ag3
(g4
g5
(dp4535
g742
S'2010.2'
p4536
sg744
S'22'
p4537
sg20
S'Move system counters into db.config'
p4538
stRp4539
ag3
(g4
g5
(dp4540
g742
S'2011.1'
p4541
sg744
S'23'
p4542
sg20
S'Upgrade tiny.db'
p4543
stRp4544
ag3
(g4
g5
(dp4545
g742
S'2015.2'
p4546
sg744
S'24'
p4547
sg20
S'Move LDAP specs into db.ldap'
p4548
stRp4549
ag3
(g4
g5
(dp4550
g742
S'2016.1'
p4551
sg744
S'25'
p4552
sg20
S'Create db.templatesx and db.templatewx'
p4553
stRp4554
ag3
(g4
g5
(dp4555
g742
S'2016.2'
p4556
sg744
S'26'
p4557
sg20
S'JnlInitialize graph depot'
p4558
stRp4559
ag3
(g4
g5
(dp4560
g742
S'2017.1'
p4561
sg744
S'27'
p4562
sg20
S'Rename repo specifications, build owner graph permissions, remove db.repoview'
p4563
stRp4564
ag3
(g4
g5
(dp4565
g742
S'2017.2'
p4566
sg744
S'28'
p4567
sg20
S'No upgrades - upgrade counter value increment only'
p4568
stRp4569
ag3
(g4
g5
(dp4570
g742
S'2018.1'
p4571
sg744
S'29'
p4572
sg308
S'remove db.graphindex'
p4573
sg20
S'Remove existing db.graphindex'
p4574
stRp4575
ag3
(g4
g5
(dp4576
g742
S'2018.2'
p4577
sg744
S'30'
p4578
sg20
S'JnlInitialize Extensions depot and server.extensions.dir'
p4579
stRp4580
ag3
(g4
g5
(dp4581
g742
S'2018.2'
p4582
sg744
S'31'
p4583
sg20
S'Normalize a field in the triggers table'
p4584
stRp4585
ag3
(g4
g5
(dp4586
g742
S'2019.1'
p4587
sg744
S'32'
p4588
sg20
S'Build db.storage from db.rev, db.revsh and db.revtx, remove db.archmap'
p4589
stRp4590
ag3
(g4
g5
(dp4591
g742
S'2019.1'
p4592
sg744
S'33'
p4593
sg20
S'Add default namespace to Extension configurations'
p4594
stRp4595
ag3
(g4
g5
(dp4596
g742
S'2019.2'
p4597
sg744
S'34'
p4598
sg20
S'Upgrade git-connector server specs'
p4599
stRp4600
ag3
(g4
g5
(dp4601
g742
S'2019.2'
p4602
sg744
S'35'
p4603
sg20
S'Correct configurationVersion server names'
p4604
stRp4605
ag3
(g4
g5
(dp4606
g742
S'2020.1'
p4607
sg744
S'36'
p4608
sg20
S'perform upgrade checks for 2020.1'
p4609
stRp4610
ag3
(g4
g5
(dp4611
g742
S'2020.2'
p4612
sg744
S'37'
p4613
sg20
S'installation running 2020.2 release'
p4614
stRp4615
ag3
(g4
g5
(dp4616
g742
S'2020.2'
p4617
sg744
S'38'
p4618
sg20
S'build db.storagesx index from db.storagesh'
p4619
stRp4620
ag3
(g4
g5
(dp4621
g742
S'2020.2'
p4622
sg744
S'39'
p4623
sg20
S'purge the server.locks directory of stale lock files'
p4624
stRp4625
atRp4626
stRp4627
sS'datatypes'
p4628
g3
(g4
g5
(dp4629
S'datatype'
p4630
g3
(g8
g9
(lp4631
g3
(g4
g5
(dp4632
S'values'
p4633
g3
(g8
g9
(lp4634
g3
(g4
g5
(dp4635
S'mask'
p4636
S'Scheme Flags'
p4637
sS'value'
p4638
S'0x0001'
p4639
sg20
S'otp-generated; one-time password generated'
p4640
stRp4641
ag3
(g4
g5
(dp4642
g4636
S'Scheme Flags'
p4643
sg4638
S'0x0002'
p4644
sg20
S'otp-requested; one-time password requested'
p4645
stRp4646
ag3
(g4
g5
(dp4647
g4636
S'Scheme Flags'
p4648
sg4638
S'0x0003'
p4649
sg20
S'challenge; challenge/response'
p4650
stRp4651
ag3
(g4
g5
(dp4652
g4636
S'Scheme Flags'
p4653
sg4638
S'0x0004'
p4654
sg20
S'external; 3rd-party prompting'
p4655
stRp4656
ag3
(g4
g5
(dp4657
g4636
S'Status Flags'
p4658
sg4638
S'0x0100'
p4659
sg20
S'authenticated; host is authenticated'
p4660
stRp4661
ag3
(g4
g5
(dp4662
g4636
S'Status Flags'
p4663
sg4638
S'0x0200'
p4664
sg20
S'persisted; 2FA persists for this host'
p4665
stRp4666
ag3
(g4
g5
(dp4667
g4636
S'Status Flags'
p4668
sg4638
S'0x0400'
p4669
sg20
S'forced; superuser skipped the checks'
p4670
stRp4671
ag3
(g4
g5
(dp4672
g4636
S'Status Flags'
p4673
sg4638
S'0x0800'
p4674
sg20
S'skipped; 2FA was not required'
p4675
stRp4676
ag3
(g4
g5
(dp4677
g4636
S'Status Flags'
p4678
sg4638
S'0x1000'
p4679
sg20
S'waiting; waiting on 2FA service'
p4680
stRp4681
ag3
(g4
g5
(dp4682
g4636
S'Status Flags'
p4683
sg4638
S'0x2000'
p4684
sg20
S'token-requested; OTP requested from 2FA service'
p4685
stRp4686
ag3
(g4
g5
(dp4687
g4636
S'Status Flags'
p4688
sg4638
S'0x4000'
p4689
sg20
S'required; 2FA required'
p4690
stRp4691
ag3
(g4
g5
(dp4692
g4636
S'Status Flags'
p4693
sg4638
S'0x8000'
p4694
sg20
S'rejected; external 2FA was rejected'
p4695
stRp4696
atRp4697
sg15
S'2FAState'
p4698
sg4636
g3
(g8
g9
(lp4699
g3
(g4
g5
(dp4700
g15
S'Scheme Flags'
p4701
sg4638
S'0xFF'
p4702
sg20
S'Bits used to store second factor authentication scheme'
p4703
stRp4704
ag3
(g4
g5
(dp4705
g15
S'Status Flags'
p4706
sg4638
S'None'
p4707
sg20
S'Bits used to store second factor authentication status'
p4708
stRp4709
atRp4710
sS'summary'
p4711
S'Second Factor Authentication State'
p4712
sg17
S'bitmask'
p4713
sg20
S'Second factor authentication scheme and status'
p4714
stRp4715
ag3
(g4
g5
(dp4716
g17
S'flag'
p4717
sg4711
S'Type of action'
p4718
sg4633
g3
(g8
g9
(lp4719
g3
(g4
g5
(dp4720
g4638
S'0'
sg20
S'add; user adds a file'
p4721
stRp4722
ag3
(g4
g5
(dp4723
g4638
S'1'
sg20
S'edit; user edits a file'
p4724
stRp4725
ag3
(g4
g5
(dp4726
g4638
S'2'
sg20
S'delete; user deletes a file'
p4727
stRp4728
ag3
(g4
g5
(dp4729
g4638
S'3'
sg20
S'branch; add via integration'
p4730
stRp4731
ag3
(g4
g5
(dp4732
g4638
S'4'
sg20
S'integ; edit via integration'
p4733
stRp4734
ag3
(g4
g5
(dp4735
g4638
S'5'
sg20
S'import; add via remote depot'
p4736
stRp4737
ag3
(g4
g5
(dp4738
g4638
S'6'
sg20
S'purge; purged revision, no longer available'
p4739
stRp4740
ag3
(g4
g5
(dp4741
g4638
S'7'
sg20
S'movefrom; move from another filename'
p4742
stRp4743
ag3
(g4
g5
(dp4744
g4638
S'8'
sg20
S'moveto; move to another filename'
p4745
stRp4746
ag3
(g4
g5
(dp4747
g4638
S'9'
sg20
S'archive; stored in archive depot'
p4748
stRp4749
atRp4750
sg15
S'Action'
p4751
sg20
S'Revisions are produced by user actions. The Action\n                type defines the available actions and their internal values.'
p4752
stRp4753
ag3
(g4
g5
(dp4754
g4711
S'A changelist number'
p4755
sg17
S'integer'
p4756
sg15
S'Change'
p4757
sg20
S'The number of a changelist. The number 0 represents the\n                default pending changelist.'
p4758
stRp4759
ag3
(g4
g5
(dp4760
g4633
g3
(g8
g9
(lp4761
g3
(g4
g5
(dp4762
g4636
S'Change Status Flags'
p4763
sg4638
S'0x0001'
p4764
sg20
S'committed'
p4765
stRp4766
ag3
(g4
g5
(dp4767
g4636
S'Change Status Flags'
p4768
sg4638
S'0x0002'
p4769
sg20
S'shelved'
p4770
stRp4771
ag3
(g4
g5
(dp4772
g4636
S'Change Status Flags'
p4773
sg4638
S'0x0004'
p4774
sg20
S'restricted'
p4775
stRp4776
ag3
(g4
g5
(dp4777
g4636
S'Change Status Flags'
p4778
sg4638
S'0x0008'
p4779
sg20
S'hidden'
p4780
stRp4781
ag3
(g4
g5
(dp4782
g4636
S'Change Status Flags'
p4783
sg4638
S'0x0010'
p4784
sg20
S'elsewhere'
p4785
stRp4786
ag3
(g4
g5
(dp4787
g4636
S'Change Status Flags'
p4788
sg4638
S'0x0012'
p4789
sg20
S'promoted - elsewhere, shelved'
p4790
stRp4791
ag3
(g4
g5
(dp4792
g4636
S'Change Status Flags'
p4793
sg4638
S'0x0020'
p4794
sg20
S'unsubmitted'
p4795
stRp4796
ag3
(g4
g5
(dp4797
g4636
S'Change Status Flags'
p4798
sg4638
S'0x0040'
p4799
sg20
S'hasgraph'
p4800
stRp4801
atRp4802
sg15
S'ChangeStatus'
p4803
sg4636
g3
(g4
g5
(dp4804
g15
S'Change Status Flags'
p4805
sg4638
S'0x7F'
p4806
sg20
S'Bits used to store change status flags'
p4807
stRp4808
sg4711
S'The status of a change'
p4809
sg17
S'flag'
p4810
sg20
S'A bit mask representing the status of a change'
p4811
stRp4812
ag3
(g4
g5
(dp4813
g4711
S'A counter name'
p4814
sg17
S'string'
p4815
sg15
S'Counter'
p4816
sg20
S'A string representing the counter name. Counter names must\n                contain no spaces, contain no slashes, and be identifiers\n                (cannot begin with a dash and cannot be all-numeric)'
p4817
stRp4818
ag3
(g4
g5
(dp4819
g4711
S'A unix-style date and time'
p4820
sg17
S'integer'
p4821
sg15
S'Date'
p4822
sg20
S'A date and time represented as the number of seconds since\n                the Epoch: 01 January 1970 00:00:00 UTC. This is the same\n                convention as that used on Unix platforms.'
p4823
stRp4824
ag3
(g4
g5
(dp4825
g17
S'flag'
p4826
sg4711
S'Type of Depot'
p4827
sg4633
g3
(g8
g9
(lp4828
g3
(g4
g5
(dp4829
g4638
S'0'
sg20
S'local depot'
p4830
stRp4831
ag3
(g4
g5
(dp4832
g4638
S'1'
sg20
S'remote depot'
p4833
stRp4834
ag3
(g4
g5
(dp4835
g4638
S'2'
sg20
S'spec depot'
p4836
stRp4837
ag3
(g4
g5
(dp4838
g4638
S'3'
sg20
S'stream depot'
p4839
stRp4840
ag3
(g4
g5
(dp4841
g4638
S'4'
sg20
S'archive depot'
p4842
stRp4843
ag3
(g4
g5
(dp4844
g4638
S'5'
sg20
S'unload depot'
p4845
stRp4846
ag3
(g4
g5
(dp4847
g4638
S'6'
sg20
S'tangent depot'
p4848
stRp4849
ag3
(g4
g5
(dp4850
g4638
S'7'
sg20
S'graph depot'
p4851
stRp4852
ag3
(g4
g5
(dp4853
g4638
S'8'
sg20
S'extension'
p4854
stRp4855
atRp4856
sg15
S'DepotType'
p4857
sg20
S'The type of a given depot'
p4858
stRp4859
ag3
(g4
g5
(dp4860
g4711
S'A short string value'
p4861
sg20
S'The first 31 characters of a Text string'
p4862
sg17
S'string'
p4863
sg15
S'DescShort'
p4864
sg252
S'Text'
p4865
stRp4866
ag3
(g4
g5
(dp4867
g4711
S'An MD5 digest'
p4868
sg17
S'string'
p4869
sg15
S'Digest'
p4870
sg20
S'A string containing an MD5 digest.'
p4871
stRp4872
ag3
(g4
g5
(dp4873
g4711
S'A domain name'
p4874
sg17
S'string'
p4875
sg15
S'Domain'
p4876
sg20
S'A string representing the name of a depot, label, client,\n                branch, typemap, or stream.'
p4877
stRp4878
ag3
(g4
g5
(dp4879
g4711
S'A string with optional wildcards'
p4880
sg17
S'string'
p4881
sg15
S'DomainWild'
p4882
sg20
S'A string that may contain wildcards - usually an IP address\n                in the protections table.'
p4883
stRp4884
ag3
(g4
g5
(dp4885
g4633
g3
(g8
g9
(lp4886
g3
(g4
g5
(dp4887
g4636
S'Domain Flags'
p4888
sg4638
S'0x0001'
p4889
sg20
S'modtime'
p4890
stRp4891
ag3
(g4
g5
(dp4892
g4636
S'Domain Flags'
p4893
sg4638
S'0x0002'
p4894
sg20
S'clobber'
p4895
stRp4896
ag3
(g4
g5
(dp4897
g4636
S'Domain Flags'
p4898
sg4638
S'0x0004'
p4899
sg20
S'allwrite'
p4900
stRp4901
ag3
(g4
g5
(dp4902
g4636
S'Domain Flags'
p4903
sg4638
S'0x0008'
p4904
sg20
S'locked'
p4905
stRp4906
ag3
(g4
g5
(dp4907
g4636
S'Domain Flags'
p4908
sg4638
S'0x0020'
p4909
sg20
S'compress'
p4910
stRp4911
ag3
(g4
g5
(dp4912
g4636
S'Domain Flags'
p4913
sg4638
S'0x0040'
p4914
sg20
S'rmdir'
p4915
stRp4916
ag3
(g4
g5
(dp4917
g4636
S'Domain Flags'
p4918
sg4638
S'0x1000'
p4919
sg20
S'indirect (obsolete since 2004.2)'
p4920
stRp4921
ag3
(g4
g5
(dp4922
g4636
S'Domain Flags'
p4923
sg4638
S'0x8000'
p4924
sg20
S'autoreload'
p4925
stRp4926
ag3
(g4
g5
(dp4927
g4636
S'Domain ClientType'
p4928
sg4638
S'0x00000'
p4929
sg20
S'client is writeable'
p4930
stRp4931
ag3
(g4
g5
(dp4932
g4636
S'Domain ClientType'
p4933
sg4638
S'0x10000'
p4934
sg20
S'client is readonly'
p4935
stRp4936
ag3
(g4
g5
(dp4937
g4636
S'Domain ClientType'
p4938
sg4638
S'0x20000'
p4939
sg20
S'client is nobackup'
p4940
stRp4941
ag3
(g4
g5
(dp4942
g4636
S'Domain ClientType'
p4943
sg4638
S'0x110000'
p4944
sg20
S'client is partitioned'
p4945
stRp4946
ag3
(g4
g5
(dp4947
g4636
S'Domain LineEnd'
p4948
sg4638
S'0x0000'
p4949
sg20
S'local'
p4950
stRp4951
ag3
(g4
g5
(dp4952
g4636
S'Domain LineEnd'
p4953
sg4638
S'0x0010'
p4954
sg20
S'unix (LF)'
p4955
stRp4956
ag3
(g4
g5
(dp4957
g4636
S'Domain LineEnd'
p4958
sg4638
S'0x0200'
p4959
sg20
S'mac (CR)'
p4960
stRp4961
ag3
(g4
g5
(dp4962
g4636
S'Domain LineEnd'
p4963
sg4638
S'0x0300'
p4964
sg20
S'win (CRLF)'
p4965
stRp4966
ag3
(g4
g5
(dp4967
g4636
S'Domain LineEnd'
p4968
sg4638
S'0x0400'
p4969
sg20
S'share (LF/CRLF)'
p4970
stRp4971
ag3
(g4
g5
(dp4972
g4636
S'Domain SubmitMask'
p4973
sg4638
S'0x1000'
p4974
sg20
S'Revert unchanged files'
p4975
stRp4976
ag3
(g4
g5
(dp4977
g4636
S'Domain SubmitMask'
p4978
sg4638
S'0x2000'
p4979
sg20
S'Leave unchanged files'
p4980
stRp4981
ag3
(g4
g5
(dp4982
g4636
S'Domain SubmitMask'
p4983
sg4638
S'0x4000'
p4984
sg20
S'Submit, and re-open unchanged files'
p4985
stRp4986
ag3
(g4
g5
(dp4987
g4636
S'Domain StreamMask'
p4988
sg4638
S'0x0001'
p4989
sg20
S'allsubmit or ownersubmit'
p4990
stRp4991
ag3
(g4
g5
(dp4992
g4636
S'Domain StreamMask'
p4993
sg4638
S'0x0002'
p4994
sg20
S'locked or unlocked'
p4995
stRp4996
ag3
(g4
g5
(dp4997
g4636
S'Domain StreamMask'
p4998
sg4638
S'0x0004'
p4999
sg20
S'change flows to parent'
p5000
stRp5001
ag3
(g4
g5
(dp5002
g4636
S'Domain StreamMask'
p5003
sg4638
S'0x0008'
p5004
sg20
S'change flows from parent'
p5005
stRp5006
ag3
(g4
g5
(dp5007
g4636
S'Domain StreamMask'
p5008
sg4638
S'0x0010'
p5009
sg20
S'mergeany or mergedown'
p5010
stRp5011
atRp5012
sg15
S'DomainOpts'
p5013
sg4636
g3
(g8
g9
(lp5014
g3
(g4
g5
(dp5015
g15
S'Domain Flags'
p5016
sg4638
S'0x10EF'
p5017
sg20
S'Bits used to store client, label, and branch options'
p5018
stRp5019
ag3
(g4
g5
(dp5020
g15
S'Domain ClientType'
p5021
sg4638
S'0x190000'
p5022
sg20
S'Bits used to store client type and backup status'
p5023
stRp5024
ag3
(g4
g5
(dp5025
g15
S'Domain LineEnd'
p5026
sg4638
S'0x0710'
p5027
sg20
S'Bits used to store client line termination settings'
p5028
stRp5029
ag3
(g4
g5
(dp5030
g15
S'Domain SubmitMask'
p5031
sg4638
S'0x7000'
p5032
sg20
S'Bits used to store client submit options'
p5033
stRp5034
ag3
(g4
g5
(dp5035
g15
S'Domain StreamMask'
p5036
sg4638
S'0x000C'
p5037
sg20
S'Bits used to store stream options'
p5038
stRp5039
atRp5040
sg4711
S'Options for domains'
p5041
sg17
S'bitmask'
p5042
sg20
S'A integer value representing the options for a domain'
p5043
stRp5044
ag3
(g4
g5
(dp5045
g17
S'flag'
p5046
sg4711
S'A domain type'
p5047
sg4633
g3
(g8
g9
(lp5048
g3
(g4
g5
(dp5049
g4638
S"67 (ASCII 'C')"
p5050
sg20
S'unloaded client'
p5051
stRp5052
ag3
(g4
g5
(dp5053
g4638
S"76 (ASCII 'L')"
p5054
sg20
S'unloaded label'
p5055
stRp5056
ag3
(g4
g5
(dp5057
g4638
S"83 (ASCII 'S')"
p5058
sg20
S'unloaded task stream'
p5059
stRp5060
ag3
(g4
g5
(dp5061
g4638
S"98 (ASCII 'b')"
p5062
sg20
S'branch'
p5063
stRp5064
ag3
(g4
g5
(dp5065
g4638
S"99 (ASCII 'c')"
p5066
sg20
S'client'
p5067
stRp5068
ag3
(g4
g5
(dp5069
g4638
S"100 (ASCII 'd')"
p5070
sg20
S'depot'
p5071
stRp5072
ag3
(g4
g5
(dp5073
g4638
S"108 (ASCII 'l')"
p5074
sg20
S'label'
p5075
stRp5076
ag3
(g4
g5
(dp5077
g4638
S"115 (ASCII 's')"
p5078
sg20
S'stream'
p5079
stRp5080
ag3
(g4
g5
(dp5081
g4638
S"116 (ASCII 't')"
p5082
sg20
S'typemap'
p5083
stRp5084
atRp5085
sg15
S'DomainType'
p5086
sg20
S'A integer value representing the type of a domain'
p5087
stRp5088
ag3
(g4
g5
(dp5089
g4711
S'A file name'
p5090
sg20
S'A string representing the filename'
p5091
sg17
S'string'
p5092
sg15
S'File'
p5093
sg252
S'FileType'
p5094
stRp5095
ag3
(g4
g5
(dp5096
g4711
S'A file size'
p5097
sg17
S'integer'
p5098
sg15
S'FileSize'
p5099
sg20
S'A 64-bit integer used to store file sizes. The value -1 is\n                used to represent unknown file sizes.'
p5100
stRp5101
ag3
(g4
g5
(dp5102
g4633
g3
(g8
g9
(lp5103
g3
(g4
g5
(dp5104
g4636
S'Storage Type'
p5105
sg4638
S'0x0000'
p5106
sg20
S'RCS'
p5107
stRp5108
ag3
(g4
g5
(dp5109
g4636
S'Storage Type'
p5110
sg4638
S'0x0001'
p5111
sg20
S'Binary'
p5112
stRp5113
ag3
(g4
g5
(dp5114
g4636
S'Storage Type'
p5115
sg4638
S'0x0002'
p5116
sg20
S'Tiny'
p5117
stRp5118
ag3
(g4
g5
(dp5119
g4636
S'Storage Type'
p5120
sg4638
S'0x0003'
p5121
sg20
S'Compressed'
p5122
stRp5123
ag3
(g4
g5
(dp5124
g4636
S'Storage Type'
p5125
sg4638
S'0x0004'
p5126
sg20
S'tempobj (deprecated since 2002.1)'
p5127
stRp5128
ag3
(g4
g5
(dp5129
g4636
S'Storage Type'
p5130
sg4638
S'0x0005'
p5131
sg20
S'Detect type. Used internally when no type is\n                    given by the user.'
p5132
stRp5133
ag3
(g4
g5
(dp5134
g4636
S'Storage Type'
p5135
sg4638
S'0x0006'
p5136
sg20
S'Compressed tempobj (deprecated since 2002.1)'
p5137
stRp5138
ag3
(g4
g5
(dp5139
g4636
S'Storage Type'
p5140
sg4638
S'0x0007'
p5141
sg20
S'Binary access to compressed data. Used internally.'
p5142
stRp5143
ag3
(g4
g5
(dp5144
g4636
S'Storage Type'
p5145
sg4638
S'0x0008'
p5146
sg20
S'Stored externally via librarian trigger'
p5147
stRp5148
ag3
(g4
g5
(dp5149
g4636
S'Storage Mods'
p5150
sg4638
S'0x0010'
p5151
sg20
S'99.2-style keyword expansion/contraction'
p5152
stRp5153
ag3
(g4
g5
(dp5154
g4636
S'Storage Mods'
p5155
sg4638
S'0x0020'
p5156
sg20
S'2000.1-style keyword expansion/contraction'
p5157
stRp5158
ag3
(g4
g5
(dp5159
g4636
S'Storage Mods'
p5160
sg4638
S'0x0030'
p5161
sg20
S'Any type of keyword expansion'
p5162
stRp5163
ag3
(g4
g5
(dp5164
g4636
S'Storage Mods'
p5165
sg4638
S'0x0040'
p5166
sg20
S'Exclusive open'
p5167
stRp5168
ag3
(g4
g5
(dp5169
g4636
S'Storage Mods'
p5170
sg4638
S'0x0080'
p5171
sg20
S'New tempobj (+S modifier)'
p5172
stRp5173
ag3
(g4
g5
(dp5174
g4636
S'Tempobj revisions'
p5175
sg4638
S'0x0000'
p5176
sg20
S'+S1'
p5177
stRp5178
ag3
(g4
g5
(dp5179
g4636
S'Tempobj revisions'
p5180
sg4638
S'0x0100'
p5181
sg20
S'+S2'
p5182
stRp5183
ag3
(g4
g5
(dp5184
g4636
S'Tempobj revisions'
p5185
sg4638
S'0x0200'
p5186
sg20
S'+S3'
p5187
stRp5188
ag3
(g4
g5
(dp5189
g4636
S'Tempobj revisions'
p5190
sg4638
S'0x0300'
p5191
sg20
S'+S4'
p5192
stRp5193
ag3
(g4
g5
(dp5194
g4636
S'Tempobj revisions'
p5195
sg4638
S'0x0400'
p5196
sg20
S'+S5'
p5197
stRp5198
ag3
(g4
g5
(dp5199
g4636
S'Tempobj revisions'
p5200
sg4638
S'0x0500'
p5201
sg20
S'+S6'
p5202
stRp5203
ag3
(g4
g5
(dp5204
g4636
S'Tempobj revisions'
p5205
sg4638
S'0x0600'
p5206
sg20
S'+S7'
p5207
stRp5208
ag3
(g4
g5
(dp5209
g4636
S'Tempobj revisions'
p5210
sg4638
S'0x0700'
p5211
sg20
S'+S8'
p5212
stRp5213
ag3
(g4
g5
(dp5214
g4636
S'Tempobj revisions'
p5215
sg4638
S'0x0800'
p5216
sg20
S'+S9'
p5217
stRp5218
ag3
(g4
g5
(dp5219
g4636
S'Tempobj revisions'
p5220
sg4638
S'0x0900'
p5221
sg20
S'+S10'
p5222
stRp5223
ag3
(g4
g5
(dp5224
g4636
S'Tempobj revisions'
p5225
sg4638
S'0x0A00'
p5226
sg20
S'+S16'
p5227
stRp5228
ag3
(g4
g5
(dp5229
g4636
S'Tempobj revisions'
p5230
sg4638
S'0x0B00'
p5231
sg20
S'+S32'
p5232
stRp5233
ag3
(g4
g5
(dp5234
g4636
S'Tempobj revisions'
p5235
sg4638
S'0x0C00'
p5236
sg20
S'+S64'
p5237
stRp5238
ag3
(g4
g5
(dp5239
g4636
S'Tempobj revisions'
p5240
sg4638
S'0x0D00'
p5241
sg20
S'+S128'
p5242
stRp5243
ag3
(g4
g5
(dp5244
g4636
S'Tempobj revisions'
p5245
sg4638
S'0x0E00'
p5246
sg20
S'+S256'
p5247
stRp5248
ag3
(g4
g5
(dp5249
g4636
S'Tempobj revisions'
p5250
sg4638
S'0x0F00'
p5251
sg20
S'+S512'
p5252
stRp5253
ag3
(g4
g5
(dp5254
g4636
S'Client Type'
p5255
sg4638
S'0x0000000'
p5256
sg20
S'text'
p5257
stRp5258
ag3
(g4
g5
(dp5259
g4636
S'Client Type'
p5260
sg4638
S'0x0010000'
p5261
sg20
S'binary'
p5262
stRp5263
ag3
(g4
g5
(dp5264
g4636
S'Client Type'
p5265
sg4638
S'0x0020000'
p5266
sg20
S'executable bit set'
p5267
stRp5268
ag3
(g4
g5
(dp5269
g4636
S'Client Type'
p5270
sg4638
S'0x0040000'
p5271
sg20
S'symlink'
p5272
stRp5273
ag3
(g4
g5
(dp5274
g4636
S'Client Type'
p5275
sg4638
S'0x0050000'
p5276
sg20
S'resource fork'
p5277
stRp5278
ag3
(g4
g5
(dp5279
g4636
S'Client Type'
p5280
sg4638
S'0x0080000'
p5281
sg20
S'unicode'
p5282
stRp5283
ag3
(g4
g5
(dp5284
g4636
S'Client Type'
p5285
sg4638
S'0x0090000'
p5286
sg20
S'raw text (nocrlf - 99.1)'
p5287
stRp5288
ag3
(g4
g5
(dp5289
g4636
S'Client Type'
p5290
sg4638
S'0x00C0000'
p5291
sg20
S'apple data + resource file (since 2000.2)'
p5292
stRp5293
ag3
(g4
g5
(dp5294
g4636
S'Client Type'
p5295
sg4638
S'0x00D0000'
p5296
sg20
S'apple data + resource file (99.2)'
p5297
stRp5298
ag3
(g4
g5
(dp5299
g4636
S'Client Type'
p5300
sg4638
S'0x1000000'
p5301
sg20
S'Used to support filetype detection'
p5302
stRp5303
ag3
(g4
g5
(dp5304
g4636
S'Client Type'
p5305
sg4638
S'0x1010000'
p5306
sg20
S'AutoWild'
p5307
stRp5308
ag3
(g4
g5
(dp5309
g4636
S'Client Type'
p5310
sg4638
S'0x1040000'
p5311
sg20
S'utf8'
p5312
stRp5313
ag3
(g4
g5
(dp5314
g4636
S'Client Type'
p5315
sg4638
S'0x1050000'
p5316
sg20
S'submodule'
p5317
stRp5318
ag3
(g4
g5
(dp5319
g4636
S'Client Type'
p5320
sg4638
S'0x1080000'
p5321
sg20
S'utf16 client utf8 server (2007.2)'
p5322
stRp5323
ag3
(g4
g5
(dp5324
g4636
S'Client Mods'
p5325
sg4638
S'0x0100000'
p5326
sg20
S'writable'
p5327
stRp5328
ag3
(g4
g5
(dp5329
g4636
S'Client Mods'
p5330
sg4638
S'0x0200000'
p5331
sg20
S'modtime'
p5332
stRp5333
ag3
(g4
g5
(dp5334
g4636
S'Client Mods'
p5335
sg4638
S'0x0400000'
p5336
sg20
S'uncompress on client'
p5337
stRp5338
atRp5339
sg15
S'FileType'
p5340
sg4636
g3
(g8
g9
(lp5341
g3
(g4
g5
(dp5342
g15
S'Storage Type'
p5343
sg4638
S'0x000F'
p5344
sg20
S"Bits used to store the server's storage type"
p5345
stRp5346
ag3
(g4
g5
(dp5347
g15
S'Storage Mods'
p5348
sg4638
S'0x00F0'
p5349
sg20
S"Bits used to store the modifiers to the server's storage\n                    type"
p5350
stRp5351
ag3
(g4
g5
(dp5352
g15
S'Tempobj revisions'
p5353
sg4638
S'0x0F00'
p5354
sg20
S'Bits used to store the number of revisions to be stored\n                    for +Sn files.'
p5355
stRp5356
ag3
(g4
g5
(dp5357
g15
S'Client Type'
p5358
sg4638
S'0x10D0000'
p5359
sg20
S"Bits used to store the file type from the client's point\n                    of view."
p5360
stRp5361
ag3
(g4
g5
(dp5362
g15
S'Client Mods'
p5363
sg4638
S'0x720000'
p5364
sg20
S'Bits used to store the modifiers applied to the file\n                    on the client.'
p5365
stRp5366
atRp5367
sg4711
S'Type of file'
p5368
sg17
S'bitmask'
p5369
sg20
S'The FileType is a bitmask specifying the type and modifiers\n                of a revision from both the client and server points of view.\n                The first 16 bits are used to store the storage type and\n                modifiers, the next 16 bits are used to store the client\n                access method and modifiers.'
p5370
stRp5371
ag3
(g4
g5
(dp5372
g4711
S'Status of a fixed job'
p5373
sg17
S'string'
p5374
sg15
S'FixStatus'
p5375
sg20
S'This type is a wrapper around the \'Text\' type that handles\n                the pre-2000.1 "closed" default value.'
p5376
stRp5377
ag3
(g4
g5
(dp5378
g17
S'flag'
p5379
sg4711
S'Type of Graph Permission'
p5380
sg4633
g3
(g8
g9
(lp5381
g3
(g4
g5
(dp5382
g4638
S'0'
sg20
S'none'
p5383
stRp5384
ag3
(g4
g5
(dp5385
g4638
S'1'
sg20
S'read'
p5386
stRp5387
ag3
(g4
g5
(dp5388
g4638
S'2'
sg20
S'write-ref'
p5389
stRp5390
ag3
(g4
g5
(dp5391
g4638
S'4'
sg20
S'write-all'
p5392
stRp5393
ag3
(g4
g5
(dp5394
g4638
S'8'
sg20
S'create-repo'
p5395
stRp5396
ag3
(g4
g5
(dp5397
g4638
S'16'
p5398
sg20
S'delete-repo'
p5399
stRp5400
ag3
(g4
g5
(dp5401
g4638
S'32'
p5402
sg20
S'create-ref'
p5403
stRp5404
ag3
(g4
g5
(dp5405
g4638
S'64'
p5406
sg20
S'delete-ref'
p5407
stRp5408
ag3
(g4
g5
(dp5409
g4638
S'128'
p5410
sg20
S'force-push'
p5411
stRp5412
ag3
(g4
g5
(dp5413
g4638
S'256'
p5414
sg20
S'admin'
p5415
stRp5416
ag3
(g4
g5
(dp5417
g4638
S'4096'
p5418
sg20
S'restricted-ref'
p5419
stRp5420
atRp5421
sg15
S'GraphPermType'
p5422
sg20
S'The type of a graph depot permission'
p5423
stRp5424
ag3
(g4
g5
(dp5425
g4711
S'A 32-bit integer'
p5426
sg17
S'integer'
p5427
sg15
S'Int'
p5428
sg20
S'A 32-bit integer'
p5429
stRp5430
ag3
(g4
g5
(dp5431
g4711
S'An 8-bit integer'
p5432
sg17
S'integer'
p5433
sg15
S'Int8'
p5434
sg20
S'An 8-bit integer: an unsigned char'
p5435
stRp5436
ag3
(g4
g5
(dp5437
g4711
S'A 64-bit integer'
p5438
sg17
S'integer'
p5439
sg15
S'Int64'
p5440
sg20
S'A 64-bit integer.'
p5441
stRp5442
ag3
(g4
g5
(dp5443
g308
S'All integration records should have a corresponding\n                reverse record. The \'branch from\' (2) and \'merge from\' (0)\n                records have corresponding "dirty" reverse records for cases\n                where the target file took more than one change or was\n                (re)opened for \'edit\' or \'add\'.'
p5444
sg4633
g3
(g8
g9
(lp5445
g3
(g4
g5
(dp5446
g4638
S'0'
sg20
S'merge from: integration with other changes'
p5447
stRp5448
ag3
(g4
g5
(dp5449
g4638
S'1'
sg20
S'merge into: reverse merge'
p5450
stRp5451
ag3
(g4
g5
(dp5452
g4638
S'2'
sg20
S'branch from: integration was branch of file'
p5453
stRp5454
ag3
(g4
g5
(dp5455
g4638
S'3'
sg20
S'branch into: reverse branch'
p5456
stRp5457
ag3
(g4
g5
(dp5458
g4638
S'4'
sg20
S'copy from: integration took source file whole'
p5459
stRp5460
ag3
(g4
g5
(dp5461
g4638
S'5'
sg20
S'copy into: reverse take'
p5462
stRp5463
ag3
(g4
g5
(dp5464
g4638
S'6'
sg20
S'ignored: integration ignored source changes'
p5465
stRp5466
ag3
(g4
g5
(dp5467
g4638
S'7'
sg20
S'ignored by: reverse copy'
p5468
stRp5469
ag3
(g4
g5
(dp5470
g4638
S'8'
sg20
S'delete from: integration of delete'
p5471
stRp5472
ag3
(g4
g5
(dp5473
g4638
S'9'
sg20
S'delete into: reverse delete'
p5474
stRp5475
ag3
(g4
g5
(dp5476
g4638
S'10'
p5477
sg20
S'edit into: reverse of integration downgraded to\n                    edit'
p5478
stRp5479
ag3
(g4
g5
(dp5480
g4638
S'11'
p5481
sg20
S'add into: reverse of branch downgraded to add'
p5482
stRp5483
ag3
(g4
g5
(dp5484
g4638
S'12'
p5485
sg20
S'edit from: merge that the user edited'
p5486
stRp5487
ag3
(g4
g5
(dp5488
g4638
S'13'
p5489
sg20
S'add from: branch downgraded to add'
p5490
stRp5491
ag3
(g4
g5
(dp5492
g4638
S'14'
p5493
sg20
S'moved from: reverse of renamed file'
p5494
stRp5495
ag3
(g4
g5
(dp5496
g4638
S'15'
p5497
sg20
S'moved into: file was renamed'
p5498
stRp5499
ag3
(g4
g5
(dp5500
g4638
S'16'
p5501
sg20
S"'delete' target rev ignoring non-deleted source"
p5502
stRp5503
ag3
(g4
g5
(dp5504
g4638
S'17'
p5505
sg20
S"non-deleted source ignored by 'delete' target rev"
p5506
stRp5507
ag3
(g4
g5
(dp5508
g4638
S'18'
p5509
sg20
S"'integrate' target rev ignoring deleted source"
p5510
stRp5511
ag3
(g4
g5
(dp5512
g4638
S'19'
p5513
sg20
S"deleted source ignored by 'integrate' target rev"
p5514
stRp5515
ag3
(g4
g5
(dp5516
g4638
S'20'
p5517
sg20
S'deleted branch: branch from'
p5518
stRp5519
ag3
(g4
g5
(dp5520
g4638
S'21'
p5521
sg20
S'deleted branch: delete into'
p5522
stRp5523
ag3
(g4
g5
(dp5524
g4638
S'22'
p5525
sg20
S'undo: opposite of merge'
p5526
stRp5527
ag3
(g4
g5
(dp5528
g4638
S'23'
p5529
sg20
S'undo reverse'
p5530
stRp5531
ag3
(g4
g5
(dp5532
g4638
S'24'
p5533
sg20
S'move undo: move + undo as one record'
p5534
stRp5535
ag3
(g4
g5
(dp5536
g4638
S'25'
p5537
sg20
S'move undo reverse'
p5538
stRp5539
ag3
(g4
g5
(dp5540
g4638
S'26'
p5541
sg20
S'integration treats conversion of stream spec to noinherit ParentView as a copy'
p5542
stRp5543
ag3
(g4
g5
(dp5544
g4638
S'27'
p5545
sg20
S'integration treats conversion of stream spec to noinherit ParentView as a reverse copy'
p5546
stRp5547
ag3
(g4
g5
(dp5548
g4638
S'28'
p5549
sg20
S'integration ignores conversion of stream spec to inherit ParentView'
p5550
stRp5551
ag3
(g4
g5
(dp5552
g4638
S'29'
p5553
sg20
S'integration in reverse direction ignores conversion of stream spec to inherit ParentView'
p5554
stRp5555
atRp5556
sg15
S'IntegHow'
p5557
sg4711
S'Integration methods'
p5558
sg17
S'flag'
p5559
sg20
S"Specifies how an integration was performed. Integrations\n                always come in pairs: the 'forward' and 'reverse' records.\n                As a general rule, the forward records contain the word\n                'from'; and the reverse records contain the word 'into'."
p5560
stRp5561
ag3
(g4
g5
(dp5562
g17
S'flag'
p5563
sg4711
S'Job status - defunct'
p5564
sg4633
g3
(g8
g9
(lp5565
g3
(g4
g5
(dp5566
g4638
S'0'
sg20
S'open'
p5567
stRp5568
ag3
(g4
g5
(dp5569
g4638
S'1'
sg20
S'closed'
p5570
stRp5571
ag3
(g4
g5
(dp5572
g4638
S'2'
sg20
S'suspended'
p5573
stRp5574
atRp5575
sg15
S'JobStat'
p5576
sg20
S'Old (pre-98.2) job status values.'
p5577
stRp5578
ag3
(g4
g5
(dp5579
g17
S'flag'
p5580
sg4711
S'"Journal Copy State"'
p5581
sg4633
g3
(g8
g9
(lp5582
g3
(g4
g5
(dp5583
g15
S'DurableOnly'
p5584
sg4638
S'1'
sg20
S'Durable Only'
p5585
stRp5586
ag3
(g4
g5
(dp5587
g15
S'NonAcknowledging'
p5588
sg4638
S'2'
sg20
S'Non Acknowledging'
p5589
stRp5590
ag3
(g4
g5
(dp5591
g15
S'JournalWait'
p5592
sg4638
S'4'
sg20
S'Journal Wait'
p5593
stRp5594
atRp5595
sg15
S'JournalCopyFlags'
p5596
sg20
S'Used to maintain Journal Copy State'
p5597
stRp5598
ag3
(g4
g5
(dp5599
g4711
S'A key name'
p5600
sg20
S'A string representing the key name. Key names must\n                contain no spaces, contain no slashes, and be identifiers\n                (cannot begin with a dash and cannot be all-numeric)'
p5601
sg17
S'string'
p5602
sg15
S'Key'
p5603
sg252
S'String'
p5604
stRp5605
ag3
(g4
g5
(dp5606
g4633
g3
(g8
g9
(lp5607
g3
(g4
g5
(dp5608
g4636
S'LockTypeBits'
p5609
sg15
S'Unlocked'
p5610
sg4638
S'0x0000'
p5611
sg20
S'Unlocked'
p5612
stRp5613
ag3
(g4
g5
(dp5614
g4636
S'LockTypeBits'
p5615
sg15
S'Locked'
p5616
sg4638
S'0x0001'
p5617
sg20
S'Locked'
p5618
stRp5619
ag3
(g4
g5
(dp5620
g4636
S'LockTypeBits'
p5621
sg15
S'Global'
p5622
sg4638
S'0x0002'
p5623
sg20
S'Global'
p5624
stRp5625
atRp5626
sg15
S'LockedType'
p5627
sg4636
g3
(g4
g5
(dp5628
g15
S'LockTypeBits'
p5629
sg4638
S'0x0003'
p5630
sg20
S'Bits used to store lock types'
p5631
stRp5632
sg4711
S'Bitmask of lock types'
p5633
sg17
S'bitmask'
p5634
sg20
S'A bitmask of locked flags'
p5635
stRp5636
ag3
(g4
g5
(dp5637
g17
S'flag'
p5638
sg4711
S'Types of mapping'
p5639
sg4633
g3
(g8
g9
(lp5640
g3
(g4
g5
(dp5641
g4638
S'0'
sg20
S'mapped-in (the default)'
p5642
stRp5643
ag3
(g4
g5
(dp5644
g4638
S'1'
sg20
S"mapped-out (mappings that start with '-')"
p5645
stRp5646
ag3
(g4
g5
(dp5647
g4638
S'2'
sg20
S"overlay (mappings that start with '+')"
p5648
stRp5649
ag3
(g4
g5
(dp5650
g4638
S'3'
sg20
S"haveMap (mappings that start with '$'). Used internally\n                    only"
p5651
stRp5652
ag3
(g4
g5
(dp5653
g4638
S'4'
sg20
S"changeMap (mappings that start with '@')"
p5654
stRp5655
atRp5656
sg15
S'MapFlag'
p5657
sg20
S'Specifies how the files specified by a mapping should be\n                treated'
p5658
stRp5659
ag3
(g4
g5
(dp5660
g4711
S'A string representing a mapping'
p5661
sg17
S'string'
p5662
sg15
S'Mapping'
p5663
sg20
S'A Mapping is essentially a file name that may contain\n                wildcards'
p5664
stRp5665
ag3
(g4
g5
(dp5666
g4711
S'Maximum number of milliseconds to hold locks'
p5667
sg17
S'integer'
p5668
sg15
S'MaxLockTime'
p5669
sg20
S"The number of milliseconds for which a command may hold locks.\n                Commands that take longer than this time period will abort.\n                The value 0 means 'unlimited'."
p5670
stRp5671
ag3
(g4
g5
(dp5672
g4711
S'Maximum number of results permitted'
p5673
sg17
S'integer'
p5674
sg15
S'MaxResults'
p5675
sg20
S"The number of results that commands run by the restricted\n                user are permitted to return. The value 0 means 'unlimited'."
p5676
stRp5677
ag3
(g4
g5
(dp5678
g4711
S'Maximum number of records scanned'
p5679
sg17
S'integer'
p5680
sg15
S'MaxScanRows'
p5681
sg20
S"The maximum number of records that the server may read\n                on behalf of the restricted user. The value 0 means\n                'unlimited'."
p5682
stRp5683
ag3
(g4
g5
(dp5684
g17
S'flag'
p5685
sg4711
S'Object type'
p5686
sg4633
g3
(g8
g9
(lp5687
g3
(g4
g5
(dp5688
g4638
S'0'
sg20
S'commit'
p5689
stRp5690
ag3
(g4
g5
(dp5691
g4638
S'1'
sg20
S'tree'
p5692
stRp5693
ag3
(g4
g5
(dp5694
g4638
S'2'
sg20
S'tag'
p5695
stRp5696
ag3
(g4
g5
(dp5697
g4638
S'3'
sg20
S'null'
p5698
stRp5699
atRp5700
sg15
S'ObjectType'
p5701
sg20
S'Object type'
p5702
stRp5703
ag3
(g4
g5
(dp5704
g4711
S'Encoded hex string'
p5705
sg17
S'string'
p5706
sg15
S'Octet String'
p5707
sg20
S'A variable length encoded hex string. The first octet\n                stores the length of the string.'
p5708
stRp5709
ag3
(g4
g5
(dp5710
g4711
S'The MD5 hash of a password'
p5711
sg17
S'string'
p5712
sg15
S'Password'
p5713
sg20
S'The MD5 hash of an encrypted password.'
p5714
stRp5715
ag3
(g4
g5
(dp5716
g4633
g3
(g8
g9
(lp5717
g3
(g4
g5
(dp5718
g4636
S'PermTypeBits'
p5719
sg15
S'None'
p5720
sg4638
S'0x000000'
p5721
sg20
S'none'
p5722
stRp5723
ag3
(g4
g5
(dp5724
g4636
S'PermTypeBits'
p5725
sg15
S'List'
p5726
sg4638
S'0x000001'
p5727
sg20
S'Grants list access'
p5728
stRp5729
ag3
(g4
g5
(dp5730
g4636
S'PermTypeBits'
p5731
sg15
S'Read'
p5732
sg4638
S'0x000002'
p5733
sg20
S'Grants read access'
p5734
stRp5735
ag3
(g4
g5
(dp5736
g4636
S'PermTypeBits'
p5737
sg15
S'Branch'
p5738
sg4638
S'0x000004'
p5739
sg20
S'Grants ability to branch/integ from'
p5740
stRp5741
ag3
(g4
g5
(dp5742
g4636
S'PermTypeBits'
p5743
sg15
S'Open'
p5744
sg4638
S'0x000008'
p5745
sg20
S'Grants open access'
p5746
stRp5747
ag3
(g4
g5
(dp5748
g4636
S'PermTypeBits'
p5749
sg15
S'Write'
p5750
sg4638
S'0x000010'
p5751
sg20
S'Grants write access'
p5752
stRp5753
ag3
(g4
g5
(dp5754
g4636
S'PermTypeBits'
p5755
sg15
S'Review'
p5756
sg4638
S'0x000020'
p5757
sg20
S'Grants review access'
p5758
stRp5759
ag3
(g4
g5
(dp5760
g4636
S'PermTypeBits'
p5761
sg15
S'Admin'
p5762
sg4638
S'0x000080'
p5763
sg20
S'Grants admin access'
p5764
stRp5765
ag3
(g4
g5
(dp5766
g4636
S'PermTypeBits'
p5767
sg15
S'Super'
p5768
sg4638
S'0x000040'
p5769
sg20
S'Grants super-user access'
p5770
stRp5771
ag3
(g4
g5
(dp5772
g4636
S'PermTypeBits'
p5773
sg15
S'Owner'
p5774
sg4638
S'0x000100'
p5775
sg20
S'Grants owner access'
p5776
stRp5777
ag3
(g4
g5
(dp5778
g4636
S'PermTypeBits'
p5779
sg15
S'Stream List'
p5780
sg4638
S'0x010000'
p5781
sg20
S'Grants stream list access'
p5782
stRp5783
ag3
(g4
g5
(dp5784
g4636
S'PermTypeBits'
p5785
sg15
S'Stream Read'
p5786
sg4638
S'0x020000'
p5787
sg20
S'Grants stream read access'
p5788
stRp5789
ag3
(g4
g5
(dp5790
g4636
S'PermTypeBits'
p5791
sg15
S'Stream Branch'
p5792
sg4638
S'0x040000'
p5793
sg20
S'Grants stream branch access'
p5794
stRp5795
ag3
(g4
g5
(dp5796
g4636
S'PermTypeBits'
p5797
sg15
S'Stream Open'
p5798
sg4638
S'0x080000'
p5799
sg20
S'Grants stream open access'
p5800
stRp5801
ag3
(g4
g5
(dp5802
g4636
S'PermTypeBits'
p5803
sg15
S'Stream Write'
p5804
sg4638
S'0x100000'
p5805
sg20
S'Grants stream write access'
p5806
stRp5807
atRp5808
sg15
S'Perm'
p5809
sg4636
g3
(g4
g5
(dp5810
g15
S'PermTypeBits'
p5811
sg4638
S'0x1F01FF'
p5812
sg20
S'Bits used to store granted permissions'
p5813
stRp5814
sg4711
S'Bitmask of permissions'
p5815
sg17
S'bitmask'
p5816
sg20
S'A bitmask of granted permissions'
p5817
stRp5818
ag3
(g4
g5
(dp5819
g17
S'flag'
p5820
sg4711
S'Archive pull transfer status'
p5821
sg4633
g3
(g8
g9
(lp5822
g3
(g4
g5
(dp5823
g15
S'new'
p5824
sg4638
S'new'
p5825
sg20
S'new transfer'
p5826
stRp5827
ag3
(g4
g5
(dp5828
g15
S'active'
p5829
sg4638
S'active'
p5830
sg20
S'active transfer'
p5831
stRp5832
ag3
(g4
g5
(dp5833
g15
S'done'
p5834
sg4638
S'done'
p5835
sg20
S'completed transfer'
p5836
stRp5837
ag3
(g4
g5
(dp5838
g15
S'error'
p5839
sg4638
S'error'
p5840
sg20
S'errored transfer'
p5841
stRp5842
ag3
(g4
g5
(dp5843
g15
S'restart'
p5844
sg4638
S'restart'
p5845
sg20
S'restarted transfer'
p5846
stRp5847
ag3
(g4
g5
(dp5848
g15
S'cancelled'
p5849
sg4638
S'cancelled'
p5850
sg20
S'cancelled transfer'
p5851
stRp5852
atRp5853
sg15
S'PullStatus'
p5854
sg20
S'The status of an archive pull transfer'
p5855
stRp5856
ag3
(g4
g5
(dp5857
g17
S'flag'
p5858
sg4711
S'Reference action'
p5859
sg4633
g3
(g8
g9
(lp5860
g3
(g4
g5
(dp5861
g4638
S'0'
sg20
S'create'
p5862
stRp5863
ag3
(g4
g5
(dp5864
g4638
S'1'
sg20
S'update'
p5865
stRp5866
ag3
(g4
g5
(dp5867
g4638
S'2'
sg20
S'force'
p5868
stRp5869
ag3
(g4
g5
(dp5870
g4638
S'3'
sg20
S'delete'
p5871
stRp5872
atRp5873
sg15
S'RefAction'
p5874
sg20
S'A reference action'
p5875
stRp5876
ag3
(g4
g5
(dp5877
g17
S'flag'
p5878
sg4711
S'A reference type'
p5879
sg4633
g3
(g8
g9
(lp5880
g3
(g4
g5
(dp5881
g4638
S'0'
sg20
S'Branch reference'
p5882
stRp5883
ag3
(g4
g5
(dp5884
g4638
S'1'
sg20
S'Remote reference'
p5885
stRp5886
ag3
(g4
g5
(dp5887
g4638
S'2'
sg20
S'Tag reference'
p5888
stRp5889
ag3
(g4
g5
(dp5890
g4638
S'3'
sg20
S'Workspace branch reference. Pseudo-reference, used by workspaces that access git files'
p5891
stRp5892
ag3
(g4
g5
(dp5893
g4638
S'4'
sg20
S'Workspace have reference. Pseudo-reference, used by workspaces that access git files'
p5894
stRp5895
ag3
(g4
g5
(dp5896
g4638
S'5'
sg20
S'Other reference'
p5897
stRp5898
atRp5899
sg15
S'RefType'
p5900
sg20
S'The type of reference'
p5901
stRp5902
ag3
(g4
g5
(dp5903
g4711
S'A remote name'
p5904
sg17
S'string'
p5905
sg15
S'RemoteID'
p5906
sg20
S'A string representing the name of a remote spec'
p5907
stRp5908
ag3
(g4
g5
(dp5909
g17
S'flag'
p5910
sg4711
S'Resolve actions'
p5911
sg4633
g3
(g8
g9
(lp5912
g3
(g4
g5
(dp5913
g4638
S'0'
sg20
S'Content resolve'
p5914
stRp5915
ag3
(g4
g5
(dp5916
g4638
S'1'
sg20
S'Filetype resolve'
p5917
stRp5918
ag3
(g4
g5
(dp5919
g4638
S'2'
sg20
S'Branch resolve'
p5920
stRp5921
ag3
(g4
g5
(dp5922
g4638
S'3'
sg20
S'Delete resolve'
p5923
stRp5924
ag3
(g4
g5
(dp5925
g4638
S'4'
sg20
S'Move resolve'
p5926
stRp5927
ag3
(g4
g5
(dp5928
g4638
S'5'
sg20
S'Attribute resolve'
p5929
stRp5930
ag3
(g4
g5
(dp5931
g4638
S'6'
sg20
S'Charset resolve'
p5932
stRp5933
atRp5934
sg15
S'ResolveState'
p5935
sg20
S'Pending or completed resolve actions.'
p5936
stRp5937
ag3
(g4
g5
(dp5938
g17
S'flag'
p5939
sg4711
S'Resolve methods (obsolete in 2011.1, replaced by ResolveState)'
p5940
sg4633
g3
(g8
g9
(lp5941
g3
(g4
g5
(dp5942
g4638
S'0'
sg20
S'Not yet resolved'
p5943
stRp5944
ag3
(g4
g5
(dp5945
g4638
S'1'
sg20
S'Resolved manually'
p5946
stRp5947
ag3
(g4
g5
(dp5948
g4638
S'2'
sg20
S'Resolved automatically as part of a branch'
p5949
stRp5950
ag3
(g4
g5
(dp5951
g4638
S'3'
sg20
S'Resolved automatically as part of a delete'
p5952
stRp5953
ag3
(g4
g5
(dp5954
g4638
S'4'
sg20
S'Resolved automatically as part of a move'
p5955
stRp5956
atRp5957
sg15
S'ResolvedStatus'
p5958
sg20
S'Specifies how the user resolved merge operations.'
p5959
stRp5960
ag3
(g4
g5
(dp5961
g4711
S'A revision number'
p5962
sg17
S'integer'
p5963
sg15
S'Rev'
p5964
sg20
S"The positive integer number of a specific revision of a file.\n                The number 0 represents '#none'."
p5965
stRp5966
ag3
(g4
g5
(dp5967
g4633
g3
(g8
g9
(lp5968
g3
(g4
g5
(dp5969
g4636
S'RevStatusBits'
p5970
sg4638
S'0x0000'
p5971
sg20
S'single revision with content'
p5972
stRp5973
ag3
(g4
g5
(dp5974
g4636
S'RevStatusBits'
p5975
sg4638
S'0x0001'
p5976
sg20
S'single revision lazy copied'
p5977
stRp5978
ag3
(g4
g5
(dp5979
g4636
S'RevStatusBits'
p5980
sg4638
S'0x0002'
p5981
sg20
S'revision task sparse'
p5982
stRp5983
ag3
(g4
g5
(dp5984
g4636
S'RevStatusBits'
p5985
sg4638
S'0x0004'
p5986
sg20
S'revision task branch'
p5987
stRp5988
ag3
(g4
g5
(dp5989
g4636
S'RevCharsetBits'
p5990
sg4638
S'0'
sg20
S'NONE'
p5991
stRp5992
ag3
(g4
g5
(dp5993
g4636
S'RevCharsetBits'
p5994
sg4638
S'1'
sg20
S'UTF_8'
p5995
stRp5996
ag3
(g4
g5
(dp5997
g4636
S'RevCharsetBits'
p5998
sg4638
S'2'
sg20
S'ISO8859_1'
p5999
stRp6000
ag3
(g4
g5
(dp6001
g4636
S'RevCharsetBits'
p6002
sg4638
S'3'
sg20
S'UTF_16'
p6003
stRp6004
ag3
(g4
g5
(dp6005
g4636
S'RevCharsetBits'
p6006
sg4638
S'4'
sg20
S'SHIFTJIS'
p6007
stRp6008
ag3
(g4
g5
(dp6009
g4636
S'RevCharsetBits'
p6010
sg4638
S'5'
sg20
S'EUCJP'
p6011
stRp6012
ag3
(g4
g5
(dp6013
g4636
S'RevCharsetBits'
p6014
sg4638
S'6'
sg20
S'WIN_US_ANSI'
p6015
stRp6016
ag3
(g4
g5
(dp6017
g4636
S'RevCharsetBits'
p6018
sg4638
S'7'
sg20
S'WIN_US_OEM'
p6019
stRp6020
ag3
(g4
g5
(dp6021
g4636
S'RevCharsetBits'
p6022
sg4638
S'8'
sg20
S'MACOS_ROMAN'
p6023
stRp6024
ag3
(g4
g5
(dp6025
g4636
S'RevCharsetBits'
p6026
sg4638
S'9'
sg20
S'ISO8859_15'
p6027
stRp6028
ag3
(g4
g5
(dp6029
g4636
S'RevCharsetBits'
p6030
sg4638
S'10'
p6031
sg20
S'ISO8859_5'
p6032
stRp6033
ag3
(g4
g5
(dp6034
g4636
S'RevCharsetBits'
p6035
sg4638
S'11'
p6036
sg20
S'KOI8_R'
p6037
stRp6038
ag3
(g4
g5
(dp6039
g4636
S'RevCharsetBits'
p6040
sg4638
S'12'
p6041
sg20
S'WIN_CP_1251'
p6042
stRp6043
ag3
(g4
g5
(dp6044
g4636
S'RevCharsetBits'
p6045
sg4638
S'13'
p6046
sg20
S'UTF_16_LE'
p6047
stRp6048
ag3
(g4
g5
(dp6049
g4636
S'RevCharsetBits'
p6050
sg4638
S'14'
p6051
sg20
S'UTF_16_BE'
p6052
stRp6053
ag3
(g4
g5
(dp6054
g4636
S'RevCharsetBits'
p6055
sg4638
S'15'
p6056
sg20
S'UTF_16_LE_BOM'
p6057
stRp6058
ag3
(g4
g5
(dp6059
g4636
S'RevCharsetBits'
p6060
sg4638
S'16'
p6061
sg20
S'UTF_16_BE_BOM'
p6062
stRp6063
ag3
(g4
g5
(dp6064
g4636
S'RevCharsetBits'
p6065
sg4638
S'17'
p6066
sg20
S'UTF_16_BOM'
p6067
stRp6068
ag3
(g4
g5
(dp6069
g4636
S'RevCharsetBits'
p6070
sg4638
S'18'
p6071
sg20
S'UTF_8_BOM'
p6072
stRp6073
ag3
(g4
g5
(dp6074
g4636
S'RevCharsetBits'
p6075
sg4638
S'19'
p6076
sg20
S'UTF_32'
p6077
stRp6078
ag3
(g4
g5
(dp6079
g4636
S'RevCharsetBits'
p6080
sg4638
S'20'
p6081
sg20
S'UTF_32_LE'
p6082
stRp6083
ag3
(g4
g5
(dp6084
g4636
S'RevCharsetBits'
p6085
sg4638
S'21'
p6086
sg20
S'UTF_32_BE'
p6087
stRp6088
ag3
(g4
g5
(dp6089
g4636
S'RevCharsetBits'
p6090
sg4638
S'22'
p6091
sg20
S'UTF_32_LE_BOM'
p6092
stRp6093
ag3
(g4
g5
(dp6094
g4636
S'RevCharsetBits'
p6095
sg4638
S'23'
p6096
sg20
S'UTF_32_BE_BOM'
p6097
stRp6098
ag3
(g4
g5
(dp6099
g4636
S'RevCharsetBits'
p6100
sg4638
S'24'
p6101
sg20
S'UTF_32_BOM'
p6102
stRp6103
ag3
(g4
g5
(dp6104
g4636
S'RevCharsetBits'
p6105
sg4638
S'25'
p6106
sg20
S'UTF_8_UNCHECKED'
p6107
stRp6108
ag3
(g4
g5
(dp6109
g4636
S'RevCharsetBits'
p6110
sg4638
S'26'
p6111
sg20
S'UTF_8_UNCHECKED_BOM'
p6112
stRp6113
ag3
(g4
g5
(dp6114
g4636
S'RevCharsetBits'
p6115
sg4638
S'27'
p6116
sg20
S'CP949'
p6117
stRp6118
ag3
(g4
g5
(dp6119
g4636
S'RevCharsetBits'
p6120
sg4638
S'28'
p6121
sg20
S'CP936'
p6122
stRp6123
ag3
(g4
g5
(dp6124
g4636
S'RevCharsetBits'
p6125
sg4638
S'29'
p6126
sg20
S'CP950'
p6127
stRp6128
ag3
(g4
g5
(dp6129
g4636
S'RevCharsetBits'
p6130
sg4638
S'30'
p6131
sg20
S'CP850'
p6132
stRp6133
ag3
(g4
g5
(dp6134
g4636
S'RevCharsetBits'
p6135
sg4638
S'31'
p6136
sg20
S'CP858'
p6137
stRp6138
atRp6139
sg15
S'RevStatus'
p6140
sg4636
g3
(g8
g9
(lp6141
g3
(g4
g5
(dp6142
g15
S'RevStatusBits'
p6143
sg4638
S'0x00FFFFFF'
p6144
sg20
S'Bits used to store revision status'
p6145
stRp6146
ag3
(g4
g5
(dp6147
g15
S'RevCharsetBits'
p6148
sg4638
S'0x7F000000'
p6149
sg20
S'Bits used to store revision charset (high 8 bits). Values below have been shifted right 24 bits'
p6150
stRp6151
atRp6152
sg4711
S'A revision status'
p6153
sg17
S'bitmask'
p6154
sg20
S'Lazy copy, task stream promotion, and charset status'
p6155
stRp6156
ag3
(g4
g5
(dp6157
g4711
S'Type of reviewer'
p6158
sg17
S'integer'
p6159
sg15
S'Reviewer'
p6160
sg20
S'The type of reviewer. Currently there is only one type of\n                reviewer and 0 is the only valid value.'
p6161
stRp6162
ag3
(g4
g5
(dp6163
g17
S'flag'
p6164
sg4711
S'The state of the scan'
p6165
sg4633
g3
(g8
g9
(lp6166
g3
(g4
g5
(dp6167
g4638
S'0'
sg20
S'unset'
p6168
stRp6169
ag3
(g4
g5
(dp6170
g4638
S'1'
sg20
S'run'
p6171
stRp6172
ag3
(g4
g5
(dp6173
g4638
S'2'
sg20
S'paused'
p6174
stRp6175
ag3
(g4
g5
(dp6176
g4638
S'3'
sg20
S'done'
p6177
stRp6178
ag3
(g4
g5
(dp6179
g4638
S'4'
sg20
S'error'
p6180
stRp6181
ag3
(g4
g5
(dp6182
g4638
S'5'
sg20
S'busy'
p6183
stRp6184
atRp6185
sg15
S'ScanState'
p6186
sg20
S'The state of the scan'
p6187
stRp6188
ag3
(g4
g5
(dp6189
g17
S'flag'
p6190
sg4711
S'The type of server'
p6191
sg4633
g3
(g8
g9
(lp6192
g3
(g4
g5
(dp6193
g4638
S'0'
sg20
S'server'
p6194
stRp6195
ag3
(g4
g5
(dp6196
g4638
S'1'
sg20
S'proxy'
p6197
stRp6198
ag3
(g4
g5
(dp6199
g4638
S'2'
sg20
S'broker'
p6200
stRp6201
ag3
(g4
g5
(dp6202
g4638
S'3'
sg20
S'identifier'
p6203
stRp6204
ag3
(g4
g5
(dp6205
g4638
S'4'
sg20
S'admin'
p6206
stRp6207
ag3
(g4
g5
(dp6208
g4638
S'5'
sg20
S'connector'
p6209
stRp6210
atRp6211
sg15
S'ServerType'
p6212
sg20
S'The type of server'
p6213
stRp6214
ag3
(g4
g5
(dp6215
g4633
g3
(g8
g9
(lp6216
g3
(g4
g5
(dp6217
g4636
S'Service Set Value'
p6218
sg4638
S'0x0903'
p6219
sg20
S'standard ( db-read | db-write | rmt-depot | rmt-journal )'
p6220
stRp6221
ag3
(g4
g5
(dp6222
g4636
S'Service Set Value'
p6223
sg4638
S'0x0945'
p6224
sg20
S'replica ( db-read | db-replication | file-replication | rmt-depot | rmt-journal )'
p6225
stRp6226
ag3
(g4
g5
(dp6227
g4636
S'Service Set Value'
p6228
sg4638
S'0x0030'
p6229
sg20
S'broker ( brokering | forwarding )'
p6230
stRp6231
ag3
(g4
g5
(dp6232
g4636
S'Service Set Value'
p6233
sg4638
S'0x00A0'
p6234
sg20
S'proxy ( forwarding | file-cacheing )'
p6235
stRp6236
ag3
(g4
g5
(dp6237
g4636
S'Service Set Value'
p6238
sg4638
S'0x09E5'
p6239
sg20
S'forwarding-replica ( db-read | db-replication | forwarding | file-replication | file-cacheing |\n                    rmt-depot | rmt-journal )'
p6240
stRp6241
ag3
(g4
g5
(dp6242
g4636
S'Service Set Value'
p6243
sg4638
S'0x094D'
p6244
sg20
S'build-server ( db-read | db-replication | bound-clients | file-replication | rmt-depot |\n                    rmt-journal )'
p6245
stRp6246
ag3
(g4
g5
(dp6247
g4636
S'Service Set Value'
p6248
sg4638
S'0x0203'
p6249
sg20
S'P4AUTH ( db-read | db-write | rmt-auth )'
p6250
stRp6251
ag3
(g4
g5
(dp6252
g4636
S'Service Set Value'
p6253
sg4638
S'0x0403'
p6254
sg20
S'P4CHANGE ( db-read | db-write | rmt-change )'
p6255
stRp6256
ag3
(g4
g5
(dp6257
g4636
S'Service Set Value'
p6258
sg4638
S'0x19ED'
p6259
sg20
S'edge-server ( db-read | db-replication | bound-clients | forwarding | file-replication |\n                    file-cacheing | rmt-depot | rmt-journal | local-opens )'
p6260
stRp6261
ag3
(g4
g5
(dp6262
g4636
S'Service Set Value'
p6263
sg4638
S'0x2F03'
p6264
sg20
S'commit-server ( db-read | db-write | rmt-depot | rmt-journal | rmt-change | rmt-auth |\n                    commit-server )'
p6265
stRp6266
ag3
(g4
g5
(dp6267
g4636
S'Service Set Value'
p6268
sg4638
S'0x6F03'
p6269
sg20
S'depot-master ( db-read | db-write | rmt-depot | rmt-journal | rmt-change | rmt-auth |\n                    commit-server | p4zk-managed )'
p6270
stRp6271
ag3
(g4
g5
(dp6272
g4636
S'Service Set Value'
p6273
sg4638
S'0xC945'
p6274
sg20
S'depot-standby ( db-read | db-replication | file-replication | rmt-depot | rmt-journal |\n                    journal-copy | p4zk-managed )'
p6275
stRp6276
ag3
(g4
g5
(dp6277
g4636
S'Service Set Value'
p6278
sg4638
S'0x59ED'
p6279
sg20
S'workspace-server ( db-read | db-replication | bound-clients | forwarding | file-replication |\n                    file-cacheing | rmt-depot | rmt-journal | local-opens | p4zk-managed )'
p6280
stRp6281
ag3
(g4
g5
(dp6282
g4636
S'Service Set Value'
p6283
sg4638
S'0x8945'
p6284
sg20
S'standby ( db-read | db-replication | file-replication | rmt-depot | rmt-journal | journal-copy )'
p6285
stRp6286
ag3
(g4
g5
(dp6287
g4636
S'Service Set Value'
p6288
sg4638
S'0x89E5'
p6289
sg20
S'forwarding-standby ( db-read | db-replication | forwarding | file-replication | file-cacheing |\n                    rmt-depot | rmt-journal | journal-copy )'
p6290
stRp6291
ag3
(g4
g5
(dp6292
g4636
S'Service Set Value'
p6293
sg4638
S'0x4030'
p6294
sg20
S'workspace-router ( brokering | forwarding | p4zk-managed )'
p6295
stRp6296
ag3
(g4
g5
(dp6297
g4636
S'Service Set Value'
p6298
sg4638
S'0x10003'
p6299
sg20
S'local ( db-read | db-write | dvcs-local )'
p6300
stRp6301
ag3
(g4
g5
(dp6302
g4636
S'Service Set Value'
p6303
sg4638
S'0x20000'
p6304
sg20
S'cluster ( cluster-id )'
p6305
stRp6306
ag3
(g4
g5
(dp6307
g4636
S'Service Set Value'
p6308
sg4638
S'0x40000'
p6309
sg20
S'zookeeper-server ( zookeeper-server )'
p6310
stRp6311
ag3
(g4
g5
(dp6312
g4636
S'Service Set Value'
p6313
sg4638
S'0x80000'
p6314
sg20
S'hxca-server ( hxca-server )'
p6315
stRp6316
ag3
(g4
g5
(dp6317
g4636
S'Service Set Value'
p6318
sg4638
S'0x100000'
p6319
sg20
S'git-connector'
p6320
stRp6321
ag3
(g4
g5
(dp6322
g4636
S'Service Property'
p6323
sg4638
S'0x0001'
p6324
sg20
S'db-read'
p6325
stRp6326
ag3
(g4
g5
(dp6327
g4636
S'Service Property'
p6328
sg4638
S'0x0002'
p6329
sg20
S'db-write'
p6330
stRp6331
ag3
(g4
g5
(dp6332
g4636
S'Service Property'
p6333
sg4638
S'0x0004'
p6334
sg20
S'db-replication'
p6335
stRp6336
ag3
(g4
g5
(dp6337
g4636
S'Service Property'
p6338
sg4638
S'0x0008'
p6339
sg20
S'bound-clients'
p6340
stRp6341
ag3
(g4
g5
(dp6342
g4636
S'Service Property'
p6343
sg4638
S'0x0010'
p6344
sg20
S'brokering'
p6345
stRp6346
ag3
(g4
g5
(dp6347
g4636
S'Service Property'
p6348
sg4638
S'0x0020'
p6349
sg20
S'forwarding'
p6350
stRp6351
ag3
(g4
g5
(dp6352
g4636
S'Service Property'
p6353
sg4638
S'0x0040'
p6354
sg20
S'file-replication'
p6355
stRp6356
ag3
(g4
g5
(dp6357
g4636
S'Service Property'
p6358
sg4638
S'0x0080'
p6359
sg20
S'file-cacheing'
p6360
stRp6361
ag3
(g4
g5
(dp6362
g4636
S'Service Property'
p6363
sg4638
S'0x0100'
p6364
sg20
S'rmt-depot'
p6365
stRp6366
ag3
(g4
g5
(dp6367
g4636
S'Service Property'
p6368
sg4638
S'0x0200'
p6369
sg20
S'rmt-auth'
p6370
stRp6371
ag3
(g4
g5
(dp6372
g4636
S'Service Property'
p6373
sg4638
S'0x0400'
p6374
sg20
S'rmt-change'
p6375
stRp6376
ag3
(g4
g5
(dp6377
g4636
S'Service Property'
p6378
sg4638
S'0x0800'
p6379
sg20
S'rmt-journal'
p6380
stRp6381
ag3
(g4
g5
(dp6382
g4636
S'Service Property'
p6383
sg4638
S'0x1000'
p6384
sg20
S'local-opens'
p6385
stRp6386
ag3
(g4
g5
(dp6387
g4636
S'Service Property'
p6388
sg4638
S'0x2000'
p6389
sg20
S'commit-server'
p6390
stRp6391
ag3
(g4
g5
(dp6392
g4636
S'Service Property'
p6393
sg4638
S'0x4000'
p6394
sg20
S'p4zk-managed'
p6395
stRp6396
ag3
(g4
g5
(dp6397
g4636
S'Service Property'
p6398
sg4638
S'0x8000'
p6399
sg20
S'journal-copy'
p6400
stRp6401
ag3
(g4
g5
(dp6402
g4636
S'Service Property'
p6403
sg4638
S'0x10000'
p6404
sg20
S'dvcs-local'
p6405
stRp6406
ag3
(g4
g5
(dp6407
g4636
S'Service Property'
p6408
sg4638
S'0x20000'
p6409
sg20
S'cluster-id'
p6410
stRp6411
ag3
(g4
g5
(dp6412
g4636
S'Service Property'
p6413
sg4638
S'0x40000'
p6414
sg20
S'zookeeper'
p6415
stRp6416
ag3
(g4
g5
(dp6417
g4636
S'Service Property'
p6418
sg4638
S'0x80000'
p6419
sg20
S'hxca'
p6420
stRp6421
ag3
(g4
g5
(dp6422
g4636
S'Service Property'
p6423
sg4638
S'0x80000'
p6424
sg20
S'Git-Connector'
p6425
stRp6426
atRp6427
sg15
S'ServerServiceType'
p6428
sg4636
g3
(g8
g9
(lp6429
g3
(g4
g5
(dp6430
g15
S'Service Set Value'
p6431
sg4638
S'None'
p6432
sg20
S"The server service type setting is generated by OR'ing the generic ServerServiceProperties defined\n                    below"
p6433
stRp6434
ag3
(g4
g5
(dp6435
g15
S'Service Property'
p6436
sg4638
S'None'
p6437
sg20
S'ServerServiceProperties: Bits used to identify generic server properties'
p6438
stRp6439
atRp6440
sg4711
S'The type of server service'
p6441
sg17
S'bitmask'
p6442
sg20
S'The services offered by a type of service.'
p6443
stRp6444
ag3
(g4
g5
(dp6445
g4633
g3
(g4
g5
(dp6446
g4636
S'Server Option Flag'
p6447
sg4638
S'0x0001'
p6448
sg20
S'mandatory'
p6449
stRp6450
sg15
S'ServerOptionsType'
p6451
sg4636
g3
(g4
g5
(dp6452
g15
S'Server Option Flag'
p6453
sg4638
S'None'
p6454
sg20
S"The server options service type setting is generated by OR'ing the generic ServerOptionFlags\n                    defined below"
p6455
stRp6456
sg4711
S'Options for server definitions'
p6457
sg17
S'bitmask'
p6458
sg20
S'Option Flags for server definitions.'
p6459
stRp6460
ag3
(g4
g5
(dp6461
g4711
S'Encoded SHA1'
p6462
sg17
S'string'
p6463
sg15
S'SHA1'
p6464
sg20
S'20 byte SHA1 digest of a block of text'
p6465
stRp6466
ag3
(g4
g5
(dp6467
g17
S'flag'
p6468
sg4711
S'A spec type'
p6469
sg4633
g3
(g8
g9
(lp6470
g3
(g4
g5
(dp6471
g4638
S"98 (ASCII 'b')"
p6472
sg20
S'branch'
p6473
stRp6474
ag3
(g4
g5
(dp6475
g4638
S"67 (ASCII 'C')"
p6476
sg20
S'change'
p6477
stRp6478
ag3
(g4
g5
(dp6479
g4638
S"99 (ASCII 'c')"
p6480
sg20
S'client'
p6481
stRp6482
ag3
(g4
g5
(dp6483
g4638
S"100 (ASCII 'd')"
p6484
sg20
S'depot'
p6485
stRp6486
ag3
(g4
g5
(dp6487
g4638
S"101 (ASCII 'e')"
p6488
sg20
S'spec'
p6489
stRp6490
ag3
(g4
g5
(dp6491
g4638
S"69 (ASCII 'E')"
p6492
sg20
S'extension'
p6493
stRp6494
ag3
(g4
g5
(dp6495
g4638
S"103 (ASCII 'g')"
p6496
sg20
S'group'
p6497
stRp6498
ag3
(g4
g5
(dp6499
g4638
S"106 (ASCII 'j')"
p6500
sg20
S'job'
p6501
stRp6502
ag3
(g4
g5
(dp6503
g4638
S"108 (ASCII 'l')"
p6504
sg20
S'label'
p6505
stRp6506
ag3
(g4
g5
(dp6507
g4638
S"68 (ASCII 'D')"
p6508
sg20
S'ldap'
p6509
stRp6510
ag3
(g4
g5
(dp6511
g4638
S"76 (ASCII 'L')"
p6512
sg20
S'license'
p6513
stRp6514
ag3
(g4
g5
(dp6515
g4638
S"112 (ASCII 'p')"
p6516
sg20
S'protect'
p6517
stRp6518
ag3
(g4
g5
(dp6519
g4638
S"114 (ASCII 'r')"
p6520
sg20
S'remote'
p6521
stRp6522
ag3
(g4
g5
(dp6523
g4638
S"82 (ASCII 'R')"
p6524
sg20
S'repo'
p6525
stRp6526
ag3
(g4
g5
(dp6527
g4638
S"83 (ASCII 'S')"
p6528
sg20
S'server'
p6529
stRp6530
ag3
(g4
g5
(dp6531
g4638
S"115 (ASCII 's')"
p6532
sg20
S'stream'
p6533
stRp6534
ag3
(g4
g5
(dp6535
g4638
S"84 (ASCII 'T')"
p6536
sg20
S'trigger'
p6537
stRp6538
ag3
(g4
g5
(dp6539
g4638
S"116 (ASCII 't')"
p6540
sg20
S'typemap'
p6541
stRp6542
ag3
(g4
g5
(dp6543
g4638
S"117 (ASCII 'u')"
p6544
sg20
S'user'
p6545
stRp6546
atRp6547
sg15
S'SpecType'
p6548
sg20
S'A integer value representing the type of a spec'
p6549
stRp6550
ag3
(g4
g5
(dp6551
g17
S'flag'
p6552
sg4711
S'Stash type'
p6553
sg4633
g3
(g8
g9
(lp6554
g3
(g4
g5
(dp6555
g4638
S'0'
sg20
S'switch: A shelf with work-in-progress for a particular stream/branch'
p6556
stRp6557
ag3
(g4
g5
(dp6558
g4638
S'1'
sg20
S"tangent: Work-in-progress relocated by 'p4 fetch -t'. Consumed and removed by 'p4 resubmit'"
p6559
stRp6560
atRp6561
sg15
S'StashType'
p6562
sg20
S'Stash type'
p6563
stRp6564
ag3
(g4
g5
(dp6565
g17
S'flag'
p6566
sg4711
S'Server specification view type'
p6567
sg4633
g3
(g8
g9
(lp6568
g3
(g4
g5
(dp6569
g4638
S'0'
sg20
S'Client VersionData Filter'
p6570
stRp6571
ag3
(g4
g5
(dp6572
g4638
S'1'
sg20
S'Revision VersionData Filter'
p6573
stRp6574
ag3
(g4
g5
(dp6575
g4638
S'2'
sg20
S'Archive VersionData Filter'
p6576
stRp6577
ag3
(g4
g5
(dp6578
g4638
S'3'
sg20
S'Authorized Addresses'
p6579
stRp6580
ag3
(g4
g5
(dp6581
g4638
S'4'
sg20
S'Repos that should be polled to keep their caches up-to-date'
p6582
stRp6583
atRp6584
sg15
S'SvrViewType'
p6585
sg20
S'Server specification view type'
p6586
stRp6587
ag3
(g4
g5
(dp6588
g4633
g3
(g8
g9
(lp6589
g3
(g4
g5
(dp6590
g4636
S'Stream Status'
p6591
sg4638
S'0x0000'
p6592
sg20
S'Clear cache'
p6593
stRp6594
ag3
(g4
g5
(dp6595
g4636
S'Stream Status'
p6596
sg4638
S'0x0001'
p6597
sg20
S'Needs copy'
p6598
stRp6599
ag3
(g4
g5
(dp6600
g4636
S'Stream Status'
p6601
sg4638
S'0x0002'
p6602
sg20
S'Copy up-to-date'
p6603
stRp6604
ag3
(g4
g5
(dp6605
g4636
S'Stream Status'
p6606
sg4638
S'0x0004'
p6607
sg20
S'Needs merge'
p6608
stRp6609
ag3
(g4
g5
(dp6610
g4636
S'Stream Status'
p6611
sg4638
S'0x0008'
p6612
sg20
S'Merge up-to-date'
p6613
stRp6614
ag3
(g4
g5
(dp6615
g4636
S'Stream Status'
p6616
sg4638
S'0x0010'
p6617
sg20
S'Spec needs copy'
p6618
stRp6619
ag3
(g4
g5
(dp6620
g4636
S'Stream Status'
p6621
sg4638
S'0x0020'
p6622
sg20
S'Spec copy up-to-date'
p6623
stRp6624
ag3
(g4
g5
(dp6625
g4636
S'Stream Status'
p6626
sg4638
S'0x0040'
p6627
sg20
S'Spec needs merge'
p6628
stRp6629
ag3
(g4
g5
(dp6630
g4636
S'Stream Status'
p6631
sg4638
S'0x0080'
p6632
sg20
S'Spec merge up-to-date'
p6633
stRp6634
atRp6635
sg15
S'StreamStatus'
p6636
sg4636
g3
(g4
g5
(dp6637
g15
S'Stream Status'
p6638
sg4638
S'Copy: 0x0003, Merge: 0x000C, Spec copy: 0x0030, Spec merge: 0x00C0'
p6639
sg20
S'Bits used to store the stream integration status'
p6640
stRp6641
sg4711
S'Stream integration status'
p6642
sg17
S'bitmask'
p6643
sg20
S'The stream integration status.'
p6644
stRp6645
ag3
(g4
g5
(dp6646
g17
S'flag'
p6647
sg4711
S'Type of stream path'
p6648
sg4633
g3
(g8
g9
(lp6649
g3
(g4
g5
(dp6650
g4638
S'0'
sg20
S'share'
p6651
stRp6652
ag3
(g4
g5
(dp6653
g4638
S'1'
sg20
S'isolate'
p6654
stRp6655
ag3
(g4
g5
(dp6656
g4638
S'2'
sg20
S'import'
p6657
stRp6658
ag3
(g4
g5
(dp6659
g4638
S'3'
sg20
S'exclude'
p6660
stRp6661
ag3
(g4
g5
(dp6662
g4638
S'4'
sg20
S'remapped'
p6663
stRp6664
ag3
(g4
g5
(dp6665
g4638
S'5'
sg20
S'ignored'
p6666
stRp6667
ag3
(g4
g5
(dp6668
g4638
S'6'
sg20
S'inclusive, a type which is generated internally'
p6669
stRp6670
ag3
(g4
g5
(dp6671
g4638
S'7'
sg20
S'import+'
p6672
stRp6673
ag3
(g4
g5
(dp6674
g4638
S'8'
sg20
S'inclusive+, a type which is generated internally'
p6675
stRp6676
ag3
(g4
g5
(dp6677
g4638
S'9'
sg20
S'a line comment in the paths field'
p6678
stRp6679
ag3
(g4
g5
(dp6680
g4638
S'10'
p6681
sg20
S'a continuation comment in the paths field'
p6682
stRp6683
ag3
(g4
g5
(dp6684
g4638
S'11'
p6685
sg20
S'a line comment in the remapped field'
p6686
stRp6687
ag3
(g4
g5
(dp6688
g4638
S'12'
p6689
sg20
S'a continuation comment in the remapped field'
p6690
stRp6691
ag3
(g4
g5
(dp6692
g4638
S'13'
p6693
sg20
S'a line comment in the ignored field'
p6694
stRp6695
ag3
(g4
g5
(dp6696
g4638
S'14'
p6697
sg20
S'a continuation comment in the ignored field'
p6698
stRp6699
ag3
(g4
g5
(dp6700
g4638
S'15'
p6701
sg20
S'invalid path type, used internally'
p6702
stRp6703
atRp6704
sg15
S'StreamPathType'
p6705
sg20
S'The path type for file paths in a stream view.'
p6706
stRp6707
ag3
(g4
g5
(dp6708
g17
S'flag'
p6709
sg4711
S'Type of stream'
p6710
sg4633
g3
(g8
g9
(lp6711
g3
(g4
g5
(dp6712
g4638
S'0'
sg20
S'mainline'
p6713
stRp6714
ag3
(g4
g5
(dp6715
g4638
S'1'
sg20
S'release'
p6716
stRp6717
ag3
(g4
g5
(dp6718
g4638
S'2'
sg20
S'development'
p6719
stRp6720
ag3
(g4
g5
(dp6721
g4638
S'3'
sg20
S'virtual'
p6722
stRp6723
ag3
(g4
g5
(dp6724
g4638
S'4'
sg20
S'task'
p6725
stRp6726
ag3
(g4
g5
(dp6727
g4638
S'5'
sg20
S'task - unloaded'
p6728
stRp6729
atRp6730
sg15
S'StreamType'
p6731
sg20
S'The type of stream.'
p6732
stRp6733
ag3
(g4
g5
(dp6734
g17
S'flag'
p6735
sg4711
S'Strength check of a password'
p6736
sg4633
g3
(g8
g9
(lp6737
g3
(g4
g5
(dp6738
g4638
S'0'
sg20
S'Strength unknown'
p6739
stRp6740
ag3
(g4
g5
(dp6741
g4638
S'1'
sg20
S'Password is strong'
p6742
stRp6743
ag3
(g4
g5
(dp6744
g4638
S'2'
sg20
S'Unset'
p6745
stRp6746
atRp6747
sg15
S'Strength'
p6748
sg20
S"Whether or not a user's password has been tested for strength."
p6749
stRp6750
ag3
(g4
g5
(dp6751
S'restriction'
p6752
g3
(g8
g9
(lp6753
S'Cannot be empty'
p6754
aS'Cannot consist solely of a dash (-)'
p6755
aS'Cannot be all-numeric'
p6756
aS'Cannot contain non-printable characters'
p6757
aS'Spaces are replaced with underscores ( _ )'
p6758
aS'Revision characters (# and @) are prohibited'
p6759
aS'Slashes (/) are prohibited'
p6760
aS'Wildcards (... and *) are prohibited'
p6761
atRp6762
sg4711
S'A string up to 1024 characters long'
p6763
sg17
S'string'
p6764
sg15
S'String'
p6765
sg20
S'A string up to 1024 characters in length. Depending on the\n                context in which the string is used, restrictions\n                may apply. Strings are often used as key fields in the\n                schema.'
p6766
stRp6767
ag3
(g4
g5
(dp6768
g17
S'flag'
p6769
sg4711
S'Tamper-state of workspace file'
p6770
sg4633
g3
(g8
g9
(lp6771
g3
(g4
g5
(dp6772
g4638
S'0'
sg20
S'Do not check for tampering'
p6773
stRp6774
ag3
(g4
g5
(dp6775
g4638
S'1'
sg20
S'Check for tampering'
p6776
stRp6777
ag3
(g4
g5
(dp6778
g4638
S'2'
sg20
S'Tamper-check failed'
p6779
stRp6780
atRp6781
sg15
S'TamperCheck'
p6782
sg20
S'Indicates the tamper-state of a file in a workspace. This\n                is used to decide whether or not to check the file, and\n                if checked, to hold the result.'
p6783
stRp6784
ag3
(g4
g5
(dp6785
g4711
S'A string value'
p6786
sg17
S'string'
p6787
sg15
S'Text'
p6788
sg20
S'A text string value - used to hold longer blocks of text.'
p6789
stRp6790
ag3
(g4
g5
(dp6791
g4711
S'The id of a group of traits'
p6792
sg17
S'integer'
p6793
sg15
S'TraitLot'
p6794
sg20
S'An integer identifying a group of traits which may be\n                shared by several revisions.'
p6795
stRp6796
ag3
(g4
g5
(dp6797
g17
S'flag'
p6798
sg4711
S'A type of trait'
p6799
sg4633
g3
(g8
g9
(lp6800
g3
(g4
g5
(dp6801
g4638
S'0'
sg20
S'Special trait for reference counting'
p6802
stRp6803
ag3
(g4
g5
(dp6804
g4638
S'1'
sg20
S'Binary trait'
p6805
stRp6806
ag3
(g4
g5
(dp6807
g4638
S'2'
sg20
S'Binary trait that gets propagated'
p6808
stRp6809
atRp6810
sg15
S'TraitType'
p6811
sg20
S'The type of trait.'
p6812
stRp6813
ag3
(g4
g5
(dp6814
g17
S'flag'
p6815
sg4711
S'A type of trigger'
p6816
sg4633
g3
(g8
g9
(lp6817
g3
(g4
g5
(dp6818
g4638
S'0'
sg20
S'change-submit (formerly pre-submit triggers)'
p6819
stRp6820
ag3
(g4
g5
(dp6821
g4638
S'1'
sg20
S'change-content'
p6822
stRp6823
ag3
(g4
g5
(dp6824
g4638
S'2'
sg20
S'change-commit'
p6825
stRp6826
ag3
(g4
g5
(dp6827
g4638
S'3'
sg20
S'form-in'
p6828
stRp6829
ag3
(g4
g5
(dp6830
g4638
S'4'
sg20
S'form-out'
p6831
stRp6832
ag3
(g4
g5
(dp6833
g4638
S'5'
sg20
S'form-save'
p6834
stRp6835
ag3
(g4
g5
(dp6836
g4638
S'6'
sg20
S'form-delete'
p6837
stRp6838
ag3
(g4
g5
(dp6839
g4638
S'7'
sg20
S'form-commit'
p6840
stRp6841
ag3
(g4
g5
(dp6842
g4638
S'8'
sg20
S'auth-check'
p6843
stRp6844
ag3
(g4
g5
(dp6845
g4638
S'9'
sg20
S'auth-check-sso'
p6846
stRp6847
ag3
(g4
g5
(dp6848
g4638
S'10'
p6849
sg20
S'auth-set'
p6850
stRp6851
ag3
(g4
g5
(dp6852
g4638
S'11'
p6853
sg20
S'fix-add'
p6854
stRp6855
ag3
(g4
g5
(dp6856
g4638
S'12'
p6857
sg20
S'fix-delete'
p6858
stRp6859
ag3
(g4
g5
(dp6860
g4638
S'13'
p6861
sg20
S'archive'
p6862
stRp6863
ag3
(g4
g5
(dp6864
g4638
S'14'
p6865
sg20
S'shelve-submit'
p6866
stRp6867
ag3
(g4
g5
(dp6868
g4638
S'15'
p6869
sg20
S'shelve-commit'
p6870
stRp6871
ag3
(g4
g5
(dp6872
g4638
S'16'
p6873
sg20
S'shelve-delete'
p6874
stRp6875
ag3
(g4
g5
(dp6876
g4638
S'17'
p6877
sg20
S'service-check'
p6878
stRp6879
ag3
(g4
g5
(dp6880
g4638
S'18'
p6881
sg20
S'edge-submit'
p6882
stRp6883
ag3
(g4
g5
(dp6884
g4638
S'19'
p6885
sg20
S'edge-content'
p6886
stRp6887
ag3
(g4
g5
(dp6888
g4638
S'20'
p6889
sg20
S'change-failed'
p6890
stRp6891
ag3
(g4
g5
(dp6892
g4638
S'21'
p6893
sg20
S'command'
p6894
stRp6895
ag3
(g4
g5
(dp6896
g4638
S'22'
p6897
sg20
S'push-submit'
p6898
stRp6899
ag3
(g4
g5
(dp6900
g4638
S'23'
p6901
sg20
S'push-content'
p6902
stRp6903
ag3
(g4
g5
(dp6904
g4638
S'24'
p6905
sg20
S'push-commit'
p6906
stRp6907
ag3
(g4
g5
(dp6908
g4638
S'25'
p6909
sg20
S'journal-rotate'
p6910
stRp6911
ag3
(g4
g5
(dp6912
g4638
S'26'
p6913
sg20
S'journal-rotate-lock'
p6914
stRp6915
ag3
(g4
g5
(dp6916
g4638
S'27'
p6917
sg20
S'graph-push-start'
p6918
stRp6919
ag3
(g4
g5
(dp6920
g4638
S'28'
p6921
sg20
S'graph-push-complete'
p6922
stRp6923
ag3
(g4
g5
(dp6924
g4638
S'29'
p6925
sg20
S'graph-push-reference'
p6926
stRp6927
ag3
(g4
g5
(dp6928
g4638
S'30'
p6929
sg20
S'graph-push-reference-complete'
p6930
stRp6931
ag3
(g4
g5
(dp6932
g4638
S'31'
p6933
sg20
S'graph-lfs-push'
p6934
stRp6935
ag3
(g4
g5
(dp6936
g4638
S'32'
p6937
sg20
S'graph-fork-repo'
p6938
stRp6939
ag3
(g4
g5
(dp6940
g4638
S'33'
p6941
sg20
S'pull-archive'
p6942
stRp6943
ag3
(g4
g5
(dp6944
g4638
S'34'
p6945
sg20
S'auth-pre-2fa'
p6946
stRp6947
ag3
(g4
g5
(dp6948
g4638
S'35'
p6949
sg20
S'auth-init-2fa'
p6950
stRp6951
ag3
(g4
g5
(dp6952
g4638
S'36'
p6953
sg20
S'auth-check-2fa'
p6954
stRp6955
ag3
(g4
g5
(dp6956
g4638
S'37'
p6957
sg20
S'bgtask'
p6958
stRp6959
ag3
(g4
g5
(dp6960
g4638
S'38'
p6961
sg20
S'auth-invalidate'
p6962
stRp6963
ag3
(g4
g5
(dp6964
g4638
S'39'
p6965
sg20
S'global-extcfg'
p6966
stRp6967
ag3
(g4
g5
(dp6968
g4638
S'40'
p6969
sg20
S'auth-pre-sso'
p6970
stRp6971
ag3
(g4
g5
(dp6972
g4638
S'41'
p6973
sg20
S'failed-over'
p6974
stRp6975
ag3
(g4
g5
(dp6976
g4638
S'42'
p6977
sg20
S'extension-run'
p6978
stRp6979
ag3
(g4
g5
(dp6980
g4638
S'43'
p6981
sg20
S'heartbeat-missing'
p6982
stRp6983
ag3
(g4
g5
(dp6984
g4638
S'44'
p6985
sg20
S'heartbeat-resumed'
p6986
stRp6987
ag3
(g4
g5
(dp6988
g4638
S'45'
p6989
sg20
S'heartbeat-dead'
p6990
stRp6991
atRp6992
sg15
S'Trigger'
p6993
sg20
S'The type of a trigger.'
p6994
stRp6995
ag3
(g4
g5
(dp6996
g4633
g3
(g8
g9
(lp6997
g3
(g4
g5
(dp6998
g4636
S'Upgrade State'
p6999
sg4638
S'0x0000'
p7000
sg20
S'Upgrade Needed'
p7001
stRp7002
ag3
(g4
g5
(dp7003
g4636
S'Upgrade State'
p7004
sg4638
S'0x0001'
p7005
sg20
S'Upgrade Needed on replica; change to counter seen'
p7006
stRp7007
ag3
(g4
g5
(dp7008
g4636
S'Upgrade State'
p7009
sg4638
S'0x0002'
p7010
sg20
S'Upgrade currently executing (or abruptly terminated)'
p7011
stRp7012
ag3
(g4
g5
(dp7013
g4636
S'Upgrade State'
p7014
sg4638
S'0x0003'
p7015
sg20
S'Upgrade completed on this and all upstream servers'
p7016
stRp7017
ag3
(g4
g5
(dp7018
g4636
S'Upgrade State'
p7019
sg4638
S'0x0004'
p7020
sg20
S'Manually triggered upgrade success on replica'
p7021
stRp7022
ag3
(g4
g5
(dp7023
g4636
S'Upgrade State'
p7024
sg4638
S'0x0005'
p7025
sg20
S'Upgrade step has failed on this server'
p7026
stRp7027
ag3
(g4
g5
(dp7028
g4636
S'Upgrade State'
p7029
sg4638
S'0x0100'
p7030
sg20
S'Upgrade step was run in isolation (modifier bit)'
p7031
stRp7032
atRp7033
sg15
S'UpgradeState'
p7034
sg4636
g3
(g4
g5
(dp7035
g15
S'Upgrade State'
p7036
sg4638
S'0x010F'
p7037
sg20
S'Bits used to store the upgrade state'
p7038
stRp7039
sg4711
S'Upgrade State'
p7040
sg17
S'bitmask'
p7041
sg20
S'Upgrade State'
p7042
stRp7043
ag3
(g4
g5
(dp7044
g4711
S'A user or group name'
p7045
sg20
S'The name of a Helix Server user or group.'
p7046
sg17
S'string'
p7047
sg15
S'User'
p7048
sg252
S'String'
p7049
stRp7050
ag3
(g4
g5
(dp7051
g17
S'flag'
p7052
sg4711
S'User Authentication Type'
p7053
sg4633
g3
(g8
g9
(lp7054
g3
(g4
g5
(dp7055
g4638
S'0'
sg20
S'perforce'
p7056
stRp7057
ag3
(g4
g5
(dp7058
g4638
S'1'
sg20
S'ldap'
p7059
stRp7060
ag3
(g4
g5
(dp7061
g4638
S'16'
p7062
sg20
S'perforce+2fa'
p7063
stRp7064
ag3
(g4
g5
(dp7065
g4638
S'17'
p7066
sg20
S'ldap+2fa'
p7067
stRp7068
atRp7069
sg15
S'UserAuthType'
p7070
sg20
S'The AuthMethod setting for the user.'
p7071
stRp7072
ag3
(g4
g5
(dp7073
g17
S'flag'
p7074
sg4711
S'User functionality level'
p7075
sg4633
g3
(g8
g9
(lp7076
g3
(g4
g5
(dp7077
g4638
S'0'
sg20
S'standard'
p7078
stRp7079
ag3
(g4
g5
(dp7080
g4638
S'1'
sg20
S'service'
p7081
stRp7082
ag3
(g4
g5
(dp7083
g4638
S'2'
sg20
S'operator'
p7084
stRp7085
atRp7086
sg15
S'UserLevel'
p7087
sg20
S'User functionality level'
p7088
stRp7089
ag3
(g4
g5
(dp7090
g4633
g3
(g8
g9
(lp7091
g3
(g4
g5
(dp7092
g4636
S'UserTypeBits'
p7093
sg15
S'User'
p7094
sg4638
S'0x0001'
p7095
sg20
S'User is an ordinary user'
p7096
stRp7097
ag3
(g4
g5
(dp7098
g4636
S'UserTypeBits'
p7099
sg15
S'SubGroup'
p7100
sg4638
S'0x0002'
p7101
sg20
S'Group is a sub-group'
p7102
stRp7103
ag3
(g4
g5
(dp7104
g4636
S'UserTypeBits'
p7105
sg15
S'Owner'
p7106
sg4638
S'0x0004'
p7107
sg20
S'User is the owner of a group'
p7108
stRp7109
atRp7110
sg15
S'UserType'
p7111
sg4636
g3
(g4
g5
(dp7112
g15
S'UserTypeBits'
p7113
sg4638
S'0x0007'
p7114
sg20
S'Bits used to store the role of a user in a group'
p7115
stRp7116
sg4711
S'The role of a user within a group'
p7117
sg17
S'bitmask'
p7118
sg20
S'The role of a user (or group) within a group.'
p7119
stRp7120
ag3
(g4
g5
(dp7121
g4711
S'A user or group name with wildcards'
p7122
sg20
S'A user/group name that may contain wildcards (*)'
p7123
sg17
S'string'
p7124
sg15
S'UserWild'
p7125
sg252
S'User'
p7126
stRp7127
ag3
(g4
g5
(dp7128
g4711
S'A number or a string'
p7129
sg17
S'string'
p7130
sg15
S'Value'
p7131
sg20
S'A number, stored in a string, or a string'
p7132
stRp7133
ag3
(g4
g5
(dp7134
g4633
g3
(g8
g9
(lp7135
g3
(g4
g5
(dp7136
g4636
S'WorkStatusBits'
p7137
sg15
S'kmerged'
p7138
sg4638
S'0x0001'
p7139
sg20
S'resolved merged ktext'
p7140
stRp7141
ag3
(g4
g5
(dp7142
g4636
S'WorkCharsetBits'
p7143
sg4638
S'0'
sg20
S'NONE'
p7144
stRp7145
ag3
(g4
g5
(dp7146
g4636
S'WorkCharsetBits'
p7147
sg4638
S'1'
sg20
S'UTF_8'
p7148
stRp7149
ag3
(g4
g5
(dp7150
g4636
S'WorkCharsetBits'
p7151
sg4638
S'2'
sg20
S'ISO8859_1'
p7152
stRp7153
ag3
(g4
g5
(dp7154
g4636
S'WorkCharsetBits'
p7155
sg4638
S'3'
sg20
S'UTF_16'
p7156
stRp7157
ag3
(g4
g5
(dp7158
g4636
S'WorkCharsetBits'
p7159
sg4638
S'4'
sg20
S'SHIFTJIS'
p7160
stRp7161
ag3
(g4
g5
(dp7162
g4636
S'WorkCharsetBits'
p7163
sg4638
S'5'
sg20
S'EUCJP'
p7164
stRp7165
ag3
(g4
g5
(dp7166
g4636
S'WorkCharsetBits'
p7167
sg4638
S'6'
sg20
S'WIN_US_ANSI'
p7168
stRp7169
ag3
(g4
g5
(dp7170
g4636
S'WorkCharsetBits'
p7171
sg4638
S'7'
sg20
S'WIN_US_OEM'
p7172
stRp7173
ag3
(g4
g5
(dp7174
g4636
S'WorkCharsetBits'
p7175
sg4638
S'8'
sg20
S'MACOS_ROMAN'
p7176
stRp7177
ag3
(g4
g5
(dp7178
g4636
S'WorkCharsetBits'
p7179
sg4638
S'9'
sg20
S'ISO8859_15'
p7180
stRp7181
ag3
(g4
g5
(dp7182
g4636
S'WorkCharsetBits'
p7183
sg4638
S'10'
p7184
sg20
S'ISO8859_5'
p7185
stRp7186
ag3
(g4
g5
(dp7187
g4636
S'WorkCharsetBits'
p7188
sg4638
S'11'
p7189
sg20
S'KOI8_R'
p7190
stRp7191
ag3
(g4
g5
(dp7192
g4636
S'WorkCharsetBits'
p7193
sg4638
S'12'
p7194
sg20
S'WIN_CP_1251'
p7195
stRp7196
ag3
(g4
g5
(dp7197
g4636
S'WorkCharsetBits'
p7198
sg4638
S'13'
p7199
sg20
S'UTF_16_LE'
p7200
stRp7201
ag3
(g4
g5
(dp7202
g4636
S'WorkCharsetBits'
p7203
sg4638
S'14'
p7204
sg20
S'UTF_16_BE'
p7205
stRp7206
ag3
(g4
g5
(dp7207
g4636
S'WorkCharsetBits'
p7208
sg4638
S'15'
p7209
sg20
S'UTF_16_LE_BOM'
p7210
stRp7211
ag3
(g4
g5
(dp7212
g4636
S'WorkCharsetBits'
p7213
sg4638
S'16'
p7214
sg20
S'UTF_16_BE_BOM'
p7215
stRp7216
ag3
(g4
g5
(dp7217
g4636
S'WorkCharsetBits'
p7218
sg4638
S'17'
p7219
sg20
S'UTF_16_BOM'
p7220
stRp7221
ag3
(g4
g5
(dp7222
g4636
S'WorkCharsetBits'
p7223
sg4638
S'18'
p7224
sg20
S'UTF_8_BOM'
p7225
stRp7226
ag3
(g4
g5
(dp7227
g4636
S'WorkCharsetBits'
p7228
sg4638
S'19'
p7229
sg20
S'UTF_32'
p7230
stRp7231
ag3
(g4
g5
(dp7232
g4636
S'WorkCharsetBits'
p7233
sg4638
S'20'
p7234
sg20
S'UTF_32_LE'
p7235
stRp7236
ag3
(g4
g5
(dp7237
g4636
S'WorkCharsetBits'
p7238
sg4638
S'21'
p7239
sg20
S'UTF_32_BE'
p7240
stRp7241
ag3
(g4
g5
(dp7242
g4636
S'WorkCharsetBits'
p7243
sg4638
S'22'
p7244
sg20
S'UTF_32_LE_BOM'
p7245
stRp7246
ag3
(g4
g5
(dp7247
g4636
S'WorkCharsetBits'
p7248
sg4638
S'23'
p7249
sg20
S'UTF_32_BE_BOM'
p7250
stRp7251
ag3
(g4
g5
(dp7252
g4636
S'WorkCharsetBits'
p7253
sg4638
S'24'
p7254
sg20
S'UTF_32_BOM'
p7255
stRp7256
ag3
(g4
g5
(dp7257
g4636
S'WorkCharsetBits'
p7258
sg4638
S'25'
p7259
sg20
S'UTF_8_UNCHECKED'
p7260
stRp7261
ag3
(g4
g5
(dp7262
g4636
S'WorkCharsetBits'
p7263
sg4638
S'26'
p7264
sg20
S'UTF_8_UNCHECKED_BOM'
p7265
stRp7266
ag3
(g4
g5
(dp7267
g4636
S'WorkCharsetBits'
p7268
sg4638
S'27'
p7269
sg20
S'CP949'
p7270
stRp7271
ag3
(g4
g5
(dp7272
g4636
S'WorkCharsetBits'
p7273
sg4638
S'28'
p7274
sg20
S'CP936'
p7275
stRp7276
ag3
(g4
g5
(dp7277
g4636
S'WorkCharsetBits'
p7278
sg4638
S'29'
p7279
sg20
S'CP950'
p7280
stRp7281
ag3
(g4
g5
(dp7282
g4636
S'WorkCharsetBits'
p7283
sg4638
S'30'
p7284
sg20
S'CP850'
p7285
stRp7286
ag3
(g4
g5
(dp7287
g4636
S'WorkCharsetBits'
p7288
sg4638
S'31'
p7289
sg20
S'CP858'
p7290
stRp7291
atRp7292
sg15
S'WorkStatus'
p7293
sg4636
g3
(g8
g9
(lp7294
g3
(g4
g5
(dp7295
g15
S'WorkStatusBits'
p7296
sg4638
S'0x00FFFFFF'
p7297
sg20
S'Working table status flags, WorkStatus Flags defined below'
p7298
stRp7299
ag3
(g4
g5
(dp7300
g15
S'WorkCharsetBits'
p7301
sg4638
S'0x7F000000'
p7302
sg20
S'Bits used to store working charset (high 8 bits). Values below have been shifted right 24 bits'
p7303
stRp7304
atRp7305
sg4711
S'Working table charset and status'
p7306
sg17
S'bitmask'
p7307
sg20
S'Working State Flags and Charset'
p7308
stRp7309
atRp7310
stRp7311
s.