(dp1
S'tables'
p2
ccopy_reg
_reconstructor
p3
(clib.sqUtils
Storage
p4
c__builtin__
dict
p5
(dp6
S'table'
p7
g3
(clib.sqUtils
Lst
p8
c__builtin__
list
p9
(lp10
g3
(g4
g5
(dp11
S'version'
p12
S'1'
sS'keying'
p13
S'serverName, name'
p14
sS'name'
p15
S'db.config'
p16
sS'type'
p17
S'Config'
p18
sS'lockseq'
p19
S'1'
sS'desc'
p20
S'Perforce server configurations table'
p21
stRp22
ag3
(g4
g5
(dp23
g12
S'1'
sg13
S'name'
p24
sg15
S'db.counters'
p25
sg17
S'Counters'
p26
sg19
S'2'
sg20
S'Perforce counters table'
p27
stRp28
ag3
(g4
g5
(dp29
g12
S'1'
sg13
S'seq'
p30
sg15
S'db.logger'
p31
sg17
S'Logger'
p32
sg19
S'3'
sg20
S"Support for 'p4 logger' command. Logs any changes to \n\t\tchangelists and jobs"
p33
stRp34
ag3
(g4
g5
(dp35
g12
S'4'
sg13
S'user'
p36
sg15
S'db.user'
p37
sg17
S'User'
p38
sg19
S'4'
sg20
S'Lists users known to Perforce'
p39
stRp40
ag3
(g4
g5
(dp41
g12
S'8'
sg13
S'user, group'
p42
sg15
S'db.group'
p43
sg17
S'Group'
p44
sg19
S'5'
sg20
S'Lists groups known to Perforce'
p45
stRp46
ag3
(g4
g5
(dp47
g12
S'1'
sg13
S'name'
p48
sg15
S'db.depot'
p49
sg17
S'Depot'
p50
sg19
S'6'
sg20
S'Lists depots known to Perforce'
p51
stRp52
ag3
(g4
g5
(dp53
g12
S'5'
sg13
S'name'
p54
sg15
S'db.domain'
p55
sg17
S'Domain'
p56
sg19
S'8'
sg20
S'Domains: depots, clients, labels, branches and typemap'
p57
stRp58
ag3
(g4
g5
(dp59
g12
S'1'
sg13
S'name, seq'
p60
sg15
S'db.view'
p61
sg17
S'View'
p62
sg19
S'10'
p63
sg20
S'Contains views for domains'
p64
stRp65
ag3
(g4
g5
(dp66
g12
S'1'
sg13
S'user, seq'
p67
sg15
S'db.review'
p68
sg17
S'Review'
p69
sg19
S'11'
p70
sg20
S"Contains user's review mappings"
p71
stRp72
ag3
(g4
g5
(dp73
g12
S'0'
sg13
S'toFile, fromFile, startFromRev'
p74
sg15
S'db.integ'
p75
sg20
S'Integration records: obsolete since 2001.1'
p76
sg17
S'Integ'
p77
sg19
S'12'
p78
sS'seeAlso'
p79
g3
(g8
g9
(lp80
S'db.integed'
p81
aS'db.resolve'
p82
atRp83
stRp84
ag3
(g4
g5
(dp85
g12
S'0'
sg13
S'toFile, fromFile, startFromRev, endFromRev, \n\t\tstartToRev, endToRev'
p86
sg15
S'db.integed'
p87
sg20
S'Permanent integration records'
p88
sg17
S'Integed'
p89
sg19
S'13'
p90
sg79
S'db.resolve'
p91
stRp92
ag3
(g4
g5
(dp93
g12
S'0'
sg13
S'toFile, fromFile, startFromRev'
p94
sg15
S'db.resolve'
p95
sg20
S'Pending integration records'
p96
sg17
S'Resolve'
p97
sg19
S'14'
p98
sg79
S'db.integed'
p99
stRp100
ag3
(g4
g5
(dp101
g12
S'0'
sg13
S'toFile, fromFile, startFromRev'
p102
sg15
S'db.resolvex'
p103
sg20
S'Pending integration records'
p104
sg17
S'Resolve'
p105
sg19
S'15'
p106
sg79
S'db.integed'
p107
stRp108
ag3
(g4
g5
(dp109
g12
S'2'
sg13
S'clientFile'
p110
sg15
S'db.have'
p111
sg17
S'Have'
p112
sg19
S'16'
p113
sg20
S"Contains the 'have-list' for all clients"
p114
stRp115
ag3
(g4
g5
(dp116
g12
S'0'
sg13
S'name, depotFile'
p117
sg15
S'db.label'
p118
sg17
S'Label'
p119
sg19
S'17'
p120
sg20
S'Lists the revisions of files in labels.'
p121
stRp122
ag3
(g4
g5
(dp123
g12
S'2'
sg13
S'depotFile, client'
p124
sg15
S'db.locks'
p125
sg17
S'Locks'
p126
sg19
S'18'
p127
sg20
S'Locked/Unlocked files'
p128
stRp129
ag3
(g4
g5
(dp130
S'note'
p131
S'Obsoleted in 2006.2.'
p132
sg12
S'1'
sg13
S'lbrFile, lbrRev, depotFile, depotRev'
p133
sg20
S'Archive information for each revision that is lazy-copied: obsolete since 2006.2'
p134
sg17
S'Archive'
p135
sg19
S'19'
p136
sg15
S'db.archive'
p137
stRp138
ag3
(g4
g5
(dp139
g131
S'Supercedes db.archive'
p140
sg12
S'0'
sg13
S'lbrFile, depotFile'
p141
sg20
S'Mappings entries for lazy-copies.'
p142
sg17
S'ArchMap'
p143
sg19
S'20'
p144
sg15
S'db.archmap'
p145
stRp146
ag3
(g4
g5
(dp147
g12
S'9'
sg13
S'depotFile, depotRev'
p148
sg15
S'db.rev'
p149
sg17
S'Rev'
p150
sg19
S'21'
p151
sg20
S'Revision records'
p152
stRp153
ag3
(g4
g5
(dp154
g12
S'0'
sg13
S'change, depotFile'
p155
sg15
S'db.revcx'
p156
sg17
S'RevCx'
p157
sg19
S'22'
p158
sg20
S'Secondary index of db.rev'
p159
stRp160
ag3
(g4
g5
(dp161
g12
S'9'
sg13
S'depotFile'
p162
sg15
S'db.revdx'
p163
sg17
S'Rev'
p164
sg19
S'23'
p165
sg20
S'Revision records for revisions deleted at the head revision.'
p166
stRp167
ag3
(g4
g5
(dp168
g12
S'9'
sg13
S'depotFile'
p169
sg15
S'db.revhx'
p170
sg17
S'Rev'
p171
sg19
S'24'
p172
sg20
S'Revision records for revisions NOT deleted at the head revision.'
p173
stRp174
ag3
(g4
g5
(dp175
g131
S'Only populated during content trigger execution to allow \n\t\ttriggers access to the revisions being submitted.'
p176
sg12
S'9'
sg13
S'depotFile, depotRev'
p177
sg20
S'Pending revision records.'
p178
sg17
S'Rev'
p179
sg19
S'25'
p180
sg15
S'db.revpx'
p181
stRp182
ag3
(g4
g5
(dp183
g12
S'9'
sg13
S'depotFile, depotRev'
p184
sg15
S'db.revsx'
p185
sg17
S'Rev'
p186
sg19
S'26'
p187
sg20
S'Revision records for spec depot files.'
p188
stRp189
ag3
(g4
g5
(dp190
g12
S'9'
sg13
S'depotFile, depotRev, type, action, change'
p191
sg15
S'db.revsh'
p192
sg17
S'Rev'
p193
sg19
S'27'
p194
sg20
S'Revision records for shelved files.'
p195
stRp196
ag3
(g4
g5
(dp197
g12
S'9'
sg13
S'depotFile, depotRev'
p198
sg15
S'db.revbx'
p199
sg17
S'Rev'
p200
sg19
S'28'
p201
sg20
S'Revision records for archived files.'
p202
stRp203
ag3
(g4
g5
(dp204
g12
S'9'
sg13
S'clientFile'
p205
sg15
S'db.working'
p206
sg17
S'Working'
p207
sg19
S'29'
p208
sg20
S'Records for work in progress'
p209
stRp210
ag3
(g4
g5
(dp211
g12
S'9'
sg13
S'clientFile'
p212
sg15
S'db.workingx'
p213
sg17
S'Working'
p214
sg19
S'30'
p215
sg20
S'Records for shelved open files'
p216
stRp217
ag3
(g4
g5
(dp218
g12
S'0'
sg13
S'traitLot, name'
p219
sg15
S'db.traits'
p220
sg17
S'Trait'
p221
sg19
S'31'
p222
sg20
S'Attributes associated with file revisions'
p223
stRp224
ag3
(g4
g5
(dp225
g12
S'2'
sg13
S'seq'
p226
sg15
S'db.trigger'
p227
sg17
S'Trigger'
p228
sg19
S'32'
p229
sg20
S'Trigger specifications'
p230
stRp231
ag3
(g4
g5
(dp232
g12
S'2'
sg13
S'change'
p233
sg15
S'db.change'
p234
sg17
S'Change'
p235
sg19
S'33'
p236
sg20
S'Changelists'
p237
stRp238
ag3
(g4
g5
(dp239
g131
S'contains records for pending changelists only.'
p240
sg12
S'2'
sg13
S'change'
p241
sg20
S'Subset of db.change'
p242
sg17
S'Change'
p243
sg19
S'34'
p244
sg15
S'db.changex'
p245
stRp246
ag3
(g4
g5
(dp247
g12
S'0'
sg13
S'descKey'
p248
sg15
S'db.desc'
p249
sg17
S'Desc'
p250
sg19
S'35'
p251
sg20
S'Change descriptions'
p252
stRp253
ag3
(g4
g5
(dp254
g12
S'0'
sg13
S'job'
p255
sg15
S'db.job'
p256
sg20
S'Job records'
p257
sg17
S'Job'
p258
sg19
S'36'
p259
sg79
S'db.bodtext'
p260
stRp261
ag3
(g4
g5
(dp262
g12
S'0'
sg13
S'user, job'
p263
sg15
S'db.jobpend'
p264
sg20
S'Obsolete in 98.2'
p265
sg17
S'String'
p266
sg19
S'37'
p267
sg79
S'db.bodtext'
p268
stRp269
ag3
(g4
g5
(dp270
g12
S'0'
sg13
S'job'
p271
sg15
S'db.jobdesc'
p272
sg20
S'Obsolete in 98.2'
p273
sg17
S'JobDesc'
p274
sg19
S'38'
p275
sg79
S'db.bodtext'
p276
stRp277
ag3
(g4
g5
(dp278
g12
S'1'
sg13
S'job, change'
p279
sg15
S'db.fix'
p280
sg20
S'Fix records - indexed by job'
p281
sg17
S'Fix'
p282
sg19
S'39'
p283
sg79
S'db.fixrev'
p284
stRp285
ag3
(g4
g5
(dp286
g12
S'1'
sg13
S'change, job'
p287
sg15
S'db.fixrev'
p288
sg20
S'Fix records - indexed by change'
p289
sg17
S'Fix'
p290
sg19
S'40'
p291
sg79
S'db.fix'
p292
stRp293
ag3
(g4
g5
(dp294
g131
S'Obsoleted in 2009.2'
p295
sg12
S'0'
sg13
S'key, attr'
p296
sg20
S'Job data for date-valued attributes: obsolete since 2009.2'
p297
sg17
S'BodyDate'
p298
sg19
S'41'
p299
sg15
S'db.boddate'
p300
stRp301
ag3
(g4
g5
(dp302
g12
S'1'
sg13
S'key, attr'
p303
sg15
S'db.bodtext'
p304
sg17
S'BodyText'
p305
sg19
S'42'
p306
sg20
S'Job data for job attributes.'
p307
stRp308
ag3
(g4
g5
(dp309
g13
S'date, attr, value'
p310
sg15
S'db.ixdate'
p311
sg131
S'Obsoleted in 2009.2'
p312
sg12
S'0'
sg20
S'Indexing data for date-valued job attributes'
p313
sg17
S'IndexDate'
p314
sg19
S'43'
p315
sg79
S'db.ixtext'
p316
stRp317
ag3
(g4
g5
(dp318
g12
S'0'
sg13
S'word, attr, value'
p319
sg15
S'db.ixtext'
p320
sg17
S'IndexText'
p321
sg19
S'44'
p322
sg20
S'Indexing data for job attributes.'
p323
stRp324
ag3
(g4
g5
(dp325
g12
S'4'
sg13
S'seq'
p326
sg15
S'db.protect'
p327
sg17
S'Protect'
p328
sg19
S'45'
p329
sg20
S'The protections table'
p330
stRp331
ag3
(g4
g5
(dp332
g12
S'0'
sg13
S'language, id'
p333
sg15
S'db.message'
p334
sg17
S'Message'
p335
sg19
S'46'
p336
sg20
S'System messages'
p337
stRp338
ag3
(g4
g5
(dp339
g12
S'1'
sg13
S'id'
p340
sg15
S'db.monitor'
p341
sg17
S'Monitor'
p342
sg19
S'47'
p343
sg20
S'System messages'
p344
stRp345
atRp346
stRp347
sg12
S'2010.2'
p348
sS'numUpgrades'
p349
S'22'
p350
sS'recordtypes'
p351
g3
(g4
g5
(dp352
S'record'
p353
g3
(g8
g9
(lp354
g3
(g4
g5
(dp355
S'column'
p356
g3
(g8
g9
(lp357
g3
(g4
g5
(dp358
g17
S'File'
p359
sg15
S'lbrFile'
p360
sg20
S"Specifies the location in the librarian's archives where\n\t\t    the revision may be found"
p361
stRp362
ag3
(g4
g5
(dp363
g17
S'String'
p364
sg15
S'lbrRev'
p365
sg20
S"Revision in the librarian's archives"
p366
stRp367
ag3
(g4
g5
(dp368
g17
S'File'
p369
sg15
S'depotFile'
p370
sg20
S'Name of the file in the depot'
p371
stRp372
ag3
(g4
g5
(dp373
g17
S'Rev'
p374
sg15
S'depotRev'
p375
sg20
S'Name of the file in the depot'
p376
stRp377
ag3
(g4
g5
(dp378
g17
S'FileType'
p379
sg15
S'lbrType'
p380
sg20
S"File type for librarian's purposes"
p381
stRp382
atRp383
sg15
S'Archive'
p384
stRp385
ag3
(g4
g5
(dp386
g356
g3
(g8
g9
(lp387
g3
(g4
g5
(dp388
g17
S'File'
p389
sg15
S'lbrFile'
p390
sg20
S'Paths in the librarian namespace that recieve lazy\n\t\t    copies.'
p391
stRp392
ag3
(g4
g5
(dp393
g17
S'File'
p394
sg15
S'depotFile'
p395
sg20
S'Paths in the depot namespace that provide lazy copies.'
p396
stRp397
atRp398
sg15
S'ArchMap'
p399
stRp400
ag3
(g4
g5
(dp401
g356
g3
(g8
g9
(lp402
g3
(g4
g5
(dp403
g17
S'String'
p404
sg15
S'key'
p405
sg20
S'The job to which this attribute belongs'
p406
stRp407
ag3
(g4
g5
(dp408
g17
S'Int'
p409
sg15
S'attr'
p410
sg20
S'The attribute number (from the jobspec) of this attribute'
p411
stRp412
ag3
(g4
g5
(dp413
g17
S'Date'
p414
sg15
S'date'
p415
sg20
S'The date value itself'
p416
stRp417
atRp418
sg15
S'BodyDate'
p419
stRp420
ag3
(g4
g5
(dp421
g356
g3
(g8
g9
(lp422
g3
(g4
g5
(dp423
g17
S'String'
p424
sg15
S'key'
p425
sg20
S'The job to which this attribute belongs'
p426
stRp427
ag3
(g4
g5
(dp428
g17
S'Int'
p429
sg15
S'attr'
p430
sg20
S'The attribute number (from the jobspec) of this attribute'
p431
stRp432
ag3
(g4
g5
(dp433
g17
S'Int'
p434
sg15
S'isBulk'
p435
sg20
S'Indicates whether (1), or not (0) the field is a bulk\n\t\t    text field that should not be indexed.'
p436
stRp437
ag3
(g4
g5
(dp438
g17
S'Text'
p439
sg15
S'text'
p440
sg20
S'The attribute value'
p441
stRp442
atRp443
sg15
S'BodyText'
p444
stRp445
ag3
(g4
g5
(dp446
g356
g3
(g8
g9
(lp447
g3
(g4
g5
(dp448
g17
S'Change'
p449
sg15
S'change'
p450
sg20
S'The change number'
p451
stRp452
ag3
(g4
g5
(dp453
g17
S'Change'
p454
sg15
S'descKey'
p455
sg20
S"The description key. Normally the same as 'change', but\n\t\t    may differ if a changelist was renumbered on submission."
p456
stRp457
ag3
(g4
g5
(dp458
g17
S'Domain'
p459
sg15
S'client'
p460
sg20
S'The client from which the change originates'
p461
stRp462
ag3
(g4
g5
(dp463
g17
S'User'
p464
sg15
S'user'
p465
sg20
S'The user who owns the change'
p466
stRp467
ag3
(g4
g5
(dp468
g17
S'Date'
p469
sg15
S'date'
p470
sg20
S'Date and time the changelist was submitted'
p471
stRp472
ag3
(g4
g5
(dp473
g17
S'ChangeStatus'
p474
sg15
S'status'
p475
sg20
S'Status of the change'
p476
stRp477
ag3
(g4
g5
(dp478
g17
S'DescShort'
p479
sg15
S'description'
p480
sg20
S'Short description of the change.'
p481
stRp482
ag3
(g4
g5
(dp483
g17
S'Mapping'
p484
sg15
S'root'
p485
sg20
S'Common path for all files in the changelist'
p486
stRp487
atRp488
sg15
S'Change'
p489
stRp490
ag3
(g4
g5
(dp491
g356
g3
(g8
g9
(lp492
g3
(g4
g5
(dp493
g17
S'String'
p494
sg15
S'serverName'
p495
sg20
S'Server name'
p496
stRp497
ag3
(g4
g5
(dp498
g17
S'String'
p499
sg15
S'name'
p500
sg20
S'Configuration variable name'
p501
stRp502
ag3
(g4
g5
(dp503
g17
S'Value'
p504
sg15
S'value'
p505
sg20
S'Configuration variable value'
p506
stRp507
atRp508
sg15
S'Config'
p509
stRp510
ag3
(g4
g5
(dp511
g356
g3
(g8
g9
(lp512
g3
(g4
g5
(dp513
g17
S'Counter'
p514
sg15
S'name'
p515
sg20
S'Counter name'
p516
stRp517
ag3
(g4
g5
(dp518
g17
S'Value'
p519
sg15
S'value'
p520
sg20
S'Counter value'
p521
stRp522
atRp523
sg15
S'Counters'
p524
stRp525
ag3
(g4
g5
(dp526
g356
g3
(g8
g9
(lp527
g3
(g4
g5
(dp528
g17
S'Domain'
p529
sg15
S'name'
p530
sg20
S'Depot name'
p531
stRp532
ag3
(g4
g5
(dp533
g17
S'DepotType'
p534
sg15
S'type'
p535
sg20
S'Type of depot'
p536
stRp537
ag3
(g4
g5
(dp538
g17
S'Text'
p539
sg15
S'extra'
p540
sg20
S'For remote depots, the P4PORT address of the remote server.\n\t\t    For spec depots, the field contains a suffix to append to \n\t\t    the filename.'
p541
stRp542
ag3
(g4
g5
(dp543
g17
S'Text'
p544
sg15
S'map'
p545
sg20
S"The depot's map (path translation information).  For local \n\t\t    depots, this will be a path relative to the root directory.\n\t\t    For remote depots, this will be specified in terms of the \n\t\t    remote server's namespace."
p546
stRp547
atRp548
sg15
S'Depot'
p549
stRp550
ag3
(g4
g5
(dp551
g356
g3
(g8
g9
(lp552
g3
(g4
g5
(dp553
g17
S'Change'
p554
sg15
S'descKey'
p555
sg20
S'Original number of the change to which this description\n\t\t    applies. This may differ from the final change number if\n\t\t    the change is renumbered on submission.'
p556
stRp557
ag3
(g4
g5
(dp558
g17
S'Text'
p559
sg15
S'description'
p560
sg20
S'The change description itself'
p561
stRp562
atRp563
sg15
S'Desc'
p564
stRp565
ag3
(g4
g5
(dp566
g356
g3
(g8
g9
(lp567
g3
(g4
g5
(dp568
g17
S'Domain'
p569
sg15
S'name'
p570
sg20
S'Domain name'
p571
stRp572
ag3
(g4
g5
(dp573
g17
S'DomainType'
p574
sg15
S'type'
p575
sg20
S'Type of domain'
p576
stRp577
ag3
(g4
g5
(dp578
g17
S'Text'
p579
sg15
S'extra'
p580
sg20
S'Formerly "host". Associated host or, for labels, revision \n\t\t    number.'
p581
stRp582
ag3
(g4
g5
(dp583
g17
S'Text'
p584
sg15
S'mount'
p585
sg20
S'The client root'
p586
stRp587
ag3
(g4
g5
(dp588
g17
S'Text'
p589
sg15
S'mount2'
p590
sg20
S'Alternate client root'
p591
stRp592
ag3
(g4
g5
(dp593
g17
S'Text'
p594
sg15
S'mount3'
p595
sg20
S'Alternate client root'
p596
stRp597
ag3
(g4
g5
(dp598
g17
S'User'
p599
sg15
S'owner'
p600
sg20
S'Name of user who owns the domain.'
p601
stRp602
ag3
(g4
g5
(dp603
g17
S'Date'
p604
sg15
S'updateDate'
p605
sg20
S'Date of last update to domain specification.'
p606
stRp607
ag3
(g4
g5
(dp608
g17
S'Date'
p609
sg15
S'accessDate'
p610
sg20
S'Date of last access to domain specification.'
p611
stRp612
ag3
(g4
g5
(dp613
g17
S'DomainOpts'
p614
sg15
S'options'
p615
sg20
S'Options for client, label, and branch domains.'
p616
stRp617
ag3
(g4
g5
(dp618
g17
S'Text'
p619
sg15
S'description'
p620
sg20
S'Description of domain.'
p621
stRp622
atRp623
sg15
S'Domain'
p624
stRp625
ag3
(g4
g5
(dp626
g356
g3
(g8
g9
(lp627
g3
(g4
g5
(dp628
g17
S'String'
p629
sg15
S'job'
p630
sg20
S'Job name'
p631
stRp632
ag3
(g4
g5
(dp633
g17
S'Change'
p634
sg15
S'change'
p635
sg20
S'Changelist number'
p636
stRp637
ag3
(g4
g5
(dp638
g17
S'Date'
p639
sg15
S'date'
p640
sg20
S'Date fix was recorded (may differ from date change was\n\t\t    submitted).'
p641
stRp642
ag3
(g4
g5
(dp643
g17
S'FixStatus'
p644
sg15
S'status'
p645
sg20
S'Status of the job'
p646
stRp647
ag3
(g4
g5
(dp648
g17
S'Domain'
p649
sg15
S'client'
p650
sg20
S'The client where the fix originated'
p651
stRp652
ag3
(g4
g5
(dp653
g17
S'User'
p654
sg15
S'user'
p655
sg20
S'The user who fixed the job'
p656
stRp657
atRp658
sg15
S'Fix'
p659
stRp660
ag3
(g4
g5
(dp661
g356
g3
(g8
g9
(lp662
g3
(g4
g5
(dp663
g17
S'User'
p664
sg15
S'user'
p665
sg20
S'User name'
p666
stRp667
ag3
(g4
g5
(dp668
g17
S'User'
p669
sg15
S'group'
p670
sg20
S'Group name'
p671
stRp672
ag3
(g4
g5
(dp673
g17
S'UserType'
p674
sg15
S'type'
p675
sg20
S'Type of user in this group.'
p676
stRp677
ag3
(g4
g5
(dp678
g17
S'MaxResults'
p679
sg15
S'maxResults'
p680
sg20
S'MaxResults setting for the group.'
p681
stRp682
ag3
(g4
g5
(dp683
g17
S'MaxScanRows'
p684
sg15
S'maxScanRows'
p685
sg20
S'MaxScanRows setting for the group.'
p686
stRp687
ag3
(g4
g5
(dp688
g17
S'MaxLockTime'
p689
sg15
S'maxLockTime'
p690
sg20
S'MaxLockTime setting for the group.'
p691
stRp692
ag3
(g4
g5
(dp693
g17
S'Int'
p694
sg15
S'timeout'
p695
sg20
S'Length of time (in seconds) a login ticket remains valid.'
p696
stRp697
ag3
(g4
g5
(dp698
g17
S'Int'
p699
sg15
S'passwordTimeout'
p700
sg20
S'Length of time (in seconds) a password remains valid for users in the group.'
p701
stRp702
atRp703
sg15
S'Group'
p704
stRp705
ag3
(g4
g5
(dp706
g356
g3
(g8
g9
(lp707
g3
(g4
g5
(dp708
g17
S'File'
p709
sg15
S'clientFile'
p710
sg20
S'The file in its location on the client'
p711
stRp712
ag3
(g4
g5
(dp713
g17
S'File'
p714
sg15
S'depotFile'
p715
sg20
S'The file in the depot'
p716
stRp717
ag3
(g4
g5
(dp718
g17
S'Rev'
p719
sg15
S'haveRev'
p720
sg20
S'The revision synced to the client'
p721
stRp722
ag3
(g4
g5
(dp723
g17
S'FileType'
p724
sg15
S'type'
p725
sg20
S'The filetype of the synced revision'
p726
stRp727
atRp728
sg15
S'Have'
p729
stRp730
ag3
(g4
g5
(dp731
g356
g3
(g8
g9
(lp732
g3
(g4
g5
(dp733
g17
S'Date'
p734
sg15
S'date'
p735
sg20
S'Date value'
p736
stRp737
ag3
(g4
g5
(dp738
g17
S'Int'
p739
sg15
S'attr'
p740
sg20
S'The attribute number (from the jobspec) to which this\n\t\t    date belongs'
p741
stRp742
ag3
(g4
g5
(dp743
g17
S'String'
p744
sg15
S'value'
p745
sg20
S'A job name'
p746
stRp747
atRp748
sg15
S'IndexDate'
p749
stRp750
ag3
(g4
g5
(dp751
g356
g3
(g8
g9
(lp752
g3
(g4
g5
(dp753
g17
S'String'
p754
sg15
S'word'
p755
sg20
S'The word being indexed'
p756
stRp757
ag3
(g4
g5
(dp758
g17
S'Int'
p759
sg15
S'attr'
p760
sg20
S'The attribute number (from the jobspec) to which this\n\t\t    word belongs'
p761
stRp762
ag3
(g4
g5
(dp763
g17
S'String'
p764
sg15
S'value'
p765
sg20
S'A job name'
p766
stRp767
atRp768
sg15
S'IndexText'
p769
stRp770
ag3
(g4
g5
(dp771
g356
g3
(g8
g9
(lp772
g3
(g4
g5
(dp773
g17
S'File'
p774
sg15
S'toFile'
p775
sg20
S'File to which integration is being performed (target).'
p776
stRp777
ag3
(g4
g5
(dp778
g17
S'File'
p779
sg15
S'fromFile'
p780
sg20
S'File from which integration is being performed (source).'
p781
stRp782
ag3
(g4
g5
(dp783
g17
S'Rev'
p784
sg15
S'startFromRev'
p785
sg20
S'Starting revision of fromFile'
p786
stRp787
ag3
(g4
g5
(dp788
g17
S'Rev'
p789
sg15
S'endFromRev'
p790
sg20
S'Ending revision of fromFile. If integrating from a single \n\t\t    revision (not a revision range), the startFromRev and \n\t\t    endFromRev fields will be identical.'
p791
stRp792
ag3
(g4
g5
(dp793
g17
S'Rev'
p794
sg15
S'toRev'
p795
sg20
S'Revision of toFile into which integration is being \n\t\t    performed.'
p796
stRp797
ag3
(g4
g5
(dp798
g17
S'IntegHow'
p799
sg15
S'how'
p800
sg20
S'Integration method: variations on \n\t\t    merge/branch/copy/ignore/delete.'
p801
stRp802
ag3
(g4
g5
(dp803
g17
S'Int'
p804
sg15
S'committed'
p805
sg20
S'Flag: 0 for pending, 1 for committed.'
p806
stRp807
ag3
(g4
g5
(dp808
g17
S'ResolvedStatus'
p809
sg15
S'resolved'
p810
sg20
S'Resolution method: unresolved, resolved manually, \n\t\t    or resolved as part of a branch or delete.'
p811
stRp812
ag3
(g4
g5
(dp813
g17
S'Change'
p814
sg15
S'change'
p815
sg20
S'Changelist associated with the integration.'
p816
stRp817
atRp818
sg15
S'Integ'
p819
stRp820
ag3
(g4
g5
(dp821
g356
g3
(g8
g9
(lp822
g3
(g4
g5
(dp823
g17
S'File'
p824
sg15
S'toFile'
p825
sg20
S'File to which integration is being performed (target).'
p826
stRp827
ag3
(g4
g5
(dp828
g17
S'File'
p829
sg15
S'fromFile'
p830
sg20
S'File from which integration is being performed (source).'
p831
stRp832
ag3
(g4
g5
(dp833
g17
S'Rev'
p834
sg15
S'startFromRev'
p835
sg20
S'Starting revision of fromFile'
p836
stRp837
ag3
(g4
g5
(dp838
g17
S'Rev'
p839
sg15
S'endFromRev'
p840
sg20
S'Ending revision of fromFile. If integrating from a single \n\t\t    revision (not a revision range), the startFromRev and \n\t\t    endFromRev fields will be identical.'
p841
stRp842
ag3
(g4
g5
(dp843
g17
S'Rev'
p844
sg15
S'startToRev'
p845
sg20
S'Start revision of toFile into which integration was \n\t\t    performed.'
p846
stRp847
ag3
(g4
g5
(dp848
g17
S'Rev'
p849
sg15
S'endToRev'
p850
sg20
S'End revision of toFile into which integration was \n\t\t    performed. Only varies from startToRev for reverse \n\t\t    integration records.'
p851
stRp852
ag3
(g4
g5
(dp853
g17
S'IntegHow'
p854
sg15
S'how'
p855
sg20
S'Integration method: variations on \n\t\t    merge/branch/copy/ignore/delete.'
p856
stRp857
ag3
(g4
g5
(dp858
g17
S'Change'
p859
sg15
S'change'
p860
sg20
S'Changelist associated with the integration.'
p861
stRp862
atRp863
sg15
S'Integed'
p864
stRp865
ag3
(g4
g5
(dp866
g356
g3
(g8
g9
(lp867
g3
(g4
g5
(dp868
g17
S'String'
p869
sg15
S'job'
p870
sg20
S'The job name'
p871
stRp872
ag3
(g4
g5
(dp873
g17
S'User'
p874
sg15
S'xuser'
p875
sg20
S'User name: defunct'
p876
stRp877
ag3
(g4
g5
(dp878
g17
S'Date'
p879
sg15
S'xdate'
p880
sg20
S'The date: defunct'
p881
stRp882
ag3
(g4
g5
(dp883
g17
S'JobStat'
p884
sg15
S'xstatus'
p885
sg20
S'Job status: defunct'
p886
stRp887
ag3
(g4
g5
(dp888
g17
S'DescShort'
p889
sg15
S'description'
p890
sg20
S'Short description'
p891
stRp892
atRp893
sg15
S'Job'
p894
stRp895
ag3
(g4
g5
(dp896
g356
g3
(g8
g9
(lp897
g3
(g4
g5
(dp898
g17
S'String'
p899
sg15
S'xjob'
p900
sg20
S'The job name'
p901
stRp902
ag3
(g4
g5
(dp903
g17
S'Text'
p904
sg15
S'xdescription'
p905
sg20
S'Jobdescription'
p906
stRp907
atRp908
sg15
S'JobDesc'
p909
stRp910
ag3
(g4
g5
(dp911
g356
g3
(g8
g9
(lp912
g3
(g4
g5
(dp913
g17
S'Domain'
p914
sg15
S'name'
p915
sg20
S'Name of the label'
p916
stRp917
ag3
(g4
g5
(dp918
g17
S'File'
p919
sg15
S'depotFile'
p920
sg20
S'File name'
p921
stRp922
ag3
(g4
g5
(dp923
g17
S'Rev'
p924
sg15
S'haveRev'
p925
sg20
S'The revision of the file in the label'
p926
stRp927
atRp928
sg15
S'Label'
p929
stRp930
ag3
(g4
g5
(dp931
g356
g3
(g8
g9
(lp932
g3
(g4
g5
(dp933
g17
S'File'
p934
sg15
S'depotFile'
p935
sg20
S'File in depot'
p936
stRp937
ag3
(g4
g5
(dp938
g17
S'Domain'
p939
sg15
S'client'
p940
sg20
S'Domain (client) in which file is open'
p941
stRp942
ag3
(g4
g5
(dp943
g17
S'User'
p944
sg15
S'user'
p945
sg20
S'User who presently has the file open'
p946
stRp947
ag3
(g4
g5
(dp948
g17
S'Action'
p949
sg15
S'action'
p950
sg20
S'Action file is open for: add, edit, delete, branch,\n\t\t    integrate, or import'
p951
stRp952
ag3
(g4
g5
(dp953
g17
S'Int'
p954
sg15
S'isLocked'
p955
sg20
S'Flag: 0 for unlocked, 1 for locked'
p956
stRp957
ag3
(g4
g5
(dp958
g17
S'Int'
p959
sg15
S'change'
p960
sg20
S'Changelist in which the revision is open: 0 for the\n\t\t    default changelist'
p961
stRp962
atRp963
sg15
S'Locks'
p964
stRp965
ag3
(g4
g5
(dp966
g356
g3
(g8
g9
(lp967
g3
(g4
g5
(dp968
g17
S'Int'
p969
sg15
S'seq'
p970
sg20
S'Sequence number of event'
p971
stRp972
ag3
(g4
g5
(dp973
g17
S'String'
p974
sg15
S'key'
p975
sg20
S"Either the word 'change' or the word 'job'"
p976
stRp977
ag3
(g4
g5
(dp978
g17
S'String'
p979
sg15
S'attr'
p980
sg20
S'The number of the change, or name of the job that was \n\t\t    altered.'
p981
stRp982
atRp983
sg15
S'Logger'
p984
stRp985
ag3
(g4
g5
(dp986
g356
g3
(g8
g9
(lp987
g3
(g4
g5
(dp988
g17
S'String'
p989
sg15
S'language'
p990
sg20
S'The language for which this message applies'
p991
stRp992
ag3
(g4
g5
(dp993
g17
S'Int'
p994
sg15
S'id'
p995
sg20
S'The message number'
p996
stRp997
ag3
(g4
g5
(dp998
g17
S'String'
p999
sg15
S'message'
p1000
sg20
S'The message text'
p1001
stRp1002
atRp1003
sg15
S'Message'
p1004
stRp1005
ag3
(g4
g5
(dp1006
g356
g3
(g8
g9
(lp1007
g3
(g4
g5
(dp1008
g17
S'Int'
p1009
sg15
S'id'
p1010
sg20
S'Thread/process id'
p1011
stRp1012
ag3
(g4
g5
(dp1013
g17
S'User'
p1014
sg15
S'user'
p1015
sg20
S'Username of the user running the command'
p1016
stRp1017
ag3
(g4
g5
(dp1018
g17
S'String'
p1019
sg15
S'function'
p1020
sg20
S'The command being executed.'
p1021
stRp1022
ag3
(g4
g5
(dp1023
g17
S'String'
p1024
sg15
S'args'
p1025
sg20
S'Arguments passed to the command'
p1026
stRp1027
ag3
(g4
g5
(dp1028
g17
S'Date'
p1029
sg15
S'startDate'
p1030
sg20
S'The date and time the command started'
p1031
stRp1032
ag3
(g4
g5
(dp1033
g17
S'Int'
p1034
sg15
S'runstate'
p1035
sg20
S'Flag: 0 for running, 1 for terminated'
p1036
stRp1037
ag3
(g4
g5
(dp1038
g17
S'Domain'
p1039
sg15
S'client'
p1040
sg20
S'The client workspace'
p1041
stRp1042
ag3
(g4
g5
(dp1043
g17
S'Text'
p1044
sg15
S'host'
p1045
sg20
S'The IP address of the client'
p1046
stRp1047
ag3
(g4
g5
(dp1048
g17
S'Text'
p1049
sg15
S'prog'
p1050
sg20
S'The name (and version) of the client program'
p1051
stRp1052
atRp1053
sg15
S'Monitor'
p1054
stRp1055
ag3
(g4
g5
(dp1056
g356
g3
(g8
g9
(lp1057
g3
(g4
g5
(dp1058
g17
S'Int'
p1059
sg15
S'seq'
p1060
sg20
S'Sequence number: for ordering the protections table'
p1061
stRp1062
ag3
(g4
g5
(dp1063
g17
S'Int'
p1064
sg15
S'isGroup'
p1065
sg20
S'Flag: 0 for a per-user setting, 1 for a per-group setting.'
p1066
stRp1067
ag3
(g4
g5
(dp1068
g17
S'UserWild'
p1069
sg15
S'user'
p1070
sg20
S'User(s), or Group(s) for whom this record applies.'
p1071
stRp1072
ag3
(g4
g5
(dp1073
g17
S'DomainWild'
p1074
sg15
S'host'
p1075
sg20
S'Domain(s) (IP addresses) for which this record applies.'
p1076
stRp1077
ag3
(g4
g5
(dp1078
g17
S'Perm'
p1079
sg15
S'perm'
p1080
sg20
S'Permissions to be granted/revoked'
p1081
stRp1082
ag3
(g4
g5
(dp1083
g17
S'MapFlag'
p1084
sg15
S'mapFlag'
p1085
sg20
S'Flag: Map the files in or out?'
p1086
stRp1087
ag3
(g4
g5
(dp1088
g17
S'Mapping'
p1089
sg15
S'depotFile'
p1090
sg20
S'Files to be mapped in or out.'
p1091
stRp1092
atRp1093
sg15
S'Protect'
p1094
stRp1095
ag3
(g4
g5
(dp1096
g356
g3
(g8
g9
(lp1097
g3
(g4
g5
(dp1098
g17
S'File'
p1099
sg15
S'toFile'
p1100
sg20
S'File to which integration is being performed (target).'
p1101
stRp1102
ag3
(g4
g5
(dp1103
g17
S'File'
p1104
sg15
S'fromFile'
p1105
sg20
S'File from which integration is being performed (source).'
p1106
stRp1107
ag3
(g4
g5
(dp1108
g17
S'Rev'
p1109
sg15
S'startFromRev'
p1110
sg20
S'Starting revision of fromFile'
p1111
stRp1112
ag3
(g4
g5
(dp1113
g17
S'Rev'
p1114
sg15
S'endFromRev'
p1115
sg20
S'Ending revision of fromFile. If integrating from a single \n\t\t    revision (not a revision range), the startFromRev and \n\t\t    endFromRev fields will be identical.'
p1116
stRp1117
ag3
(g4
g5
(dp1118
g17
S'Rev'
p1119
sg15
S'startToRev'
p1120
sg20
S'Start revision of toFile into which integration was \n\t\t    performed.'
p1121
stRp1122
ag3
(g4
g5
(dp1123
g17
S'Rev'
p1124
sg15
S'endToRev'
p1125
sg20
S'End revision of toFile into which integration was \n\t\t    performed. Only varies from startToRev for reverse \n\t\t    integration records.'
p1126
stRp1127
ag3
(g4
g5
(dp1128
g17
S'IntegHow'
p1129
sg15
S'how'
p1130
sg20
S'Integration method: variations on \n\t\t    merge/branch/copy/ignore/delete.'
p1131
stRp1132
ag3
(g4
g5
(dp1133
g17
S'ResolvedStatus'
p1134
sg15
S'resolved'
p1135
sg20
S'How the user performed the resolve.'
p1136
stRp1137
ag3
(g4
g5
(dp1138
g17
S'File'
p1139
sg15
S'baseFile'
p1140
sg20
S'File used as the base for merging.'
p1141
stRp1142
ag3
(g4
g5
(dp1143
g17
S'Rev'
p1144
sg15
S'baseRev'
p1145
sg20
S'Revision of baseFile used as the merge base.'
p1146
stRp1147
atRp1148
sg15
S'Resolve'
p1149
stRp1150
ag3
(g4
g5
(dp1151
g356
g3
(g8
g9
(lp1152
g3
(g4
g5
(dp1153
g17
S'File'
p1154
sg15
S'depotFile'
p1155
sg20
S'The file name'
p1156
stRp1157
ag3
(g4
g5
(dp1158
g17
S'Rev'
p1159
sg15
S'depotRev'
p1160
sg20
S'The revision number'
p1161
stRp1162
ag3
(g4
g5
(dp1163
g17
S'FileType'
p1164
sg15
S'type'
p1165
sg20
S'The file type of the revision'
p1166
stRp1167
ag3
(g4
g5
(dp1168
g17
S'Action'
p1169
sg15
S'action'
p1170
sg20
S'The action that created the revision'
p1171
stRp1172
ag3
(g4
g5
(dp1173
g17
S'Change'
p1174
sg15
S'change'
p1175
sg20
S'The changelist that created the revision'
p1176
stRp1177
ag3
(g4
g5
(dp1178
g17
S'Date'
p1179
sg15
S'date'
p1180
sg20
S'The date/time the changelist that created the revision\n\t\t    was submitted'
p1181
stRp1182
ag3
(g4
g5
(dp1183
g17
S'Date'
p1184
sg15
S'modTime'
p1185
sg20
S"The timestamp on the file in the user's workspace when\n\t\t    the revision was submitted."
p1186
stRp1187
ag3
(g4
g5
(dp1188
g17
S'Digest'
p1189
sg15
S'digest'
p1190
sg20
S'The MD5 digest of the revision.'
p1191
stRp1192
ag3
(g4
g5
(dp1193
g17
S'FileSize'
p1194
sg15
S'size'
p1195
sg20
S'The size of the file in bytes'
p1196
stRp1197
ag3
(g4
g5
(dp1198
g17
S'TraitLot'
p1199
sg15
S'traitLot'
p1200
sg20
S'Group of traits (attributes) associated with the revision.'
p1201
stRp1202
ag3
(g4
g5
(dp1203
g17
S'Int'
p1204
sg15
S'lbrIsLazy'
p1205
sg20
S'Flag specifying whether or not the revision gets its\n\t\t    content from another file (i.e. whether or not depotFile\n\t\t    and lbrFile differ)'
p1206
stRp1207
ag3
(g4
g5
(dp1208
g17
S'File'
p1209
sg15
S'lbrFile'
p1210
sg20
S"Filename for librarian's purposes.  Specifies location in \n\t\t    the archives where the file containing the revision may\n\t\t    be found. Usually the same as depotFile, but differs in\n\t\t    the case of branched/copied revisions."
p1211
stRp1212
ag3
(g4
g5
(dp1213
g17
S'String'
p1214
sg15
S'lbrRev'
p1215
sg20
S'The revision of lbrFile that contains the revision content.'
p1216
stRp1217
ag3
(g4
g5
(dp1218
g17
S'FileType'
p1219
sg15
S'lbrType'
p1220
sg20
S'The file type of the librarian revision. Usually the same\n\t\t    as type, but differs in the case of branched/copied \n\t\t    revisions.'
p1221
stRp1222
atRp1223
sg15
S'Rev'
p1224
stRp1225
ag3
(g4
g5
(dp1226
g356
g3
(g8
g9
(lp1227
g3
(g4
g5
(dp1228
g17
S'Change'
p1229
sg15
S'change'
p1230
sg20
S'The changelist that created the revision'
p1231
stRp1232
ag3
(g4
g5
(dp1233
g17
S'File'
p1234
sg15
S'depotFile'
p1235
sg20
S'The file name'
p1236
stRp1237
ag3
(g4
g5
(dp1238
g17
S'Rev'
p1239
sg15
S'depotRev'
p1240
sg20
S'The revision number'
p1241
stRp1242
ag3
(g4
g5
(dp1243
g17
S'Action'
p1244
sg15
S'action'
p1245
sg20
S'The action that created the revision'
p1246
stRp1247
atRp1248
sg15
S'RevCx'
p1249
stRp1250
ag3
(g4
g5
(dp1251
g356
g3
(g8
g9
(lp1252
g3
(g4
g5
(dp1253
g17
S'User'
p1254
sg15
S'user'
p1255
sg20
S'A user name'
p1256
stRp1257
ag3
(g4
g5
(dp1258
g17
S'Int'
p1259
sg15
S'seq'
p1260
sg20
S'Sequence number: used for ordering multi-line views'
p1261
stRp1262
ag3
(g4
g5
(dp1263
g17
S'MapFlag'
p1264
sg15
S'mapFlag'
p1265
sg20
S'Type of mapping'
p1266
stRp1267
ag3
(g4
g5
(dp1268
g17
S'Mapping'
p1269
sg15
S'depotFile'
p1270
sg20
S'The files to be reviewed'
p1271
stRp1272
ag3
(g4
g5
(dp1273
g17
S'Reviewer'
p1274
sg15
S'type'
p1275
sg20
S'Type of reviewer'
p1276
stRp1277
atRp1278
sg15
S'Review'
p1279
stRp1280
ag3
(g4
g5
(dp1281
g356
g3
(g8
g9
(lp1282
g3
(g4
g5
(dp1283
g17
S'Int'
p1284
sg15
S'traitLot'
p1285
sg20
S'Indicates a specific collection of traits (referred to \n\t\t    externally as "attributes".)'
p1286
stRp1287
ag3
(g4
g5
(dp1288
g17
S'String'
p1289
sg15
S'name'
p1290
sg20
S'Trait (attribute) name'
p1291
stRp1292
ag3
(g4
g5
(dp1293
g17
S'TraitType'
p1294
sg15
S'type'
p1295
sg20
S'Type of trait'
p1296
stRp1297
ag3
(g4
g5
(dp1298
g17
S'Octet String'
p1299
sg15
S'value'
p1300
sg20
S'The value'
p1301
stRp1302
atRp1303
sg15
S'Trait'
p1304
stRp1305
ag3
(g4
g5
(dp1306
g356
g3
(g8
g9
(lp1307
g3
(g4
g5
(dp1308
g17
S'Int'
p1309
sg15
S'seq'
p1310
sg20
S'Sequence number: for ordering the trigger list'
p1311
stRp1312
ag3
(g4
g5
(dp1313
g17
S'String'
p1314
sg15
S'name'
p1315
sg20
S'Name of the trigger'
p1316
stRp1317
ag3
(g4
g5
(dp1318
g17
S'MapFlag'
p1319
sg15
S'mapFlag'
p1320
sg20
S'Type of mapping: specifies whether the trigger applies \n\t\t    to the files or not.'
p1321
stRp1322
ag3
(g4
g5
(dp1323
g17
S'Mapping'
p1324
sg15
S'depotFile'
p1325
sg20
S'The files to apply the trigger to'
p1326
stRp1327
ag3
(g4
g5
(dp1328
g17
S'Trigger'
p1329
sg15
S'trigger'
p1330
sg20
S'Type of trigger'
p1331
stRp1332
ag3
(g4
g5
(dp1333
g17
S'Text'
p1334
sg15
S'action'
p1335
sg20
S'Command to execute when trigger runs'
p1336
stRp1337
atRp1338
sg15
S'Trigger'
p1339
stRp1340
ag3
(g4
g5
(dp1341
g356
g3
(g8
g9
(lp1342
g3
(g4
g5
(dp1343
g17
S'User'
p1344
sg15
S'user'
p1345
sg20
S'The username'
p1346
stRp1347
ag3
(g4
g5
(dp1348
g17
S'Text'
p1349
sg15
S'email'
p1350
sg20
S"The user's email address"
p1351
stRp1352
ag3
(g4
g5
(dp1353
g17
S'Text'
p1354
sg15
S'jobView'
p1355
sg20
S"The user's job view"
p1356
stRp1357
ag3
(g4
g5
(dp1358
g17
S'Date'
p1359
sg15
S'updateDate'
p1360
sg20
S'The date/time the user record was last updated'
p1361
stRp1362
ag3
(g4
g5
(dp1363
g17
S'Date'
p1364
sg15
S'accessDate'
p1365
sg20
S'The date/time the user record was last used'
p1366
stRp1367
ag3
(g4
g5
(dp1368
g17
S'Text'
p1369
sg15
S'fullName'
p1370
sg20
S"The user's full name"
p1371
stRp1372
ag3
(g4
g5
(dp1373
g17
S'Password'
p1374
sg15
S'password'
p1375
sg20
S'The MD5 hash of the users (encrypted) password'
p1376
stRp1377
ag3
(g4
g5
(dp1378
g17
S'Strength'
p1379
sg15
S'strength'
p1380
sg20
S"Measure of the strength of the user's password"
p1381
stRp1382
ag3
(g4
g5
(dp1383
g17
S'Password'
p1384
sg15
S'ticket'
p1385
sg20
S"'p4 login' ticket for this user"
p1386
stRp1387
ag3
(g4
g5
(dp1388
g17
S'Date'
p1389
sg15
S'endDate'
p1390
sg20
S"Date/time the user's ticket expires"
p1391
stRp1392
ag3
(g4
g5
(dp1393
g17
S'UserLevel'
p1394
sg15
S'type'
p1395
sg20
S'Type of user'
p1396
stRp1397
ag3
(g4
g5
(dp1398
g17
S'Date'
p1399
sg15
S'passwordChangeDate'
p1400
sg20
S'Date password was last changed'
p1401
stRp1402
atRp1403
sg15
S'User'
p1404
stRp1405
ag3
(g4
g5
(dp1406
g356
g3
(g8
g9
(lp1407
g3
(g4
g5
(dp1408
g17
S'Domain'
p1409
sg15
S'name'
p1410
sg20
S'Domain name to which this view applies'
p1411
stRp1412
ag3
(g4
g5
(dp1413
g17
S'Int'
p1414
sg15
S'seq'
p1415
sg20
S'Sequence number: for ordering multi-line views'
p1416
stRp1417
ag3
(g4
g5
(dp1418
g17
S'MapFlag'
p1419
sg15
S'mapFlag'
p1420
sg20
S'Type of mapping'
p1421
stRp1422
ag3
(g4
g5
(dp1423
g17
S'Mapping'
p1424
sg15
S'viewFile'
p1425
sg20
S"The right-hand-side of the view. For clients, this is\n\t\t    the client-side, for labels it's the generated label \n\t\t    view. For branches, it's the target side of the branch\n\t\t    view."
p1426
stRp1427
ag3
(g4
g5
(dp1428
g17
S'Mapping'
p1429
sg15
S'depotFile'
p1430
sg20
S'The left-hand-side of the view - a mapping to file(s)\n\t\t    in the depot.'
p1431
stRp1432
atRp1433
sg15
S'View'
p1434
stRp1435
ag3
(g4
g5
(dp1436
g356
g3
(g8
g9
(lp1437
g3
(g4
g5
(dp1438
g17
S'File'
p1439
sg15
S'clientFile'
p1440
sg20
S'File on the client'
p1441
stRp1442
ag3
(g4
g5
(dp1443
g17
S'File'
p1444
sg15
S'depotFile'
p1445
sg20
S'File in the depot'
p1446
stRp1447
ag3
(g4
g5
(dp1448
g17
S'Domain'
p1449
sg15
S'client'
p1450
sg20
S'The client the file is opened on'
p1451
stRp1452
ag3
(g4
g5
(dp1453
g17
S'User'
p1454
sg15
S'user'
p1455
sg20
S'The user who has the file opened'
p1456
stRp1457
ag3
(g4
g5
(dp1458
g17
S'Rev'
p1459
sg15
S'haveRev'
p1460
sg20
S"Revision presently in user's client workspace.  This is \n\t\t    normally identical to workRev except for the case in which \n\t\t    you've tried to submit a file where you no longer have the \n\t\t    head revision. Perforce schedules the integrate (moves \n\t\t    workRev to headRev, but doesn't change the haveRev, so that \n\t\t    a p4 revert will return the file originally checked-out \n\t\t    instead of the new head revision."
p1461
stRp1462
ag3
(g4
g5
(dp1463
g17
S'Rev'
p1464
sg15
S'workRev'
p1465
sg20
S'Working revision; this is identical to the haveRev except \n\t\t    in the case described above.'
p1466
stRp1467
ag3
(g4
g5
(dp1468
g17
S'Int'
p1469
sg15
S'isVirtual'
p1470
sg20
S'Flag: if 1, file was opened with "p4 integ -v".'
p1471
stRp1472
ag3
(g4
g5
(dp1473
g17
S'FileType'
p1474
sg15
S'type'
p1475
sg20
S'File type'
p1476
stRp1477
ag3
(g4
g5
(dp1478
g17
S'Action'
p1479
sg15
S'action'
p1480
sg20
S"What the user's doing with the file"
p1481
stRp1482
ag3
(g4
g5
(dp1483
g17
S'Change'
p1484
sg15
S'change'
p1485
sg20
S'Associated changelist, or zero for the default changelist.'
p1486
stRp1487
ag3
(g4
g5
(dp1488
g17
S'Date'
p1489
sg15
S'modTime'
p1490
sg20
S"Modification timestamp on the file in the user's workspace."
p1491
stRp1492
ag3
(g4
g5
(dp1493
g17
S'Int'
p1494
sg15
S'isLocked'
p1495
sg20
S'Flag: 0 for unlocked, 1 for locked.'
p1496
stRp1497
ag3
(g4
g5
(dp1498
g17
S'Digest'
p1499
sg15
S'digest'
p1500
sg20
S'MD5 digest of working file.'
p1501
stRp1502
ag3
(g4
g5
(dp1503
g17
S'Int64'
p1504
sg15
S'size'
p1505
sg20
S'File size'
p1506
stRp1507
ag3
(g4
g5
(dp1508
g17
S'int'
p1509
sg15
S'traitLot'
p1510
sg20
S'Group of traits associated with file revision.'
p1511
stRp1512
ag3
(g4
g5
(dp1513
g17
S'TamperCheck'
p1514
sg15
S'tampered'
p1515
sg20
S'Flag indicating the tamper-state of the file in the\n\t\t    workspace.'
p1516
stRp1517
ag3
(g4
g5
(dp1518
g17
S'FileType'
p1519
sg15
S'clntType'
p1520
sg20
S'Type of the file in the client workspace.'
p1521
stRp1522
ag3
(g4
g5
(dp1523
g17
S'File'
p1524
sg15
S'mFile'
p1525
sg20
S'Moved filename'
p1526
stRp1527
atRp1528
sg15
S'Working'
p1529
stRp1530
atRp1531
stRp1532
sS'upgrades'
p1533
g3
(g4
g5
(dp1534
S'upgrade'
p1535
g3
(g8
g9
(lp1536
g3
(g4
g5
(dp1537
S'release'
p1538
S'2001.1'
p1539
sS'index'
p1540
S'1'
sg20
S'Split db.integ into db.integed and db.resolve'
p1541
stRp1542
ag3
(g4
g5
(dp1543
g1538
S'2001.1'
p1544
sg1540
S'2'
sg20
S'Splt db.have into db.have and db.label'
p1545
stRp1546
ag3
(g4
g5
(dp1547
g1538
S'2002.1'
p1548
sg1540
S'3'
sg20
S'Split db.change into db.change and db.changex'
p1549
stRp1550
ag3
(g4
g5
(dp1551
g1538
S'2002.2'
p1552
sg1540
S'4'
sg20
S'Upgrade tempobj filetype in db.rev'
p1553
stRp1554
ag3
(g4
g5
(dp1555
g1538
S'2002.2'
p1556
sg1540
S'5'
sg20
S'Upgrade tempobj filetype in db.working'
p1557
stRp1558
ag3
(g4
g5
(dp1559
g1538
S'2003.1'
p1560
sg1540
S'6'
sg20
S'JnlInitialize default depot'
p1561
stRp1562
ag3
(g4
g5
(dp1563
g1538
S'2003.2'
p1564
sg1540
S'7'
sg20
S'Upgrade db.user'
p1565
stRp1566
ag3
(g4
g5
(dp1567
g1538
S'2005.1'
p1568
sg1540
S'8'
sg20
S'Build db.revhx (headrev) table'
p1569
stRp1570
ag3
(g4
g5
(dp1571
g1538
S'2005.1'
p1572
sg1540
S'9'
sg20
S'Rebuild db.locks from db.working'
p1573
stRp1574
ag3
(g4
g5
(dp1575
g1538
S'2005.1'
p1576
sg1540
S'10'
p1577
sg131
S'Removed in 2006.2'
p1578
sg20
S'Build lazy-copy index (db.archive)'
p1579
stRp1580
ag3
(g4
g5
(dp1581
g1538
S'2005.2'
p1582
sg1540
S'11'
p1583
sg20
S'Build db.revdx (delrev) table'
p1584
stRp1585
ag3
(g4
g5
(dp1586
g1538
S'2005.2'
p1587
sg1540
S'12'
p1588
sg131
S'Moved to 16 in 2007.3'
p1589
sg20
S'Build haveMap from db.have/db.working'
p1590
stRp1591
ag3
(g4
g5
(dp1592
g1538
S'2005.2'
p1593
sg1540
S'13'
p1594
sg20
S'Move spec depot entries into db.revsx'
p1595
stRp1596
ag3
(g4
g5
(dp1597
g1538
S'2006.2'
p1598
sg1540
S'14'
p1599
sg131
S'Moved to 17 in 2007.3'
p1600
sg20
S'Build db.archmap (lazy-copy map) table'
p1601
stRp1602
ag3
(g4
g5
(dp1603
g1538
S'2006.2'
p1604
sg1540
S'15'
p1605
sg131
S'Moved to 18 in 2007.3'
p1606
sg20
S'Remove (obsolete) db.archive table'
p1607
stRp1608
ag3
(g4
g5
(dp1609
g1538
S'2007.3'
p1610
sg1540
S'16'
p1611
sg131
S'Rewritten in 2007.3'
p1612
sg20
S'Build/Rebuild haveMap from db.have/db.working'
p1613
stRp1614
ag3
(g4
g5
(dp1615
g1538
S'2007.3'
p1616
sg1540
S'17'
p1617
sg131
S'Rewritten in 2007.3'
p1618
sg20
S'Build/Rebuild db.archmap (lazy-copy map) table'
p1619
stRp1620
ag3
(g4
g5
(dp1621
g1538
S'2007.3'
p1622
sg1540
S'18'
p1623
sg131
S'Moved from 15 in 2007.3'
p1624
sg20
S'Remove (obsolete) db.archive table'
p1625
stRp1626
ag3
(g4
g5
(dp1627
g1538
S'2008.1'
p1628
sg1540
S'19'
p1629
sg20
S'Build db.change common path'
p1630
stRp1631
ag3
(g4
g5
(dp1632
g1538
S'2009.2'
p1633
sg1540
S'20'
p1634
sg20
S'Move db.boddate/db.ixdate into db.bodtext/db.ixtext'
p1635
stRp1636
ag3
(g4
g5
(dp1637
g1538
S'2009.2'
p1638
sg1540
S'21'
p1639
sg20
S'Remove db.boddate/db.ixdate'
p1640
stRp1641
ag3
(g4
g5
(dp1642
g1538
S'2010.2'
p1643
sg1540
S'22'
p1644
sg20
S'Add db.config'
p1645
stRp1646
atRp1647
stRp1648
sS'datatypes'
p1649
g3
(g4
g5
(dp1650
S'datatype'
p1651
g3
(g8
g9
(lp1652
g3
(g4
g5
(dp1653
g17
S'flag'
p1654
sS'summary'
p1655
S'Type of action'
p1656
sS'values'
p1657
g3
(g8
g9
(lp1658
g3
(g4
g5
(dp1659
S'value'
p1660
S'0'
sg20
S'add; user adds a file'
p1661
stRp1662
ag3
(g4
g5
(dp1663
g1660
S'1'
sg20
S'edit; user edits a file'
p1664
stRp1665
ag3
(g4
g5
(dp1666
g1660
S'2'
sg20
S'delete; user deletes a file'
p1667
stRp1668
ag3
(g4
g5
(dp1669
g1660
S'3'
sg20
S'branch; add via integration'
p1670
stRp1671
ag3
(g4
g5
(dp1672
g1660
S'4'
sg20
S'integ; edit via integration'
p1673
stRp1674
ag3
(g4
g5
(dp1675
g1660
S'5'
sg20
S'import; add via remote depot'
p1676
stRp1677
ag3
(g4
g5
(dp1678
g1660
S'6'
sg20
S'purge; purged revision, no longer available'
p1679
stRp1680
ag3
(g4
g5
(dp1681
g1660
S'7'
sg20
S'movefrom; move from another filename'
p1682
stRp1683
ag3
(g4
g5
(dp1684
g1660
S'8'
sg20
S'moveto; move to another filename'
p1685
stRp1686
ag3
(g4
g5
(dp1687
g1660
S'9'
sg20
S'archive; stored in archive depot'
p1688
stRp1689
atRp1690
sg15
S'Action'
p1691
sg20
S'Revisions are produced by user actions. The Action\n\t\ttype defines the available actions and their internal values.'
p1692
stRp1693
ag3
(g4
g5
(dp1694
g1655
S'A changelist number'
p1695
sg17
S'integer'
p1696
sg15
S'Change'
p1697
sg20
S'The number of a changelist. The number 0 represents the\n\t\tdefault pending changelist.'
p1698
stRp1699
ag3
(g4
g5
(dp1700
g17
S'flag'
p1701
sg1655
S'The status of a change'
p1702
sg1657
g3
(g8
g9
(lp1703
g3
(g4
g5
(dp1704
g1660
S'0'
sg20
S'pending'
p1705
stRp1706
ag3
(g4
g5
(dp1707
g1660
S'1'
sg20
S'committed'
p1708
stRp1709
ag3
(g4
g5
(dp1710
g1660
S'2'
sg20
S'shelved'
p1711
stRp1712
ag3
(g4
g5
(dp1713
g1660
S'4'
sg20
S'restricted, pending'
p1714
stRp1715
ag3
(g4
g5
(dp1716
g1660
S'5'
sg20
S'restricted, committed'
p1717
stRp1718
ag3
(g4
g5
(dp1719
g1660
S'6'
sg20
S'restricted, shelved'
p1720
stRp1721
atRp1722
sg15
S'ChangeStatus'
p1723
sg20
S'A integer value representing the status of a change'
p1724
stRp1725
ag3
(g4
g5
(dp1726
g1655
S'A counter name'
p1727
sg17
S'string'
p1728
sg15
S'Counter'
p1729
sg20
S'A string representing the counter name. Counter names must \n\t\tcontain no spaces, contain no slashes, and be identifiers \n\t\t(cannot begin with a dash and cannot be all-numeric)'
p1730
stRp1731
ag3
(g4
g5
(dp1732
g1655
S'A unix-style date and time'
p1733
sg17
S'integer'
p1734
sg15
S'Date'
p1735
sg20
S'A date and time represented as the number of seconds since \n\t\tthe Epoch: 01 January 1970 00:00:00 UTC. This is the same \n\t\tconvention as that used on Unix platforms.'
p1736
stRp1737
ag3
(g4
g5
(dp1738
g17
S'flag'
p1739
sg1655
S'Type of Depot'
p1740
sg1657
g3
(g8
g9
(lp1741
g3
(g4
g5
(dp1742
g1660
S'0'
sg20
S'A local depot'
p1743
stRp1744
ag3
(g4
g5
(dp1745
g1660
S'1'
sg20
S'A remote depot'
p1746
stRp1747
ag3
(g4
g5
(dp1748
g1660
S'2'
sg20
S'A spec depot'
p1749
stRp1750
ag3
(g4
g5
(dp1751
g1660
S'4'
sg20
S'An archive depot'
p1752
stRp1753
atRp1754
sg15
S'DepotType'
p1755
sg20
S'The type of a given depot'
p1756
stRp1757
ag3
(g4
g5
(dp1758
g1655
S'A short string value'
p1759
sg20
S'The first 31 characters of a Text string'
p1760
sg17
S'string'
p1761
sg15
S'DescShort'
p1762
sg79
S'Text'
p1763
stRp1764
ag3
(g4
g5
(dp1765
g1655
S'An MD5 digest'
p1766
sg17
S'string'
p1767
sg15
S'Digest'
p1768
sg20
S'A string containing an MD5 digest.'
p1769
stRp1770
ag3
(g4
g5
(dp1771
g1655
S'A domain name'
p1772
sg17
S'string'
p1773
sg15
S'Domain'
p1774
sg20
S'A string representing the name of a depot, label, client,\n\t\tbranch or typemap.'
p1775
stRp1776
ag3
(g4
g5
(dp1777
g1655
S'A string with optional wildcards'
p1778
sg17
S'string'
p1779
sg15
S'DomainWild'
p1780
sg20
S'A string that may contain wildcards - usually an IP address\n\t\tin the protections table.'
p1781
stRp1782
ag3
(g4
g5
(dp1783
g1657
g3
(g8
g9
(lp1784
g3
(g4
g5
(dp1785
S'mask'
p1786
S'Domain Flags'
p1787
sg1660
S'0x0001'
p1788
sg20
S'modtime'
p1789
stRp1790
ag3
(g4
g5
(dp1791
g1786
S'Domain Flags'
p1792
sg1660
S'0x0002'
p1793
sg20
S'clobber'
p1794
stRp1795
ag3
(g4
g5
(dp1796
g1786
S'Domain Flags'
p1797
sg1660
S'0x0004'
p1798
sg20
S'allwrite'
p1799
stRp1800
ag3
(g4
g5
(dp1801
g1786
S'Domain Flags'
p1802
sg1660
S'0x0008'
p1803
sg20
S'locked'
p1804
stRp1805
ag3
(g4
g5
(dp1806
g1786
S'Domain Flags'
p1807
sg1660
S'0x0020'
p1808
sg20
S'compress'
p1809
stRp1810
ag3
(g4
g5
(dp1811
g1786
S'Domain Flags'
p1812
sg1660
S'0x0040'
p1813
sg20
S'rmdir'
p1814
stRp1815
ag3
(g4
g5
(dp1816
g1786
S'Domain Flags'
p1817
sg1660
S'0x1000'
p1818
sg20
S'indirect (obsolete since 2004.2)'
p1819
stRp1820
ag3
(g4
g5
(dp1821
g1786
S'Domain LineEnd'
p1822
sg1660
S'0x0000'
p1823
sg20
S'local'
p1824
stRp1825
ag3
(g4
g5
(dp1826
g1786
S'Domain LineEnd'
p1827
sg1660
S'0x0010'
p1828
sg20
S'unix (LF)'
p1829
stRp1830
ag3
(g4
g5
(dp1831
g1786
S'Domain LineEnd'
p1832
sg1660
S'0x0200'
p1833
sg20
S'mac (CR)'
p1834
stRp1835
ag3
(g4
g5
(dp1836
g1786
S'Domain LineEnd'
p1837
sg1660
S'0x0300'
p1838
sg20
S'win (CRLF)'
p1839
stRp1840
ag3
(g4
g5
(dp1841
g1786
S'Domain LineEnd'
p1842
sg1660
S'0x0400'
p1843
sg20
S'share (LF/CRLF)'
p1844
stRp1845
ag3
(g4
g5
(dp1846
g1786
S'Domain SubmitMask'
p1847
sg1660
S'0x1000'
p1848
sg20
S'Revert unchanged files'
p1849
stRp1850
ag3
(g4
g5
(dp1851
g1786
S'Domain SubmitMask'
p1852
sg1660
S'0x2000'
p1853
sg20
S'Leave unchanged files'
p1854
stRp1855
ag3
(g4
g5
(dp1856
g1786
S'Domain SubmitMask'
p1857
sg1660
S'0x4000'
p1858
sg20
S'Submit, and re-open unchanged files'
p1859
stRp1860
atRp1861
sg15
S'DomainOpts'
p1862
sg1786
g3
(g8
g9
(lp1863
g3
(g4
g5
(dp1864
g15
S'Domain Flags'
p1865
sg1660
S'0x10EF'
p1866
sg20
S'Bits used to store the domain options'
p1867
stRp1868
ag3
(g4
g5
(dp1869
g15
S'Domain LineEnd'
p1870
sg1660
S'0x0710'
p1871
sg20
S'Bits used to store the line termination settings.'
p1872
stRp1873
ag3
(g4
g5
(dp1874
g15
S'Domain SubmitMask'
p1875
sg1660
S'0x7000'
p1876
sg20
S'Bits used to store the submit options'
p1877
stRp1878
atRp1879
sg1655
S'Options for domains'
p1880
sg17
S'bitmask'
p1881
sg20
S'A integer value representing the options for a domain'
p1882
stRp1883
ag3
(g4
g5
(dp1884
g17
S'flag'
p1885
sg1655
S'A domain type'
p1886
sg1657
g3
(g8
g9
(lp1887
g3
(g4
g5
(dp1888
g1660
S"98 (ASCII 'b')"
p1889
sg20
S'branch'
p1890
stRp1891
ag3
(g4
g5
(dp1892
g1660
S"99 (ASCII 'c')"
p1893
sg20
S'client'
p1894
stRp1895
ag3
(g4
g5
(dp1896
g1660
S"100 (ASCII 'd')"
p1897
sg20
S'depot'
p1898
stRp1899
ag3
(g4
g5
(dp1900
g1660
S"108 (ASCII 'l')"
p1901
sg20
S'label'
p1902
stRp1903
ag3
(g4
g5
(dp1904
g1660
S"116 (ASCII 't')"
p1905
sg20
S'typemap'
p1906
stRp1907
atRp1908
sg15
S'DomainType'
p1909
sg20
S'A integer value representing the type of a domain'
p1910
stRp1911
ag3
(g4
g5
(dp1912
g1655
S'A file name'
p1913
sg20
S'A string representing the filename'
p1914
sg17
S'string'
p1915
sg15
S'File'
p1916
sg79
S'FileType'
p1917
stRp1918
ag3
(g4
g5
(dp1919
g1655
S'A file size'
p1920
sg17
S'integer'
p1921
sg15
S'FileSize'
p1922
sg20
S'A 64-bit integer used to store file sizes. The value -1 is\n\t\tused to represent unknown filesizes.'
p1923
stRp1924
ag3
(g4
g5
(dp1925
g1657
g3
(g8
g9
(lp1926
g3
(g4
g5
(dp1927
g1786
S'Storage Type'
p1928
sg1660
S'0x0000'
p1929
sg20
S'RCS'
p1930
stRp1931
ag3
(g4
g5
(dp1932
g1786
S'Storage Type'
p1933
sg1660
S'0x0001'
p1934
sg20
S'Binary'
p1935
stRp1936
ag3
(g4
g5
(dp1937
g1786
S'Storage Type'
p1938
sg1660
S'0x0002'
p1939
sg20
S'Tiny'
p1940
stRp1941
ag3
(g4
g5
(dp1942
g1786
S'Storage Type'
p1943
sg1660
S'0x0003'
p1944
sg20
S'Compressed'
p1945
stRp1946
ag3
(g4
g5
(dp1947
g1786
S'Storage Type'
p1948
sg1660
S'0x0004'
p1949
sg20
S'tempobj (deprecated since 2002.1)'
p1950
stRp1951
ag3
(g4
g5
(dp1952
g1786
S'Storage Type'
p1953
sg1660
S'0x0005'
p1954
sg20
S'Detect type. Used internally when no type is\n\t\t    given by the user.'
p1955
stRp1956
ag3
(g4
g5
(dp1957
g1786
S'Storage Type'
p1958
sg1660
S'0x0006'
p1959
sg20
S'Comressed tempobj (deprecated since 2002.1)'
p1960
stRp1961
ag3
(g4
g5
(dp1962
g1786
S'Storage Type'
p1963
sg1660
S'0x0007'
p1964
sg20
S'Binary access to compressed data. Used internally.'
p1965
stRp1966
ag3
(g4
g5
(dp1967
g1786
S'Storage Type'
p1968
sg1660
S'0x0008'
p1969
sg20
S'Stored externally via librarian trigger'
p1970
stRp1971
ag3
(g4
g5
(dp1972
g1786
S'Storage Mods'
p1973
sg1660
S'0x0010'
p1974
sg20
S'99.2-style keyword expansion/contraction'
p1975
stRp1976
ag3
(g4
g5
(dp1977
g1786
S'Storage Mods'
p1978
sg1660
S'0x0020'
p1979
sg20
S'2000.1-style keyword expansion/contraction'
p1980
stRp1981
ag3
(g4
g5
(dp1982
g1786
S'Storage Mods'
p1983
sg1660
S'0x0030'
p1984
sg20
S'Any type of keyword expansion'
p1985
stRp1986
ag3
(g4
g5
(dp1987
g1786
S'Storage Mods'
p1988
sg1660
S'0x0040'
p1989
sg20
S'Exclusive open'
p1990
stRp1991
ag3
(g4
g5
(dp1992
g1786
S'Storage Mods'
p1993
sg1660
S'0x0080'
p1994
sg20
S'New tempobj (+S modifier)'
p1995
stRp1996
ag3
(g4
g5
(dp1997
g1786
S'Tempobj revisions'
p1998
sg1660
S'0x0000'
p1999
sg20
S'+S1'
p2000
stRp2001
ag3
(g4
g5
(dp2002
g1786
S'Tempobj revisions'
p2003
sg1660
S'0x0100'
p2004
sg20
S'+S2'
p2005
stRp2006
ag3
(g4
g5
(dp2007
g1786
S'Tempobj revisions'
p2008
sg1660
S'0x0200'
p2009
sg20
S'+S3'
p2010
stRp2011
ag3
(g4
g5
(dp2012
g1786
S'Tempobj revisions'
p2013
sg1660
S'0x0300'
p2014
sg20
S'+S4'
p2015
stRp2016
ag3
(g4
g5
(dp2017
g1786
S'Tempobj revisions'
p2018
sg1660
S'0x0400'
p2019
sg20
S'+S5'
p2020
stRp2021
ag3
(g4
g5
(dp2022
g1786
S'Tempobj revisions'
p2023
sg1660
S'0x0500'
p2024
sg20
S'+S6'
p2025
stRp2026
ag3
(g4
g5
(dp2027
g1786
S'Tempobj revisions'
p2028
sg1660
S'0x0600'
p2029
sg20
S'+S7'
p2030
stRp2031
ag3
(g4
g5
(dp2032
g1786
S'Tempobj revisions'
p2033
sg1660
S'0x0700'
p2034
sg20
S'+S8'
p2035
stRp2036
ag3
(g4
g5
(dp2037
g1786
S'Tempobj revisions'
p2038
sg1660
S'0x0800'
p2039
sg20
S'+S9'
p2040
stRp2041
ag3
(g4
g5
(dp2042
g1786
S'Tempobj revisions'
p2043
sg1660
S'0x0900'
p2044
sg20
S'+S10'
p2045
stRp2046
ag3
(g4
g5
(dp2047
g1786
S'Tempobj revisions'
p2048
sg1660
S'0x0A00'
p2049
sg20
S'+S16'
p2050
stRp2051
ag3
(g4
g5
(dp2052
g1786
S'Tempobj revisions'
p2053
sg1660
S'0x0B00'
p2054
sg20
S'+S32'
p2055
stRp2056
ag3
(g4
g5
(dp2057
g1786
S'Tempobj revisions'
p2058
sg1660
S'0x0C00'
p2059
sg20
S'+S64'
p2060
stRp2061
ag3
(g4
g5
(dp2062
g1786
S'Tempobj revisions'
p2063
sg1660
S'0x0D00'
p2064
sg20
S'+S128'
p2065
stRp2066
ag3
(g4
g5
(dp2067
g1786
S'Tempobj revisions'
p2068
sg1660
S'0x0E00'
p2069
sg20
S'+S256'
p2070
stRp2071
ag3
(g4
g5
(dp2072
g1786
S'Tempobj revisions'
p2073
sg1660
S'0x0F00'
p2074
sg20
S'+S512'
p2075
stRp2076
ag3
(g4
g5
(dp2077
g1786
S'Client Type'
p2078
sg1660
S'0x0000000'
p2079
sg20
S'text'
p2080
stRp2081
ag3
(g4
g5
(dp2082
g1786
S'Client Type'
p2083
sg1660
S'0x0010000'
p2084
sg20
S'binary'
p2085
stRp2086
ag3
(g4
g5
(dp2087
g1786
S'Client Type'
p2088
sg1660
S'0x0020000'
p2089
sg20
S'executable bit set'
p2090
stRp2091
ag3
(g4
g5
(dp2092
g1786
S'Client Type'
p2093
sg1660
S'0x0040000'
p2094
sg20
S'symlink'
p2095
stRp2096
ag3
(g4
g5
(dp2097
g1786
S'Client Type'
p2098
sg1660
S'0x0050000'
p2099
sg20
S'resource fork'
p2100
stRp2101
ag3
(g4
g5
(dp2102
g1786
S'Client Type'
p2103
sg1660
S'0x0080000'
p2104
sg20
S'unicode'
p2105
stRp2106
ag3
(g4
g5
(dp2107
g1786
S'Client Type'
p2108
sg1660
S'0x0090000'
p2109
sg20
S'raw text (nocrlf - 99.1)'
p2110
stRp2111
ag3
(g4
g5
(dp2112
g1786
S'Client Type'
p2113
sg1660
S'0x00C0000'
p2114
sg20
S'apple data + resource file (since 2000.2)'
p2115
stRp2116
ag3
(g4
g5
(dp2117
g1786
S'Client Type'
p2118
sg1660
S'0x00D0000'
p2119
sg20
S'apple data + resource file (99.2)'
p2120
stRp2121
ag3
(g4
g5
(dp2122
g1786
S'Client Type'
p2123
sg1660
S'0x1000000'
p2124
sg20
S'Used to support filetype detection'
p2125
stRp2126
ag3
(g4
g5
(dp2127
g1786
S'Client Mods'
p2128
sg1660
S'0x0100000'
p2129
sg20
S'writable'
p2130
stRp2131
ag3
(g4
g5
(dp2132
g1786
S'Client Mods'
p2133
sg1660
S'0x0200000'
p2134
sg20
S'modtime'
p2135
stRp2136
ag3
(g4
g5
(dp2137
g1786
S'Client Mods'
p2138
sg1660
S'0x0400000'
p2139
sg20
S'uncompress on client'
p2140
stRp2141
atRp2142
sg15
S'FileType'
p2143
sg1786
g3
(g8
g9
(lp2144
g3
(g4
g5
(dp2145
g15
S'Storage Type'
p2146
sg1660
S'0x000F'
p2147
sg20
S"Bits used to store the server's storage type"
p2148
stRp2149
ag3
(g4
g5
(dp2150
g15
S'Storage Mods'
p2151
sg1660
S'0x00F0'
p2152
sg20
S"Bits used to store the modifiers to the server's storage \n\t\t    type"
p2153
stRp2154
ag3
(g4
g5
(dp2155
g15
S'Tempobj revisions'
p2156
sg1660
S'0x0F00'
p2157
sg20
S'Bits used to store the number of revisions to be stored\n\t\t    for +Sn files.'
p2158
stRp2159
ag3
(g4
g5
(dp2160
g15
S'Client Type'
p2161
sg1660
S'0x10D0000'
p2162
sg20
S"Bits used to store the file type from the client's point\n\t\t    of view."
p2163
stRp2164
ag3
(g4
g5
(dp2165
g15
S'Client Mods'
p2166
sg1660
S'0x720000'
p2167
sg20
S'Bits used to store the modifiers applied to the file\n\t\t    on the client.'
p2168
stRp2169
atRp2170
sg1655
S'Type of file'
p2171
sg17
S'bitmask'
p2172
sg20
S'The FileType is a bitmask specifying the type and modifiers\n\t\tof a revision from both the client and server points of view.\n\t\tThe first 16 bits are used to store the storage type and \n\t\tmodifiers, the next 16 bits are used to store the client \n\t\taccess method and modifiers.'
p2173
stRp2174
ag3
(g4
g5
(dp2175
g1655
S'Status of a fixed job'
p2176
sg17
S'string'
p2177
sg15
S'FixStatus'
p2178
sg20
S'This type is a wrapper around the \'Text\' type that handles\n\t\tthe pre-2000.1 "closed" default value.'
p2179
stRp2180
ag3
(g4
g5
(dp2181
g1655
S'A 32-bit integer'
p2182
sg17
S'integer'
p2183
sg15
S'Int'
p2184
sg20
S'A 32-bit integer'
p2185
stRp2186
ag3
(g4
g5
(dp2187
g1655
S'An 8-bit integer'
p2188
sg17
S'integer'
p2189
sg15
S'Int8'
p2190
sg20
S'An 8-bit integer: an unsigned char'
p2191
stRp2192
ag3
(g4
g5
(dp2193
g1655
S'A 64-bit integer'
p2194
sg17
S'integer'
p2195
sg15
S'Int64'
p2196
sg20
S'A 64-bit integer.'
p2197
stRp2198
ag3
(g4
g5
(dp2199
g131
S'All integration records should have a corresponding \n\t\treverse record. The \'branch from\' (2) and \'merge from\' (0) \n\t\trecords have corresponding "dirty" reverse records for cases \n\t\twhere the target file took more than one change or was \n\t\t(re)opened for \'edit\' or \'add\'.'
p2200
sg1657
g3
(g8
g9
(lp2201
g3
(g4
g5
(dp2202
g1660
S'0'
sg20
S'merge from: integration with other changes'
p2203
stRp2204
ag3
(g4
g5
(dp2205
g1660
S'1'
sg20
S'merge into: reverse merge'
p2206
stRp2207
ag3
(g4
g5
(dp2208
g1660
S'2'
sg20
S'branch from: integration was branch of file'
p2209
stRp2210
ag3
(g4
g5
(dp2211
g1660
S'3'
sg20
S'branch into: reverse branch'
p2212
stRp2213
ag3
(g4
g5
(dp2214
g1660
S'4'
sg20
S'copy from: integration took source file whole'
p2215
stRp2216
ag3
(g4
g5
(dp2217
g1660
S'5'
sg20
S'copy into: reverse take'
p2218
stRp2219
ag3
(g4
g5
(dp2220
g1660
S'6'
sg20
S'ignored: integration ignored source changes'
p2221
stRp2222
ag3
(g4
g5
(dp2223
g1660
S'7'
sg20
S'ignored by: reverse copy'
p2224
stRp2225
ag3
(g4
g5
(dp2226
g1660
S'8'
sg20
S'delete from: integration of delete'
p2227
stRp2228
ag3
(g4
g5
(dp2229
g1660
S'9'
sg20
S'delete into: reverse delete'
p2230
stRp2231
ag3
(g4
g5
(dp2232
g1660
S'10'
p2233
sg20
S'edit into: reverse of integration downgraded to \n\t\t    edit'
p2234
stRp2235
ag3
(g4
g5
(dp2236
g1660
S'11'
p2237
sg20
S'add into: reverse of branch downgraded to add'
p2238
stRp2239
ag3
(g4
g5
(dp2240
g1660
S'12'
p2241
sg20
S'edit from; merge that the user edited'
p2242
stRp2243
ag3
(g4
g5
(dp2244
g1660
S'13'
p2245
sg20
S'add from; branch downgraded to add'
p2246
stRp2247
ag3
(g4
g5
(dp2248
g1660
S'14'
p2249
sg20
S'moved into; file was renamed'
p2250
stRp2251
ag3
(g4
g5
(dp2252
g1660
S'15'
p2253
sg20
S'moved from: reverse of renamed file'
p2254
stRp2255
atRp2256
sg15
S'IntegHow'
p2257
sg1655
S'Integration methods'
p2258
sg17
S'flag'
p2259
sg20
S"Specifies how an integration was performed. Integrations\n\t\talways come in pairs: the 'forward' and 'reverse' records.\n\t\tAs a general rule, the forward records contain the word \n\t\t'from'; and the reverse records contain the word 'into'."
p2260
stRp2261
ag3
(g4
g5
(dp2262
g17
S'flag'
p2263
sg1655
S'Job status - defunct'
p2264
sg1657
g3
(g8
g9
(lp2265
g3
(g4
g5
(dp2266
g1660
S'0'
sg20
S'open'
p2267
stRp2268
ag3
(g4
g5
(dp2269
g1660
S'1'
sg20
S'closed'
p2270
stRp2271
ag3
(g4
g5
(dp2272
g1660
S'2'
sg20
S'suspended'
p2273
stRp2274
atRp2275
sg15
S'JobStat'
p2276
sg20
S'Old (pre-98.2) job status values.'
p2277
stRp2278
ag3
(g4
g5
(dp2279
g17
S'flag'
p2280
sg1655
S'Types of mapping'
p2281
sg1657
g3
(g8
g9
(lp2282
g3
(g4
g5
(dp2283
g1660
S'0'
sg20
S'mapped-in (the default)'
p2284
stRp2285
ag3
(g4
g5
(dp2286
g1660
S'1'
sg20
S"mapped-out (mappings that start with '-')"
p2287
stRp2288
ag3
(g4
g5
(dp2289
g1660
S'2'
sg20
S"overlay (mappings that start with '+')"
p2290
stRp2291
ag3
(g4
g5
(dp2292
g1660
S'3'
sg20
S"haveMap (mappings that start with '$'). Used internally\n\t\t    only"
p2293
stRp2294
atRp2295
sg15
S'MapFlag'
p2296
sg20
S'Specifies how the files specified by a mapping should be\n\t\ttreated'
p2297
stRp2298
ag3
(g4
g5
(dp2299
g1655
S'A string representing a mapping'
p2300
sg17
S'string'
p2301
sg15
S'Mapping'
p2302
sg20
S'A Mapping is essentially a file name that may contain\n\t\twildcards'
p2303
stRp2304
ag3
(g4
g5
(dp2305
g1655
S'Maximum number of milliseconds to hold locks'
p2306
sg17
S'integer'
p2307
sg15
S'MaxLockTime'
p2308
sg20
S"The number of milliseconds for which a command may hold locks.\n\t\tCommands that take longer than this time period will abort. \n\t\tThe value 0 means 'unlimited'."
p2309
stRp2310
ag3
(g4
g5
(dp2311
g1655
S'Maximum number of results permitted'
p2312
sg17
S'integer'
p2313
sg15
S'MaxResults'
p2314
sg20
S"The number of results that commands run by the restricted\n\t\tuser are permitted to return. The value 0 means 'unlimited'."
p2315
stRp2316
ag3
(g4
g5
(dp2317
g1655
S'Maximum number of records scanned'
p2318
sg17
S'integer'
p2319
sg15
S'MaxScanRows'
p2320
sg20
S"The maximum number of records that the server may read\n\t\ton behalf of the restricted user. The value 0 means \n\t\t'unlimited'."
p2321
stRp2322
ag3
(g4
g5
(dp2323
g1655
S'Encoded hex string'
p2324
sg17
S'string'
p2325
sg15
S'Octet String'
p2326
sg20
S'A variable length encoded hex string. The first octet \n\t\tstores the length of the string.'
p2327
stRp2328
ag3
(g4
g5
(dp2329
g1655
S'The MD5 hash of a password'
p2330
sg17
S'string'
p2331
sg15
S'Password'
p2332
sg20
S'The MD5 hash of an encrypted password.'
p2333
stRp2334
ag3
(g4
g5
(dp2335
g1657
g3
(g8
g9
(lp2336
g3
(g4
g5
(dp2337
g1786
S'PermTypeBits'
p2338
sg15
S'List'
p2339
sg1660
S'0x0001'
p2340
sg20
S'Grants list access'
p2341
stRp2342
ag3
(g4
g5
(dp2343
g1786
S'PermTypeBits'
p2344
sg15
S'Read'
p2345
sg1660
S'0x0002'
p2346
sg20
S'Grants read access'
p2347
stRp2348
ag3
(g4
g5
(dp2349
g1786
S'PermTypeBits'
p2350
sg15
S'Branch'
p2351
sg1660
S'0x0004'
p2352
sg20
S'Grants ability to branch/integ from'
p2353
stRp2354
ag3
(g4
g5
(dp2355
g1786
S'PermTypeBits'
p2356
sg15
S'Open'
p2357
sg1660
S'0x0008'
p2358
sg20
S'Grants open access'
p2359
stRp2360
ag3
(g4
g5
(dp2361
g1786
S'PermTypeBits'
p2362
sg15
S'Write'
p2363
sg1660
S'0x0010'
p2364
sg20
S'Grants write access'
p2365
stRp2366
ag3
(g4
g5
(dp2367
g1786
S'PermTypeBits'
p2368
sg15
S'Review'
p2369
sg1660
S'0x0020'
p2370
sg20
S'Grants review access'
p2371
stRp2372
ag3
(g4
g5
(dp2373
g1786
S'PermTypeBits'
p2374
sg15
S'Admin'
p2375
sg1660
S'0x0080'
p2376
sg20
S'Grants admin access'
p2377
stRp2378
ag3
(g4
g5
(dp2379
g1786
S'PermTypeBits'
p2380
sg15
S'Super'
p2381
sg1660
S'0x0040'
p2382
sg20
S'Grants super-user access'
p2383
stRp2384
atRp2385
sg15
S'Perm'
p2386
sg1786
g3
(g4
g5
(dp2387
g15
S'PermTypeBits'
p2388
sg1660
S'0x00FF'
p2389
sg20
S'Bits used to store granted permissions'
p2390
stRp2391
sg1655
S'Bitmask of permissions'
p2392
sg17
S'bitmask'
p2393
sg20
S'A bitmask of granted permissions'
p2394
stRp2395
ag3
(g4
g5
(dp2396
g17
S'flag'
p2397
sg1655
S'Resolve methods'
p2398
sg1657
g3
(g8
g9
(lp2399
g3
(g4
g5
(dp2400
g1660
S'0'
sg20
S'Not yet resolved'
p2401
stRp2402
ag3
(g4
g5
(dp2403
g1660
S'1'
sg20
S'Resolved manually'
p2404
stRp2405
ag3
(g4
g5
(dp2406
g1660
S'2'
sg20
S'Resolved automatically as part of a branch'
p2407
stRp2408
ag3
(g4
g5
(dp2409
g1660
S'3'
sg20
S'Resolved automatically as part of a delete'
p2410
stRp2411
ag3
(g4
g5
(dp2412
g1660
S'4'
sg20
S'Resolved automatically as part of a move'
p2413
stRp2414
atRp2415
sg15
S'ResolvedStatus'
p2416
sg20
S'Specifies how the user resolved merge operations.'
p2417
stRp2418
ag3
(g4
g5
(dp2419
g1655
S'A revision number'
p2420
sg17
S'integer'
p2421
sg15
S'Rev'
p2422
sg20
S"The positive integer number of a specific revision of a file. \n\t\tThe number 0 represents '#none'."
p2423
stRp2424
ag3
(g4
g5
(dp2425
g1655
S'Type of reviewer'
p2426
sg17
S'integer'
p2427
sg15
S'Reviewer'
p2428
sg20
S'The type of reviewer. Currently there is only one type of\n\t\treviewer and 0 is the only valid value.'
p2429
stRp2430
ag3
(g4
g5
(dp2431
g17
S'flag'
p2432
sg1655
S'Strength check of a password'
p2433
sg1657
g3
(g8
g9
(lp2434
g3
(g4
g5
(dp2435
g1660
S'0'
sg20
S'Strength unknown'
p2436
stRp2437
ag3
(g4
g5
(dp2438
g1660
S'1'
sg20
S'Password is strong'
p2439
stRp2440
ag3
(g4
g5
(dp2441
g1660
S'2'
sg20
S'Password is not strong'
p2442
stRp2443
atRp2444
sg15
S'Strength'
p2445
sg20
S"Whether or not a user's password has been tested for strength."
p2446
stRp2447
ag3
(g4
g5
(dp2448
S'restriction'
p2449
g3
(g8
g9
(lp2450
S'Cannot be empty'
p2451
aS'Cannot consist solely of a dash (-)'
p2452
aS'Cannot be all-numeric'
p2453
aS'Cannot contain non-printable characters'
p2454
aS'Spaces are replaced with underscores ( _ )'
p2455
aS'Revision characters (# and @) are prohibited'
p2456
aS'Slashes (/) are prohibited'
p2457
aS'Wildcards (... and *) are prohibited'
p2458
atRp2459
sg1655
S'A string up to 1024 characters long'
p2460
sg17
S'string'
p2461
sg15
S'String'
p2462
sg20
S'A string up to 1024 characters in length.  Depending on the \n\t\tcontext in which the string is used, restrictions \n\t\tmay apply. Strings are often used as key fields in the \n\t\tschema.'
p2463
stRp2464
ag3
(g4
g5
(dp2465
g17
S'flag'
p2466
sg1655
S'Tamper-state of workspace file'
p2467
sg1657
g3
(g8
g9
(lp2468
g3
(g4
g5
(dp2469
g1660
S'0'
sg20
S'Do not check for tampering'
p2470
stRp2471
ag3
(g4
g5
(dp2472
g1660
S'1'
sg20
S'Check for tampering'
p2473
stRp2474
ag3
(g4
g5
(dp2475
g1660
S'2'
sg20
S'Tamper-check failed'
p2476
stRp2477
atRp2478
sg15
S'TamperCheck'
p2479
sg20
S'Indicates the tamper-state of a file in a workspace. This\n\t\tis used to decide whether or not to check the file, and\n\t\tif checked, to hold the result.'
p2480
stRp2481
ag3
(g4
g5
(dp2482
g1655
S'A string value'
p2483
sg17
S'string'
p2484
sg15
S'Text'
p2485
sg20
S'A text string value - used to hold longer blocks of text.'
p2486
stRp2487
ag3
(g4
g5
(dp2488
g1655
S'The id of a group of traits'
p2489
sg17
S'integer'
p2490
sg15
S'TraitLot'
p2491
sg20
S'An integer identifying a group of traits which may be\n\t\tshared by several revisions.'
p2492
stRp2493
ag3
(g4
g5
(dp2494
g17
S'flag'
p2495
sg1655
S'A type of trait'
p2496
sg1657
g3
(g8
g9
(lp2497
g3
(g4
g5
(dp2498
g1660
S'0'
sg20
S'special trait for reference counting'
p2499
stRp2500
ag3
(g4
g5
(dp2501
g1660
S'1'
sg20
S'Binary trait'
p2502
stRp2503
ag3
(g4
g5
(dp2504
g1660
S'2'
sg20
S'Binary trait that gets propagated'
p2505
stRp2506
atRp2507
sg15
S'TraitType'
p2508
sg20
S'The type of trait.'
p2509
stRp2510
ag3
(g4
g5
(dp2511
g17
S'flag'
p2512
sg1655
S'A type of trigger'
p2513
sg1657
g3
(g8
g9
(lp2514
g3
(g4
g5
(dp2515
g1660
S'0'
sg20
S'change-submit (formerly pre-submit triggers)'
p2516
stRp2517
ag3
(g4
g5
(dp2518
g1660
S'1'
sg20
S'change-content'
p2519
stRp2520
ag3
(g4
g5
(dp2521
g1660
S'2'
sg20
S'change-commit'
p2522
stRp2523
ag3
(g4
g5
(dp2524
g1660
S'3'
sg20
S'form-in'
p2525
stRp2526
ag3
(g4
g5
(dp2527
g1660
S'4'
sg20
S'form-out'
p2528
stRp2529
ag3
(g4
g5
(dp2530
g1660
S'5'
sg20
S'form-save'
p2531
stRp2532
ag3
(g4
g5
(dp2533
g1660
S'6'
sg20
S'form-delete'
p2534
stRp2535
ag3
(g4
g5
(dp2536
g1660
S'7'
sg20
S'form-commit'
p2537
stRp2538
ag3
(g4
g5
(dp2539
g1660
S'8'
sg20
S'auth-check'
p2540
stRp2541
ag3
(g4
g5
(dp2542
g1660
S'9'
sg20
S'auth-check-sso'
p2543
stRp2544
ag3
(g4
g5
(dp2545
g1660
S'10'
p2546
sg20
S'auth-set'
p2547
stRp2548
ag3
(g4
g5
(dp2549
g1660
S'11'
p2550
sg20
S'fix-add'
p2551
stRp2552
ag3
(g4
g5
(dp2553
g1660
S'12'
p2554
sg20
S'fix-delete'
p2555
stRp2556
ag3
(g4
g5
(dp2557
g1660
S'13'
p2558
sg20
S'archive'
p2559
stRp2560
ag3
(g4
g5
(dp2561
g1660
S'14'
p2562
sg20
S'shelve-submit'
p2563
stRp2564
ag3
(g4
g5
(dp2565
g1660
S'15'
p2566
sg20
S'shelve-commit'
p2567
stRp2568
ag3
(g4
g5
(dp2569
g1660
S'16'
p2570
sg20
S'shelve-delete'
p2571
stRp2572
ag3
(g4
g5
(dp2573
g1660
S'17'
p2574
sg20
S'service-check'
p2575
stRp2576
atRp2577
sg15
S'Trigger'
p2578
sg20
S'The type of a trigger.'
p2579
stRp2580
ag3
(g4
g5
(dp2581
g1655
S'A user or group name'
p2582
sg20
S'The name of a Perforce user or group.'
p2583
sg17
S'string'
p2584
sg15
S'User'
p2585
sg79
S'String'
p2586
stRp2587
ag3
(g4
g5
(dp2588
g17
S'flag'
p2589
sg1655
S'User functionality level'
p2590
sg1657
g3
(g8
g9
(lp2591
g3
(g4
g5
(dp2592
g1660
S'0'
sg20
S'standard'
p2593
stRp2594
ag3
(g4
g5
(dp2595
g1660
S'1'
sg20
S'service'
p2596
stRp2597
atRp2598
sg15
S'UserLevel'
p2599
sg20
S'User functionality level'
p2600
stRp2601
ag3
(g4
g5
(dp2602
g1657
g3
(g8
g9
(lp2603
g3
(g4
g5
(dp2604
g1786
S'UserTypeBits'
p2605
sg15
S'User'
p2606
sg1660
S'0x0001'
p2607
sg20
S'User is an ordinary user'
p2608
stRp2609
ag3
(g4
g5
(dp2610
g1786
S'UserTypeBits'
p2611
sg15
S'SubGroup'
p2612
sg1660
S'0x0002'
p2613
sg20
S'Group is a sub-group'
p2614
stRp2615
ag3
(g4
g5
(dp2616
g1786
S'UserTypeBits'
p2617
sg15
S'Owner'
p2618
sg1660
S'0x0004'
p2619
sg20
S'User is the owner of a group'
p2620
stRp2621
atRp2622
sg15
S'UserType'
p2623
sg1786
g3
(g4
g5
(dp2624
g15
S'UserTypeBits'
p2625
sg1660
S'0x0007'
p2626
sg20
S'Bits used to store the role of a user in a group'
p2627
stRp2628
sg1655
S'The role of a user within a group'
p2629
sg17
S'bitmask'
p2630
sg20
S'The role of a user (or group) within a group.'
p2631
stRp2632
ag3
(g4
g5
(dp2633
g1655
S'A user or group name with wildcards'
p2634
sg20
S'A user/group name that may contain wildcards (*)'
p2635
sg17
S'string'
p2636
sg15
S'UserWild'
p2637
sg79
S'User'
p2638
stRp2639
ag3
(g4
g5
(dp2640
g1655
S'A number or a string'
p2641
sg17
S'string'
p2642
sg15
S'Value'
p2643
sg20
S'A number, stored in a string, or a string'
p2644
stRp2645
atRp2646
stRp2647
s.