(dp1
S'tables'
p2
ccopy_reg
_reconstructor
p3
(clib.sqUtils
Storage
p4
c__builtin__
dict
p5
(dp6
S'table'
p7
g3
(clib.sqUtils
Lst
p8
c__builtin__
list
p9
(lp10
g3
(g4
g5
(dp11
S'version'
p12
S'1'
sS'classic_lockseq'
p13
S'1'
sS'keying'
p14
S'serverName, name'
p15
sS'peek_lockseq'
p16
S'1'
sS'name'
p17
S'db.config'
p18
sS'type'
p19
S'Config'
p20
sS'desc'
p21
S'Server configurations table'
p22
stRp23
ag3
(g4
g5
(dp24
g12
S'1'
sg13
S'2'
sg14
S'name'
p25
sg16
S'2'
sg17
S'db.counters'
p26
sg19
S'Counters'
p27
sg21
S'Counters table'
p28
stRp29
ag3
(g4
g5
(dp30
g12
S'1'
sg13
S'3'
sg14
S'name'
p31
sg16
S'3'
sg17
S'db.nameval'
p32
sg19
S'Keys'
p33
sg21
S'A table to store key/value pairs'
p34
stRp35
ag3
(g4
g5
(dp36
g12
S'0'
sg13
S'4'
sg14
S'seq'
p37
sg16
S'4'
sg17
S'db.logger'
p38
sg19
S'Logger'
p39
sg21
S"Support for 'p4 logger' command. Logs any changes to \n\t\tchangelists and jobs"
p40
stRp41
ag3
(g4
g5
(dp42
g12
S'0'
sg13
S'5'
sg14
S'name'
p43
sg16
S'5'
sg17
S'db.ldap'
p44
sg19
S'Ldap'
p45
sg21
S'LDAP specifications'
p46
stRp47
ag3
(g4
g5
(dp48
g12
S'2'
sg13
S'6'
sg14
S'id'
p49
sg16
S'6'
sg17
S'db.server'
p50
sg19
S'Server'
p51
sg21
S'Server specifications'
p52
stRp53
ag3
(g4
g5
(dp54
g12
S'0'
sg13
S'7'
sg14
S'id, type, seq'
p55
sg16
S'7'
sg17
S'db.svrview'
p56
sg19
S'SvrView'
p57
sg21
S'View data for servers specifications'
p58
stRp59
ag3
(g4
g5
(dp60
g12
S'1'
sg13
S'8'
sg14
S'id'
p61
sg16
S'8'
sg17
S'db.remote'
p62
sg19
S'Remote'
p63
sg21
S'Remote specifications'
p64
stRp65
ag3
(g4
g5
(dp66
g12
S'1'
sg13
S'9'
sg14
S'id, seq'
p67
sg16
S'9'
sg17
S'db.rmtview'
p68
sg19
S'RmtView'
p69
sg21
S'View data for remote specifications'
p70
stRp71
ag3
(g4
g5
(dp72
g12
S'0'
sg13
S'10'
p73
sg14
S'client, stream, type, seq'
p74
sg16
S'10'
p75
sg17
S'db.stash'
p76
sg19
S'Stash'
p77
sg21
S'Stash data'
p78
stRp79
ag3
(g4
g5
(dp80
g12
S'7'
sg13
S'11'
p81
sg14
S'user'
p82
sg16
S'11'
p83
sg17
S'db.user.rp'
p84
sg19
S'User'
p85
sg21
S"Used by replica server's to store login information"
p86
stRp87
ag3
(g4
g5
(dp88
g12
S'7'
sg13
S'12'
p89
sg14
S'user'
p90
sg16
S'12'
p91
sg17
S'db.user'
p92
sg19
S'User'
p93
sg21
S'User specifications'
p94
stRp95
ag3
(g4
g5
(dp96
g12
S'9'
sg13
S'13'
p97
sg14
S'user, group'
p98
sg16
S'13'
p99
sg17
S'db.group'
p100
sg19
S'Group'
p101
sg21
S'Group specifications'
p102
stRp103
ag3
(g4
g5
(dp104
g12
S'1'
sg13
S'14'
p105
sg14
S'group'
p106
sg16
S'14'
p107
sg17
S'db.groupx'
p108
sg19
S'GroupX'
p109
sg21
S'Per-group data to support group membership controlled by AD/LDAP group membership'
p110
stRp111
ag3
(g4
g5
(dp112
g12
S'1'
sg13
S'15'
p113
sg14
S'name'
p114
sg16
S'15'
p115
sg17
S'db.depot'
p116
sg19
S'Depot'
p117
sg21
S'Depot specifications'
p118
stRp119
ag3
(g4
g5
(dp120
g12
S'1'
sg13
S'16'
p121
sg14
S'stream'
p122
sg16
S'16'
p123
sg17
S'db.stream'
p124
sg19
S'Stream'
p125
sg21
S'Stream specifications'
p126
stRp127
ag3
(g4
g5
(dp128
g12
S'6'
sg13
S'17'
p129
sg14
S'name'
p130
sg16
S'17'
p131
sg17
S'db.domain'
p132
sg19
S'Domain'
p133
sg21
S'Domains: depots, clients, labels, branches, streams, and typemap'
p134
stRp135
ag3
(g4
g5
(dp136
g12
S'3'
sg13
S'18'
p137
sg14
S'name, change, sequence'
p138
sg16
S'18'
p139
sg17
S'db.template'
p140
sg19
S'Template'
p141
sg21
S'Streams templates'
p142
stRp143
ag3
(g4
g5
(dp144
g12
S'0'
sg13
S'19'
p145
sg14
S'shelf, name, sequence'
p146
sg16
S'19'
p147
sg17
S'db.templatesx'
p148
sg19
S'TemplateSx'
p149
sg21
S'Shelved stream templates'
p150
stRp151
ag3
(g4
g5
(dp152
g12
S'0'
sg13
S'20'
p153
sg14
S'client, name, sequence'
p154
sg16
S'20'
p155
sg17
S'db.templatewx'
p156
sg19
S'TemplateWx'
p157
sg21
S'Pending stream templates'
p158
stRp159
ag3
(g4
g5
(dp160
g12
S'1'
sg13
S'21'
p161
sg14
S'name seq'
p162
sg16
S'21'
p163
sg17
S'db.view.rp'
p164
sg19
S'View'
p165
sg21
S'View data for clients of build-server replicas'
p166
stRp167
ag3
(g4
g5
(dp168
g12
S'1'
sg13
S'22'
p169
sg14
S'name, seq'
p170
sg16
S'22'
p171
sg17
S'db.view'
p172
sg19
S'View'
p173
sg21
S'View data for domain records'
p174
stRp175
ag3
(g4
g5
(dp176
g12
S'1'
sg13
S'23'
p177
sg14
S'name, seq'
p178
sg16
S'23'
p179
sg17
S'db.repoview'
p180
sg19
S'View'
p181
sg21
S'Reserved for future use'
p182
stRp183
ag3
(g4
g5
(dp184
g12
S'1'
sg13
S'24'
p185
sg14
S'user, seq'
p186
sg16
S'24'
p187
sg17
S'db.review'
p188
sg19
S'Review'
p189
sg21
S"User's review mappings"
p190
stRp191
ag3
(g4
g5
(dp192
g14
S'toFile, fromFile, startFromRev, endFromRev, \n\t\tstartToRev, endToRev'
p193
sg16
S'29'
p194
sg17
S'db.integed'
p195
sg12
S'0'
sg13
S'25'
p196
sS'seeAlso'
p197
S'db.resolve'
p198
sg19
S'Integed'
p199
sg21
S'Permanent integration records'
p200
stRp201
ag3
(g4
g5
(dp202
g14
S'toFile, fromFile, startFromRev, endFromRev, \n\t\tstartToRev, endToRev'
p203
sg16
S'30'
p204
sg17
S'db.integtx'
p205
sg12
S'0'
sg13
S'26'
p206
sg197
S'db.resolve'
p207
sg19
S'Integed'
p208
sg21
S'Temporary integration records used by task streams'
p209
stRp210
ag3
(g4
g5
(dp211
g14
S'toFile, fromFile, startFromRev'
p212
sg16
S'31'
p213
sg17
S'db.resolve'
p214
sg12
S'1'
sg13
S'27'
p215
sg197
S'db.integed'
p216
sg19
S'Resolve'
p217
sg21
S'Pending integration records'
p218
stRp219
ag3
(g4
g5
(dp220
g14
S'toFile, fromFile, startFromRev'
p221
sg16
S'32'
p222
sg17
S'db.resolvex'
p223
sg12
S'1'
sg13
S'28'
p224
sg197
S'db.integed'
p225
sg19
S'Resolve'
p226
sg21
S'Pending integration records for shelved files'
p227
stRp228
ag3
(g4
g5
(dp229
g14
S'toFile, fromFile, startFromRev'
p230
sg16
S'33'
p231
sg17
S'db.resolveg'
p232
sg12
S'0'
sg13
S'29'
p233
sg197
S'db.integed'
p234
sg19
S'ResolveG'
p235
sg21
S'Reserved for future use'
p236
stRp237
ag3
(g4
g5
(dp238
g12
S'3'
sg13
S'30'
p239
sg14
S'clientFile depotFile haveRev'
p240
sg16
S'26'
p241
sg17
S'db.have.rp'
p242
sg19
S'Have'
p243
sg21
S"Contains the 'have-list' for clients of build-server replicas"
p244
stRp245
ag3
(g4
g5
(dp246
g12
S'3'
sg13
S'31'
p247
sg14
S'clientFile depotFile haveRev'
p248
sg16
S'27'
p249
sg17
S'db.have.pt'
p250
sg19
S'Have'
p251
sg21
S'Placeholder for read-only clients'
p252
stRp253
ag3
(g4
g5
(dp254
g12
S'3'
sg13
S'32'
p255
sg14
S'clientFile'
p256
sg16
S'28'
p257
sg17
S'db.have'
p258
sg19
S'Have'
p259
sg21
S"Contains the 'have-list' for all clients"
p260
stRp261
ag3
(g4
g5
(dp262
g12
S'0'
sg13
S'33'
p263
sg14
S'name, depotFile'
p264
sg16
S'25'
p265
sg17
S'db.label'
p266
sg19
S'Label'
p267
sg21
S'Revisions of files in labels'
p268
stRp269
ag3
(g4
g5
(dp270
g12
S'2'
sg13
S'34'
p271
sg14
S'depotFile, client'
p272
sg16
S'45'
p273
sg17
S'db.locks'
p274
sg19
S'Locks'
p275
sg21
S'Locked/Unlocked files'
p276
stRp277
ag3
(g4
g5
(dp278
g12
S'2'
sg13
S'35'
p279
sg14
S'depotFile, client'
p280
sg16
S'46'
p281
sg17
S'db.locksg'
p282
sg19
S'Locks'
p283
sg21
S'Reserved for future use'
p284
stRp285
ag3
(g4
g5
(dp286
g12
S'1'
sg13
S'36'
p287
sg14
S'depotFile'
p288
sg16
S'50'
p289
sg17
S'db.excl'
p290
sg19
S'ExclusiveLock'
p291
sg21
S'Exclusively locked (+l) files -  enables coordinated file locking in commit/edge server environments'
p292
stRp293
ag3
(g4
g5
(dp294
g14
S'lbrFile, depotFile'
p295
sg16
S'34'
p296
sg17
S'db.archmap'
p297
sS'note'
p298
S'Supercedes db.archive'
p299
sg12
S'0'
sg13
S'37'
p300
sg19
S'ArchMap'
p301
sg21
S'Mapping entries for lazy-copies'
p302
stRp303
ag3
(g4
g5
(dp304
g12
S'9'
sg13
S'38'
p305
sg14
S'depotFile, depotRev'
p306
sg16
S'43'
p307
sg17
S'db.rev'
p308
sg19
S'Rev'
p309
sg21
S'Revision records'
p310
stRp311
ag3
(g4
g5
(dp312
g12
S'9'
sg13
S'39'
p313
sg14
S'depotFile, depotRev'
p314
sg16
S'44'
p315
sg17
S'db.revtx'
p316
sg19
S'Rev'
p317
sg21
S'Task stream revision records'
p318
stRp319
ag3
(g4
g5
(dp320
g12
S'0'
sg13
S'40'
p321
sg14
S'change, depotFile'
p322
sg16
S'42'
p323
sg17
S'db.revcx'
p324
sg19
S'RevCx'
p325
sg21
S'Secondary index of db.rev'
p326
stRp327
ag3
(g4
g5
(dp328
g12
S'9'
sg13
S'41'
p329
sg14
S'depotFile'
p330
sg16
S'35'
p331
sg17
S'db.revdx'
p332
sg19
S'Rev'
p333
sg21
S'Revision records for revisions deleted at the head revision'
p334
stRp335
ag3
(g4
g5
(dp336
g12
S'9'
sg13
S'42'
p337
sg14
S'depotFile'
p338
sg16
S'36'
p339
sg17
S'db.revhx'
p340
sg19
S'Rev'
p341
sg21
S'Revision records for revisions NOT deleted at the head revision'
p342
stRp343
ag3
(g4
g5
(dp344
g14
S'depotFile, depotRev'
p345
sg16
S'37'
p346
sg17
S'db.revpx'
p347
sg298
S'Only populated during content trigger execution to allow \n\t\ttriggers access to the revisions being submitted.'
p348
sg12
S'9'
sg13
S'43'
p349
sg19
S'Rev'
p350
sg21
S'Pending revision records'
p351
stRp352
ag3
(g4
g5
(dp353
g12
S'9'
sg13
S'44'
p354
sg14
S'depotFile, depotRev'
p355
sg16
S'38'
p356
sg17
S'db.revsx'
p357
sg19
S'Rev'
p358
sg21
S'Revision records for spec depot files'
p359
stRp360
ag3
(g4
g5
(dp361
g12
S'9'
sg13
S'45'
p362
sg14
S'depotFile, depotRev, type, action, change'
p363
sg16
S'39'
p364
sg17
S'db.revsh'
p365
sg19
S'Rev'
p366
sg21
S'Revision records for shelved files'
p367
stRp368
ag3
(g4
g5
(dp369
g12
S'9'
sg13
S'46'
p370
sg14
S'depotFile, depotRev'
p371
sg16
S'40'
p372
sg17
S'db.revbx'
p373
sg19
S'Rev'
p374
sg21
S'Revision records for archived files'
p375
stRp376
ag3
(g4
g5
(dp377
g12
S'9'
sg13
S'47'
p378
sg14
S'depotFile'
p379
sg16
S'41'
p380
sg17
S'db.revux'
p381
sg19
S'Rev'
p382
sg21
S'Revision records for unload depot files'
p383
stRp384
ag3
(g4
g5
(dp385
g12
S'10'
p386
sg13
S'48'
p387
sg14
S'clientFile'
p388
sg16
S'47'
p389
sg17
S'db.working'
p390
sg19
S'Working'
p391
sg21
S'Records for work in progress'
p392
stRp393
ag3
(g4
g5
(dp394
g12
S'10'
p395
sg13
S'49'
p396
sg14
S'clientFile'
p397
sg16
S'48'
p398
sg17
S'db.workingx'
p399
sg19
S'Working'
p400
sg21
S'Records for shelved open files'
p401
stRp402
ag3
(g4
g5
(dp403
g12
S'0'
sg13
S'50'
p404
sg14
S'clientFile'
p405
sg16
S'49'
p406
sg17
S'db.workingg'
p407
sg19
S'WorkingG'
p408
sg21
S'Reserved for future use'
p409
stRp410
ag3
(g4
g5
(dp411
g12
S'0'
sg13
S'51'
p412
sg14
S'traitLot, name'
p413
sg16
S'51'
p414
sg17
S'db.traits'
p415
sg19
S'Trait'
p416
sg21
S'Attributes associated with file revisions'
p417
stRp418
ag3
(g4
g5
(dp419
g12
S'3'
sg13
S'52'
p420
sg14
S'seq'
p421
sg16
S'52'
p422
sg17
S'db.trigger'
p423
sg19
S'Trigger'
p424
sg21
S'Trigger specifications'
p425
stRp426
ag3
(g4
g5
(dp427
g12
S'4'
sg13
S'53'
p428
sg14
S'change'
p429
sg16
S'53'
p430
sg17
S'db.change'
p431
sg19
S'Change'
p432
sg21
S'Changelists'
p433
stRp434
ag3
(g4
g5
(dp435
g14
S'change'
p436
sg16
S'54'
p437
sg17
S'db.changex'
p438
sg298
S'contains records for pending changelists only.'
p439
sg12
S'4'
sg13
S'54'
p440
sg19
S'Change'
p441
sg21
S'Subset of db.change - records for pending changelists only'
p442
stRp443
ag3
(g4
g5
(dp444
g12
S'1'
sg13
S'55'
p445
sg14
S'identity'
p446
sg16
S'55'
p447
sg17
S'db.changeidx'
p448
sg19
S'ChangeIdx'
p449
sg21
S'Secondary index of db.change/db.changex'
p450
stRp451
ag3
(g4
g5
(dp452
g12
S'0'
sg13
S'56'
p453
sg14
S'descKey'
p454
sg16
S'56'
p455
sg17
S'db.desc'
p456
sg19
S'Desc'
p457
sg21
S'Change descriptions'
p458
stRp459
ag3
(g4
g5
(dp460
g12
S'0'
sg13
S'57'
p461
sg14
S'repo'
p462
sg16
S'57'
p463
sg17
S'db.repo'
p464
sg19
S'Repo'
p465
sg21
S'Reserved for future use'
p466
stRp467
ag3
(g4
g5
(dp468
g12
S'0'
sg13
S'58'
p469
sg14
S'repo, name, type, action, date, user, ref'
p470
sg16
S'58'
p471
sg17
S'db.refhist'
p472
sg19
S'RefHist'
p473
sg21
S'Reserved for future use'
p474
stRp475
ag3
(g4
g5
(dp476
g12
S'0'
sg13
S'59'
p477
sg14
S'repo, name, type'
p478
sg16
S'59'
p479
sg17
S'db.ref'
p480
sg19
S'Ref'
p481
sg21
S'Reserved for future use'
p482
stRp483
ag3
(g4
g5
(dp484
g12
S'0'
sg13
S'60'
p485
sg14
S'sha'
p486
sg16
S'60'
p487
sg17
S'db.object'
p488
sg19
S'Object'
p489
sg21
S'Reserved for future use'
p490
stRp491
ag3
(g4
g5
(dp492
g12
S'0'
sg13
S'61'
p493
sg14
S'name, repo, ref, type, user, perm'
p494
sg16
S'61'
p495
sg17
S'db.graphperm'
p496
sg19
S'GraphPerm'
p497
sg21
S'Reserved for future use'
p498
stRp499
ag3
(g4
g5
(dp500
g12
S'0'
sg13
S'62'
p501
sg14
S'user,scope'
p502
sg16
S'62'
p503
sg17
S'db.pubkey'
p504
sg19
S'PublicKey'
p505
sg21
S'Reserved for future use'
p506
stRp507
ag3
(g4
g5
(dp508
g14
S'job'
p509
sg16
S'63'
p510
sg17
S'db.job'
p511
sg12
S'0'
sg13
S'63'
p512
sg197
S'db.bodtext'
p513
sg19
S'Job'
p514
sg21
S'Job records'
p515
stRp516
ag3
(g4
g5
(dp517
g14
S'job, change'
p518
sg16
S'64'
p519
sg17
S'db.fix'
p520
sg12
S'1'
sg13
S'64'
p521
sg197
S'db.fixrev'
p522
sg19
S'Fix'
p523
sg21
S'Fix records - indexed by job'
p524
stRp525
ag3
(g4
g5
(dp526
g14
S'change, job'
p527
sg16
S'65'
p528
sg17
S'db.fixrev'
p529
sg12
S'1'
sg13
S'65'
p530
sg197
S'db.fix'
p531
sg19
S'Fix'
p532
sg21
S'Fix records - indexed by change'
p533
stRp534
ag3
(g4
g5
(dp535
g12
S'0'
sg13
S'66'
p536
sg14
S'type, client, toKey, attr, fromKey, fromChange'
p537
sg16
S'66'
p538
sg17
S'db.bodresolve'
p539
sg19
S'BodyResolve'
p540
sg21
S'Resolve data for stream specifications'
p541
stRp542
ag3
(g4
g5
(dp543
g12
S'1'
sg13
S'67'
p544
sg14
S'key, attr'
p545
sg16
S'67'
p546
sg17
S'db.bodtext'
p547
sg19
S'BodyText'
p548
sg21
S'Job data for job attributes'
p549
stRp550
ag3
(g4
g5
(dp551
g12
S'0'
sg13
S'68'
p552
sg14
S'type, key, change, attr'
p553
sg16
S'68'
p554
sg17
S'db.bodtextcx'
p555
sg19
S'BodyTextCx'
p556
sg21
S'Versioned openable spec fields (for future use)'
p557
stRp558
ag3
(g4
g5
(dp559
g12
S'0'
sg13
S'69'
p560
sg14
S'type, key, attr'
p561
sg16
S'69'
p562
sg17
S'db.bodtexthx'
p563
sg19
S'BodyTextHx'
p564
sg21
S'Head revsision of spec fields (for future use)'
p565
stRp566
ag3
(g4
g5
(dp567
g12
S'0'
sg13
S'70'
p568
sg14
S'type, shelf, key, attr'
p569
sg16
S'70'
p570
sg17
S'db.bodtextsx'
p571
sg19
S'BodyTextSx'
p572
sg21
S'Shelved openable spec fields (for future use)'
p573
stRp574
ag3
(g4
g5
(dp575
g12
S'0'
sg13
S'71'
p576
sg14
S'type, client, key, attr'
p577
sg16
S'71'
p578
sg17
S'db.bodtextwx'
p579
sg19
S'BodyTextWx'
p580
sg21
S'Open openable spec fields (for future use)'
p581
stRp582
ag3
(g4
g5
(dp583
g12
S'0'
sg13
S'72'
p584
sg14
S'word, attr, value'
p585
sg16
S'72'
p586
sg17
S'db.ixtext'
p587
sg19
S'IndexText'
p588
sg21
S'Indexing data for generic and job attributes'
p589
stRp590
ag3
(g4
g5
(dp591
g12
S'0'
sg13
S'73'
p592
sg14
S'type, word, attr, value'
p593
sg16
S'73'
p594
sg17
S'db.ixtexthx'
p595
sg19
S'IndexTextHx'
p596
sg21
S'Indexing data for head revsion of all spec fields (for future use)'
p597
stRp598
ag3
(g4
g5
(dp599
g12
S'0'
sg13
S'74'
p600
sg14
S'word, attr, value'
p601
sg16
S'74'
p602
sg17
S'db.uxtext'
p603
sg19
S'IndexText'
p604
sg21
S'Indexing data for Swarm'
p605
stRp606
ag3
(g4
g5
(dp607
g12
S'5'
sg13
S'75'
p608
sg14
S'seq'
p609
sg16
S'75'
p610
sg17
S'db.protect'
p611
sg19
S'Protect'
p612
sg21
S'The protections table'
p613
stRp614
ag3
(g4
g5
(dp615
g12
S'0'
sg13
S'76'
p616
sg14
S'name, seq, type, scope'
p617
sg16
S'76'
p618
sg17
S'db.property'
p619
sg19
S'Property'
p620
sg21
S'Properties'
p621
stRp622
ag3
(g4
g5
(dp623
g12
S'0'
sg13
S'77'
p624
sg14
S'language, id'
p625
sg16
S'77'
p626
sg17
S'db.message'
p627
sg19
S'Message'
p628
sg21
S'System messages'
p629
stRp630
ag3
(g4
g5
(dp631
g12
S'1'
sg13
S'78'
p632
sg14
S'taskid, seq'
p633
sg16
S'78'
p634
sg17
S'db.sendq'
p635
sg19
S'SendQ'
p636
sg21
S'Parallel file transmission work queue'
p637
stRp638
ag3
(g4
g5
(dp639
g12
S'0'
sg13
S'79'
p640
sg14
S'id'
p641
sg16
S'79'
p642
sg17
S'db.jnlack'
p643
sg19
S'JnlAck'
p644
sg21
S'Tracks journal positions of all standby servers'
p645
stRp646
ag3
(g4
g5
(dp647
g12
S'2'
sg13
S'80'
p648
sg14
S'id'
p649
sg16
S'80'
p650
sg17
S'db.monitor'
p651
sg19
S'Monitor'
p652
sg21
S'Helix Server process information'
p653
stRp654
ag3
(g4
g5
(dp655
g19
S'ReplicaArchiveTransfer'
p656
sg17
S'rdb.lbr'
p657
sg21
S'Replica server pending archive transfer table'
p658
stRp659
ag3
(g4
g5
(dp660
g19
S'TinyDb'
p661
sg14
S'fileAndRev'
p662
sg17
S'tiny.db'
p663
sg21
S'Records revision and content data for files using the +T file type modifier'
p664
stRp665
atRp666
stRp667
sg12
S'2016.2'
p668
sS'numUpgrades'
p669
S'26'
p670
sS'recordtypes'
p671
g3
(g4
g5
(dp672
S'record'
p673
g3
(g8
g9
(lp674
g3
(g4
g5
(dp675
S'column'
p676
g3
(g8
g9
(lp677
g3
(g4
g5
(dp678
g19
S'File'
p679
sg17
S'lbrFile'
p680
sg21
S"Specifies the location in the librarian's archives where\n\t\t    the revision may be found"
p681
stRp682
ag3
(g4
g5
(dp683
g19
S'String'
p684
sg17
S'lbrRev'
p685
sg21
S"Revision in the librarian's archives"
p686
stRp687
ag3
(g4
g5
(dp688
g19
S'File'
p689
sg17
S'depotFile'
p690
sg21
S'Name of the file in the depot'
p691
stRp692
ag3
(g4
g5
(dp693
g19
S'Rev'
p694
sg17
S'depotRev'
p695
sg21
S'Name of the file in the depot'
p696
stRp697
ag3
(g4
g5
(dp698
g19
S'FileType'
p699
sg17
S'lbrType'
p700
sg21
S"File type for librarian's purposes"
p701
stRp702
atRp703
sg17
S'Archive'
p704
stRp705
ag3
(g4
g5
(dp706
g676
g3
(g8
g9
(lp707
g3
(g4
g5
(dp708
g19
S'File'
p709
sg17
S'lbrFile'
p710
sg21
S'Paths in the librarian namespace that receive lazy\n\t\t    copies.'
p711
stRp712
ag3
(g4
g5
(dp713
g19
S'File'
p714
sg17
S'depotFile'
p715
sg21
S'Paths in the depot namespace that provide lazy copies.'
p716
stRp717
atRp718
sg17
S'ArchMap'
p719
stRp720
ag3
(g4
g5
(dp721
g676
g3
(g8
g9
(lp722
g3
(g4
g5
(dp723
g19
S'String'
p724
sg17
S'key'
p725
sg21
S'The job to which this attribute belongs'
p726
stRp727
ag3
(g4
g5
(dp728
g19
S'Int'
p729
sg17
S'attr'
p730
sg21
S'The attribute number (from the jobspec) of this attribute'
p731
stRp732
ag3
(g4
g5
(dp733
g19
S'Date'
p734
sg17
S'date'
p735
sg21
S'The date value itself'
p736
stRp737
atRp738
sg17
S'BodyDate'
p739
stRp740
ag3
(g4
g5
(dp741
g676
g3
(g8
g9
(lp742
g3
(g4
g5
(dp743
g19
S'SpecType'
p744
sg17
S'type'
p745
sg21
S'The spec type'
p746
stRp747
ag3
(g4
g5
(dp748
g19
S'Domain'
p749
sg17
S'client'
p750
sg21
S'The client name'
p751
stRp752
ag3
(g4
g5
(dp753
g19
S'String'
p754
sg17
S'toKey'
p755
sg21
S'To Key'
p756
stRp757
ag3
(g4
g5
(dp758
g19
S'Int'
p759
sg17
S'attr'
p760
sg21
S'The attribute value'
p761
stRp762
ag3
(g4
g5
(dp763
g19
S'String'
p764
sg17
S'fromKey'
p765
sg21
S'From key'
p766
stRp767
ag3
(g4
g5
(dp768
g19
S'Change'
p769
sg17
S'fromChange'
p770
sg21
S'From change'
p771
stRp772
ag3
(g4
g5
(dp773
g19
S'String'
p774
sg17
S'baseKey'
p775
sg21
S'Base Key'
p776
stRp777
ag3
(g4
g5
(dp778
g19
S'Change'
p779
sg17
S'baseChange'
p780
sg21
S'Base change'
p781
stRp782
atRp783
sg17
S'BodyResolve'
p784
stRp785
ag3
(g4
g5
(dp786
g676
g3
(g8
g9
(lp787
g3
(g4
g5
(dp788
g19
S'String'
p789
sg17
S'key'
p790
sg21
S'The job to which this attribute belongs'
p791
stRp792
ag3
(g4
g5
(dp793
g19
S'Int'
p794
sg17
S'attr'
p795
sg21
S'The attribute number (from the jobspec) of this attribute'
p796
stRp797
ag3
(g4
g5
(dp798
g19
S'Int'
p799
sg17
S'isBulk'
p800
sg21
S'Indicates whether (1), or not (0) the field is a bulk\n\t\t    text field that should not be indexed.'
p801
stRp802
ag3
(g4
g5
(dp803
g19
S'Text'
p804
sg17
S'text'
p805
sg21
S'The attribute value'
p806
stRp807
atRp808
sg17
S'BodyText'
p809
stRp810
ag3
(g4
g5
(dp811
g676
g3
(g8
g9
(lp812
g3
(g4
g5
(dp813
g19
S'Int'
p814
sg17
S'type'
p815
sg21
S'The type of spec'
p816
stRp817
ag3
(g4
g5
(dp818
g19
S'String'
p819
sg17
S'key'
p820
sg21
S'The spec to which this attribute belongs'
p821
stRp822
ag3
(g4
g5
(dp823
g19
S'Change'
p824
sg17
S'change'
p825
sg21
S'The change to which this attribute belongs'
p826
stRp827
ag3
(g4
g5
(dp828
g19
S'Int'
p829
sg17
S'attr'
p830
sg21
S'The attribute number of this attribute'
p831
stRp832
ag3
(g4
g5
(dp833
g19
S'Text'
p834
sg17
S'text'
p835
sg21
S'The attribute value'
p836
stRp837
atRp838
sg17
S'BodyTextCx'
p839
stRp840
ag3
(g4
g5
(dp841
g676
g3
(g8
g9
(lp842
g3
(g4
g5
(dp843
g19
S'Int'
p844
sg17
S'type'
p845
sg21
S'The type of spec'
p846
stRp847
ag3
(g4
g5
(dp848
g19
S'String'
p849
sg17
S'key'
p850
sg21
S'The spec to which this attribute belongs'
p851
stRp852
ag3
(g4
g5
(dp853
g19
S'Int'
p854
sg17
S'attr'
p855
sg21
S'The attribute number of this attribute'
p856
stRp857
ag3
(g4
g5
(dp858
g19
S'Int'
p859
sg17
S'bulk'
p860
sg21
S'Indicates whether (1), or not (0) the field is a bulk\n\t\t    text field that should not be indexed.'
p861
stRp862
ag3
(g4
g5
(dp863
g19
S'Text'
p864
sg17
S'text'
p865
sg21
S'The attribute value'
p866
stRp867
atRp868
sg17
S'BodyTextHx'
p869
stRp870
ag3
(g4
g5
(dp871
g676
g3
(g8
g9
(lp872
g3
(g4
g5
(dp873
g19
S'Int'
p874
sg17
S'type'
p875
sg21
S'The type of spec'
p876
stRp877
ag3
(g4
g5
(dp878
g19
S'Change'
p879
sg17
S'shelf'
p880
sg21
S'The shelf to which this attribute belongs'
p881
stRp882
ag3
(g4
g5
(dp883
g19
S'String'
p884
sg17
S'key'
p885
sg21
S'The spec to which this attribute belongs'
p886
stRp887
ag3
(g4
g5
(dp888
g19
S'Int'
p889
sg17
S'attr'
p890
sg21
S'The attribute number of this attribute'
p891
stRp892
ag3
(g4
g5
(dp893
g19
S'Text'
p894
sg17
S'text'
p895
sg21
S'The attribute value'
p896
stRp897
ag3
(g4
g5
(dp898
g19
S'Change'
p899
sg17
S'workChange'
p900
sg21
S'The working change'
p901
stRp902
atRp903
sg17
S'BodyTextSx'
p904
stRp905
ag3
(g4
g5
(dp906
g676
g3
(g8
g9
(lp907
g3
(g4
g5
(dp908
g19
S'Int'
p909
sg17
S'type'
p910
sg21
S'The type of spec'
p911
stRp912
ag3
(g4
g5
(dp913
g19
S'String'
p914
sg17
S'client'
p915
sg21
S'The client the spec is opened on'
p916
stRp917
ag3
(g4
g5
(dp918
g19
S'String'
p919
sg17
S'key'
p920
sg21
S'The spec to which this attribute belongs'
p921
stRp922
ag3
(g4
g5
(dp923
g19
S'Int'
p924
sg17
S'attr'
p925
sg21
S'The attribute number of this attribute'
p926
stRp927
ag3
(g4
g5
(dp928
g19
S'Text'
p929
sg17
S'text'
p930
sg21
S'The attribute value'
p931
stRp932
ag3
(g4
g5
(dp933
g19
S'Change'
p934
sg17
S'workChange'
p935
sg21
S'The working change'
p936
stRp937
atRp938
sg17
S'BodyTextWx'
p939
stRp940
ag3
(g4
g5
(dp941
g676
g3
(g8
g9
(lp942
g3
(g4
g5
(dp943
g19
S'Change'
p944
sg17
S'change'
p945
sg21
S'The change number'
p946
stRp947
ag3
(g4
g5
(dp948
g19
S'Change'
p949
sg17
S'descKey'
p950
sg21
S"The description key. Normally the same as 'change', but\n\t\t    may differ if a changelist was renumbered on submission."
p951
stRp952
ag3
(g4
g5
(dp953
g19
S'Domain'
p954
sg17
S'client'
p955
sg21
S'The client from which the change originates'
p956
stRp957
ag3
(g4
g5
(dp958
g19
S'User'
p959
sg17
S'user'
p960
sg21
S'The user who owns the change'
p961
stRp962
ag3
(g4
g5
(dp963
g19
S'Date'
p964
sg17
S'date'
p965
sg21
S'Date and time the changelist was submitted'
p966
stRp967
ag3
(g4
g5
(dp968
g19
S'ChangeStatus'
p969
sg17
S'status'
p970
sg21
S'Status of the change'
p971
stRp972
ag3
(g4
g5
(dp973
g19
S'DescShort'
p974
sg17
S'description'
p975
sg21
S'Short description of the change.'
p976
stRp977
ag3
(g4
g5
(dp978
g19
S'Mapping'
p979
sg17
S'root'
p980
sg21
S'Common path for all files in the changelist'
p981
stRp982
ag3
(g4
g5
(dp983
g19
S'String'
p984
sg17
S'importer'
p985
sg21
S'The user who fetched or pushed this change to this server'
p986
stRp987
ag3
(g4
g5
(dp988
g19
S'String'
p989
sg17
S'identify'
p990
sg21
S'Identifier for this change'
p991
stRp992
ag3
(g4
g5
(dp993
g19
S'Date'
p994
sg17
S'access'
p995
sg21
S'Shelve last access'
p996
stRp997
atRp998
sg17
S'Change'
p999
stRp1000
ag3
(g4
g5
(dp1001
g676
g3
(g8
g9
(lp1002
g3
(g4
g5
(dp1003
g19
S'String'
p1004
sg17
S'identity'
p1005
sg21
S'Identifier for this change'
p1006
stRp1007
ag3
(g4
g5
(dp1008
g19
S'Change'
p1009
sg17
S'change'
p1010
sg21
S'Changelist'
p1011
stRp1012
atRp1013
sg17
S'ChangeIdx'
p1014
stRp1015
ag3
(g4
g5
(dp1016
g676
g3
(g8
g9
(lp1017
g3
(g4
g5
(dp1018
g19
S'String'
p1019
sg17
S'sname'
p1020
sg21
S'Server name'
p1021
stRp1022
ag3
(g4
g5
(dp1023
g19
S'String'
p1024
sg17
S'name'
p1025
sg21
S'Configuration variable name'
p1026
stRp1027
ag3
(g4
g5
(dp1028
g19
S'Value'
p1029
sg17
S'value'
p1030
sg21
S'Configuration variable value'
p1031
stRp1032
atRp1033
sg17
S'Config'
p1034
stRp1035
ag3
(g4
g5
(dp1036
g676
g3
(g8
g9
(lp1037
g3
(g4
g5
(dp1038
g19
S'Counter'
p1039
sg17
S'name'
p1040
sg21
S'Counter name'
p1041
stRp1042
ag3
(g4
g5
(dp1043
g19
S'Value'
p1044
sg17
S'value'
p1045
sg21
S'Counter value'
p1046
stRp1047
atRp1048
sg17
S'Counters'
p1049
stRp1050
ag3
(g4
g5
(dp1051
g676
g3
(g8
g9
(lp1052
g3
(g4
g5
(dp1053
g19
S'Domain'
p1054
sg17
S'name'
p1055
sg21
S'Depot name'
p1056
stRp1057
ag3
(g4
g5
(dp1058
g19
S'DepotType'
p1059
sg17
S'type'
p1060
sg21
S'Type of depot'
p1061
stRp1062
ag3
(g4
g5
(dp1063
g19
S'Text'
p1064
sg17
S'extra'
p1065
sg21
S'For remote depots, the P4PORT address of the remote server.\n\t\t    For spec depots, the field contains a suffix to append to \n\t\t    the filename.'
p1066
stRp1067
ag3
(g4
g5
(dp1068
g19
S'Text'
p1069
sg17
S'map'
p1070
sg21
S"The depot's map (path translation information).  For local \n\t\t    depots, this will be a path relative to the root directory.\n\t\t    For remote depots, this will be specified in terms of the \n\t\t    remote server's namespace."
p1071
stRp1072
atRp1073
sg17
S'Depot'
p1074
stRp1075
ag3
(g4
g5
(dp1076
g676
g3
(g8
g9
(lp1077
g3
(g4
g5
(dp1078
g19
S'Change'
p1079
sg17
S'descKey'
p1080
sg21
S'Original number of the change to which this description\n\t\t    applies. This may differ from the final change number if\n\t\t    the change is renumbered on submission.'
p1081
stRp1082
ag3
(g4
g5
(dp1083
g19
S'Text'
p1084
sg17
S'description'
p1085
sg21
S'The change description itself'
p1086
stRp1087
atRp1088
sg17
S'Desc'
p1089
stRp1090
ag3
(g4
g5
(dp1091
g676
g3
(g8
g9
(lp1092
g3
(g4
g5
(dp1093
g19
S'Domain'
p1094
sg17
S'name'
p1095
sg21
S'Domain name'
p1096
stRp1097
ag3
(g4
g5
(dp1098
g19
S'DomainType'
p1099
sg17
S'type'
p1100
sg21
S'Type of domain'
p1101
stRp1102
ag3
(g4
g5
(dp1103
g19
S'Text'
p1104
sg17
S'extra'
p1105
sg21
S'Formerly "host". Associated host or, for labels, revision \n\t\t    number.'
p1106
stRp1107
ag3
(g4
g5
(dp1108
g19
S'Text'
p1109
sg17
S'mount'
p1110
sg21
S'The client root'
p1111
stRp1112
ag3
(g4
g5
(dp1113
g19
S'Text'
p1114
sg17
S'mount2'
p1115
sg21
S'Alternate client root'
p1116
stRp1117
ag3
(g4
g5
(dp1118
g19
S'Text'
p1119
sg17
S'mount3'
p1120
sg21
S'Alternate client root'
p1121
stRp1122
ag3
(g4
g5
(dp1123
g19
S'User'
p1124
sg17
S'owner'
p1125
sg21
S'Name of user who owns the domain.'
p1126
stRp1127
ag3
(g4
g5
(dp1128
g19
S'Date'
p1129
sg17
S'updateDate'
p1130
sg21
S'Date of last update to domain specification.'
p1131
stRp1132
ag3
(g4
g5
(dp1133
g19
S'Date'
p1134
sg17
S'accessDate'
p1135
sg21
S'Date of last access to domain specification.'
p1136
stRp1137
ag3
(g4
g5
(dp1138
g19
S'DomainOpts'
p1139
sg17
S'options'
p1140
sg21
S'Options for client, label, and branch domains.'
p1141
stRp1142
ag3
(g4
g5
(dp1143
g19
S'Text'
p1144
sg17
S'description'
p1145
sg21
S'Description of domain.'
p1146
stRp1147
ag3
(g4
g5
(dp1148
g19
S'Text'
p1149
sg17
S'stream'
p1150
sg21
S'Associated stream for client records'
p1151
stRp1152
ag3
(g4
g5
(dp1153
g19
S'Text'
p1154
sg17
S'serverid'
p1155
sg21
S'Associated server ID for client records'
p1156
stRp1157
ag3
(g4
g5
(dp1158
g19
S'Int'
p1159
sg17
S'partition'
p1160
sg21
S'Currently unused. Reserved for future use'
p1161
stRp1162
atRp1163
sg17
S'Domain'
p1164
stRp1165
ag3
(g4
g5
(dp1166
g676
g3
(g8
g9
(lp1167
g3
(g4
g5
(dp1168
g19
S'File'
p1169
sg17
S'depotFile'
p1170
sg21
S'The file locked'
p1171
stRp1172
ag3
(g4
g5
(dp1173
g19
S'Domain'
p1174
sg17
S'client'
p1175
sg21
S'The client for which the file is locked'
p1176
stRp1177
ag3
(g4
g5
(dp1178
g19
S'User'
p1179
sg17
S'user'
p1180
sg21
S'The user for which the file is locked'
p1181
stRp1182
atRp1183
sg17
S'ExclusiveLock'
p1184
stRp1185
ag3
(g4
g5
(dp1186
g676
g3
(g8
g9
(lp1187
g3
(g4
g5
(dp1188
g19
S'String'
p1189
sg17
S'job'
p1190
sg21
S'Job name'
p1191
stRp1192
ag3
(g4
g5
(dp1193
g19
S'Change'
p1194
sg17
S'change'
p1195
sg21
S'Changelist number'
p1196
stRp1197
ag3
(g4
g5
(dp1198
g19
S'Date'
p1199
sg17
S'date'
p1200
sg21
S'Date fix was recorded (may differ from date change was\n\t\t    submitted).'
p1201
stRp1202
ag3
(g4
g5
(dp1203
g19
S'FixStatus'
p1204
sg17
S'status'
p1205
sg21
S'Status of the job'
p1206
stRp1207
ag3
(g4
g5
(dp1208
g19
S'Domain'
p1209
sg17
S'client'
p1210
sg21
S'The client where the fix originated'
p1211
stRp1212
ag3
(g4
g5
(dp1213
g19
S'User'
p1214
sg17
S'user'
p1215
sg21
S'The user who fixed the job'
p1216
stRp1217
atRp1218
sg17
S'Fix'
p1219
stRp1220
ag3
(g4
g5
(dp1221
g676
g3
(g8
g9
(lp1222
g3
(g4
g5
(dp1223
g19
S'String'
p1224
sg17
S'name'
p1225
sg21
S'Name'
p1226
stRp1227
ag3
(g4
g5
(dp1228
g19
S'String'
p1229
sg17
S'repo'
p1230
sg21
S'Repo'
p1231
stRp1232
ag3
(g4
g5
(dp1233
g19
S'String'
p1234
sg17
S'ref'
p1235
sg21
S'Ref'
p1236
stRp1237
ag3
(g4
g5
(dp1238
g19
S'Int'
p1239
sg17
S'type'
p1240
sg21
S'Type'
p1241
stRp1242
ag3
(g4
g5
(dp1243
g19
S'User'
p1244
sg17
S'user'
p1245
sg21
S'User'
p1246
stRp1247
ag3
(g4
g5
(dp1248
g19
S'String'
p1249
sg17
S'perm'
p1250
sg21
S'Perm'
p1251
stRp1252
atRp1253
sg17
S'GraphPerm'
p1254
stRp1255
ag3
(g4
g5
(dp1256
g676
g3
(g8
g9
(lp1257
g3
(g4
g5
(dp1258
g19
S'User'
p1259
sg17
S'user'
p1260
sg21
S'User name'
p1261
stRp1262
ag3
(g4
g5
(dp1263
g19
S'User'
p1264
sg17
S'group'
p1265
sg21
S'Group name'
p1266
stRp1267
ag3
(g4
g5
(dp1268
g19
S'UserType'
p1269
sg17
S'type'
p1270
sg21
S'Type of user in this group.'
p1271
stRp1272
ag3
(g4
g5
(dp1273
g19
S'MaxResults'
p1274
sg17
S'maxResults'
p1275
sg21
S'MaxResults setting for the group.'
p1276
stRp1277
ag3
(g4
g5
(dp1278
g19
S'MaxScanRows'
p1279
sg17
S'maxScanRows'
p1280
sg21
S'MaxScanRows setting for the group.'
p1281
stRp1282
ag3
(g4
g5
(dp1283
g19
S'MaxLockTime'
p1284
sg17
S'maxLockTime'
p1285
sg21
S'MaxLockTime setting for the group.'
p1286
stRp1287
ag3
(g4
g5
(dp1288
g19
S'MaxOpenFiles'
p1289
sg17
S'maxOpenFiles'
p1290
sg21
S'MaxOpenFiles setting for the group.'
p1291
stRp1292
ag3
(g4
g5
(dp1293
g19
S'Int'
p1294
sg17
S'timeout'
p1295
sg21
S'Length of time (in seconds) a login ticket remains valid.'
p1296
stRp1297
ag3
(g4
g5
(dp1298
g19
S'Int'
p1299
sg17
S'passwordTimeout'
p1300
sg21
S'Length of time (in seconds) a password remains valid for users in the group.'
p1301
stRp1302
atRp1303
sg17
S'Group'
p1304
stRp1305
ag3
(g4
g5
(dp1306
g676
g3
(g8
g9
(lp1307
g3
(g4
g5
(dp1308
g19
S'User'
p1309
sg17
S'group'
p1310
sg21
S'Group name'
p1311
stRp1312
ag3
(g4
g5
(dp1313
g19
S'String'
p1314
sg17
S'ldapConf'
p1315
sg21
S"The LDAP configuration to use when populating the group's user list from an LDAP query"
p1316
stRp1317
ag3
(g4
g5
(dp1318
g19
S'String'
p1319
sg17
S'ldapSearchQuery'
p1320
sg21
S'The LDAP query used to identify the members of the group'
p1321
stRp1322
ag3
(g4
g5
(dp1323
g19
S'String'
p1324
sg17
S'ldapUserAttribute'
p1325
sg21
S"The LDAP attribute that represents the user's username"
p1326
stRp1327
ag3
(g4
g5
(dp1328
g19
S'String'
p1329
sg17
S'ldapDNAttribute'
p1330
sg21
S"The LDAP attribute that represents the user's DN"
p1331
stRp1332
atRp1333
sg17
S'GroupX'
p1334
stRp1335
ag3
(g4
g5
(dp1336
g676
g3
(g8
g9
(lp1337
g3
(g4
g5
(dp1338
g19
S'File'
p1339
sg17
S'clientFile'
p1340
sg21
S'The file in its location on the client'
p1341
stRp1342
ag3
(g4
g5
(dp1343
g19
S'File'
p1344
sg17
S'depotFile'
p1345
sg21
S'The file in the depot'
p1346
stRp1347
ag3
(g4
g5
(dp1348
g19
S'Rev'
p1349
sg17
S'haveRev'
p1350
sg21
S'The revision synced to the client'
p1351
stRp1352
ag3
(g4
g5
(dp1353
g19
S'FileType'
p1354
sg17
S'type'
p1355
sg21
S'The filetype of the synced revision'
p1356
stRp1357
ag3
(g4
g5
(dp1358
g19
S'Date'
p1359
sg17
S'time'
p1360
sg21
S'The sync time of the synced revision'
p1361
stRp1362
atRp1363
sg17
S'Have'
p1364
stRp1365
ag3
(g4
g5
(dp1366
g676
g3
(g8
g9
(lp1367
g3
(g4
g5
(dp1368
g19
S'Date'
p1369
sg17
S'date'
p1370
sg21
S'Date value'
p1371
stRp1372
ag3
(g4
g5
(dp1373
g19
S'Int'
p1374
sg17
S'attr'
p1375
sg21
S'The attribute number (from the jobspec) to which this\n\t\t    date belongs'
p1376
stRp1377
ag3
(g4
g5
(dp1378
g19
S'String'
p1379
sg17
S'value'
p1380
sg21
S'A job name'
p1381
stRp1382
atRp1383
sg17
S'IndexDate'
p1384
stRp1385
ag3
(g4
g5
(dp1386
g676
g3
(g8
g9
(lp1387
g3
(g4
g5
(dp1388
g19
S'String'
p1389
sg17
S'word'
p1390
sg21
S'The word being indexed'
p1391
stRp1392
ag3
(g4
g5
(dp1393
g19
S'Int'
p1394
sg17
S'attr'
p1395
sg21
S'The attribute number to which this word belongs. For\n\t\t    job data, the attribute number from the jobspec.'
p1396
stRp1397
ag3
(g4
g5
(dp1398
g19
S'String'
p1399
sg17
S'value'
p1400
sg21
S'For job data, a job name. For generic data, the value\n\t\t    of the index keyed by the word.'
p1401
stRp1402
atRp1403
sg17
S'IndexText'
p1404
stRp1405
ag3
(g4
g5
(dp1406
g676
g3
(g8
g9
(lp1407
g3
(g4
g5
(dp1408
g19
S'String'
p1409
sg17
S'type'
p1410
sg21
S'The type'
p1411
stRp1412
ag3
(g4
g5
(dp1413
g19
S'String'
p1414
sg17
S'word'
p1415
sg21
S'The word being indexed'
p1416
stRp1417
ag3
(g4
g5
(dp1418
g19
S'Int'
p1419
sg17
S'attr'
p1420
sg21
S'The attribute number to which this word belongs.'
p1421
stRp1422
ag3
(g4
g5
(dp1423
g19
S'String'
p1424
sg17
S'value'
p1425
sg21
S'The value of the index keyed by the word.'
p1426
stRp1427
atRp1428
sg17
S'IndexTextHx'
p1429
stRp1430
ag3
(g4
g5
(dp1431
g676
g3
(g8
g9
(lp1432
g3
(g4
g5
(dp1433
g19
S'File'
p1434
sg17
S'toFile'
p1435
sg21
S'File to which integration is being performed (target).'
p1436
stRp1437
ag3
(g4
g5
(dp1438
g19
S'File'
p1439
sg17
S'fromFile'
p1440
sg21
S'File from which integration is being performed (source).'
p1441
stRp1442
ag3
(g4
g5
(dp1443
g19
S'Rev'
p1444
sg17
S'startFromRev'
p1445
sg21
S'Starting revision of fromFile'
p1446
stRp1447
ag3
(g4
g5
(dp1448
g19
S'Rev'
p1449
sg17
S'endFromRev'
p1450
sg21
S'Ending revision of fromFile'
p1451
stRp1452
ag3
(g4
g5
(dp1453
g19
S'Rev'
p1454
sg17
S'toRev'
p1455
sg21
S'Revision of toFile into which integration is being \n\t\t    performed.'
p1456
stRp1457
ag3
(g4
g5
(dp1458
g19
S'IntegHow'
p1459
sg17
S'how'
p1460
sg21
S'Integration method: variations on \n\t\t    merge/branch/copy/ignore/delete.'
p1461
stRp1462
ag3
(g4
g5
(dp1463
g19
S'Int'
p1464
sg17
S'committed'
p1465
sg21
S'Flag: 0 for pending, 1 for committed.'
p1466
stRp1467
ag3
(g4
g5
(dp1468
g19
S'ResolvedStatus'
p1469
sg17
S'resolved'
p1470
sg21
S'Resolution method: unresolved, resolved manually, \n\t\t    or resolved as part of a branch or delete.'
p1471
stRp1472
ag3
(g4
g5
(dp1473
g19
S'Change'
p1474
sg17
S'change'
p1475
sg21
S'Changelist associated with the integration.'
p1476
stRp1477
atRp1478
sg17
S'Integ'
p1479
stRp1480
ag3
(g4
g5
(dp1481
g676
g3
(g8
g9
(lp1482
g3
(g4
g5
(dp1483
g19
S'File'
p1484
sg17
S'toFile'
p1485
sg21
S'File to which integration is being performed (target).'
p1486
stRp1487
ag3
(g4
g5
(dp1488
g19
S'File'
p1489
sg17
S'fromFile'
p1490
sg21
S'File from which integration is being performed (source).'
p1491
stRp1492
ag3
(g4
g5
(dp1493
g19
S'Rev'
p1494
sg17
S'startFromRev'
p1495
sg21
S'Starting revision of fromFile'
p1496
stRp1497
ag3
(g4
g5
(dp1498
g19
S'Rev'
p1499
sg17
S'endFromRev'
p1500
sg21
S'Ending revision of fromFile'
p1501
stRp1502
ag3
(g4
g5
(dp1503
g19
S'Rev'
p1504
sg17
S'startToRev'
p1505
sg21
S'Start revision of toFile into which integration was \n\t\t    performed.'
p1506
stRp1507
ag3
(g4
g5
(dp1508
g19
S'Rev'
p1509
sg17
S'endToRev'
p1510
sg21
S'End revision of toFile into which integration was \n\t\t    performed. Only varies from startToRev for reverse \n\t\t    integration records.'
p1511
stRp1512
ag3
(g4
g5
(dp1513
g19
S'IntegHow'
p1514
sg17
S'how'
p1515
sg21
S'Integration method: variations on \n\t\t    merge/branch/copy/ignore/delete.'
p1516
stRp1517
ag3
(g4
g5
(dp1518
g19
S'Change'
p1519
sg17
S'change'
p1520
sg21
S'Changelist associated with the integration.'
p1521
stRp1522
atRp1523
sg17
S'Integed'
p1524
stRp1525
ag3
(g4
g5
(dp1526
g676
g3
(g8
g9
(lp1527
g3
(g4
g5
(dp1528
g19
S'Domain'
p1529
sg17
S'serverId'
p1530
sg21
S'The serverId of the standby for whom this record applies'
p1531
stRp1532
ag3
(g4
g5
(dp1533
g19
S'Date'
p1534
sg17
S'lastUpdate'
p1535
sg21
S'The date and time of last update'
p1536
stRp1537
ag3
(g4
g5
(dp1538
g19
S'ServerServiceType'
p1539
sg17
S'serverType'
p1540
sg21
S'The server services offered by this standby'
p1541
stRp1542
ag3
(g4
g5
(dp1543
g19
S'Int'
p1544
sg17
S'persistedJnl'
p1545
sg21
S'The last journal number persisted by this standby'
p1546
stRp1547
ag3
(g4
g5
(dp1548
g19
S'Int64'
p1549
sg17
S'persistedPos'
p1550
sg21
S'The last journal position persisted by this standby'
p1551
stRp1552
ag3
(g4
g5
(dp1553
g19
S'Int'
p1554
sg17
S'isAlive'
p1555
sg21
S'1 = alive'
p1556
stRp1557
ag3
(g4
g5
(dp1558
g19
S'Int'
p1559
sg17
S'appliedJnl'
p1560
sg21
S'The last journal number applied to this standby'
p1561
stRp1562
ag3
(g4
g5
(dp1563
g19
S'Int64'
p1564
sg17
S'appliedPos'
p1565
sg21
S'The last journal position applied to this standby'
p1566
stRp1567
atRp1568
sg17
S'JnlAck'
p1569
stRp1570
ag3
(g4
g5
(dp1571
g676
g3
(g8
g9
(lp1572
g3
(g4
g5
(dp1573
g19
S'String'
p1574
sg17
S'job'
p1575
sg21
S'The job name'
p1576
stRp1577
ag3
(g4
g5
(dp1578
g19
S'User'
p1579
sg17
S'xuser'
p1580
sg21
S'User name: defunct'
p1581
stRp1582
ag3
(g4
g5
(dp1583
g19
S'Date'
p1584
sg17
S'xdate'
p1585
sg21
S'The date: defunct'
p1586
stRp1587
ag3
(g4
g5
(dp1588
g19
S'JobStat'
p1589
sg17
S'xstatus'
p1590
sg21
S'Job status: defunct'
p1591
stRp1592
ag3
(g4
g5
(dp1593
g19
S'DescShort'
p1594
sg17
S'description'
p1595
sg21
S'Short description'
p1596
stRp1597
atRp1598
sg17
S'Job'
p1599
stRp1600
ag3
(g4
g5
(dp1601
g676
g3
(g8
g9
(lp1602
g3
(g4
g5
(dp1603
g19
S'String'
p1604
sg17
S'xjob'
p1605
sg21
S'The job name'
p1606
stRp1607
ag3
(g4
g5
(dp1608
g19
S'Text'
p1609
sg17
S'xdescription'
p1610
sg21
S'Jobdescription'
p1611
stRp1612
atRp1613
sg17
S'JobDesc'
p1614
stRp1615
ag3
(g4
g5
(dp1616
g676
g3
(g8
g9
(lp1617
g3
(g4
g5
(dp1618
g19
S'Key'
p1619
sg17
S'name'
p1620
sg21
S'Key name'
p1621
stRp1622
ag3
(g4
g5
(dp1623
g19
S'Value'
p1624
sg17
S'value'
p1625
sg21
S'Key value'
p1626
stRp1627
atRp1628
sg17
S'Keys'
p1629
stRp1630
ag3
(g4
g5
(dp1631
g676
g3
(g8
g9
(lp1632
g3
(g4
g5
(dp1633
g19
S'Domain'
p1634
sg17
S'name'
p1635
sg21
S'Name of the label'
p1636
stRp1637
ag3
(g4
g5
(dp1638
g19
S'File'
p1639
sg17
S'depotFile'
p1640
sg21
S'File name'
p1641
stRp1642
ag3
(g4
g5
(dp1643
g19
S'Rev'
p1644
sg17
S'haveRev'
p1645
sg21
S'The revision of the file in the label'
p1646
stRp1647
atRp1648
sg17
S'Label'
p1649
stRp1650
ag3
(g4
g5
(dp1651
g676
g3
(g8
g9
(lp1652
g3
(g4
g5
(dp1653
g19
S'String'
p1654
sg17
S'name'
p1655
sg21
S'The LDAP configuration name'
p1656
stRp1657
ag3
(g4
g5
(dp1658
g19
S'String'
p1659
sg17
S'host'
p1660
sg21
S'The FQDN of the directory server'
p1661
stRp1662
ag3
(g4
g5
(dp1663
g19
S'String'
p1664
sg17
S'port'
p1665
sg21
S'The port number on which to connect to the directory server'
p1666
stRp1667
ag3
(g4
g5
(dp1668
g19
S'String'
p1669
sg17
S'ssl'
p1670
sg21
S"The encryption method to use when connecting to the The FQDN of the directory server.\n\t\t\tOptions are: 'none', 'ssl' and 'tls'"
p1671
stRp1672
ag3
(g4
g5
(dp1673
g19
S'String'
p1674
sg17
S'type'
p1675
sg21
S"The bind method to use with this directory.  Options are: 'simple', 'search' and 'sasl'."
p1676
stRp1677
ag3
(g4
g5
(dp1678
g19
S'String'
p1679
sg17
S'pattern'
p1680
sg21
S"The DN used to bind against to validate the user's credentials."
p1681
stRp1682
ag3
(g4
g5
(dp1683
g19
S'String'
p1684
sg17
S'basedn'
p1685
sg21
S'The DN from which to start the search for the user object'
p1686
stRp1687
ag3
(g4
g5
(dp1688
g19
S'String'
p1689
sg17
S'filter'
p1690
sg21
S'The LDAP query filter to use to identify the user object which will be used to bind against'
p1691
stRp1692
ag3
(g4
g5
(dp1693
g19
S'String'
p1694
sg17
S'scope'
p1695
sg21
S'The scope to use when searching for the user records. Options are:\n                 0 = baseonly - Just the BaseDN object\n                 1 = children - The BaseDN and its direct children\n                 2 = subtree - The BaseDN and all objects below it'
p1696
stRp1697
ag3
(g4
g5
(dp1698
g19
S'String'
p1699
sg17
S'binddn'
p1700
sg21
S'The DN to bind against in order to search the directory'
p1701
stRp1702
ag3
(g4
g5
(dp1703
g19
S'String'
p1704
sg17
S'bindpass'
p1705
sg21
S'The password for the BindDN record'
p1706
stRp1707
ag3
(g4
g5
(dp1708
g19
S'String'
p1709
sg17
S'realm'
p1710
sg21
S'The optional realm to use when authenticating the user via SASL'
p1711
stRp1712
ag3
(g4
g5
(dp1713
g19
S'String'
p1714
sg17
S'grpbasedn'
p1715
sg21
S'The search base for performing the group search. If unset this will default to the SearchBaseDN'
p1716
stRp1717
ag3
(g4
g5
(dp1718
g19
S'String'
p1719
sg17
S'grpfilter'
p1720
sg21
S'The filter to use for the group search'
p1721
stRp1722
ag3
(g4
g5
(dp1723
g19
S'String'
p1724
sg17
S'grpscope'
p1725
sg21
S'The scope to use when performing the group search.Options are:\n \t\t\t\t0 = baseonly - Just the BaseDN object\n\t\t\t\t1 = children - The BaseDN and its direct children\n\t\t\t\t2 = subtree - The BaseDN and all objects below it'
p1726
stRp1727
ag3
(g4
g5
(dp1728
g19
S'String'
p1729
sg17
S'options'
p1730
sg21
S'LDAP Options: [no]downcase [no]getattrs [no]realminusername'
p1731
stRp1732
ag3
(g4
g5
(dp1733
g19
S'String'
p1734
sg17
S'attruid'
p1735
sg21
S"The name of the attribute in the directory's user records that contain the users' UIDs"
p1736
stRp1737
ag3
(g4
g5
(dp1738
g19
S'String'
p1739
sg17
S'attremail'
p1740
sg21
S"The name of the attribute in the directory's user records that contain the users' email addresses."
p1741
stRp1742
ag3
(g4
g5
(dp1743
g19
S'String'
p1744
sg17
S'attrename'
p1745
sg21
S"The name(s) of the attribute(s) in the directory's user records that contain the users' full names."
p1746
stRp1747
atRp1748
sg17
S'Ldap'
p1749
stRp1750
ag3
(g4
g5
(dp1751
g676
g3
(g8
g9
(lp1752
g3
(g4
g5
(dp1753
g19
S'File'
p1754
sg17
S'depotFile'
p1755
sg21
S'File in depot'
p1756
stRp1757
ag3
(g4
g5
(dp1758
g19
S'Domain'
p1759
sg17
S'client'
p1760
sg21
S'Domain (client) in which file is open'
p1761
stRp1762
ag3
(g4
g5
(dp1763
g19
S'User'
p1764
sg17
S'user'
p1765
sg21
S'User who presently has the file open'
p1766
stRp1767
ag3
(g4
g5
(dp1768
g19
S'Action'
p1769
sg17
S'action'
p1770
sg21
S'Action file is open for: add, edit, delete, branch,\n\t\t    integrate, or import'
p1771
stRp1772
ag3
(g4
g5
(dp1773
g19
S'Int'
p1774
sg17
S'isLocked'
p1775
sg21
S'Flag: 0 for unlocked, 1 for locked'
p1776
stRp1777
ag3
(g4
g5
(dp1778
g19
S'Int'
p1779
sg17
S'change'
p1780
sg21
S'Changelist in which the revision is open: 0 for the\n\t\t    default changelist'
p1781
stRp1782
atRp1783
sg17
S'Locks'
p1784
stRp1785
ag3
(g4
g5
(dp1786
g676
g3
(g8
g9
(lp1787
g3
(g4
g5
(dp1788
g19
S'Int'
p1789
sg17
S'seq'
p1790
sg21
S'Sequence number of event'
p1791
stRp1792
ag3
(g4
g5
(dp1793
g19
S'String'
p1794
sg17
S'key'
p1795
sg21
S"Either the word 'change' or the word 'job'"
p1796
stRp1797
ag3
(g4
g5
(dp1798
g19
S'String'
p1799
sg17
S'attr'
p1800
sg21
S'The number of the change, or name of the job that was \n\t\t    altered.'
p1801
stRp1802
atRp1803
sg17
S'Logger'
p1804
stRp1805
ag3
(g4
g5
(dp1806
g676
g3
(g8
g9
(lp1807
g3
(g4
g5
(dp1808
g19
S'String'
p1809
sg17
S'language'
p1810
sg21
S'The language for which this message applies'
p1811
stRp1812
ag3
(g4
g5
(dp1813
g19
S'Int'
p1814
sg17
S'id'
p1815
sg21
S'The message number'
p1816
stRp1817
ag3
(g4
g5
(dp1818
g19
S'String'
p1819
sg17
S'message'
p1820
sg21
S'The message text'
p1821
stRp1822
atRp1823
sg17
S'Message'
p1824
stRp1825
ag3
(g4
g5
(dp1826
g676
g3
(g8
g9
(lp1827
g3
(g4
g5
(dp1828
g19
S'Int'
p1829
sg17
S'id'
p1830
sg21
S'Thread/process id'
p1831
stRp1832
ag3
(g4
g5
(dp1833
g19
S'User'
p1834
sg17
S'user'
p1835
sg21
S'Username of the user running the command'
p1836
stRp1837
ag3
(g4
g5
(dp1838
g19
S'String'
p1839
sg17
S'function'
p1840
sg21
S'The command being executed.'
p1841
stRp1842
ag3
(g4
g5
(dp1843
g19
S'String'
p1844
sg17
S'args'
p1845
sg21
S'Arguments passed to the command'
p1846
stRp1847
ag3
(g4
g5
(dp1848
g19
S'Date'
p1849
sg17
S'startDate'
p1850
sg21
S'The date and time the command started'
p1851
stRp1852
ag3
(g4
g5
(dp1853
g19
S'Int'
p1854
sg17
S'runstate'
p1855
sg21
S'Flag: 0 for running, 1 for terminated, 2 for paused'
p1856
stRp1857
ag3
(g4
g5
(dp1858
g19
S'Domain'
p1859
sg17
S'client'
p1860
sg21
S'The client workspace'
p1861
stRp1862
ag3
(g4
g5
(dp1863
g19
S'Text'
p1864
sg17
S'host'
p1865
sg21
S'The IP address of the client'
p1866
stRp1867
ag3
(g4
g5
(dp1868
g19
S'Text'
p1869
sg17
S'prog'
p1870
sg21
S'The name (and version) of the client program'
p1871
stRp1872
ag3
(g4
g5
(dp1873
g19
S'Text'
p1874
sg17
S'lockInfo'
p1875
sg21
S'Table locking information for command'
p1876
stRp1877
atRp1878
sg17
S'Monitor'
p1879
stRp1880
ag3
(g4
g5
(dp1881
g676
g3
(g8
g9
(lp1882
g3
(g4
g5
(dp1883
g19
S'SHA1'
p1884
sg17
S'sha'
p1885
sg21
S'SHA1'
p1886
stRp1887
ag3
(g4
g5
(dp1888
g19
S'Int'
p1889
sg17
S'type'
p1890
sg21
S'Type'
p1891
stRp1892
ag3
(g4
g5
(dp1893
g19
S'Octet'
p1894
sg17
S'data'
p1895
sg21
S'VersionData'
p1896
stRp1897
atRp1898
sg17
S'Object'
p1899
stRp1900
ag3
(g4
g5
(dp1901
g676
g3
(g8
g9
(lp1902
g3
(g4
g5
(dp1903
g19
S'String'
p1904
sg17
S'name'
p1905
sg21
S'The property name'
p1906
stRp1907
ag3
(g4
g5
(dp1908
g19
S'String'
p1909
sg17
S'sequence'
p1910
sg21
S'Sequence number of property'
p1911
stRp1912
ag3
(g4
g5
(dp1913
g19
S'Int'
p1914
sg17
S'type'
p1915
sg21
S"1=user, 2=group; set if '-u | -g' option used with 'p4 property'"
p1916
stRp1917
ag3
(g4
g5
(dp1918
g19
S'String'
p1919
sg17
S'scope'
p1920
sg21
S'The user or group the property applies to'
p1921
stRp1922
ag3
(g4
g5
(dp1923
g19
S'String'
p1924
sg17
S'value'
p1925
sg21
S'The property value'
p1926
stRp1927
ag3
(g4
g5
(dp1928
g19
S'String'
p1929
sg17
S'date'
p1930
sg21
S'The date/time the property was last updated'
p1931
stRp1932
ag3
(g4
g5
(dp1933
g19
S'String'
p1934
sg17
S'user'
p1935
sg21
S'The user that last modified the property'
p1936
stRp1937
atRp1938
sg17
S'Property'
p1939
stRp1940
ag3
(g4
g5
(dp1941
g676
g3
(g8
g9
(lp1942
g3
(g4
g5
(dp1943
g19
S'Int'
p1944
sg17
S'seq'
p1945
sg21
S'Sequence number: for ordering the protections table'
p1946
stRp1947
ag3
(g4
g5
(dp1948
g19
S'Int'
p1949
sg17
S'isGroup'
p1950
sg21
S'Flag: 0 for a per-user setting, 1 for a per-group setting.'
p1951
stRp1952
ag3
(g4
g5
(dp1953
g19
S'UserWild'
p1954
sg17
S'user'
p1955
sg21
S'User(s), or Group(s) for whom this record applies.'
p1956
stRp1957
ag3
(g4
g5
(dp1958
g19
S'DomainWild'
p1959
sg17
S'host'
p1960
sg21
S'Domain(s) (IP addresses) for which this record applies.'
p1961
stRp1962
ag3
(g4
g5
(dp1963
g19
S'Perm'
p1964
sg17
S'perm'
p1965
sg21
S'Permissions to be granted/revoked'
p1966
stRp1967
ag3
(g4
g5
(dp1968
g19
S'MapFlag'
p1969
sg17
S'mapFlag'
p1970
sg21
S'Flag: Map the files in or out?'
p1971
stRp1972
ag3
(g4
g5
(dp1973
g19
S'Mapping'
p1974
sg17
S'depotFile'
p1975
sg21
S'Files to be mapped in or out.'
p1976
stRp1977
ag3
(g4
g5
(dp1978
g19
S'String'
p1979
sg17
S'subPath'
p1980
sg21
S'Root path of the sub-protections table'
p1981
stRp1982
ag3
(g4
g5
(dp1983
g19
S'Date'
p1984
sg17
S'update'
p1985
sg21
S'Date this specification was last modified'
p1986
stRp1987
atRp1988
sg17
S'Protect'
p1989
stRp1990
ag3
(g4
g5
(dp1991
g676
g3
(g8
g9
(lp1992
g3
(g4
g5
(dp1993
g19
S'String'
p1994
sg17
S'user'
p1995
sg21
S'User'
p1996
stRp1997
ag3
(g4
g5
(dp1998
g19
S'String'
p1999
sg17
S'scope'
p2000
sg21
S'Scope'
p2001
stRp2002
ag3
(g4
g5
(dp2003
g19
S'String'
p2004
sg17
S'key'
p2005
sg21
S'Key'
p2006
stRp2007
ag3
(g4
g5
(dp2008
g19
S'Digest'
p2009
sg17
S'digest'
p2010
sg21
S'Digest'
p2011
stRp2012
atRp2013
sg17
S'PublicKey'
p2014
stRp2015
ag3
(g4
g5
(dp2016
g676
g3
(g8
g9
(lp2017
g3
(g4
g5
(dp2018
g19
S'String'
p2019
sg17
S'repo'
p2020
sg21
S'Repo'
p2021
stRp2022
ag3
(g4
g5
(dp2023
g19
S'String'
p2024
sg17
S'name'
p2025
sg21
S'Name'
p2026
stRp2027
ag3
(g4
g5
(dp2028
g19
S'Int'
p2029
sg17
S'type'
p2030
sg21
S'Type'
p2031
stRp2032
ag3
(g4
g5
(dp2033
g19
S'String'
p2034
sg17
S'ref'
p2035
sg21
S'Ref'
p2036
stRp2037
ag3
(g4
g5
(dp2038
g19
S'String'
p2039
sg17
S'symref'
p2040
sg21
S'Symref'
p2041
stRp2042
atRp2043
sg17
S'Ref'
p2044
stRp2045
ag3
(g4
g5
(dp2046
g676
g3
(g8
g9
(lp2047
g3
(g4
g5
(dp2048
g19
S'String'
p2049
sg17
S'repo'
p2050
sg21
S'Repo'
p2051
stRp2052
ag3
(g4
g5
(dp2053
g19
S'String'
p2054
sg17
S'name'
p2055
sg21
S'Name'
p2056
stRp2057
ag3
(g4
g5
(dp2058
g19
S'Int'
p2059
sg17
S'type'
p2060
sg21
S'Type'
p2061
stRp2062
ag3
(g4
g5
(dp2063
g19
S'Int'
p2064
sg17
S'action'
p2065
sg21
S'Action'
p2066
stRp2067
ag3
(g4
g5
(dp2068
g19
S'Date'
p2069
sg17
S'date'
p2070
sg21
S'Date'
p2071
stRp2072
ag3
(g4
g5
(dp2073
g19
S'User'
p2074
sg17
S'user'
p2075
sg21
S'User'
p2076
stRp2077
ag3
(g4
g5
(dp2078
g19
S'String'
p2079
sg17
S'ref'
p2080
sg21
S'Ref'
p2081
stRp2082
ag3
(g4
g5
(dp2083
g19
S'String'
p2084
sg17
S'symref'
p2085
sg21
S'Symref'
p2086
stRp2087
atRp2088
sg17
S'RefHist'
p2089
stRp2090
ag3
(g4
g5
(dp2091
g676
g3
(g8
g9
(lp2092
g3
(g4
g5
(dp2093
g19
S'RemoteID'
p2094
sg17
S'id'
p2095
sg21
S'The remote identifier'
p2096
stRp2097
ag3
(g4
g5
(dp2098
g19
S'User'
p2099
sg17
S'owner'
p2100
sg21
S'The user who creatd this remote'
p2101
stRp2102
ag3
(g4
g5
(dp2103
g19
S'Int'
p2104
sg17
S'options'
p2105
sg21
S'Remote options: 0: unlocked/nocompress, 1: locked/nocompress, 2: unlocked/compress, 4: locked/compress'
p2106
stRp2107
ag3
(g4
g5
(dp2108
g19
S'Text'
p2109
sg17
S'address'
p2110
sg21
S'The P4PORT used by the remote server'
p2111
stRp2112
ag3
(g4
g5
(dp2113
g19
S'Text'
p2114
sg17
S'desc'
p2115
sg21
S'Description of the remote server'
p2116
stRp2117
ag3
(g4
g5
(dp2118
g19
S'Date'
p2119
sg17
S'update'
p2120
sg21
S'The date this specification was last modfied'
p2121
stRp2122
ag3
(g4
g5
(dp2123
g19
S'Date'
p2124
sg17
S'access'
p2125
sg21
S'The date of the last push/fetch on this remote'
p2126
stRp2127
ag3
(g4
g5
(dp2128
g19
S'Change'
p2129
sg17
S'fetch'
p2130
sg21
S'The last changelist that was fetched'
p2131
stRp2132
ag3
(g4
g5
(dp2133
g19
S'Change'
p2134
sg17
S'push'
p2135
sg21
S'The last changelist that was pushed'
p2136
stRp2137
ag3
(g4
g5
(dp2138
g19
S'User'
p2139
sg17
S'rmtuser'
p2140
sg21
S'The user to use when connecting to the remote server'
p2141
stRp2142
atRp2143
sg17
S'Remote'
p2144
stRp2145
ag3
(g4
g5
(dp2146
g676
g3
(g8
g9
(lp2147
g3
(g4
g5
(dp2148
g19
S'File'
p2149
sg17
S'depotFile'
p2150
sg21
S'The file name'
p2151
stRp2152
ag3
(g4
g5
(dp2153
g19
S'String'
p2154
sg17
S'lbrRev'
p2155
sg21
S'The librarian revision'
p2156
stRp2157
ag3
(g4
g5
(dp2158
g19
S'String'
p2159
sg17
S'type'
p2160
sg21
S'The file type of the revision'
p2161
stRp2162
ag3
(g4
g5
(dp2163
g19
S'PullStatus'
p2164
sg17
S'status'
p2165
sg21
S'The status of the archive transfer'
p2166
stRp2167
ag3
(g4
g5
(dp2168
g19
S'Action'
p2169
sg17
S'action'
p2170
sg21
S'The action that created the revision'
p2171
stRp2172
ag3
(g4
g5
(dp2173
g19
S'Digest'
p2174
sg17
S'digest'
p2175
sg21
S'The MD5 digest of the revision'
p2176
stRp2177
ag3
(g4
g5
(dp2178
g19
S'FileSize'
p2179
sg17
S'size'
p2180
sg21
S'The size of the file in bytes'
p2181
stRp2182
ag3
(g4
g5
(dp2183
g19
S'Change'
p2184
sg17
S'change'
p2185
sg21
S'The changelist that created the revision'
p2186
stRp2187
ag3
(g4
g5
(dp2188
g19
S'Date'
p2189
sg17
S'lbrDate'
p2190
sg21
S'Librarian date'
p2191
stRp2192
ag3
(g4
g5
(dp2193
g19
S'Date'
p2194
sg17
S'lbrModTime'
p2195
sg21
S'Librarian modtime'
p2196
stRp2197
ag3
(g4
g5
(dp2198
g19
S'Int'
p2199
sg17
S'pid'
p2200
sg21
S'The process id (PID) of the pull process'
p2201
stRp2202
ag3
(g4
g5
(dp2203
g19
S'Date'
p2204
sg17
S'requestTime'
p2205
sg21
S'Pull request time'
p2206
stRp2207
ag3
(g4
g5
(dp2208
g19
S'Int'
p2209
sg17
S'retries'
p2210
sg21
S'The number of retries that have occurred after transfer error'
p2211
stRp2212
ag3
(g4
g5
(dp2213
g19
S'String'
p2214
sg17
S'transferError'
p2215
sg21
S'The error message for a failed transfer'
p2216
stRp2217
atRp2218
sg17
S'ReplicaArchiveTransfer'
p2219
stRp2220
ag3
(g4
g5
(dp2221
g676
g3
(g8
g9
(lp2222
g3
(g4
g5
(dp2223
g19
S'String'
p2224
sg17
S'repo'
p2225
sg21
S'Repo'
p2226
stRp2227
ag3
(g4
g5
(dp2228
g19
S'User'
p2229
sg17
S'owner'
p2230
sg21
S'Owner'
p2231
stRp2232
ag3
(g4
g5
(dp2233
g19
S'Date'
p2234
sg17
S'created'
p2235
sg21
S'Created'
p2236
stRp2237
ag3
(g4
g5
(dp2238
g19
S'Date'
p2239
sg17
S'pushed'
p2240
sg21
S'Pushed'
p2241
stRp2242
ag3
(g4
g5
(dp2243
g19
S'Date'
p2244
sg17
S'forked'
p2245
sg21
S'Forked'
p2246
stRp2247
ag3
(g4
g5
(dp2248
g19
S'String'
p2249
sg17
S'desc'
p2250
sg21
S'Description'
p2251
stRp2252
ag3
(g4
g5
(dp2253
g19
S'String'
p2254
sg17
S'branch'
p2255
sg21
S'Branch'
p2256
stRp2257
atRp2258
sg17
S'Repo'
p2259
stRp2260
ag3
(g4
g5
(dp2261
g676
g3
(g8
g9
(lp2262
g3
(g4
g5
(dp2263
g19
S'File'
p2264
sg17
S'toFile'
p2265
sg21
S'File to which integration is being performed (target).'
p2266
stRp2267
ag3
(g4
g5
(dp2268
g19
S'File'
p2269
sg17
S'fromFile'
p2270
sg21
S'File from which integration is being performed (source).'
p2271
stRp2272
ag3
(g4
g5
(dp2273
g19
S'Rev'
p2274
sg17
S'startFromRev'
p2275
sg21
S'Starting revision of fromFile'
p2276
stRp2277
ag3
(g4
g5
(dp2278
g19
S'Rev'
p2279
sg17
S'endFromRev'
p2280
sg21
S'Ending revision of fromFile'
p2281
stRp2282
ag3
(g4
g5
(dp2283
g19
S'Rev'
p2284
sg17
S'startToRev'
p2285
sg21
S'Start revision of toFile into which integration was \n\t\t    performed.'
p2286
stRp2287
ag3
(g4
g5
(dp2288
g19
S'Rev'
p2289
sg17
S'endToRev'
p2290
sg21
S'End revision of toFile into which integration was \n\t\t    performed. Only varies from startToRev for reverse \n\t\t    integration records.'
p2291
stRp2292
ag3
(g4
g5
(dp2293
g19
S'IntegHow'
p2294
sg17
S'how'
p2295
sg21
S'Integration method: variations on \n\t\t    merge/branch/copy/ignore/delete.'
p2296
stRp2297
ag3
(g4
g5
(dp2298
g19
S'ResolveState'
p2299
sg17
S'state'
p2300
sg21
S'How the user performed the resolve.'
p2301
stRp2302
ag3
(g4
g5
(dp2303
g19
S'File'
p2304
sg17
S'baseFile'
p2305
sg21
S'File used as the base for merging.'
p2306
stRp2307
ag3
(g4
g5
(dp2308
g19
S'Rev'
p2309
sg17
S'baseRev'
p2310
sg21
S'Revision of baseFile used as the merge base.'
p2311
stRp2312
atRp2313
sg17
S'Resolve'
p2314
stRp2315
ag3
(g4
g5
(dp2316
g676
g3
(g8
g9
(lp2317
g3
(g4
g5
(dp2318
g19
S'File'
p2319
sg17
S'tfile'
p2320
sg21
S'ToFile'
p2321
stRp2322
ag3
(g4
g5
(dp2323
g19
S'File'
p2324
sg17
S'ffile'
p2325
sg21
S'FromFile'
p2326
stRp2327
ag3
(g4
g5
(dp2328
g19
S'SHA1'
p2329
sg17
S'basesha'
p2330
sg21
S'Base SHA'
p2331
stRp2332
ag3
(g4
g5
(dp2333
g19
S'SHA1'
p2334
sg17
S'wantssha'
p2335
sg21
S'Wants SHA'
p2336
stRp2337
ag3
(g4
g5
(dp2338
g19
S'Int'
p2339
sg17
S'how'
p2340
sg21
S'How'
p2341
stRp2342
ag3
(g4
g5
(dp2343
g19
S'Int'
p2344
sg17
S'state'
p2345
sg21
S'State'
p2346
stRp2347
atRp2348
sg17
S'ResolveG'
p2349
stRp2350
ag3
(g4
g5
(dp2351
g676
g3
(g8
g9
(lp2352
g3
(g4
g5
(dp2353
g19
S'File'
p2354
sg17
S'depotFile'
p2355
sg21
S'The file name'
p2356
stRp2357
ag3
(g4
g5
(dp2358
g19
S'Rev'
p2359
sg17
S'depotRev'
p2360
sg21
S'The revision number'
p2361
stRp2362
ag3
(g4
g5
(dp2363
g19
S'FileType'
p2364
sg17
S'type'
p2365
sg21
S'The file type of the revision'
p2366
stRp2367
ag3
(g4
g5
(dp2368
g19
S'Action'
p2369
sg17
S'action'
p2370
sg21
S'The action that created the revision'
p2371
stRp2372
ag3
(g4
g5
(dp2373
g19
S'Change'
p2374
sg17
S'change'
p2375
sg21
S'The changelist that created the revision'
p2376
stRp2377
ag3
(g4
g5
(dp2378
g19
S'Date'
p2379
sg17
S'date'
p2380
sg21
S'The date/time the changelist that created the revision\n\t\t    was submitted'
p2381
stRp2382
ag3
(g4
g5
(dp2383
g19
S'Date'
p2384
sg17
S'modTime'
p2385
sg21
S"The timestamp on the file in the user's workspace when\n\t\t    the revision was submitted."
p2386
stRp2387
ag3
(g4
g5
(dp2388
g19
S'Digest'
p2389
sg17
S'digest'
p2390
sg21
S'The MD5 digest of the revision.'
p2391
stRp2392
ag3
(g4
g5
(dp2393
g19
S'FileSize'
p2394
sg17
S'size'
p2395
sg21
S'The size of the file in bytes'
p2396
stRp2397
ag3
(g4
g5
(dp2398
g19
S'TraitLot'
p2399
sg17
S'traitLot'
p2400
sg21
S'Group of traits (attributes) associated with the revision.'
p2401
stRp2402
ag3
(g4
g5
(dp2403
g19
S'RevStatus'
p2404
sg17
S'lbrIsLazy'
p2405
sg21
S'Specifies whether or not the revision gets its content from \n\t  \t    another file (lazy copy), data about promotion of revision\n\t \t    content from task streams, and data about revision charset \n            information.'
p2406
stRp2407
ag3
(g4
g5
(dp2408
g19
S'File'
p2409
sg17
S'lbrFile'
p2410
sg21
S"Filename for librarian's purposes.  Specifies location in \n\t\t    the archives where the file containing the revision may\n\t\t    be found. Usually the same as depotFile, but differs in\n\t\t    the case of branched/copied revisions."
p2411
stRp2412
ag3
(g4
g5
(dp2413
g19
S'String'
p2414
sg17
S'lbrRev'
p2415
sg21
S'The revision of lbrFile that contains the revision content.'
p2416
stRp2417
ag3
(g4
g5
(dp2418
g19
S'FileType'
p2419
sg17
S'lbrType'
p2420
sg21
S'The file type of the librarian revision. Usually the same\n\t\t    as type, but differs in the case of branched/copied \n\t\t    revisions.'
p2421
stRp2422
atRp2423
sg17
S'Rev'
p2424
stRp2425
ag3
(g4
g5
(dp2426
g676
g3
(g8
g9
(lp2427
g3
(g4
g5
(dp2428
g19
S'Change'
p2429
sg17
S'change'
p2430
sg21
S'The changelist that created the revision'
p2431
stRp2432
ag3
(g4
g5
(dp2433
g19
S'File'
p2434
sg17
S'depotFile'
p2435
sg21
S'The file name'
p2436
stRp2437
ag3
(g4
g5
(dp2438
g19
S'Rev'
p2439
sg17
S'depotRev'
p2440
sg21
S'The revision number'
p2441
stRp2442
ag3
(g4
g5
(dp2443
g19
S'Action'
p2444
sg17
S'action'
p2445
sg21
S'The action that created the revision'
p2446
stRp2447
atRp2448
sg17
S'RevCx'
p2449
stRp2450
ag3
(g4
g5
(dp2451
g676
g3
(g8
g9
(lp2452
g3
(g4
g5
(dp2453
g19
S'User'
p2454
sg17
S'user'
p2455
sg21
S'A user name'
p2456
stRp2457
ag3
(g4
g5
(dp2458
g19
S'Int'
p2459
sg17
S'seq'
p2460
sg21
S'Sequence number: used for ordering multi-line views'
p2461
stRp2462
ag3
(g4
g5
(dp2463
g19
S'MapFlag'
p2464
sg17
S'mapFlag'
p2465
sg21
S'Type of mapping'
p2466
stRp2467
ag3
(g4
g5
(dp2468
g19
S'Mapping'
p2469
sg17
S'depotFile'
p2470
sg21
S'The files to be reviewed'
p2471
stRp2472
ag3
(g4
g5
(dp2473
g19
S'Reviewer'
p2474
sg17
S'type'
p2475
sg21
S'Type of reviewer'
p2476
stRp2477
atRp2478
sg17
S'Review'
p2479
stRp2480
ag3
(g4
g5
(dp2481
g676
g3
(g8
g9
(lp2482
g3
(g4
g5
(dp2483
g19
S'RemoteID'
p2484
sg17
S'id'
p2485
sg21
S'Remote name'
p2486
stRp2487
ag3
(g4
g5
(dp2488
g19
S'Int'
p2489
sg17
S'seq'
p2490
sg21
S'Sequence number: for ordering multi-line views'
p2491
stRp2492
ag3
(g4
g5
(dp2493
g19
S'MapFlag'
p2494
sg17
S'mapFlag'
p2495
sg21
S'Type of mapping'
p2496
stRp2497
ag3
(g4
g5
(dp2498
g19
S'Mapping'
p2499
sg17
S'localFile'
p2500
sg21
S'Local file'
p2501
stRp2502
ag3
(g4
g5
(dp2503
g19
S'Mapping'
p2504
sg17
S'remoteFile'
p2505
sg21
S'Remote file'
p2506
stRp2507
ag3
(g4
g5
(dp2508
g19
S'Int'
p2509
sg17
S'retain'
p2510
sg21
S'ArchiveLimits'
p2511
stRp2512
atRp2513
sg17
S'RmtView'
p2514
stRp2515
ag3
(g4
g5
(dp2516
g676
g3
(g8
g9
(lp2517
g3
(g4
g5
(dp2518
g19
S'Int'
p2519
sg17
S'taskID'
p2520
sg21
S'The process id (PID) of the sync'
p2521
stRp2522
ag3
(g4
g5
(dp2523
g19
S'Int'
p2524
sg17
S'seq'
p2525
sg21
S'Sequence number'
p2526
stRp2527
ag3
(g4
g5
(dp2528
g19
S'Text'
p2529
sg17
S'handle'
p2530
sg21
S'Handle'
p2531
stRp2532
ag3
(g4
g5
(dp2533
g19
S'File'
p2534
sg17
S'depotFile'
p2535
sg21
S'The file in the depot'
p2536
stRp2537
ag3
(g4
g5
(dp2538
g19
S'File'
p2539
sg17
S'clientFile'
p2540
sg21
S'The file in its location on the client'
p2541
stRp2542
ag3
(g4
g5
(dp2543
g19
S'Rev'
p2544
sg17
S'haveRev'
p2545
sg21
S'Have revision'
p2546
stRp2547
ag3
(g4
g5
(dp2548
g19
S'FileType'
p2549
sg17
S'type'
p2550
sg21
S'File type'
p2551
stRp2552
ag3
(g4
g5
(dp2553
g19
S'Date'
p2554
sg17
S'modtime'
p2555
sg21
S'Modification time'
p2556
stRp2557
ag3
(g4
g5
(dp2558
g19
S'Digest'
p2559
sg17
S'digest'
p2560
sg21
S'The MD5 digest of the revision'
p2561
stRp2562
ag3
(g4
g5
(dp2563
g19
S'FileSize'
p2564
sg17
S'size'
p2565
sg21
S'The size of the file in bytes'
p2566
stRp2567
ag3
(g4
g5
(dp2568
g19
S'File'
p2569
sg17
S'lbrFile'
p2570
sg21
S'Librarian filename'
p2571
stRp2572
ag3
(g4
g5
(dp2573
g19
S'LbrRev'
p2574
sg17
S'lbrRev'
p2575
sg21
S'The revision of lbrFile that contains the revision content'
p2576
stRp2577
ag3
(g4
g5
(dp2578
g19
S'FileType'
p2579
sg17
S'lbrType'
p2580
sg21
S'The file type of the librarian revision'
p2581
stRp2582
ag3
(g4
g5
(dp2583
g19
S'Int'
p2584
sg17
S'flags'
p2585
sg21
S'Flags'
p2586
stRp2587
ag3
(g4
g5
(dp2588
g19
S'FileType'
p2589
sg17
S'clientType'
p2590
sg21
S'The client file type of the revision'
p2591
stRp2592
atRp2593
sg17
S'SendQ'
p2594
stRp2595
ag3
(g4
g5
(dp2596
g676
g3
(g8
g9
(lp2597
g3
(g4
g5
(dp2598
g19
S'Text'
p2599
sg17
S'id'
p2600
sg21
S'The server identifier'
p2601
stRp2602
ag3
(g4
g5
(dp2603
g19
S'ServerType'
p2604
sg17
S'type'
p2605
sg21
S'The server type: server/broker/proxy'
p2606
stRp2607
ag3
(g4
g5
(dp2608
g19
S'Text'
p2609
sg17
S'name'
p2610
sg21
S'The P4NAME used by this server'
p2611
stRp2612
ag3
(g4
g5
(dp2613
g19
S'Text'
p2614
sg17
S'address'
p2615
sg21
S'The P4PORT used by this server'
p2616
stRp2617
ag3
(g4
g5
(dp2618
g19
S'Text'
p2619
sg17
S'externalAddress'
p2620
sg21
S'For an edge server, this optional field contains its external address for connections from the commit server. This field is required for federated parallel submit.'
p2621
stRp2622
ag3
(g4
g5
(dp2623
g19
S'ServerServiceType'
p2624
sg17
S'services'
p2625
sg21
S'Service provided by this server'
p2626
stRp2627
ag3
(g4
g5
(dp2628
g19
S'Text'
p2629
sg17
S'desc'
p2630
sg21
S'Server description'
p2631
stRp2632
ag3
(g4
g5
(dp2633
g19
S'User'
p2634
sg17
S'user'
p2635
sg21
S'The service user used by this server'
p2636
stRp2637
atRp2638
sg17
S'Server'
p2639
stRp2640
ag3
(g4
g5
(dp2641
g676
g3
(g8
g9
(lp2642
g3
(g4
g5
(dp2643
g19
S'Domain'
p2644
sg17
S'client'
p2645
sg21
S'Client the stash refers to'
p2646
stRp2647
ag3
(g4
g5
(dp2648
g19
S'Domain'
p2649
sg17
S'stream'
p2650
sg21
S'Stream the stash refers to'
p2651
stRp2652
ag3
(g4
g5
(dp2653
g19
S'StashType'
p2654
sg17
S'type'
p2655
sg21
S'Stash type'
p2656
stRp2657
ag3
(g4
g5
(dp2658
g19
S'Int'
p2659
sg17
S'seq'
p2660
sg21
S'Sequence number'
p2661
stRp2662
ag3
(g4
g5
(dp2663
g19
S'Change'
p2664
sg17
S'change'
p2665
sg21
S'Stash change number'
p2666
stRp2667
atRp2668
sg17
S'Stash'
p2669
stRp2670
ag3
(g4
g5
(dp2671
g676
g3
(g8
g9
(lp2672
g3
(g4
g5
(dp2673
g19
S'Domain'
p2674
sg17
S'stream'
p2675
sg21
S'Stream name'
p2676
stRp2677
ag3
(g4
g5
(dp2678
g19
S'Domain'
p2679
sg17
S'parent'
p2680
sg21
S'Parent stream name'
p2681
stRp2682
ag3
(g4
g5
(dp2683
g19
S'Text'
p2684
sg17
S'title'
p2685
sg21
S'Stream title (alias for the stream name)'
p2686
stRp2687
ag3
(g4
g5
(dp2688
g19
S'StreamType'
p2689
sg17
S'type'
p2690
sg21
S'The type of stream'
p2691
stRp2692
ag3
(g4
g5
(dp2693
g19
S'Date'
p2694
sg17
S'preview'
p2695
sg21
S'Stream template modification time'
p2696
stRp2697
ag3
(g4
g5
(dp2698
g19
S'Change'
p2699
sg17
S'change'
p2700
sg21
S'Last submit to stream'
p2701
stRp2702
ag3
(g4
g5
(dp2703
g19
S'Change'
p2704
sg17
S'copychg'
p2705
sg21
S'Parent change at last copy'
p2706
stRp2707
ag3
(g4
g5
(dp2708
g19
S'Change'
p2709
sg17
S'mergechg'
p2710
sg21
S'Parent change at last merge'
p2711
stRp2712
ag3
(g4
g5
(dp2713
g19
S'Change'
p2714
sg17
S'highchg'
p2715
sg21
S'Highest change at last merge'
p2716
stRp2717
ag3
(g4
g5
(dp2718
g19
S'Int'
p2719
sg17
S'hash'
p2720
sg21
S'Hash value of dynamic branch'
p2721
stRp2722
ag3
(g4
g5
(dp2723
g19
S'StreamStatus'
p2724
sg17
S'status'
p2725
sg21
S'Flow status'
p2726
stRp2727
atRp2728
sg17
S'Stream'
p2729
stRp2730
ag3
(g4
g5
(dp2731
g676
g3
(g8
g9
(lp2732
g3
(g4
g5
(dp2733
g19
S'Text'
p2734
sg17
S'id'
p2735
sg21
S'Server name'
p2736
stRp2737
ag3
(g4
g5
(dp2738
g19
S'SvrViewType'
p2739
sg17
S'type'
p2740
sg21
S'View type'
p2741
stRp2742
ag3
(g4
g5
(dp2743
g19
S'Int'
p2744
sg17
S'seq'
p2745
sg21
S'Sequence (line) number'
p2746
stRp2747
ag3
(g4
g5
(dp2748
g19
S'MapFlag'
p2749
sg17
S'mapFlag'
p2750
sg21
S'Type of mapping'
p2751
stRp2752
ag3
(g4
g5
(dp2753
g19
S'Mapping'
p2754
sg17
S'viewFile'
p2755
sg21
S'View file'
p2756
stRp2757
atRp2758
sg17
S'SvrView'
p2759
stRp2760
ag3
(g4
g5
(dp2761
g676
g3
(g8
g9
(lp2762
g3
(g4
g5
(dp2763
g19
S'Domain'
p2764
sg17
S'name'
p2765
sg21
S'Stream name'
p2766
stRp2767
ag3
(g4
g5
(dp2768
g19
S'Change'
p2769
sg17
S'change'
p2770
sg21
S'Versioned at change'
p2771
stRp2772
ag3
(g4
g5
(dp2773
g19
S'Int'
p2774
sg17
S'seq'
p2775
sg21
S'Sequence (line) number'
p2776
stRp2777
ag3
(g4
g5
(dp2778
g19
S'Domain'
p2779
sg17
S'parent'
p2780
sg21
S'Parent stream name'
p2781
stRp2782
ag3
(g4
g5
(dp2783
g19
S'StreamType'
p2784
sg17
S'type'
p2785
sg21
S'Type of stream'
p2786
stRp2787
ag3
(g4
g5
(dp2788
g19
S'StreamPathType'
p2789
sg17
S'path'
p2790
sg21
S'Stream path type'
p2791
stRp2792
ag3
(g4
g5
(dp2793
g19
S'Mapping'
p2794
sg17
S'viewFile'
p2795
sg21
S'View file (left hand side of path)'
p2796
stRp2797
ag3
(g4
g5
(dp2798
g19
S'Mapping'
p2799
sg17
S'depotFile'
p2800
sg21
S'Depot file (right hand side of path)'
p2801
stRp2802
ag3
(g4
g5
(dp2803
g19
S'Value'
p2804
sg17
S'changeMap'
p2805
sg21
S"Stream 'import' path changelist specifier. The changelist\n\t\t\tlimits in effect for a given client are displayed in a\n\t    \tread-only client spec field called 'ChangeView'"
p2806
stRp2807
atRp2808
sg17
S'Template'
p2809
stRp2810
ag3
(g4
g5
(dp2811
g676
g3
(g8
g9
(lp2812
g3
(g4
g5
(dp2813
g19
S'Change'
p2814
sg17
S'shelf'
p2815
sg21
S'Shelf changelist number'
p2816
stRp2817
ag3
(g4
g5
(dp2818
g19
S'Domain'
p2819
sg17
S'name'
p2820
sg21
S'Stream name'
p2821
stRp2822
ag3
(g4
g5
(dp2823
g19
S'Int'
p2824
sg17
S'seq'
p2825
sg21
S'Sequence (line) number'
p2826
stRp2827
ag3
(g4
g5
(dp2828
g19
S'Change'
p2829
sg17
S'change'
p2830
sg21
S'Versioned at change'
p2831
stRp2832
ag3
(g4
g5
(dp2833
g19
S'Domain'
p2834
sg17
S'parent'
p2835
sg21
S'Parent stream name'
p2836
stRp2837
ag3
(g4
g5
(dp2838
g19
S'StreamType'
p2839
sg17
S'type'
p2840
sg21
S'Type of stream'
p2841
stRp2842
ag3
(g4
g5
(dp2843
g19
S'StreamPathType'
p2844
sg17
S'path'
p2845
sg21
S'Stream path type'
p2846
stRp2847
ag3
(g4
g5
(dp2848
g19
S'Mapping'
p2849
sg17
S'viewFile'
p2850
sg21
S'View file (left hand side of path)'
p2851
stRp2852
ag3
(g4
g5
(dp2853
g19
S'Mapping'
p2854
sg17
S'depotFile'
p2855
sg21
S'Depot file (right hand side of path)'
p2856
stRp2857
ag3
(g4
g5
(dp2858
g19
S'Value'
p2859
sg17
S'changeMap'
p2860
sg21
S"Stream 'import' path changelist specifier. The changelist\n\t\t\tlimits in effect for a given client are displayed in a\n\t    \tread-only client spec field called 'ChangeView'"
p2861
stRp2862
atRp2863
sg17
S'TemplateSx'
p2864
stRp2865
ag3
(g4
g5
(dp2866
g676
g3
(g8
g9
(lp2867
g3
(g4
g5
(dp2868
g19
S'Domain'
p2869
sg17
S'client'
p2870
sg21
S'Stream client'
p2871
stRp2872
ag3
(g4
g5
(dp2873
g19
S'Domain'
p2874
sg17
S'name'
p2875
sg21
S'Stream name'
p2876
stRp2877
ag3
(g4
g5
(dp2878
g19
S'Int'
p2879
sg17
S'seq'
p2880
sg21
S'Sequence (line) number'
p2881
stRp2882
ag3
(g4
g5
(dp2883
g19
S'Change'
p2884
sg17
S'change'
p2885
sg21
S'Versioned at change'
p2886
stRp2887
ag3
(g4
g5
(dp2888
g19
S'Domain'
p2889
sg17
S'parent'
p2890
sg21
S'Parent stream name'
p2891
stRp2892
ag3
(g4
g5
(dp2893
g19
S'StreamType'
p2894
sg17
S'type'
p2895
sg21
S'Type of stream'
p2896
stRp2897
ag3
(g4
g5
(dp2898
g19
S'StreamPathType'
p2899
sg17
S'path'
p2900
sg21
S'Stream path type'
p2901
stRp2902
ag3
(g4
g5
(dp2903
g19
S'Mapping'
p2904
sg17
S'viewFile'
p2905
sg21
S'View file (left hand side of path)'
p2906
stRp2907
ag3
(g4
g5
(dp2908
g19
S'Mapping'
p2909
sg17
S'depotFile'
p2910
sg21
S'Depot file (right hand side of path)'
p2911
stRp2912
ag3
(g4
g5
(dp2913
g19
S'Value'
p2914
sg17
S'changeMap'
p2915
sg21
S"Stream 'import' path changelist specifier. The changelist\n\t\t\tlimits in effect for a given client are displayed in a\n\t    \tread-only client spec field called 'ChangeView'"
p2916
stRp2917
atRp2918
sg17
S'TemplateWx'
p2919
stRp2920
ag3
(g4
g5
(dp2921
g676
g3
(g8
g9
(lp2922
g3
(g4
g5
(dp2923
g19
S'String'
p2924
sg17
S'fileAndRev'
p2925
sg21
S'The file name and revision'
p2926
stRp2927
ag3
(g4
g5
(dp2928
g19
S'Octet String'
p2929
sg17
S'fileContent'
p2930
sg21
S'The (encoded) file content'
p2931
stRp2932
atRp2933
sg17
S'TinyDb'
p2934
stRp2935
ag3
(g4
g5
(dp2936
g676
g3
(g8
g9
(lp2937
g3
(g4
g5
(dp2938
g19
S'Int'
p2939
sg17
S'traitLot'
p2940
sg21
S'Indicates a specific collection of traits (referred to \n\t\t    externally as "attributes".)'
p2941
stRp2942
ag3
(g4
g5
(dp2943
g19
S'String'
p2944
sg17
S'name'
p2945
sg21
S'Trait (attribute) name'
p2946
stRp2947
ag3
(g4
g5
(dp2948
g19
S'TraitType'
p2949
sg17
S'type'
p2950
sg21
S'Type of trait'
p2951
stRp2952
ag3
(g4
g5
(dp2953
g19
S'Octet String'
p2954
sg17
S'value'
p2955
sg21
S'The value'
p2956
stRp2957
atRp2958
sg17
S'Trait'
p2959
stRp2960
ag3
(g4
g5
(dp2961
g676
g3
(g8
g9
(lp2962
g3
(g4
g5
(dp2963
g19
S'Int'
p2964
sg17
S'seq'
p2965
sg21
S'Sequence number: for ordering the trigger list'
p2966
stRp2967
ag3
(g4
g5
(dp2968
g19
S'String'
p2969
sg17
S'name'
p2970
sg21
S'Name of the trigger'
p2971
stRp2972
ag3
(g4
g5
(dp2973
g19
S'MapFlag'
p2974
sg17
S'mapFlag'
p2975
sg21
S'Type of mapping: specifies whether the trigger applies \n\t\t    to the files or not.'
p2976
stRp2977
ag3
(g4
g5
(dp2978
g19
S'Mapping'
p2979
sg17
S'depotFile'
p2980
sg21
S'The files to apply the trigger to'
p2981
stRp2982
ag3
(g4
g5
(dp2983
g19
S'File'
p2984
sg17
S'triggerDepotFile'
p2985
sg21
S'Depot path to the trigger'
p2986
stRp2987
ag3
(g4
g5
(dp2988
g19
S'Trigger'
p2989
sg17
S'trigger'
p2990
sg21
S'Type of trigger'
p2991
stRp2992
ag3
(g4
g5
(dp2993
g19
S'Text'
p2994
sg17
S'action'
p2995
sg21
S'Command to execute when trigger runs'
p2996
stRp2997
atRp2998
sg17
S'Trigger'
p2999
stRp3000
ag3
(g4
g5
(dp3001
g676
g3
(g8
g9
(lp3002
g3
(g4
g5
(dp3003
g19
S'User'
p3004
sg17
S'user'
p3005
sg21
S'The username'
p3006
stRp3007
ag3
(g4
g5
(dp3008
g19
S'Text'
p3009
sg17
S'email'
p3010
sg21
S"The user's email address"
p3011
stRp3012
ag3
(g4
g5
(dp3013
g19
S'Text'
p3014
sg17
S'jobView'
p3015
sg21
S"The user's job view"
p3016
stRp3017
ag3
(g4
g5
(dp3018
g19
S'Date'
p3019
sg17
S'updateDate'
p3020
sg21
S'The date/time the user record was last updated'
p3021
stRp3022
ag3
(g4
g5
(dp3023
g19
S'Date'
p3024
sg17
S'accessDate'
p3025
sg21
S'The date/time the user record was last used'
p3026
stRp3027
ag3
(g4
g5
(dp3028
g19
S'Text'
p3029
sg17
S'fullName'
p3030
sg21
S"The user's full name"
p3031
stRp3032
ag3
(g4
g5
(dp3033
g19
S'Password'
p3034
sg17
S'password'
p3035
sg21
S'The MD5 hash of the users (encrypted) password'
p3036
stRp3037
ag3
(g4
g5
(dp3038
g19
S'Strength'
p3039
sg17
S'strength'
p3040
sg21
S"Measure of the strength of the user's password"
p3041
stRp3042
ag3
(g4
g5
(dp3043
g19
S'Password'
p3044
sg17
S'ticket'
p3045
sg21
S"'p4 login' ticket for this user"
p3046
stRp3047
ag3
(g4
g5
(dp3048
g19
S'Date'
p3049
sg17
S'endDate'
p3050
sg21
S"Date/time the user's ticket expires"
p3051
stRp3052
ag3
(g4
g5
(dp3053
g19
S'UserLevel'
p3054
sg17
S'type'
p3055
sg21
S'Type of user'
p3056
stRp3057
ag3
(g4
g5
(dp3058
g19
S'Date'
p3059
sg17
S'passDate'
p3060
sg21
S'Date password was last changed'
p3061
stRp3062
ag3
(g4
g5
(dp3063
g19
S'Date'
p3064
sg17
S'passExpire'
p3065
sg21
S'Date of password expiration'
p3066
stRp3067
ag3
(g4
g5
(dp3068
g19
S'Date'
p3069
sg17
S'attempts'
p3070
sg21
S'Failed login attempts'
p3071
stRp3072
ag3
(g4
g5
(dp3073
g19
S'Int'
p3074
sg17
S'auth'
p3075
sg21
S'Authentication method for user; 0=perforce, 1=ldap'
p3076
stRp3077
atRp3078
sg17
S'User'
p3079
stRp3080
ag3
(g4
g5
(dp3081
g676
g3
(g8
g9
(lp3082
g3
(g4
g5
(dp3083
g19
S'Domain'
p3084
sg17
S'name'
p3085
sg21
S'Domain name to which this view applies'
p3086
stRp3087
ag3
(g4
g5
(dp3088
g19
S'Int'
p3089
sg17
S'seq'
p3090
sg21
S'Sequence number: for ordering multi-line views'
p3091
stRp3092
ag3
(g4
g5
(dp3093
g19
S'MapFlag'
p3094
sg17
S'mapFlag'
p3095
sg21
S'Type of mapping'
p3096
stRp3097
ag3
(g4
g5
(dp3098
g19
S'Mapping'
p3099
sg17
S'viewFile'
p3100
sg21
S"The right-hand-side of the view. For clients, this is\n\t\t    the client-side, for labels it's the generated label \n\t\t    view. For branches, it's the target side of the branch\n\t\t    view."
p3101
stRp3102
ag3
(g4
g5
(dp3103
g19
S'Mapping'
p3104
sg17
S'depotFile'
p3105
sg21
S'The left-hand-side of the view - a mapping to file(s)\n\t\t    in the depot.'
p3106
stRp3107
atRp3108
sg17
S'View'
p3109
stRp3110
ag3
(g4
g5
(dp3111
g676
g3
(g8
g9
(lp3112
g3
(g4
g5
(dp3113
g19
S'File'
p3114
sg17
S'clientFile'
p3115
sg21
S'File on the client'
p3116
stRp3117
ag3
(g4
g5
(dp3118
g19
S'File'
p3119
sg17
S'depotFile'
p3120
sg21
S'File in the depot'
p3121
stRp3122
ag3
(g4
g5
(dp3123
g19
S'Domain'
p3124
sg17
S'client'
p3125
sg21
S'The client the file is opened on'
p3126
stRp3127
ag3
(g4
g5
(dp3128
g19
S'User'
p3129
sg17
S'user'
p3130
sg21
S'The user who has the file opened'
p3131
stRp3132
ag3
(g4
g5
(dp3133
g19
S'Rev'
p3134
sg17
S'haveRev'
p3135
sg21
S"Revision presently in user's client workspace"
p3136
stRp3137
ag3
(g4
g5
(dp3138
g19
S'Rev'
p3139
sg17
S'workRev'
p3140
sg21
S'Working revision; normally identical to the haveRev'
p3141
stRp3142
ag3
(g4
g5
(dp3143
g19
S'Int'
p3144
sg17
S'isVirtual'
p3145
sg21
S'Flag: if 1, file was opened with "p4 integ -v".'
p3146
stRp3147
ag3
(g4
g5
(dp3148
g19
S'FileType'
p3149
sg17
S'type'
p3150
sg21
S'File type'
p3151
stRp3152
ag3
(g4
g5
(dp3153
g19
S'Action'
p3154
sg17
S'action'
p3155
sg21
S"What the user's doing with the file"
p3156
stRp3157
ag3
(g4
g5
(dp3158
g19
S'Change'
p3159
sg17
S'change'
p3160
sg21
S'Associated changelist, or zero for the default changelist.'
p3161
stRp3162
ag3
(g4
g5
(dp3163
g19
S'Date'
p3164
sg17
S'modTime'
p3165
sg21
S"Modification timestamp on the file in the user's workspace."
p3166
stRp3167
ag3
(g4
g5
(dp3168
g19
S'Int'
p3169
sg17
S'isLocked'
p3170
sg21
S'Flag: 0 for unlocked, 1 for locked.'
p3171
stRp3172
ag3
(g4
g5
(dp3173
g19
S'Digest'
p3174
sg17
S'digest'
p3175
sg21
S'MD5 digest of working file.'
p3176
stRp3177
ag3
(g4
g5
(dp3178
g19
S'Int64'
p3179
sg17
S'size'
p3180
sg21
S'File size'
p3181
stRp3182
ag3
(g4
g5
(dp3183
g19
S'Int'
p3184
sg17
S'traitLot'
p3185
sg21
S'Group of traits associated with file revision.'
p3186
stRp3187
ag3
(g4
g5
(dp3188
g19
S'TamperCheck'
p3189
sg17
S'tampered'
p3190
sg21
S'Flag indicating the tamper-state of the file in the\n\t\t    workspace.'
p3191
stRp3192
ag3
(g4
g5
(dp3193
g19
S'FileType'
p3194
sg17
S'clntType'
p3195
sg21
S'Type of the file in the client workspace.'
p3196
stRp3197
ag3
(g4
g5
(dp3198
g19
S'File'
p3199
sg17
S'mFile'
p3200
sg21
S'Moved filename'
p3201
stRp3202
ag3
(g4
g5
(dp3203
g19
S'Int'
p3204
sg17
S'status'
p3205
sg21
S'Working status'
p3206
stRp3207
atRp3208
sg17
S'Working'
p3209
stRp3210
ag3
(g4
g5
(dp3211
g676
g3
(g8
g9
(lp3212
g3
(g4
g5
(dp3213
g19
S'File'
p3214
sg17
S'cfile'
p3215
sg21
S'Client File'
p3216
stRp3217
ag3
(g4
g5
(dp3218
g19
S'File'
p3219
sg17
S'dfile'
p3220
sg21
S'Depot File'
p3221
stRp3222
ag3
(g4
g5
(dp3223
g19
S'Domain'
p3224
sg17
S'client'
p3225
sg21
S'Client'
p3226
stRp3227
ag3
(g4
g5
(dp3228
g19
S'User'
p3229
sg17
S'user'
p3230
sg21
S'User'
p3231
stRp3232
ag3
(g4
g5
(dp3233
g19
S'Rev'
p3234
sg17
S'hrev'
p3235
sg21
S'HaveRev'
p3236
stRp3237
ag3
(g4
g5
(dp3238
g19
S'Rev'
p3239
sg17
S'wrev'
p3240
sg21
S'WoringRev'
p3241
stRp3242
ag3
(g4
g5
(dp3243
g19
S'Int'
p3244
sg17
S'virtual'
p3245
sg21
S'Virtual'
p3246
stRp3247
ag3
(g4
g5
(dp3248
g19
S'FileType'
p3249
sg17
S'type'
p3250
sg21
S'File type'
p3251
stRp3252
ag3
(g4
g5
(dp3253
g19
S'Action'
p3254
sg17
S'action'
p3255
sg21
S'Action'
p3256
stRp3257
ag3
(g4
g5
(dp3258
g19
S'Change'
p3259
sg17
S'change'
p3260
sg21
S'Change'
p3261
stRp3262
ag3
(g4
g5
(dp3263
g19
S'Date'
p3264
sg17
S'modtime'
p3265
sg21
S'ModTime'
p3266
stRp3267
ag3
(g4
g5
(dp3268
g19
S'Int'
p3269
sg17
S'islocked'
p3270
sg21
S'IsLocked'
p3271
stRp3272
ag3
(g4
g5
(dp3273
g19
S'Digest'
p3274
sg17
S'digest'
p3275
sg21
S'MD5 digest'
p3276
stRp3277
ag3
(g4
g5
(dp3278
g19
S'Int64'
p3279
sg17
S'size'
p3280
sg21
S'File size'
p3281
stRp3282
ag3
(g4
g5
(dp3283
g19
S'Int'
p3284
sg17
S'traitlot'
p3285
sg21
S'TraitLot'
p3286
stRp3287
ag3
(g4
g5
(dp3288
g19
S'TamperCheck'
p3289
sg17
S'tampered'
p3290
sg21
S'Tampered'
p3291
stRp3292
ag3
(g4
g5
(dp3293
g19
S'FileType'
p3294
sg17
S'ctype'
p3295
sg21
S'ClientType'
p3296
stRp3297
ag3
(g4
g5
(dp3298
g19
S'File'
p3299
sg17
S'mfile'
p3300
sg21
S'Moved filename'
p3301
stRp3302
ag3
(g4
g5
(dp3303
g19
S'Int'
p3304
sg17
S'status'
p3305
sg21
S'Working status'
p3306
stRp3307
ag3
(g4
g5
(dp3308
g19
S'SHA1'
p3309
sg17
S'sha'
p3310
sg21
S'SHA'
p3311
stRp3312
ag3
(g4
g5
(dp3313
g19
S'String'
p3314
sg17
S'repo'
p3315
sg21
S'Repo'
p3316
stRp3317
atRp3318
sg17
S'WorkingG'
p3319
stRp3320
atRp3321
stRp3322
sS'upgrades'
p3323
g3
(g4
g5
(dp3324
S'upgrade'
p3325
g3
(g8
g9
(lp3326
g3
(g4
g5
(dp3327
S'release'
p3328
S'2001.1'
p3329
sS'index'
p3330
S'1'
sg21
S'Split db.integ into db.integed and db.resolve'
p3331
stRp3332
ag3
(g4
g5
(dp3333
g3328
S'2001.1'
p3334
sg3330
S'2'
sg21
S'Splt db.have into db.have and db.label'
p3335
stRp3336
ag3
(g4
g5
(dp3337
g3328
S'2002.1'
p3338
sg3330
S'3'
sg21
S'Split db.change into db.change and db.changex'
p3339
stRp3340
ag3
(g4
g5
(dp3341
g3328
S'2002.2'
p3342
sg3330
S'4'
sg21
S'Upgrade tempobj filetype in db.rev'
p3343
stRp3344
ag3
(g4
g5
(dp3345
g3328
S'2002.2'
p3346
sg3330
S'5'
sg21
S'Upgrade tempobj filetype in db.working'
p3347
stRp3348
ag3
(g4
g5
(dp3349
g3328
S'2003.1'
p3350
sg3330
S'6'
sg21
S'JnlInitialize default depot'
p3351
stRp3352
ag3
(g4
g5
(dp3353
g3328
S'2003.2'
p3354
sg3330
S'7'
sg21
S'Upgrade db.user'
p3355
stRp3356
ag3
(g4
g5
(dp3357
g3328
S'2005.1'
p3358
sg3330
S'8'
sg21
S'Build db.revhx (headrev) table'
p3359
stRp3360
ag3
(g4
g5
(dp3361
g3328
S'2005.1'
p3362
sg3330
S'9'
sg21
S'Rebuild db.locks from db.working'
p3363
stRp3364
ag3
(g4
g5
(dp3365
g3328
S'2005.1'
p3366
sg3330
S'10'
p3367
sg298
S'Removed in 2006.2'
p3368
sg21
S'Build lazy-copy index (db.archive)'
p3369
stRp3370
ag3
(g4
g5
(dp3371
g3328
S'2005.2'
p3372
sg3330
S'11'
p3373
sg21
S'Build db.revdx (delrev) table'
p3374
stRp3375
ag3
(g4
g5
(dp3376
g3328
S'2005.2'
p3377
sg3330
S'12'
p3378
sg298
S'Moved to 16 in 2007.3'
p3379
sg21
S'Build haveMap from db.have/db.working'
p3380
stRp3381
ag3
(g4
g5
(dp3382
g3328
S'2005.2'
p3383
sg3330
S'13'
p3384
sg21
S'Move spec depot entries into db.revsx'
p3385
stRp3386
ag3
(g4
g5
(dp3387
g3328
S'2006.2'
p3388
sg3330
S'14'
p3389
sg298
S'Moved to 17 in 2007.3'
p3390
sg21
S'Build db.archmap (lazy-copy map) table'
p3391
stRp3392
ag3
(g4
g5
(dp3393
g3328
S'2006.2'
p3394
sg3330
S'15'
p3395
sg298
S'Moved to 18 in 2007.3'
p3396
sg21
S'Remove (obsolete) db.archive table'
p3397
stRp3398
ag3
(g4
g5
(dp3399
g3328
S'2007.3'
p3400
sg3330
S'16'
p3401
sg298
S'Rewritten in 2007.3'
p3402
sg21
S'Build/Rebuild haveMap from db.have/db.working'
p3403
stRp3404
ag3
(g4
g5
(dp3405
g3328
S'2007.3'
p3406
sg3330
S'17'
p3407
sg298
S'Rewritten in 2007.3'
p3408
sg21
S'Build/Rebuild db.archmap (lazy-copy map) table'
p3409
stRp3410
ag3
(g4
g5
(dp3411
g3328
S'2007.3'
p3412
sg3330
S'18'
p3413
sg298
S'Moved from 15 in 2007.3'
p3414
sg21
S'Remove (obsolete) db.archive table'
p3415
stRp3416
ag3
(g4
g5
(dp3417
g3328
S'2008.1'
p3418
sg3330
S'19'
p3419
sg21
S'Build db.change common path'
p3420
stRp3421
ag3
(g4
g5
(dp3422
g3328
S'2009.2'
p3423
sg3330
S'20'
p3424
sg21
S'Move db.boddate/db.ixdate into db.bodtext/db.ixtext'
p3425
stRp3426
ag3
(g4
g5
(dp3427
g3328
S'2009.2'
p3428
sg3330
S'21'
p3429
sg21
S'Remove db.boddate/db.ixdate'
p3430
stRp3431
ag3
(g4
g5
(dp3432
g3328
S'2010.2'
p3433
sg3330
S'22'
p3434
sg21
S'Move system counters into db.config'
p3435
stRp3436
ag3
(g4
g5
(dp3437
g3328
S'2011.1'
p3438
sg3330
S'23'
p3439
sg21
S'Upgrade tiny.db'
p3440
stRp3441
ag3
(g4
g5
(dp3442
g3328
S'2015.2'
p3443
sg3330
S'24'
p3444
sg21
S'Move LDAP specs into db.ldap'
p3445
stRp3446
ag3
(g4
g5
(dp3447
g3328
S'2016.1'
p3448
sg3330
S'25'
p3449
sg21
S'Create db.templatesx and db.templatewx'
p3450
stRp3451
ag3
(g4
g5
(dp3452
g3328
S'2016.2'
p3453
sg3330
S'26'
p3454
sg21
S'JnlInitialize graph depot'
p3455
stRp3456
atRp3457
stRp3458
sS'commit_upgrades'
p3459
g3
(g4
g5
(dp3460
S'commit_upgrade'
p3461
g3
(g8
g9
(lp3462
g3
(g4
g5
(dp3463
g3328
S'2013.2'
p3464
sg3330
S'commit-server'
p3465
sg298
S'Generate exclusive lock records in db.excl based on db.working data.'
p3466
sg21
S'Generate exclusive locks'
p3467
stRp3468
ag3
(g4
g5
(dp3469
g3328
S'2014.1'
p3470
sg3330
S'commit-server'
p3471
sg298
S'Promote existing shelves by updating changeStatus in db.change and db.changex.'
p3472
sg21
S'Promote Shelves'
p3473
stRp3474
atRp3475
stRp3476
sS'datatypes'
p3477
g3
(g4
g5
(dp3478
S'datatype'
p3479
g3
(g8
g9
(lp3480
g3
(g4
g5
(dp3481
g19
S'flag'
p3482
sS'summary'
p3483
S'Type of action'
p3484
sS'values'
p3485
g3
(g8
g9
(lp3486
g3
(g4
g5
(dp3487
S'value'
p3488
S'0'
sg21
S'add; user adds a file'
p3489
stRp3490
ag3
(g4
g5
(dp3491
g3488
S'1'
sg21
S'edit; user edits a file'
p3492
stRp3493
ag3
(g4
g5
(dp3494
g3488
S'2'
sg21
S'delete; user deletes a file'
p3495
stRp3496
ag3
(g4
g5
(dp3497
g3488
S'3'
sg21
S'branch; add via integration'
p3498
stRp3499
ag3
(g4
g5
(dp3500
g3488
S'4'
sg21
S'integ; edit via integration'
p3501
stRp3502
ag3
(g4
g5
(dp3503
g3488
S'5'
sg21
S'import; add via remote depot'
p3504
stRp3505
ag3
(g4
g5
(dp3506
g3488
S'6'
sg21
S'purge; purged revision, no longer available'
p3507
stRp3508
ag3
(g4
g5
(dp3509
g3488
S'7'
sg21
S'movefrom; move from another filename'
p3510
stRp3511
ag3
(g4
g5
(dp3512
g3488
S'8'
sg21
S'moveto; move to another filename'
p3513
stRp3514
ag3
(g4
g5
(dp3515
g3488
S'9'
sg21
S'archive; stored in archive depot'
p3516
stRp3517
atRp3518
sg17
S'Action'
p3519
sg21
S'Revisions are produced by user actions. The Action\n\t\ttype defines the available actions and their internal values.'
p3520
stRp3521
ag3
(g4
g5
(dp3522
g3483
S'A changelist number'
p3523
sg19
S'integer'
p3524
sg17
S'Change'
p3525
sg21
S'The number of a changelist. The number 0 represents the\n\t\tdefault pending changelist.'
p3526
stRp3527
ag3
(g4
g5
(dp3528
g19
S'flag'
p3529
sg3483
S'The status of a change'
p3530
sg3485
g3
(g8
g9
(lp3531
g3
(g4
g5
(dp3532
g3488
S'0'
sg21
S'pending'
p3533
stRp3534
ag3
(g4
g5
(dp3535
g3488
S'1'
sg21
S'submitted'
p3536
stRp3537
ag3
(g4
g5
(dp3538
g3488
S'2'
sg21
S'shelved'
p3539
stRp3540
ag3
(g4
g5
(dp3541
g3488
S'4'
sg21
S'restricted, pending'
p3542
stRp3543
ag3
(g4
g5
(dp3544
g3488
S'5'
sg21
S'restricted, submitted'
p3545
stRp3546
ag3
(g4
g5
(dp3547
g3488
S'6'
sg21
S'restricted, shelved'
p3548
stRp3549
ag3
(g4
g5
(dp3550
g3488
S'18'
p3551
sg21
S'promoted shelf, public'
p3552
stRp3553
ag3
(g4
g5
(dp3554
g3488
S'22'
p3555
sg21
S'promoted shelf, restricted'
p3556
stRp3557
ag3
(g4
g5
(dp3558
g3488
S'34'
p3559
sg21
S'unsubmitted shelf, public'
p3560
stRp3561
ag3
(g4
g5
(dp3562
g3488
S'38'
p3563
sg21
S'unsubmitted shelf, restricted'
p3564
stRp3565
atRp3566
sg17
S'ChangeStatus'
p3567
sg21
S'A integer value representing the status of a change'
p3568
stRp3569
ag3
(g4
g5
(dp3570
g3483
S'A counter name'
p3571
sg19
S'string'
p3572
sg17
S'Counter'
p3573
sg21
S'A string representing the counter name. Counter names must \n\t\tcontain no spaces, contain no slashes, and be identifiers \n\t\t(cannot begin with a dash and cannot be all-numeric)'
p3574
stRp3575
ag3
(g4
g5
(dp3576
g3483
S'A unix-style date and time'
p3577
sg19
S'integer'
p3578
sg17
S'Date'
p3579
sg21
S'A date and time represented as the number of seconds since \n\t\tthe Epoch: 01 January 1970 00:00:00 UTC. This is the same \n\t\tconvention as that used on Unix platforms.'
p3580
stRp3581
ag3
(g4
g5
(dp3582
g19
S'flag'
p3583
sg3483
S'Type of Depot'
p3584
sg3485
g3
(g8
g9
(lp3585
g3
(g4
g5
(dp3586
g3488
S'0'
sg21
S'local depot'
p3587
stRp3588
ag3
(g4
g5
(dp3589
g3488
S'1'
sg21
S'remote depot'
p3590
stRp3591
ag3
(g4
g5
(dp3592
g3488
S'2'
sg21
S'spec depot'
p3593
stRp3594
ag3
(g4
g5
(dp3595
g3488
S'3'
sg21
S'stream depot'
p3596
stRp3597
ag3
(g4
g5
(dp3598
g3488
S'4'
sg21
S'archive depot'
p3599
stRp3600
ag3
(g4
g5
(dp3601
g3488
S'5'
sg21
S'unload depot'
p3602
stRp3603
ag3
(g4
g5
(dp3604
g3488
S'6'
sg21
S'tangent depot'
p3605
stRp3606
atRp3607
sg17
S'DepotType'
p3608
sg21
S'The type of a given depot'
p3609
stRp3610
ag3
(g4
g5
(dp3611
g3483
S'A short string value'
p3612
sg21
S'The first 31 characters of a Text string'
p3613
sg19
S'string'
p3614
sg17
S'DescShort'
p3615
sg197
S'Text'
p3616
stRp3617
ag3
(g4
g5
(dp3618
g3483
S'An MD5 digest'
p3619
sg19
S'string'
p3620
sg17
S'Digest'
p3621
sg21
S'A string containing an MD5 digest.'
p3622
stRp3623
ag3
(g4
g5
(dp3624
g3483
S'A domain name'
p3625
sg19
S'string'
p3626
sg17
S'Domain'
p3627
sg21
S'A string representing the name of a depot, label, client,\n\t\tbranch, typemap, or stream.'
p3628
stRp3629
ag3
(g4
g5
(dp3630
g3483
S'A string with optional wildcards'
p3631
sg19
S'string'
p3632
sg17
S'DomainWild'
p3633
sg21
S'A string that may contain wildcards - usually an IP address\n\t\tin the protections table.'
p3634
stRp3635
ag3
(g4
g5
(dp3636
g3485
g3
(g8
g9
(lp3637
g3
(g4
g5
(dp3638
S'mask'
p3639
S'Domain Flags'
p3640
sg3488
S'0x0001'
p3641
sg21
S'modtime'
p3642
stRp3643
ag3
(g4
g5
(dp3644
g3639
S'Domain Flags'
p3645
sg3488
S'0x0002'
p3646
sg21
S'clobber'
p3647
stRp3648
ag3
(g4
g5
(dp3649
g3639
S'Domain Flags'
p3650
sg3488
S'0x0004'
p3651
sg21
S'allwrite'
p3652
stRp3653
ag3
(g4
g5
(dp3654
g3639
S'Domain Flags'
p3655
sg3488
S'0x0008'
p3656
sg21
S'locked'
p3657
stRp3658
ag3
(g4
g5
(dp3659
g3639
S'Domain Flags'
p3660
sg3488
S'0x0020'
p3661
sg21
S'compress'
p3662
stRp3663
ag3
(g4
g5
(dp3664
g3639
S'Domain Flags'
p3665
sg3488
S'0x0040'
p3666
sg21
S'rmdir'
p3667
stRp3668
ag3
(g4
g5
(dp3669
g3639
S'Domain Flags'
p3670
sg3488
S'0x1000'
p3671
sg21
S'indirect (obsolete since 2004.2)'
p3672
stRp3673
ag3
(g4
g5
(dp3674
g3639
S'Domain Flags'
p3675
sg3488
S'0x8000'
p3676
sg21
S'autoreload'
p3677
stRp3678
ag3
(g4
g5
(dp3679
g3639
S'Domain ClientType'
p3680
sg3488
S'0x00000'
p3681
sg21
S'client is writeable'
p3682
stRp3683
ag3
(g4
g5
(dp3684
g3639
S'Domain ClientType'
p3685
sg3488
S'0x10000'
p3686
sg21
S'client is readonly'
p3687
stRp3688
ag3
(g4
g5
(dp3689
g3639
S'Domain ClientType'
p3690
sg3488
S'0x20000'
p3691
sg21
S'client is nobackup'
p3692
stRp3693
ag3
(g4
g5
(dp3694
g3639
S'Domain ClientType'
p3695
sg3488
S'0x110000'
p3696
sg21
S'client is partitioned'
p3697
stRp3698
ag3
(g4
g5
(dp3699
g3639
S'Domain LineEnd'
p3700
sg3488
S'0x0000'
p3701
sg21
S'local'
p3702
stRp3703
ag3
(g4
g5
(dp3704
g3639
S'Domain LineEnd'
p3705
sg3488
S'0x0010'
p3706
sg21
S'unix (LF)'
p3707
stRp3708
ag3
(g4
g5
(dp3709
g3639
S'Domain LineEnd'
p3710
sg3488
S'0x0200'
p3711
sg21
S'mac (CR)'
p3712
stRp3713
ag3
(g4
g5
(dp3714
g3639
S'Domain LineEnd'
p3715
sg3488
S'0x0300'
p3716
sg21
S'win (CRLF)'
p3717
stRp3718
ag3
(g4
g5
(dp3719
g3639
S'Domain LineEnd'
p3720
sg3488
S'0x0400'
p3721
sg21
S'share (LF/CRLF)'
p3722
stRp3723
ag3
(g4
g5
(dp3724
g3639
S'Domain SubmitMask'
p3725
sg3488
S'0x1000'
p3726
sg21
S'Revert unchanged files'
p3727
stRp3728
ag3
(g4
g5
(dp3729
g3639
S'Domain SubmitMask'
p3730
sg3488
S'0x2000'
p3731
sg21
S'Leave unchanged files'
p3732
stRp3733
ag3
(g4
g5
(dp3734
g3639
S'Domain SubmitMask'
p3735
sg3488
S'0x4000'
p3736
sg21
S'Submit, and re-open unchanged files'
p3737
stRp3738
ag3
(g4
g5
(dp3739
g3639
S'Domain StreamMask'
p3740
sg3488
S'0x0001'
p3741
sg21
S'allsubmit or ownersubmit'
p3742
stRp3743
ag3
(g4
g5
(dp3744
g3639
S'Domain StreamMask'
p3745
sg3488
S'0x0002'
p3746
sg21
S'locked or unlocked'
p3747
stRp3748
ag3
(g4
g5
(dp3749
g3639
S'Domain StreamMask'
p3750
sg3488
S'0x0004'
p3751
sg21
S'change flows to parent'
p3752
stRp3753
ag3
(g4
g5
(dp3754
g3639
S'Domain StreamMask'
p3755
sg3488
S'0x0008'
p3756
sg21
S'change flows from parent'
p3757
stRp3758
ag3
(g4
g5
(dp3759
g3639
S'Domain StreamMask'
p3760
sg3488
S'0x0010'
p3761
sg21
S'mergeany or mergedown'
p3762
stRp3763
atRp3764
sg17
S'DomainOpts'
p3765
sg3639
g3
(g8
g9
(lp3766
g3
(g4
g5
(dp3767
g17
S'Domain Flags'
p3768
sg3488
S'0x10EF'
p3769
sg21
S'Bits used to store client, label, and branch options'
p3770
stRp3771
ag3
(g4
g5
(dp3772
g17
S'Domain ClientType'
p3773
sg3488
S'0x190000'
p3774
sg21
S'Bits used to store client type and backup status'
p3775
stRp3776
ag3
(g4
g5
(dp3777
g17
S'Domain LineEnd'
p3778
sg3488
S'0x0710'
p3779
sg21
S'Bits used to store client line termination settings'
p3780
stRp3781
ag3
(g4
g5
(dp3782
g17
S'Domain SubmitMask'
p3783
sg3488
S'0x7000'
p3784
sg21
S'Bits used to store client submit options'
p3785
stRp3786
ag3
(g4
g5
(dp3787
g17
S'Domain StreamMask'
p3788
sg3488
S'0x000C'
p3789
sg21
S'Bits used to store stream options'
p3790
stRp3791
atRp3792
sg3483
S'Options for domains'
p3793
sg19
S'bitmask'
p3794
sg21
S'A integer value representing the options for a domain'
p3795
stRp3796
ag3
(g4
g5
(dp3797
g19
S'flag'
p3798
sg3483
S'A domain type'
p3799
sg3485
g3
(g8
g9
(lp3800
g3
(g4
g5
(dp3801
g3488
S"67 (ASCII 'C')"
p3802
sg21
S'unloaded client'
p3803
stRp3804
ag3
(g4
g5
(dp3805
g3488
S"76 (ASCII 'L')"
p3806
sg21
S'unloaded label'
p3807
stRp3808
ag3
(g4
g5
(dp3809
g3488
S"83 (ASCII 'S')"
p3810
sg21
S'unloaded task stream'
p3811
stRp3812
ag3
(g4
g5
(dp3813
g3488
S"98 (ASCII 'b')"
p3814
sg21
S'branch'
p3815
stRp3816
ag3
(g4
g5
(dp3817
g3488
S"99 (ASCII 'c')"
p3818
sg21
S'client'
p3819
stRp3820
ag3
(g4
g5
(dp3821
g3488
S"100 (ASCII 'd')"
p3822
sg21
S'depot'
p3823
stRp3824
ag3
(g4
g5
(dp3825
g3488
S"108 (ASCII 'l')"
p3826
sg21
S'label'
p3827
stRp3828
ag3
(g4
g5
(dp3829
g3488
S"115 (ASCII 's')"
p3830
sg21
S'stream'
p3831
stRp3832
ag3
(g4
g5
(dp3833
g3488
S"116 (ASCII 't')"
p3834
sg21
S'typemap'
p3835
stRp3836
atRp3837
sg17
S'DomainType'
p3838
sg21
S'A integer value representing the type of a domain'
p3839
stRp3840
ag3
(g4
g5
(dp3841
g3483
S'A file name'
p3842
sg21
S'A string representing the filename'
p3843
sg19
S'string'
p3844
sg17
S'File'
p3845
sg197
S'FileType'
p3846
stRp3847
ag3
(g4
g5
(dp3848
g3483
S'A file size'
p3849
sg19
S'integer'
p3850
sg17
S'FileSize'
p3851
sg21
S'A 64-bit integer used to store file sizes. The value -1 is\n\t\tused to represent unknown filesizes.'
p3852
stRp3853
ag3
(g4
g5
(dp3854
g3485
g3
(g8
g9
(lp3855
g3
(g4
g5
(dp3856
g3639
S'Storage Type'
p3857
sg3488
S'0x0000'
p3858
sg21
S'RCS'
p3859
stRp3860
ag3
(g4
g5
(dp3861
g3639
S'Storage Type'
p3862
sg3488
S'0x0001'
p3863
sg21
S'Binary'
p3864
stRp3865
ag3
(g4
g5
(dp3866
g3639
S'Storage Type'
p3867
sg3488
S'0x0002'
p3868
sg21
S'Tiny'
p3869
stRp3870
ag3
(g4
g5
(dp3871
g3639
S'Storage Type'
p3872
sg3488
S'0x0003'
p3873
sg21
S'Compressed'
p3874
stRp3875
ag3
(g4
g5
(dp3876
g3639
S'Storage Type'
p3877
sg3488
S'0x0004'
p3878
sg21
S'tempobj (deprecated since 2002.1)'
p3879
stRp3880
ag3
(g4
g5
(dp3881
g3639
S'Storage Type'
p3882
sg3488
S'0x0005'
p3883
sg21
S'Detect type. Used internally when no type is\n\t\t    given by the user.'
p3884
stRp3885
ag3
(g4
g5
(dp3886
g3639
S'Storage Type'
p3887
sg3488
S'0x0006'
p3888
sg21
S'Comressed tempobj (deprecated since 2002.1)'
p3889
stRp3890
ag3
(g4
g5
(dp3891
g3639
S'Storage Type'
p3892
sg3488
S'0x0007'
p3893
sg21
S'Binary access to compressed data. Used internally.'
p3894
stRp3895
ag3
(g4
g5
(dp3896
g3639
S'Storage Type'
p3897
sg3488
S'0x0008'
p3898
sg21
S'Stored externally via librarian trigger'
p3899
stRp3900
ag3
(g4
g5
(dp3901
g3639
S'Storage Mods'
p3902
sg3488
S'0x0010'
p3903
sg21
S'99.2-style keyword expansion/contraction'
p3904
stRp3905
ag3
(g4
g5
(dp3906
g3639
S'Storage Mods'
p3907
sg3488
S'0x0020'
p3908
sg21
S'2000.1-style keyword expansion/contraction'
p3909
stRp3910
ag3
(g4
g5
(dp3911
g3639
S'Storage Mods'
p3912
sg3488
S'0x0030'
p3913
sg21
S'Any type of keyword expansion'
p3914
stRp3915
ag3
(g4
g5
(dp3916
g3639
S'Storage Mods'
p3917
sg3488
S'0x0040'
p3918
sg21
S'Exclusive open'
p3919
stRp3920
ag3
(g4
g5
(dp3921
g3639
S'Storage Mods'
p3922
sg3488
S'0x0080'
p3923
sg21
S'New tempobj (+S modifier)'
p3924
stRp3925
ag3
(g4
g5
(dp3926
g3639
S'Tempobj revisions'
p3927
sg3488
S'0x0000'
p3928
sg21
S'+S1'
p3929
stRp3930
ag3
(g4
g5
(dp3931
g3639
S'Tempobj revisions'
p3932
sg3488
S'0x0100'
p3933
sg21
S'+S2'
p3934
stRp3935
ag3
(g4
g5
(dp3936
g3639
S'Tempobj revisions'
p3937
sg3488
S'0x0200'
p3938
sg21
S'+S3'
p3939
stRp3940
ag3
(g4
g5
(dp3941
g3639
S'Tempobj revisions'
p3942
sg3488
S'0x0300'
p3943
sg21
S'+S4'
p3944
stRp3945
ag3
(g4
g5
(dp3946
g3639
S'Tempobj revisions'
p3947
sg3488
S'0x0400'
p3948
sg21
S'+S5'
p3949
stRp3950
ag3
(g4
g5
(dp3951
g3639
S'Tempobj revisions'
p3952
sg3488
S'0x0500'
p3953
sg21
S'+S6'
p3954
stRp3955
ag3
(g4
g5
(dp3956
g3639
S'Tempobj revisions'
p3957
sg3488
S'0x0600'
p3958
sg21
S'+S7'
p3959
stRp3960
ag3
(g4
g5
(dp3961
g3639
S'Tempobj revisions'
p3962
sg3488
S'0x0700'
p3963
sg21
S'+S8'
p3964
stRp3965
ag3
(g4
g5
(dp3966
g3639
S'Tempobj revisions'
p3967
sg3488
S'0x0800'
p3968
sg21
S'+S9'
p3969
stRp3970
ag3
(g4
g5
(dp3971
g3639
S'Tempobj revisions'
p3972
sg3488
S'0x0900'
p3973
sg21
S'+S10'
p3974
stRp3975
ag3
(g4
g5
(dp3976
g3639
S'Tempobj revisions'
p3977
sg3488
S'0x0A00'
p3978
sg21
S'+S16'
p3979
stRp3980
ag3
(g4
g5
(dp3981
g3639
S'Tempobj revisions'
p3982
sg3488
S'0x0B00'
p3983
sg21
S'+S32'
p3984
stRp3985
ag3
(g4
g5
(dp3986
g3639
S'Tempobj revisions'
p3987
sg3488
S'0x0C00'
p3988
sg21
S'+S64'
p3989
stRp3990
ag3
(g4
g5
(dp3991
g3639
S'Tempobj revisions'
p3992
sg3488
S'0x0D00'
p3993
sg21
S'+S128'
p3994
stRp3995
ag3
(g4
g5
(dp3996
g3639
S'Tempobj revisions'
p3997
sg3488
S'0x0E00'
p3998
sg21
S'+S256'
p3999
stRp4000
ag3
(g4
g5
(dp4001
g3639
S'Tempobj revisions'
p4002
sg3488
S'0x0F00'
p4003
sg21
S'+S512'
p4004
stRp4005
ag3
(g4
g5
(dp4006
g3639
S'Client Type'
p4007
sg3488
S'0x0000000'
p4008
sg21
S'text'
p4009
stRp4010
ag3
(g4
g5
(dp4011
g3639
S'Client Type'
p4012
sg3488
S'0x0010000'
p4013
sg21
S'binary'
p4014
stRp4015
ag3
(g4
g5
(dp4016
g3639
S'Client Type'
p4017
sg3488
S'0x0020000'
p4018
sg21
S'executable bit set'
p4019
stRp4020
ag3
(g4
g5
(dp4021
g3639
S'Client Type'
p4022
sg3488
S'0x0040000'
p4023
sg21
S'symlink'
p4024
stRp4025
ag3
(g4
g5
(dp4026
g3639
S'Client Type'
p4027
sg3488
S'0x0050000'
p4028
sg21
S'resource fork'
p4029
stRp4030
ag3
(g4
g5
(dp4031
g3639
S'Client Type'
p4032
sg3488
S'0x0080000'
p4033
sg21
S'unicode'
p4034
stRp4035
ag3
(g4
g5
(dp4036
g3639
S'Client Type'
p4037
sg3488
S'0x0090000'
p4038
sg21
S'raw text (nocrlf - 99.1)'
p4039
stRp4040
ag3
(g4
g5
(dp4041
g3639
S'Client Type'
p4042
sg3488
S'0x00C0000'
p4043
sg21
S'apple data + resource file (since 2000.2)'
p4044
stRp4045
ag3
(g4
g5
(dp4046
g3639
S'Client Type'
p4047
sg3488
S'0x00D0000'
p4048
sg21
S'apple data + resource file (99.2)'
p4049
stRp4050
ag3
(g4
g5
(dp4051
g3639
S'Client Type'
p4052
sg3488
S'0x1000000'
p4053
sg21
S'Used to support filetype detection'
p4054
stRp4055
ag3
(g4
g5
(dp4056
g3639
S'Client Mods'
p4057
sg3488
S'0x0100000'
p4058
sg21
S'writable'
p4059
stRp4060
ag3
(g4
g5
(dp4061
g3639
S'Client Mods'
p4062
sg3488
S'0x0200000'
p4063
sg21
S'modtime'
p4064
stRp4065
ag3
(g4
g5
(dp4066
g3639
S'Client Mods'
p4067
sg3488
S'0x0400000'
p4068
sg21
S'uncompress on client'
p4069
stRp4070
atRp4071
sg17
S'FileType'
p4072
sg3639
g3
(g8
g9
(lp4073
g3
(g4
g5
(dp4074
g17
S'Storage Type'
p4075
sg3488
S'0x000F'
p4076
sg21
S"Bits used to store the server's storage type"
p4077
stRp4078
ag3
(g4
g5
(dp4079
g17
S'Storage Mods'
p4080
sg3488
S'0x00F0'
p4081
sg21
S"Bits used to store the modifiers to the server's storage \n\t\t    type"
p4082
stRp4083
ag3
(g4
g5
(dp4084
g17
S'Tempobj revisions'
p4085
sg3488
S'0x0F00'
p4086
sg21
S'Bits used to store the number of revisions to be stored\n\t\t    for +Sn files.'
p4087
stRp4088
ag3
(g4
g5
(dp4089
g17
S'Client Type'
p4090
sg3488
S'0x10D0000'
p4091
sg21
S"Bits used to store the file type from the client's point\n\t\t    of view."
p4092
stRp4093
ag3
(g4
g5
(dp4094
g17
S'Client Mods'
p4095
sg3488
S'0x720000'
p4096
sg21
S'Bits used to store the modifiers applied to the file\n\t\t    on the client.'
p4097
stRp4098
atRp4099
sg3483
S'Type of file'
p4100
sg19
S'bitmask'
p4101
sg21
S'The FileType is a bitmask specifying the type and modifiers\n\t\tof a revision from both the client and server points of view.\n\t\tThe first 16 bits are used to store the storage type and \n\t\tmodifiers, the next 16 bits are used to store the client \n\t\taccess method and modifiers.'
p4102
stRp4103
ag3
(g4
g5
(dp4104
g3483
S'Status of a fixed job'
p4105
sg19
S'string'
p4106
sg17
S'FixStatus'
p4107
sg21
S'This type is a wrapper around the \'Text\' type that handles\n\t\tthe pre-2000.1 "closed" default value.'
p4108
stRp4109
ag3
(g4
g5
(dp4110
g3483
S'A 32-bit integer'
p4111
sg19
S'integer'
p4112
sg17
S'Int'
p4113
sg21
S'A 32-bit integer'
p4114
stRp4115
ag3
(g4
g5
(dp4116
g3483
S'An 8-bit integer'
p4117
sg19
S'integer'
p4118
sg17
S'Int8'
p4119
sg21
S'An 8-bit integer: an unsigned char'
p4120
stRp4121
ag3
(g4
g5
(dp4122
g3483
S'A 64-bit integer'
p4123
sg19
S'integer'
p4124
sg17
S'Int64'
p4125
sg21
S'A 64-bit integer.'
p4126
stRp4127
ag3
(g4
g5
(dp4128
g298
S'All integration records should have a corresponding \n\t\treverse record. The \'branch from\' (2) and \'merge from\' (0) \n\t\trecords have corresponding "dirty" reverse records for cases \n\t\twhere the target file took more than one change or was \n\t\t(re)opened for \'edit\' or \'add\'.'
p4129
sg3485
g3
(g8
g9
(lp4130
g3
(g4
g5
(dp4131
g3488
S'0'
sg21
S'merge from: integration with other changes'
p4132
stRp4133
ag3
(g4
g5
(dp4134
g3488
S'1'
sg21
S'merge into: reverse merge'
p4135
stRp4136
ag3
(g4
g5
(dp4137
g3488
S'2'
sg21
S'branch from: integration was branch of file'
p4138
stRp4139
ag3
(g4
g5
(dp4140
g3488
S'3'
sg21
S'branch into: reverse branch'
p4141
stRp4142
ag3
(g4
g5
(dp4143
g3488
S'4'
sg21
S'copy from: integration took source file whole'
p4144
stRp4145
ag3
(g4
g5
(dp4146
g3488
S'5'
sg21
S'copy into: reverse take'
p4147
stRp4148
ag3
(g4
g5
(dp4149
g3488
S'6'
sg21
S'ignored: integration ignored source changes'
p4150
stRp4151
ag3
(g4
g5
(dp4152
g3488
S'7'
sg21
S'ignored by: reverse copy'
p4153
stRp4154
ag3
(g4
g5
(dp4155
g3488
S'8'
sg21
S'delete from: integration of delete'
p4156
stRp4157
ag3
(g4
g5
(dp4158
g3488
S'9'
sg21
S'delete into: reverse delete'
p4159
stRp4160
ag3
(g4
g5
(dp4161
g3488
S'10'
p4162
sg21
S'edit into: reverse of integration downgraded to \n\t\t    edit'
p4163
stRp4164
ag3
(g4
g5
(dp4165
g3488
S'11'
p4166
sg21
S'add into: reverse of branch downgraded to add'
p4167
stRp4168
ag3
(g4
g5
(dp4169
g3488
S'12'
p4170
sg21
S'edit from: merge that the user edited'
p4171
stRp4172
ag3
(g4
g5
(dp4173
g3488
S'13'
p4174
sg21
S'add from: branch downgraded to add'
p4175
stRp4176
ag3
(g4
g5
(dp4177
g3488
S'14'
p4178
sg21
S'moved from: reverse of renamed file'
p4179
stRp4180
ag3
(g4
g5
(dp4181
g3488
S'15'
p4182
sg21
S'moved into: file was renamed'
p4183
stRp4184
ag3
(g4
g5
(dp4185
g3488
S'16'
p4186
sg21
S"'delete' target rev ignoring non-deleted source"
p4187
stRp4188
ag3
(g4
g5
(dp4189
g3488
S'17'
p4190
sg21
S"non-deleted source ignored by 'delete' target rev"
p4191
stRp4192
ag3
(g4
g5
(dp4193
g3488
S'18'
p4194
sg21
S"'integrate' target rev ignoring deleted source"
p4195
stRp4196
ag3
(g4
g5
(dp4197
g3488
S'19'
p4198
sg21
S"deleted source ignored by 'integrate' target rev"
p4199
stRp4200
ag3
(g4
g5
(dp4201
g3488
S'20'
p4202
sg21
S'deleted branch: branch from'
p4203
stRp4204
ag3
(g4
g5
(dp4205
g3488
S'21'
p4206
sg21
S'deleted branch: delete into'
p4207
stRp4208
ag3
(g4
g5
(dp4209
g3488
S'22'
p4210
sg21
S'undo: opposite of merge'
p4211
stRp4212
ag3
(g4
g5
(dp4213
g3488
S'23'
p4214
sg21
S'undo reverse'
p4215
stRp4216
ag3
(g4
g5
(dp4217
g3488
S'24'
p4218
sg21
S'move undo: move + undo as one record'
p4219
stRp4220
ag3
(g4
g5
(dp4221
g3488
S'25'
p4222
sg21
S'move undo reverse'
p4223
stRp4224
atRp4225
sg17
S'IntegHow'
p4226
sg3483
S'Integration methods'
p4227
sg19
S'flag'
p4228
sg21
S"Specifies how an integration was performed. Integrations\n\t\talways come in pairs: the 'forward' and 'reverse' records.\n\t\tAs a general rule, the forward records contain the word \n\t\t'from'; and the reverse records contain the word 'into'."
p4229
stRp4230
ag3
(g4
g5
(dp4231
g19
S'flag'
p4232
sg3483
S'Job status - defunct'
p4233
sg3485
g3
(g8
g9
(lp4234
g3
(g4
g5
(dp4235
g3488
S'0'
sg21
S'open'
p4236
stRp4237
ag3
(g4
g5
(dp4238
g3488
S'1'
sg21
S'closed'
p4239
stRp4240
ag3
(g4
g5
(dp4241
g3488
S'2'
sg21
S'suspended'
p4242
stRp4243
atRp4244
sg17
S'JobStat'
p4245
sg21
S'Old (pre-98.2) job status values.'
p4246
stRp4247
ag3
(g4
g5
(dp4248
g3483
S'A key name'
p4249
sg19
S'string'
p4250
sg17
S'Key'
p4251
sg21
S'A string representing the key name. Key names must \n\t\tcontain no spaces, contain no slashes, and be identifiers \n\t\t(cannot begin with a dash and cannot be all-numeric)'
p4252
stRp4253
ag3
(g4
g5
(dp4254
g19
S'flag'
p4255
sg3483
S'Types of mapping'
p4256
sg3485
g3
(g8
g9
(lp4257
g3
(g4
g5
(dp4258
g3488
S'0'
sg21
S'mapped-in (the default)'
p4259
stRp4260
ag3
(g4
g5
(dp4261
g3488
S'1'
sg21
S"mapped-out (mappings that start with '-')"
p4262
stRp4263
ag3
(g4
g5
(dp4264
g3488
S'2'
sg21
S"overlay (mappings that start with '+')"
p4265
stRp4266
ag3
(g4
g5
(dp4267
g3488
S'3'
sg21
S"haveMap (mappings that start with '$'). Used internally\n\t\t    only"
p4268
stRp4269
ag3
(g4
g5
(dp4270
g3488
S'4'
sg21
S"changeMap (mappings that start with '@')"
p4271
stRp4272
atRp4273
sg17
S'MapFlag'
p4274
sg21
S'Specifies how the files specified by a mapping should be\n\t\ttreated'
p4275
stRp4276
ag3
(g4
g5
(dp4277
g3483
S'A string representing a mapping'
p4278
sg19
S'string'
p4279
sg17
S'Mapping'
p4280
sg21
S'A Mapping is essentially a file name that may contain\n\t\twildcards'
p4281
stRp4282
ag3
(g4
g5
(dp4283
g3483
S'Maximum number of milliseconds to hold locks'
p4284
sg19
S'integer'
p4285
sg17
S'MaxLockTime'
p4286
sg21
S"The number of milliseconds for which a command may hold locks.\n\t\tCommands that take longer than this time period will abort. \n\t\tThe value 0 means 'unlimited'."
p4287
stRp4288
ag3
(g4
g5
(dp4289
g3483
S'Maximum number of results permitted'
p4290
sg19
S'integer'
p4291
sg17
S'MaxResults'
p4292
sg21
S"The number of results that commands run by the restricted\n\t\tuser are permitted to return. The value 0 means 'unlimited'."
p4293
stRp4294
ag3
(g4
g5
(dp4295
g3483
S'Maximum number of records scanned'
p4296
sg19
S'integer'
p4297
sg17
S'MaxScanRows'
p4298
sg21
S"The maximum number of records that the server may read\n\t\ton behalf of the restricted user. The value 0 means \n\t\t'unlimited'."
p4299
stRp4300
ag3
(g4
g5
(dp4301
g3483
S'Encoded hex string'
p4302
sg19
S'string'
p4303
sg17
S'Octet String'
p4304
sg21
S'A variable length encoded hex string. The first octet \n\t\tstores the length of the string.'
p4305
stRp4306
ag3
(g4
g5
(dp4307
g3483
S'The MD5 hash of a password'
p4308
sg19
S'string'
p4309
sg17
S'Password'
p4310
sg21
S'The MD5 hash of an encrypted password.'
p4311
stRp4312
ag3
(g4
g5
(dp4313
g3485
g3
(g8
g9
(lp4314
g3
(g4
g5
(dp4315
g3639
S'PermTypeBits'
p4316
sg17
S'None'
p4317
sg3488
S'0x0000'
p4318
sg21
S'none'
p4319
stRp4320
ag3
(g4
g5
(dp4321
g3639
S'PermTypeBits'
p4322
sg17
S'List'
p4323
sg3488
S'0x0001'
p4324
sg21
S'Grants list access'
p4325
stRp4326
ag3
(g4
g5
(dp4327
g3639
S'PermTypeBits'
p4328
sg17
S'Read'
p4329
sg3488
S'0x0002'
p4330
sg21
S'Grants read access'
p4331
stRp4332
ag3
(g4
g5
(dp4333
g3639
S'PermTypeBits'
p4334
sg17
S'Branch'
p4335
sg3488
S'0x0004'
p4336
sg21
S'Grants ability to branch/integ from'
p4337
stRp4338
ag3
(g4
g5
(dp4339
g3639
S'PermTypeBits'
p4340
sg17
S'Open'
p4341
sg3488
S'0x0008'
p4342
sg21
S'Grants open access'
p4343
stRp4344
ag3
(g4
g5
(dp4345
g3639
S'PermTypeBits'
p4346
sg17
S'Write'
p4347
sg3488
S'0x0010'
p4348
sg21
S'Grants write access'
p4349
stRp4350
ag3
(g4
g5
(dp4351
g3639
S'PermTypeBits'
p4352
sg17
S'Review'
p4353
sg3488
S'0x0020'
p4354
sg21
S'Grants review access'
p4355
stRp4356
ag3
(g4
g5
(dp4357
g3639
S'PermTypeBits'
p4358
sg17
S'Admin'
p4359
sg3488
S'0x0080'
p4360
sg21
S'Grants admin access'
p4361
stRp4362
ag3
(g4
g5
(dp4363
g3639
S'PermTypeBits'
p4364
sg17
S'Super'
p4365
sg3488
S'0x0040'
p4366
sg21
S'Grants super-user access'
p4367
stRp4368
ag3
(g4
g5
(dp4369
g3639
S'PermTypeBits'
p4370
sg17
S'Owner'
p4371
sg3488
S'0x0100'
p4372
sg21
S'Grants owner access'
p4373
stRp4374
atRp4375
sg17
S'Perm'
p4376
sg3639
g3
(g4
g5
(dp4377
g17
S'PermTypeBits'
p4378
sg3488
S'0x00FF'
p4379
sg21
S'Bits used to store granted permissions'
p4380
stRp4381
sg3483
S'Bitmask of permissions'
p4382
sg19
S'bitmask'
p4383
sg21
S'A bitmask of granted permissions'
p4384
stRp4385
ag3
(g4
g5
(dp4386
g19
S'flag'
p4387
sg3483
S'Archive pull transfer status'
p4388
sg3485
g3
(g8
g9
(lp4389
g3
(g4
g5
(dp4390
g17
S'new'
p4391
sg3488
S'new'
p4392
sg21
S'new transfer'
p4393
stRp4394
ag3
(g4
g5
(dp4395
g17
S'active'
p4396
sg3488
S'active'
p4397
sg21
S'active transfer'
p4398
stRp4399
ag3
(g4
g5
(dp4400
g17
S'done'
p4401
sg3488
S'done'
p4402
sg21
S'completed transfer'
p4403
stRp4404
ag3
(g4
g5
(dp4405
g17
S'error'
p4406
sg3488
S'error'
p4407
sg21
S'errored transfer'
p4408
stRp4409
ag3
(g4
g5
(dp4410
g17
S'restart'
p4411
sg3488
S'restart'
p4412
sg21
S'restarted transfer'
p4413
stRp4414
ag3
(g4
g5
(dp4415
g17
S'cancelled'
p4416
sg3488
S'cancelled'
p4417
sg21
S'cancelled transfer'
p4418
stRp4419
atRp4420
sg17
S'PullStatus'
p4421
sg21
S'The status of an archive pull transfer'
p4422
stRp4423
ag3
(g4
g5
(dp4424
g3483
S'A remote name'
p4425
sg19
S'string'
p4426
sg17
S'RemoteID'
p4427
sg21
S'A string representing the name of a remote spec'
p4428
stRp4429
ag3
(g4
g5
(dp4430
g19
S'flag'
p4431
sg3483
S'Resolve actions'
p4432
sg3485
g3
(g8
g9
(lp4433
g3
(g4
g5
(dp4434
g3488
S'0'
sg21
S'Content resolve'
p4435
stRp4436
ag3
(g4
g5
(dp4437
g3488
S'1'
sg21
S'Filetype resolve'
p4438
stRp4439
ag3
(g4
g5
(dp4440
g3488
S'2'
sg21
S'Branch resolve'
p4441
stRp4442
ag3
(g4
g5
(dp4443
g3488
S'3'
sg21
S'Delete resolve'
p4444
stRp4445
ag3
(g4
g5
(dp4446
g3488
S'4'
sg21
S'Move resolve'
p4447
stRp4448
ag3
(g4
g5
(dp4449
g3488
S'5'
sg21
S'Attribute resolve'
p4450
stRp4451
ag3
(g4
g5
(dp4452
g3488
S'6'
sg21
S'Charset resolve'
p4453
stRp4454
atRp4455
sg17
S'ResolveState'
p4456
sg21
S'Pending or completed resolve actions.'
p4457
stRp4458
ag3
(g4
g5
(dp4459
g19
S'flag'
p4460
sg3483
S'Resolve methods (obsolete in 2011.1, replaced by ResolveState)'
p4461
sg3485
g3
(g8
g9
(lp4462
g3
(g4
g5
(dp4463
g3488
S'0'
sg21
S'Not yet resolved'
p4464
stRp4465
ag3
(g4
g5
(dp4466
g3488
S'1'
sg21
S'Resolved manually'
p4467
stRp4468
ag3
(g4
g5
(dp4469
g3488
S'2'
sg21
S'Resolved automatically as part of a branch'
p4470
stRp4471
ag3
(g4
g5
(dp4472
g3488
S'3'
sg21
S'Resolved automatically as part of a delete'
p4473
stRp4474
ag3
(g4
g5
(dp4475
g3488
S'4'
sg21
S'Resolved automatically as part of a move'
p4476
stRp4477
atRp4478
sg17
S'ResolvedStatus'
p4479
sg21
S'Specifies how the user resolved merge operations.'
p4480
stRp4481
ag3
(g4
g5
(dp4482
g3483
S'A revision number'
p4483
sg19
S'integer'
p4484
sg17
S'Rev'
p4485
sg21
S"The positive integer number of a specific revision of a file. \n\t\tThe number 0 represents '#none'."
p4486
stRp4487
ag3
(g4
g5
(dp4488
g3485
g3
(g8
g9
(lp4489
g3
(g4
g5
(dp4490
g3639
S'RevStatusBits'
p4491
sg3488
S'0x0000'
p4492
sg21
S'single revision with content'
p4493
stRp4494
ag3
(g4
g5
(dp4495
g3639
S'RevStatusBits'
p4496
sg3488
S'0x0001'
p4497
sg21
S'single revision lazy copied'
p4498
stRp4499
ag3
(g4
g5
(dp4500
g3639
S'RevStatusBits'
p4501
sg3488
S'0x0002'
p4502
sg21
S'revision task sparse'
p4503
stRp4504
ag3
(g4
g5
(dp4505
g3639
S'RevStatusBits'
p4506
sg3488
S'0x0004'
p4507
sg21
S'revision task branch'
p4508
stRp4509
ag3
(g4
g5
(dp4510
g3639
S'RevCharsetBits'
p4511
sg3488
S'0'
sg21
S'NONE'
p4512
stRp4513
ag3
(g4
g5
(dp4514
g3639
S'RevCharsetBits'
p4515
sg3488
S'1'
sg21
S'UTF_8'
p4516
stRp4517
ag3
(g4
g5
(dp4518
g3639
S'RevCharsetBits'
p4519
sg3488
S'2'
sg21
S'ISO8859_1'
p4520
stRp4521
ag3
(g4
g5
(dp4522
g3639
S'RevCharsetBits'
p4523
sg3488
S'3'
sg21
S'UTF_16'
p4524
stRp4525
ag3
(g4
g5
(dp4526
g3639
S'RevCharsetBits'
p4527
sg3488
S'4'
sg21
S'SHIFTJIS'
p4528
stRp4529
ag3
(g4
g5
(dp4530
g3639
S'RevCharsetBits'
p4531
sg3488
S'5'
sg21
S'EUCJP'
p4532
stRp4533
ag3
(g4
g5
(dp4534
g3639
S'RevCharsetBits'
p4535
sg3488
S'6'
sg21
S'WIN_US_ANSI'
p4536
stRp4537
ag3
(g4
g5
(dp4538
g3639
S'RevCharsetBits'
p4539
sg3488
S'7'
sg21
S'WIN_US_OEM'
p4540
stRp4541
ag3
(g4
g5
(dp4542
g3639
S'RevCharsetBits'
p4543
sg3488
S'8'
sg21
S'MACOS_ROMAN'
p4544
stRp4545
ag3
(g4
g5
(dp4546
g3639
S'RevCharsetBits'
p4547
sg3488
S'9'
sg21
S'ISO8859_15'
p4548
stRp4549
ag3
(g4
g5
(dp4550
g3639
S'RevCharsetBits'
p4551
sg3488
S'10'
p4552
sg21
S'ISO8859_5'
p4553
stRp4554
ag3
(g4
g5
(dp4555
g3639
S'RevCharsetBits'
p4556
sg3488
S'11'
p4557
sg21
S'KOI8_R'
p4558
stRp4559
ag3
(g4
g5
(dp4560
g3639
S'RevCharsetBits'
p4561
sg3488
S'12'
p4562
sg21
S'WIN_CP_1251'
p4563
stRp4564
ag3
(g4
g5
(dp4565
g3639
S'RevCharsetBits'
p4566
sg3488
S'13'
p4567
sg21
S'UTF_16_LE'
p4568
stRp4569
ag3
(g4
g5
(dp4570
g3639
S'RevCharsetBits'
p4571
sg3488
S'14'
p4572
sg21
S'UTF_16_BE'
p4573
stRp4574
ag3
(g4
g5
(dp4575
g3639
S'RevCharsetBits'
p4576
sg3488
S'15'
p4577
sg21
S'UTF_16_LE_BOM'
p4578
stRp4579
ag3
(g4
g5
(dp4580
g3639
S'RevCharsetBits'
p4581
sg3488
S'16'
p4582
sg21
S'UTF_16_BE_BOM'
p4583
stRp4584
ag3
(g4
g5
(dp4585
g3639
S'RevCharsetBits'
p4586
sg3488
S'17'
p4587
sg21
S'UTF_16_BOM'
p4588
stRp4589
ag3
(g4
g5
(dp4590
g3639
S'RevCharsetBits'
p4591
sg3488
S'18'
p4592
sg21
S'UTF_8_BOM'
p4593
stRp4594
ag3
(g4
g5
(dp4595
g3639
S'RevCharsetBits'
p4596
sg3488
S'19'
p4597
sg21
S'UTF_32'
p4598
stRp4599
ag3
(g4
g5
(dp4600
g3639
S'RevCharsetBits'
p4601
sg3488
S'20'
p4602
sg21
S'UTF_32_LE'
p4603
stRp4604
ag3
(g4
g5
(dp4605
g3639
S'RevCharsetBits'
p4606
sg3488
S'21'
p4607
sg21
S'UTF_32_BE'
p4608
stRp4609
ag3
(g4
g5
(dp4610
g3639
S'RevCharsetBits'
p4611
sg3488
S'22'
p4612
sg21
S'UTF_32_LE_BOM'
p4613
stRp4614
ag3
(g4
g5
(dp4615
g3639
S'RevCharsetBits'
p4616
sg3488
S'23'
p4617
sg21
S'UTF_32_BE_BOM'
p4618
stRp4619
ag3
(g4
g5
(dp4620
g3639
S'RevCharsetBits'
p4621
sg3488
S'24'
p4622
sg21
S'UTF_32_BOM'
p4623
stRp4624
ag3
(g4
g5
(dp4625
g3639
S'RevCharsetBits'
p4626
sg3488
S'25'
p4627
sg21
S'UTF_8_UNCHECKED'
p4628
stRp4629
ag3
(g4
g5
(dp4630
g3639
S'RevCharsetBits'
p4631
sg3488
S'26'
p4632
sg21
S'UTF_8_UNCHECKED_BOM'
p4633
stRp4634
ag3
(g4
g5
(dp4635
g3639
S'RevCharsetBits'
p4636
sg3488
S'27'
p4637
sg21
S'CP949'
p4638
stRp4639
ag3
(g4
g5
(dp4640
g3639
S'RevCharsetBits'
p4641
sg3488
S'28'
p4642
sg21
S'CP936'
p4643
stRp4644
ag3
(g4
g5
(dp4645
g3639
S'RevCharsetBits'
p4646
sg3488
S'29'
p4647
sg21
S'CP950'
p4648
stRp4649
ag3
(g4
g5
(dp4650
g3639
S'RevCharsetBits'
p4651
sg3488
S'30'
p4652
sg21
S'CP850'
p4653
stRp4654
ag3
(g4
g5
(dp4655
g3639
S'RevCharsetBits'
p4656
sg3488
S'31'
p4657
sg21
S'CP858'
p4658
stRp4659
atRp4660
sg17
S'RevStatus'
p4661
sg3639
g3
(g8
g9
(lp4662
g3
(g4
g5
(dp4663
g17
S'RevStatusBits'
p4664
sg3488
S'0x000F'
p4665
sg21
S'Bits used to store revision status'
p4666
stRp4667
ag3
(g4
g5
(dp4668
g17
S'RevCharsetBits'
p4669
sg3488
S'0x007F'
p4670
sg21
S'Bits used to store revision charset (high 8 bits). Value shifted right 24 bits before applying mask'
p4671
stRp4672
atRp4673
sg3483
S'A revision status'
p4674
sg19
S'bitmask'
p4675
sg21
S'Lazy copy, task stream promotion, and charset status'
p4676
stRp4677
ag3
(g4
g5
(dp4678
g3483
S'Type of reviewer'
p4679
sg19
S'integer'
p4680
sg17
S'Reviewer'
p4681
sg21
S'The type of reviewer. Currently there is only one type of\n\t\treviewer and 0 is the only valid value.'
p4682
stRp4683
ag3
(g4
g5
(dp4684
g19
S'flag'
p4685
sg3483
S'The type of server'
p4686
sg3485
g3
(g8
g9
(lp4687
g3
(g4
g5
(dp4688
g3488
S'0'
sg21
S'server'
p4689
stRp4690
ag3
(g4
g5
(dp4691
g3488
S'1'
sg21
S'proxy'
p4692
stRp4693
ag3
(g4
g5
(dp4694
g3488
S'2'
sg21
S'broker'
p4695
stRp4696
ag3
(g4
g5
(dp4697
g3488
S'3'
sg21
S'identifier'
p4698
stRp4699
ag3
(g4
g5
(dp4700
g3488
S'4'
sg21
S'admin'
p4701
stRp4702
atRp4703
sg17
S'ServerType'
p4704
sg21
S'The type of server'
p4705
stRp4706
ag3
(g4
g5
(dp4707
g3485
g3
(g8
g9
(lp4708
g3
(g4
g5
(dp4709
g3639
S'Service Set Value'
p4710
sg3488
S'0x0903'
p4711
sg21
S'standard \t\t( db-read | db-write | rmt-depot | rmt-journal )'
p4712
stRp4713
ag3
(g4
g5
(dp4714
g3639
S'Service Set Value'
p4715
sg3488
S'0x0045'
p4716
sg21
S'replica \t\t( db-read | db-replication | file-replication | rmt-depot | rmt-journal )'
p4717
stRp4718
ag3
(g4
g5
(dp4719
g3639
S'Service Set Value'
p4720
sg3488
S'0x0030'
p4721
sg21
S'broker ( brokering | forwarding )'
p4722
stRp4723
ag3
(g4
g5
(dp4724
g3639
S'Service Set Value'
p4725
sg3488
S'0x00A0'
p4726
sg21
S'proxy ( forwarding | file-cacheing )'
p4727
stRp4728
ag3
(g4
g5
(dp4729
g3639
S'Service Set Value'
p4730
sg3488
S'0x00E5'
p4731
sg21
S'forwarding-replica ( db-read | db-replication | forwarding | file-replication | file-cacheing | rmt-depot | rmt-journal )'
p4732
stRp4733
ag3
(g4
g5
(dp4734
g3639
S'Service Set Value'
p4735
sg3488
S'0x004D'
p4736
sg21
S'build-server ( db-read | db-replicaton | bound-clients | file-replication | rmt-depot | rmt-journal )'
p4737
stRp4738
ag3
(g4
g5
(dp4739
g3639
S'Service Set Value'
p4740
sg3488
S'0x0203'
p4741
sg21
S'P4AUTH ( db-read | db-write | rmt-auth )'
p4742
stRp4743
ag3
(g4
g5
(dp4744
g3639
S'Service Set Value'
p4745
sg3488
S'0x0403'
p4746
sg21
S'P4CHANGE ( db-read | db-write | rmt-change )'
p4747
stRp4748
ag3
(g4
g5
(dp4749
g3639
S'Service Set Value'
p4750
sg3488
S'0x19ED'
p4751
sg21
S'edge-server ( db-read | db-replication | bound-clients | forwarding | file-replication | file-cacheing | rmt-depot | rmt-journal | local-opens )'
p4752
stRp4753
ag3
(g4
g5
(dp4754
g3639
S'Service Set Value'
p4755
sg3488
S'0x2F03'
p4756
sg21
S'commit-server ( db-read | db-write | rmt-depot | rmt-journal | rmt-change | rmt-auth | commit-server )'
p4757
stRp4758
ag3
(g4
g5
(dp4759
g3639
S'Service Set Value'
p4760
sg3488
S'0x6F03'
p4761
sg21
S'depot-master ( db-read | db-write | rmt-depot | rmt-journal | rmt-change | rmt-auth | commit-server | p4zk-managed )'
p4762
stRp4763
ag3
(g4
g5
(dp4764
g3639
S'Service Set Value'
p4765
sg3488
S'0xC945'
p4766
sg21
S'depot-standby ( db-read | db-replication | file-replication | rmt-depot | rmt-journal | journal-copy | p4zk-managed )'
p4767
stRp4768
ag3
(g4
g5
(dp4769
g3639
S'Service Set Value'
p4770
sg3488
S'0x59ED'
p4771
sg21
S'workspace-server ( db-read | db-replication | bound-clients | forwarding | file-replication | file-cacheing | rmt-depot | rmt-journal | local-opens | p4zk-managed )'
p4772
stRp4773
ag3
(g4
g5
(dp4774
g3639
S'Service Set Value'
p4775
sg3488
S'0x8945'
p4776
sg21
S'standby ( db-read | db-replication | file-replication | rmt-depot | rmt-journal | journal-copy )'
p4777
stRp4778
ag3
(g4
g5
(dp4779
g3639
S'Service Set Value'
p4780
sg3488
S'0x89E5'
p4781
sg21
S'forwarding-standby ( db-read | db-replication | forwarding | file-replication | file-cacheing | rmt-depot | rmt-journal | journal-copy )'
p4782
stRp4783
ag3
(g4
g5
(dp4784
g3639
S'Service Set Value'
p4785
sg3488
S'0x4030'
p4786
sg21
S'workspace-router ( brokering | forwarding | p4zk-managed )'
p4787
stRp4788
ag3
(g4
g5
(dp4789
g3639
S'Service Set Value'
p4790
sg3488
S'0x10003'
p4791
sg21
S'local ( db-read | db-write | dvcs-local )'
p4792
stRp4793
ag3
(g4
g5
(dp4794
g3639
S'Service Set Value'
p4795
sg3488
S'0x20000'
p4796
sg21
S'cluster ( cluster-id )'
p4797
stRp4798
ag3
(g4
g5
(dp4799
g3639
S'Service Set Value'
p4800
sg3488
S'0x40000'
p4801
sg21
S'zookeeper-server ( zookeeper-server )'
p4802
stRp4803
ag3
(g4
g5
(dp4804
g3639
S'Service Set Value'
p4805
sg3488
S'0x80000'
p4806
sg21
S'hxca-server ( hxca-server )'
p4807
stRp4808
ag3
(g4
g5
(dp4809
g3639
S'Service Property'
p4810
sg3488
S'0x0001'
p4811
sg21
S'db-read'
p4812
stRp4813
ag3
(g4
g5
(dp4814
g3639
S'Service Property'
p4815
sg3488
S'0x0002'
p4816
sg21
S'db-write'
p4817
stRp4818
ag3
(g4
g5
(dp4819
g3639
S'Service Property'
p4820
sg3488
S'0x0004'
p4821
sg21
S'db-replication'
p4822
stRp4823
ag3
(g4
g5
(dp4824
g3639
S'Service Property'
p4825
sg3488
S'0x0008'
p4826
sg21
S'bound-clients'
p4827
stRp4828
ag3
(g4
g5
(dp4829
g3639
S'Service Property'
p4830
sg3488
S'0x0010'
p4831
sg21
S'brokering'
p4832
stRp4833
ag3
(g4
g5
(dp4834
g3639
S'Service Property'
p4835
sg3488
S'0x0020'
p4836
sg21
S'forwarding'
p4837
stRp4838
ag3
(g4
g5
(dp4839
g3639
S'Service Property'
p4840
sg3488
S'0x0040'
p4841
sg21
S'file-replication'
p4842
stRp4843
ag3
(g4
g5
(dp4844
g3639
S'Service Property'
p4845
sg3488
S'0x0080'
p4846
sg21
S'file-cacheing'
p4847
stRp4848
ag3
(g4
g5
(dp4849
g3639
S'Service Property'
p4850
sg3488
S'0x0100'
p4851
sg21
S'rmt-depot'
p4852
stRp4853
ag3
(g4
g5
(dp4854
g3639
S'Service Property'
p4855
sg3488
S'0x0200'
p4856
sg21
S'rmt-auth'
p4857
stRp4858
ag3
(g4
g5
(dp4859
g3639
S'Service Property'
p4860
sg3488
S'0x0400'
p4861
sg21
S'rmt-change'
p4862
stRp4863
ag3
(g4
g5
(dp4864
g3639
S'Service Property'
p4865
sg3488
S'0x0800'
p4866
sg21
S'rmt-journal'
p4867
stRp4868
ag3
(g4
g5
(dp4869
g3639
S'Service Property'
p4870
sg3488
S'0x1000'
p4871
sg21
S'local-opens'
p4872
stRp4873
ag3
(g4
g5
(dp4874
g3639
S'Service Property'
p4875
sg3488
S'0x2000'
p4876
sg21
S'commit-server'
p4877
stRp4878
ag3
(g4
g5
(dp4879
g3639
S'Service Property'
p4880
sg3488
S'0x4000'
p4881
sg21
S'p4zk-managed'
p4882
stRp4883
ag3
(g4
g5
(dp4884
g3639
S'Service Property'
p4885
sg3488
S'0x8000'
p4886
sg21
S'journal-copy'
p4887
stRp4888
ag3
(g4
g5
(dp4889
g3639
S'Service Property'
p4890
sg3488
S'0x10000'
p4891
sg21
S'dvcs-local'
p4892
stRp4893
ag3
(g4
g5
(dp4894
g3639
S'Service Property'
p4895
sg3488
S'0x20000'
p4896
sg21
S'cluster-id'
p4897
stRp4898
ag3
(g4
g5
(dp4899
g3639
S'Service Property'
p4900
sg3488
S'0x40000'
p4901
sg21
S'zookeeper'
p4902
stRp4903
ag3
(g4
g5
(dp4904
g3639
S'Service Property'
p4905
sg3488
S'0x80000'
p4906
sg21
S'hxca'
p4907
stRp4908
atRp4909
sg17
S'ServerServiceType'
p4910
sg3639
g3
(g8
g9
(lp4911
g3
(g4
g5
(dp4912
g17
S'Service Set Value'
p4913
sg3488
S'None'
p4914
sg21
S"The server service type setting is generated by OR'ing the generic ServerServiceProperties defined below"
p4915
stRp4916
ag3
(g4
g5
(dp4917
g17
S'Service Property'
p4918
sg3488
S'None'
p4919
sg21
S'ServerServiceProperties: Bits used to identify generic server properties'
p4920
stRp4921
atRp4922
sg3483
S'The type of server service'
p4923
sg19
S'bitmask'
p4924
sg21
S'The services offered by a type of service.'
p4925
stRp4926
ag3
(g4
g5
(dp4927
g19
S'flag'
p4928
sg3483
S'A spec type'
p4929
sg3485
g3
(g8
g9
(lp4930
g3
(g4
g5
(dp4931
g3488
S"98 (ASCII 'b')"
p4932
sg21
S'branch'
p4933
stRp4934
ag3
(g4
g5
(dp4935
g3488
S"67 (ASCII 'C')"
p4936
sg21
S'change'
p4937
stRp4938
ag3
(g4
g5
(dp4939
g3488
S"99 (ASCII 'c')"
p4940
sg21
S'client'
p4941
stRp4942
ag3
(g4
g5
(dp4943
g3488
S"100 (ASCII 'd')"
p4944
sg21
S'depot'
p4945
stRp4946
ag3
(g4
g5
(dp4947
g3488
S"101 (ASCII 'e')"
p4948
sg21
S'spec'
p4949
stRp4950
ag3
(g4
g5
(dp4951
g3488
S"103 (ASCII 'g')"
p4952
sg21
S'group'
p4953
stRp4954
ag3
(g4
g5
(dp4955
g3488
S"106 (ASCII 'j')"
p4956
sg21
S'job'
p4957
stRp4958
ag3
(g4
g5
(dp4959
g3488
S"108 (ASCII 'l')"
p4960
sg21
S'label'
p4961
stRp4962
ag3
(g4
g5
(dp4963
g3488
S"68 (ASCII 'D')"
p4964
sg21
S'ldap'
p4965
stRp4966
ag3
(g4
g5
(dp4967
g3488
S"76 (ASCII 'L')"
p4968
sg21
S'license'
p4969
stRp4970
ag3
(g4
g5
(dp4971
g3488
S"112 (ASCII 'p')"
p4972
sg21
S'protect'
p4973
stRp4974
ag3
(g4
g5
(dp4975
g3488
S"114 (ASCII 'r')"
p4976
sg21
S'remote'
p4977
stRp4978
ag3
(g4
g5
(dp4979
g3488
S"83 (ASCII 'S')"
p4980
sg21
S'server'
p4981
stRp4982
ag3
(g4
g5
(dp4983
g3488
S"115 (ASCII 's')"
p4984
sg21
S'stream'
p4985
stRp4986
ag3
(g4
g5
(dp4987
g3488
S"84 (ASCII 'T')"
p4988
sg21
S'trigger'
p4989
stRp4990
ag3
(g4
g5
(dp4991
g3488
S"116 (ASCII 't')"
p4992
sg21
S'typemap'
p4993
stRp4994
ag3
(g4
g5
(dp4995
g3488
S"117 (ASCII 'u')"
p4996
sg21
S'user'
p4997
stRp4998
atRp4999
sg17
S'SpecType'
p5000
sg21
S'A integer value representing the type of a spec'
p5001
stRp5002
ag3
(g4
g5
(dp5003
g19
S'flag'
p5004
sg3483
S'Stash type'
p5005
sg3485
g3
(g8
g9
(lp5006
g3
(g4
g5
(dp5007
g3488
S'0'
sg21
S'switch: A shelf with work-in-progress for a particular stream/branch'
p5008
stRp5009
ag3
(g4
g5
(dp5010
g3488
S'1'
sg21
S"tangent: Work-in-progress relocated by 'p4 fetch -t'. Consumed and removed by 'p4 resubmit'"
p5011
stRp5012
atRp5013
sg17
S'StashType'
p5014
sg21
S'Stash type'
p5015
stRp5016
ag3
(g4
g5
(dp5017
g19
S'flag'
p5018
sg3483
S'Server specification view type'
p5019
sg3485
g3
(g8
g9
(lp5020
g3
(g4
g5
(dp5021
g3488
S'0'
sg21
S'ClientDataFilter'
p5022
stRp5023
ag3
(g4
g5
(dp5024
g3488
S'1'
sg21
S'RevisionDataFilter'
p5025
stRp5026
ag3
(g4
g5
(dp5027
g3488
S'2'
sg21
S'ArchiveDataFilter'
p5028
stRp5029
atRp5030
sg17
S'SvrViewType'
p5031
sg21
S'Server specification view type'
p5032
stRp5033
ag3
(g4
g5
(dp5034
g3485
g3
(g8
g9
(lp5035
g3
(g4
g5
(dp5036
g3639
S'Stream Status'
p5037
sg3488
S'0x0000'
p5038
sg21
S'Clear cache'
p5039
stRp5040
ag3
(g4
g5
(dp5041
g3639
S'Stream Status'
p5042
sg3488
S'0x0001'
p5043
sg21
S'Needs copy'
p5044
stRp5045
ag3
(g4
g5
(dp5046
g3639
S'Stream Status'
p5047
sg3488
S'0x0002'
p5048
sg21
S'Copy up-to-date'
p5049
stRp5050
ag3
(g4
g5
(dp5051
g3639
S'Stream Status'
p5052
sg3488
S'0x0004'
p5053
sg21
S'Needs merge'
p5054
stRp5055
ag3
(g4
g5
(dp5056
g3639
S'Stream Status'
p5057
sg3488
S'0x0008'
p5058
sg21
S'Merge up-to-date'
p5059
stRp5060
atRp5061
sg17
S'StreamStatus'
p5062
sg3639
g3
(g4
g5
(dp5063
g17
S'Stream Status'
p5064
sg3488
S'Copy: 0x0003, Merge: 0x000C'
p5065
sg21
S'Bits used to store the stream integration status'
p5066
stRp5067
sg3483
S'Stream integration status'
p5068
sg19
S'bitmask'
p5069
sg21
S'The stream integration status.'
p5070
stRp5071
ag3
(g4
g5
(dp5072
g19
S'flag'
p5073
sg3483
S'Type of stream path'
p5074
sg3485
g3
(g8
g9
(lp5075
g3
(g4
g5
(dp5076
g3488
S'0'
sg21
S'share'
p5077
stRp5078
ag3
(g4
g5
(dp5079
g3488
S'1'
sg21
S'isolate'
p5080
stRp5081
ag3
(g4
g5
(dp5082
g3488
S'2'
sg21
S'import'
p5083
stRp5084
ag3
(g4
g5
(dp5085
g3488
S'3'
sg21
S'exclude'
p5086
stRp5087
ag3
(g4
g5
(dp5088
g3488
S'4'
sg21
S'remapped'
p5089
stRp5090
ag3
(g4
g5
(dp5091
g3488
S'5'
sg21
S'ignored'
p5092
stRp5093
ag3
(g4
g5
(dp5094
g3488
S'6'
sg21
S'inclusive'
p5095
stRp5096
ag3
(g4
g5
(dp5097
g3488
S'7'
sg21
S'import+'
p5098
stRp5099
atRp5100
sg17
S'StreamPathType'
p5101
sg21
S'The path type for file paths in a stream view.'
p5102
stRp5103
ag3
(g4
g5
(dp5104
g19
S'flag'
p5105
sg3483
S'Type of stream'
p5106
sg3485
g3
(g8
g9
(lp5107
g3
(g4
g5
(dp5108
g3488
S'0'
sg21
S'mainline'
p5109
stRp5110
ag3
(g4
g5
(dp5111
g3488
S'1'
sg21
S'release'
p5112
stRp5113
ag3
(g4
g5
(dp5114
g3488
S'2'
sg21
S'development'
p5115
stRp5116
ag3
(g4
g5
(dp5117
g3488
S'3'
sg21
S'virtual'
p5118
stRp5119
ag3
(g4
g5
(dp5120
g3488
S'4'
sg21
S'task'
p5121
stRp5122
ag3
(g4
g5
(dp5123
g3488
S'5'
sg21
S'task - unloaded'
p5124
stRp5125
atRp5126
sg17
S'StreamType'
p5127
sg21
S'The type of stream.'
p5128
stRp5129
ag3
(g4
g5
(dp5130
g19
S'flag'
p5131
sg3483
S'Strength check of a password'
p5132
sg3485
g3
(g8
g9
(lp5133
g3
(g4
g5
(dp5134
g3488
S'0'
sg21
S'Strength unknown'
p5135
stRp5136
ag3
(g4
g5
(dp5137
g3488
S'1'
sg21
S'Password is strong'
p5138
stRp5139
ag3
(g4
g5
(dp5140
g3488
S'2'
sg21
S'Unset'
p5141
stRp5142
atRp5143
sg17
S'Strength'
p5144
sg21
S"Whether or not a user's password has been tested for strength."
p5145
stRp5146
ag3
(g4
g5
(dp5147
S'restriction'
p5148
g3
(g8
g9
(lp5149
S'Cannot be empty'
p5150
aS'Cannot consist solely of a dash (-)'
p5151
aS'Cannot be all-numeric'
p5152
aS'Cannot contain non-printable characters'
p5153
aS'Spaces are replaced with underscores ( _ )'
p5154
aS'Revision characters (# and @) are prohibited'
p5155
aS'Slashes (/) are prohibited'
p5156
aS'Wildcards (... and *) are prohibited'
p5157
atRp5158
sg3483
S'A string up to 1024 characters long'
p5159
sg19
S'string'
p5160
sg17
S'String'
p5161
sg21
S'A string up to 1024 characters in length.  Depending on the \n\t\tcontext in which the string is used, restrictions \n\t\tmay apply. Strings are often used as key fields in the \n\t\tschema.'
p5162
stRp5163
ag3
(g4
g5
(dp5164
g19
S'flag'
p5165
sg3483
S'Tamper-state of workspace file'
p5166
sg3485
g3
(g8
g9
(lp5167
g3
(g4
g5
(dp5168
g3488
S'0'
sg21
S'Do not check for tampering'
p5169
stRp5170
ag3
(g4
g5
(dp5171
g3488
S'1'
sg21
S'Check for tampering'
p5172
stRp5173
ag3
(g4
g5
(dp5174
g3488
S'2'
sg21
S'Tamper-check failed'
p5175
stRp5176
atRp5177
sg17
S'TamperCheck'
p5178
sg21
S'Indicates the tamper-state of a file in a workspace. This\n\t\tis used to decide whether or not to check the file, and\n\t\tif checked, to hold the result.'
p5179
stRp5180
ag3
(g4
g5
(dp5181
g3483
S'A string value'
p5182
sg19
S'string'
p5183
sg17
S'Text'
p5184
sg21
S'A text string value - used to hold longer blocks of text.'
p5185
stRp5186
ag3
(g4
g5
(dp5187
g3483
S'The id of a group of traits'
p5188
sg19
S'integer'
p5189
sg17
S'TraitLot'
p5190
sg21
S'An integer identifying a group of traits which may be\n\t\tshared by several revisions.'
p5191
stRp5192
ag3
(g4
g5
(dp5193
g19
S'flag'
p5194
sg3483
S'A type of trait'
p5195
sg3485
g3
(g8
g9
(lp5196
g3
(g4
g5
(dp5197
g3488
S'0'
sg21
S'Special trait for reference counting'
p5198
stRp5199
ag3
(g4
g5
(dp5200
g3488
S'1'
sg21
S'Binary trait'
p5201
stRp5202
ag3
(g4
g5
(dp5203
g3488
S'2'
sg21
S'Binary trait that gets propagated'
p5204
stRp5205
atRp5206
sg17
S'TraitType'
p5207
sg21
S'The type of trait.'
p5208
stRp5209
ag3
(g4
g5
(dp5210
g19
S'flag'
p5211
sg3483
S'A type of trigger'
p5212
sg3485
g3
(g8
g9
(lp5213
g3
(g4
g5
(dp5214
g3488
S'0'
sg21
S'change-submit (formerly pre-submit triggers)'
p5215
stRp5216
ag3
(g4
g5
(dp5217
g3488
S'1'
sg21
S'change-content'
p5218
stRp5219
ag3
(g4
g5
(dp5220
g3488
S'2'
sg21
S'change-commit'
p5221
stRp5222
ag3
(g4
g5
(dp5223
g3488
S'3'
sg21
S'form-in'
p5224
stRp5225
ag3
(g4
g5
(dp5226
g3488
S'4'
sg21
S'form-out'
p5227
stRp5228
ag3
(g4
g5
(dp5229
g3488
S'5'
sg21
S'form-save'
p5230
stRp5231
ag3
(g4
g5
(dp5232
g3488
S'6'
sg21
S'form-delete'
p5233
stRp5234
ag3
(g4
g5
(dp5235
g3488
S'7'
sg21
S'form-commit'
p5236
stRp5237
ag3
(g4
g5
(dp5238
g3488
S'8'
sg21
S'auth-check'
p5239
stRp5240
ag3
(g4
g5
(dp5241
g3488
S'9'
sg21
S'auth-check-sso'
p5242
stRp5243
ag3
(g4
g5
(dp5244
g3488
S'10'
p5245
sg21
S'auth-set'
p5246
stRp5247
ag3
(g4
g5
(dp5248
g3488
S'11'
p5249
sg21
S'fix-add'
p5250
stRp5251
ag3
(g4
g5
(dp5252
g3488
S'12'
p5253
sg21
S'fix-delete'
p5254
stRp5255
ag3
(g4
g5
(dp5256
g3488
S'13'
p5257
sg21
S'archive'
p5258
stRp5259
ag3
(g4
g5
(dp5260
g3488
S'14'
p5261
sg21
S'shelve-submit'
p5262
stRp5263
ag3
(g4
g5
(dp5264
g3488
S'15'
p5265
sg21
S'shelve-commit'
p5266
stRp5267
ag3
(g4
g5
(dp5268
g3488
S'16'
p5269
sg21
S'shelve-delete'
p5270
stRp5271
ag3
(g4
g5
(dp5272
g3488
S'17'
p5273
sg21
S'service-check'
p5274
stRp5275
ag3
(g4
g5
(dp5276
g3488
S'18'
p5277
sg21
S'edge-submit'
p5278
stRp5279
ag3
(g4
g5
(dp5280
g3488
S'19'
p5281
sg21
S'edge-content'
p5282
stRp5283
ag3
(g4
g5
(dp5284
g3488
S'20'
p5285
sg21
S'change-failed'
p5286
stRp5287
ag3
(g4
g5
(dp5288
g3488
S'21'
p5289
sg21
S'command'
p5290
stRp5291
ag3
(g4
g5
(dp5292
g3488
S'22'
p5293
sg21
S'push-submit'
p5294
stRp5295
ag3
(g4
g5
(dp5296
g3488
S'23'
p5297
sg21
S'push-content'
p5298
stRp5299
ag3
(g4
g5
(dp5300
g3488
S'24'
p5301
sg21
S'push-commit'
p5302
stRp5303
ag3
(g4
g5
(dp5304
g3488
S'25'
p5305
sg21
S'journal-rotate'
p5306
stRp5307
ag3
(g4
g5
(dp5308
g3488
S'26'
p5309
sg21
S'journal-rotate-lock'
p5310
stRp5311
atRp5312
sg17
S'Trigger'
p5313
sg21
S'The type of a trigger.'
p5314
stRp5315
ag3
(g4
g5
(dp5316
g3483
S'A user or group name'
p5317
sg21
S'The name of a Helix Server user or group.'
p5318
sg19
S'string'
p5319
sg17
S'User'
p5320
sg197
S'String'
p5321
stRp5322
ag3
(g4
g5
(dp5323
g19
S'flag'
p5324
sg3483
S'User functionality level'
p5325
sg3485
g3
(g8
g9
(lp5326
g3
(g4
g5
(dp5327
g3488
S'0'
sg21
S'standard'
p5328
stRp5329
ag3
(g4
g5
(dp5330
g3488
S'1'
sg21
S'service'
p5331
stRp5332
ag3
(g4
g5
(dp5333
g3488
S'2'
sg21
S'operator'
p5334
stRp5335
atRp5336
sg17
S'UserLevel'
p5337
sg21
S'User functionality level'
p5338
stRp5339
ag3
(g4
g5
(dp5340
g3485
g3
(g8
g9
(lp5341
g3
(g4
g5
(dp5342
g3639
S'UserTypeBits'
p5343
sg17
S'User'
p5344
sg3488
S'0x0001'
p5345
sg21
S'User is an ordinary user'
p5346
stRp5347
ag3
(g4
g5
(dp5348
g3639
S'UserTypeBits'
p5349
sg17
S'SubGroup'
p5350
sg3488
S'0x0002'
p5351
sg21
S'Group is a sub-group'
p5352
stRp5353
ag3
(g4
g5
(dp5354
g3639
S'UserTypeBits'
p5355
sg17
S'Owner'
p5356
sg3488
S'0x0004'
p5357
sg21
S'User is the owner of a group'
p5358
stRp5359
atRp5360
sg17
S'UserType'
p5361
sg3639
g3
(g4
g5
(dp5362
g17
S'UserTypeBits'
p5363
sg3488
S'0x0007'
p5364
sg21
S'Bits used to store the role of a user in a group'
p5365
stRp5366
sg3483
S'The role of a user within a group'
p5367
sg19
S'bitmask'
p5368
sg21
S'The role of a user (or group) within a group.'
p5369
stRp5370
ag3
(g4
g5
(dp5371
g3483
S'A user or group name with wildcards'
p5372
sg21
S'A user/group name that may contain wildcards (*)'
p5373
sg19
S'string'
p5374
sg17
S'UserWild'
p5375
sg197
S'User'
p5376
stRp5377
ag3
(g4
g5
(dp5378
g3483
S'A number or a string'
p5379
sg19
S'string'
p5380
sg17
S'Value'
p5381
sg21
S'A number, stored in a string, or a string'
p5382
stRp5383
atRp5384
stRp5385
s.