(dp1
S'tables'
p2
ccopy_reg
_reconstructor
p3
(clib.sqUtils
Storage
p4
c__builtin__
dict
p5
(dp6
S'table'
p7
g3
(clib.sqUtils
Lst
p8
c__builtin__
list
p9
(lp10
g3
(g4
g5
(dp11
S'version'
p12
S'1'
sS'keying'
p13
S'serverName, name'
p14
sS'name'
p15
S'db.config'
p16
sS'type'
p17
S'Config'
p18
sS'lockseq'
p19
S'1'
sS'desc'
p20
S'Server configurations table'
p21
stRp22
ag3
(g4
g5
(dp23
g12
S'1'
sg13
S'name'
p24
sg15
S'db.counters'
p25
sg17
S'Counters'
p26
sg19
S'2'
sg20
S'Counters table'
p27
stRp28
ag3
(g4
g5
(dp29
g12
S'1'
sg13
S'name'
p30
sg15
S'db.nameval'
p31
sg17
S'Keys'
p32
sg19
S'3'
sg20
S'A table to store key/value pairs'
p33
stRp34
ag3
(g4
g5
(dp35
g12
S'0'
sg13
S'seq'
p36
sg15
S'db.logger'
p37
sg17
S'Logger'
p38
sg19
S'4'
sg20
S"Support for 'p4 logger' command. Logs any changes to \n\t\tchangelists and jobs"
p39
stRp40
ag3
(g4
g5
(dp41
g12
S'0'
sg13
S'name'
p42
sg15
S'db.ldap'
p43
sg17
S'Ldap'
p44
sg19
S'5'
sg20
S'LDAP specifications'
p45
stRp46
ag3
(g4
g5
(dp47
g12
S'2'
sg13
S'id'
p48
sg15
S'db.server'
p49
sg17
S'Server'
p50
sg19
S'6'
sg20
S'Server specifications'
p51
stRp52
ag3
(g4
g5
(dp53
g12
S'0'
sg13
S'id, type, seq'
p54
sg15
S'db.svrview'
p55
sg17
S'SvrView'
p56
sg19
S'7'
sg20
S'View data for servers specifications'
p57
stRp58
ag3
(g4
g5
(dp59
g12
S'1'
sg13
S'id'
p60
sg15
S'db.remote'
p61
sg17
S'Remote'
p62
sg19
S'8'
sg20
S'Remote specifications'
p63
stRp64
ag3
(g4
g5
(dp65
g12
S'1'
sg13
S'id, seq'
p66
sg15
S'db.rmtview'
p67
sg17
S'RmtView'
p68
sg19
S'9'
sg20
S'View data for remote specifications'
p69
stRp70
ag3
(g4
g5
(dp71
g12
S'0'
sg13
S'client, stream, type, seq'
p72
sg15
S'db.stash'
p73
sg17
S'Stash'
p74
sg19
S'10'
p75
sg20
S'Stash data'
p76
stRp77
ag3
(g4
g5
(dp78
g12
S'7'
sg13
S'user'
p79
sg15
S'db.user.rp'
p80
sg17
S'User'
p81
sg19
S'11'
p82
sg20
S"Used by replica server's to store login information"
p83
stRp84
ag3
(g4
g5
(dp85
g12
S'7'
sg13
S'user'
p86
sg15
S'db.user'
p87
sg17
S'User'
p88
sg19
S'12'
p89
sg20
S'User specifications'
p90
stRp91
ag3
(g4
g5
(dp92
g12
S'0'
sg13
S'user, host'
p93
sg15
S'db.ticket.rp'
p94
sg17
S'Ticket'
p95
sg19
S'13'
p96
sg20
S'Second factor authentication state on a per user/host basis (replica)'
p97
stRp98
ag3
(g4
g5
(dp99
g12
S'0'
sg13
S'user, host'
p100
sg15
S'db.ticket'
p101
sg17
S'Ticket'
p102
sg19
S'14'
p103
sg20
S'Second factor authentication state on a per user/host basis'
p104
stRp105
ag3
(g4
g5
(dp106
g12
S'9'
sg13
S'user, group'
p107
sg15
S'db.group'
p108
sg17
S'Group'
p109
sg19
S'15'
p110
sg20
S'Group specifications'
p111
stRp112
ag3
(g4
g5
(dp113
g12
S'1'
sg13
S'group'
p114
sg15
S'db.groupx'
p115
sg17
S'GroupX'
p116
sg19
S'16'
p117
sg20
S'Per-group data to support group membership controlled by AD/LDAP group membership'
p118
stRp119
ag3
(g4
g5
(dp120
g12
S'1'
sg13
S'name'
p121
sg15
S'db.depot'
p122
sg17
S'Depot'
p123
sg19
S'17'
p124
sg20
S'Depot specifications'
p125
stRp126
ag3
(g4
g5
(dp127
g12
S'1'
sg13
S'stream'
p128
sg15
S'db.stream'
p129
sg17
S'Stream'
p130
sg19
S'18'
p131
sg20
S'Stream specifications'
p132
stRp133
ag3
(g4
g5
(dp134
g12
S'7'
sg13
S'name'
p135
sg15
S'db.domain'
p136
sg17
S'Domain'
p137
sg19
S'19'
p138
sg20
S'Domains: depots, clients, labels, branches, streams, and typemap'
p139
stRp140
ag3
(g4
g5
(dp141
g12
S'2'
sg13
S'name, change, sequence'
p142
sg15
S'db.template'
p143
sg17
S'Template'
p144
sg19
S'20'
p145
sg20
S'Streams templates'
p146
stRp147
ag3
(g4
g5
(dp148
g12
S'0'
sg13
S'shelf, name, sequence'
p149
sg15
S'db.templatesx'
p150
sg17
S'TemplateSx'
p151
sg19
S'21'
p152
sg20
S'Shelved stream templates'
p153
stRp154
ag3
(g4
g5
(dp155
g12
S'0'
sg13
S'client, name, sequence'
p156
sg15
S'db.templatewx'
p157
sg17
S'TemplateWx'
p158
sg19
S'22'
p159
sg20
S'Pending stream templates'
p160
stRp161
ag3
(g4
g5
(dp162
g12
S'1'
sg13
S'name seq'
p163
sg15
S'db.view.rp'
p164
sg17
S'View'
p165
sg19
S'23'
p166
sg20
S'View data for clients of build-server replicas'
p167
stRp168
ag3
(g4
g5
(dp169
g12
S'1'
sg13
S'name, seq'
p170
sg15
S'db.view'
p171
sg17
S'View'
p172
sg19
S'24'
p173
sg20
S'View data for domain records'
p174
stRp175
ag3
(g4
g5
(dp176
g12
S'1'
sg13
S'name, domain'
p177
sg15
S'db.haveview'
p178
sg17
S'View'
p179
sg19
S'25'
p180
sg20
S'Stores mapping changes for clients mapping graph depot content'
p181
stRp182
ag3
(g4
g5
(dp183
g12
S'1'
sg13
S'user, seq'
p184
sg15
S'db.review'
p185
sg17
S'Review'
p186
sg19
S'26'
p187
sg20
S"User's review mappings"
p188
stRp189
ag3
(g4
g5
(dp190
g12
S'0'
sg13
S'name, depotFile'
p191
sg15
S'db.label'
p192
sg17
S'Label'
p193
sg19
S'27'
p194
sg20
S'Revisions of files in labels'
p195
stRp196
ag3
(g4
g5
(dp197
g12
S'3'
sg13
S'clientFile depotFile haveRev'
p198
sg15
S'db.have.rp'
p199
sg17
S'Have'
p200
sg19
S'28'
p201
sg20
S"Contains the 'have-list' for clients of build-server replicas"
p202
stRp203
ag3
(g4
g5
(dp204
g12
S'3'
sg13
S'clientFile depotFile haveRev'
p205
sg15
S'db.have.pt'
p206
sg17
S'Have'
p207
sg19
S'29'
p208
sg20
S'Placeholder for read-only clients'
p209
stRp210
ag3
(g4
g5
(dp211
g12
S'3'
sg13
S'clientFile'
p212
sg15
S'db.have'
p213
sg17
S'Have'
p214
sg19
S'30'
p215
sg20
S"Contains the 'have-list' for all clients"
p216
stRp217
ag3
(g4
g5
(dp218
g12
S'0'
sg13
S'toFile, fromFile, startFromRev, endFromRev, \n\t\tstartToRev, endToRev'
p219
sg15
S'db.integed'
p220
sg20
S'Permanent integration records'
p221
sg17
S'Integed'
p222
sg19
S'31'
p223
sS'seeAlso'
p224
S'db.resolve'
p225
stRp226
ag3
(g4
g5
(dp227
g12
S'0'
sg13
S'toFile, fromFile, startFromRev, endFromRev, \n\t\tstartToRev, endToRev'
p228
sg15
S'db.integtx'
p229
sg20
S'Temporary integration records used by task streams'
p230
sg17
S'Integed'
p231
sg19
S'32'
p232
sg224
S'db.resolve'
p233
stRp234
ag3
(g4
g5
(dp235
g12
S'1'
sg13
S'toFile, fromFile, startFromRev'
p236
sg15
S'db.resolve'
p237
sg20
S'Pending integration records'
p238
sg17
S'Resolve'
p239
sg19
S'33'
p240
sg224
S'db.integed'
p241
stRp242
ag3
(g4
g5
(dp243
g12
S'1'
sg13
S'toFile, fromFile, startFromRev'
p244
sg15
S'db.resolvex'
p245
sg20
S'Pending integration records for shelved files'
p246
sg17
S'Resolve'
p247
sg19
S'34'
p248
sg224
S'db.integed'
p249
stRp250
ag3
(g4
g5
(dp251
g12
S'0'
sg13
S'toFile, fromFile, baseSHA'
p252
sg15
S'db.resolveg'
p253
sg20
S'Resolve records for clients of type graph'
p254
sg17
S'ResolveG'
p255
sg19
S'35'
p256
sg224
S'db.integed'
p257
stRp258
ag3
(g4
g5
(dp259
S'note'
p260
S'Supersedes db.archive'
p261
sg12
S'0'
sg13
S'lbrFile, depotFile'
p262
sg20
S'Mapping entries for lazy-copies'
p263
sg17
S'ArchMap'
p264
sg19
S'36'
p265
sg15
S'db.archmap'
p266
stRp267
ag3
(g4
g5
(dp268
g12
S'9'
sg13
S'depotFile'
p269
sg15
S'db.revdx'
p270
sg17
S'Rev'
p271
sg19
S'37'
p272
sg20
S'Revision records for revisions deleted at the head revision'
p273
stRp274
ag3
(g4
g5
(dp275
g12
S'9'
sg13
S'depotFile'
p276
sg15
S'db.revhx'
p277
sg17
S'Rev'
p278
sg19
S'38'
p279
sg20
S'Revision records for revisions NOT deleted at the head revision'
p280
stRp281
ag3
(g4
g5
(dp282
g260
S'Only populated during content trigger execution to allow \n\t\ttriggers access to the revisions being submitted.'
p283
sg12
S'9'
sg13
S'depotFile, depotRev'
p284
sg20
S'Pending revision records'
p285
sg17
S'Rev'
p286
sg19
S'39'
p287
sg15
S'db.revpx'
p288
stRp289
ag3
(g4
g5
(dp290
g12
S'9'
sg13
S'depotFile, depotRev'
p291
sg15
S'db.revsx'
p292
sg17
S'Rev'
p293
sg19
S'40'
p294
sg20
S'Revision records for spec depot files'
p295
stRp296
ag3
(g4
g5
(dp297
g12
S'9'
sg13
S'depotFile, depotRev, type, action, change'
p298
sg15
S'db.revsh'
p299
sg17
S'Rev'
p300
sg19
S'41'
p301
sg20
S'Revision records for shelved files'
p302
stRp303
ag3
(g4
g5
(dp304
g12
S'9'
sg13
S'depotFile, depotRev'
p305
sg15
S'db.revbx'
p306
sg17
S'Rev'
p307
sg19
S'42'
p308
sg20
S'Revision records for archived files'
p309
stRp310
ag3
(g4
g5
(dp311
g12
S'9'
sg13
S'depotFile'
p312
sg15
S'db.revux'
p313
sg17
S'Rev'
p314
sg19
S'43'
p315
sg20
S'Revision records for unload depot files'
p316
stRp317
ag3
(g4
g5
(dp318
g12
S'0'
sg13
S'change, depotFile'
p319
sg15
S'db.revcx'
p320
sg17
S'RevCx'
p321
sg19
S'44'
p322
sg20
S'Secondary index of db.rev'
p323
stRp324
ag3
(g4
g5
(dp325
g12
S'9'
sg13
S'depotFile, depotRev'
p326
sg15
S'db.rev'
p327
sg17
S'Rev'
p328
sg19
S'45'
p329
sg20
S'Revision records'
p330
stRp331
ag3
(g4
g5
(dp332
g12
S'9'
sg13
S'depotFile, depotRev'
p333
sg15
S'db.revtx'
p334
sg17
S'Rev'
p335
sg19
S'46'
p336
sg20
S'Task stream revision records'
p337
stRp338
ag3
(g4
g5
(dp339
g12
S'2'
sg13
S'depotFile, client'
p340
sg15
S'db.locks'
p341
sg17
S'Locks'
p342
sg19
S'47'
p343
sg20
S'Locked/Unlocked files'
p344
stRp345
ag3
(g4
g5
(dp346
g12
S'2'
sg13
S'depotFile, client'
p347
sg15
S'db.locksg'
p348
sg17
S'Locks'
p349
sg19
S'48'
p350
sg20
S'Lock records for clients of type graph'
p351
stRp352
ag3
(g4
g5
(dp353
g12
S'10'
p354
sg13
S'clientFile'
p355
sg15
S'db.working'
p356
sg17
S'Working'
p357
sg19
S'49'
p358
sg20
S'Records for work in progress'
p359
stRp360
ag3
(g4
g5
(dp361
g12
S'10'
p362
sg13
S'clientFile'
p363
sg15
S'db.workingx'
p364
sg17
S'Working'
p365
sg19
S'50'
p366
sg20
S'Records for shelved open files'
p367
stRp368
ag3
(g4
g5
(dp369
g12
S'0'
sg13
S'clientFile'
p370
sg15
S'db.workingg'
p371
sg17
S'WorkingG'
p372
sg19
S'51'
p373
sg20
S'Working records for clients of type graph'
p374
stRp375
ag3
(g4
g5
(dp376
g12
S'0'
sg13
S'GFrepo, GFcfile, GFdfile, GFclient'
p377
sg15
S'db.haveg'
p378
sg17
S'Haveg'
p379
sg19
S'52'
p380
sg20
S"Contains the 'have-list' for graph depot"
p381
stRp382
ag3
(g4
g5
(dp383
g12
S'1'
sg13
S'depotFile'
p384
sg15
S'db.excl'
p385
sg17
S'ExclusiveLock'
p386
sg19
S'53'
p387
sg20
S'Exclusively locked (+l) files -  enables coordinated file locking in commit/edge server environments'
p388
stRp389
ag3
(g4
g5
(dp390
g12
S'0'
sg13
S'traitLot, name'
p391
sg15
S'db.traits'
p392
sg17
S'Trait'
p393
sg19
S'54'
p394
sg20
S'Attributes associated with file revisions'
p395
stRp396
ag3
(g4
g5
(dp397
g12
S'3'
sg13
S'seq'
p398
sg15
S'db.trigger'
p399
sg17
S'Trigger'
p400
sg19
S'55'
p401
sg20
S'Trigger specifications'
p402
stRp403
ag3
(g4
g5
(dp404
g12
S'4'
sg13
S'change'
p405
sg15
S'db.change'
p406
sg17
S'Change'
p407
sg19
S'56'
p408
sg20
S'Changelists'
p409
stRp410
ag3
(g4
g5
(dp411
g260
S'contains records for pending changelists only.'
p412
sg12
S'4'
sg13
S'change'
p413
sg20
S'Subset of db.change - records for pending changelists only'
p414
sg17
S'Change'
p415
sg19
S'57'
p416
sg15
S'db.changex'
p417
stRp418
ag3
(g4
g5
(dp419
g12
S'1'
sg13
S'identity'
p420
sg15
S'db.changeidx'
p421
sg17
S'ChangeIdx'
p422
sg19
S'58'
p423
sg20
S'Secondary index of db.change/db.changex'
p424
stRp425
ag3
(g4
g5
(dp426
g12
S'0'
sg13
S'descKey'
p427
sg15
S'db.desc'
p428
sg17
S'Desc'
p429
sg19
S'59'
p430
sg20
S'Change descriptions'
p431
stRp432
ag3
(g4
g5
(dp433
g12
S'2'
sg13
S'repo'
p434
sg15
S'db.repo'
p435
sg17
S'Repo'
p436
sg19
S'60'
p437
sg20
S'Repository specifications'
p438
stRp439
ag3
(g4
g5
(dp440
g12
S'0'
sg13
S'repo, name, type, action, date, user, ref'
p441
sg15
S'db.refhist'
p442
sg17
S'RefHist'
p443
sg19
S'61'
p444
sg20
S'Reference history for graph depots'
p445
stRp446
ag3
(g4
g5
(dp447
g12
S'0'
sg13
S'repo, name, type'
p448
sg15
S'db.ref'
p449
sg17
S'Ref'
p450
sg19
S'62'
p451
sg20
S'Reference content for graph depots'
p452
stRp453
ag3
(g4
g5
(dp454
g12
S'0'
sg13
S'sha'
p455
sg15
S'db.object'
p456
sg17
S'Object'
p457
sg19
S'63'
p458
sg20
S'Object storage for graph depots'
p459
stRp460
ag3
(g4
g5
(dp461
g12
S'1'
sg13
S'id, name, date, blobsha, commitsha'
p462
sg15
S'db.graphindex'
p463
sg17
S'GraphIndex'
p464
sg19
S'64'
p465
sg20
S'Graph depot repository index data'
p466
stRp467
ag3
(g4
g5
(dp468
g12
S'0'
sg13
S'name, repo, ref, type, user, perm'
p469
sg15
S'db.graphperm'
p470
sg17
S'GraphPerm'
p471
sg19
S'65'
p472
sg20
S'Graph depot permissions'
p473
stRp474
ag3
(g4
g5
(dp475
g12
S'0'
sg13
S'repo, path'
p476
sg15
S'db.submodule'
p477
sg17
S'Submodule'
p478
sg19
S'66'
p479
sg20
S'Submodule configuration data'
p480
stRp481
ag3
(g4
g5
(dp482
g12
S'0'
sg13
S'user,scope'
p483
sg15
S'db.pubkey'
p484
sg17
S'PublicKey'
p485
sg19
S'67'
p486
sg20
S'SSH Public keys'
p487
stRp488
ag3
(g4
g5
(dp489
g12
S'0'
sg13
S'job'
p490
sg15
S'db.job'
p491
sg20
S'Job records'
p492
sg17
S'Job'
p493
sg19
S'68'
p494
sg224
S'db.bodtext'
p495
stRp496
ag3
(g4
g5
(dp497
g12
S'1'
sg13
S'job, change'
p498
sg15
S'db.fix'
p499
sg20
S'Fix records - indexed by job'
p500
sg17
S'Fix'
p501
sg19
S'69'
p502
sg224
S'db.fixrev'
p503
stRp504
ag3
(g4
g5
(dp505
g12
S'1'
sg13
S'change, job'
p506
sg15
S'db.fixrev'
p507
sg20
S'Fix records - indexed by change'
p508
sg17
S'Fix'
p509
sg19
S'70'
p510
sg224
S'db.fix'
p511
stRp512
ag3
(g4
g5
(dp513
g12
S'0'
sg13
S'type, client, toKey, attr, fromKey, fromChange'
p514
sg15
S'db.bodresolve'
p515
sg17
S'BodyResolve'
p516
sg19
S'71'
p517
sg20
S'Resolve data for stream specifications'
p518
stRp519
ag3
(g4
g5
(dp520
g12
S'1'
sg13
S'key, attr'
p521
sg15
S'db.bodtext'
p522
sg17
S'BodyText'
p523
sg19
S'72'
p524
sg20
S'Job data for job attributes'
p525
stRp526
ag3
(g4
g5
(dp527
g12
S'0'
sg13
S'type, key, change, attr'
p528
sg15
S'db.bodtextcx'
p529
sg17
S'BodyTextCx'
p530
sg19
S'73'
p531
sg20
S'Versioned openable spec fields (for future use)'
p532
stRp533
ag3
(g4
g5
(dp534
g12
S'0'
sg13
S'type, key, attr'
p535
sg15
S'db.bodtexthx'
p536
sg17
S'BodyTextHx'
p537
sg19
S'74'
p538
sg20
S'Head revision of spec fields (for future use)'
p539
stRp540
ag3
(g4
g5
(dp541
g12
S'0'
sg13
S'type, shelf, key, attr'
p542
sg15
S'db.bodtextsx'
p543
sg17
S'BodyTextSx'
p544
sg19
S'75'
p545
sg20
S'Shelved openable spec fields (for future use)'
p546
stRp547
ag3
(g4
g5
(dp548
g12
S'0'
sg13
S'type, client, key, attr'
p549
sg15
S'db.bodtextwx'
p550
sg17
S'BodyTextWx'
p551
sg19
S'76'
p552
sg20
S'Open openable spec fields (for future use)'
p553
stRp554
ag3
(g4
g5
(dp555
g12
S'0'
sg13
S'word, attr, value'
p556
sg15
S'db.ixtext'
p557
sg17
S'IndexText'
p558
sg19
S'77'
p559
sg20
S'Indexing data for generic and job attributes'
p560
stRp561
ag3
(g4
g5
(dp562
g12
S'0'
sg13
S'type, word, attr, value'
p563
sg15
S'db.ixtexthx'
p564
sg17
S'IndexTextHx'
p565
sg19
S'78'
p566
sg20
S'Indexing data for head revision of all spec fields (for future use)'
p567
stRp568
ag3
(g4
g5
(dp569
g12
S'0'
sg13
S'word, attr, value'
p570
sg15
S'db.uxtext'
p571
sg17
S'IndexText'
p572
sg19
S'79'
p573
sg20
S'Indexing data for Swarm'
p574
stRp575
ag3
(g4
g5
(dp576
g12
S'5'
sg13
S'seq'
p577
sg15
S'db.protect'
p578
sg17
S'Protect'
p579
sg19
S'80'
p580
sg20
S'The protections table'
p581
stRp582
ag3
(g4
g5
(dp583
g12
S'0'
sg13
S'name, seq, type, scope'
p584
sg15
S'db.property'
p585
sg17
S'Property'
p586
sg19
S'81'
p587
sg20
S'Properties'
p588
stRp589
ag3
(g4
g5
(dp590
g12
S'0'
sg13
S'language, id'
p591
sg15
S'db.message'
p592
sg17
S'Message'
p593
sg19
S'82'
p594
sg20
S'System messages'
p595
stRp596
ag3
(g4
g5
(dp597
g12
S'4'
sg13
S'taskid, seq'
p598
sg15
S'db.sendq'
p599
sg17
S'SendQ'
p600
sg19
S'83'
p601
sg20
S'Parallel file transmission work queue'
p602
stRp603
ag3
(g4
g5
(dp604
g12
S'0'
sg13
S'id'
p605
sg15
S'db.jnlack'
p606
sg17
S'JnlAck'
p607
sg19
S'84'
p608
sg20
S'Tracks journal positions of all standby servers'
p609
stRp610
ag3
(g4
g5
(dp611
g12
S'2'
sg13
S'id'
p612
sg15
S'db.monitor'
p613
sg17
S'Monitor'
p614
sg19
S'85'
p615
sg20
S'Helix Server process information'
p616
stRp617
ag3
(g4
g5
(dp618
g17
S'ReplicaArchiveTransfer'
p619
sg15
S'rdb.lbr'
p620
sg20
S'Replica server pending archive transfer table'
p621
stRp622
ag3
(g4
g5
(dp623
g17
S'TinyDb'
p624
sg13
S'fileAndRev'
p625
sg15
S'tiny.db'
p626
sg20
S'Records revision and content data for files using the +T file type modifier'
p627
stRp628
atRp629
stRp630
sg12
S'2018.1'
p631
sS'numUpgrades'
p632
S'29'
p633
sS'recordtypes'
p634
g3
(g4
g5
(dp635
S'record'
p636
g3
(g8
g9
(lp637
g3
(g4
g5
(dp638
S'column'
p639
g3
(g8
g9
(lp640
g3
(g4
g5
(dp641
g17
S'File'
p642
sg15
S'lbrFile'
p643
sg20
S"Specifies the location in the librarian's archives where\n\t\t    the revision may be found"
p644
stRp645
ag3
(g4
g5
(dp646
g17
S'String'
p647
sg15
S'lbrRev'
p648
sg20
S"Revision in the librarian's archives"
p649
stRp650
ag3
(g4
g5
(dp651
g17
S'File'
p652
sg15
S'depotFile'
p653
sg20
S'Name of the file in the depot'
p654
stRp655
ag3
(g4
g5
(dp656
g17
S'Rev'
p657
sg15
S'depotRev'
p658
sg20
S'Name of the file in the depot'
p659
stRp660
ag3
(g4
g5
(dp661
g17
S'FileType'
p662
sg15
S'lbrType'
p663
sg20
S"File type for librarian's purposes"
p664
stRp665
atRp666
sg15
S'Archive'
p667
stRp668
ag3
(g4
g5
(dp669
g639
g3
(g8
g9
(lp670
g3
(g4
g5
(dp671
g17
S'File'
p672
sg15
S'lbrFile'
p673
sg20
S'Paths in the librarian namespace that receive lazy\n\t\t    copies.'
p674
stRp675
ag3
(g4
g5
(dp676
g17
S'File'
p677
sg15
S'depotFile'
p678
sg20
S'Paths in the depot namespace that provide lazy copies.'
p679
stRp680
atRp681
sg15
S'ArchMap'
p682
stRp683
ag3
(g4
g5
(dp684
g639
g3
(g8
g9
(lp685
g3
(g4
g5
(dp686
g17
S'String'
p687
sg15
S'key'
p688
sg20
S'The job to which this attribute belongs'
p689
stRp690
ag3
(g4
g5
(dp691
g17
S'Int'
p692
sg15
S'attr'
p693
sg20
S'The attribute number (from the jobspec) of this attribute'
p694
stRp695
ag3
(g4
g5
(dp696
g17
S'Date'
p697
sg15
S'date'
p698
sg20
S'The date value itself'
p699
stRp700
atRp701
sg15
S'BodyDate'
p702
stRp703
ag3
(g4
g5
(dp704
g639
g3
(g8
g9
(lp705
g3
(g4
g5
(dp706
g17
S'SpecType'
p707
sg15
S'type'
p708
sg20
S'The spec type'
p709
stRp710
ag3
(g4
g5
(dp711
g17
S'Domain'
p712
sg15
S'client'
p713
sg20
S'The client name'
p714
stRp715
ag3
(g4
g5
(dp716
g17
S'String'
p717
sg15
S'toKey'
p718
sg20
S'To Key'
p719
stRp720
ag3
(g4
g5
(dp721
g17
S'Int'
p722
sg15
S'attr'
p723
sg20
S'The attribute value'
p724
stRp725
ag3
(g4
g5
(dp726
g17
S'String'
p727
sg15
S'fromKey'
p728
sg20
S'From key'
p729
stRp730
ag3
(g4
g5
(dp731
g17
S'Change'
p732
sg15
S'fromChange'
p733
sg20
S'From change'
p734
stRp735
ag3
(g4
g5
(dp736
g17
S'String'
p737
sg15
S'baseKey'
p738
sg20
S'Base Key'
p739
stRp740
ag3
(g4
g5
(dp741
g17
S'Change'
p742
sg15
S'baseChange'
p743
sg20
S'Base change'
p744
stRp745
atRp746
sg15
S'BodyResolve'
p747
stRp748
ag3
(g4
g5
(dp749
g639
g3
(g8
g9
(lp750
g3
(g4
g5
(dp751
g17
S'String'
p752
sg15
S'key'
p753
sg20
S'The job to which this attribute belongs'
p754
stRp755
ag3
(g4
g5
(dp756
g17
S'Int'
p757
sg15
S'attr'
p758
sg20
S'The attribute number (from the jobspec) of this attribute'
p759
stRp760
ag3
(g4
g5
(dp761
g17
S'Int'
p762
sg15
S'isBulk'
p763
sg20
S'Indicates whether (1), or not (0) the field is a bulk\n\t\t    text field that should not be indexed.'
p764
stRp765
ag3
(g4
g5
(dp766
g17
S'Text'
p767
sg15
S'text'
p768
sg20
S'The attribute value'
p769
stRp770
atRp771
sg15
S'BodyText'
p772
stRp773
ag3
(g4
g5
(dp774
g639
g3
(g8
g9
(lp775
g3
(g4
g5
(dp776
g17
S'Int'
p777
sg15
S'type'
p778
sg20
S'The type of spec'
p779
stRp780
ag3
(g4
g5
(dp781
g17
S'String'
p782
sg15
S'key'
p783
sg20
S'The spec to which this attribute belongs'
p784
stRp785
ag3
(g4
g5
(dp786
g17
S'Change'
p787
sg15
S'change'
p788
sg20
S'The change to which this attribute belongs'
p789
stRp790
ag3
(g4
g5
(dp791
g17
S'Int'
p792
sg15
S'attr'
p793
sg20
S'The attribute number of this attribute'
p794
stRp795
ag3
(g4
g5
(dp796
g17
S'Text'
p797
sg15
S'text'
p798
sg20
S'The attribute value'
p799
stRp800
atRp801
sg15
S'BodyTextCx'
p802
stRp803
ag3
(g4
g5
(dp804
g639
g3
(g8
g9
(lp805
g3
(g4
g5
(dp806
g17
S'Int'
p807
sg15
S'type'
p808
sg20
S'The type of spec'
p809
stRp810
ag3
(g4
g5
(dp811
g17
S'String'
p812
sg15
S'key'
p813
sg20
S'The spec to which this attribute belongs'
p814
stRp815
ag3
(g4
g5
(dp816
g17
S'Int'
p817
sg15
S'attr'
p818
sg20
S'The attribute number of this attribute'
p819
stRp820
ag3
(g4
g5
(dp821
g17
S'Int'
p822
sg15
S'bulk'
p823
sg20
S'Indicates whether (1), or not (0) the field is a bulk\n\t\t    text field that should not be indexed.'
p824
stRp825
ag3
(g4
g5
(dp826
g17
S'Text'
p827
sg15
S'text'
p828
sg20
S'The attribute value'
p829
stRp830
atRp831
sg15
S'BodyTextHx'
p832
stRp833
ag3
(g4
g5
(dp834
g639
g3
(g8
g9
(lp835
g3
(g4
g5
(dp836
g17
S'Int'
p837
sg15
S'type'
p838
sg20
S'The type of spec'
p839
stRp840
ag3
(g4
g5
(dp841
g17
S'Change'
p842
sg15
S'shelf'
p843
sg20
S'The shelf to which this attribute belongs'
p844
stRp845
ag3
(g4
g5
(dp846
g17
S'String'
p847
sg15
S'key'
p848
sg20
S'The spec to which this attribute belongs'
p849
stRp850
ag3
(g4
g5
(dp851
g17
S'Int'
p852
sg15
S'attr'
p853
sg20
S'The attribute number of this attribute'
p854
stRp855
ag3
(g4
g5
(dp856
g17
S'Text'
p857
sg15
S'text'
p858
sg20
S'The attribute value'
p859
stRp860
ag3
(g4
g5
(dp861
g17
S'Change'
p862
sg15
S'workChange'
p863
sg20
S'The working change'
p864
stRp865
atRp866
sg15
S'BodyTextSx'
p867
stRp868
ag3
(g4
g5
(dp869
g639
g3
(g8
g9
(lp870
g3
(g4
g5
(dp871
g17
S'Int'
p872
sg15
S'type'
p873
sg20
S'The type of spec'
p874
stRp875
ag3
(g4
g5
(dp876
g17
S'String'
p877
sg15
S'client'
p878
sg20
S'The client the spec is opened on'
p879
stRp880
ag3
(g4
g5
(dp881
g17
S'String'
p882
sg15
S'key'
p883
sg20
S'The spec to which this attribute belongs'
p884
stRp885
ag3
(g4
g5
(dp886
g17
S'Int'
p887
sg15
S'attr'
p888
sg20
S'The attribute number of this attribute'
p889
stRp890
ag3
(g4
g5
(dp891
g17
S'Text'
p892
sg15
S'text'
p893
sg20
S'The attribute value'
p894
stRp895
ag3
(g4
g5
(dp896
g17
S'Change'
p897
sg15
S'workChange'
p898
sg20
S'The working change'
p899
stRp900
atRp901
sg15
S'BodyTextWx'
p902
stRp903
ag3
(g4
g5
(dp904
g639
g3
(g8
g9
(lp905
g3
(g4
g5
(dp906
g17
S'Change'
p907
sg15
S'change'
p908
sg20
S'The change number'
p909
stRp910
ag3
(g4
g5
(dp911
g17
S'Change'
p912
sg15
S'descKey'
p913
sg20
S"The description key. Normally the same as 'change', but\n\t\t    may differ if a changelist was renumbered on submission."
p914
stRp915
ag3
(g4
g5
(dp916
g17
S'Domain'
p917
sg15
S'client'
p918
sg20
S'The client from which the change originates'
p919
stRp920
ag3
(g4
g5
(dp921
g17
S'User'
p922
sg15
S'user'
p923
sg20
S'The user who owns the change'
p924
stRp925
ag3
(g4
g5
(dp926
g17
S'Date'
p927
sg15
S'date'
p928
sg20
S'Date and time the changelist was submitted'
p929
stRp930
ag3
(g4
g5
(dp931
g17
S'ChangeStatus'
p932
sg15
S'status'
p933
sg20
S'Status of the change'
p934
stRp935
ag3
(g4
g5
(dp936
g17
S'DescShort'
p937
sg15
S'description'
p938
sg20
S'Short description of the change.'
p939
stRp940
ag3
(g4
g5
(dp941
g17
S'Mapping'
p942
sg15
S'root'
p943
sg20
S'Common path for all files in the changelist'
p944
stRp945
ag3
(g4
g5
(dp946
g17
S'String'
p947
sg15
S'importer'
p948
sg20
S'The user who fetched or pushed this change to this server'
p949
stRp950
ag3
(g4
g5
(dp951
g17
S'String'
p952
sg15
S'identify'
p953
sg20
S'Identifier for this change'
p954
stRp955
ag3
(g4
g5
(dp956
g17
S'Date'
p957
sg15
S'access'
p958
sg20
S'Shelve last access'
p959
stRp960
atRp961
sg15
S'Change'
p962
stRp963
ag3
(g4
g5
(dp964
g639
g3
(g8
g9
(lp965
g3
(g4
g5
(dp966
g17
S'String'
p967
sg15
S'identity'
p968
sg20
S'Identifier for this change'
p969
stRp970
ag3
(g4
g5
(dp971
g17
S'Change'
p972
sg15
S'change'
p973
sg20
S'Changelist'
p974
stRp975
atRp976
sg15
S'ChangeIdx'
p977
stRp978
ag3
(g4
g5
(dp979
g639
g3
(g8
g9
(lp980
g3
(g4
g5
(dp981
g17
S'String'
p982
sg15
S'sname'
p983
sg20
S'Server name'
p984
stRp985
ag3
(g4
g5
(dp986
g17
S'String'
p987
sg15
S'name'
p988
sg20
S'Configuration variable name'
p989
stRp990
ag3
(g4
g5
(dp991
g17
S'Value'
p992
sg15
S'value'
p993
sg20
S'Configuration variable value'
p994
stRp995
atRp996
sg15
S'Config'
p997
stRp998
ag3
(g4
g5
(dp999
g639
g3
(g8
g9
(lp1000
g3
(g4
g5
(dp1001
g17
S'Counter'
p1002
sg15
S'name'
p1003
sg20
S'Counter name'
p1004
stRp1005
ag3
(g4
g5
(dp1006
g17
S'Value'
p1007
sg15
S'value'
p1008
sg20
S'Counter value'
p1009
stRp1010
atRp1011
sg15
S'Counters'
p1012
stRp1013
ag3
(g4
g5
(dp1014
g639
g3
(g8
g9
(lp1015
g3
(g4
g5
(dp1016
g17
S'Domain'
p1017
sg15
S'name'
p1018
sg20
S'Depot name'
p1019
stRp1020
ag3
(g4
g5
(dp1021
g17
S'DepotType'
p1022
sg15
S'type'
p1023
sg20
S'Type of depot'
p1024
stRp1025
ag3
(g4
g5
(dp1026
g17
S'Text'
p1027
sg15
S'extra'
p1028
sg20
S'For remote depots, the P4PORT address of the remote server.\n\t\t    For spec depots, the field contains a suffix to append to \n\t\t    the filename.'
p1029
stRp1030
ag3
(g4
g5
(dp1031
g17
S'Text'
p1032
sg15
S'map'
p1033
sg20
S"The depot's map (path translation information).  For local \n\t\t    depots, this will be a path relative to the root directory.\n\t\t    For remote depots, this will be specified in terms of the \n\t\t    remote server's namespace."
p1034
stRp1035
atRp1036
sg15
S'Depot'
p1037
stRp1038
ag3
(g4
g5
(dp1039
g639
g3
(g8
g9
(lp1040
g3
(g4
g5
(dp1041
g17
S'Change'
p1042
sg15
S'descKey'
p1043
sg20
S'Original number of the change to which this description\n\t\t    applies. This may differ from the final change number if\n\t\t    the change is renumbered on submission.'
p1044
stRp1045
ag3
(g4
g5
(dp1046
g17
S'Text'
p1047
sg15
S'description'
p1048
sg20
S'The change description itself'
p1049
stRp1050
atRp1051
sg15
S'Desc'
p1052
stRp1053
ag3
(g4
g5
(dp1054
g639
g3
(g8
g9
(lp1055
g3
(g4
g5
(dp1056
g17
S'Domain'
p1057
sg15
S'name'
p1058
sg20
S'Domain name'
p1059
stRp1060
ag3
(g4
g5
(dp1061
g17
S'DomainType'
p1062
sg15
S'type'
p1063
sg20
S'Type of domain'
p1064
stRp1065
ag3
(g4
g5
(dp1066
g17
S'Text'
p1067
sg15
S'extra'
p1068
sg20
S'Formerly "host". Associated host or, for labels, revision \n\t\t    number.'
p1069
stRp1070
ag3
(g4
g5
(dp1071
g17
S'Text'
p1072
sg15
S'mount'
p1073
sg20
S'The client root'
p1074
stRp1075
ag3
(g4
g5
(dp1076
g17
S'Text'
p1077
sg15
S'mount2'
p1078
sg20
S'Alternate client root'
p1079
stRp1080
ag3
(g4
g5
(dp1081
g17
S'Text'
p1082
sg15
S'mount3'
p1083
sg20
S'Alternate client root'
p1084
stRp1085
ag3
(g4
g5
(dp1086
g17
S'User'
p1087
sg15
S'owner'
p1088
sg20
S'Name of user who owns the domain.'
p1089
stRp1090
ag3
(g4
g5
(dp1091
g17
S'Date'
p1092
sg15
S'updateDate'
p1093
sg20
S'Date of last update to domain specification.'
p1094
stRp1095
ag3
(g4
g5
(dp1096
g17
S'Date'
p1097
sg15
S'accessDate'
p1098
sg20
S'Date of last access to domain specification.'
p1099
stRp1100
ag3
(g4
g5
(dp1101
g17
S'DomainOpts'
p1102
sg15
S'options'
p1103
sg20
S'Options for client, label, and branch domains.'
p1104
stRp1105
ag3
(g4
g5
(dp1106
g17
S'Text'
p1107
sg15
S'description'
p1108
sg20
S'Description of domain.'
p1109
stRp1110
ag3
(g4
g5
(dp1111
g17
S'Domain'
p1112
sg15
S'stream'
p1113
sg20
S'Associated stream for client records'
p1114
stRp1115
ag3
(g4
g5
(dp1116
g17
S'Text'
p1117
sg15
S'serverid'
p1118
sg20
S'Associated server ID for client records'
p1119
stRp1120
ag3
(g4
g5
(dp1121
g17
S'Int'
p1122
sg15
S'contents'
p1123
sg20
S'Client domain contents. 1: Maps only classic depot files, 2: Maps only graph depot files, 3: Maps both classic and graph depot files'
p1124
stRp1125
atRp1126
sg15
S'Domain'
p1127
stRp1128
ag3
(g4
g5
(dp1129
g639
g3
(g8
g9
(lp1130
g3
(g4
g5
(dp1131
g17
S'File'
p1132
sg15
S'depotFile'
p1133
sg20
S'The file locked'
p1134
stRp1135
ag3
(g4
g5
(dp1136
g17
S'Domain'
p1137
sg15
S'client'
p1138
sg20
S'The client for which the file is locked'
p1139
stRp1140
ag3
(g4
g5
(dp1141
g17
S'User'
p1142
sg15
S'user'
p1143
sg20
S'The user for which the file is locked'
p1144
stRp1145
atRp1146
sg15
S'ExclusiveLock'
p1147
stRp1148
ag3
(g4
g5
(dp1149
g639
g3
(g8
g9
(lp1150
g3
(g4
g5
(dp1151
g17
S'String'
p1152
sg15
S'job'
p1153
sg20
S'Job name'
p1154
stRp1155
ag3
(g4
g5
(dp1156
g17
S'Change'
p1157
sg15
S'change'
p1158
sg20
S'Changelist number'
p1159
stRp1160
ag3
(g4
g5
(dp1161
g17
S'Date'
p1162
sg15
S'date'
p1163
sg20
S'Date fix was recorded (may differ from date change was\n\t\t    submitted).'
p1164
stRp1165
ag3
(g4
g5
(dp1166
g17
S'FixStatus'
p1167
sg15
S'status'
p1168
sg20
S'Status of the job'
p1169
stRp1170
ag3
(g4
g5
(dp1171
g17
S'Domain'
p1172
sg15
S'client'
p1173
sg20
S'The client where the fix originated'
p1174
stRp1175
ag3
(g4
g5
(dp1176
g17
S'User'
p1177
sg15
S'user'
p1178
sg20
S'The user who fixed the job'
p1179
stRp1180
atRp1181
sg15
S'Fix'
p1182
stRp1183
ag3
(g4
g5
(dp1184
g639
g3
(g8
g9
(lp1185
g3
(g4
g5
(dp1186
g17
S'Int'
p1187
sg15
S'id'
p1188
sg20
S'ID of repo index belongs to'
p1189
stRp1190
ag3
(g4
g5
(dp1191
g17
S'File'
p1192
sg15
S'fileName'
p1193
sg20
S'File name (minus the repo name)'
p1194
stRp1195
ag3
(g4
g5
(dp1196
g17
S'Date'
p1197
sg15
S'commitDate'
p1198
sg20
S'Descending historical commit sequence'
p1199
stRp1200
ag3
(g4
g5
(dp1201
g17
S'SHA1'
p1202
sg15
S'blobSHA'
p1203
sg20
S'SHA of blob'
p1204
stRp1205
ag3
(g4
g5
(dp1206
g17
S'SHA1'
p1207
sg15
S'commitSHA'
p1208
sg20
S'SHA of commit that added/edited this file'
p1209
stRp1210
ag3
(g4
g5
(dp1211
g17
S'Int'
p1212
sg15
S'flags'
p1213
sg20
S'Miscellaneous flags'
p1214
stRp1215
ag3
(g4
g5
(dp1216
g17
S'FileSize'
p1217
sg15
S'GIsize'
p1218
sg20
S'file size'
p1219
stRp1220
ag3
(g4
g5
(dp1221
g17
S'FileType'
p1222
sg15
S'GItype'
p1223
sg20
S'type'
p1224
stRp1225
ag3
(g4
g5
(dp1226
g17
S'text'
p1227
sg15
S'GIlfsoid'
p1228
sg20
S'LFS Object ID'
p1229
stRp1230
atRp1231
sg15
S'GraphIndex'
p1232
stRp1233
ag3
(g4
g5
(dp1234
g639
g3
(g8
g9
(lp1235
g3
(g4
g5
(dp1236
g17
S'Domain'
p1237
sg15
S'name'
p1238
sg20
S'Graph depot name'
p1239
stRp1240
ag3
(g4
g5
(dp1241
g17
S'String'
p1242
sg15
S'repo'
p1243
sg20
S'Repository name'
p1244
stRp1245
ag3
(g4
g5
(dp1246
g17
S'String'
p1247
sg15
S'ref'
p1248
sg20
S'Reference'
p1249
stRp1250
ag3
(g4
g5
(dp1251
g17
S'UserType'
p1252
sg15
S'type'
p1253
sg20
S'Type of user'
p1254
stRp1255
ag3
(g4
g5
(dp1256
g17
S'User'
p1257
sg15
S'user'
p1258
sg20
S'User or Group for permission'
p1259
stRp1260
ag3
(g4
g5
(dp1261
g17
S'GraphPermType'
p1262
sg15
S'perm'
p1263
sg20
S'Permission'
p1264
stRp1265
atRp1266
sg15
S'GraphPerm'
p1267
stRp1268
ag3
(g4
g5
(dp1269
g639
g3
(g8
g9
(lp1270
g3
(g4
g5
(dp1271
g17
S'User'
p1272
sg15
S'user'
p1273
sg20
S'User name'
p1274
stRp1275
ag3
(g4
g5
(dp1276
g17
S'User'
p1277
sg15
S'group'
p1278
sg20
S'Group name'
p1279
stRp1280
ag3
(g4
g5
(dp1281
g17
S'UserType'
p1282
sg15
S'type'
p1283
sg20
S'Type of user in this group.'
p1284
stRp1285
ag3
(g4
g5
(dp1286
g17
S'MaxResults'
p1287
sg15
S'maxResults'
p1288
sg20
S'MaxResults setting for the group.'
p1289
stRp1290
ag3
(g4
g5
(dp1291
g17
S'MaxScanRows'
p1292
sg15
S'maxScanRows'
p1293
sg20
S'MaxScanRows setting for the group.'
p1294
stRp1295
ag3
(g4
g5
(dp1296
g17
S'MaxLockTime'
p1297
sg15
S'maxLockTime'
p1298
sg20
S'MaxLockTime setting for the group.'
p1299
stRp1300
ag3
(g4
g5
(dp1301
g17
S'MaxOpenFiles'
p1302
sg15
S'maxOpenFiles'
p1303
sg20
S'MaxOpenFiles setting for the group.'
p1304
stRp1305
ag3
(g4
g5
(dp1306
g17
S'Int'
p1307
sg15
S'timeout'
p1308
sg20
S'Length of time (in seconds) a login ticket remains valid.'
p1309
stRp1310
ag3
(g4
g5
(dp1311
g17
S'Int'
p1312
sg15
S'passwordTimeout'
p1313
sg20
S'Length of time (in seconds) a password remains valid for users in the group.'
p1314
stRp1315
atRp1316
sg15
S'Group'
p1317
stRp1318
ag3
(g4
g5
(dp1319
g639
g3
(g8
g9
(lp1320
g3
(g4
g5
(dp1321
g17
S'User'
p1322
sg15
S'group'
p1323
sg20
S'Group name'
p1324
stRp1325
ag3
(g4
g5
(dp1326
g17
S'String'
p1327
sg15
S'ldapConf'
p1328
sg20
S"The LDAP configuration to use when populating the group's user list from an LDAP query"
p1329
stRp1330
ag3
(g4
g5
(dp1331
g17
S'String'
p1332
sg15
S'ldapSearchQuery'
p1333
sg20
S'The LDAP query used to identify the members of the group'
p1334
stRp1335
ag3
(g4
g5
(dp1336
g17
S'String'
p1337
sg15
S'ldapUserAttribute'
p1338
sg20
S"The LDAP attribute that represents the user's username"
p1339
stRp1340
ag3
(g4
g5
(dp1341
g17
S'String'
p1342
sg15
S'ldapDNAttribute'
p1343
sg20
S"The LDAP attribute that represents the user's DN"
p1344
stRp1345
atRp1346
sg15
S'GroupX'
p1347
stRp1348
ag3
(g4
g5
(dp1349
g639
g3
(g8
g9
(lp1350
g3
(g4
g5
(dp1351
g17
S'File'
p1352
sg15
S'clientFile'
p1353
sg20
S'The file in its location on the client'
p1354
stRp1355
ag3
(g4
g5
(dp1356
g17
S'File'
p1357
sg15
S'depotFile'
p1358
sg20
S'The file in the depot'
p1359
stRp1360
ag3
(g4
g5
(dp1361
g17
S'Rev'
p1362
sg15
S'haveRev'
p1363
sg20
S'The revision synced to the client'
p1364
stRp1365
ag3
(g4
g5
(dp1366
g17
S'FileType'
p1367
sg15
S'type'
p1368
sg20
S'The filetype of the synced revision'
p1369
stRp1370
ag3
(g4
g5
(dp1371
g17
S'Date'
p1372
sg15
S'time'
p1373
sg20
S'The sync time of the synced revision'
p1374
stRp1375
atRp1376
sg15
S'Have'
p1377
stRp1378
ag3
(g4
g5
(dp1379
g639
g3
(g8
g9
(lp1380
g3
(g4
g5
(dp1381
g17
S'String'
p1382
sg15
S'GFrepo'
p1383
sg20
S'repoName'
p1384
stRp1385
ag3
(g4
g5
(dp1386
g17
S'File'
p1387
sg15
S'GFcfile'
p1388
sg20
S'clientFile'
p1389
stRp1390
ag3
(g4
g5
(dp1391
g17
S'File'
p1392
sg15
S'GFdfile'
p1393
sg20
S'depotFile'
p1394
stRp1395
ag3
(g4
g5
(dp1396
g17
S'Domain'
p1397
sg15
S'GFclient'
p1398
sg20
S'client'
p1399
stRp1400
ag3
(g4
g5
(dp1401
g17
S'FileType'
p1402
sg15
S'GFtype'
p1403
sg20
S'type'
p1404
stRp1405
ag3
(g4
g5
(dp1406
g17
S'Action'
p1407
sg15
S'GFaction'
p1408
sg20
S'action'
p1409
stRp1410
ag3
(g4
g5
(dp1411
g17
S'SHA1'
p1412
sg15
S'GFbsha'
p1413
sg20
S'blob sha'
p1414
stRp1415
ag3
(g4
g5
(dp1416
g17
S'SHA1'
p1417
sg15
S'GFcommitsha'
p1418
sg20
S'commit sha'
p1419
stRp1420
ag3
(g4
g5
(dp1421
g17
S'int'
p1422
sg15
S'GFflags'
p1423
sg20
S'flags'
p1424
stRp1425
atRp1426
sg15
S'Haveg'
p1427
stRp1428
ag3
(g4
g5
(dp1429
g639
g3
(g8
g9
(lp1430
g3
(g4
g5
(dp1431
g17
S'Date'
p1432
sg15
S'date'
p1433
sg20
S'Date value'
p1434
stRp1435
ag3
(g4
g5
(dp1436
g17
S'Int'
p1437
sg15
S'attr'
p1438
sg20
S'The attribute number (from the jobspec) to which this\n\t\t    date belongs'
p1439
stRp1440
ag3
(g4
g5
(dp1441
g17
S'String'
p1442
sg15
S'value'
p1443
sg20
S'A job name'
p1444
stRp1445
atRp1446
sg15
S'IndexDate'
p1447
stRp1448
ag3
(g4
g5
(dp1449
g639
g3
(g8
g9
(lp1450
g3
(g4
g5
(dp1451
g17
S'String'
p1452
sg15
S'word'
p1453
sg20
S'The word being indexed'
p1454
stRp1455
ag3
(g4
g5
(dp1456
g17
S'Int'
p1457
sg15
S'attr'
p1458
sg20
S'The attribute number to which this word belongs. For\n\t\t    job data, the attribute number from the jobspec.'
p1459
stRp1460
ag3
(g4
g5
(dp1461
g17
S'String'
p1462
sg15
S'value'
p1463
sg20
S'For job data, a job name. For generic data, the value\n\t\t    of the index keyed by the word.'
p1464
stRp1465
atRp1466
sg15
S'IndexText'
p1467
stRp1468
ag3
(g4
g5
(dp1469
g639
g3
(g8
g9
(lp1470
g3
(g4
g5
(dp1471
g17
S'String'
p1472
sg15
S'type'
p1473
sg20
S'The type'
p1474
stRp1475
ag3
(g4
g5
(dp1476
g17
S'String'
p1477
sg15
S'word'
p1478
sg20
S'The word being indexed'
p1479
stRp1480
ag3
(g4
g5
(dp1481
g17
S'Int'
p1482
sg15
S'attr'
p1483
sg20
S'The attribute number to which this word belongs.'
p1484
stRp1485
ag3
(g4
g5
(dp1486
g17
S'String'
p1487
sg15
S'value'
p1488
sg20
S'The value of the index keyed by the word.'
p1489
stRp1490
atRp1491
sg15
S'IndexTextHx'
p1492
stRp1493
ag3
(g4
g5
(dp1494
g639
g3
(g8
g9
(lp1495
g3
(g4
g5
(dp1496
g17
S'File'
p1497
sg15
S'toFile'
p1498
sg20
S'File to which integration is being performed (target).'
p1499
stRp1500
ag3
(g4
g5
(dp1501
g17
S'File'
p1502
sg15
S'fromFile'
p1503
sg20
S'File from which integration is being performed (source).'
p1504
stRp1505
ag3
(g4
g5
(dp1506
g17
S'Rev'
p1507
sg15
S'startFromRev'
p1508
sg20
S'Starting revision of fromFile'
p1509
stRp1510
ag3
(g4
g5
(dp1511
g17
S'Rev'
p1512
sg15
S'endFromRev'
p1513
sg20
S'Ending revision of fromFile'
p1514
stRp1515
ag3
(g4
g5
(dp1516
g17
S'Rev'
p1517
sg15
S'toRev'
p1518
sg20
S'Revision of toFile into which integration is being \n\t\t    performed.'
p1519
stRp1520
ag3
(g4
g5
(dp1521
g17
S'IntegHow'
p1522
sg15
S'how'
p1523
sg20
S'Integration method: variations on \n\t\t    merge/branch/copy/ignore/delete.'
p1524
stRp1525
ag3
(g4
g5
(dp1526
g17
S'Int'
p1527
sg15
S'committed'
p1528
sg20
S'Flag: 0 for pending, 1 for committed.'
p1529
stRp1530
ag3
(g4
g5
(dp1531
g17
S'ResolvedStatus'
p1532
sg15
S'resolved'
p1533
sg20
S'Resolution method: unresolved, resolved manually, \n\t\t    or resolved as part of a branch or delete.'
p1534
stRp1535
ag3
(g4
g5
(dp1536
g17
S'Change'
p1537
sg15
S'change'
p1538
sg20
S'Changelist associated with the integration.'
p1539
stRp1540
atRp1541
sg15
S'Integ'
p1542
stRp1543
ag3
(g4
g5
(dp1544
g639
g3
(g8
g9
(lp1545
g3
(g4
g5
(dp1546
g17
S'File'
p1547
sg15
S'toFile'
p1548
sg20
S'File to which integration is being performed (target).'
p1549
stRp1550
ag3
(g4
g5
(dp1551
g17
S'File'
p1552
sg15
S'fromFile'
p1553
sg20
S'File from which integration is being performed (source).'
p1554
stRp1555
ag3
(g4
g5
(dp1556
g17
S'Rev'
p1557
sg15
S'startFromRev'
p1558
sg20
S'Starting revision of fromFile'
p1559
stRp1560
ag3
(g4
g5
(dp1561
g17
S'Rev'
p1562
sg15
S'endFromRev'
p1563
sg20
S'Ending revision of fromFile'
p1564
stRp1565
ag3
(g4
g5
(dp1566
g17
S'Rev'
p1567
sg15
S'startToRev'
p1568
sg20
S'Start revision of toFile into which integration was \n\t\t    performed.'
p1569
stRp1570
ag3
(g4
g5
(dp1571
g17
S'Rev'
p1572
sg15
S'endToRev'
p1573
sg20
S'End revision of toFile into which integration was \n\t\t    performed. Only varies from startToRev for reverse \n\t\t    integration records.'
p1574
stRp1575
ag3
(g4
g5
(dp1576
g17
S'IntegHow'
p1577
sg15
S'how'
p1578
sg20
S'Integration method: variations on \n\t\t    merge/branch/copy/ignore/delete.'
p1579
stRp1580
ag3
(g4
g5
(dp1581
g17
S'Change'
p1582
sg15
S'change'
p1583
sg20
S'Changelist associated with the integration.'
p1584
stRp1585
atRp1586
sg15
S'Integed'
p1587
stRp1588
ag3
(g4
g5
(dp1589
g639
g3
(g8
g9
(lp1590
g3
(g4
g5
(dp1591
g17
S'Domain'
p1592
sg15
S'serverId'
p1593
sg20
S'The serverId of the standby for whom this record applies'
p1594
stRp1595
ag3
(g4
g5
(dp1596
g17
S'Date'
p1597
sg15
S'lastUpdate'
p1598
sg20
S'The date and time of last update'
p1599
stRp1600
ag3
(g4
g5
(dp1601
g17
S'ServerServiceType'
p1602
sg15
S'serverType'
p1603
sg20
S'The server services offered by this standby'
p1604
stRp1605
ag3
(g4
g5
(dp1606
g17
S'Int'
p1607
sg15
S'persistedJnl'
p1608
sg20
S'The last journal number persisted by this standby'
p1609
stRp1610
ag3
(g4
g5
(dp1611
g17
S'Int64'
p1612
sg15
S'persistedPos'
p1613
sg20
S'The last journal position persisted by this standby'
p1614
stRp1615
ag3
(g4
g5
(dp1616
g17
S'Int'
p1617
sg15
S'isAlive'
p1618
sg20
S'1 = alive'
p1619
stRp1620
ag3
(g4
g5
(dp1621
g17
S'Int'
p1622
sg15
S'appliedJnl'
p1623
sg20
S'The last journal number applied to this standby'
p1624
stRp1625
ag3
(g4
g5
(dp1626
g17
S'Int64'
p1627
sg15
S'appliedPos'
p1628
sg20
S'The last journal position applied to this standby'
p1629
stRp1630
atRp1631
sg15
S'JnlAck'
p1632
stRp1633
ag3
(g4
g5
(dp1634
g639
g3
(g8
g9
(lp1635
g3
(g4
g5
(dp1636
g17
S'String'
p1637
sg15
S'job'
p1638
sg20
S'The job name'
p1639
stRp1640
ag3
(g4
g5
(dp1641
g17
S'User'
p1642
sg15
S'xuser'
p1643
sg20
S'User name: defunct'
p1644
stRp1645
ag3
(g4
g5
(dp1646
g17
S'Date'
p1647
sg15
S'xdate'
p1648
sg20
S'The date: defunct'
p1649
stRp1650
ag3
(g4
g5
(dp1651
g17
S'JobStat'
p1652
sg15
S'xstatus'
p1653
sg20
S'Job status: defunct'
p1654
stRp1655
ag3
(g4
g5
(dp1656
g17
S'DescShort'
p1657
sg15
S'description'
p1658
sg20
S'Short description'
p1659
stRp1660
atRp1661
sg15
S'Job'
p1662
stRp1663
ag3
(g4
g5
(dp1664
g639
g3
(g8
g9
(lp1665
g3
(g4
g5
(dp1666
g17
S'String'
p1667
sg15
S'xjob'
p1668
sg20
S'The job name'
p1669
stRp1670
ag3
(g4
g5
(dp1671
g17
S'Text'
p1672
sg15
S'xdescription'
p1673
sg20
S'Jobdescription'
p1674
stRp1675
atRp1676
sg15
S'JobDesc'
p1677
stRp1678
ag3
(g4
g5
(dp1679
g639
g3
(g8
g9
(lp1680
g3
(g4
g5
(dp1681
g17
S'Key'
p1682
sg15
S'name'
p1683
sg20
S'Key name'
p1684
stRp1685
ag3
(g4
g5
(dp1686
g17
S'Value'
p1687
sg15
S'value'
p1688
sg20
S'Key value'
p1689
stRp1690
atRp1691
sg15
S'Keys'
p1692
stRp1693
ag3
(g4
g5
(dp1694
g639
g3
(g8
g9
(lp1695
g3
(g4
g5
(dp1696
g17
S'Domain'
p1697
sg15
S'name'
p1698
sg20
S'Name of the label'
p1699
stRp1700
ag3
(g4
g5
(dp1701
g17
S'File'
p1702
sg15
S'depotFile'
p1703
sg20
S'File name'
p1704
stRp1705
ag3
(g4
g5
(dp1706
g17
S'Rev'
p1707
sg15
S'haveRev'
p1708
sg20
S'The revision of the file in the label'
p1709
stRp1710
atRp1711
sg15
S'Label'
p1712
stRp1713
ag3
(g4
g5
(dp1714
g639
g3
(g8
g9
(lp1715
g3
(g4
g5
(dp1716
g17
S'String'
p1717
sg15
S'name'
p1718
sg20
S'The LDAP configuration name'
p1719
stRp1720
ag3
(g4
g5
(dp1721
g17
S'String'
p1722
sg15
S'host'
p1723
sg20
S'The FQDN of the directory server'
p1724
stRp1725
ag3
(g4
g5
(dp1726
g17
S'String'
p1727
sg15
S'port'
p1728
sg20
S'The port number on which to connect to the directory server'
p1729
stRp1730
ag3
(g4
g5
(dp1731
g17
S'String'
p1732
sg15
S'ssl'
p1733
sg20
S"The encryption method to use when connecting to the The FQDN of the directory server.\n\t\t\tOptions are: 'none', 'ssl' and 'tls'"
p1734
stRp1735
ag3
(g4
g5
(dp1736
g17
S'String'
p1737
sg15
S'type'
p1738
sg20
S"The bind method to use with this directory.  Options are: 'simple', 'search' and 'sasl'."
p1739
stRp1740
ag3
(g4
g5
(dp1741
g17
S'String'
p1742
sg15
S'pattern'
p1743
sg20
S"The DN used to bind against to validate the user's credentials."
p1744
stRp1745
ag3
(g4
g5
(dp1746
g17
S'String'
p1747
sg15
S'basedn'
p1748
sg20
S'The DN from which to start the search for the user object'
p1749
stRp1750
ag3
(g4
g5
(dp1751
g17
S'String'
p1752
sg15
S'filter'
p1753
sg20
S'The LDAP query filter to use to identify the user object which will be used to bind against'
p1754
stRp1755
ag3
(g4
g5
(dp1756
g17
S'String'
p1757
sg15
S'scope'
p1758
sg20
S'The scope to use when searching for the user records. Options are:\n                 0 = baseonly - Just the BaseDN object\n                 1 = children - The BaseDN and its direct children\n                 2 = subtree - The BaseDN and all objects below it'
p1759
stRp1760
ag3
(g4
g5
(dp1761
g17
S'String'
p1762
sg15
S'binddn'
p1763
sg20
S'The DN to bind against in order to search the directory'
p1764
stRp1765
ag3
(g4
g5
(dp1766
g17
S'String'
p1767
sg15
S'bindpass'
p1768
sg20
S'The password for the BindDN record'
p1769
stRp1770
ag3
(g4
g5
(dp1771
g17
S'String'
p1772
sg15
S'realm'
p1773
sg20
S'The optional realm to use when authenticating the user via SASL'
p1774
stRp1775
ag3
(g4
g5
(dp1776
g17
S'String'
p1777
sg15
S'grpbasedn'
p1778
sg20
S'The search base for performing the group search. If unset this will default to the SearchBaseDN'
p1779
stRp1780
ag3
(g4
g5
(dp1781
g17
S'String'
p1782
sg15
S'grpfilter'
p1783
sg20
S'The filter to use for the group search'
p1784
stRp1785
ag3
(g4
g5
(dp1786
g17
S'String'
p1787
sg15
S'grpscope'
p1788
sg20
S'The scope to use when performing the group search.Options are:\n \t\t\t\t0 = baseonly - Just the BaseDN object\n\t\t\t\t1 = children - The BaseDN and its direct children\n\t\t\t\t2 = subtree - The BaseDN and all objects below it'
p1789
stRp1790
ag3
(g4
g5
(dp1791
g17
S'String'
p1792
sg15
S'options'
p1793
sg20
S'LDAP Options: [no]downcase [no]getattrs [no]realminusername'
p1794
stRp1795
ag3
(g4
g5
(dp1796
g17
S'String'
p1797
sg15
S'attruid'
p1798
sg20
S"The name of the attribute in the directory's user records that contain the users' UIDs"
p1799
stRp1800
ag3
(g4
g5
(dp1801
g17
S'String'
p1802
sg15
S'attremail'
p1803
sg20
S"The name of the attribute in the directory's user records that contain the users' email addresses."
p1804
stRp1805
ag3
(g4
g5
(dp1806
g17
S'String'
p1807
sg15
S'attrename'
p1808
sg20
S"The name(s) of the attribute(s) in the directory's user records that contain the users' full names."
p1809
stRp1810
atRp1811
sg15
S'Ldap'
p1812
stRp1813
ag3
(g4
g5
(dp1814
g639
g3
(g8
g9
(lp1815
g3
(g4
g5
(dp1816
g17
S'File'
p1817
sg15
S'depotFile'
p1818
sg20
S'File in depot'
p1819
stRp1820
ag3
(g4
g5
(dp1821
g17
S'Domain'
p1822
sg15
S'client'
p1823
sg20
S'Domain (client) in which file is open'
p1824
stRp1825
ag3
(g4
g5
(dp1826
g17
S'User'
p1827
sg15
S'user'
p1828
sg20
S'User who presently has the file open'
p1829
stRp1830
ag3
(g4
g5
(dp1831
g17
S'Action'
p1832
sg15
S'action'
p1833
sg20
S'Action file is open for: add, edit, delete, branch,\n\t\t    integrate, or import'
p1834
stRp1835
ag3
(g4
g5
(dp1836
g17
S'Int'
p1837
sg15
S'isLocked'
p1838
sg20
S'Flag: 0 for unlocked, 1 for locked'
p1839
stRp1840
ag3
(g4
g5
(dp1841
g17
S'Int'
p1842
sg15
S'change'
p1843
sg20
S'Changelist in which the revision is open: 0 for the\n\t\t    default changelist'
p1844
stRp1845
atRp1846
sg15
S'Locks'
p1847
stRp1848
ag3
(g4
g5
(dp1849
g639
g3
(g8
g9
(lp1850
g3
(g4
g5
(dp1851
g17
S'Int'
p1852
sg15
S'seq'
p1853
sg20
S'Sequence number of event'
p1854
stRp1855
ag3
(g4
g5
(dp1856
g17
S'String'
p1857
sg15
S'key'
p1858
sg20
S"Either the word 'change' or the word 'job'"
p1859
stRp1860
ag3
(g4
g5
(dp1861
g17
S'String'
p1862
sg15
S'attr'
p1863
sg20
S'The number of the change, or name of the job that was \n\t\t    altered.'
p1864
stRp1865
atRp1866
sg15
S'Logger'
p1867
stRp1868
ag3
(g4
g5
(dp1869
g639
g3
(g8
g9
(lp1870
g3
(g4
g5
(dp1871
g17
S'String'
p1872
sg15
S'language'
p1873
sg20
S'The language for which this message applies'
p1874
stRp1875
ag3
(g4
g5
(dp1876
g17
S'Int'
p1877
sg15
S'id'
p1878
sg20
S'The message number'
p1879
stRp1880
ag3
(g4
g5
(dp1881
g17
S'String'
p1882
sg15
S'message'
p1883
sg20
S'The message text'
p1884
stRp1885
atRp1886
sg15
S'Message'
p1887
stRp1888
ag3
(g4
g5
(dp1889
g639
g3
(g8
g9
(lp1890
g3
(g4
g5
(dp1891
g17
S'Int'
p1892
sg15
S'id'
p1893
sg20
S'Thread/process id'
p1894
stRp1895
ag3
(g4
g5
(dp1896
g17
S'User'
p1897
sg15
S'user'
p1898
sg20
S'Username of the user running the command'
p1899
stRp1900
ag3
(g4
g5
(dp1901
g17
S'String'
p1902
sg15
S'function'
p1903
sg20
S'The command being executed.'
p1904
stRp1905
ag3
(g4
g5
(dp1906
g17
S'String'
p1907
sg15
S'args'
p1908
sg20
S'Arguments passed to the command'
p1909
stRp1910
ag3
(g4
g5
(dp1911
g17
S'Date'
p1912
sg15
S'startDate'
p1913
sg20
S'The date and time the command started'
p1914
stRp1915
ag3
(g4
g5
(dp1916
g17
S'Int'
p1917
sg15
S'runstate'
p1918
sg20
S'Flag: 0 for running, 1 for terminated, 2 for paused'
p1919
stRp1920
ag3
(g4
g5
(dp1921
g17
S'Domain'
p1922
sg15
S'client'
p1923
sg20
S'The client workspace'
p1924
stRp1925
ag3
(g4
g5
(dp1926
g17
S'Text'
p1927
sg15
S'host'
p1928
sg20
S'The IP address of the client'
p1929
stRp1930
ag3
(g4
g5
(dp1931
g17
S'Text'
p1932
sg15
S'prog'
p1933
sg20
S'The name (and version) of the client program'
p1934
stRp1935
ag3
(g4
g5
(dp1936
g17
S'Text'
p1937
sg15
S'lockInfo'
p1938
sg20
S'Table locking information for command'
p1939
stRp1940
atRp1941
sg15
S'Monitor'
p1942
stRp1943
ag3
(g4
g5
(dp1944
g639
g3
(g8
g9
(lp1945
g3
(g4
g5
(dp1946
g17
S'SHA1'
p1947
sg15
S'sha'
p1948
sg20
S'SHA1'
p1949
stRp1950
ag3
(g4
g5
(dp1951
g17
S'ObjectType'
p1952
sg15
S'type'
p1953
sg20
S'Type'
p1954
stRp1955
ag3
(g4
g5
(dp1956
g17
S'Octet String'
p1957
sg15
S'data'
p1958
sg20
S'VersionData'
p1959
stRp1960
atRp1961
sg15
S'Object'
p1962
stRp1963
ag3
(g4
g5
(dp1964
g639
g3
(g8
g9
(lp1965
g3
(g4
g5
(dp1966
g17
S'String'
p1967
sg15
S'name'
p1968
sg20
S'The property name'
p1969
stRp1970
ag3
(g4
g5
(dp1971
g17
S'String'
p1972
sg15
S'sequence'
p1973
sg20
S'Sequence number of property'
p1974
stRp1975
ag3
(g4
g5
(dp1976
g17
S'Int'
p1977
sg15
S'type'
p1978
sg20
S"1=user, 2=group; set if '-u | -g' option used with 'p4 property'"
p1979
stRp1980
ag3
(g4
g5
(dp1981
g17
S'String'
p1982
sg15
S'scope'
p1983
sg20
S'The user or group the property applies to'
p1984
stRp1985
ag3
(g4
g5
(dp1986
g17
S'String'
p1987
sg15
S'value'
p1988
sg20
S'The property value'
p1989
stRp1990
ag3
(g4
g5
(dp1991
g17
S'String'
p1992
sg15
S'date'
p1993
sg20
S'The date/time the property was last updated'
p1994
stRp1995
ag3
(g4
g5
(dp1996
g17
S'String'
p1997
sg15
S'user'
p1998
sg20
S'The user that last modified the property'
p1999
stRp2000
atRp2001
sg15
S'Property'
p2002
stRp2003
ag3
(g4
g5
(dp2004
g639
g3
(g8
g9
(lp2005
g3
(g4
g5
(dp2006
g17
S'Int'
p2007
sg15
S'seq'
p2008
sg20
S'Sequence number: for ordering the protections table'
p2009
stRp2010
ag3
(g4
g5
(dp2011
g17
S'Int'
p2012
sg15
S'isGroup'
p2013
sg20
S'Flag: 0 for a per-user setting, 1 for a per-group setting.'
p2014
stRp2015
ag3
(g4
g5
(dp2016
g17
S'UserWild'
p2017
sg15
S'user'
p2018
sg20
S'User(s), or Group(s) for whom this record applies.'
p2019
stRp2020
ag3
(g4
g5
(dp2021
g17
S'DomainWild'
p2022
sg15
S'host'
p2023
sg20
S'Domain(s) (IP addresses) for which this record applies.'
p2024
stRp2025
ag3
(g4
g5
(dp2026
g17
S'Perm'
p2027
sg15
S'perm'
p2028
sg20
S'Permissions to be granted/revoked'
p2029
stRp2030
ag3
(g4
g5
(dp2031
g17
S'MapFlag'
p2032
sg15
S'mapFlag'
p2033
sg20
S'Flag: Map the files in or out?'
p2034
stRp2035
ag3
(g4
g5
(dp2036
g17
S'Mapping'
p2037
sg15
S'depotFile'
p2038
sg20
S'Files to be mapped in or out.'
p2039
stRp2040
ag3
(g4
g5
(dp2041
g17
S'String'
p2042
sg15
S'subPath'
p2043
sg20
S'Root path of the sub-protections table'
p2044
stRp2045
ag3
(g4
g5
(dp2046
g17
S'Date'
p2047
sg15
S'update'
p2048
sg20
S'Date this specification was last modified'
p2049
stRp2050
atRp2051
sg15
S'Protect'
p2052
stRp2053
ag3
(g4
g5
(dp2054
g639
g3
(g8
g9
(lp2055
g3
(g4
g5
(dp2056
g17
S'String'
p2057
sg15
S'user'
p2058
sg20
S'User'
p2059
stRp2060
ag3
(g4
g5
(dp2061
g17
S'String'
p2062
sg15
S'scope'
p2063
sg20
S'Scope'
p2064
stRp2065
ag3
(g4
g5
(dp2066
g17
S'String'
p2067
sg15
S'key'
p2068
sg20
S'Key'
p2069
stRp2070
ag3
(g4
g5
(dp2071
g17
S'Digest'
p2072
sg15
S'digest'
p2073
sg20
S'Digest'
p2074
stRp2075
ag3
(g4
g5
(dp2076
g17
S'Date'
p2077
sg15
S'update'
p2078
sg20
S'Update date'
p2079
stRp2080
atRp2081
sg15
S'PublicKey'
p2082
stRp2083
ag3
(g4
g5
(dp2084
g639
g3
(g8
g9
(lp2085
g3
(g4
g5
(dp2086
g17
S'String'
p2087
sg15
S'repo'
p2088
sg20
S'Repository name'
p2089
stRp2090
ag3
(g4
g5
(dp2091
g17
S'String'
p2092
sg15
S'name'
p2093
sg20
S'Reference name'
p2094
stRp2095
ag3
(g4
g5
(dp2096
g17
S'RefType'
p2097
sg15
S'type'
p2098
sg20
S'Reference type'
p2099
stRp2100
ag3
(g4
g5
(dp2101
g17
S'SHA1'
p2102
sg15
S'ref'
p2103
sg20
S'Target of the reference'
p2104
stRp2105
ag3
(g4
g5
(dp2106
g17
S'String'
p2107
sg15
S'symref'
p2108
sg20
S'Target of symbolic reference'
p2109
stRp2110
atRp2111
sg15
S'Ref'
p2112
stRp2113
ag3
(g4
g5
(dp2114
g639
g3
(g8
g9
(lp2115
g3
(g4
g5
(dp2116
g17
S'String'
p2117
sg15
S'repo'
p2118
sg20
S'Repository name'
p2119
stRp2120
ag3
(g4
g5
(dp2121
g17
S'String'
p2122
sg15
S'name'
p2123
sg20
S'Reference name'
p2124
stRp2125
ag3
(g4
g5
(dp2126
g17
S'RefType'
p2127
sg15
S'type'
p2128
sg20
S'Reference type'
p2129
stRp2130
ag3
(g4
g5
(dp2131
g17
S'RefAction'
p2132
sg15
S'action'
p2133
sg20
S'Reference action'
p2134
stRp2135
ag3
(g4
g5
(dp2136
g17
S'Date'
p2137
sg15
S'date'
p2138
sg20
S'The date the reference was updated'
p2139
stRp2140
ag3
(g4
g5
(dp2141
g17
S'User'
p2142
sg15
S'user'
p2143
sg20
S'The user who made the reference update'
p2144
stRp2145
ag3
(g4
g5
(dp2146
g17
S'SHA1'
p2147
sg15
S'ref'
p2148
sg20
S'Encoded reference value'
p2149
stRp2150
ag3
(g4
g5
(dp2151
g17
S'String'
p2152
sg15
S'symref'
p2153
sg20
S'Symbolic reference'
p2154
stRp2155
atRp2156
sg15
S'RefHist'
p2157
stRp2158
ag3
(g4
g5
(dp2159
g639
g3
(g8
g9
(lp2160
g3
(g4
g5
(dp2161
g17
S'RemoteID'
p2162
sg15
S'id'
p2163
sg20
S'The remote identifier'
p2164
stRp2165
ag3
(g4
g5
(dp2166
g17
S'User'
p2167
sg15
S'owner'
p2168
sg20
S'The user who created this remote'
p2169
stRp2170
ag3
(g4
g5
(dp2171
g17
S'Int'
p2172
sg15
S'options'
p2173
sg20
S'Remote options: 0: unlocked/nocompress, 1: locked/nocompress, 2: unlocked/compress, 4: locked/compress'
p2174
stRp2175
ag3
(g4
g5
(dp2176
g17
S'Text'
p2177
sg15
S'address'
p2178
sg20
S'The P4PORT used by the remote server'
p2179
stRp2180
ag3
(g4
g5
(dp2181
g17
S'Text'
p2182
sg15
S'desc'
p2183
sg20
S'Description of the remote server'
p2184
stRp2185
ag3
(g4
g5
(dp2186
g17
S'Date'
p2187
sg15
S'update'
p2188
sg20
S'The date this specification was last modified'
p2189
stRp2190
ag3
(g4
g5
(dp2191
g17
S'Date'
p2192
sg15
S'access'
p2193
sg20
S'The date of the last push/fetch on this remote'
p2194
stRp2195
ag3
(g4
g5
(dp2196
g17
S'Change'
p2197
sg15
S'fetch'
p2198
sg20
S'The last changelist that was fetched'
p2199
stRp2200
ag3
(g4
g5
(dp2201
g17
S'Change'
p2202
sg15
S'push'
p2203
sg20
S'The last changelist that was pushed'
p2204
stRp2205
ag3
(g4
g5
(dp2206
g17
S'User'
p2207
sg15
S'rmtuser'
p2208
sg20
S'The user to use when connecting to the remote server'
p2209
stRp2210
atRp2211
sg15
S'Remote'
p2212
stRp2213
ag3
(g4
g5
(dp2214
g639
g3
(g8
g9
(lp2215
g3
(g4
g5
(dp2216
g17
S'File'
p2217
sg15
S'depotFile'
p2218
sg20
S'The file name'
p2219
stRp2220
ag3
(g4
g5
(dp2221
g17
S'String'
p2222
sg15
S'lbrRev'
p2223
sg20
S'The librarian revision'
p2224
stRp2225
ag3
(g4
g5
(dp2226
g17
S'String'
p2227
sg15
S'type'
p2228
sg20
S'The file type of the revision'
p2229
stRp2230
ag3
(g4
g5
(dp2231
g17
S'PullStatus'
p2232
sg15
S'status'
p2233
sg20
S'The status of the archive transfer'
p2234
stRp2235
ag3
(g4
g5
(dp2236
g17
S'Action'
p2237
sg15
S'action'
p2238
sg20
S'The action that created the revision'
p2239
stRp2240
ag3
(g4
g5
(dp2241
g17
S'Digest'
p2242
sg15
S'digest'
p2243
sg20
S'The MD5 digest of the revision'
p2244
stRp2245
ag3
(g4
g5
(dp2246
g17
S'FileSize'
p2247
sg15
S'size'
p2248
sg20
S'The size of the file in bytes'
p2249
stRp2250
ag3
(g4
g5
(dp2251
g17
S'Change'
p2252
sg15
S'change'
p2253
sg20
S'The changelist that created the revision'
p2254
stRp2255
ag3
(g4
g5
(dp2256
g17
S'Date'
p2257
sg15
S'lbrDate'
p2258
sg20
S'Librarian date'
p2259
stRp2260
ag3
(g4
g5
(dp2261
g17
S'Date'
p2262
sg15
S'lbrModTime'
p2263
sg20
S'Librarian modtime'
p2264
stRp2265
ag3
(g4
g5
(dp2266
g17
S'Int'
p2267
sg15
S'pid'
p2268
sg20
S'The process id (PID) of the pull process'
p2269
stRp2270
ag3
(g4
g5
(dp2271
g17
S'Date'
p2272
sg15
S'requestTime'
p2273
sg20
S'Pull request time'
p2274
stRp2275
ag3
(g4
g5
(dp2276
g17
S'Int'
p2277
sg15
S'retries'
p2278
sg20
S'The number of retries that have occurred after transfer error'
p2279
stRp2280
ag3
(g4
g5
(dp2281
g17
S'String'
p2282
sg15
S'transferError'
p2283
sg20
S'The error message for a failed transfer'
p2284
stRp2285
atRp2286
sg15
S'ReplicaArchiveTransfer'
p2287
stRp2288
ag3
(g4
g5
(dp2289
g639
g3
(g8
g9
(lp2290
g3
(g4
g5
(dp2291
g17
S'String'
p2292
sg15
S'repo'
p2293
sg20
S'Name of the repo'
p2294
stRp2295
ag3
(g4
g5
(dp2296
g17
S'User'
p2297
sg15
S'owner'
p2298
sg20
S'Owner of the repo'
p2299
stRp2300
ag3
(g4
g5
(dp2301
g17
S'Date'
p2302
sg15
S'created'
p2303
sg20
S'Date the repo specification was created'
p2304
stRp2305
ag3
(g4
g5
(dp2306
g17
S'Date'
p2307
sg15
S'pushed'
p2308
sg20
S'Date of the last push to the repo'
p2309
stRp2310
ag3
(g4
g5
(dp2311
g17
S'String'
p2312
sg15
S'forked'
p2313
sg20
S'Name of the repo from which this repo was forked'
p2314
stRp2315
ag3
(g4
g5
(dp2316
g17
S'String'
p2317
sg15
S'desc'
p2318
sg20
S'Repo Description'
p2319
stRp2320
ag3
(g4
g5
(dp2321
g17
S'String'
p2322
sg15
S'branch'
p2323
sg20
S'Default branch to clone from the repo'
p2324
stRp2325
ag3
(g4
g5
(dp2326
g17
S'String'
p2327
sg15
S'mirror'
p2328
sg20
S'Upstream URL that this repo is mirrored (readonly) from'
p2329
stRp2330
ag3
(g4
g5
(dp2331
g17
S'Int'
p2332
sg15
S'options'
p2333
sg20
S'Repo options: 0 = nolfs, 1 = lfs'
p2334
stRp2335
ag3
(g4
g5
(dp2336
g17
S'Int'
p2337
sg15
S'id'
p2338
sg20
S'Repo index ID'
p2339
stRp2340
atRp2341
sg15
S'Repo'
p2342
stRp2343
ag3
(g4
g5
(dp2344
g639
g3
(g8
g9
(lp2345
g3
(g4
g5
(dp2346
g17
S'File'
p2347
sg15
S'toFile'
p2348
sg20
S'File to which integration is being performed (target).'
p2349
stRp2350
ag3
(g4
g5
(dp2351
g17
S'File'
p2352
sg15
S'fromFile'
p2353
sg20
S'File from which integration is being performed (source).'
p2354
stRp2355
ag3
(g4
g5
(dp2356
g17
S'Rev'
p2357
sg15
S'startFromRev'
p2358
sg20
S'Starting revision of fromFile'
p2359
stRp2360
ag3
(g4
g5
(dp2361
g17
S'Rev'
p2362
sg15
S'endFromRev'
p2363
sg20
S'Ending revision of fromFile'
p2364
stRp2365
ag3
(g4
g5
(dp2366
g17
S'Rev'
p2367
sg15
S'startToRev'
p2368
sg20
S'Start revision of toFile into which integration was \n\t\t    performed.'
p2369
stRp2370
ag3
(g4
g5
(dp2371
g17
S'Rev'
p2372
sg15
S'endToRev'
p2373
sg20
S'End revision of toFile into which integration was \n\t\t    performed. Only varies from startToRev for reverse \n\t\t    integration records.'
p2374
stRp2375
ag3
(g4
g5
(dp2376
g17
S'IntegHow'
p2377
sg15
S'how'
p2378
sg20
S'Integration method: variations on \n\t\t    merge/branch/copy/ignore/delete.'
p2379
stRp2380
ag3
(g4
g5
(dp2381
g17
S'ResolveState'
p2382
sg15
S'state'
p2383
sg20
S'How the user performed the resolve.'
p2384
stRp2385
ag3
(g4
g5
(dp2386
g17
S'File'
p2387
sg15
S'baseFile'
p2388
sg20
S'File used as the base for merging.'
p2389
stRp2390
ag3
(g4
g5
(dp2391
g17
S'Rev'
p2392
sg15
S'baseRev'
p2393
sg20
S'Revision of baseFile used as the merge base.'
p2394
stRp2395
atRp2396
sg15
S'Resolve'
p2397
stRp2398
ag3
(g4
g5
(dp2399
g639
g3
(g8
g9
(lp2400
g3
(g4
g5
(dp2401
g17
S'File'
p2402
sg15
S'toFile'
p2403
sg20
S'ToFile'
p2404
stRp2405
ag3
(g4
g5
(dp2406
g17
S'File'
p2407
sg15
S'fromFile'
p2408
sg20
S'FromFile'
p2409
stRp2410
ag3
(g4
g5
(dp2411
g17
S'SHA1'
p2412
sg15
S'baseSHA'
p2413
sg20
S'Base SHA'
p2414
stRp2415
ag3
(g4
g5
(dp2416
g17
S'SHA1'
p2417
sg15
S'wantsSHA'
p2418
sg20
S'Wants SHA'
p2419
stRp2420
ag3
(g4
g5
(dp2421
g17
S'IntegHow'
p2422
sg15
S'how'
p2423
sg20
S'How'
p2424
stRp2425
ag3
(g4
g5
(dp2426
g17
S'ResolvedStatus'
p2427
sg15
S'state'
p2428
sg20
S'State'
p2429
stRp2430
atRp2431
sg15
S'ResolveG'
p2432
stRp2433
ag3
(g4
g5
(dp2434
g639
g3
(g8
g9
(lp2435
g3
(g4
g5
(dp2436
g17
S'File'
p2437
sg15
S'depotFile'
p2438
sg20
S'The file name'
p2439
stRp2440
ag3
(g4
g5
(dp2441
g17
S'Rev'
p2442
sg15
S'depotRev'
p2443
sg20
S'The revision number'
p2444
stRp2445
ag3
(g4
g5
(dp2446
g17
S'FileType'
p2447
sg15
S'type'
p2448
sg20
S'The file type of the revision'
p2449
stRp2450
ag3
(g4
g5
(dp2451
g17
S'Action'
p2452
sg15
S'action'
p2453
sg20
S'The action that created the revision'
p2454
stRp2455
ag3
(g4
g5
(dp2456
g17
S'Change'
p2457
sg15
S'change'
p2458
sg20
S'The changelist that created the revision'
p2459
stRp2460
ag3
(g4
g5
(dp2461
g17
S'Date'
p2462
sg15
S'date'
p2463
sg20
S'The date/time the changelist that created the revision\n\t\t    was submitted'
p2464
stRp2465
ag3
(g4
g5
(dp2466
g17
S'Date'
p2467
sg15
S'modTime'
p2468
sg20
S"The timestamp on the file in the user's workspace when\n\t\t    the revision was submitted."
p2469
stRp2470
ag3
(g4
g5
(dp2471
g17
S'Digest'
p2472
sg15
S'digest'
p2473
sg20
S'The MD5 digest of the revision.'
p2474
stRp2475
ag3
(g4
g5
(dp2476
g17
S'FileSize'
p2477
sg15
S'size'
p2478
sg20
S'The size of the file in bytes'
p2479
stRp2480
ag3
(g4
g5
(dp2481
g17
S'TraitLot'
p2482
sg15
S'traitLot'
p2483
sg20
S'Group of traits (attributes) associated with the revision.'
p2484
stRp2485
ag3
(g4
g5
(dp2486
g17
S'RevStatus'
p2487
sg15
S'lbrIsLazy'
p2488
sg20
S'Specifies whether or not the revision gets its content from \n\t  \t    another file (lazy copy), data about promotion of revision\n\t \t    content from task streams, and data about revision charset \n            information.'
p2489
stRp2490
ag3
(g4
g5
(dp2491
g17
S'File'
p2492
sg15
S'lbrFile'
p2493
sg20
S"Filename for librarian's purposes.  Specifies location in \n\t\t    the archives where the file containing the revision may\n\t\t    be found. Usually the same as depotFile, but differs in\n\t\t    the case of branched/copied revisions."
p2494
stRp2495
ag3
(g4
g5
(dp2496
g17
S'String'
p2497
sg15
S'lbrRev'
p2498
sg20
S'The revision of lbrFile that contains the revision content.'
p2499
stRp2500
ag3
(g4
g5
(dp2501
g17
S'FileType'
p2502
sg15
S'lbrType'
p2503
sg20
S'The file type of the librarian revision. Usually the same\n\t\t    as type, but differs in the case of branched/copied \n\t\t    revisions.'
p2504
stRp2505
atRp2506
sg15
S'Rev'
p2507
stRp2508
ag3
(g4
g5
(dp2509
g639
g3
(g8
g9
(lp2510
g3
(g4
g5
(dp2511
g17
S'Change'
p2512
sg15
S'change'
p2513
sg20
S'The changelist that created the revision'
p2514
stRp2515
ag3
(g4
g5
(dp2516
g17
S'File'
p2517
sg15
S'depotFile'
p2518
sg20
S'The file name'
p2519
stRp2520
ag3
(g4
g5
(dp2521
g17
S'Rev'
p2522
sg15
S'depotRev'
p2523
sg20
S'The revision number'
p2524
stRp2525
ag3
(g4
g5
(dp2526
g17
S'Action'
p2527
sg15
S'action'
p2528
sg20
S'The action that created the revision'
p2529
stRp2530
atRp2531
sg15
S'RevCx'
p2532
stRp2533
ag3
(g4
g5
(dp2534
g639
g3
(g8
g9
(lp2535
g3
(g4
g5
(dp2536
g17
S'User'
p2537
sg15
S'user'
p2538
sg20
S'A user name'
p2539
stRp2540
ag3
(g4
g5
(dp2541
g17
S'Int'
p2542
sg15
S'seq'
p2543
sg20
S'Sequence number: used for ordering multi-line views'
p2544
stRp2545
ag3
(g4
g5
(dp2546
g17
S'MapFlag'
p2547
sg15
S'mapFlag'
p2548
sg20
S'Type of mapping'
p2549
stRp2550
ag3
(g4
g5
(dp2551
g17
S'Mapping'
p2552
sg15
S'depotFile'
p2553
sg20
S'The files to be reviewed'
p2554
stRp2555
ag3
(g4
g5
(dp2556
g17
S'Reviewer'
p2557
sg15
S'type'
p2558
sg20
S'Type of reviewer'
p2559
stRp2560
atRp2561
sg15
S'Review'
p2562
stRp2563
ag3
(g4
g5
(dp2564
g639
g3
(g8
g9
(lp2565
g3
(g4
g5
(dp2566
g17
S'RemoteID'
p2567
sg15
S'id'
p2568
sg20
S'Remote name'
p2569
stRp2570
ag3
(g4
g5
(dp2571
g17
S'Int'
p2572
sg15
S'seq'
p2573
sg20
S'Sequence number: for ordering multi-line views'
p2574
stRp2575
ag3
(g4
g5
(dp2576
g17
S'MapFlag'
p2577
sg15
S'mapFlag'
p2578
sg20
S'Type of mapping'
p2579
stRp2580
ag3
(g4
g5
(dp2581
g17
S'Mapping'
p2582
sg15
S'localFile'
p2583
sg20
S'Local file'
p2584
stRp2585
ag3
(g4
g5
(dp2586
g17
S'Mapping'
p2587
sg15
S'remoteFile'
p2588
sg20
S'Remote file'
p2589
stRp2590
ag3
(g4
g5
(dp2591
g17
S'Int'
p2592
sg15
S'retain'
p2593
sg20
S'ArchiveLimits'
p2594
stRp2595
atRp2596
sg15
S'RmtView'
p2597
stRp2598
ag3
(g4
g5
(dp2599
g639
g3
(g8
g9
(lp2600
g3
(g4
g5
(dp2601
g17
S'Int'
p2602
sg15
S'taskID'
p2603
sg20
S'The process id (PID) of the sync'
p2604
stRp2605
ag3
(g4
g5
(dp2606
g17
S'Int'
p2607
sg15
S'seq'
p2608
sg20
S'Sequence number'
p2609
stRp2610
ag3
(g4
g5
(dp2611
g17
S'Text'
p2612
sg15
S'handle'
p2613
sg20
S'Handle'
p2614
stRp2615
ag3
(g4
g5
(dp2616
g17
S'File'
p2617
sg15
S'depotFile'
p2618
sg20
S'The file in the depot'
p2619
stRp2620
ag3
(g4
g5
(dp2621
g17
S'File'
p2622
sg15
S'clientFile'
p2623
sg20
S'The file in its location on the client'
p2624
stRp2625
ag3
(g4
g5
(dp2626
g17
S'Rev'
p2627
sg15
S'haveRev'
p2628
sg20
S'Have revision'
p2629
stRp2630
ag3
(g4
g5
(dp2631
g17
S'FileType'
p2632
sg15
S'type'
p2633
sg20
S'File type'
p2634
stRp2635
ag3
(g4
g5
(dp2636
g17
S'Date'
p2637
sg15
S'modtime'
p2638
sg20
S'Modification time'
p2639
stRp2640
ag3
(g4
g5
(dp2641
g17
S'Digest'
p2642
sg15
S'digest'
p2643
sg20
S'The MD5 digest of the revision'
p2644
stRp2645
ag3
(g4
g5
(dp2646
g17
S'FileSize'
p2647
sg15
S'size'
p2648
sg20
S'The size of the file in bytes'
p2649
stRp2650
ag3
(g4
g5
(dp2651
g17
S'File'
p2652
sg15
S'lbrFile'
p2653
sg20
S'Librarian filename'
p2654
stRp2655
ag3
(g4
g5
(dp2656
g17
S'LbrRev'
p2657
sg15
S'lbrRev'
p2658
sg20
S'The revision of lbrFile that contains the revision content'
p2659
stRp2660
ag3
(g4
g5
(dp2661
g17
S'FileType'
p2662
sg15
S'lbrType'
p2663
sg20
S'The file type of the librarian revision'
p2664
stRp2665
ag3
(g4
g5
(dp2666
g17
S'Int'
p2667
sg15
S'flags'
p2668
sg20
S'Flags'
p2669
stRp2670
ag3
(g4
g5
(dp2671
g17
S'FileType'
p2672
sg15
S'clientType'
p2673
sg20
S'The client file type of the revision'
p2674
stRp2675
ag3
(g4
g5
(dp2676
g17
S'SHA1'
p2677
sg15
S'bsha'
p2678
sg20
S'The Blob SHA'
p2679
stRp2680
ag3
(g4
g5
(dp2681
g17
S'Int'
p2682
sg15
S'reposlot'
p2683
sg20
S'reposlot'
p2684
stRp2685
ag3
(g4
g5
(dp2686
g17
S'Digest'
p2687
sg15
S'sdigest'
p2688
sg20
S'sdigest'
p2689
stRp2690
atRp2691
sg15
S'SendQ'
p2692
stRp2693
ag3
(g4
g5
(dp2694
g639
g3
(g8
g9
(lp2695
g3
(g4
g5
(dp2696
g17
S'Text'
p2697
sg15
S'id'
p2698
sg20
S'The server identifier'
p2699
stRp2700
ag3
(g4
g5
(dp2701
g17
S'ServerType'
p2702
sg15
S'type'
p2703
sg20
S'The server type: server/broker/proxy'
p2704
stRp2705
ag3
(g4
g5
(dp2706
g17
S'Text'
p2707
sg15
S'name'
p2708
sg20
S'The P4NAME used by this server'
p2709
stRp2710
ag3
(g4
g5
(dp2711
g17
S'Text'
p2712
sg15
S'address'
p2713
sg20
S'The P4PORT used by this server'
p2714
stRp2715
ag3
(g4
g5
(dp2716
g17
S'Text'
p2717
sg15
S'externalAddress'
p2718
sg20
S'For an edge server, this optional field contains its external address for connections from the commit server. This field is required for federated parallel submit.'
p2719
stRp2720
ag3
(g4
g5
(dp2721
g17
S'ServerServiceType'
p2722
sg15
S'services'
p2723
sg20
S'Service provided by this server'
p2724
stRp2725
ag3
(g4
g5
(dp2726
g17
S'Text'
p2727
sg15
S'desc'
p2728
sg20
S'Server description'
p2729
stRp2730
ag3
(g4
g5
(dp2731
g17
S'User'
p2732
sg15
S'user'
p2733
sg20
S'The service user used by this server'
p2734
stRp2735
atRp2736
sg15
S'Server'
p2737
stRp2738
ag3
(g4
g5
(dp2739
g639
g3
(g8
g9
(lp2740
g3
(g4
g5
(dp2741
g17
S'Domain'
p2742
sg15
S'client'
p2743
sg20
S'Client the stash refers to'
p2744
stRp2745
ag3
(g4
g5
(dp2746
g17
S'Domain'
p2747
sg15
S'stream'
p2748
sg20
S'Stream the stash refers to'
p2749
stRp2750
ag3
(g4
g5
(dp2751
g17
S'StashType'
p2752
sg15
S'type'
p2753
sg20
S'Stash type'
p2754
stRp2755
ag3
(g4
g5
(dp2756
g17
S'Int'
p2757
sg15
S'seq'
p2758
sg20
S'Sequence number'
p2759
stRp2760
ag3
(g4
g5
(dp2761
g17
S'Change'
p2762
sg15
S'change'
p2763
sg20
S'Stash change number'
p2764
stRp2765
atRp2766
sg15
S'Stash'
p2767
stRp2768
ag3
(g4
g5
(dp2769
g639
g3
(g8
g9
(lp2770
g3
(g4
g5
(dp2771
g17
S'Domain'
p2772
sg15
S'stream'
p2773
sg20
S'Stream name'
p2774
stRp2775
ag3
(g4
g5
(dp2776
g17
S'Domain'
p2777
sg15
S'parent'
p2778
sg20
S'Parent stream name'
p2779
stRp2780
ag3
(g4
g5
(dp2781
g17
S'Text'
p2782
sg15
S'title'
p2783
sg20
S'Stream title (alias for the stream name)'
p2784
stRp2785
ag3
(g4
g5
(dp2786
g17
S'StreamType'
p2787
sg15
S'type'
p2788
sg20
S'The type of stream'
p2789
stRp2790
ag3
(g4
g5
(dp2791
g17
S'Date'
p2792
sg15
S'preview'
p2793
sg20
S'Stream template modification time'
p2794
stRp2795
ag3
(g4
g5
(dp2796
g17
S'Change'
p2797
sg15
S'change'
p2798
sg20
S'Last submit to stream'
p2799
stRp2800
ag3
(g4
g5
(dp2801
g17
S'Change'
p2802
sg15
S'copychg'
p2803
sg20
S'Parent change at last copy'
p2804
stRp2805
ag3
(g4
g5
(dp2806
g17
S'Change'
p2807
sg15
S'mergechg'
p2808
sg20
S'Parent change at last merge'
p2809
stRp2810
ag3
(g4
g5
(dp2811
g17
S'Change'
p2812
sg15
S'highchg'
p2813
sg20
S'Highest change at last merge'
p2814
stRp2815
ag3
(g4
g5
(dp2816
g17
S'Int'
p2817
sg15
S'hash'
p2818
sg20
S'Hash value of dynamic branch'
p2819
stRp2820
ag3
(g4
g5
(dp2821
g17
S'StreamStatus'
p2822
sg15
S'status'
p2823
sg20
S'Flow status'
p2824
stRp2825
atRp2826
sg15
S'Stream'
p2827
stRp2828
ag3
(g4
g5
(dp2829
g639
g3
(g8
g9
(lp2830
g3
(g4
g5
(dp2831
g17
S'Text'
p2832
sg15
S'id'
p2833
sg20
S'Server name'
p2834
stRp2835
ag3
(g4
g5
(dp2836
g17
S'SvrViewType'
p2837
sg15
S'type'
p2838
sg20
S'View type'
p2839
stRp2840
ag3
(g4
g5
(dp2841
g17
S'Int'
p2842
sg15
S'seq'
p2843
sg20
S'Sequence (line) number'
p2844
stRp2845
ag3
(g4
g5
(dp2846
g17
S'MapFlag'
p2847
sg15
S'mapFlag'
p2848
sg20
S'Type of mapping'
p2849
stRp2850
ag3
(g4
g5
(dp2851
g17
S'Mapping'
p2852
sg15
S'viewFile'
p2853
sg20
S'View file'
p2854
stRp2855
atRp2856
sg15
S'SvrView'
p2857
stRp2858
ag3
(g4
g5
(dp2859
g639
g3
(g8
g9
(lp2860
g3
(g4
g5
(dp2861
g17
S'String'
p2862
sg15
S'repo'
p2863
sg20
S'Repository name'
p2864
stRp2865
ag3
(g4
g5
(dp2866
g17
S'String'
p2867
sg15
S'path'
p2868
sg20
S'Path at which the submodule is linked'
p2869
stRp2870
ag3
(g4
g5
(dp2871
g17
S'String'
p2872
sg15
S'subrepo'
p2873
sg20
S'Submodule repository name'
p2874
stRp2875
atRp2876
sg15
S'Submodule'
p2877
stRp2878
ag3
(g4
g5
(dp2879
g639
g3
(g8
g9
(lp2880
g3
(g4
g5
(dp2881
g17
S'Domain'
p2882
sg15
S'name'
p2883
sg20
S'Stream name'
p2884
stRp2885
ag3
(g4
g5
(dp2886
g17
S'Change'
p2887
sg15
S'change'
p2888
sg20
S'Versioned at change'
p2889
stRp2890
ag3
(g4
g5
(dp2891
g17
S'Int'
p2892
sg15
S'seq'
p2893
sg20
S'Sequence (line) number'
p2894
stRp2895
ag3
(g4
g5
(dp2896
g17
S'Domain'
p2897
sg15
S'parent'
p2898
sg20
S'Parent stream name'
p2899
stRp2900
ag3
(g4
g5
(dp2901
g17
S'StreamType'
p2902
sg15
S'type'
p2903
sg20
S'Type of stream'
p2904
stRp2905
ag3
(g4
g5
(dp2906
g17
S'StreamPathType'
p2907
sg15
S'path'
p2908
sg20
S'Stream path type'
p2909
stRp2910
ag3
(g4
g5
(dp2911
g17
S'Mapping'
p2912
sg15
S'viewFile'
p2913
sg20
S'View file (left hand side of path)'
p2914
stRp2915
ag3
(g4
g5
(dp2916
g17
S'Mapping'
p2917
sg15
S'depotFile'
p2918
sg20
S'Depot file (right hand side of path)'
p2919
stRp2920
ag3
(g4
g5
(dp2921
g17
S'Value'
p2922
sg15
S'changeMap'
p2923
sg20
S"Stream 'import' path changelist specifier. The changelist\n\t\t\tlimits in effect for a given client are displayed in a\n\t    \tread-only client spec field called 'ChangeView'"
p2924
stRp2925
atRp2926
sg15
S'Template'
p2927
stRp2928
ag3
(g4
g5
(dp2929
g639
g3
(g8
g9
(lp2930
g3
(g4
g5
(dp2931
g17
S'Change'
p2932
sg15
S'shelf'
p2933
sg20
S'Shelf changelist number'
p2934
stRp2935
ag3
(g4
g5
(dp2936
g17
S'Domain'
p2937
sg15
S'name'
p2938
sg20
S'Stream name'
p2939
stRp2940
ag3
(g4
g5
(dp2941
g17
S'Int'
p2942
sg15
S'seq'
p2943
sg20
S'Sequence (line) number'
p2944
stRp2945
ag3
(g4
g5
(dp2946
g17
S'Change'
p2947
sg15
S'change'
p2948
sg20
S'Versioned at change'
p2949
stRp2950
ag3
(g4
g5
(dp2951
g17
S'Domain'
p2952
sg15
S'parent'
p2953
sg20
S'Parent stream name'
p2954
stRp2955
ag3
(g4
g5
(dp2956
g17
S'StreamType'
p2957
sg15
S'type'
p2958
sg20
S'Type of stream'
p2959
stRp2960
ag3
(g4
g5
(dp2961
g17
S'StreamPathType'
p2962
sg15
S'path'
p2963
sg20
S'Stream path type'
p2964
stRp2965
ag3
(g4
g5
(dp2966
g17
S'Mapping'
p2967
sg15
S'viewFile'
p2968
sg20
S'View file (left hand side of path)'
p2969
stRp2970
ag3
(g4
g5
(dp2971
g17
S'Mapping'
p2972
sg15
S'depotFile'
p2973
sg20
S'Depot file (right hand side of path)'
p2974
stRp2975
ag3
(g4
g5
(dp2976
g17
S'Value'
p2977
sg15
S'changeMap'
p2978
sg20
S"Stream 'import' path changelist specifier. The changelist\n\t\t\tlimits in effect for a given client are displayed in a\n\t    \tread-only client spec field called 'ChangeView'"
p2979
stRp2980
atRp2981
sg15
S'TemplateSx'
p2982
stRp2983
ag3
(g4
g5
(dp2984
g639
g3
(g8
g9
(lp2985
g3
(g4
g5
(dp2986
g17
S'Domain'
p2987
sg15
S'client'
p2988
sg20
S'Stream client'
p2989
stRp2990
ag3
(g4
g5
(dp2991
g17
S'Domain'
p2992
sg15
S'name'
p2993
sg20
S'Stream name'
p2994
stRp2995
ag3
(g4
g5
(dp2996
g17
S'Int'
p2997
sg15
S'seq'
p2998
sg20
S'Sequence (line) number'
p2999
stRp3000
ag3
(g4
g5
(dp3001
g17
S'Change'
p3002
sg15
S'change'
p3003
sg20
S'Versioned at change'
p3004
stRp3005
ag3
(g4
g5
(dp3006
g17
S'Domain'
p3007
sg15
S'parent'
p3008
sg20
S'Parent stream name'
p3009
stRp3010
ag3
(g4
g5
(dp3011
g17
S'StreamType'
p3012
sg15
S'type'
p3013
sg20
S'Type of stream'
p3014
stRp3015
ag3
(g4
g5
(dp3016
g17
S'StreamPathType'
p3017
sg15
S'path'
p3018
sg20
S'Stream path type'
p3019
stRp3020
ag3
(g4
g5
(dp3021
g17
S'Mapping'
p3022
sg15
S'viewFile'
p3023
sg20
S'View file (left hand side of path)'
p3024
stRp3025
ag3
(g4
g5
(dp3026
g17
S'Mapping'
p3027
sg15
S'depotFile'
p3028
sg20
S'Depot file (right hand side of path)'
p3029
stRp3030
ag3
(g4
g5
(dp3031
g17
S'Value'
p3032
sg15
S'changeMap'
p3033
sg20
S"Stream 'import' path changelist specifier. The changelist\n\t\t\tlimits in effect for a given client are displayed in a\n\t    \tread-only client spec field called 'ChangeView'"
p3034
stRp3035
atRp3036
sg15
S'TemplateWx'
p3037
stRp3038
ag3
(g4
g5
(dp3039
g639
g3
(g8
g9
(lp3040
g3
(g4
g5
(dp3041
g17
S'User'
p3042
sg15
S'user'
p3043
sg20
S'User the ticket was issued for'
p3044
stRp3045
ag3
(g4
g5
(dp3046
g17
S'String'
p3047
sg15
S'host'
p3048
sg20
S'Host the ticket was issued for'
p3049
stRp3050
ag3
(g4
g5
(dp3051
g17
S'Password'
p3052
sg15
S'ticket'
p3053
sg20
S"The 'p4 login' ticket for this user"
p3054
stRp3055
ag3
(g4
g5
(dp3056
g17
S'2FAState'
p3057
sg15
S'state'
p3058
sg20
S'The state of 2 Factor Authentication'
p3059
stRp3060
ag3
(g4
g5
(dp3061
g17
S'String'
p3062
sg15
S'token'
p3063
sg20
S'The 2 Factor Authentication token'
p3064
stRp3065
ag3
(g4
g5
(dp3066
g17
S'Date'
p3067
sg15
S'updateDate'
p3068
sg20
S'The date of the last ticket update'
p3069
stRp3070
atRp3071
sg15
S'Ticket'
p3072
stRp3073
ag3
(g4
g5
(dp3074
g639
g3
(g8
g9
(lp3075
g3
(g4
g5
(dp3076
g17
S'String'
p3077
sg15
S'fileAndRev'
p3078
sg20
S'The file name and revision'
p3079
stRp3080
ag3
(g4
g5
(dp3081
g17
S'Octet String'
p3082
sg15
S'fileContent'
p3083
sg20
S'The (encoded) file content'
p3084
stRp3085
atRp3086
sg15
S'TinyDb'
p3087
stRp3088
ag3
(g4
g5
(dp3089
g639
g3
(g8
g9
(lp3090
g3
(g4
g5
(dp3091
g17
S'Int'
p3092
sg15
S'traitLot'
p3093
sg20
S'Indicates a specific collection of traits (referred to \n\t\t    externally as "attributes".)'
p3094
stRp3095
ag3
(g4
g5
(dp3096
g17
S'String'
p3097
sg15
S'name'
p3098
sg20
S'Trait (attribute) name'
p3099
stRp3100
ag3
(g4
g5
(dp3101
g17
S'TraitType'
p3102
sg15
S'type'
p3103
sg20
S'Type of trait'
p3104
stRp3105
ag3
(g4
g5
(dp3106
g17
S'Octet String'
p3107
sg15
S'value'
p3108
sg20
S'The value'
p3109
stRp3110
atRp3111
sg15
S'Trait'
p3112
stRp3113
ag3
(g4
g5
(dp3114
g639
g3
(g8
g9
(lp3115
g3
(g4
g5
(dp3116
g17
S'Int'
p3117
sg15
S'seq'
p3118
sg20
S'Sequence number: for ordering the trigger list'
p3119
stRp3120
ag3
(g4
g5
(dp3121
g17
S'String'
p3122
sg15
S'name'
p3123
sg20
S'Name of the trigger'
p3124
stRp3125
ag3
(g4
g5
(dp3126
g17
S'MapFlag'
p3127
sg15
S'mapFlag'
p3128
sg20
S'Type of mapping: specifies whether the trigger applies \n\t\t    to the files or not.'
p3129
stRp3130
ag3
(g4
g5
(dp3131
g17
S'Mapping'
p3132
sg15
S'depotFile'
p3133
sg20
S'The files to apply the trigger to'
p3134
stRp3135
ag3
(g4
g5
(dp3136
g17
S'File'
p3137
sg15
S'triggerDepotFile'
p3138
sg20
S'Depot path to the trigger'
p3139
stRp3140
ag3
(g4
g5
(dp3141
g17
S'Trigger'
p3142
sg15
S'trigger'
p3143
sg20
S'Type of trigger'
p3144
stRp3145
ag3
(g4
g5
(dp3146
g17
S'Text'
p3147
sg15
S'action'
p3148
sg20
S'Command to execute when trigger runs'
p3149
stRp3150
atRp3151
sg15
S'Trigger'
p3152
stRp3153
ag3
(g4
g5
(dp3154
g639
g3
(g8
g9
(lp3155
g3
(g4
g5
(dp3156
g17
S'User'
p3157
sg15
S'user'
p3158
sg20
S'The username'
p3159
stRp3160
ag3
(g4
g5
(dp3161
g17
S'Text'
p3162
sg15
S'email'
p3163
sg20
S"The user's email address"
p3164
stRp3165
ag3
(g4
g5
(dp3166
g17
S'Text'
p3167
sg15
S'jobView'
p3168
sg20
S"The user's job view"
p3169
stRp3170
ag3
(g4
g5
(dp3171
g17
S'Date'
p3172
sg15
S'updateDate'
p3173
sg20
S'The date/time the user record was last updated'
p3174
stRp3175
ag3
(g4
g5
(dp3176
g17
S'Date'
p3177
sg15
S'accessDate'
p3178
sg20
S'The date/time the user record was last used'
p3179
stRp3180
ag3
(g4
g5
(dp3181
g17
S'Text'
p3182
sg15
S'fullName'
p3183
sg20
S"The user's full name"
p3184
stRp3185
ag3
(g4
g5
(dp3186
g17
S'Password'
p3187
sg15
S'password'
p3188
sg20
S'The MD5 hash of the users (encrypted) password'
p3189
stRp3190
ag3
(g4
g5
(dp3191
g17
S'Strength'
p3192
sg15
S'strength'
p3193
sg20
S"Measure of the strength of the user's password"
p3194
stRp3195
ag3
(g4
g5
(dp3196
g17
S'Password'
p3197
sg15
S'ticket'
p3198
sg20
S"'p4 login' ticket for this user"
p3199
stRp3200
ag3
(g4
g5
(dp3201
g17
S'Date'
p3202
sg15
S'endDate'
p3203
sg20
S"Date/time the user's ticket expires"
p3204
stRp3205
ag3
(g4
g5
(dp3206
g17
S'UserLevel'
p3207
sg15
S'type'
p3208
sg20
S'Type of user'
p3209
stRp3210
ag3
(g4
g5
(dp3211
g17
S'Date'
p3212
sg15
S'passDate'
p3213
sg20
S'Date password was last changed'
p3214
stRp3215
ag3
(g4
g5
(dp3216
g17
S'Date'
p3217
sg15
S'passExpire'
p3218
sg20
S'Date of password expiration'
p3219
stRp3220
ag3
(g4
g5
(dp3221
g17
S'Date'
p3222
sg15
S'attempts'
p3223
sg20
S'Failed login attempts'
p3224
stRp3225
ag3
(g4
g5
(dp3226
g17
S'UserAuthType'
p3227
sg15
S'auth'
p3228
sg20
S'Authentication method (AuthMethod) for the user'
p3229
stRp3230
atRp3231
sg15
S'User'
p3232
stRp3233
ag3
(g4
g5
(dp3234
g639
g3
(g8
g9
(lp3235
g3
(g4
g5
(dp3236
g17
S'Domain'
p3237
sg15
S'name'
p3238
sg20
S'Domain name to which this view applies'
p3239
stRp3240
ag3
(g4
g5
(dp3241
g17
S'Int'
p3242
sg15
S'seq'
p3243
sg20
S'Sequence number: for ordering multi-line views'
p3244
stRp3245
ag3
(g4
g5
(dp3246
g17
S'MapFlag'
p3247
sg15
S'mapFlag'
p3248
sg20
S'Type of mapping'
p3249
stRp3250
ag3
(g4
g5
(dp3251
g17
S'Mapping'
p3252
sg15
S'viewFile'
p3253
sg20
S"The right-hand-side of the view. For clients, this is\n\t\t    the client-side, for labels it's the generated label \n\t\t    view. For branches, it's the target side of the branch\n\t\t    view."
p3254
stRp3255
ag3
(g4
g5
(dp3256
g17
S'Mapping'
p3257
sg15
S'depotFile'
p3258
sg20
S'The left-hand-side of the view - a mapping to file(s)\n\t\t    in the depot.'
p3259
stRp3260
atRp3261
sg15
S'View'
p3262
stRp3263
ag3
(g4
g5
(dp3264
g639
g3
(g8
g9
(lp3265
g3
(g4
g5
(dp3266
g17
S'File'
p3267
sg15
S'clientFile'
p3268
sg20
S'File on the client'
p3269
stRp3270
ag3
(g4
g5
(dp3271
g17
S'File'
p3272
sg15
S'depotFile'
p3273
sg20
S'File in the depot'
p3274
stRp3275
ag3
(g4
g5
(dp3276
g17
S'Domain'
p3277
sg15
S'client'
p3278
sg20
S'The client the file is opened on'
p3279
stRp3280
ag3
(g4
g5
(dp3281
g17
S'User'
p3282
sg15
S'user'
p3283
sg20
S'The user who has the file opened'
p3284
stRp3285
ag3
(g4
g5
(dp3286
g17
S'Rev'
p3287
sg15
S'haveRev'
p3288
sg20
S"Revision presently in user's client workspace"
p3289
stRp3290
ag3
(g4
g5
(dp3291
g17
S'Rev'
p3292
sg15
S'workRev'
p3293
sg20
S'Working revision; normally identical to the haveRev'
p3294
stRp3295
ag3
(g4
g5
(dp3296
g17
S'Int'
p3297
sg15
S'isVirtual'
p3298
sg20
S'Flag: if 1, file was opened with "p4 integ -v".'
p3299
stRp3300
ag3
(g4
g5
(dp3301
g17
S'FileType'
p3302
sg15
S'type'
p3303
sg20
S'File type'
p3304
stRp3305
ag3
(g4
g5
(dp3306
g17
S'Action'
p3307
sg15
S'action'
p3308
sg20
S"What the user's doing with the file"
p3309
stRp3310
ag3
(g4
g5
(dp3311
g17
S'Change'
p3312
sg15
S'change'
p3313
sg20
S'Associated changelist, or zero for the default changelist.'
p3314
stRp3315
ag3
(g4
g5
(dp3316
g17
S'Date'
p3317
sg15
S'modTime'
p3318
sg20
S"Modification timestamp on the file in the user's workspace."
p3319
stRp3320
ag3
(g4
g5
(dp3321
g17
S'Int'
p3322
sg15
S'isLocked'
p3323
sg20
S'Flag: 0 for unlocked, 1 for locked.'
p3324
stRp3325
ag3
(g4
g5
(dp3326
g17
S'Digest'
p3327
sg15
S'digest'
p3328
sg20
S'MD5 digest of working file.'
p3329
stRp3330
ag3
(g4
g5
(dp3331
g17
S'Int64'
p3332
sg15
S'size'
p3333
sg20
S'File size'
p3334
stRp3335
ag3
(g4
g5
(dp3336
g17
S'Int'
p3337
sg15
S'traitLot'
p3338
sg20
S'Group of traits associated with file revision.'
p3339
stRp3340
ag3
(g4
g5
(dp3341
g17
S'TamperCheck'
p3342
sg15
S'tampered'
p3343
sg20
S'Flag indicating the tamper-state of the file in the\n\t\t    workspace.'
p3344
stRp3345
ag3
(g4
g5
(dp3346
g17
S'FileType'
p3347
sg15
S'clntType'
p3348
sg20
S'Type of the file in the client workspace.'
p3349
stRp3350
ag3
(g4
g5
(dp3351
g17
S'File'
p3352
sg15
S'mFile'
p3353
sg20
S'Moved filename'
p3354
stRp3355
ag3
(g4
g5
(dp3356
g17
S'Int'
p3357
sg15
S'status'
p3358
sg20
S'Working status'
p3359
stRp3360
atRp3361
sg15
S'Working'
p3362
stRp3363
ag3
(g4
g5
(dp3364
g639
g3
(g8
g9
(lp3365
g3
(g4
g5
(dp3366
g17
S'File'
p3367
sg15
S'cfile'
p3368
sg20
S'Client File'
p3369
stRp3370
ag3
(g4
g5
(dp3371
g17
S'File'
p3372
sg15
S'dfile'
p3373
sg20
S'Depot File'
p3374
stRp3375
ag3
(g4
g5
(dp3376
g17
S'Domain'
p3377
sg15
S'client'
p3378
sg20
S'Client'
p3379
stRp3380
ag3
(g4
g5
(dp3381
g17
S'User'
p3382
sg15
S'user'
p3383
sg20
S'User'
p3384
stRp3385
ag3
(g4
g5
(dp3386
g17
S'Rev'
p3387
sg15
S'hrev'
p3388
sg20
S'HaveRev'
p3389
stRp3390
ag3
(g4
g5
(dp3391
g17
S'Rev'
p3392
sg15
S'wrev'
p3393
sg20
S'WoringRev'
p3394
stRp3395
ag3
(g4
g5
(dp3396
g17
S'Int'
p3397
sg15
S'virtual'
p3398
sg20
S'Virtual'
p3399
stRp3400
ag3
(g4
g5
(dp3401
g17
S'FileType'
p3402
sg15
S'type'
p3403
sg20
S'File type'
p3404
stRp3405
ag3
(g4
g5
(dp3406
g17
S'Action'
p3407
sg15
S'action'
p3408
sg20
S'Action'
p3409
stRp3410
ag3
(g4
g5
(dp3411
g17
S'Change'
p3412
sg15
S'change'
p3413
sg20
S'Change'
p3414
stRp3415
ag3
(g4
g5
(dp3416
g17
S'Date'
p3417
sg15
S'modtime'
p3418
sg20
S'ModTime'
p3419
stRp3420
ag3
(g4
g5
(dp3421
g17
S'Int'
p3422
sg15
S'islocked'
p3423
sg20
S'IsLocked'
p3424
stRp3425
ag3
(g4
g5
(dp3426
g17
S'Digest'
p3427
sg15
S'digest'
p3428
sg20
S'MD5 digest'
p3429
stRp3430
ag3
(g4
g5
(dp3431
g17
S'Int64'
p3432
sg15
S'size'
p3433
sg20
S'File size'
p3434
stRp3435
ag3
(g4
g5
(dp3436
g17
S'Int'
p3437
sg15
S'traitlot'
p3438
sg20
S'TraitLot'
p3439
stRp3440
ag3
(g4
g5
(dp3441
g17
S'TamperCheck'
p3442
sg15
S'tampered'
p3443
sg20
S'Tampered'
p3444
stRp3445
ag3
(g4
g5
(dp3446
g17
S'FileType'
p3447
sg15
S'ctype'
p3448
sg20
S'ClientType'
p3449
stRp3450
ag3
(g4
g5
(dp3451
g17
S'File'
p3452
sg15
S'mfile'
p3453
sg20
S'Moved filename'
p3454
stRp3455
ag3
(g4
g5
(dp3456
g17
S'Int'
p3457
sg15
S'status'
p3458
sg20
S'Working status'
p3459
stRp3460
ag3
(g4
g5
(dp3461
g17
S'SHA1'
p3462
sg15
S'sha'
p3463
sg20
S'Blob SHA'
p3464
stRp3465
ag3
(g4
g5
(dp3466
g17
S'String'
p3467
sg15
S'repo'
p3468
sg20
S'Repository name'
p3469
stRp3470
atRp3471
sg15
S'WorkingG'
p3472
stRp3473
atRp3474
stRp3475
sS'upgrades'
p3476
g3
(g4
g5
(dp3477
S'upgrade'
p3478
g3
(g8
g9
(lp3479
g3
(g4
g5
(dp3480
S'release'
p3481
S'2001.1'
p3482
sS'index'
p3483
S'1'
sg20
S'Split db.integ into db.integed and db.resolve'
p3484
stRp3485
ag3
(g4
g5
(dp3486
g3481
S'2001.1'
p3487
sg3483
S'2'
sg20
S'Split db.have into db.have and db.label'
p3488
stRp3489
ag3
(g4
g5
(dp3490
g3481
S'2002.1'
p3491
sg3483
S'3'
sg20
S'Split db.change into db.change and db.changex'
p3492
stRp3493
ag3
(g4
g5
(dp3494
g3481
S'2002.2'
p3495
sg3483
S'4'
sg20
S'Upgrade tempobj filetype in db.rev'
p3496
stRp3497
ag3
(g4
g5
(dp3498
g3481
S'2002.2'
p3499
sg3483
S'5'
sg20
S'Upgrade tempobj filetype in db.working'
p3500
stRp3501
ag3
(g4
g5
(dp3502
g3481
S'2003.1'
p3503
sg3483
S'6'
sg20
S'JnlInitialize default depot'
p3504
stRp3505
ag3
(g4
g5
(dp3506
g3481
S'2003.2'
p3507
sg3483
S'7'
sg20
S'Upgrade db.user'
p3508
stRp3509
ag3
(g4
g5
(dp3510
g3481
S'2005.1'
p3511
sg3483
S'8'
sg20
S'Build db.revhx (headrev) table'
p3512
stRp3513
ag3
(g4
g5
(dp3514
g3481
S'2005.1'
p3515
sg3483
S'9'
sg20
S'Rebuild db.locks from db.working'
p3516
stRp3517
ag3
(g4
g5
(dp3518
g3481
S'2005.1'
p3519
sg3483
S'10'
p3520
sg260
S'Removed in 2006.2'
p3521
sg20
S'Build lazy-copy index (db.archive)'
p3522
stRp3523
ag3
(g4
g5
(dp3524
g3481
S'2005.2'
p3525
sg3483
S'11'
p3526
sg20
S'Build db.revdx (delrev) table'
p3527
stRp3528
ag3
(g4
g5
(dp3529
g3481
S'2005.2'
p3530
sg3483
S'12'
p3531
sg260
S'Moved to 16 in 2007.3'
p3532
sg20
S'Build haveMap from db.have/db.working'
p3533
stRp3534
ag3
(g4
g5
(dp3535
g3481
S'2005.2'
p3536
sg3483
S'13'
p3537
sg20
S'Move spec depot entries into db.revsx'
p3538
stRp3539
ag3
(g4
g5
(dp3540
g3481
S'2006.2'
p3541
sg3483
S'14'
p3542
sg260
S'Moved to 17 in 2007.3'
p3543
sg20
S'Build db.archmap (lazy-copy map) table'
p3544
stRp3545
ag3
(g4
g5
(dp3546
g3481
S'2006.2'
p3547
sg3483
S'15'
p3548
sg260
S'Moved to 18 in 2007.3'
p3549
sg20
S'Remove (obsolete) db.archive table'
p3550
stRp3551
ag3
(g4
g5
(dp3552
g3481
S'2007.3'
p3553
sg3483
S'16'
p3554
sg260
S'Rewritten in 2007.3'
p3555
sg20
S'Build/Rebuild haveMap from db.have/db.working'
p3556
stRp3557
ag3
(g4
g5
(dp3558
g3481
S'2007.3'
p3559
sg3483
S'17'
p3560
sg260
S'Rewritten in 2007.3'
p3561
sg20
S'Build/Rebuild db.archmap (lazy-copy map) table'
p3562
stRp3563
ag3
(g4
g5
(dp3564
g3481
S'2007.3'
p3565
sg3483
S'18'
p3566
sg260
S'Moved from 15 in 2007.3'
p3567
sg20
S'Remove (obsolete) db.archive table'
p3568
stRp3569
ag3
(g4
g5
(dp3570
g3481
S'2008.1'
p3571
sg3483
S'19'
p3572
sg20
S'Build db.change common path'
p3573
stRp3574
ag3
(g4
g5
(dp3575
g3481
S'2009.2'
p3576
sg3483
S'20'
p3577
sg20
S'Move db.boddate/db.ixdate into db.bodtext/db.ixtext'
p3578
stRp3579
ag3
(g4
g5
(dp3580
g3481
S'2009.2'
p3581
sg3483
S'21'
p3582
sg20
S'Remove db.boddate/db.ixdate'
p3583
stRp3584
ag3
(g4
g5
(dp3585
g3481
S'2010.2'
p3586
sg3483
S'22'
p3587
sg20
S'Move system counters into db.config'
p3588
stRp3589
ag3
(g4
g5
(dp3590
g3481
S'2011.1'
p3591
sg3483
S'23'
p3592
sg20
S'Upgrade tiny.db'
p3593
stRp3594
ag3
(g4
g5
(dp3595
g3481
S'2015.2'
p3596
sg3483
S'24'
p3597
sg20
S'Move LDAP specs into db.ldap'
p3598
stRp3599
ag3
(g4
g5
(dp3600
g3481
S'2016.1'
p3601
sg3483
S'25'
p3602
sg20
S'Create db.templatesx and db.templatewx'
p3603
stRp3604
ag3
(g4
g5
(dp3605
g3481
S'2016.2'
p3606
sg3483
S'26'
p3607
sg20
S'JnlInitialize graph depot'
p3608
stRp3609
ag3
(g4
g5
(dp3610
g3481
S'2017.1'
p3611
sg3483
S'27'
p3612
sg20
S'Rename repo specifications, build owner graph permissions, remove db.repoview'
p3613
stRp3614
ag3
(g4
g5
(dp3615
g3481
S'2017.2'
p3616
sg3483
S'28'
p3617
sg20
S'No upgrades - upgrade counter value increment only'
p3618
stRp3619
ag3
(g4
g5
(dp3620
g3481
S'2018.1'
p3621
sg3483
S'29'
p3622
sg20
S'Remove existing db.graphindex'
p3623
stRp3624
atRp3625
stRp3626
sS'commit_upgrades'
p3627
g3
(g4
g5
(dp3628
S'commit_upgrade'
p3629
g3
(g8
g9
(lp3630
g3
(g4
g5
(dp3631
g3481
S'2013.2'
p3632
sg3483
S'commit-server'
p3633
sg260
S'Generate exclusive lock records in db.excl based on db.working data.'
p3634
sg20
S'Generate exclusive locks'
p3635
stRp3636
ag3
(g4
g5
(dp3637
g3481
S'2014.1'
p3638
sg3483
S'commit-server'
p3639
sg260
S'Promote existing shelves by updating changeStatus in db.change and db.changex.'
p3640
sg20
S'Promote Shelves'
p3641
stRp3642
atRp3643
stRp3644
sS'datatypes'
p3645
g3
(g4
g5
(dp3646
S'datatype'
p3647
g3
(g8
g9
(lp3648
g3
(g4
g5
(dp3649
S'values'
p3650
g3
(g8
g9
(lp3651
g3
(g4
g5
(dp3652
S'mask'
p3653
S'Scheme Flags'
p3654
sS'value'
p3655
S'0x0001'
p3656
sg20
S'otp-generated; one-time password generated'
p3657
stRp3658
ag3
(g4
g5
(dp3659
g3653
S'Scheme Flags'
p3660
sg3655
S'0x0002'
p3661
sg20
S'otp-requested; one-time password requested'
p3662
stRp3663
ag3
(g4
g5
(dp3664
g3653
S'Scheme Flags'
p3665
sg3655
S'0x0003'
p3666
sg20
S'challenge; challenge/response'
p3667
stRp3668
ag3
(g4
g5
(dp3669
g3653
S'Scheme Flags'
p3670
sg3655
S'0x0004'
p3671
sg20
S'external; 3rd-party prompting'
p3672
stRp3673
ag3
(g4
g5
(dp3674
g3653
S'Status Flags'
p3675
sg3655
S'0x0100'
p3676
sg20
S'authenticated; host is authenticated'
p3677
stRp3678
ag3
(g4
g5
(dp3679
g3653
S'Status Flags'
p3680
sg3655
S'0x0200'
p3681
sg20
S'persisted; 2FA persists for this host'
p3682
stRp3683
ag3
(g4
g5
(dp3684
g3653
S'Status Flags'
p3685
sg3655
S'0x0400'
p3686
sg20
S'forced; superuser skipped the checks'
p3687
stRp3688
ag3
(g4
g5
(dp3689
g3653
S'Status Flags'
p3690
sg3655
S'0x0800'
p3691
sg20
S'skipped; 2FA was not required'
p3692
stRp3693
ag3
(g4
g5
(dp3694
g3653
S'Status Flags'
p3695
sg3655
S'0x1000'
p3696
sg20
S'waiting; waiting on 2FA service'
p3697
stRp3698
ag3
(g4
g5
(dp3699
g3653
S'Status Flags'
p3700
sg3655
S'0x2000'
p3701
sg20
S'token-requested; OTP requested from 2FA service'
p3702
stRp3703
ag3
(g4
g5
(dp3704
g3653
S'Status Flags'
p3705
sg3655
S'0x4000'
p3706
sg20
S'required; 2FA required'
p3707
stRp3708
ag3
(g4
g5
(dp3709
g3653
S'Status Flags'
p3710
sg3655
S'0x8000'
p3711
sg20
S'rejected; external 2FA was rejected'
p3712
stRp3713
atRp3714
sg15
S'2FAState'
p3715
sg3653
g3
(g8
g9
(lp3716
g3
(g4
g5
(dp3717
g15
S'Scheme Flags'
p3718
sg3655
S'0xFF'
p3719
sg20
S'Bits used to store second factor authentication scheme'
p3720
stRp3721
ag3
(g4
g5
(dp3722
g15
S'Status Flags'
p3723
sg3655
S'None'
p3724
sg20
S'Bits used to store second factor authentication status'
p3725
stRp3726
atRp3727
sS'summary'
p3728
S'Second Factor Authentication State'
p3729
sg17
S'bitmask'
p3730
sg20
S'Second factor authentication scheme and status'
p3731
stRp3732
ag3
(g4
g5
(dp3733
g17
S'flag'
p3734
sg3728
S'Type of action'
p3735
sg3650
g3
(g8
g9
(lp3736
g3
(g4
g5
(dp3737
g3655
S'0'
sg20
S'add; user adds a file'
p3738
stRp3739
ag3
(g4
g5
(dp3740
g3655
S'1'
sg20
S'edit; user edits a file'
p3741
stRp3742
ag3
(g4
g5
(dp3743
g3655
S'2'
sg20
S'delete; user deletes a file'
p3744
stRp3745
ag3
(g4
g5
(dp3746
g3655
S'3'
sg20
S'branch; add via integration'
p3747
stRp3748
ag3
(g4
g5
(dp3749
g3655
S'4'
sg20
S'integ; edit via integration'
p3750
stRp3751
ag3
(g4
g5
(dp3752
g3655
S'5'
sg20
S'import; add via remote depot'
p3753
stRp3754
ag3
(g4
g5
(dp3755
g3655
S'6'
sg20
S'purge; purged revision, no longer available'
p3756
stRp3757
ag3
(g4
g5
(dp3758
g3655
S'7'
sg20
S'movefrom; move from another filename'
p3759
stRp3760
ag3
(g4
g5
(dp3761
g3655
S'8'
sg20
S'moveto; move to another filename'
p3762
stRp3763
ag3
(g4
g5
(dp3764
g3655
S'9'
sg20
S'archive; stored in archive depot'
p3765
stRp3766
atRp3767
sg15
S'Action'
p3768
sg20
S'Revisions are produced by user actions. The Action\n\t\ttype defines the available actions and their internal values.'
p3769
stRp3770
ag3
(g4
g5
(dp3771
g3728
S'A changelist number'
p3772
sg17
S'integer'
p3773
sg15
S'Change'
p3774
sg20
S'The number of a changelist. The number 0 represents the\n\t\tdefault pending changelist.'
p3775
stRp3776
ag3
(g4
g5
(dp3777
g17
S'flag'
p3778
sg3728
S'The status of a change'
p3779
sg3650
g3
(g8
g9
(lp3780
g3
(g4
g5
(dp3781
g3655
S'0'
sg20
S'pending'
p3782
stRp3783
ag3
(g4
g5
(dp3784
g3655
S'1'
sg20
S'submitted'
p3785
stRp3786
ag3
(g4
g5
(dp3787
g3655
S'2'
sg20
S'shelved'
p3788
stRp3789
ag3
(g4
g5
(dp3790
g3655
S'4'
sg20
S'restricted, pending'
p3791
stRp3792
ag3
(g4
g5
(dp3793
g3655
S'5'
sg20
S'restricted, submitted'
p3794
stRp3795
ag3
(g4
g5
(dp3796
g3655
S'6'
sg20
S'restricted, shelved'
p3797
stRp3798
ag3
(g4
g5
(dp3799
g3655
S'18'
p3800
sg20
S'promoted shelf, public'
p3801
stRp3802
ag3
(g4
g5
(dp3803
g3655
S'22'
p3804
sg20
S'promoted shelf, restricted'
p3805
stRp3806
ag3
(g4
g5
(dp3807
g3655
S'34'
p3808
sg20
S'unsubmitted shelf, public'
p3809
stRp3810
ag3
(g4
g5
(dp3811
g3655
S'38'
p3812
sg20
S'unsubmitted shelf, restricted'
p3813
stRp3814
atRp3815
sg15
S'ChangeStatus'
p3816
sg20
S'A integer value representing the status of a change'
p3817
stRp3818
ag3
(g4
g5
(dp3819
g3728
S'A counter name'
p3820
sg17
S'string'
p3821
sg15
S'Counter'
p3822
sg20
S'A string representing the counter name. Counter names must \n\t\tcontain no spaces, contain no slashes, and be identifiers \n\t\t(cannot begin with a dash and cannot be all-numeric)'
p3823
stRp3824
ag3
(g4
g5
(dp3825
g3728
S'A unix-style date and time'
p3826
sg17
S'integer'
p3827
sg15
S'Date'
p3828
sg20
S'A date and time represented as the number of seconds since \n\t\tthe Epoch: 01 January 1970 00:00:00 UTC. This is the same \n\t\tconvention as that used on Unix platforms.'
p3829
stRp3830
ag3
(g4
g5
(dp3831
g17
S'flag'
p3832
sg3728
S'Type of Depot'
p3833
sg3650
g3
(g8
g9
(lp3834
g3
(g4
g5
(dp3835
g3655
S'0'
sg20
S'local depot'
p3836
stRp3837
ag3
(g4
g5
(dp3838
g3655
S'1'
sg20
S'remote depot'
p3839
stRp3840
ag3
(g4
g5
(dp3841
g3655
S'2'
sg20
S'spec depot'
p3842
stRp3843
ag3
(g4
g5
(dp3844
g3655
S'3'
sg20
S'stream depot'
p3845
stRp3846
ag3
(g4
g5
(dp3847
g3655
S'4'
sg20
S'archive depot'
p3848
stRp3849
ag3
(g4
g5
(dp3850
g3655
S'5'
sg20
S'unload depot'
p3851
stRp3852
ag3
(g4
g5
(dp3853
g3655
S'6'
sg20
S'tangent depot'
p3854
stRp3855
ag3
(g4
g5
(dp3856
g3655
S'7'
sg20
S'graph depot'
p3857
stRp3858
atRp3859
sg15
S'DepotType'
p3860
sg20
S'The type of a given depot'
p3861
stRp3862
ag3
(g4
g5
(dp3863
g3728
S'A short string value'
p3864
sg20
S'The first 31 characters of a Text string'
p3865
sg17
S'string'
p3866
sg15
S'DescShort'
p3867
sg224
S'Text'
p3868
stRp3869
ag3
(g4
g5
(dp3870
g3728
S'An MD5 digest'
p3871
sg17
S'string'
p3872
sg15
S'Digest'
p3873
sg20
S'A string containing an MD5 digest.'
p3874
stRp3875
ag3
(g4
g5
(dp3876
g3728
S'A domain name'
p3877
sg17
S'string'
p3878
sg15
S'Domain'
p3879
sg20
S'A string representing the name of a depot, label, client,\n\t\tbranch, typemap, or stream.'
p3880
stRp3881
ag3
(g4
g5
(dp3882
g3728
S'A string with optional wildcards'
p3883
sg17
S'string'
p3884
sg15
S'DomainWild'
p3885
sg20
S'A string that may contain wildcards - usually an IP address\n\t\tin the protections table.'
p3886
stRp3887
ag3
(g4
g5
(dp3888
g3650
g3
(g8
g9
(lp3889
g3
(g4
g5
(dp3890
g3653
S'Domain Flags'
p3891
sg3655
S'0x0001'
p3892
sg20
S'modtime'
p3893
stRp3894
ag3
(g4
g5
(dp3895
g3653
S'Domain Flags'
p3896
sg3655
S'0x0002'
p3897
sg20
S'clobber'
p3898
stRp3899
ag3
(g4
g5
(dp3900
g3653
S'Domain Flags'
p3901
sg3655
S'0x0004'
p3902
sg20
S'allwrite'
p3903
stRp3904
ag3
(g4
g5
(dp3905
g3653
S'Domain Flags'
p3906
sg3655
S'0x0008'
p3907
sg20
S'locked'
p3908
stRp3909
ag3
(g4
g5
(dp3910
g3653
S'Domain Flags'
p3911
sg3655
S'0x0020'
p3912
sg20
S'compress'
p3913
stRp3914
ag3
(g4
g5
(dp3915
g3653
S'Domain Flags'
p3916
sg3655
S'0x0040'
p3917
sg20
S'rmdir'
p3918
stRp3919
ag3
(g4
g5
(dp3920
g3653
S'Domain Flags'
p3921
sg3655
S'0x1000'
p3922
sg20
S'indirect (obsolete since 2004.2)'
p3923
stRp3924
ag3
(g4
g5
(dp3925
g3653
S'Domain Flags'
p3926
sg3655
S'0x8000'
p3927
sg20
S'autoreload'
p3928
stRp3929
ag3
(g4
g5
(dp3930
g3653
S'Domain ClientType'
p3931
sg3655
S'0x00000'
p3932
sg20
S'client is writeable'
p3933
stRp3934
ag3
(g4
g5
(dp3935
g3653
S'Domain ClientType'
p3936
sg3655
S'0x10000'
p3937
sg20
S'client is readonly'
p3938
stRp3939
ag3
(g4
g5
(dp3940
g3653
S'Domain ClientType'
p3941
sg3655
S'0x20000'
p3942
sg20
S'client is nobackup'
p3943
stRp3944
ag3
(g4
g5
(dp3945
g3653
S'Domain ClientType'
p3946
sg3655
S'0x110000'
p3947
sg20
S'client is partitioned'
p3948
stRp3949
ag3
(g4
g5
(dp3950
g3653
S'Domain LineEnd'
p3951
sg3655
S'0x0000'
p3952
sg20
S'local'
p3953
stRp3954
ag3
(g4
g5
(dp3955
g3653
S'Domain LineEnd'
p3956
sg3655
S'0x0010'
p3957
sg20
S'unix (LF)'
p3958
stRp3959
ag3
(g4
g5
(dp3960
g3653
S'Domain LineEnd'
p3961
sg3655
S'0x0200'
p3962
sg20
S'mac (CR)'
p3963
stRp3964
ag3
(g4
g5
(dp3965
g3653
S'Domain LineEnd'
p3966
sg3655
S'0x0300'
p3967
sg20
S'win (CRLF)'
p3968
stRp3969
ag3
(g4
g5
(dp3970
g3653
S'Domain LineEnd'
p3971
sg3655
S'0x0400'
p3972
sg20
S'share (LF/CRLF)'
p3973
stRp3974
ag3
(g4
g5
(dp3975
g3653
S'Domain SubmitMask'
p3976
sg3655
S'0x1000'
p3977
sg20
S'Revert unchanged files'
p3978
stRp3979
ag3
(g4
g5
(dp3980
g3653
S'Domain SubmitMask'
p3981
sg3655
S'0x2000'
p3982
sg20
S'Leave unchanged files'
p3983
stRp3984
ag3
(g4
g5
(dp3985
g3653
S'Domain SubmitMask'
p3986
sg3655
S'0x4000'
p3987
sg20
S'Submit, and re-open unchanged files'
p3988
stRp3989
ag3
(g4
g5
(dp3990
g3653
S'Domain StreamMask'
p3991
sg3655
S'0x0001'
p3992
sg20
S'allsubmit or ownersubmit'
p3993
stRp3994
ag3
(g4
g5
(dp3995
g3653
S'Domain StreamMask'
p3996
sg3655
S'0x0002'
p3997
sg20
S'locked or unlocked'
p3998
stRp3999
ag3
(g4
g5
(dp4000
g3653
S'Domain StreamMask'
p4001
sg3655
S'0x0004'
p4002
sg20
S'change flows to parent'
p4003
stRp4004
ag3
(g4
g5
(dp4005
g3653
S'Domain StreamMask'
p4006
sg3655
S'0x0008'
p4007
sg20
S'change flows from parent'
p4008
stRp4009
ag3
(g4
g5
(dp4010
g3653
S'Domain StreamMask'
p4011
sg3655
S'0x0010'
p4012
sg20
S'mergeany or mergedown'
p4013
stRp4014
atRp4015
sg15
S'DomainOpts'
p4016
sg3653
g3
(g8
g9
(lp4017
g3
(g4
g5
(dp4018
g15
S'Domain Flags'
p4019
sg3655
S'0x10EF'
p4020
sg20
S'Bits used to store client, label, and branch options'
p4021
stRp4022
ag3
(g4
g5
(dp4023
g15
S'Domain ClientType'
p4024
sg3655
S'0x190000'
p4025
sg20
S'Bits used to store client type and backup status'
p4026
stRp4027
ag3
(g4
g5
(dp4028
g15
S'Domain LineEnd'
p4029
sg3655
S'0x0710'
p4030
sg20
S'Bits used to store client line termination settings'
p4031
stRp4032
ag3
(g4
g5
(dp4033
g15
S'Domain SubmitMask'
p4034
sg3655
S'0x7000'
p4035
sg20
S'Bits used to store client submit options'
p4036
stRp4037
ag3
(g4
g5
(dp4038
g15
S'Domain StreamMask'
p4039
sg3655
S'0x000C'
p4040
sg20
S'Bits used to store stream options'
p4041
stRp4042
atRp4043
sg3728
S'Options for domains'
p4044
sg17
S'bitmask'
p4045
sg20
S'A integer value representing the options for a domain'
p4046
stRp4047
ag3
(g4
g5
(dp4048
g17
S'flag'
p4049
sg3728
S'A domain type'
p4050
sg3650
g3
(g8
g9
(lp4051
g3
(g4
g5
(dp4052
g3655
S"67 (ASCII 'C')"
p4053
sg20
S'unloaded client'
p4054
stRp4055
ag3
(g4
g5
(dp4056
g3655
S"76 (ASCII 'L')"
p4057
sg20
S'unloaded label'
p4058
stRp4059
ag3
(g4
g5
(dp4060
g3655
S"83 (ASCII 'S')"
p4061
sg20
S'unloaded task stream'
p4062
stRp4063
ag3
(g4
g5
(dp4064
g3655
S"98 (ASCII 'b')"
p4065
sg20
S'branch'
p4066
stRp4067
ag3
(g4
g5
(dp4068
g3655
S"99 (ASCII 'c')"
p4069
sg20
S'client'
p4070
stRp4071
ag3
(g4
g5
(dp4072
g3655
S"100 (ASCII 'd')"
p4073
sg20
S'depot'
p4074
stRp4075
ag3
(g4
g5
(dp4076
g3655
S"108 (ASCII 'l')"
p4077
sg20
S'label'
p4078
stRp4079
ag3
(g4
g5
(dp4080
g3655
S"115 (ASCII 's')"
p4081
sg20
S'stream'
p4082
stRp4083
ag3
(g4
g5
(dp4084
g3655
S"116 (ASCII 't')"
p4085
sg20
S'typemap'
p4086
stRp4087
atRp4088
sg15
S'DomainType'
p4089
sg20
S'A integer value representing the type of a domain'
p4090
stRp4091
ag3
(g4
g5
(dp4092
g3728
S'A file name'
p4093
sg20
S'A string representing the filename'
p4094
sg17
S'string'
p4095
sg15
S'File'
p4096
sg224
S'FileType'
p4097
stRp4098
ag3
(g4
g5
(dp4099
g3728
S'A file size'
p4100
sg17
S'integer'
p4101
sg15
S'FileSize'
p4102
sg20
S'A 64-bit integer used to store file sizes. The value -1 is\n\t\tused to represent unknown file sizes.'
p4103
stRp4104
ag3
(g4
g5
(dp4105
g3650
g3
(g8
g9
(lp4106
g3
(g4
g5
(dp4107
g3653
S'Storage Type'
p4108
sg3655
S'0x0000'
p4109
sg20
S'RCS'
p4110
stRp4111
ag3
(g4
g5
(dp4112
g3653
S'Storage Type'
p4113
sg3655
S'0x0001'
p4114
sg20
S'Binary'
p4115
stRp4116
ag3
(g4
g5
(dp4117
g3653
S'Storage Type'
p4118
sg3655
S'0x0002'
p4119
sg20
S'Tiny'
p4120
stRp4121
ag3
(g4
g5
(dp4122
g3653
S'Storage Type'
p4123
sg3655
S'0x0003'
p4124
sg20
S'Compressed'
p4125
stRp4126
ag3
(g4
g5
(dp4127
g3653
S'Storage Type'
p4128
sg3655
S'0x0004'
p4129
sg20
S'tempobj (deprecated since 2002.1)'
p4130
stRp4131
ag3
(g4
g5
(dp4132
g3653
S'Storage Type'
p4133
sg3655
S'0x0005'
p4134
sg20
S'Detect type. Used internally when no type is\n\t\t    given by the user.'
p4135
stRp4136
ag3
(g4
g5
(dp4137
g3653
S'Storage Type'
p4138
sg3655
S'0x0006'
p4139
sg20
S'Compressed tempobj (deprecated since 2002.1)'
p4140
stRp4141
ag3
(g4
g5
(dp4142
g3653
S'Storage Type'
p4143
sg3655
S'0x0007'
p4144
sg20
S'Binary access to compressed data. Used internally.'
p4145
stRp4146
ag3
(g4
g5
(dp4147
g3653
S'Storage Type'
p4148
sg3655
S'0x0008'
p4149
sg20
S'Stored externally via librarian trigger'
p4150
stRp4151
ag3
(g4
g5
(dp4152
g3653
S'Storage Mods'
p4153
sg3655
S'0x0010'
p4154
sg20
S'99.2-style keyword expansion/contraction'
p4155
stRp4156
ag3
(g4
g5
(dp4157
g3653
S'Storage Mods'
p4158
sg3655
S'0x0020'
p4159
sg20
S'2000.1-style keyword expansion/contraction'
p4160
stRp4161
ag3
(g4
g5
(dp4162
g3653
S'Storage Mods'
p4163
sg3655
S'0x0030'
p4164
sg20
S'Any type of keyword expansion'
p4165
stRp4166
ag3
(g4
g5
(dp4167
g3653
S'Storage Mods'
p4168
sg3655
S'0x0040'
p4169
sg20
S'Exclusive open'
p4170
stRp4171
ag3
(g4
g5
(dp4172
g3653
S'Storage Mods'
p4173
sg3655
S'0x0080'
p4174
sg20
S'New tempobj (+S modifier)'
p4175
stRp4176
ag3
(g4
g5
(dp4177
g3653
S'Tempobj revisions'
p4178
sg3655
S'0x0000'
p4179
sg20
S'+S1'
p4180
stRp4181
ag3
(g4
g5
(dp4182
g3653
S'Tempobj revisions'
p4183
sg3655
S'0x0100'
p4184
sg20
S'+S2'
p4185
stRp4186
ag3
(g4
g5
(dp4187
g3653
S'Tempobj revisions'
p4188
sg3655
S'0x0200'
p4189
sg20
S'+S3'
p4190
stRp4191
ag3
(g4
g5
(dp4192
g3653
S'Tempobj revisions'
p4193
sg3655
S'0x0300'
p4194
sg20
S'+S4'
p4195
stRp4196
ag3
(g4
g5
(dp4197
g3653
S'Tempobj revisions'
p4198
sg3655
S'0x0400'
p4199
sg20
S'+S5'
p4200
stRp4201
ag3
(g4
g5
(dp4202
g3653
S'Tempobj revisions'
p4203
sg3655
S'0x0500'
p4204
sg20
S'+S6'
p4205
stRp4206
ag3
(g4
g5
(dp4207
g3653
S'Tempobj revisions'
p4208
sg3655
S'0x0600'
p4209
sg20
S'+S7'
p4210
stRp4211
ag3
(g4
g5
(dp4212
g3653
S'Tempobj revisions'
p4213
sg3655
S'0x0700'
p4214
sg20
S'+S8'
p4215
stRp4216
ag3
(g4
g5
(dp4217
g3653
S'Tempobj revisions'
p4218
sg3655
S'0x0800'
p4219
sg20
S'+S9'
p4220
stRp4221
ag3
(g4
g5
(dp4222
g3653
S'Tempobj revisions'
p4223
sg3655
S'0x0900'
p4224
sg20
S'+S10'
p4225
stRp4226
ag3
(g4
g5
(dp4227
g3653
S'Tempobj revisions'
p4228
sg3655
S'0x0A00'
p4229
sg20
S'+S16'
p4230
stRp4231
ag3
(g4
g5
(dp4232
g3653
S'Tempobj revisions'
p4233
sg3655
S'0x0B00'
p4234
sg20
S'+S32'
p4235
stRp4236
ag3
(g4
g5
(dp4237
g3653
S'Tempobj revisions'
p4238
sg3655
S'0x0C00'
p4239
sg20
S'+S64'
p4240
stRp4241
ag3
(g4
g5
(dp4242
g3653
S'Tempobj revisions'
p4243
sg3655
S'0x0D00'
p4244
sg20
S'+S128'
p4245
stRp4246
ag3
(g4
g5
(dp4247
g3653
S'Tempobj revisions'
p4248
sg3655
S'0x0E00'
p4249
sg20
S'+S256'
p4250
stRp4251
ag3
(g4
g5
(dp4252
g3653
S'Tempobj revisions'
p4253
sg3655
S'0x0F00'
p4254
sg20
S'+S512'
p4255
stRp4256
ag3
(g4
g5
(dp4257
g3653
S'Client Type'
p4258
sg3655
S'0x0000000'
p4259
sg20
S'text'
p4260
stRp4261
ag3
(g4
g5
(dp4262
g3653
S'Client Type'
p4263
sg3655
S'0x0010000'
p4264
sg20
S'binary'
p4265
stRp4266
ag3
(g4
g5
(dp4267
g3653
S'Client Type'
p4268
sg3655
S'0x0020000'
p4269
sg20
S'executable bit set'
p4270
stRp4271
ag3
(g4
g5
(dp4272
g3653
S'Client Type'
p4273
sg3655
S'0x0040000'
p4274
sg20
S'symlink'
p4275
stRp4276
ag3
(g4
g5
(dp4277
g3653
S'Client Type'
p4278
sg3655
S'0x0050000'
p4279
sg20
S'resource fork'
p4280
stRp4281
ag3
(g4
g5
(dp4282
g3653
S'Client Type'
p4283
sg3655
S'0x0080000'
p4284
sg20
S'unicode'
p4285
stRp4286
ag3
(g4
g5
(dp4287
g3653
S'Client Type'
p4288
sg3655
S'0x0090000'
p4289
sg20
S'raw text (nocrlf - 99.1)'
p4290
stRp4291
ag3
(g4
g5
(dp4292
g3653
S'Client Type'
p4293
sg3655
S'0x00C0000'
p4294
sg20
S'apple data + resource file (since 2000.2)'
p4295
stRp4296
ag3
(g4
g5
(dp4297
g3653
S'Client Type'
p4298
sg3655
S'0x00D0000'
p4299
sg20
S'apple data + resource file (99.2)'
p4300
stRp4301
ag3
(g4
g5
(dp4302
g3653
S'Client Type'
p4303
sg3655
S'0x1000000'
p4304
sg20
S'Used to support filetype detection'
p4305
stRp4306
ag3
(g4
g5
(dp4307
g3653
S'Client Mods'
p4308
sg3655
S'0x0100000'
p4309
sg20
S'writable'
p4310
stRp4311
ag3
(g4
g5
(dp4312
g3653
S'Client Mods'
p4313
sg3655
S'0x0200000'
p4314
sg20
S'modtime'
p4315
stRp4316
ag3
(g4
g5
(dp4317
g3653
S'Client Mods'
p4318
sg3655
S'0x0400000'
p4319
sg20
S'uncompress on client'
p4320
stRp4321
atRp4322
sg15
S'FileType'
p4323
sg3653
g3
(g8
g9
(lp4324
g3
(g4
g5
(dp4325
g15
S'Storage Type'
p4326
sg3655
S'0x000F'
p4327
sg20
S"Bits used to store the server's storage type"
p4328
stRp4329
ag3
(g4
g5
(dp4330
g15
S'Storage Mods'
p4331
sg3655
S'0x00F0'
p4332
sg20
S"Bits used to store the modifiers to the server's storage \n\t\t    type"
p4333
stRp4334
ag3
(g4
g5
(dp4335
g15
S'Tempobj revisions'
p4336
sg3655
S'0x0F00'
p4337
sg20
S'Bits used to store the number of revisions to be stored\n\t\t    for +Sn files.'
p4338
stRp4339
ag3
(g4
g5
(dp4340
g15
S'Client Type'
p4341
sg3655
S'0x10D0000'
p4342
sg20
S"Bits used to store the file type from the client's point\n\t\t    of view."
p4343
stRp4344
ag3
(g4
g5
(dp4345
g15
S'Client Mods'
p4346
sg3655
S'0x720000'
p4347
sg20
S'Bits used to store the modifiers applied to the file\n\t\t    on the client.'
p4348
stRp4349
atRp4350
sg3728
S'Type of file'
p4351
sg17
S'bitmask'
p4352
sg20
S'The FileType is a bitmask specifying the type and modifiers\n\t\tof a revision from both the client and server points of view.\n\t\tThe first 16 bits are used to store the storage type and \n\t\tmodifiers, the next 16 bits are used to store the client \n\t\taccess method and modifiers.'
p4353
stRp4354
ag3
(g4
g5
(dp4355
g3728
S'Status of a fixed job'
p4356
sg17
S'string'
p4357
sg15
S'FixStatus'
p4358
sg20
S'This type is a wrapper around the \'Text\' type that handles\n\t\tthe pre-2000.1 "closed" default value.'
p4359
stRp4360
ag3
(g4
g5
(dp4361
g17
S'flag'
p4362
sg3728
S'Type of Graph Permission'
p4363
sg3650
g3
(g8
g9
(lp4364
g3
(g4
g5
(dp4365
g3655
S'0'
sg20
S'none'
p4366
stRp4367
ag3
(g4
g5
(dp4368
g3655
S'1'
sg20
S'read'
p4369
stRp4370
ag3
(g4
g5
(dp4371
g3655
S'2'
sg20
S'write-ref'
p4372
stRp4373
ag3
(g4
g5
(dp4374
g3655
S'4'
sg20
S'write-all'
p4375
stRp4376
ag3
(g4
g5
(dp4377
g3655
S'8'
sg20
S'create-repo'
p4378
stRp4379
ag3
(g4
g5
(dp4380
g3655
S'16'
p4381
sg20
S'delete-repo'
p4382
stRp4383
ag3
(g4
g5
(dp4384
g3655
S'32'
p4385
sg20
S'create-ref'
p4386
stRp4387
ag3
(g4
g5
(dp4388
g3655
S'64'
p4389
sg20
S'delete-ref'
p4390
stRp4391
ag3
(g4
g5
(dp4392
g3655
S'128'
p4393
sg20
S'force-push'
p4394
stRp4395
ag3
(g4
g5
(dp4396
g3655
S'256'
p4397
sg20
S'admin'
p4398
stRp4399
ag3
(g4
g5
(dp4400
g3655
S'4096'
p4401
sg20
S'restricted-ref'
p4402
stRp4403
atRp4404
sg15
S'GraphPermType'
p4405
sg20
S'The type of a graph depot permission'
p4406
stRp4407
ag3
(g4
g5
(dp4408
g3728
S'A 32-bit integer'
p4409
sg17
S'integer'
p4410
sg15
S'Int'
p4411
sg20
S'A 32-bit integer'
p4412
stRp4413
ag3
(g4
g5
(dp4414
g3728
S'An 8-bit integer'
p4415
sg17
S'integer'
p4416
sg15
S'Int8'
p4417
sg20
S'An 8-bit integer: an unsigned char'
p4418
stRp4419
ag3
(g4
g5
(dp4420
g3728
S'A 64-bit integer'
p4421
sg17
S'integer'
p4422
sg15
S'Int64'
p4423
sg20
S'A 64-bit integer.'
p4424
stRp4425
ag3
(g4
g5
(dp4426
g260
S'All integration records should have a corresponding \n\t\treverse record. The \'branch from\' (2) and \'merge from\' (0) \n\t\trecords have corresponding "dirty" reverse records for cases \n\t\twhere the target file took more than one change or was \n\t\t(re)opened for \'edit\' or \'add\'.'
p4427
sg3650
g3
(g8
g9
(lp4428
g3
(g4
g5
(dp4429
g3655
S'0'
sg20
S'merge from: integration with other changes'
p4430
stRp4431
ag3
(g4
g5
(dp4432
g3655
S'1'
sg20
S'merge into: reverse merge'
p4433
stRp4434
ag3
(g4
g5
(dp4435
g3655
S'2'
sg20
S'branch from: integration was branch of file'
p4436
stRp4437
ag3
(g4
g5
(dp4438
g3655
S'3'
sg20
S'branch into: reverse branch'
p4439
stRp4440
ag3
(g4
g5
(dp4441
g3655
S'4'
sg20
S'copy from: integration took source file whole'
p4442
stRp4443
ag3
(g4
g5
(dp4444
g3655
S'5'
sg20
S'copy into: reverse take'
p4445
stRp4446
ag3
(g4
g5
(dp4447
g3655
S'6'
sg20
S'ignored: integration ignored source changes'
p4448
stRp4449
ag3
(g4
g5
(dp4450
g3655
S'7'
sg20
S'ignored by: reverse copy'
p4451
stRp4452
ag3
(g4
g5
(dp4453
g3655
S'8'
sg20
S'delete from: integration of delete'
p4454
stRp4455
ag3
(g4
g5
(dp4456
g3655
S'9'
sg20
S'delete into: reverse delete'
p4457
stRp4458
ag3
(g4
g5
(dp4459
g3655
S'10'
p4460
sg20
S'edit into: reverse of integration downgraded to \n\t\t    edit'
p4461
stRp4462
ag3
(g4
g5
(dp4463
g3655
S'11'
p4464
sg20
S'add into: reverse of branch downgraded to add'
p4465
stRp4466
ag3
(g4
g5
(dp4467
g3655
S'12'
p4468
sg20
S'edit from: merge that the user edited'
p4469
stRp4470
ag3
(g4
g5
(dp4471
g3655
S'13'
p4472
sg20
S'add from: branch downgraded to add'
p4473
stRp4474
ag3
(g4
g5
(dp4475
g3655
S'14'
p4476
sg20
S'moved from: reverse of renamed file'
p4477
stRp4478
ag3
(g4
g5
(dp4479
g3655
S'15'
p4480
sg20
S'moved into: file was renamed'
p4481
stRp4482
ag3
(g4
g5
(dp4483
g3655
S'16'
p4484
sg20
S"'delete' target rev ignoring non-deleted source"
p4485
stRp4486
ag3
(g4
g5
(dp4487
g3655
S'17'
p4488
sg20
S"non-deleted source ignored by 'delete' target rev"
p4489
stRp4490
ag3
(g4
g5
(dp4491
g3655
S'18'
p4492
sg20
S"'integrate' target rev ignoring deleted source"
p4493
stRp4494
ag3
(g4
g5
(dp4495
g3655
S'19'
p4496
sg20
S"deleted source ignored by 'integrate' target rev"
p4497
stRp4498
ag3
(g4
g5
(dp4499
g3655
S'20'
p4500
sg20
S'deleted branch: branch from'
p4501
stRp4502
ag3
(g4
g5
(dp4503
g3655
S'21'
p4504
sg20
S'deleted branch: delete into'
p4505
stRp4506
ag3
(g4
g5
(dp4507
g3655
S'22'
p4508
sg20
S'undo: opposite of merge'
p4509
stRp4510
ag3
(g4
g5
(dp4511
g3655
S'23'
p4512
sg20
S'undo reverse'
p4513
stRp4514
ag3
(g4
g5
(dp4515
g3655
S'24'
p4516
sg20
S'move undo: move + undo as one record'
p4517
stRp4518
ag3
(g4
g5
(dp4519
g3655
S'25'
p4520
sg20
S'move undo reverse'
p4521
stRp4522
atRp4523
sg15
S'IntegHow'
p4524
sg3728
S'Integration methods'
p4525
sg17
S'flag'
p4526
sg20
S"Specifies how an integration was performed. Integrations\n\t\talways come in pairs: the 'forward' and 'reverse' records.\n\t\tAs a general rule, the forward records contain the word \n\t\t'from'; and the reverse records contain the word 'into'."
p4527
stRp4528
ag3
(g4
g5
(dp4529
g17
S'flag'
p4530
sg3728
S'Job status - defunct'
p4531
sg3650
g3
(g8
g9
(lp4532
g3
(g4
g5
(dp4533
g3655
S'0'
sg20
S'open'
p4534
stRp4535
ag3
(g4
g5
(dp4536
g3655
S'1'
sg20
S'closed'
p4537
stRp4538
ag3
(g4
g5
(dp4539
g3655
S'2'
sg20
S'suspended'
p4540
stRp4541
atRp4542
sg15
S'JobStat'
p4543
sg20
S'Old (pre-98.2) job status values.'
p4544
stRp4545
ag3
(g4
g5
(dp4546
g3728
S'A key name'
p4547
sg17
S'string'
p4548
sg15
S'Key'
p4549
sg20
S'A string representing the key name. Key names must \n\t\tcontain no spaces, contain no slashes, and be identifiers \n\t\t(cannot begin with a dash and cannot be all-numeric)'
p4550
stRp4551
ag3
(g4
g5
(dp4552
g17
S'flag'
p4553
sg3728
S'Types of mapping'
p4554
sg3650
g3
(g8
g9
(lp4555
g3
(g4
g5
(dp4556
g3655
S'0'
sg20
S'mapped-in (the default)'
p4557
stRp4558
ag3
(g4
g5
(dp4559
g3655
S'1'
sg20
S"mapped-out (mappings that start with '-')"
p4560
stRp4561
ag3
(g4
g5
(dp4562
g3655
S'2'
sg20
S"overlay (mappings that start with '+')"
p4563
stRp4564
ag3
(g4
g5
(dp4565
g3655
S'3'
sg20
S"haveMap (mappings that start with '$'). Used internally\n\t\t    only"
p4566
stRp4567
ag3
(g4
g5
(dp4568
g3655
S'4'
sg20
S"changeMap (mappings that start with '@')"
p4569
stRp4570
atRp4571
sg15
S'MapFlag'
p4572
sg20
S'Specifies how the files specified by a mapping should be\n\t\ttreated'
p4573
stRp4574
ag3
(g4
g5
(dp4575
g3728
S'A string representing a mapping'
p4576
sg17
S'string'
p4577
sg15
S'Mapping'
p4578
sg20
S'A Mapping is essentially a file name that may contain\n\t\twildcards'
p4579
stRp4580
ag3
(g4
g5
(dp4581
g3728
S'Maximum number of milliseconds to hold locks'
p4582
sg17
S'integer'
p4583
sg15
S'MaxLockTime'
p4584
sg20
S"The number of milliseconds for which a command may hold locks.\n\t\tCommands that take longer than this time period will abort. \n\t\tThe value 0 means 'unlimited'."
p4585
stRp4586
ag3
(g4
g5
(dp4587
g3728
S'Maximum number of results permitted'
p4588
sg17
S'integer'
p4589
sg15
S'MaxResults'
p4590
sg20
S"The number of results that commands run by the restricted\n\t\tuser are permitted to return. The value 0 means 'unlimited'."
p4591
stRp4592
ag3
(g4
g5
(dp4593
g3728
S'Maximum number of records scanned'
p4594
sg17
S'integer'
p4595
sg15
S'MaxScanRows'
p4596
sg20
S"The maximum number of records that the server may read\n\t\ton behalf of the restricted user. The value 0 means \n\t\t'unlimited'."
p4597
stRp4598
ag3
(g4
g5
(dp4599
g17
S'flag'
p4600
sg3728
S'Object type'
p4601
sg3650
g3
(g8
g9
(lp4602
g3
(g4
g5
(dp4603
g3655
S'0'
sg20
S'commit'
p4604
stRp4605
ag3
(g4
g5
(dp4606
g3655
S'1'
sg20
S'tree'
p4607
stRp4608
ag3
(g4
g5
(dp4609
g3655
S'2'
sg20
S'tag'
p4610
stRp4611
ag3
(g4
g5
(dp4612
g3655
S'3'
sg20
S'null'
p4613
stRp4614
atRp4615
sg15
S'ObjectType'
p4616
sg20
S'Object type'
p4617
stRp4618
ag3
(g4
g5
(dp4619
g3728
S'Encoded hex string'
p4620
sg17
S'string'
p4621
sg15
S'Octet String'
p4622
sg20
S'A variable length encoded hex string. The first octet \n\t\tstores the length of the string.'
p4623
stRp4624
ag3
(g4
g5
(dp4625
g3728
S'The MD5 hash of a password'
p4626
sg17
S'string'
p4627
sg15
S'Password'
p4628
sg20
S'The MD5 hash of an encrypted password.'
p4629
stRp4630
ag3
(g4
g5
(dp4631
g3650
g3
(g8
g9
(lp4632
g3
(g4
g5
(dp4633
g3653
S'PermTypeBits'
p4634
sg15
S'None'
p4635
sg3655
S'0x0000'
p4636
sg20
S'none'
p4637
stRp4638
ag3
(g4
g5
(dp4639
g3653
S'PermTypeBits'
p4640
sg15
S'List'
p4641
sg3655
S'0x0001'
p4642
sg20
S'Grants list access'
p4643
stRp4644
ag3
(g4
g5
(dp4645
g3653
S'PermTypeBits'
p4646
sg15
S'Read'
p4647
sg3655
S'0x0002'
p4648
sg20
S'Grants read access'
p4649
stRp4650
ag3
(g4
g5
(dp4651
g3653
S'PermTypeBits'
p4652
sg15
S'Branch'
p4653
sg3655
S'0x0004'
p4654
sg20
S'Grants ability to branch/integ from'
p4655
stRp4656
ag3
(g4
g5
(dp4657
g3653
S'PermTypeBits'
p4658
sg15
S'Open'
p4659
sg3655
S'0x0008'
p4660
sg20
S'Grants open access'
p4661
stRp4662
ag3
(g4
g5
(dp4663
g3653
S'PermTypeBits'
p4664
sg15
S'Write'
p4665
sg3655
S'0x0010'
p4666
sg20
S'Grants write access'
p4667
stRp4668
ag3
(g4
g5
(dp4669
g3653
S'PermTypeBits'
p4670
sg15
S'Review'
p4671
sg3655
S'0x0020'
p4672
sg20
S'Grants review access'
p4673
stRp4674
ag3
(g4
g5
(dp4675
g3653
S'PermTypeBits'
p4676
sg15
S'Admin'
p4677
sg3655
S'0x0080'
p4678
sg20
S'Grants admin access'
p4679
stRp4680
ag3
(g4
g5
(dp4681
g3653
S'PermTypeBits'
p4682
sg15
S'Super'
p4683
sg3655
S'0x0040'
p4684
sg20
S'Grants super-user access'
p4685
stRp4686
ag3
(g4
g5
(dp4687
g3653
S'PermTypeBits'
p4688
sg15
S'Owner'
p4689
sg3655
S'0x0100'
p4690
sg20
S'Grants owner access'
p4691
stRp4692
atRp4693
sg15
S'Perm'
p4694
sg3653
g3
(g4
g5
(dp4695
g15
S'PermTypeBits'
p4696
sg3655
S'0x00FF'
p4697
sg20
S'Bits used to store granted permissions'
p4698
stRp4699
sg3728
S'Bitmask of permissions'
p4700
sg17
S'bitmask'
p4701
sg20
S'A bitmask of granted permissions'
p4702
stRp4703
ag3
(g4
g5
(dp4704
g17
S'flag'
p4705
sg3728
S'Archive pull transfer status'
p4706
sg3650
g3
(g8
g9
(lp4707
g3
(g4
g5
(dp4708
g15
S'new'
p4709
sg3655
S'new'
p4710
sg20
S'new transfer'
p4711
stRp4712
ag3
(g4
g5
(dp4713
g15
S'active'
p4714
sg3655
S'active'
p4715
sg20
S'active transfer'
p4716
stRp4717
ag3
(g4
g5
(dp4718
g15
S'done'
p4719
sg3655
S'done'
p4720
sg20
S'completed transfer'
p4721
stRp4722
ag3
(g4
g5
(dp4723
g15
S'error'
p4724
sg3655
S'error'
p4725
sg20
S'errored transfer'
p4726
stRp4727
ag3
(g4
g5
(dp4728
g15
S'restart'
p4729
sg3655
S'restart'
p4730
sg20
S'restarted transfer'
p4731
stRp4732
ag3
(g4
g5
(dp4733
g15
S'cancelled'
p4734
sg3655
S'cancelled'
p4735
sg20
S'cancelled transfer'
p4736
stRp4737
atRp4738
sg15
S'PullStatus'
p4739
sg20
S'The status of an archive pull transfer'
p4740
stRp4741
ag3
(g4
g5
(dp4742
g17
S'flag'
p4743
sg3728
S'Reference action'
p4744
sg3650
g3
(g8
g9
(lp4745
g3
(g4
g5
(dp4746
g3655
S'0'
sg20
S'create'
p4747
stRp4748
ag3
(g4
g5
(dp4749
g3655
S'1'
sg20
S'update'
p4750
stRp4751
ag3
(g4
g5
(dp4752
g3655
S'2'
sg20
S'force'
p4753
stRp4754
ag3
(g4
g5
(dp4755
g3655
S'3'
sg20
S'delete'
p4756
stRp4757
atRp4758
sg15
S'RefAction'
p4759
sg20
S'A reference action'
p4760
stRp4761
ag3
(g4
g5
(dp4762
g17
S'flag'
p4763
sg3728
S'A reference type'
p4764
sg3650
g3
(g8
g9
(lp4765
g3
(g4
g5
(dp4766
g3655
S'0'
sg20
S'Branch reference'
p4767
stRp4768
ag3
(g4
g5
(dp4769
g3655
S'1'
sg20
S'Remote reference'
p4770
stRp4771
ag3
(g4
g5
(dp4772
g3655
S'2'
sg20
S'Tag reference'
p4773
stRp4774
ag3
(g4
g5
(dp4775
g3655
S'3'
sg20
S'Workspace branch reference. Pseudo-reference, used by workspaces that access git files'
p4776
stRp4777
ag3
(g4
g5
(dp4778
g3655
S'4'
sg20
S'Workspace have reference. Pseudo-reference, used by workspaces that access git files'
p4779
stRp4780
ag3
(g4
g5
(dp4781
g3655
S'5'
sg20
S'Other reference'
p4782
stRp4783
atRp4784
sg15
S'RefType'
p4785
sg20
S'The type of reference'
p4786
stRp4787
ag3
(g4
g5
(dp4788
g3728
S'A remote name'
p4789
sg17
S'string'
p4790
sg15
S'RemoteID'
p4791
sg20
S'A string representing the name of a remote spec'
p4792
stRp4793
ag3
(g4
g5
(dp4794
g17
S'flag'
p4795
sg3728
S'Resolve actions'
p4796
sg3650
g3
(g8
g9
(lp4797
g3
(g4
g5
(dp4798
g3655
S'0'
sg20
S'Content resolve'
p4799
stRp4800
ag3
(g4
g5
(dp4801
g3655
S'1'
sg20
S'Filetype resolve'
p4802
stRp4803
ag3
(g4
g5
(dp4804
g3655
S'2'
sg20
S'Branch resolve'
p4805
stRp4806
ag3
(g4
g5
(dp4807
g3655
S'3'
sg20
S'Delete resolve'
p4808
stRp4809
ag3
(g4
g5
(dp4810
g3655
S'4'
sg20
S'Move resolve'
p4811
stRp4812
ag3
(g4
g5
(dp4813
g3655
S'5'
sg20
S'Attribute resolve'
p4814
stRp4815
ag3
(g4
g5
(dp4816
g3655
S'6'
sg20
S'Charset resolve'
p4817
stRp4818
atRp4819
sg15
S'ResolveState'
p4820
sg20
S'Pending or completed resolve actions.'
p4821
stRp4822
ag3
(g4
g5
(dp4823
g17
S'flag'
p4824
sg3728
S'Resolve methods (obsolete in 2011.1, replaced by ResolveState)'
p4825
sg3650
g3
(g8
g9
(lp4826
g3
(g4
g5
(dp4827
g3655
S'0'
sg20
S'Not yet resolved'
p4828
stRp4829
ag3
(g4
g5
(dp4830
g3655
S'1'
sg20
S'Resolved manually'
p4831
stRp4832
ag3
(g4
g5
(dp4833
g3655
S'2'
sg20
S'Resolved automatically as part of a branch'
p4834
stRp4835
ag3
(g4
g5
(dp4836
g3655
S'3'
sg20
S'Resolved automatically as part of a delete'
p4837
stRp4838
ag3
(g4
g5
(dp4839
g3655
S'4'
sg20
S'Resolved automatically as part of a move'
p4840
stRp4841
atRp4842
sg15
S'ResolvedStatus'
p4843
sg20
S'Specifies how the user resolved merge operations.'
p4844
stRp4845
ag3
(g4
g5
(dp4846
g3728
S'A revision number'
p4847
sg17
S'integer'
p4848
sg15
S'Rev'
p4849
sg20
S"The positive integer number of a specific revision of a file. \n\t\tThe number 0 represents '#none'."
p4850
stRp4851
ag3
(g4
g5
(dp4852
g3650
g3
(g8
g9
(lp4853
g3
(g4
g5
(dp4854
g3653
S'RevStatusBits'
p4855
sg3655
S'0x0000'
p4856
sg20
S'single revision with content'
p4857
stRp4858
ag3
(g4
g5
(dp4859
g3653
S'RevStatusBits'
p4860
sg3655
S'0x0001'
p4861
sg20
S'single revision lazy copied'
p4862
stRp4863
ag3
(g4
g5
(dp4864
g3653
S'RevStatusBits'
p4865
sg3655
S'0x0002'
p4866
sg20
S'revision task sparse'
p4867
stRp4868
ag3
(g4
g5
(dp4869
g3653
S'RevStatusBits'
p4870
sg3655
S'0x0004'
p4871
sg20
S'revision task branch'
p4872
stRp4873
ag3
(g4
g5
(dp4874
g3653
S'RevCharsetBits'
p4875
sg3655
S'0'
sg20
S'NONE'
p4876
stRp4877
ag3
(g4
g5
(dp4878
g3653
S'RevCharsetBits'
p4879
sg3655
S'1'
sg20
S'UTF_8'
p4880
stRp4881
ag3
(g4
g5
(dp4882
g3653
S'RevCharsetBits'
p4883
sg3655
S'2'
sg20
S'ISO8859_1'
p4884
stRp4885
ag3
(g4
g5
(dp4886
g3653
S'RevCharsetBits'
p4887
sg3655
S'3'
sg20
S'UTF_16'
p4888
stRp4889
ag3
(g4
g5
(dp4890
g3653
S'RevCharsetBits'
p4891
sg3655
S'4'
sg20
S'SHIFTJIS'
p4892
stRp4893
ag3
(g4
g5
(dp4894
g3653
S'RevCharsetBits'
p4895
sg3655
S'5'
sg20
S'EUCJP'
p4896
stRp4897
ag3
(g4
g5
(dp4898
g3653
S'RevCharsetBits'
p4899
sg3655
S'6'
sg20
S'WIN_US_ANSI'
p4900
stRp4901
ag3
(g4
g5
(dp4902
g3653
S'RevCharsetBits'
p4903
sg3655
S'7'
sg20
S'WIN_US_OEM'
p4904
stRp4905
ag3
(g4
g5
(dp4906
g3653
S'RevCharsetBits'
p4907
sg3655
S'8'
sg20
S'MACOS_ROMAN'
p4908
stRp4909
ag3
(g4
g5
(dp4910
g3653
S'RevCharsetBits'
p4911
sg3655
S'9'
sg20
S'ISO8859_15'
p4912
stRp4913
ag3
(g4
g5
(dp4914
g3653
S'RevCharsetBits'
p4915
sg3655
S'10'
p4916
sg20
S'ISO8859_5'
p4917
stRp4918
ag3
(g4
g5
(dp4919
g3653
S'RevCharsetBits'
p4920
sg3655
S'11'
p4921
sg20
S'KOI8_R'
p4922
stRp4923
ag3
(g4
g5
(dp4924
g3653
S'RevCharsetBits'
p4925
sg3655
S'12'
p4926
sg20
S'WIN_CP_1251'
p4927
stRp4928
ag3
(g4
g5
(dp4929
g3653
S'RevCharsetBits'
p4930
sg3655
S'13'
p4931
sg20
S'UTF_16_LE'
p4932
stRp4933
ag3
(g4
g5
(dp4934
g3653
S'RevCharsetBits'
p4935
sg3655
S'14'
p4936
sg20
S'UTF_16_BE'
p4937
stRp4938
ag3
(g4
g5
(dp4939
g3653
S'RevCharsetBits'
p4940
sg3655
S'15'
p4941
sg20
S'UTF_16_LE_BOM'
p4942
stRp4943
ag3
(g4
g5
(dp4944
g3653
S'RevCharsetBits'
p4945
sg3655
S'16'
p4946
sg20
S'UTF_16_BE_BOM'
p4947
stRp4948
ag3
(g4
g5
(dp4949
g3653
S'RevCharsetBits'
p4950
sg3655
S'17'
p4951
sg20
S'UTF_16_BOM'
p4952
stRp4953
ag3
(g4
g5
(dp4954
g3653
S'RevCharsetBits'
p4955
sg3655
S'18'
p4956
sg20
S'UTF_8_BOM'
p4957
stRp4958
ag3
(g4
g5
(dp4959
g3653
S'RevCharsetBits'
p4960
sg3655
S'19'
p4961
sg20
S'UTF_32'
p4962
stRp4963
ag3
(g4
g5
(dp4964
g3653
S'RevCharsetBits'
p4965
sg3655
S'20'
p4966
sg20
S'UTF_32_LE'
p4967
stRp4968
ag3
(g4
g5
(dp4969
g3653
S'RevCharsetBits'
p4970
sg3655
S'21'
p4971
sg20
S'UTF_32_BE'
p4972
stRp4973
ag3
(g4
g5
(dp4974
g3653
S'RevCharsetBits'
p4975
sg3655
S'22'
p4976
sg20
S'UTF_32_LE_BOM'
p4977
stRp4978
ag3
(g4
g5
(dp4979
g3653
S'RevCharsetBits'
p4980
sg3655
S'23'
p4981
sg20
S'UTF_32_BE_BOM'
p4982
stRp4983
ag3
(g4
g5
(dp4984
g3653
S'RevCharsetBits'
p4985
sg3655
S'24'
p4986
sg20
S'UTF_32_BOM'
p4987
stRp4988
ag3
(g4
g5
(dp4989
g3653
S'RevCharsetBits'
p4990
sg3655
S'25'
p4991
sg20
S'UTF_8_UNCHECKED'
p4992
stRp4993
ag3
(g4
g5
(dp4994
g3653
S'RevCharsetBits'
p4995
sg3655
S'26'
p4996
sg20
S'UTF_8_UNCHECKED_BOM'
p4997
stRp4998
ag3
(g4
g5
(dp4999
g3653
S'RevCharsetBits'
p5000
sg3655
S'27'
p5001
sg20
S'CP949'
p5002
stRp5003
ag3
(g4
g5
(dp5004
g3653
S'RevCharsetBits'
p5005
sg3655
S'28'
p5006
sg20
S'CP936'
p5007
stRp5008
ag3
(g4
g5
(dp5009
g3653
S'RevCharsetBits'
p5010
sg3655
S'29'
p5011
sg20
S'CP950'
p5012
stRp5013
ag3
(g4
g5
(dp5014
g3653
S'RevCharsetBits'
p5015
sg3655
S'30'
p5016
sg20
S'CP850'
p5017
stRp5018
ag3
(g4
g5
(dp5019
g3653
S'RevCharsetBits'
p5020
sg3655
S'31'
p5021
sg20
S'CP858'
p5022
stRp5023
atRp5024
sg15
S'RevStatus'
p5025
sg3653
g3
(g8
g9
(lp5026
g3
(g4
g5
(dp5027
g15
S'RevStatusBits'
p5028
sg3655
S'0x000F'
p5029
sg20
S'Bits used to store revision status'
p5030
stRp5031
ag3
(g4
g5
(dp5032
g15
S'RevCharsetBits'
p5033
sg3655
S'0x007F'
p5034
sg20
S'Bits used to store revision charset (high 8 bits). Value shifted right 24 bits before applying mask'
p5035
stRp5036
atRp5037
sg3728
S'A revision status'
p5038
sg17
S'bitmask'
p5039
sg20
S'Lazy copy, task stream promotion, and charset status'
p5040
stRp5041
ag3
(g4
g5
(dp5042
g3728
S'Type of reviewer'
p5043
sg17
S'integer'
p5044
sg15
S'Reviewer'
p5045
sg20
S'The type of reviewer. Currently there is only one type of\n\t\treviewer and 0 is the only valid value.'
p5046
stRp5047
ag3
(g4
g5
(dp5048
g17
S'flag'
p5049
sg3728
S'The type of server'
p5050
sg3650
g3
(g8
g9
(lp5051
g3
(g4
g5
(dp5052
g3655
S'0'
sg20
S'server'
p5053
stRp5054
ag3
(g4
g5
(dp5055
g3655
S'1'
sg20
S'proxy'
p5056
stRp5057
ag3
(g4
g5
(dp5058
g3655
S'2'
sg20
S'broker'
p5059
stRp5060
ag3
(g4
g5
(dp5061
g3655
S'3'
sg20
S'identifier'
p5062
stRp5063
ag3
(g4
g5
(dp5064
g3655
S'4'
sg20
S'admin'
p5065
stRp5066
ag3
(g4
g5
(dp5067
g3655
S'5'
sg20
S'connector'
p5068
stRp5069
atRp5070
sg15
S'ServerType'
p5071
sg20
S'The type of server'
p5072
stRp5073
ag3
(g4
g5
(dp5074
g3650
g3
(g8
g9
(lp5075
g3
(g4
g5
(dp5076
g3653
S'Service Set Value'
p5077
sg3655
S'0x0903'
p5078
sg20
S'standard \t\t( db-read | db-write | rmt-depot | rmt-journal )'
p5079
stRp5080
ag3
(g4
g5
(dp5081
g3653
S'Service Set Value'
p5082
sg3655
S'0x0045'
p5083
sg20
S'replica \t\t( db-read | db-replication | file-replication | rmt-depot | rmt-journal )'
p5084
stRp5085
ag3
(g4
g5
(dp5086
g3653
S'Service Set Value'
p5087
sg3655
S'0x0030'
p5088
sg20
S'broker ( brokering | forwarding )'
p5089
stRp5090
ag3
(g4
g5
(dp5091
g3653
S'Service Set Value'
p5092
sg3655
S'0x00A0'
p5093
sg20
S'proxy ( forwarding | file-cacheing )'
p5094
stRp5095
ag3
(g4
g5
(dp5096
g3653
S'Service Set Value'
p5097
sg3655
S'0x00E5'
p5098
sg20
S'forwarding-replica ( db-read | db-replication | forwarding | file-replication | file-cacheing | rmt-depot | rmt-journal )'
p5099
stRp5100
ag3
(g4
g5
(dp5101
g3653
S'Service Set Value'
p5102
sg3655
S'0x004D'
p5103
sg20
S'build-server ( db-read | db-replication | bound-clients | file-replication | rmt-depot | rmt-journal )'
p5104
stRp5105
ag3
(g4
g5
(dp5106
g3653
S'Service Set Value'
p5107
sg3655
S'0x0203'
p5108
sg20
S'P4AUTH ( db-read | db-write | rmt-auth )'
p5109
stRp5110
ag3
(g4
g5
(dp5111
g3653
S'Service Set Value'
p5112
sg3655
S'0x0403'
p5113
sg20
S'P4CHANGE ( db-read | db-write | rmt-change )'
p5114
stRp5115
ag3
(g4
g5
(dp5116
g3653
S'Service Set Value'
p5117
sg3655
S'0x19ED'
p5118
sg20
S'edge-server ( db-read | db-replication | bound-clients | forwarding | file-replication | file-cacheing | rmt-depot | rmt-journal | local-opens )'
p5119
stRp5120
ag3
(g4
g5
(dp5121
g3653
S'Service Set Value'
p5122
sg3655
S'0x2F03'
p5123
sg20
S'commit-server ( db-read | db-write | rmt-depot | rmt-journal | rmt-change | rmt-auth | commit-server )'
p5124
stRp5125
ag3
(g4
g5
(dp5126
g3653
S'Service Set Value'
p5127
sg3655
S'0x6F03'
p5128
sg20
S'depot-master ( db-read | db-write | rmt-depot | rmt-journal | rmt-change | rmt-auth | commit-server | p4zk-managed )'
p5129
stRp5130
ag3
(g4
g5
(dp5131
g3653
S'Service Set Value'
p5132
sg3655
S'0xC945'
p5133
sg20
S'depot-standby ( db-read | db-replication | file-replication | rmt-depot | rmt-journal | journal-copy | p4zk-managed )'
p5134
stRp5135
ag3
(g4
g5
(dp5136
g3653
S'Service Set Value'
p5137
sg3655
S'0x59ED'
p5138
sg20
S'workspace-server ( db-read | db-replication | bound-clients | forwarding | file-replication | file-cacheing | rmt-depot | rmt-journal | local-opens | p4zk-managed )'
p5139
stRp5140
ag3
(g4
g5
(dp5141
g3653
S'Service Set Value'
p5142
sg3655
S'0x8945'
p5143
sg20
S'standby ( db-read | db-replication | file-replication | rmt-depot | rmt-journal | journal-copy )'
p5144
stRp5145
ag3
(g4
g5
(dp5146
g3653
S'Service Set Value'
p5147
sg3655
S'0x89E5'
p5148
sg20
S'forwarding-standby ( db-read | db-replication | forwarding | file-replication | file-cacheing | rmt-depot | rmt-journal | journal-copy )'
p5149
stRp5150
ag3
(g4
g5
(dp5151
g3653
S'Service Set Value'
p5152
sg3655
S'0x4030'
p5153
sg20
S'workspace-router ( brokering | forwarding | p4zk-managed )'
p5154
stRp5155
ag3
(g4
g5
(dp5156
g3653
S'Service Set Value'
p5157
sg3655
S'0x10003'
p5158
sg20
S'local ( db-read | db-write | dvcs-local )'
p5159
stRp5160
ag3
(g4
g5
(dp5161
g3653
S'Service Set Value'
p5162
sg3655
S'0x20000'
p5163
sg20
S'cluster ( cluster-id )'
p5164
stRp5165
ag3
(g4
g5
(dp5166
g3653
S'Service Set Value'
p5167
sg3655
S'0x40000'
p5168
sg20
S'zookeeper-server ( zookeeper-server )'
p5169
stRp5170
ag3
(g4
g5
(dp5171
g3653
S'Service Set Value'
p5172
sg3655
S'0x80000'
p5173
sg20
S'hxca-server ( hxca-server )'
p5174
stRp5175
ag3
(g4
g5
(dp5176
g3653
S'Service Set Value'
p5177
sg3655
S'0x100000'
p5178
sg20
S'git-connector'
p5179
stRp5180
ag3
(g4
g5
(dp5181
g3653
S'Service Property'
p5182
sg3655
S'0x0001'
p5183
sg20
S'db-read'
p5184
stRp5185
ag3
(g4
g5
(dp5186
g3653
S'Service Property'
p5187
sg3655
S'0x0002'
p5188
sg20
S'db-write'
p5189
stRp5190
ag3
(g4
g5
(dp5191
g3653
S'Service Property'
p5192
sg3655
S'0x0004'
p5193
sg20
S'db-replication'
p5194
stRp5195
ag3
(g4
g5
(dp5196
g3653
S'Service Property'
p5197
sg3655
S'0x0008'
p5198
sg20
S'bound-clients'
p5199
stRp5200
ag3
(g4
g5
(dp5201
g3653
S'Service Property'
p5202
sg3655
S'0x0010'
p5203
sg20
S'brokering'
p5204
stRp5205
ag3
(g4
g5
(dp5206
g3653
S'Service Property'
p5207
sg3655
S'0x0020'
p5208
sg20
S'forwarding'
p5209
stRp5210
ag3
(g4
g5
(dp5211
g3653
S'Service Property'
p5212
sg3655
S'0x0040'
p5213
sg20
S'file-replication'
p5214
stRp5215
ag3
(g4
g5
(dp5216
g3653
S'Service Property'
p5217
sg3655
S'0x0080'
p5218
sg20
S'file-cacheing'
p5219
stRp5220
ag3
(g4
g5
(dp5221
g3653
S'Service Property'
p5222
sg3655
S'0x0100'
p5223
sg20
S'rmt-depot'
p5224
stRp5225
ag3
(g4
g5
(dp5226
g3653
S'Service Property'
p5227
sg3655
S'0x0200'
p5228
sg20
S'rmt-auth'
p5229
stRp5230
ag3
(g4
g5
(dp5231
g3653
S'Service Property'
p5232
sg3655
S'0x0400'
p5233
sg20
S'rmt-change'
p5234
stRp5235
ag3
(g4
g5
(dp5236
g3653
S'Service Property'
p5237
sg3655
S'0x0800'
p5238
sg20
S'rmt-journal'
p5239
stRp5240
ag3
(g4
g5
(dp5241
g3653
S'Service Property'
p5242
sg3655
S'0x1000'
p5243
sg20
S'local-opens'
p5244
stRp5245
ag3
(g4
g5
(dp5246
g3653
S'Service Property'
p5247
sg3655
S'0x2000'
p5248
sg20
S'commit-server'
p5249
stRp5250
ag3
(g4
g5
(dp5251
g3653
S'Service Property'
p5252
sg3655
S'0x4000'
p5253
sg20
S'p4zk-managed'
p5254
stRp5255
ag3
(g4
g5
(dp5256
g3653
S'Service Property'
p5257
sg3655
S'0x8000'
p5258
sg20
S'journal-copy'
p5259
stRp5260
ag3
(g4
g5
(dp5261
g3653
S'Service Property'
p5262
sg3655
S'0x10000'
p5263
sg20
S'dvcs-local'
p5264
stRp5265
ag3
(g4
g5
(dp5266
g3653
S'Service Property'
p5267
sg3655
S'0x20000'
p5268
sg20
S'cluster-id'
p5269
stRp5270
ag3
(g4
g5
(dp5271
g3653
S'Service Property'
p5272
sg3655
S'0x40000'
p5273
sg20
S'zookeeper'
p5274
stRp5275
ag3
(g4
g5
(dp5276
g3653
S'Service Property'
p5277
sg3655
S'0x80000'
p5278
sg20
S'hxca'
p5279
stRp5280
atRp5281
sg15
S'ServerServiceType'
p5282
sg3653
g3
(g8
g9
(lp5283
g3
(g4
g5
(dp5284
g15
S'Service Set Value'
p5285
sg3655
S'None'
p5286
sg20
S"The server service type setting is generated by OR'ing the generic ServerServiceProperties defined below"
p5287
stRp5288
ag3
(g4
g5
(dp5289
g15
S'Service Property'
p5290
sg3655
S'None'
p5291
sg20
S'ServerServiceProperties: Bits used to identify generic server properties'
p5292
stRp5293
atRp5294
sg3728
S'The type of server service'
p5295
sg17
S'bitmask'
p5296
sg20
S'The services offered by a type of service.'
p5297
stRp5298
ag3
(g4
g5
(dp5299
g3728
S'Encoded SHA1'
p5300
sg17
S'string'
p5301
sg15
S'SHA1'
p5302
sg20
S'20 byte SHA1 digest of a block of text'
p5303
stRp5304
ag3
(g4
g5
(dp5305
g17
S'flag'
p5306
sg3728
S'A spec type'
p5307
sg3650
g3
(g8
g9
(lp5308
g3
(g4
g5
(dp5309
g3655
S"98 (ASCII 'b')"
p5310
sg20
S'branch'
p5311
stRp5312
ag3
(g4
g5
(dp5313
g3655
S"67 (ASCII 'C')"
p5314
sg20
S'change'
p5315
stRp5316
ag3
(g4
g5
(dp5317
g3655
S"99 (ASCII 'c')"
p5318
sg20
S'client'
p5319
stRp5320
ag3
(g4
g5
(dp5321
g3655
S"100 (ASCII 'd')"
p5322
sg20
S'depot'
p5323
stRp5324
ag3
(g4
g5
(dp5325
g3655
S"101 (ASCII 'e')"
p5326
sg20
S'spec'
p5327
stRp5328
ag3
(g4
g5
(dp5329
g3655
S"103 (ASCII 'g')"
p5330
sg20
S'group'
p5331
stRp5332
ag3
(g4
g5
(dp5333
g3655
S"106 (ASCII 'j')"
p5334
sg20
S'job'
p5335
stRp5336
ag3
(g4
g5
(dp5337
g3655
S"108 (ASCII 'l')"
p5338
sg20
S'label'
p5339
stRp5340
ag3
(g4
g5
(dp5341
g3655
S"68 (ASCII 'D')"
p5342
sg20
S'ldap'
p5343
stRp5344
ag3
(g4
g5
(dp5345
g3655
S"76 (ASCII 'L')"
p5346
sg20
S'license'
p5347
stRp5348
ag3
(g4
g5
(dp5349
g3655
S"112 (ASCII 'p')"
p5350
sg20
S'protect'
p5351
stRp5352
ag3
(g4
g5
(dp5353
g3655
S"114 (ASCII 'r')"
p5354
sg20
S'remote'
p5355
stRp5356
ag3
(g4
g5
(dp5357
g3655
S"83 (ASCII 'S')"
p5358
sg20
S'server'
p5359
stRp5360
ag3
(g4
g5
(dp5361
g3655
S"115 (ASCII 's')"
p5362
sg20
S'stream'
p5363
stRp5364
ag3
(g4
g5
(dp5365
g3655
S"84 (ASCII 'T')"
p5366
sg20
S'trigger'
p5367
stRp5368
ag3
(g4
g5
(dp5369
g3655
S"116 (ASCII 't')"
p5370
sg20
S'typemap'
p5371
stRp5372
ag3
(g4
g5
(dp5373
g3655
S"117 (ASCII 'u')"
p5374
sg20
S'user'
p5375
stRp5376
atRp5377
sg15
S'SpecType'
p5378
sg20
S'A integer value representing the type of a spec'
p5379
stRp5380
ag3
(g4
g5
(dp5381
g17
S'flag'
p5382
sg3728
S'Stash type'
p5383
sg3650
g3
(g8
g9
(lp5384
g3
(g4
g5
(dp5385
g3655
S'0'
sg20
S'switch: A shelf with work-in-progress for a particular stream/branch'
p5386
stRp5387
ag3
(g4
g5
(dp5388
g3655
S'1'
sg20
S"tangent: Work-in-progress relocated by 'p4 fetch -t'. Consumed and removed by 'p4 resubmit'"
p5389
stRp5390
atRp5391
sg15
S'StashType'
p5392
sg20
S'Stash type'
p5393
stRp5394
ag3
(g4
g5
(dp5395
g17
S'flag'
p5396
sg3728
S'Server specification view type'
p5397
sg3650
g3
(g8
g9
(lp5398
g3
(g4
g5
(dp5399
g3655
S'0'
sg20
S'ClientDataFilter'
p5400
stRp5401
ag3
(g4
g5
(dp5402
g3655
S'1'
sg20
S'RevisionDataFilter'
p5403
stRp5404
ag3
(g4
g5
(dp5405
g3655
S'2'
sg20
S'ArchiveDataFilter'
p5406
stRp5407
ag3
(g4
g5
(dp5408
g3655
S'3'
sg20
S'AllowedAddresses'
p5409
stRp5410
atRp5411
sg15
S'SvrViewType'
p5412
sg20
S'Server specification view type'
p5413
stRp5414
ag3
(g4
g5
(dp5415
g3650
g3
(g8
g9
(lp5416
g3
(g4
g5
(dp5417
g3653
S'Stream Status'
p5418
sg3655
S'0x0000'
p5419
sg20
S'Clear cache'
p5420
stRp5421
ag3
(g4
g5
(dp5422
g3653
S'Stream Status'
p5423
sg3655
S'0x0001'
p5424
sg20
S'Needs copy'
p5425
stRp5426
ag3
(g4
g5
(dp5427
g3653
S'Stream Status'
p5428
sg3655
S'0x0002'
p5429
sg20
S'Copy up-to-date'
p5430
stRp5431
ag3
(g4
g5
(dp5432
g3653
S'Stream Status'
p5433
sg3655
S'0x0004'
p5434
sg20
S'Needs merge'
p5435
stRp5436
ag3
(g4
g5
(dp5437
g3653
S'Stream Status'
p5438
sg3655
S'0x0008'
p5439
sg20
S'Merge up-to-date'
p5440
stRp5441
atRp5442
sg15
S'StreamStatus'
p5443
sg3653
g3
(g4
g5
(dp5444
g15
S'Stream Status'
p5445
sg3655
S'Copy: 0x0003, Merge: 0x000C'
p5446
sg20
S'Bits used to store the stream integration status'
p5447
stRp5448
sg3728
S'Stream integration status'
p5449
sg17
S'bitmask'
p5450
sg20
S'The stream integration status.'
p5451
stRp5452
ag3
(g4
g5
(dp5453
g17
S'flag'
p5454
sg3728
S'Type of stream path'
p5455
sg3650
g3
(g8
g9
(lp5456
g3
(g4
g5
(dp5457
g3655
S'0'
sg20
S'share'
p5458
stRp5459
ag3
(g4
g5
(dp5460
g3655
S'1'
sg20
S'isolate'
p5461
stRp5462
ag3
(g4
g5
(dp5463
g3655
S'2'
sg20
S'import'
p5464
stRp5465
ag3
(g4
g5
(dp5466
g3655
S'3'
sg20
S'exclude'
p5467
stRp5468
ag3
(g4
g5
(dp5469
g3655
S'4'
sg20
S'remapped'
p5470
stRp5471
ag3
(g4
g5
(dp5472
g3655
S'5'
sg20
S'ignored'
p5473
stRp5474
ag3
(g4
g5
(dp5475
g3655
S'6'
sg20
S'inclusive'
p5476
stRp5477
ag3
(g4
g5
(dp5478
g3655
S'7'
sg20
S'import+'
p5479
stRp5480
atRp5481
sg15
S'StreamPathType'
p5482
sg20
S'The path type for file paths in a stream view.'
p5483
stRp5484
ag3
(g4
g5
(dp5485
g17
S'flag'
p5486
sg3728
S'Type of stream'
p5487
sg3650
g3
(g8
g9
(lp5488
g3
(g4
g5
(dp5489
g3655
S'0'
sg20
S'mainline'
p5490
stRp5491
ag3
(g4
g5
(dp5492
g3655
S'1'
sg20
S'release'
p5493
stRp5494
ag3
(g4
g5
(dp5495
g3655
S'2'
sg20
S'development'
p5496
stRp5497
ag3
(g4
g5
(dp5498
g3655
S'3'
sg20
S'virtual'
p5499
stRp5500
ag3
(g4
g5
(dp5501
g3655
S'4'
sg20
S'task'
p5502
stRp5503
ag3
(g4
g5
(dp5504
g3655
S'5'
sg20
S'task - unloaded'
p5505
stRp5506
atRp5507
sg15
S'StreamType'
p5508
sg20
S'The type of stream.'
p5509
stRp5510
ag3
(g4
g5
(dp5511
g17
S'flag'
p5512
sg3728
S'Strength check of a password'
p5513
sg3650
g3
(g8
g9
(lp5514
g3
(g4
g5
(dp5515
g3655
S'0'
sg20
S'Strength unknown'
p5516
stRp5517
ag3
(g4
g5
(dp5518
g3655
S'1'
sg20
S'Password is strong'
p5519
stRp5520
ag3
(g4
g5
(dp5521
g3655
S'2'
sg20
S'Unset'
p5522
stRp5523
atRp5524
sg15
S'Strength'
p5525
sg20
S"Whether or not a user's password has been tested for strength."
p5526
stRp5527
ag3
(g4
g5
(dp5528
S'restriction'
p5529
g3
(g8
g9
(lp5530
S'Cannot be empty'
p5531
aS'Cannot consist solely of a dash (-)'
p5532
aS'Cannot be all-numeric'
p5533
aS'Cannot contain non-printable characters'
p5534
aS'Spaces are replaced with underscores ( _ )'
p5535
aS'Revision characters (# and @) are prohibited'
p5536
aS'Slashes (/) are prohibited'
p5537
aS'Wildcards (... and *) are prohibited'
p5538
atRp5539
sg3728
S'A string up to 1024 characters long'
p5540
sg17
S'string'
p5541
sg15
S'String'
p5542
sg20
S'A string up to 1024 characters in length.  Depending on the \n\t\tcontext in which the string is used, restrictions \n\t\tmay apply. Strings are often used as key fields in the \n\t\tschema.'
p5543
stRp5544
ag3
(g4
g5
(dp5545
g17
S'flag'
p5546
sg3728
S'Tamper-state of workspace file'
p5547
sg3650
g3
(g8
g9
(lp5548
g3
(g4
g5
(dp5549
g3655
S'0'
sg20
S'Do not check for tampering'
p5550
stRp5551
ag3
(g4
g5
(dp5552
g3655
S'1'
sg20
S'Check for tampering'
p5553
stRp5554
ag3
(g4
g5
(dp5555
g3655
S'2'
sg20
S'Tamper-check failed'
p5556
stRp5557
atRp5558
sg15
S'TamperCheck'
p5559
sg20
S'Indicates the tamper-state of a file in a workspace. This\n\t\tis used to decide whether or not to check the file, and\n\t\tif checked, to hold the result.'
p5560
stRp5561
ag3
(g4
g5
(dp5562
g3728
S'A string value'
p5563
sg17
S'string'
p5564
sg15
S'Text'
p5565
sg20
S'A text string value - used to hold longer blocks of text.'
p5566
stRp5567
ag3
(g4
g5
(dp5568
g3728
S'The id of a group of traits'
p5569
sg17
S'integer'
p5570
sg15
S'TraitLot'
p5571
sg20
S'An integer identifying a group of traits which may be\n\t\tshared by several revisions.'
p5572
stRp5573
ag3
(g4
g5
(dp5574
g17
S'flag'
p5575
sg3728
S'A type of trait'
p5576
sg3650
g3
(g8
g9
(lp5577
g3
(g4
g5
(dp5578
g3655
S'0'
sg20
S'Special trait for reference counting'
p5579
stRp5580
ag3
(g4
g5
(dp5581
g3655
S'1'
sg20
S'Binary trait'
p5582
stRp5583
ag3
(g4
g5
(dp5584
g3655
S'2'
sg20
S'Binary trait that gets propagated'
p5585
stRp5586
atRp5587
sg15
S'TraitType'
p5588
sg20
S'The type of trait.'
p5589
stRp5590
ag3
(g4
g5
(dp5591
g17
S'flag'
p5592
sg3728
S'A type of trigger'
p5593
sg3650
g3
(g8
g9
(lp5594
g3
(g4
g5
(dp5595
g3655
S'0'
sg20
S'change-submit (formerly pre-submit triggers)'
p5596
stRp5597
ag3
(g4
g5
(dp5598
g3655
S'1'
sg20
S'change-content'
p5599
stRp5600
ag3
(g4
g5
(dp5601
g3655
S'2'
sg20
S'change-commit'
p5602
stRp5603
ag3
(g4
g5
(dp5604
g3655
S'3'
sg20
S'form-in'
p5605
stRp5606
ag3
(g4
g5
(dp5607
g3655
S'4'
sg20
S'form-out'
p5608
stRp5609
ag3
(g4
g5
(dp5610
g3655
S'5'
sg20
S'form-save'
p5611
stRp5612
ag3
(g4
g5
(dp5613
g3655
S'6'
sg20
S'form-delete'
p5614
stRp5615
ag3
(g4
g5
(dp5616
g3655
S'7'
sg20
S'form-commit'
p5617
stRp5618
ag3
(g4
g5
(dp5619
g3655
S'8'
sg20
S'auth-check'
p5620
stRp5621
ag3
(g4
g5
(dp5622
g3655
S'9'
sg20
S'auth-check-sso'
p5623
stRp5624
ag3
(g4
g5
(dp5625
g3655
S'10'
p5626
sg20
S'auth-set'
p5627
stRp5628
ag3
(g4
g5
(dp5629
g3655
S'11'
p5630
sg20
S'fix-add'
p5631
stRp5632
ag3
(g4
g5
(dp5633
g3655
S'12'
p5634
sg20
S'fix-delete'
p5635
stRp5636
ag3
(g4
g5
(dp5637
g3655
S'13'
p5638
sg20
S'archive'
p5639
stRp5640
ag3
(g4
g5
(dp5641
g3655
S'14'
p5642
sg20
S'shelve-submit'
p5643
stRp5644
ag3
(g4
g5
(dp5645
g3655
S'15'
p5646
sg20
S'shelve-commit'
p5647
stRp5648
ag3
(g4
g5
(dp5649
g3655
S'16'
p5650
sg20
S'shelve-delete'
p5651
stRp5652
ag3
(g4
g5
(dp5653
g3655
S'17'
p5654
sg20
S'service-check'
p5655
stRp5656
ag3
(g4
g5
(dp5657
g3655
S'18'
p5658
sg20
S'edge-submit'
p5659
stRp5660
ag3
(g4
g5
(dp5661
g3655
S'19'
p5662
sg20
S'edge-content'
p5663
stRp5664
ag3
(g4
g5
(dp5665
g3655
S'20'
p5666
sg20
S'change-failed'
p5667
stRp5668
ag3
(g4
g5
(dp5669
g3655
S'21'
p5670
sg20
S'command'
p5671
stRp5672
ag3
(g4
g5
(dp5673
g3655
S'22'
p5674
sg20
S'push-submit'
p5675
stRp5676
ag3
(g4
g5
(dp5677
g3655
S'23'
p5678
sg20
S'push-content'
p5679
stRp5680
ag3
(g4
g5
(dp5681
g3655
S'24'
p5682
sg20
S'push-commit'
p5683
stRp5684
ag3
(g4
g5
(dp5685
g3655
S'25'
p5686
sg20
S'journal-rotate'
p5687
stRp5688
ag3
(g4
g5
(dp5689
g3655
S'26'
p5690
sg20
S'journal-rotate-lock'
p5691
stRp5692
ag3
(g4
g5
(dp5693
g3655
S'27'
p5694
sg20
S'graph-push-start'
p5695
stRp5696
ag3
(g4
g5
(dp5697
g3655
S'28'
p5698
sg20
S'graph-push-complete'
p5699
stRp5700
ag3
(g4
g5
(dp5701
g3655
S'29'
p5702
sg20
S'graph-push-reference'
p5703
stRp5704
ag3
(g4
g5
(dp5705
g3655
S'30'
p5706
sg20
S'graph-push-reference-complete'
p5707
stRp5708
ag3
(g4
g5
(dp5709
g3655
S'31'
p5710
sg20
S'graph-lfs-push'
p5711
stRp5712
ag3
(g4
g5
(dp5713
g3655
S'32'
p5714
sg20
S'graph-fork-repo'
p5715
stRp5716
ag3
(g4
g5
(dp5717
g3655
S'33'
p5718
sg20
S'pull-archive'
p5719
stRp5720
ag3
(g4
g5
(dp5721
g3655
S'34'
p5722
sg20
S'auth-pre-2fa'
p5723
stRp5724
ag3
(g4
g5
(dp5725
g3655
S'35'
p5726
sg20
S'auth-init-2fa'
p5727
stRp5728
ag3
(g4
g5
(dp5729
g3655
S'36'
p5730
sg20
S'auth-check-2fa'
p5731
stRp5732
ag3
(g4
g5
(dp5733
g3655
S'37'
p5734
sg20
S'bgtask'
p5735
stRp5736
atRp5737
sg15
S'Trigger'
p5738
sg20
S'The type of a trigger.'
p5739
stRp5740
ag3
(g4
g5
(dp5741
g3728
S'A user or group name'
p5742
sg20
S'The name of a Helix Server user or group.'
p5743
sg17
S'string'
p5744
sg15
S'User'
p5745
sg224
S'String'
p5746
stRp5747
ag3
(g4
g5
(dp5748
g17
S'flag'
p5749
sg3728
S'User Authentication Type'
p5750
sg3650
g3
(g8
g9
(lp5751
g3
(g4
g5
(dp5752
g3655
S'0'
sg20
S'perforce'
p5753
stRp5754
ag3
(g4
g5
(dp5755
g3655
S'1'
sg20
S'ldap'
p5756
stRp5757
ag3
(g4
g5
(dp5758
g3655
S'16'
p5759
sg20
S'perforce+2fa'
p5760
stRp5761
ag3
(g4
g5
(dp5762
g3655
S'17'
p5763
sg20
S'ldap+2fa'
p5764
stRp5765
atRp5766
sg15
S'UserAuthType'
p5767
sg20
S'The AuthMethod setting for the user.'
p5768
stRp5769
ag3
(g4
g5
(dp5770
g17
S'flag'
p5771
sg3728
S'User functionality level'
p5772
sg3650
g3
(g8
g9
(lp5773
g3
(g4
g5
(dp5774
g3655
S'0'
sg20
S'standard'
p5775
stRp5776
ag3
(g4
g5
(dp5777
g3655
S'1'
sg20
S'service'
p5778
stRp5779
ag3
(g4
g5
(dp5780
g3655
S'2'
sg20
S'operator'
p5781
stRp5782
atRp5783
sg15
S'UserLevel'
p5784
sg20
S'User functionality level'
p5785
stRp5786
ag3
(g4
g5
(dp5787
g3650
g3
(g8
g9
(lp5788
g3
(g4
g5
(dp5789
g3653
S'UserTypeBits'
p5790
sg15
S'User'
p5791
sg3655
S'0x0001'
p5792
sg20
S'User is an ordinary user'
p5793
stRp5794
ag3
(g4
g5
(dp5795
g3653
S'UserTypeBits'
p5796
sg15
S'SubGroup'
p5797
sg3655
S'0x0002'
p5798
sg20
S'Group is a sub-group'
p5799
stRp5800
ag3
(g4
g5
(dp5801
g3653
S'UserTypeBits'
p5802
sg15
S'Owner'
p5803
sg3655
S'0x0004'
p5804
sg20
S'User is the owner of a group'
p5805
stRp5806
atRp5807
sg15
S'UserType'
p5808
sg3653
g3
(g4
g5
(dp5809
g15
S'UserTypeBits'
p5810
sg3655
S'0x0007'
p5811
sg20
S'Bits used to store the role of a user in a group'
p5812
stRp5813
sg3728
S'The role of a user within a group'
p5814
sg17
S'bitmask'
p5815
sg20
S'The role of a user (or group) within a group.'
p5816
stRp5817
ag3
(g4
g5
(dp5818
g3728
S'A user or group name with wildcards'
p5819
sg20
S'A user/group name that may contain wildcards (*)'
p5820
sg17
S'string'
p5821
sg15
S'UserWild'
p5822
sg224
S'User'
p5823
stRp5824
ag3
(g4
g5
(dp5825
g3728
S'A number or a string'
p5826
sg17
S'string'
p5827
sg15
S'Value'
p5828
sg20
S'A number, stored in a string, or a string'
p5829
stRp5830
atRp5831
stRp5832
s.