(dp1
S'tables'
p2
ccopy_reg
_reconstructor
p3
(clib.sqUtils
Storage
p4
c__builtin__
dict
p5
(dp6
S'table'
p7
g3
(clib.sqUtils
Lst
p8
c__builtin__
list
p9
(lp10
g3
(g4
g5
(dp11
S'version'
p12
S'0'
sS'keying'
p13
S'name'
p14
sS'name'
p15
S'db.counters'
p16
sS'type'
p17
S'Counters'
p18
sS'lockseq'
p19
S'1'
sS'desc'
p20
S'Perforce counters table'
p21
stRp22
ag3
(g4
g5
(dp23
g12
S'1'
sg13
S'seq'
p24
sg15
S'db.logger'
p25
sg17
S'Logger'
p26
sg19
S'2'
sg20
S"Support for 'p4 logger' command. Logs any changes to \n\t\tchangelists and jobs"
p27
stRp28
ag3
(g4
g5
(dp29
g12
S'3'
sg13
S'user'
p30
sg15
S'db.user'
p31
sg17
S'User'
p32
sg19
S'3'
sg20
S'Lists users known to Perforce'
p33
stRp34
ag3
(g4
g5
(dp35
g12
S'6'
sg13
S'user, group'
p36
sg15
S'db.group'
p37
sg17
S'Group'
p38
sg19
S'4'
sg20
S'Lists groups known to Perforce'
p39
stRp40
ag3
(g4
g5
(dp41
g12
S'1'
sg13
S'name'
p42
sg15
S'db.depot'
p43
sg17
S'Depot'
p44
sg19
S'5'
sg20
S'Lists depots known to Perforce'
p45
stRp46
ag3
(g4
g5
(dp47
g12
S'4'
sg13
S'name'
p48
sg15
S'db.domain'
p49
sg17
S'Domain'
p50
sg19
S'6'
sg20
S'Domains: depots, clients, labels, branches and typemap'
p51
stRp52
ag3
(g4
g5
(dp53
g12
S'1'
sg13
S'name, seq'
p54
sg15
S'db.view'
p55
sg17
S'View'
p56
sg19
S'7'
sg20
S'Contains views for domains'
p57
stRp58
ag3
(g4
g5
(dp59
g12
S'1'
sg13
S'user, seq'
p60
sg15
S'db.review'
p61
sg17
S'Review'
p62
sg19
S'8'
sg20
S"Contains user's review mappings"
p63
stRp64
ag3
(g4
g5
(dp65
g12
S'0'
sg13
S'toFile, fromFile, startFromRev'
p66
sg15
S'db.integ'
p67
sg20
S'Integration records: obsolete since 2001.1'
p68
sg17
S'Integ'
p69
sg19
S'9'
sS'seeAlso'
p70
g3
(g8
g9
(lp71
S'db.integed'
p72
aS'db.resolve'
p73
atRp74
stRp75
ag3
(g4
g5
(dp76
g12
S'0'
sg13
S'toFile, fromFile, startFromRev, endFromRev, \n\t\tstartToRev, endToRev'
p77
sg15
S'db.integed'
p78
sg20
S'Permanent integration records'
p79
sg17
S'Integed'
p80
sg19
S'10'
p81
sg70
S'db.resolve'
p82
stRp83
ag3
(g4
g5
(dp84
g12
S'0'
sg13
S'toFile, fromFile, startFromRev'
p85
sg15
S'db.resolve'
p86
sg20
S'Pending integration records'
p87
sg17
S'Resolve'
p88
sg19
S'11'
p89
sg70
S'db.integed'
p90
stRp91
ag3
(g4
g5
(dp92
g12
S'2'
sg13
S'clientFile'
p93
sg15
S'db.have'
p94
sg17
S'Have'
p95
sg19
S'12'
p96
sg20
S"Contains the 'have-list' for all clients"
p97
stRp98
ag3
(g4
g5
(dp99
g12
S'0'
sg13
S'name, depotFile'
p100
sg15
S'db.label'
p101
sg17
S'Label'
p102
sg19
S'13'
p103
sg20
S'Lists the revisions of files in labels.'
p104
stRp105
ag3
(g4
g5
(dp106
g12
S'2'
sg13
S'depotFile, client'
p107
sg15
S'db.locks'
p108
sg17
S'Locks'
p109
sg19
S'14'
p110
sg20
S'Locked/Unlocked files'
p111
stRp112
ag3
(g4
g5
(dp113
S'note'
p114
S'Obsoleted in 2006.2.'
p115
sg12
S'1'
sg13
S'lbrFile, lbrRev, depotFile, depotRev'
p116
sg20
S'Archive information for each revision that is \n\t\tlazy-copied.'
p117
sg17
S'Archive'
p118
sg19
S'15'
p119
sg15
S'db.archive'
p120
stRp121
ag3
(g4
g5
(dp122
g114
S'Supercedes db.archive'
p123
sg12
S'0'
sg13
S'lbrFile, depotFile'
p124
sg20
S'Mappings entries for lazy-copies.'
p125
sg17
S'ArchMap'
p126
sg19
S'16'
p127
sg15
S'db.archmap'
p128
stRp129
ag3
(g4
g5
(dp130
g12
S'7'
sg13
S'depotFile, depotRev'
p131
sg15
S'db.rev'
p132
sg17
S'Rev'
p133
sg19
S'17'
p134
sg20
S'Revision records'
p135
stRp136
ag3
(g4
g5
(dp137
g12
S'0'
sg13
S'change, depotFile'
p138
sg15
S'db.revcx'
p139
sg17
S'RevCx'
p140
sg19
S'18'
p141
sg20
S'Secondary index of db.rev'
p142
stRp143
ag3
(g4
g5
(dp144
g12
S'7'
sg13
S'depotFile'
p145
sg15
S'db.revdx'
p146
sg17
S'Rev'
p147
sg19
S'19'
p148
sg20
S'Revision records for revisions deleted at the head revision.'
p149
stRp150
ag3
(g4
g5
(dp151
g12
S'7'
sg13
S'depotFile'
p152
sg15
S'db.revhx'
p153
sg17
S'Rev'
p154
sg19
S'20'
p155
sg20
S'Revision records for revisions NOT deleted at the head revision.'
p156
stRp157
ag3
(g4
g5
(dp158
g114
S'Only populated during content trigger execution to allow \n\t\ttriggers access to the revisions being submitted.'
p159
sg12
S'7'
sg13
S'depotFile, depotRev'
p160
sg20
S'Pending revision records.'
p161
sg17
S'Rev'
p162
sg19
S'21'
p163
sg15
S'db.revpx'
p164
stRp165
ag3
(g4
g5
(dp166
g12
S'7'
sg13
S'depotFile, depotRev'
p167
sg15
S'db.revsx'
p168
sg17
S'Rev'
p169
sg19
S'22'
p170
sg20
S'Revision records for spec depot files.'
p171
stRp172
ag3
(g4
g5
(dp173
g12
S'8'
sg13
S'clientFile'
p174
sg15
S'db.working'
p175
sg17
S'Working'
p176
sg19
S'23'
p177
sg20
S'Records for work in progress'
p178
stRp179
ag3
(g4
g5
(dp180
g12
S'0'
sg13
S'traitLot, name'
p181
sg15
S'db.traits'
p182
sg17
S'Trait'
p183
sg19
S'24'
p184
sg20
S'Attributes associated with file revisions'
p185
stRp186
ag3
(g4
g5
(dp187
g12
S'2'
sg13
S'seq'
p188
sg15
S'db.trigger'
p189
sg17
S'Trigger'
p190
sg19
S'25'
p191
sg20
S'Trigger specifications'
p192
stRp193
ag3
(g4
g5
(dp194
g12
S'0'
sg13
S'change'
p195
sg15
S'db.change'
p196
sg17
S'Change'
p197
sg19
S'26'
p198
sg20
S'Changelists'
p199
stRp200
ag3
(g4
g5
(dp201
g114
S'contains records for pending changelists only.'
p202
sg12
S'0'
sg13
S'change'
p203
sg20
S'Subset of db.change'
p204
sg17
S'Change'
p205
sg19
S'27'
p206
sg15
S'db.changex'
p207
stRp208
ag3
(g4
g5
(dp209
g12
S'0'
sg13
S'descKey'
p210
sg15
S'db.desc'
p211
sg17
S'Desc'
p212
sg19
S'28'
p213
sg20
S'Change descriptions'
p214
stRp215
ag3
(g4
g5
(dp216
g12
S'0'
sg13
S'job'
p217
sg15
S'db.job'
p218
sg20
S'Job records'
p219
sg17
S'Job'
p220
sg19
S'29'
p221
sg70
g3
(g8
g9
(lp222
S'db.bodtext'
p223
aS'db.boddate'
p224
atRp225
stRp226
ag3
(g4
g5
(dp227
g12
S'0'
sg13
S'user, job'
p228
sg15
S'db.jobpend'
p229
sg20
S'Obsolete in 98.2'
p230
sg17
S'String'
p231
sg19
S'30'
p232
sg70
g3
(g8
g9
(lp233
S'db.bodtext'
p234
aS'db.boddate'
p235
atRp236
stRp237
ag3
(g4
g5
(dp238
g12
S'0'
sg13
S'job'
p239
sg15
S'db.jobdesc'
p240
sg20
S'Obsolete in 98.2'
p241
sg17
S'JobDesc'
p242
sg19
S'31'
p243
sg70
g3
(g8
g9
(lp244
S'db.bodtext'
p245
aS'db.boddate'
p246
atRp247
stRp248
ag3
(g4
g5
(dp249
g12
S'1'
sg13
S'job, change'
p250
sg15
S'db.fix'
p251
sg20
S'Fix records - indexed by job'
p252
sg17
S'Fix'
p253
sg19
S'32'
p254
sg70
S'db.fixrev'
p255
stRp256
ag3
(g4
g5
(dp257
g12
S'1'
sg13
S'change, job'
p258
sg15
S'db.fixrev'
p259
sg20
S'Fix records - indexed by change'
p260
sg17
S'Fix'
p261
sg19
S'33'
p262
sg70
S'db.fix'
p263
stRp264
ag3
(g4
g5
(dp265
g12
S'0'
sg13
S'key, attr'
p266
sg15
S'db.boddate'
p267
sg17
S'BodyDate'
p268
sg19
S'34'
p269
sg20
S'Job data for date-valued attributes'
p270
stRp271
ag3
(g4
g5
(dp272
g12
S'0'
sg13
S'key, attr'
p273
sg15
S'db.bodtext'
p274
sg17
S'BodyText'
p275
sg19
S'35'
p276
sg20
S'Job data for non-date attributes.'
p277
stRp278
ag3
(g4
g5
(dp279
g12
S'0'
sg13
S'date, attr, value'
p280
sg15
S'db.ixdate'
p281
sg20
S'Indexing data for date-valued job attributes.'
p282
sg17
S'IndexDate'
p283
sg19
S'36'
p284
sg70
S'db.ixtext'
p285
stRp286
ag3
(g4
g5
(dp287
g12
S'0'
sg13
S'word, attr, value'
p288
sg15
S'db.ixtext'
p289
sg20
S'Indexing data for non-date-valued job attributes.'
p290
sg17
S'IndexText'
p291
sg19
S'37'
p292
sg70
S'db.ixdate'
p293
stRp294
ag3
(g4
g5
(dp295
g12
S'4'
sg13
S'seq'
p296
sg15
S'db.protect'
p297
sg17
S'Protect'
p298
sg19
S'38'
p299
sg20
S'The protections table'
p300
stRp301
ag3
(g4
g5
(dp302
g12
S'0'
sg13
S'language, id'
p303
sg15
S'db.message'
p304
sg17
S'Message'
p305
sg19
S'39'
p306
sg20
S'System messages'
p307
stRp308
ag3
(g4
g5
(dp309
g12
S'1'
sg13
S'id'
p310
sg15
S'db.monitor'
p311
sg17
S'Monitor'
p312
sg19
S'40'
p313
sg20
S'System messages'
p314
stRp315
atRp316
stRp317
sg12
S'2007.3'
p318
sS'numUpgrades'
p319
S'18'
p320
sS'recordtypes'
p321
g3
(g4
g5
(dp322
S'record'
p323
g3
(g8
g9
(lp324
g3
(g4
g5
(dp325
S'column'
p326
g3
(g8
g9
(lp327
g3
(g4
g5
(dp328
g17
S'File'
p329
sg15
S'lbrFile'
p330
sg20
S"Specifies the location in the librarian's archives where\n\t\t    the revision may be found"
p331
stRp332
ag3
(g4
g5
(dp333
g17
S'Rev'
p334
sg15
S'lbrRev'
p335
sg20
S"Revision number in the librarian's archives"
p336
stRp337
ag3
(g4
g5
(dp338
g17
S'File'
p339
sg15
S'depotFile'
p340
sg20
S'Name of the file in the depot'
p341
stRp342
ag3
(g4
g5
(dp343
g17
S'Rev'
p344
sg15
S'depotRev'
p345
sg20
S'Name of the file in the depot'
p346
stRp347
ag3
(g4
g5
(dp348
g17
S'FileType'
p349
sg15
S'lbrType'
p350
sg20
S"File type for librarian's purposes"
p351
stRp352
atRp353
sg15
S'Archive'
p354
stRp355
ag3
(g4
g5
(dp356
g326
g3
(g8
g9
(lp357
g3
(g4
g5
(dp358
g17
S'File'
p359
sg15
S'lbrFile'
p360
sg20
S'Paths in the librarian namespace that provide lazy\n\t\t    copies.'
p361
stRp362
ag3
(g4
g5
(dp363
g17
S'File'
p364
sg15
S'depotFile'
p365
sg20
S'Paths in the depot namespace that receive lazy copies.'
p366
stRp367
atRp368
sg15
S'ArchMap'
p369
stRp370
ag3
(g4
g5
(dp371
g326
g3
(g8
g9
(lp372
g3
(g4
g5
(dp373
g17
S'String'
p374
sg15
S'key'
p375
sg20
S'The job to which this attribute belongs'
p376
stRp377
ag3
(g4
g5
(dp378
g17
S'Int'
p379
sg15
S'attr'
p380
sg20
S'The attribute number (from the jobspec) of this attribute'
p381
stRp382
ag3
(g4
g5
(dp383
g17
S'Date'
p384
sg15
S'date'
p385
sg20
S'The date value itself'
p386
stRp387
atRp388
sg15
S'BodyDate'
p389
stRp390
ag3
(g4
g5
(dp391
g326
g3
(g8
g9
(lp392
g3
(g4
g5
(dp393
g17
S'String'
p394
sg15
S'key'
p395
sg20
S'The job to which this attribute belongs'
p396
stRp397
ag3
(g4
g5
(dp398
g17
S'Int'
p399
sg15
S'attr'
p400
sg20
S'The attribute number (from the jobspec) of this attribute'
p401
stRp402
ag3
(g4
g5
(dp403
g17
S'Text'
p404
sg15
S'text'
p405
sg20
S'The attribute value'
p406
stRp407
atRp408
sg15
S'BodyText'
p409
stRp410
ag3
(g4
g5
(dp411
g326
g3
(g8
g9
(lp412
g3
(g4
g5
(dp413
g17
S'Change'
p414
sg15
S'change'
p415
sg20
S'The change number'
p416
stRp417
ag3
(g4
g5
(dp418
g17
S'Change'
p419
sg15
S'descKey'
p420
sg20
S"The description key. Normally the same as 'change', but\n\t\t    may differ if a changelist was renumbered on submission."
p421
stRp422
ag3
(g4
g5
(dp423
g17
S'Domain'
p424
sg15
S'client'
p425
sg20
S'The client from which the change originates'
p426
stRp427
ag3
(g4
g5
(dp428
g17
S'User'
p429
sg15
S'user'
p430
sg20
S'The user who owns the change'
p431
stRp432
ag3
(g4
g5
(dp433
g17
S'Date'
p434
sg15
S'date'
p435
sg20
S'Date and time the changelist was submitted'
p436
stRp437
ag3
(g4
g5
(dp438
g17
S'Int'
p439
sg15
S'status'
p440
sg20
S'Flag: 0 for pending changes; 1 for committed changes.'
p441
stRp442
ag3
(g4
g5
(dp443
g17
S'DescShort'
p444
sg15
S'description'
p445
sg20
S'Short description of the change.'
p446
stRp447
atRp448
sg15
S'Change'
p449
stRp450
ag3
(g4
g5
(dp451
g326
g3
(g8
g9
(lp452
g3
(g4
g5
(dp453
g17
S'Counter'
p454
sg15
S'name'
p455
sg20
S'Counter name'
p456
stRp457
ag3
(g4
g5
(dp458
g17
S'Int'
p459
sg15
S'value'
p460
sg20
S'Counter value'
p461
stRp462
atRp463
sg15
S'Counters'
p464
stRp465
ag3
(g4
g5
(dp466
g326
g3
(g8
g9
(lp467
g3
(g4
g5
(dp468
g17
S'Domain'
p469
sg15
S'name'
p470
sg20
S'Depot name'
p471
stRp472
ag3
(g4
g5
(dp473
g17
S'DepotType'
p474
sg15
S'type'
p475
sg20
S'Type of depot'
p476
stRp477
ag3
(g4
g5
(dp478
g17
S'Text'
p479
sg15
S'extra'
p480
sg20
S'For remote depots, the P4PORT address of the remote server.\n\t\t    For spec depots, the field contains a suffix to append to \n\t\t    the filename.'
p481
stRp482
ag3
(g4
g5
(dp483
g17
S'Text'
p484
sg15
S'map'
p485
sg20
S"The depot's map (path translation information).  For local \n\t\t    depots, this will be a path relative to the root directory.\n\t\t    For remote depots, this will be specified in terms of the \n\t\t    remote server's namespace."
p486
stRp487
atRp488
sg15
S'Depot'
p489
stRp490
ag3
(g4
g5
(dp491
g326
g3
(g8
g9
(lp492
g3
(g4
g5
(dp493
g17
S'Change'
p494
sg15
S'descKey'
p495
sg20
S'Original number of the change to which this description\n\t\t    applies. This may differ from the final change number if\n\t\t    the change is renumbered on submission.'
p496
stRp497
ag3
(g4
g5
(dp498
g17
S'Text'
p499
sg15
S'description'
p500
sg20
S'The change description itself'
p501
stRp502
atRp503
sg15
S'Desc'
p504
stRp505
ag3
(g4
g5
(dp506
g326
g3
(g8
g9
(lp507
g3
(g4
g5
(dp508
g17
S'Domain'
p509
sg15
S'name'
p510
sg20
S'Domain name'
p511
stRp512
ag3
(g4
g5
(dp513
g17
S'DomainType'
p514
sg15
S'type'
p515
sg20
S'Type of domain'
p516
stRp517
ag3
(g4
g5
(dp518
g17
S'Text'
p519
sg15
S'extra'
p520
sg20
S'Formerly "host". Associated host or, for labels, revision \n\t\t    number.'
p521
stRp522
ag3
(g4
g5
(dp523
g17
S'Text'
p524
sg15
S'mount'
p525
sg20
S'The client root'
p526
stRp527
ag3
(g4
g5
(dp528
g17
S'Text'
p529
sg15
S'mount2'
p530
sg20
S'Alternate client root'
p531
stRp532
ag3
(g4
g5
(dp533
g17
S'Text'
p534
sg15
S'mount3'
p535
sg20
S'Alternate client root'
p536
stRp537
ag3
(g4
g5
(dp538
g17
S'User'
p539
sg15
S'owner'
p540
sg20
S'Name of user who owns the domain.'
p541
stRp542
ag3
(g4
g5
(dp543
g17
S'Date'
p544
sg15
S'updateDate'
p545
sg20
S'Date of last update to domain specification.'
p546
stRp547
ag3
(g4
g5
(dp548
g17
S'Date'
p549
sg15
S'accessDate'
p550
sg20
S'Date of last access to domain specification.'
p551
stRp552
ag3
(g4
g5
(dp553
g17
S'DomainOpts'
p554
sg15
S'options'
p555
sg20
S'Options for client, label, and branch domains.'
p556
stRp557
ag3
(g4
g5
(dp558
g17
S'Text'
p559
sg15
S'description'
p560
sg20
S'Description of domain.'
p561
stRp562
atRp563
sg15
S'Domain'
p564
stRp565
ag3
(g4
g5
(dp566
g326
g3
(g8
g9
(lp567
g3
(g4
g5
(dp568
g17
S'String'
p569
sg15
S'job'
p570
sg20
S'Job name'
p571
stRp572
ag3
(g4
g5
(dp573
g17
S'Change'
p574
sg15
S'change'
p575
sg20
S'Changelist number'
p576
stRp577
ag3
(g4
g5
(dp578
g17
S'Date'
p579
sg15
S'date'
p580
sg20
S'Date fix was recorded (may differ from date change was\n\t\t    submitted).'
p581
stRp582
ag3
(g4
g5
(dp583
g17
S'FixStatus'
p584
sg15
S'status'
p585
sg20
S'Status of the job'
p586
stRp587
ag3
(g4
g5
(dp588
g17
S'Domain'
p589
sg15
S'client'
p590
sg20
S'The client where the fix originated'
p591
stRp592
ag3
(g4
g5
(dp593
g17
S'User'
p594
sg15
S'user'
p595
sg20
S'The user who fixed the job'
p596
stRp597
atRp598
sg15
S'Fix'
p599
stRp600
ag3
(g4
g5
(dp601
g326
g3
(g8
g9
(lp602
g3
(g4
g5
(dp603
g17
S'User'
p604
sg15
S'user'
p605
sg20
S'User name'
p606
stRp607
ag3
(g4
g5
(dp608
g17
S'User'
p609
sg15
S'group'
p610
sg20
S'Group name'
p611
stRp612
ag3
(g4
g5
(dp613
g17
S'UserType'
p614
sg15
S'type'
p615
sg20
S'Type of user in this group.'
p616
stRp617
ag3
(g4
g5
(dp618
g17
S'MaxResults'
p619
sg15
S'maxResults'
p620
sg20
S'MaxResults setting for the group.'
p621
stRp622
ag3
(g4
g5
(dp623
g17
S'MaxScanRows'
p624
sg15
S'maxScanRows'
p625
sg20
S'MaxScanRows setting for the group.'
p626
stRp627
ag3
(g4
g5
(dp628
g17
S'MaxLockTime'
p629
sg15
S'maxLockTime'
p630
sg20
S'MaxLockTime setting for the group.'
p631
stRp632
ag3
(g4
g5
(dp633
g17
S'Int'
p634
sg15
S'timeout'
p635
sg20
S'Length of time (in seconds) a login ticket remains valid.'
p636
stRp637
atRp638
sg15
S'Group'
p639
stRp640
ag3
(g4
g5
(dp641
g326
g3
(g8
g9
(lp642
g3
(g4
g5
(dp643
g17
S'File'
p644
sg15
S'clientFile'
p645
sg20
S'The file in its location on the client'
p646
stRp647
ag3
(g4
g5
(dp648
g17
S'File'
p649
sg15
S'depotFile'
p650
sg20
S'The file in the depot'
p651
stRp652
ag3
(g4
g5
(dp653
g17
S'Rev'
p654
sg15
S'haveRev'
p655
sg20
S'The revision synced to the client'
p656
stRp657
ag3
(g4
g5
(dp658
g17
S'FileType'
p659
sg15
S'type'
p660
sg20
S'The filetype of the synced revision'
p661
stRp662
atRp663
sg15
S'Have'
p664
stRp665
ag3
(g4
g5
(dp666
g326
g3
(g8
g9
(lp667
g3
(g4
g5
(dp668
g17
S'Date'
p669
sg15
S'date'
p670
sg20
S'Date value'
p671
stRp672
ag3
(g4
g5
(dp673
g17
S'Int'
p674
sg15
S'attr'
p675
sg20
S'The attribute number (from the jobspec) to which this\n\t\t    date belongs'
p676
stRp677
ag3
(g4
g5
(dp678
g17
S'String'
p679
sg15
S'value'
p680
sg20
S'A job name'
p681
stRp682
atRp683
sg15
S'IndexDate'
p684
stRp685
ag3
(g4
g5
(dp686
g326
g3
(g8
g9
(lp687
g3
(g4
g5
(dp688
g17
S'String'
p689
sg15
S'word'
p690
sg20
S'The word being indexed'
p691
stRp692
ag3
(g4
g5
(dp693
g17
S'Int'
p694
sg15
S'attr'
p695
sg20
S'The attribute number (from the jobspec) to which this\n\t\t    word belongs'
p696
stRp697
ag3
(g4
g5
(dp698
g17
S'String'
p699
sg15
S'value'
p700
sg20
S'A job name'
p701
stRp702
atRp703
sg15
S'IndexText'
p704
stRp705
ag3
(g4
g5
(dp706
g326
g3
(g8
g9
(lp707
g3
(g4
g5
(dp708
g17
S'File'
p709
sg15
S'toFile'
p710
sg20
S'File to which integration is being performed (target).'
p711
stRp712
ag3
(g4
g5
(dp713
g17
S'File'
p714
sg15
S'fromFile'
p715
sg20
S'File from which integration is being performed (source).'
p716
stRp717
ag3
(g4
g5
(dp718
g17
S'Rev'
p719
sg15
S'startFromRev'
p720
sg20
S'Starting revision of fromFile'
p721
stRp722
ag3
(g4
g5
(dp723
g17
S'Rev'
p724
sg15
S'endFromRev'
p725
sg20
S'Ending revision of fromFile. If integrating from a single \n\t\t    revision (not a revision range), the startFromRev and \n\t\t    endFromRev fields will be identical.'
p726
stRp727
ag3
(g4
g5
(dp728
g17
S'Rev'
p729
sg15
S'toRev'
p730
sg20
S'Revision of toFile into which integration is being \n\t\t    performed.'
p731
stRp732
ag3
(g4
g5
(dp733
g17
S'IntegHow'
p734
sg15
S'how'
p735
sg20
S'Integration method: variations on \n\t\t    merge/branch/copy/ignore/delete.'
p736
stRp737
ag3
(g4
g5
(dp738
g17
S'Int'
p739
sg15
S'committed'
p740
sg20
S'Flag: 0 for pending, 1 for committed.'
p741
stRp742
ag3
(g4
g5
(dp743
g17
S'ResolvedStatus'
p744
sg15
S'resolved'
p745
sg20
S'Resolution method: unresolved, resolved manually, \n\t\t    or resolved as part of a branch or delete.'
p746
stRp747
ag3
(g4
g5
(dp748
g17
S'Change'
p749
sg15
S'change'
p750
sg20
S'Changelist associated with the integration.'
p751
stRp752
atRp753
sg15
S'Integ'
p754
stRp755
ag3
(g4
g5
(dp756
g326
g3
(g8
g9
(lp757
g3
(g4
g5
(dp758
g17
S'File'
p759
sg15
S'toFile'
p760
sg20
S'File to which integration is being performed (target).'
p761
stRp762
ag3
(g4
g5
(dp763
g17
S'File'
p764
sg15
S'fromFile'
p765
sg20
S'File from which integration is being performed (source).'
p766
stRp767
ag3
(g4
g5
(dp768
g17
S'Rev'
p769
sg15
S'startFromRev'
p770
sg20
S'Starting revision of fromFile'
p771
stRp772
ag3
(g4
g5
(dp773
g17
S'Rev'
p774
sg15
S'endFromRev'
p775
sg20
S'Ending revision of fromFile. If integrating from a single \n\t\t    revision (not a revision range), the startFromRev and \n\t\t    endFromRev fields will be identical.'
p776
stRp777
ag3
(g4
g5
(dp778
g17
S'Rev'
p779
sg15
S'startToRev'
p780
sg20
S'Start revision of toFile into which integration was \n\t\t    performed.'
p781
stRp782
ag3
(g4
g5
(dp783
g17
S'Rev'
p784
sg15
S'endToRev'
p785
sg20
S'End revision of toFile into which integration was \n\t\t    performed. Only varies from startToRev for reverse \n\t\t    integration records.'
p786
stRp787
ag3
(g4
g5
(dp788
g17
S'IntegHow'
p789
sg15
S'how'
p790
sg20
S'Integration method: variations on \n\t\t    merge/branch/copy/ignore/delete.'
p791
stRp792
ag3
(g4
g5
(dp793
g17
S'Change'
p794
sg15
S'change'
p795
sg20
S'Changelist associated with the integration.'
p796
stRp797
atRp798
sg15
S'Integed'
p799
stRp800
ag3
(g4
g5
(dp801
g326
g3
(g8
g9
(lp802
g3
(g4
g5
(dp803
g17
S'String'
p804
sg15
S'job'
p805
sg20
S'The job name'
p806
stRp807
ag3
(g4
g5
(dp808
g17
S'User'
p809
sg15
S'xuser'
p810
sg20
S'User name: defunct'
p811
stRp812
ag3
(g4
g5
(dp813
g17
S'Date'
p814
sg15
S'xdate'
p815
sg20
S'The date: defunct'
p816
stRp817
ag3
(g4
g5
(dp818
g17
S'JobStat'
p819
sg15
S'xstatus'
p820
sg20
S'Job status: defunct'
p821
stRp822
ag3
(g4
g5
(dp823
g17
S'DescShort'
p824
sg15
S'description'
p825
sg20
S'Short description'
p826
stRp827
atRp828
sg15
S'Job'
p829
stRp830
ag3
(g4
g5
(dp831
g326
g3
(g8
g9
(lp832
g3
(g4
g5
(dp833
g17
S'String'
p834
sg15
S'xjob'
p835
sg20
S'The job name'
p836
stRp837
ag3
(g4
g5
(dp838
g17
S'Text'
p839
sg15
S'xdescription'
p840
sg20
S'Jobdescription'
p841
stRp842
atRp843
sg15
S'JobDesc'
p844
stRp845
ag3
(g4
g5
(dp846
g326
g3
(g8
g9
(lp847
g3
(g4
g5
(dp848
g17
S'Domain'
p849
sg15
S'name'
p850
sg20
S'Name of the label'
p851
stRp852
ag3
(g4
g5
(dp853
g17
S'File'
p854
sg15
S'depotFile'
p855
sg20
S'File name'
p856
stRp857
ag3
(g4
g5
(dp858
g17
S'Rev'
p859
sg15
S'haveRev'
p860
sg20
S'The revision of the file in the label'
p861
stRp862
atRp863
sg15
S'Label'
p864
stRp865
ag3
(g4
g5
(dp866
g326
g3
(g8
g9
(lp867
g3
(g4
g5
(dp868
g17
S'File'
p869
sg15
S'depotFile'
p870
sg20
S'File in depot'
p871
stRp872
ag3
(g4
g5
(dp873
g17
S'Domain'
p874
sg15
S'client'
p875
sg20
S'Domain (client) in which file is open'
p876
stRp877
ag3
(g4
g5
(dp878
g17
S'User'
p879
sg15
S'user'
p880
sg20
S'User who presently has the file open'
p881
stRp882
ag3
(g4
g5
(dp883
g17
S'Action'
p884
sg15
S'action'
p885
sg20
S'Action file is open for: add, edit, delete, branch,\n\t\t    integrate, or import'
p886
stRp887
ag3
(g4
g5
(dp888
g17
S'Int'
p889
sg15
S'isLocked'
p890
sg20
S'Flag: 0 for unlocked, 1 for locked'
p891
stRp892
ag3
(g4
g5
(dp893
g17
S'Int'
p894
sg15
S'change'
p895
sg20
S'Changelist in which the revision is open: 0 for the\n\t\t    default changelist'
p896
stRp897
atRp898
sg15
S'Locks'
p899
stRp900
ag3
(g4
g5
(dp901
g326
g3
(g8
g9
(lp902
g3
(g4
g5
(dp903
g17
S'Int'
p904
sg15
S'seq'
p905
sg20
S'Sequence number of event'
p906
stRp907
ag3
(g4
g5
(dp908
g17
S'String'
p909
sg15
S'key'
p910
sg20
S"Either the word 'change' or the word 'job'"
p911
stRp912
ag3
(g4
g5
(dp913
g17
S'String'
p914
sg15
S'attr'
p915
sg20
S'The number of the change, or name of the job that was \n\t\t    altered.'
p916
stRp917
atRp918
sg15
S'Logger'
p919
stRp920
ag3
(g4
g5
(dp921
g326
g3
(g8
g9
(lp922
g3
(g4
g5
(dp923
g17
S'String'
p924
sg15
S'language'
p925
sg20
S'The language for which this message applies'
p926
stRp927
ag3
(g4
g5
(dp928
g17
S'Int'
p929
sg15
S'id'
p930
sg20
S'The message number'
p931
stRp932
ag3
(g4
g5
(dp933
g17
S'String'
p934
sg15
S'message'
p935
sg20
S'The message text'
p936
stRp937
atRp938
sg15
S'Message'
p939
stRp940
ag3
(g4
g5
(dp941
g326
g3
(g8
g9
(lp942
g3
(g4
g5
(dp943
g17
S'Int'
p944
sg15
S'id'
p945
sg20
S'Thread/process id'
p946
stRp947
ag3
(g4
g5
(dp948
g17
S'User'
p949
sg15
S'user'
p950
sg20
S'Username of the user running the command'
p951
stRp952
ag3
(g4
g5
(dp953
g17
S'String'
p954
sg15
S'function'
p955
sg20
S'The command being executed.'
p956
stRp957
ag3
(g4
g5
(dp958
g17
S'String'
p959
sg15
S'args'
p960
sg20
S'Arguments passed to the command'
p961
stRp962
ag3
(g4
g5
(dp963
g17
S'Date'
p964
sg15
S'startDate'
p965
sg20
S'The date and time the command started'
p966
stRp967
ag3
(g4
g5
(dp968
g17
S'Int'
p969
sg15
S'runstate'
p970
sg20
S'Flag: 0 for running, 1 for terminated'
p971
stRp972
ag3
(g4
g5
(dp973
g17
S'Domain'
p974
sg15
S'client'
p975
sg20
S'The client workspace'
p976
stRp977
ag3
(g4
g5
(dp978
g17
S'Text'
p979
sg15
S'host'
p980
sg20
S'The IP address of the client'
p981
stRp982
ag3
(g4
g5
(dp983
g17
S'Text'
p984
sg15
S'prog'
p985
sg20
S'The name (and version) of the client program'
p986
stRp987
atRp988
sg15
S'Monitor'
p989
stRp990
ag3
(g4
g5
(dp991
g326
g3
(g8
g9
(lp992
g3
(g4
g5
(dp993
g17
S'Int'
p994
sg15
S'seq'
p995
sg20
S'Sequence number: for ordering the protections table'
p996
stRp997
ag3
(g4
g5
(dp998
g17
S'Int'
p999
sg15
S'isGroup'
p1000
sg20
S'Flag: 0 for a per-user setting, 1 for a per-group setting.'
p1001
stRp1002
ag3
(g4
g5
(dp1003
g17
S'UserWild'
p1004
sg15
S'user'
p1005
sg20
S'User(s), or Group(s) for whom this record applies.'
p1006
stRp1007
ag3
(g4
g5
(dp1008
g17
S'DomainWild'
p1009
sg15
S'host'
p1010
sg20
S'Domain(s) (IP addresses) for which this record applies.'
p1011
stRp1012
ag3
(g4
g5
(dp1013
g17
S'Perm'
p1014
sg15
S'perm'
p1015
sg20
S'Permissions to be granted/revoked'
p1016
stRp1017
ag3
(g4
g5
(dp1018
g17
S'MapFlag'
p1019
sg15
S'mapFlag'
p1020
sg20
S'Flag: Map the files in or out?'
p1021
stRp1022
ag3
(g4
g5
(dp1023
g17
S'Mapping'
p1024
sg15
S'depotFile'
p1025
sg20
S'Files to be mapped in or out.'
p1026
stRp1027
atRp1028
sg15
S'Protect'
p1029
stRp1030
ag3
(g4
g5
(dp1031
g326
g3
(g8
g9
(lp1032
g3
(g4
g5
(dp1033
g17
S'File'
p1034
sg15
S'toFile'
p1035
sg20
S'File to which integration is being performed (target).'
p1036
stRp1037
ag3
(g4
g5
(dp1038
g17
S'File'
p1039
sg15
S'fromFile'
p1040
sg20
S'File from which integration is being performed (source).'
p1041
stRp1042
ag3
(g4
g5
(dp1043
g17
S'Rev'
p1044
sg15
S'startFromRev'
p1045
sg20
S'Starting revision of fromFile'
p1046
stRp1047
ag3
(g4
g5
(dp1048
g17
S'Rev'
p1049
sg15
S'endFromRev'
p1050
sg20
S'Ending revision of fromFile. If integrating from a single \n\t\t    revision (not a revision range), the startFromRev and \n\t\t    endFromRev fields will be identical.'
p1051
stRp1052
ag3
(g4
g5
(dp1053
g17
S'Rev'
p1054
sg15
S'startToRev'
p1055
sg20
S'Start revision of toFile into which integration was \n\t\t    performed.'
p1056
stRp1057
ag3
(g4
g5
(dp1058
g17
S'Rev'
p1059
sg15
S'endToRev'
p1060
sg20
S'End revision of toFile into which integration was \n\t\t    performed. Only varies from startToRev for reverse \n\t\t    integration records.'
p1061
stRp1062
ag3
(g4
g5
(dp1063
g17
S'IntegHow'
p1064
sg15
S'how'
p1065
sg20
S'Integration method: variations on \n\t\t    merge/branch/copy/ignore/delete.'
p1066
stRp1067
ag3
(g4
g5
(dp1068
g17
S'ResolvedStatus'
p1069
sg15
S'resolved'
p1070
sg20
S'How the user performed the resolve.'
p1071
stRp1072
ag3
(g4
g5
(dp1073
g17
S'File'
p1074
sg15
S'baseFile'
p1075
sg20
S'File used as the base for merging.'
p1076
stRp1077
ag3
(g4
g5
(dp1078
g17
S'Rev'
p1079
sg15
S'baseRev'
p1080
sg20
S'Revision of baseFile used as the merge base.'
p1081
stRp1082
atRp1083
sg15
S'Resolve'
p1084
stRp1085
ag3
(g4
g5
(dp1086
g326
g3
(g8
g9
(lp1087
g3
(g4
g5
(dp1088
g17
S'File'
p1089
sg15
S'depotFile'
p1090
sg20
S'The file name'
p1091
stRp1092
ag3
(g4
g5
(dp1093
g17
S'Rev'
p1094
sg15
S'depotRev'
p1095
sg20
S'The revision number'
p1096
stRp1097
ag3
(g4
g5
(dp1098
g17
S'FileType'
p1099
sg15
S'type'
p1100
sg20
S'The file type of the revision'
p1101
stRp1102
ag3
(g4
g5
(dp1103
g17
S'Action'
p1104
sg15
S'action'
p1105
sg20
S'The action that created the revision'
p1106
stRp1107
ag3
(g4
g5
(dp1108
g17
S'Change'
p1109
sg15
S'change'
p1110
sg20
S'The changelist that created the revision'
p1111
stRp1112
ag3
(g4
g5
(dp1113
g17
S'Date'
p1114
sg15
S'date'
p1115
sg20
S'The date/time the changelist that created the revision\n\t\t    was submitted'
p1116
stRp1117
ag3
(g4
g5
(dp1118
g17
S'Date'
p1119
sg15
S'modTime'
p1120
sg20
S"The timestamp on the file in the user's workspace when\n\t\t    the revision was submitted."
p1121
stRp1122
ag3
(g4
g5
(dp1123
g17
S'Digest'
p1124
sg15
S'digest'
p1125
sg20
S'The MD5 digest of the revision.'
p1126
stRp1127
ag3
(g4
g5
(dp1128
g17
S'FileSize'
p1129
sg15
S'size'
p1130
sg20
S'The size of the file in bytes'
p1131
stRp1132
ag3
(g4
g5
(dp1133
g17
S'TraitLot'
p1134
sg15
S'traitLot'
p1135
sg20
S'Group of traits (attributes) associated with the revision.'
p1136
stRp1137
ag3
(g4
g5
(dp1138
g17
S'Int'
p1139
sg15
S'lbrIsLazy'
p1140
sg20
S'Flag specifying whether or not the revision gets its\n\t\t    content from another file (i.e. whether or not depotFile\n\t\t    and lbrFile differ)'
p1141
stRp1142
ag3
(g4
g5
(dp1143
g17
S'File'
p1144
sg15
S'lbrFile'
p1145
sg20
S"Filename for librarian's purposes.  Specifies location in \n\t\t    the archives where the file containing the revision may\n\t\t    be found. Usually the same as depotFile, but differs in\n\t\t    the case of branched/copied revisions."
p1146
stRp1147
ag3
(g4
g5
(dp1148
g17
S'Rev'
p1149
sg15
S'lbrRev'
p1150
sg20
S'The revision of lbrFile that contains the revision content.\n\t\t    Usually the same as depotRev, but differs in the case of\n\t\t    branched/copied revisions.'
p1151
stRp1152
ag3
(g4
g5
(dp1153
g17
S'FileType'
p1154
sg15
S'lbrType'
p1155
sg20
S'The file type of the librarian revision. Usually the same\n\t\t    as type, but differs in the case of branched/copied \n\t\t    revisions.'
p1156
stRp1157
atRp1158
sg15
S'Rev'
p1159
stRp1160
ag3
(g4
g5
(dp1161
g326
g3
(g8
g9
(lp1162
g3
(g4
g5
(dp1163
g17
S'Change'
p1164
sg15
S'change'
p1165
sg20
S'The changelist that created the revision'
p1166
stRp1167
ag3
(g4
g5
(dp1168
g17
S'File'
p1169
sg15
S'depotFile'
p1170
sg20
S'The file name'
p1171
stRp1172
ag3
(g4
g5
(dp1173
g17
S'Rev'
p1174
sg15
S'depotRev'
p1175
sg20
S'The revision number'
p1176
stRp1177
ag3
(g4
g5
(dp1178
g17
S'Action'
p1179
sg15
S'action'
p1180
sg20
S'The action that created the revision'
p1181
stRp1182
atRp1183
sg15
S'RevCx'
p1184
stRp1185
ag3
(g4
g5
(dp1186
g326
g3
(g8
g9
(lp1187
g3
(g4
g5
(dp1188
g17
S'User'
p1189
sg15
S'user'
p1190
sg20
S'A user name'
p1191
stRp1192
ag3
(g4
g5
(dp1193
g17
S'Int'
p1194
sg15
S'seq'
p1195
sg20
S'Sequence number: used for ordering multi-line views'
p1196
stRp1197
ag3
(g4
g5
(dp1198
g17
S'MapFlag'
p1199
sg15
S'mapFlag'
p1200
sg20
S'Type of mapping'
p1201
stRp1202
ag3
(g4
g5
(dp1203
g17
S'Mapping'
p1204
sg15
S'depotFile'
p1205
sg20
S'The files to be reviewed'
p1206
stRp1207
ag3
(g4
g5
(dp1208
g17
S'Reviewer'
p1209
sg15
S'type'
p1210
sg20
S'Type of reviewer'
p1211
stRp1212
atRp1213
sg15
S'Review'
p1214
stRp1215
ag3
(g4
g5
(dp1216
g326
g3
(g8
g9
(lp1217
g3
(g4
g5
(dp1218
g17
S'Int'
p1219
sg15
S'traitLot'
p1220
sg20
S'Indicates a specific collection of traits (referred to \n\t\t    externally as "attributes".)'
p1221
stRp1222
ag3
(g4
g5
(dp1223
g17
S'String'
p1224
sg15
S'name'
p1225
sg20
S'Trait (attribute) name'
p1226
stRp1227
ag3
(g4
g5
(dp1228
g17
S'TraitType'
p1229
sg15
S'type'
p1230
sg20
S'Type of trait'
p1231
stRp1232
ag3
(g4
g5
(dp1233
g17
S'Octet'
p1234
sg15
S'value'
p1235
sg20
S'The value'
p1236
stRp1237
atRp1238
sg15
S'Trait'
p1239
stRp1240
ag3
(g4
g5
(dp1241
g326
g3
(g8
g9
(lp1242
g3
(g4
g5
(dp1243
g17
S'Int'
p1244
sg15
S'seq'
p1245
sg20
S'Sequence number: for ordering the trigger list'
p1246
stRp1247
ag3
(g4
g5
(dp1248
g17
S'String'
p1249
sg15
S'name'
p1250
sg20
S'Name of the trigger'
p1251
stRp1252
ag3
(g4
g5
(dp1253
g17
S'MapFlag'
p1254
sg15
S'mapFlag'
p1255
sg20
S'Type of mapping: specifies whether the trigger applies \n\t\t    to the files or not.'
p1256
stRp1257
ag3
(g4
g5
(dp1258
g17
S'Mapping'
p1259
sg15
S'depotFile'
p1260
sg20
S'The files to apply the trigger to'
p1261
stRp1262
ag3
(g4
g5
(dp1263
g17
S'Trigger'
p1264
sg15
S'trigger'
p1265
sg20
S'Type of trigger'
p1266
stRp1267
ag3
(g4
g5
(dp1268
g17
S'Text'
p1269
sg15
S'action'
p1270
sg20
S'Command to execute when trigger runs'
p1271
stRp1272
atRp1273
sg15
S'Trigger'
p1274
stRp1275
ag3
(g4
g5
(dp1276
g326
g3
(g8
g9
(lp1277
g3
(g4
g5
(dp1278
g17
S'User'
p1279
sg15
S'user'
p1280
sg20
S'The username'
p1281
stRp1282
ag3
(g4
g5
(dp1283
g17
S'Text'
p1284
sg15
S'email'
p1285
sg20
S"The user's email address"
p1286
stRp1287
ag3
(g4
g5
(dp1288
g17
S'Text'
p1289
sg15
S'jobView'
p1290
sg20
S"The user's job view"
p1291
stRp1292
ag3
(g4
g5
(dp1293
g17
S'Date'
p1294
sg15
S'updateDate'
p1295
sg20
S'The date/time the user record was last updated'
p1296
stRp1297
ag3
(g4
g5
(dp1298
g17
S'Date'
p1299
sg15
S'accessDate'
p1300
sg20
S'The date/time the user record was last used'
p1301
stRp1302
ag3
(g4
g5
(dp1303
g17
S'Text'
p1304
sg15
S'fullName'
p1305
sg20
S"The user's full name"
p1306
stRp1307
ag3
(g4
g5
(dp1308
g17
S'Password'
p1309
sg15
S'password'
p1310
sg20
S'The MD5 hash of the users (encrypted) password'
p1311
stRp1312
ag3
(g4
g5
(dp1313
g17
S'Strength'
p1314
sg15
S'strength'
p1315
sg20
S"Measure of the strength of the user's password"
p1316
stRp1317
ag3
(g4
g5
(dp1318
g17
S'Password'
p1319
sg15
S'ticket'
p1320
sg20
S"'p4 login' ticket for this user"
p1321
stRp1322
ag3
(g4
g5
(dp1323
g17
S'Date'
p1324
sg15
S'endDate'
p1325
sg20
S"Date/time the user's ticket expires"
p1326
stRp1327
atRp1328
sg15
S'User'
p1329
stRp1330
ag3
(g4
g5
(dp1331
g326
g3
(g8
g9
(lp1332
g3
(g4
g5
(dp1333
g17
S'Domain'
p1334
sg15
S'name'
p1335
sg20
S'Domain name to which this view applies'
p1336
stRp1337
ag3
(g4
g5
(dp1338
g17
S'Int'
p1339
sg15
S'seq'
p1340
sg20
S'Sequence number: for ordering multi-line views'
p1341
stRp1342
ag3
(g4
g5
(dp1343
g17
S'MapFlag'
p1344
sg15
S'mapFlag'
p1345
sg20
S'Type of mapping'
p1346
stRp1347
ag3
(g4
g5
(dp1348
g17
S'Mapping'
p1349
sg15
S'viewFile'
p1350
sg20
S"The right-hand-side of the view. For clients, this is\n\t\t    the client-side, for labels it's the generated label \n\t\t    view. For branches, it's the target side of the branch\n\t\t    view."
p1351
stRp1352
ag3
(g4
g5
(dp1353
g17
S'Mapping'
p1354
sg15
S'depotFile'
p1355
sg20
S'The left-hand-side of the view - a mapping to file(s)\n\t\t    in the depot.'
p1356
stRp1357
atRp1358
sg15
S'View'
p1359
stRp1360
ag3
(g4
g5
(dp1361
g326
g3
(g8
g9
(lp1362
g3
(g4
g5
(dp1363
g17
S'File'
p1364
sg15
S'clientFile'
p1365
sg20
S'File on the client'
p1366
stRp1367
ag3
(g4
g5
(dp1368
g17
S'File'
p1369
sg15
S'depotFile'
p1370
sg20
S'File in the depot'
p1371
stRp1372
ag3
(g4
g5
(dp1373
g17
S'Domain'
p1374
sg15
S'client'
p1375
sg20
S'The client the file is opened on'
p1376
stRp1377
ag3
(g4
g5
(dp1378
g17
S'User'
p1379
sg15
S'user'
p1380
sg20
S'The user who has the file opened'
p1381
stRp1382
ag3
(g4
g5
(dp1383
g17
S'Rev'
p1384
sg15
S'haveRev'
p1385
sg20
S"Revision presently in user's client workspace.  This is \n\t\t    normally identical to workRev except for the case in which \n\t\t    you've tried to submit a file where you no longer have the \n\t\t    head revision. Perforce schedules the integrate (moves \n\t\t    workRev to headRev, but doesn't change the haveRev, so that \n\t\t    a p4 revert will return the file originally checked-out \n\t\t    instead of the new head revision."
p1386
stRp1387
ag3
(g4
g5
(dp1388
g17
S'Rev'
p1389
sg15
S'workRev'
p1390
sg20
S'Working revision; this is identical to the haveRev except \n\t\t    in the case described above.'
p1391
stRp1392
ag3
(g4
g5
(dp1393
g17
S'Int'
p1394
sg15
S'isVirtual'
p1395
sg20
S'Flag: if 1, file was opened with "p4 integ -v".'
p1396
stRp1397
ag3
(g4
g5
(dp1398
g17
S'FileType'
p1399
sg15
S'type'
p1400
sg20
S'File type'
p1401
stRp1402
ag3
(g4
g5
(dp1403
g17
S'Action'
p1404
sg15
S'action'
p1405
sg20
S"What the user's doing with the file"
p1406
stRp1407
ag3
(g4
g5
(dp1408
g17
S'Change'
p1409
sg15
S'change'
p1410
sg20
S'Associated changelist, or zero for the default changelist.'
p1411
stRp1412
ag3
(g4
g5
(dp1413
g17
S'Date'
p1414
sg15
S'modTime'
p1415
sg20
S'Date when file was opened and added to the pending \n\t\t    changelist.'
p1416
stRp1417
ag3
(g4
g5
(dp1418
g17
S'Int'
p1419
sg15
S'isLocked'
p1420
sg20
S'Flag: 0 for unlocked, 1 for locked.'
p1421
stRp1422
ag3
(g4
g5
(dp1423
g17
S'Digest'
p1424
sg15
S'digest'
p1425
sg20
S'MD5 digest of working file.'
p1426
stRp1427
ag3
(g4
g5
(dp1428
g17
S'Int64'
p1429
sg15
S'size'
p1430
sg20
S'File size'
p1431
stRp1432
ag3
(g4
g5
(dp1433
g17
S'int'
p1434
sg15
S'traitLot'
p1435
sg20
S'Group of traits associated with file revision.'
p1436
stRp1437
ag3
(g4
g5
(dp1438
g17
S'TamperCheck'
p1439
sg15
S'tampered'
p1440
sg20
S'Flag indicating the tamper-state of the file in the\n\t\t    workspace.'
p1441
stRp1442
ag3
(g4
g5
(dp1443
g17
S'FileType'
p1444
sg15
S'clntType'
p1445
sg20
S'Type of the file in the client workspace.'
p1446
stRp1447
atRp1448
sg15
S'Working'
p1449
stRp1450
atRp1451
stRp1452
sS'upgrades'
p1453
g3
(g4
g5
(dp1454
S'upgrade'
p1455
g3
(g8
g9
(lp1456
g3
(g4
g5
(dp1457
S'release'
p1458
S'2001.1'
p1459
sS'index'
p1460
S'1'
sg20
S'Split db.integ into db.integed and db.resolve'
p1461
stRp1462
ag3
(g4
g5
(dp1463
g1458
S'2001.1'
p1464
sg1460
S'2'
sg20
S'Splt db.have into db.have and db.label'
p1465
stRp1466
ag3
(g4
g5
(dp1467
g1458
S'2002.1'
p1468
sg1460
S'3'
sg20
S'Split db.change into db.change and db.changex'
p1469
stRp1470
ag3
(g4
g5
(dp1471
g1458
S'2002.2'
p1472
sg1460
S'4'
sg20
S'Upgrade tempobj filetype in db.rev'
p1473
stRp1474
ag3
(g4
g5
(dp1475
g1458
S'2002.2'
p1476
sg1460
S'5'
sg20
S'Upgrade tempobj filetype in db.working'
p1477
stRp1478
ag3
(g4
g5
(dp1479
g1458
S'2003.1'
p1480
sg1460
S'6'
sg20
S'JnlInitialize default depot'
p1481
stRp1482
ag3
(g4
g5
(dp1483
g1458
S'2003.2'
p1484
sg1460
S'7'
sg20
S'Upgrade db.user'
p1485
stRp1486
ag3
(g4
g5
(dp1487
g1458
S'2005.1'
p1488
sg1460
S'8'
sg20
S'Build db.revhx (headrev) table'
p1489
stRp1490
ag3
(g4
g5
(dp1491
g1458
S'2005.1'
p1492
sg1460
S'9'
sg20
S'Rebuild db.locks from db.working'
p1493
stRp1494
ag3
(g4
g5
(dp1495
g1458
S'2005.1'
p1496
sg1460
S'10'
p1497
sg114
S'Removed in 2006.2'
p1498
sg20
S'Build lazy-copy index (db.archive)'
p1499
stRp1500
ag3
(g4
g5
(dp1501
g1458
S'2005.2'
p1502
sg1460
S'11'
p1503
sg20
S'Build db.revdx (delrev) table'
p1504
stRp1505
ag3
(g4
g5
(dp1506
g1458
S'2005.2'
p1507
sg1460
S'12'
p1508
sg114
S'Moved to 16 in 2007.3'
p1509
sg20
S'Build haveMap from db.have/db.working'
p1510
stRp1511
ag3
(g4
g5
(dp1512
g1458
S'2005.2'
p1513
sg1460
S'13'
p1514
sg20
S'Move spec depot entries into db.revsx'
p1515
stRp1516
ag3
(g4
g5
(dp1517
g1458
S'2006.2'
p1518
sg1460
S'14'
p1519
sg114
S'Moved to 17 in 2007.3'
p1520
sg20
S'Build db.archmap (lazy-copy map) table'
p1521
stRp1522
ag3
(g4
g5
(dp1523
g1458
S'2006.2'
p1524
sg1460
S'15'
p1525
sg114
S'Moved to 18 in 2007.3'
p1526
sg20
S'Remove (obsolete) db.archive table'
p1527
stRp1528
ag3
(g4
g5
(dp1529
g1458
S'2007.3'
p1530
sg1460
S'16'
p1531
sg114
S'Rewritten in 2007.3'
p1532
sg20
S'Build/Rebuild haveMap from db.have/db.working'
p1533
stRp1534
ag3
(g4
g5
(dp1535
g1458
S'2007.3'
p1536
sg1460
S'17'
p1537
sg114
S'Rewritten in 2007.3'
p1538
sg20
S'Build/Rebuild db.archmap (lazy-copy map) table'
p1539
stRp1540
ag3
(g4
g5
(dp1541
g1458
S'2007.3'
p1542
sg1460
S'18'
p1543
sg114
S'Moved from 15 in 2007.3'
p1544
sg20
S'Remove (obsolete) db.archive table'
p1545
stRp1546
atRp1547
stRp1548
sS'datatypes'
p1549
g3
(g4
g5
(dp1550
S'datatype'
p1551
g3
(g8
g9
(lp1552
g3
(g4
g5
(dp1553
g17
S'flag'
p1554
sS'summary'
p1555
S'Type of action'
p1556
sS'values'
p1557
g3
(g8
g9
(lp1558
g3
(g4
g5
(dp1559
S'value'
p1560
S'0'
sg20
S'add; user adds a file'
p1561
stRp1562
ag3
(g4
g5
(dp1563
g1560
S'1'
sg20
S'edit; user edits a file'
p1564
stRp1565
ag3
(g4
g5
(dp1566
g1560
S'2'
sg20
S'delete; user deletes a file'
p1567
stRp1568
ag3
(g4
g5
(dp1569
g1560
S'3'
sg20
S'branch; add via integration'
p1570
stRp1571
ag3
(g4
g5
(dp1572
g1560
S'4'
sg20
S'integ; edit via integration'
p1573
stRp1574
ag3
(g4
g5
(dp1575
g1560
S'5'
sg20
S'import; add via remote depot'
p1576
stRp1577
ag3
(g4
g5
(dp1578
g1560
S'6'
sg20
S'purge; purged revision, no longer available'
p1579
stRp1580
atRp1581
sg15
S'Action'
p1582
sg20
S'Revisions are produced by user actions. The Action\n\t\ttype defines the available actions and their internal values.'
p1583
stRp1584
ag3
(g4
g5
(dp1585
g1555
S'A changelist number'
p1586
sg17
S'integer'
p1587
sg15
S'Change'
p1588
sg20
S'The number of a changelist. The number 0 represents the\n\t\tdefault pending changelist.'
p1589
stRp1590
ag3
(g4
g5
(dp1591
g1555
S'A counter name'
p1592
sg17
S'string'
p1593
sg15
S'Counter'
p1594
sg20
S'A string representing the counter name. Counter names must \n\t\tcontain no spaces, contain no slashes, and be identifiers \n\t\t(cannot begin with a dash and cannot be all-numeric)'
p1595
stRp1596
ag3
(g4
g5
(dp1597
g1555
S'A unix-style date and time'
p1598
sg17
S'integer'
p1599
sg15
S'Date'
p1600
sg20
S'A date and time represented as the number of seconds since \n\t\tthe Epoch: 01 January 1970 00:00:00 UTC. This is the same \n\t\tconvention as that used on Unix platforms.'
p1601
stRp1602
ag3
(g4
g5
(dp1603
g17
S'flag'
p1604
sg1555
S'Type of Depot'
p1605
sg1557
g3
(g8
g9
(lp1606
g3
(g4
g5
(dp1607
g1560
S'0'
sg20
S'A local depot'
p1608
stRp1609
ag3
(g4
g5
(dp1610
g1560
S'1'
sg20
S'A remote depot'
p1611
stRp1612
ag3
(g4
g5
(dp1613
g1560
S'2'
sg20
S'A spec depot'
p1614
stRp1615
atRp1616
sg15
S'DepotType'
p1617
sg20
S'The type of a given depot'
p1618
stRp1619
ag3
(g4
g5
(dp1620
g1555
S'A short string value'
p1621
sg20
S'The first 31 characters of a Text string'
p1622
sg17
S'string'
p1623
sg15
S'DescShort'
p1624
sg70
S'Text'
p1625
stRp1626
ag3
(g4
g5
(dp1627
g1555
S'An MD5 digest'
p1628
sg17
S'string'
p1629
sg15
S'Digest'
p1630
sg20
S'A string containing an MD5 digest.'
p1631
stRp1632
ag3
(g4
g5
(dp1633
g1555
S'A domain name'
p1634
sg17
S'string'
p1635
sg15
S'Domain'
p1636
sg20
S'A string representing the name of a depot, label, client,\n\t\tbranch or typemap.'
p1637
stRp1638
ag3
(g4
g5
(dp1639
g1555
S'A string with optional wildcards'
p1640
sg17
S'string'
p1641
sg15
S'DomainWild'
p1642
sg20
S'A string that may contain wildcards - usually an IP address\n\t\tin the protections table.'
p1643
stRp1644
ag3
(g4
g5
(dp1645
g1557
g3
(g8
g9
(lp1646
g3
(g4
g5
(dp1647
S'mask'
p1648
S'Domain Flags'
p1649
sg1560
S'0x0001'
p1650
sg20
S'modtime'
p1651
stRp1652
ag3
(g4
g5
(dp1653
g1648
S'Domain Flags'
p1654
sg1560
S'0x0002'
p1655
sg20
S'clobber'
p1656
stRp1657
ag3
(g4
g5
(dp1658
g1648
S'Domain Flags'
p1659
sg1560
S'0x0004'
p1660
sg20
S'allwrite'
p1661
stRp1662
ag3
(g4
g5
(dp1663
g1648
S'Domain Flags'
p1664
sg1560
S'0x0008'
p1665
sg20
S'locked'
p1666
stRp1667
ag3
(g4
g5
(dp1668
g1648
S'Domain Flags'
p1669
sg1560
S'0x0020'
p1670
sg20
S'compress'
p1671
stRp1672
ag3
(g4
g5
(dp1673
g1648
S'Domain Flags'
p1674
sg1560
S'0x0040'
p1675
sg20
S'rmdir'
p1676
stRp1677
ag3
(g4
g5
(dp1678
g1648
S'Domain Flags'
p1679
sg1560
S'0x1000'
p1680
sg20
S'indirect (obsolete since 2004.2)'
p1681
stRp1682
ag3
(g4
g5
(dp1683
g1648
S'Domain LineEnd'
p1684
sg1560
S'0x0000'
p1685
sg20
S'local'
p1686
stRp1687
ag3
(g4
g5
(dp1688
g1648
S'Domain LineEnd'
p1689
sg1560
S'0x0010'
p1690
sg20
S'unix (LF)'
p1691
stRp1692
ag3
(g4
g5
(dp1693
g1648
S'Domain LineEnd'
p1694
sg1560
S'0x0200'
p1695
sg20
S'mac (CR)'
p1696
stRp1697
ag3
(g4
g5
(dp1698
g1648
S'Domain LineEnd'
p1699
sg1560
S'0x0300'
p1700
sg20
S'win (CRLF)'
p1701
stRp1702
ag3
(g4
g5
(dp1703
g1648
S'Domain LineEnd'
p1704
sg1560
S'0x0400'
p1705
sg20
S'share (LFCRLF)'
p1706
stRp1707
atRp1708
sg15
S'DomainOpts'
p1709
sg1648
g3
(g8
g9
(lp1710
g3
(g4
g5
(dp1711
g15
S'Domain Flags'
p1712
sg1560
S'0x10EF'
p1713
sg20
S'Bits used to store the domain options'
p1714
stRp1715
ag3
(g4
g5
(dp1716
g15
S'Domain LineEnd'
p1717
sg1560
S'0x0710'
p1718
sg20
S'Bits used to store the line termination settings.'
p1719
stRp1720
atRp1721
sg1555
S'Options for domains'
p1722
sg17
S'bitmask'
p1723
sg20
S'A integer value representing the options for a domain'
p1724
stRp1725
ag3
(g4
g5
(dp1726
g17
S'flag'
p1727
sg1555
S'A domain type'
p1728
sg1557
g3
(g8
g9
(lp1729
g3
(g4
g5
(dp1730
g1560
S"98 (ASCII 'b')"
p1731
sg20
S'branch'
p1732
stRp1733
ag3
(g4
g5
(dp1734
g1560
S"99 (ASCII 'c')"
p1735
sg20
S'client'
p1736
stRp1737
ag3
(g4
g5
(dp1738
g1560
S"100 (ASCII 'd')"
p1739
sg20
S'depot'
p1740
stRp1741
ag3
(g4
g5
(dp1742
g1560
S"108 (ASCII 'l')"
p1743
sg20
S'label'
p1744
stRp1745
ag3
(g4
g5
(dp1746
g1560
S"116 (ASCII 't')"
p1747
sg20
S'typemap'
p1748
stRp1749
atRp1750
sg15
S'DomainType'
p1751
sg20
S'A integer value representing the type of a domain'
p1752
stRp1753
ag3
(g4
g5
(dp1754
g1555
S'A file name'
p1755
sg20
S'A string representing the filename'
p1756
sg17
S'string'
p1757
sg15
S'File'
p1758
sg70
S'FileType'
p1759
stRp1760
ag3
(g4
g5
(dp1761
g1555
S'A file size'
p1762
sg17
S'integer'
p1763
sg15
S'FileSize'
p1764
sg20
S'A 64-bit integer used to store file sizes. The value -1 is\n\t\tused to represent unknown filesizes.'
p1765
stRp1766
ag3
(g4
g5
(dp1767
g1557
g3
(g8
g9
(lp1768
g3
(g4
g5
(dp1769
g1648
S'Storage Type'
p1770
sg1560
S'0x0000'
p1771
sg20
S'RCS'
p1772
stRp1773
ag3
(g4
g5
(dp1774
g1648
S'Storage Type'
p1775
sg1560
S'0x0001'
p1776
sg20
S'Binary'
p1777
stRp1778
ag3
(g4
g5
(dp1779
g1648
S'Storage Type'
p1780
sg1560
S'0x0002'
p1781
sg20
S'Tiny'
p1782
stRp1783
ag3
(g4
g5
(dp1784
g1648
S'Storage Type'
p1785
sg1560
S'0x0003'
p1786
sg20
S'Compressed'
p1787
stRp1788
ag3
(g4
g5
(dp1789
g1648
S'Storage Type'
p1790
sg1560
S'0x0004'
p1791
sg20
S'tempobj (deprecated since 2002.1)'
p1792
stRp1793
ag3
(g4
g5
(dp1794
g1648
S'Storage Type'
p1795
sg1560
S'0x0005'
p1796
sg20
S'Detect type. Used internally when no type is\n\t\t    given by the user.'
p1797
stRp1798
ag3
(g4
g5
(dp1799
g1648
S'Storage Type'
p1800
sg1560
S'0x0006'
p1801
sg20
S'Comressed tempobj (deprecated since 2002.1)'
p1802
stRp1803
ag3
(g4
g5
(dp1804
g1648
S'Storage Type'
p1805
sg1560
S'0x0007'
p1806
sg20
S'Binary access to compressed data. Used internally.'
p1807
stRp1808
ag3
(g4
g5
(dp1809
g1648
S'Storage Mods'
p1810
sg1560
S'0x0010'
p1811
sg20
S'99.2-style keyword expansion/contraction'
p1812
stRp1813
ag3
(g4
g5
(dp1814
g1648
S'Storage Mods'
p1815
sg1560
S'0x0020'
p1816
sg20
S'2000.1-style keyword expansion/contraction'
p1817
stRp1818
ag3
(g4
g5
(dp1819
g1648
S'Storage Mods'
p1820
sg1560
S'0x0030'
p1821
sg20
S'Any type of keyword expansion'
p1822
stRp1823
ag3
(g4
g5
(dp1824
g1648
S'Storage Mods'
p1825
sg1560
S'0x0040'
p1826
sg20
S'Exclusive open'
p1827
stRp1828
ag3
(g4
g5
(dp1829
g1648
S'Storage Mods'
p1830
sg1560
S'0x0080'
p1831
sg20
S'New tempobj (+S modifier)'
p1832
stRp1833
ag3
(g4
g5
(dp1834
g1648
S'Tempobj revisions'
p1835
sg1560
S'0x0000'
p1836
sg20
S'+S1'
p1837
stRp1838
ag3
(g4
g5
(dp1839
g1648
S'Tempobj revisions'
p1840
sg1560
S'0x0100'
p1841
sg20
S'+S2'
p1842
stRp1843
ag3
(g4
g5
(dp1844
g1648
S'Tempobj revisions'
p1845
sg1560
S'0x0200'
p1846
sg20
S'+S3'
p1847
stRp1848
ag3
(g4
g5
(dp1849
g1648
S'Tempobj revisions'
p1850
sg1560
S'0x0300'
p1851
sg20
S'+S4'
p1852
stRp1853
ag3
(g4
g5
(dp1854
g1648
S'Tempobj revisions'
p1855
sg1560
S'0x0400'
p1856
sg20
S'+S5'
p1857
stRp1858
ag3
(g4
g5
(dp1859
g1648
S'Tempobj revisions'
p1860
sg1560
S'0x0500'
p1861
sg20
S'+S6'
p1862
stRp1863
ag3
(g4
g5
(dp1864
g1648
S'Tempobj revisions'
p1865
sg1560
S'0x0600'
p1866
sg20
S'+S7'
p1867
stRp1868
ag3
(g4
g5
(dp1869
g1648
S'Tempobj revisions'
p1870
sg1560
S'0x0700'
p1871
sg20
S'+S8'
p1872
stRp1873
ag3
(g4
g5
(dp1874
g1648
S'Tempobj revisions'
p1875
sg1560
S'0x0800'
p1876
sg20
S'+S9'
p1877
stRp1878
ag3
(g4
g5
(dp1879
g1648
S'Tempobj revisions'
p1880
sg1560
S'0x0900'
p1881
sg20
S'+S10'
p1882
stRp1883
ag3
(g4
g5
(dp1884
g1648
S'Tempobj revisions'
p1885
sg1560
S'0x0A00'
p1886
sg20
S'+S16'
p1887
stRp1888
ag3
(g4
g5
(dp1889
g1648
S'Tempobj revisions'
p1890
sg1560
S'0x0B00'
p1891
sg20
S'+S32'
p1892
stRp1893
ag3
(g4
g5
(dp1894
g1648
S'Tempobj revisions'
p1895
sg1560
S'0x0C00'
p1896
sg20
S'+S64'
p1897
stRp1898
ag3
(g4
g5
(dp1899
g1648
S'Tempobj revisions'
p1900
sg1560
S'0x0D00'
p1901
sg20
S'+S128'
p1902
stRp1903
ag3
(g4
g5
(dp1904
g1648
S'Tempobj revisions'
p1905
sg1560
S'0x0E00'
p1906
sg20
S'+S256'
p1907
stRp1908
ag3
(g4
g5
(dp1909
g1648
S'Tempobj revisions'
p1910
sg1560
S'0x0F00'
p1911
sg20
S'+S512'
p1912
stRp1913
ag3
(g4
g5
(dp1914
g1648
S'Client Type'
p1915
sg1560
S'0x0000000'
p1916
sg20
S'text'
p1917
stRp1918
ag3
(g4
g5
(dp1919
g1648
S'Client Type'
p1920
sg1560
S'0x0010000'
p1921
sg20
S'binary'
p1922
stRp1923
ag3
(g4
g5
(dp1924
g1648
S'Client Type'
p1925
sg1560
S'0x0020000'
p1926
sg20
S'executable bit set'
p1927
stRp1928
ag3
(g4
g5
(dp1929
g1648
S'Client Type'
p1930
sg1560
S'0x0040000'
p1931
sg20
S'symlink'
p1932
stRp1933
ag3
(g4
g5
(dp1934
g1648
S'Client Type'
p1935
sg1560
S'0x0050000'
p1936
sg20
S'resource fork'
p1937
stRp1938
ag3
(g4
g5
(dp1939
g1648
S'Client Type'
p1940
sg1560
S'0x0080000'
p1941
sg20
S'unicode'
p1942
stRp1943
ag3
(g4
g5
(dp1944
g1648
S'Client Type'
p1945
sg1560
S'0x0090000'
p1946
sg20
S'raw text (nocrlf - 99.1)'
p1947
stRp1948
ag3
(g4
g5
(dp1949
g1648
S'Client Type'
p1950
sg1560
S'0x00C0000'
p1951
sg20
S'apple data + resource file (since 2000.2)'
p1952
stRp1953
ag3
(g4
g5
(dp1954
g1648
S'Client Type'
p1955
sg1560
S'0x00D0000'
p1956
sg20
S'apple data + resource file (99.2)'
p1957
stRp1958
ag3
(g4
g5
(dp1959
g1648
S'Client Type'
p1960
sg1560
S'0x1000000'
p1961
sg20
S'Used to support filetype detection'
p1962
stRp1963
ag3
(g4
g5
(dp1964
g1648
S'Client Mods'
p1965
sg1560
S'0x0100000'
p1966
sg20
S'writable'
p1967
stRp1968
ag3
(g4
g5
(dp1969
g1648
S'Client Mods'
p1970
sg1560
S'0x0200000'
p1971
sg20
S'modtime'
p1972
stRp1973
ag3
(g4
g5
(dp1974
g1648
S'Client Mods'
p1975
sg1560
S'0x0400000'
p1976
sg20
S'uncompress on client'
p1977
stRp1978
atRp1979
sg15
S'FileType'
p1980
sg1648
g3
(g8
g9
(lp1981
g3
(g4
g5
(dp1982
g15
S'Storage Type'
p1983
sg1560
S'0x000F'
p1984
sg20
S"Bits used to store the server's storage type"
p1985
stRp1986
ag3
(g4
g5
(dp1987
g15
S'Storage Mods'
p1988
sg1560
S'0x00F0'
p1989
sg20
S"Bits used to store the modifiers to the server's storage \n\t\t    type"
p1990
stRp1991
ag3
(g4
g5
(dp1992
g15
S'Tempobj revisions'
p1993
sg1560
S'0x0F00'
p1994
sg20
S'Bits used to store the number of revisions to be stored\n\t\t    for +Sn files.'
p1995
stRp1996
ag3
(g4
g5
(dp1997
g15
S'Client Type'
p1998
sg1560
S'0x10D0000'
p1999
sg20
S"Bits used to store the file type from the client's point\n\t\t    of view."
p2000
stRp2001
ag3
(g4
g5
(dp2002
g15
S'Client Mods'
p2003
sg1560
S'0x720000'
p2004
sg20
S'Bits used to store the modifiers applied to the file\n\t\t    on the client.'
p2005
stRp2006
atRp2007
sg1555
S'Type of file'
p2008
sg17
S'bitmask'
p2009
sg20
S'The FileType is a bitmask specifying the type and modifiers\n\t\tof a revision from both the client and server points of view.\n\t\tThe first 16 bits are used to store the storage type and \n\t\tmodifiers, the next 16 bits are used to store the client \n\t\taccess method and modifiers.'
p2010
stRp2011
ag3
(g4
g5
(dp2012
g1555
S'Status of a fixed job'
p2013
sg17
S'string'
p2014
sg15
S'FixStatus'
p2015
sg20
S'This type is a wrapper around the \'Text\' type that handles\n\t\tthe pre-2000.1 "closed" default value.'
p2016
stRp2017
ag3
(g4
g5
(dp2018
g1555
S'A 32-bit integer'
p2019
sg17
S'integer'
p2020
sg15
S'Int'
p2021
sg20
S'A 32-bit integer'
p2022
stRp2023
ag3
(g4
g5
(dp2024
g1555
S'An 8-bit integer'
p2025
sg17
S'integer'
p2026
sg15
S'Int8'
p2027
sg20
S'An 8-bit integer: an unsigned char'
p2028
stRp2029
ag3
(g4
g5
(dp2030
g1555
S'A 64-bit integer'
p2031
sg17
S'integer'
p2032
sg15
S'Int64'
p2033
sg20
S'A 64-bit integer.'
p2034
stRp2035
ag3
(g4
g5
(dp2036
g114
S'All integration records should have a corresponding \n\t\treverse record. The \'branch from\' (2) and \'merge from\' (0) \n\t\trecords have corresponding "dirty" reverse records for cases \n\t\twhere the target file took more than one change or was \n\t\t(re)opened for \'edit\' or \'add\'.'
p2037
sg1557
g3
(g8
g9
(lp2038
g3
(g4
g5
(dp2039
g1560
S'0'
sg20
S'merge from: integration with other changes'
p2040
stRp2041
ag3
(g4
g5
(dp2042
g1560
S'1'
sg20
S'merge into: reverse merge'
p2043
stRp2044
ag3
(g4
g5
(dp2045
g1560
S'2'
sg20
S'branch from: integration was branch of file'
p2046
stRp2047
ag3
(g4
g5
(dp2048
g1560
S'3'
sg20
S'branch into: reverse branch'
p2049
stRp2050
ag3
(g4
g5
(dp2051
g1560
S'4'
sg20
S'copy from: integration took source file whole'
p2052
stRp2053
ag3
(g4
g5
(dp2054
g1560
S'5'
sg20
S'copy into: reverse take'
p2055
stRp2056
ag3
(g4
g5
(dp2057
g1560
S'6'
sg20
S'ignored: integration ignored source changes'
p2058
stRp2059
ag3
(g4
g5
(dp2060
g1560
S'7'
sg20
S'ignored by: reverse copy'
p2061
stRp2062
ag3
(g4
g5
(dp2063
g1560
S'8'
sg20
S'delete from: integration of delete'
p2064
stRp2065
ag3
(g4
g5
(dp2066
g1560
S'9'
sg20
S'delete into: reverse delete'
p2067
stRp2068
ag3
(g4
g5
(dp2069
g1560
S'10'
p2070
sg20
S'dirty merge into: reverse of integration downgraded to \n\t\t    edit'
p2071
stRp2072
ag3
(g4
g5
(dp2073
g1560
S'11'
p2074
sg20
S'dirty branch into: reverse of branch downgraded to add'
p2075
stRp2076
ag3
(g4
g5
(dp2077
g1560
S'12'
p2078
sg20
S'dirty merge from; merge that the user edited'
p2079
stRp2080
atRp2081
sg15
S'IntegHow'
p2082
sg1555
S'Integration methods'
p2083
sg17
S'flag'
p2084
sg20
S"Specifies how an integration was performed. Integrations\n\t\talways come in pairs: the 'forward' and 'reverse' records.\n\t\tAs a general rule, the forward records contain the word \n\t\t'from'; and the reverse records contain the word 'into'."
p2085
stRp2086
ag3
(g4
g5
(dp2087
g17
S'flag'
p2088
sg1555
S'Job status - defunct'
p2089
sg1557
g3
(g8
g9
(lp2090
g3
(g4
g5
(dp2091
g1560
S'0'
sg20
S'open'
p2092
stRp2093
ag3
(g4
g5
(dp2094
g1560
S'1'
sg20
S'closed'
p2095
stRp2096
ag3
(g4
g5
(dp2097
g1560
S'2'
sg20
S'suspended'
p2098
stRp2099
atRp2100
sg15
S'JobStat'
p2101
sg20
S'Old (pre-98.2) job status values.'
p2102
stRp2103
ag3
(g4
g5
(dp2104
g17
S'flag'
p2105
sg1555
S'Types of mapping'
p2106
sg1557
g3
(g8
g9
(lp2107
g3
(g4
g5
(dp2108
g1560
S'0'
sg20
S'mapped-in (the default)'
p2109
stRp2110
ag3
(g4
g5
(dp2111
g1560
S'1'
sg20
S"mapped-out (mappings that start with '-')"
p2112
stRp2113
ag3
(g4
g5
(dp2114
g1560
S'2'
sg20
S"overlay (mappings that start with '+')"
p2115
stRp2116
ag3
(g4
g5
(dp2117
g1560
S'3'
sg20
S"haveMap (mappings that start with '$'). Used internally\n\t\t    only"
p2118
stRp2119
atRp2120
sg15
S'MapFlag'
p2121
sg20
S'Specifies how the files specified by a mapping should be\n\t\ttreated'
p2122
stRp2123
ag3
(g4
g5
(dp2124
g1555
S'A string representing a mapping'
p2125
sg17
S'string'
p2126
sg15
S'Mapping'
p2127
sg20
S'A Mapping is essentially a file name that may contain\n\t\twildcards'
p2128
stRp2129
ag3
(g4
g5
(dp2130
g1555
S'Maximum number of milliseconds to hold locks'
p2131
sg17
S'integer'
p2132
sg15
S'MaxLockTime'
p2133
sg20
S"The number of milliseconds for which a command may hold locks.\n\t\tCommands that take longer than this time period will abort. \n\t\tThe value 0 means 'unlimited'."
p2134
stRp2135
ag3
(g4
g5
(dp2136
g1555
S'Maximum number of results permitted'
p2137
sg17
S'integer'
p2138
sg15
S'MaxResults'
p2139
sg20
S"The number of results that commands run by the restricted\n\t\tuser are permitted to return. The value 0 means 'unlimited'."
p2140
stRp2141
ag3
(g4
g5
(dp2142
g1555
S'Maximum number of records scanned'
p2143
sg17
S'integer'
p2144
sg15
S'MaxScanRows'
p2145
sg20
S"The maximum number of records that the server may read\n\t\ton behalf of the restricted user. The value 0 means \n\t\t'unlimited'."
p2146
stRp2147
ag3
(g4
g5
(dp2148
g1555
S'Encoded hex string'
p2149
sg17
S'string'
p2150
sg15
S'Octet'
p2151
sg20
S'A variable length encoded hex string.'
p2152
stRp2153
ag3
(g4
g5
(dp2154
g1555
S'The MD5 hash of a password'
p2155
sg17
S'string'
p2156
sg15
S'Password'
p2157
sg20
S'The MD5 hash of an encrypted password.'
p2158
stRp2159
ag3
(g4
g5
(dp2160
g17
S'flag'
p2161
sg1555
S'Resolve methods'
p2162
sg1557
g3
(g8
g9
(lp2163
g3
(g4
g5
(dp2164
g1560
S'0'
sg20
S'Not yet resolved'
p2165
stRp2166
ag3
(g4
g5
(dp2167
g1560
S'1'
sg20
S'Resolved manually'
p2168
stRp2169
ag3
(g4
g5
(dp2170
g1560
S'2'
sg20
S'Resolved automatically as part of a branch'
p2171
stRp2172
ag3
(g4
g5
(dp2173
g1560
S'3'
sg20
S'Resolved automatically as part of a delete'
p2174
stRp2175
atRp2176
sg15
S'ResolvedStatus'
p2177
sg20
S'Specifies how the user resolved merge operations.'
p2178
stRp2179
ag3
(g4
g5
(dp2180
g1555
S'A revision number'
p2181
sg17
S'integer'
p2182
sg15
S'Rev'
p2183
sg20
S"The positive integer number of a specific revision of a file. \n\t\tThe number 0 represents '#none'."
p2184
stRp2185
ag3
(g4
g5
(dp2186
g1555
S'Type of reviewer'
p2187
sg17
S'integer'
p2188
sg15
S'Reviewer'
p2189
sg20
S'The type of reviewer. Currently there is only one type of\n\t\treviewer and 0 is the only valid value.'
p2190
stRp2191
ag3
(g4
g5
(dp2192
g17
S'flag'
p2193
sg1555
S'Strength check of a password'
p2194
sg1557
g3
(g8
g9
(lp2195
g3
(g4
g5
(dp2196
g1560
S'0'
sg20
S'Strength unknown'
p2197
stRp2198
ag3
(g4
g5
(dp2199
g1560
S'1'
sg20
S'Password is strong'
p2200
stRp2201
ag3
(g4
g5
(dp2202
g1560
S'2'
sg20
S'Password is not strong'
p2203
stRp2204
atRp2205
sg15
S'Strength'
p2206
sg20
S"Whether or not a user's password has been tested for strength."
p2207
stRp2208
ag3
(g4
g5
(dp2209
S'restriction'
p2210
g3
(g8
g9
(lp2211
S'Cannot be empty'
p2212
aS'Cannot consist solely of a dash (-)'
p2213
aS'Cannot be all-numeric'
p2214
aS'Cannot contain non-printable characters'
p2215
aS'Spaces are replaced with underscores ( _ )'
p2216
aS'Revision characters (# and @) are prohibited'
p2217
aS'Slashes (/) are prohibited'
p2218
aS'Wildcards (... and *) are prohibited'
p2219
atRp2220
sg1555
S'A string up to 1024 characters long'
p2221
sg17
S'string'
p2222
sg15
S'String'
p2223
sg20
S'A string up to 1024 characters in length.  Depending on the \n\t\tcontext in which the string is used, restrictions \n\t\tmay apply. Strings are often used as key fields in the \n\t\tschema.'
p2224
stRp2225
ag3
(g4
g5
(dp2226
g17
S'flag'
p2227
sg1555
S'Tamper-state of workspace file'
p2228
sg1557
g3
(g8
g9
(lp2229
g3
(g4
g5
(dp2230
g1560
S'0'
sg20
S'Do not check for tampering'
p2231
stRp2232
ag3
(g4
g5
(dp2233
g1560
S'1'
sg20
S'Check for tampering'
p2234
stRp2235
ag3
(g4
g5
(dp2236
g1560
S'2'
sg20
S'Tamper-check failed'
p2237
stRp2238
atRp2239
sg15
S'TamperCheck'
p2240
sg20
S'Indicates the tamper-state of a file in a workspace. This\n\t\tis used to decide whether or not to check the file, and\n\t\tif checked, to hold the result.'
p2241
stRp2242
ag3
(g4
g5
(dp2243
g1555
S'A string value'
p2244
sg17
S'string'
p2245
sg15
S'Text'
p2246
sg20
S'A text string value - used to hold longer blocks of text.'
p2247
stRp2248
ag3
(g4
g5
(dp2249
g1555
S'The id of a group of traits'
p2250
sg17
S'integer'
p2251
sg15
S'TraitLot'
p2252
sg20
S'An integer identifying a group of traits which may be\n\t\tshared by several revisions.'
p2253
stRp2254
ag3
(g4
g5
(dp2255
g17
S'flag'
p2256
sg1555
S'A type of trait'
p2257
sg1557
g3
(g8
g9
(lp2258
g3
(g4
g5
(dp2259
g1560
S'0'
sg20
S'special trait for reference counting'
p2260
stRp2261
ag3
(g4
g5
(dp2262
g1560
S'1'
sg20
S'Binary trait'
p2263
stRp2264
ag3
(g4
g5
(dp2265
g1560
S'2'
sg20
S'Binary trait that gets propagated'
p2266
stRp2267
atRp2268
sg15
S'TraitType'
p2269
sg20
S'The type of trait.'
p2270
stRp2271
ag3
(g4
g5
(dp2272
g17
S'flag'
p2273
sg1555
S'A type of trigger'
p2274
sg1557
g3
(g8
g9
(lp2275
g3
(g4
g5
(dp2276
g1560
S'0'
sg20
S'change-submit (formerly pre-submit triggers)'
p2277
stRp2278
ag3
(g4
g5
(dp2279
g1560
S'1'
sg20
S'change-content'
p2280
stRp2281
ag3
(g4
g5
(dp2282
g1560
S'2'
sg20
S'change-commit'
p2283
stRp2284
ag3
(g4
g5
(dp2285
g1560
S'3'
sg20
S'form-in'
p2286
stRp2287
ag3
(g4
g5
(dp2288
g1560
S'4'
sg20
S'form-out'
p2289
stRp2290
ag3
(g4
g5
(dp2291
g1560
S'5'
sg20
S'form-save'
p2292
stRp2293
ag3
(g4
g5
(dp2294
g1560
S'6'
sg20
S'form-delete'
p2295
stRp2296
ag3
(g4
g5
(dp2297
g1560
S'7'
sg20
S'form-commit'
p2298
stRp2299
ag3
(g4
g5
(dp2300
g1560
S'8'
sg20
S'auth-check'
p2301
stRp2302
ag3
(g4
g5
(dp2303
g1560
S'9'
sg20
S'auth-set'
p2304
stRp2305
atRp2306
sg15
S'Trigger'
p2307
sg20
S'The type of a trigger.'
p2308
stRp2309
ag3
(g4
g5
(dp2310
g1555
S'A user or group name'
p2311
sg20
S'The name of a Perforce user or group.'
p2312
sg17
S'string'
p2313
sg15
S'User'
p2314
sg70
S'String'
p2315
stRp2316
ag3
(g4
g5
(dp2317
g17
S'flag'
p2318
sg1555
S'The type of a user within a group'
p2319
sg1557
g3
(g8
g9
(lp2320
g3
(g4
g5
(dp2321
g1560
S'0'
sg20
S'User'
p2322
stRp2323
ag3
(g4
g5
(dp2324
g1560
S'1'
sg20
S'Sub-group'
p2325
stRp2326
ag3
(g4
g5
(dp2327
g1560
S'2'
sg20
S'Owner'
p2328
stRp2329
atRp2330
sg15
S'UserType'
p2331
sg20
S'The role of a user (or group) within a group.'
p2332
stRp2333
ag3
(g4
g5
(dp2334
g1555
S'A user or group name with wildcards'
p2335
sg20
S'A user/group name that may contain wildcards (*)'
p2336
sg17
S'string'
p2337
sg15
S'UserWild'
p2338
sg70
S'User'
p2339
stRp2340
atRp2341
stRp2342
s.