(dp1
S'tables'
p2
ccopy_reg
_reconstructor
p3
(clib.sqUtils
Storage
p4
c__builtin__
dict
p5
(dp6
S'table'
p7
g3
(clib.sqUtils
Lst
p8
c__builtin__
list
p9
(lp10
g3
(g4
g5
(dp11
S'version'
p12
S'1'
sS'classic_lockseq'
p13
S'1'
sS'keying'
p14
S'serverName, name'
p15
sS'peek_lockseq'
p16
S'1'
sS'name'
p17
S'db.config'
p18
sS'type'
p19
S'Config'
p20
sS'desc'
p21
S'Server configurations table'
p22
stRp23
ag3
(g4
g5
(dp24
g12
S'1'
sg13
S'2'
sg14
S'name'
p25
sg16
S'2'
sg17
S'db.counters'
p26
sg19
S'Counters'
p27
sg21
S'Counters table'
p28
stRp29
ag3
(g4
g5
(dp30
g12
S'1'
sg13
S'3'
sg14
S'name'
p31
sg16
S'3'
sg17
S'db.nameval'
p32
sg19
S'Keys'
p33
sg21
S'A table to store key/value pairs'
p34
stRp35
ag3
(g4
g5
(dp36
g12
S'0'
sg13
S'4'
sg14
S'seq'
p37
sg16
S'4'
sg17
S'db.logger'
p38
sg19
S'Logger'
p39
sg21
S"Support for 'p4 logger' command. Logs any changes to \n\t\tchangelists and jobs"
p40
stRp41
ag3
(g4
g5
(dp42
g12
S'0'
sg13
S'5'
sg14
S'name'
p43
sg16
S'5'
sg17
S'db.ldap'
p44
sg19
S'Ldap'
p45
sg21
S'LDAP specifications'
p46
stRp47
ag3
(g4
g5
(dp48
g12
S'2'
sg13
S'6'
sg14
S'id'
p49
sg16
S'6'
sg17
S'db.server'
p50
sg19
S'Server'
p51
sg21
S'Server specifications'
p52
stRp53
ag3
(g4
g5
(dp54
g12
S'0'
sg13
S'7'
sg14
S'id, type, seq'
p55
sg16
S'7'
sg17
S'db.svrview'
p56
sg19
S'SvrView'
p57
sg21
S'View data for servers specifications'
p58
stRp59
ag3
(g4
g5
(dp60
g12
S'1'
sg13
S'8'
sg14
S'id'
p61
sg16
S'8'
sg17
S'db.remote'
p62
sg19
S'Remote'
p63
sg21
S'Remote specifications'
p64
stRp65
ag3
(g4
g5
(dp66
g12
S'1'
sg13
S'9'
sg14
S'id, seq'
p67
sg16
S'9'
sg17
S'db.rmtview'
p68
sg19
S'RmtView'
p69
sg21
S'View data for remote specifications'
p70
stRp71
ag3
(g4
g5
(dp72
g12
S'0'
sg13
S'10'
p73
sg14
S'client, stream, type, seq'
p74
sg16
S'10'
p75
sg17
S'db.stash'
p76
sg19
S'Stash'
p77
sg21
S'Stash data'
p78
stRp79
ag3
(g4
g5
(dp80
g12
S'7'
sg13
S'11'
p81
sg14
S'user'
p82
sg16
S'11'
p83
sg17
S'db.user.rp'
p84
sg19
S'User'
p85
sg21
S"Used by replica server's to store login information"
p86
stRp87
ag3
(g4
g5
(dp88
g12
S'7'
sg13
S'12'
p89
sg14
S'user'
p90
sg16
S'12'
p91
sg17
S'db.user'
p92
sg19
S'User'
p93
sg21
S'User specifications'
p94
stRp95
ag3
(g4
g5
(dp96
g12
S'9'
sg13
S'13'
p97
sg14
S'user, group'
p98
sg16
S'13'
p99
sg17
S'db.group'
p100
sg19
S'Group'
p101
sg21
S'Group specifications'
p102
stRp103
ag3
(g4
g5
(dp104
g12
S'0'
sg13
S'14'
p105
sg14
S'group'
p106
sg16
S'14'
p107
sg17
S'db.groupx'
p108
sg19
S'GroupX'
p109
sg21
S'Per-group data to support group membership controlled by AD/LDAP group membership'
p110
stRp111
ag3
(g4
g5
(dp112
g12
S'1'
sg13
S'15'
p113
sg14
S'name'
p114
sg16
S'15'
p115
sg17
S'db.depot'
p116
sg19
S'Depot'
p117
sg21
S'Depot specifications'
p118
stRp119
ag3
(g4
g5
(dp120
g12
S'1'
sg13
S'16'
p121
sg14
S'stream'
p122
sg16
S'16'
p123
sg17
S'db.stream'
p124
sg19
S'Stream'
p125
sg21
S'Stream specifications'
p126
stRp127
ag3
(g4
g5
(dp128
g12
S'6'
sg13
S'17'
p129
sg14
S'name'
p130
sg16
S'17'
p131
sg17
S'db.domain'
p132
sg19
S'Domain'
p133
sg21
S'Domains: depots, clients, labels, branches, streams, and typemap'
p134
stRp135
ag3
(g4
g5
(dp136
g12
S'3'
sg13
S'18'
p137
sg14
S'name, change, sequence'
p138
sg16
S'18'
p139
sg17
S'db.template'
p140
sg19
S'Template'
p141
sg21
S'Streams templates'
p142
stRp143
ag3
(g4
g5
(dp144
g12
S'0'
sg13
S'19'
p145
sg14
S'shelf, name, sequence'
p146
sg16
S'19'
p147
sg17
S'db.templatesx'
p148
sg19
S'TemplateSx'
p149
sg21
S'Shelved stream templates'
p150
stRp151
ag3
(g4
g5
(dp152
g12
S'0'
sg13
S'20'
p153
sg14
S'client, name, sequence'
p154
sg16
S'20'
p155
sg17
S'db.templatewx'
p156
sg19
S'TemplateWx'
p157
sg21
S'Pending stream templates'
p158
stRp159
ag3
(g4
g5
(dp160
g12
S'1'
sg13
S'21'
p161
sg14
S'name seq'
p162
sg16
S'21'
p163
sg17
S'db.view.rp'
p164
sg19
S'View'
p165
sg21
S'View data for clients of build-server replicas'
p166
stRp167
ag3
(g4
g5
(dp168
g12
S'1'
sg13
S'22'
p169
sg14
S'name, seq'
p170
sg16
S'22'
p171
sg17
S'db.view'
p172
sg19
S'View'
p173
sg21
S'View data for domain records'
p174
stRp175
ag3
(g4
g5
(dp176
g12
S'1'
sg13
S'23'
p177
sg14
S'user, seq'
p178
sg16
S'23'
p179
sg17
S'db.review'
p180
sg19
S'Review'
p181
sg21
S"User's review mappings"
p182
stRp183
ag3
(g4
g5
(dp184
g14
S'toFile, fromFile, startFromRev, endFromRev, \n\t\tstartToRev, endToRev'
p185
sg16
S'28'
p186
sg17
S'db.integed'
p187
sg12
S'0'
sg13
S'24'
p188
sS'seeAlso'
p189
S'db.resolve'
p190
sg19
S'Integed'
p191
sg21
S'Permanent integration records'
p192
stRp193
ag3
(g4
g5
(dp194
g14
S'toFile, fromFile, startFromRev, endFromRev, \n\t\tstartToRev, endToRev'
p195
sg16
S'29'
p196
sg17
S'db.integtx'
p197
sg12
S'0'
sg13
S'25'
p198
sg189
S'db.resolve'
p199
sg19
S'Integed'
p200
sg21
S'Temporary integration records used by task streams'
p201
stRp202
ag3
(g4
g5
(dp203
g14
S'toFile, fromFile, startFromRev'
p204
sg16
S'30'
p205
sg17
S'db.resolve'
p206
sg12
S'1'
sg13
S'26'
p207
sg189
S'db.integed'
p208
sg19
S'Resolve'
p209
sg21
S'Pending integration records'
p210
stRp211
ag3
(g4
g5
(dp212
g14
S'toFile, fromFile, startFromRev'
p213
sg16
S'31'
p214
sg17
S'db.resolvex'
p215
sg12
S'1'
sg13
S'27'
p216
sg189
S'db.integed'
p217
sg19
S'Resolve'
p218
sg21
S'Pending integration records for shelved files'
p219
stRp220
ag3
(g4
g5
(dp221
g12
S'3'
sg13
S'28'
p222
sg14
S'clientFile depotFile haveRev'
p223
sg16
S'25'
p224
sg17
S'db.have.rp'
p225
sg19
S'Have'
p226
sg21
S"Contains the 'have-list' for clients of build-server replicas"
p227
stRp228
ag3
(g4
g5
(dp229
g12
S'3'
sg13
S'29'
p230
sg14
S'clientFile depotFile haveRev'
p231
sg16
S'26'
p232
sg17
S'db.have.pt'
p233
sg19
S'Have'
p234
sg21
S'Placeholder for read-only clients'
p235
stRp236
ag3
(g4
g5
(dp237
g12
S'3'
sg13
S'30'
p238
sg14
S'clientFile'
p239
sg16
S'27'
p240
sg17
S'db.have'
p241
sg19
S'Have'
p242
sg21
S"Contains the 'have-list' for all clients"
p243
stRp244
ag3
(g4
g5
(dp245
g12
S'0'
sg13
S'31'
p246
sg14
S'name, depotFile'
p247
sg16
S'24'
p248
sg17
S'db.label'
p249
sg19
S'Label'
p250
sg21
S'Revisions of files in labels'
p251
stRp252
ag3
(g4
g5
(dp253
g12
S'2'
sg13
S'32'
p254
sg14
S'depotFile, client'
p255
sg16
S'43'
p256
sg17
S'db.locks'
p257
sg19
S'Locks'
p258
sg21
S'Locked/Unlocked files'
p259
stRp260
ag3
(g4
g5
(dp261
g12
S'1'
sg13
S'33'
p262
sg14
S'depotFile'
p263
sg16
S'46'
p264
sg17
S'db.excl'
p265
sg19
S'ExclusiveLock'
p266
sg21
S'Exclusively locked (+l) files -  enables coordinated file locking in commit/edge server environments'
p267
stRp268
ag3
(g4
g5
(dp269
g14
S'lbrFile, depotFile'
p270
sg16
S'32'
p271
sg17
S'db.archmap'
p272
sS'note'
p273
S'Supercedes db.archive'
p274
sg12
S'0'
sg13
S'34'
p275
sg19
S'ArchMap'
p276
sg21
S'Mapping entries for lazy-copies'
p277
stRp278
ag3
(g4
g5
(dp279
g12
S'9'
sg13
S'35'
p280
sg14
S'depotFile, depotRev'
p281
sg16
S'41'
p282
sg17
S'db.rev'
p283
sg19
S'Rev'
p284
sg21
S'Revision records'
p285
stRp286
ag3
(g4
g5
(dp287
g12
S'9'
sg13
S'36'
p288
sg14
S'depotFile, depotRev'
p289
sg16
S'42'
p290
sg17
S'db.revtx'
p291
sg19
S'Rev'
p292
sg21
S'Task stream revision records'
p293
stRp294
ag3
(g4
g5
(dp295
g12
S'0'
sg13
S'37'
p296
sg14
S'change, depotFile'
p297
sg16
S'40'
p298
sg17
S'db.revcx'
p299
sg19
S'RevCx'
p300
sg21
S'Secondary index of db.rev'
p301
stRp302
ag3
(g4
g5
(dp303
g12
S'9'
sg13
S'38'
p304
sg14
S'depotFile'
p305
sg16
S'33'
p306
sg17
S'db.revdx'
p307
sg19
S'Rev'
p308
sg21
S'Revision records for revisions deleted at the head revision'
p309
stRp310
ag3
(g4
g5
(dp311
g12
S'9'
sg13
S'39'
p312
sg14
S'depotFile'
p313
sg16
S'34'
p314
sg17
S'db.revhx'
p315
sg19
S'Rev'
p316
sg21
S'Revision records for revisions NOT deleted at the head revision'
p317
stRp318
ag3
(g4
g5
(dp319
g14
S'depotFile, depotRev'
p320
sg16
S'35'
p321
sg17
S'db.revpx'
p322
sg273
S'Only populated during content trigger execution to allow \n\t\ttriggers access to the revisions being submitted.'
p323
sg12
S'9'
sg13
S'40'
p324
sg19
S'Rev'
p325
sg21
S'Pending revision records'
p326
stRp327
ag3
(g4
g5
(dp328
g12
S'9'
sg13
S'41'
p329
sg14
S'depotFile, depotRev'
p330
sg16
S'36'
p331
sg17
S'db.revsx'
p332
sg19
S'Rev'
p333
sg21
S'Revision records for spec depot files'
p334
stRp335
ag3
(g4
g5
(dp336
g12
S'9'
sg13
S'42'
p337
sg14
S'depotFile, depotRev, type, action, change'
p338
sg16
S'37'
p339
sg17
S'db.revsh'
p340
sg19
S'Rev'
p341
sg21
S'Revision records for shelved files'
p342
stRp343
ag3
(g4
g5
(dp344
g12
S'9'
sg13
S'43'
p345
sg14
S'depotFile, depotRev'
p346
sg16
S'38'
p347
sg17
S'db.revbx'
p348
sg19
S'Rev'
p349
sg21
S'Revision records for archived files'
p350
stRp351
ag3
(g4
g5
(dp352
g12
S'9'
sg13
S'44'
p353
sg14
S'depotFile'
p354
sg16
S'39'
p355
sg17
S'db.revux'
p356
sg19
S'Rev'
p357
sg21
S'Revision records for unload depot files'
p358
stRp359
ag3
(g4
g5
(dp360
g12
S'10'
p361
sg13
S'45'
p362
sg14
S'clientFile'
p363
sg16
S'44'
p364
sg17
S'db.working'
p365
sg19
S'Working'
p366
sg21
S'Records for work in progress'
p367
stRp368
ag3
(g4
g5
(dp369
g12
S'10'
p370
sg13
S'46'
p371
sg14
S'clientFile'
p372
sg16
S'45'
p373
sg17
S'db.workingx'
p374
sg19
S'Working'
p375
sg21
S'Records for shelved open files'
p376
stRp377
ag3
(g4
g5
(dp378
g12
S'0'
sg13
S'47'
p379
sg14
S'traitLot, name'
p380
sg16
S'47'
p381
sg17
S'db.traits'
p382
sg19
S'Trait'
p383
sg21
S'Attributes associated with file revisions'
p384
stRp385
ag3
(g4
g5
(dp386
g12
S'3'
sg13
S'48'
p387
sg14
S'seq'
p388
sg16
S'48'
p389
sg17
S'db.trigger'
p390
sg19
S'Trigger'
p391
sg21
S'Trigger specifications'
p392
stRp393
ag3
(g4
g5
(dp394
g12
S'4'
sg13
S'49'
p395
sg14
S'change'
p396
sg16
S'49'
p397
sg17
S'db.change'
p398
sg19
S'Change'
p399
sg21
S'Changelists'
p400
stRp401
ag3
(g4
g5
(dp402
g14
S'change'
p403
sg16
S'50'
p404
sg17
S'db.changex'
p405
sg273
S'contains records for pending changelists only.'
p406
sg12
S'4'
sg13
S'50'
p407
sg19
S'Change'
p408
sg21
S'Subset of db.change - records for pending changelists only'
p409
stRp410
ag3
(g4
g5
(dp411
g12
S'1'
sg13
S'51'
p412
sg14
S'identity'
p413
sg16
S'51'
p414
sg17
S'db.changeidx'
p415
sg19
S'ChangeIdx'
p416
sg21
S'Secondary index of db.change/db.changex'
p417
stRp418
ag3
(g4
g5
(dp419
g12
S'0'
sg13
S'52'
p420
sg14
S'descKey'
p421
sg16
S'52'
p422
sg17
S'db.desc'
p423
sg19
S'Desc'
p424
sg21
S'Change descriptions'
p425
stRp426
ag3
(g4
g5
(dp427
g14
S'job'
p428
sg16
S'53'
p429
sg17
S'db.job'
p430
sg12
S'0'
sg13
S'53'
p431
sg189
S'db.bodtext'
p432
sg19
S'Job'
p433
sg21
S'Job records'
p434
stRp435
ag3
(g4
g5
(dp436
g14
S'job, change'
p437
sg16
S'54'
p438
sg17
S'db.fix'
p439
sg12
S'1'
sg13
S'54'
p440
sg189
S'db.fixrev'
p441
sg19
S'Fix'
p442
sg21
S'Fix records - indexed by job'
p443
stRp444
ag3
(g4
g5
(dp445
g14
S'change, job'
p446
sg16
S'55'
p447
sg17
S'db.fixrev'
p448
sg12
S'1'
sg13
S'55'
p449
sg189
S'db.fix'
p450
sg19
S'Fix'
p451
sg21
S'Fix records - indexed by change'
p452
stRp453
ag3
(g4
g5
(dp454
g12
S'0'
sg13
S'56'
p455
sg14
S'type, client, toKey, attr, fromKey, fromChange'
p456
sg16
S'56'
p457
sg17
S'db.bodresolve'
p458
sg19
S'BodyResolve'
p459
sg21
S'Resolve data for stream specifications'
p460
stRp461
ag3
(g4
g5
(dp462
g12
S'1'
sg13
S'57'
p463
sg14
S'key, attr'
p464
sg16
S'57'
p465
sg17
S'db.bodtext'
p466
sg19
S'BodyText'
p467
sg21
S'Job data for job attributes'
p468
stRp469
ag3
(g4
g5
(dp470
g12
S'0'
sg13
S'58'
p471
sg14
S'type, key, change, attr'
p472
sg16
S'58'
p473
sg17
S'db.bodtextcx'
p474
sg19
S'BodyTextCx'
p475
sg21
S'Versioned openable spec fields (for future use)'
p476
stRp477
ag3
(g4
g5
(dp478
g12
S'0'
sg13
S'59'
p479
sg14
S'type, key, attr'
p480
sg16
S'59'
p481
sg17
S'db.bodtexthx'
p482
sg19
S'BodyTextHx'
p483
sg21
S'Head revsision of spec fields (for future use)'
p484
stRp485
ag3
(g4
g5
(dp486
g12
S'0'
sg13
S'60'
p487
sg14
S'type, shelf, key, attr'
p488
sg16
S'60'
p489
sg17
S'db.bodtextsx'
p490
sg19
S'BodyTextSx'
p491
sg21
S'Shelved openable spec fields (for future use)'
p492
stRp493
ag3
(g4
g5
(dp494
g12
S'0'
sg13
S'61'
p495
sg14
S'type, client, key, attr'
p496
sg16
S'61'
p497
sg17
S'db.bodtextwx'
p498
sg19
S'BodyTextWx'
p499
sg21
S'Open openable spec fields (for future use)'
p500
stRp501
ag3
(g4
g5
(dp502
g12
S'0'
sg13
S'62'
p503
sg14
S'word, attr, value'
p504
sg16
S'62'
p505
sg17
S'db.ixtext'
p506
sg19
S'IndexText'
p507
sg21
S'Indexing data for generic and job attributes'
p508
stRp509
ag3
(g4
g5
(dp510
g12
S'0'
sg13
S'63'
p511
sg14
S'type, word, attr, value'
p512
sg16
S'63'
p513
sg17
S'db.ixtexthx'
p514
sg19
S'IndexTextHx'
p515
sg21
S'Indexing data for head revsion of all spec fields (for future use)'
p516
stRp517
ag3
(g4
g5
(dp518
g12
S'0'
sg13
S'64'
p519
sg14
S'word, attr, value'
p520
sg16
S'64'
p521
sg17
S'db.uxtext'
p522
sg19
S'IndexText'
p523
sg21
S'Indexing data for Swarm'
p524
stRp525
ag3
(g4
g5
(dp526
g12
S'4'
sg13
S'65'
p527
sg14
S'seq'
p528
sg16
S'65'
p529
sg17
S'db.protect'
p530
sg19
S'Protect'
p531
sg21
S'The protections table'
p532
stRp533
ag3
(g4
g5
(dp534
g12
S'0'
sg13
S'66'
p535
sg14
S'name, seq, type, scope'
p536
sg16
S'66'
p537
sg17
S'db.property'
p538
sg19
S'Property'
p539
sg21
S'Properties'
p540
stRp541
ag3
(g4
g5
(dp542
g12
S'0'
sg13
S'67'
p543
sg14
S'language, id'
p544
sg16
S'67'
p545
sg17
S'db.message'
p546
sg19
S'Message'
p547
sg21
S'System messages'
p548
stRp549
ag3
(g4
g5
(dp550
g12
S'1'
sg13
S'68'
p551
sg14
S'taskid, seq'
p552
sg16
S'68'
p553
sg17
S'db.sendq'
p554
sg19
S'SendQ'
p555
sg21
S'Parallel file transmission work queue'
p556
stRp557
ag3
(g4
g5
(dp558
g12
S'0'
sg13
S'69'
p559
sg14
S'id'
p560
sg16
S'69'
p561
sg17
S'db.jnlack'
p562
sg19
S'JnlAck'
p563
sg21
S'Tracks journal positions of all standby servers'
p564
stRp565
ag3
(g4
g5
(dp566
g12
S'2'
sg13
S'70'
p567
sg14
S'id'
p568
sg16
S'70'
p569
sg17
S'db.monitor'
p570
sg19
S'Monitor'
p571
sg21
S'Helix Server process information'
p572
stRp573
ag3
(g4
g5
(dp574
g19
S'ReplicaArchiveTransfer'
p575
sg17
S'rdb.lbr'
p576
sg21
S'Replica server pending archive transfer table'
p577
stRp578
ag3
(g4
g5
(dp579
g19
S'TinyDb'
p580
sg14
S'fileAndRev'
p581
sg17
S'tiny.db'
p582
sg21
S'Records revision and content data for files using the +T file type modifier'
p583
stRp584
atRp585
stRp586
sg12
S'2016.1'
p587
sS'numUpgrades'
p588
S'25'
p589
sS'recordtypes'
p590
g3
(g4
g5
(dp591
S'record'
p592
g3
(g8
g9
(lp593
g3
(g4
g5
(dp594
S'column'
p595
g3
(g8
g9
(lp596
g3
(g4
g5
(dp597
g19
S'File'
p598
sg17
S'lbrFile'
p599
sg21
S"Specifies the location in the librarian's archives where\n\t\t    the revision may be found"
p600
stRp601
ag3
(g4
g5
(dp602
g19
S'String'
p603
sg17
S'lbrRev'
p604
sg21
S"Revision in the librarian's archives"
p605
stRp606
ag3
(g4
g5
(dp607
g19
S'File'
p608
sg17
S'depotFile'
p609
sg21
S'Name of the file in the depot'
p610
stRp611
ag3
(g4
g5
(dp612
g19
S'Rev'
p613
sg17
S'depotRev'
p614
sg21
S'Name of the file in the depot'
p615
stRp616
ag3
(g4
g5
(dp617
g19
S'FileType'
p618
sg17
S'lbrType'
p619
sg21
S"File type for librarian's purposes"
p620
stRp621
atRp622
sg17
S'Archive'
p623
stRp624
ag3
(g4
g5
(dp625
g595
g3
(g8
g9
(lp626
g3
(g4
g5
(dp627
g19
S'File'
p628
sg17
S'lbrFile'
p629
sg21
S'Paths in the librarian namespace that recieve lazy\n\t\t    copies.'
p630
stRp631
ag3
(g4
g5
(dp632
g19
S'File'
p633
sg17
S'depotFile'
p634
sg21
S'Paths in the depot namespace that provide lazy copies.'
p635
stRp636
atRp637
sg17
S'ArchMap'
p638
stRp639
ag3
(g4
g5
(dp640
g595
g3
(g8
g9
(lp641
g3
(g4
g5
(dp642
g19
S'String'
p643
sg17
S'key'
p644
sg21
S'The job to which this attribute belongs'
p645
stRp646
ag3
(g4
g5
(dp647
g19
S'Int'
p648
sg17
S'attr'
p649
sg21
S'The attribute number (from the jobspec) of this attribute'
p650
stRp651
ag3
(g4
g5
(dp652
g19
S'Date'
p653
sg17
S'date'
p654
sg21
S'The date value itself'
p655
stRp656
atRp657
sg17
S'BodyDate'
p658
stRp659
ag3
(g4
g5
(dp660
g595
g3
(g8
g9
(lp661
g3
(g4
g5
(dp662
g19
S'SpecType'
p663
sg17
S'type'
p664
sg21
S'The spec type'
p665
stRp666
ag3
(g4
g5
(dp667
g19
S'Domain'
p668
sg17
S'client'
p669
sg21
S'The client name'
p670
stRp671
ag3
(g4
g5
(dp672
g19
S'String'
p673
sg17
S'toKey'
p674
sg21
S'To Key'
p675
stRp676
ag3
(g4
g5
(dp677
g19
S'Int'
p678
sg17
S'attr'
p679
sg21
S'The attribute value'
p680
stRp681
ag3
(g4
g5
(dp682
g19
S'String'
p683
sg17
S'fromKey'
p684
sg21
S'From key'
p685
stRp686
ag3
(g4
g5
(dp687
g19
S'Change'
p688
sg17
S'fromChange'
p689
sg21
S'From change'
p690
stRp691
ag3
(g4
g5
(dp692
g19
S'String'
p693
sg17
S'baseKey'
p694
sg21
S'Base Key'
p695
stRp696
ag3
(g4
g5
(dp697
g19
S'Change'
p698
sg17
S'baseChange'
p699
sg21
S'Base change'
p700
stRp701
atRp702
sg17
S'BodyResolve'
p703
stRp704
ag3
(g4
g5
(dp705
g595
g3
(g8
g9
(lp706
g3
(g4
g5
(dp707
g19
S'String'
p708
sg17
S'key'
p709
sg21
S'The job to which this attribute belongs'
p710
stRp711
ag3
(g4
g5
(dp712
g19
S'Int'
p713
sg17
S'attr'
p714
sg21
S'The attribute number (from the jobspec) of this attribute'
p715
stRp716
ag3
(g4
g5
(dp717
g19
S'Int'
p718
sg17
S'isBulk'
p719
sg21
S'Indicates whether (1), or not (0) the field is a bulk\n\t\t    text field that should not be indexed.'
p720
stRp721
ag3
(g4
g5
(dp722
g19
S'Text'
p723
sg17
S'text'
p724
sg21
S'The attribute value'
p725
stRp726
atRp727
sg17
S'BodyText'
p728
stRp729
ag3
(g4
g5
(dp730
g595
g3
(g8
g9
(lp731
g3
(g4
g5
(dp732
g19
S'Int'
p733
sg17
S'type'
p734
sg21
S'The type of spec'
p735
stRp736
ag3
(g4
g5
(dp737
g19
S'String'
p738
sg17
S'key'
p739
sg21
S'The spec to which this attribute belongs'
p740
stRp741
ag3
(g4
g5
(dp742
g19
S'Change'
p743
sg17
S'change'
p744
sg21
S'The change to which this attribute belongs'
p745
stRp746
ag3
(g4
g5
(dp747
g19
S'Int'
p748
sg17
S'attr'
p749
sg21
S'The attribute number of this attribute'
p750
stRp751
ag3
(g4
g5
(dp752
g19
S'Text'
p753
sg17
S'text'
p754
sg21
S'The attribute value'
p755
stRp756
atRp757
sg17
S'BodyTextCx'
p758
stRp759
ag3
(g4
g5
(dp760
g595
g3
(g8
g9
(lp761
g3
(g4
g5
(dp762
g19
S'Int'
p763
sg17
S'type'
p764
sg21
S'The type of spec'
p765
stRp766
ag3
(g4
g5
(dp767
g19
S'String'
p768
sg17
S'key'
p769
sg21
S'The spec to which this attribute belongs'
p770
stRp771
ag3
(g4
g5
(dp772
g19
S'Int'
p773
sg17
S'attr'
p774
sg21
S'The attribute number of this attribute'
p775
stRp776
ag3
(g4
g5
(dp777
g19
S'Int'
p778
sg17
S'bulk'
p779
sg21
S'Indicates whether (1), or not (0) the field is a bulk\n\t\t    text field that should not be indexed.'
p780
stRp781
ag3
(g4
g5
(dp782
g19
S'Text'
p783
sg17
S'text'
p784
sg21
S'The attribute value'
p785
stRp786
atRp787
sg17
S'BodyTextHx'
p788
stRp789
ag3
(g4
g5
(dp790
g595
g3
(g8
g9
(lp791
g3
(g4
g5
(dp792
g19
S'Int'
p793
sg17
S'type'
p794
sg21
S'The type of spec'
p795
stRp796
ag3
(g4
g5
(dp797
g19
S'Change'
p798
sg17
S'shelf'
p799
sg21
S'The shelf to which this attribute belongs'
p800
stRp801
ag3
(g4
g5
(dp802
g19
S'String'
p803
sg17
S'key'
p804
sg21
S'The spec to which this attribute belongs'
p805
stRp806
ag3
(g4
g5
(dp807
g19
S'Int'
p808
sg17
S'attr'
p809
sg21
S'The attribute number of this attribute'
p810
stRp811
ag3
(g4
g5
(dp812
g19
S'Text'
p813
sg17
S'text'
p814
sg21
S'The attribute value'
p815
stRp816
ag3
(g4
g5
(dp817
g19
S'Change'
p818
sg17
S'workChange'
p819
sg21
S'The working change'
p820
stRp821
atRp822
sg17
S'BodyTextSx'
p823
stRp824
ag3
(g4
g5
(dp825
g595
g3
(g8
g9
(lp826
g3
(g4
g5
(dp827
g19
S'Int'
p828
sg17
S'type'
p829
sg21
S'The type of spec'
p830
stRp831
ag3
(g4
g5
(dp832
g19
S'String'
p833
sg17
S'client'
p834
sg21
S'The client the spec is opened on'
p835
stRp836
ag3
(g4
g5
(dp837
g19
S'String'
p838
sg17
S'key'
p839
sg21
S'The spec to which this attribute belongs'
p840
stRp841
ag3
(g4
g5
(dp842
g19
S'Int'
p843
sg17
S'attr'
p844
sg21
S'The attribute number of this attribute'
p845
stRp846
ag3
(g4
g5
(dp847
g19
S'Text'
p848
sg17
S'text'
p849
sg21
S'The attribute value'
p850
stRp851
ag3
(g4
g5
(dp852
g19
S'Change'
p853
sg17
S'workChange'
p854
sg21
S'The working change'
p855
stRp856
atRp857
sg17
S'BodyTextWx'
p858
stRp859
ag3
(g4
g5
(dp860
g595
g3
(g8
g9
(lp861
g3
(g4
g5
(dp862
g19
S'Change'
p863
sg17
S'change'
p864
sg21
S'The change number'
p865
stRp866
ag3
(g4
g5
(dp867
g19
S'Change'
p868
sg17
S'descKey'
p869
sg21
S"The description key. Normally the same as 'change', but\n\t\t    may differ if a changelist was renumbered on submission."
p870
stRp871
ag3
(g4
g5
(dp872
g19
S'Domain'
p873
sg17
S'client'
p874
sg21
S'The client from which the change originates'
p875
stRp876
ag3
(g4
g5
(dp877
g19
S'User'
p878
sg17
S'user'
p879
sg21
S'The user who owns the change'
p880
stRp881
ag3
(g4
g5
(dp882
g19
S'Date'
p883
sg17
S'date'
p884
sg21
S'Date and time the changelist was submitted'
p885
stRp886
ag3
(g4
g5
(dp887
g19
S'ChangeStatus'
p888
sg17
S'status'
p889
sg21
S'Status of the change'
p890
stRp891
ag3
(g4
g5
(dp892
g19
S'DescShort'
p893
sg17
S'description'
p894
sg21
S'Short description of the change.'
p895
stRp896
ag3
(g4
g5
(dp897
g19
S'Mapping'
p898
sg17
S'root'
p899
sg21
S'Common path for all files in the changelist'
p900
stRp901
ag3
(g4
g5
(dp902
g19
S'String'
p903
sg17
S'importer'
p904
sg21
S'The user who fetched or pushed this change to this server'
p905
stRp906
ag3
(g4
g5
(dp907
g19
S'String'
p908
sg17
S'identify'
p909
sg21
S'Identifier for this change'
p910
stRp911
ag3
(g4
g5
(dp912
g19
S'Date'
p913
sg17
S'access'
p914
sg21
S'Shelve last access'
p915
stRp916
atRp917
sg17
S'Change'
p918
stRp919
ag3
(g4
g5
(dp920
g595
g3
(g8
g9
(lp921
g3
(g4
g5
(dp922
g19
S'String'
p923
sg17
S'identity'
p924
sg21
S'Identifier for this change'
p925
stRp926
ag3
(g4
g5
(dp927
g19
S'Change'
p928
sg17
S'change'
p929
sg21
S'Changelist'
p930
stRp931
atRp932
sg17
S'ChangeIdx'
p933
stRp934
ag3
(g4
g5
(dp935
g595
g3
(g8
g9
(lp936
g3
(g4
g5
(dp937
g19
S'String'
p938
sg17
S'sname'
p939
sg21
S'Server name'
p940
stRp941
ag3
(g4
g5
(dp942
g19
S'String'
p943
sg17
S'name'
p944
sg21
S'Configuration variable name'
p945
stRp946
ag3
(g4
g5
(dp947
g19
S'Value'
p948
sg17
S'value'
p949
sg21
S'Configuration variable value'
p950
stRp951
atRp952
sg17
S'Config'
p953
stRp954
ag3
(g4
g5
(dp955
g595
g3
(g8
g9
(lp956
g3
(g4
g5
(dp957
g19
S'Counter'
p958
sg17
S'name'
p959
sg21
S'Counter name'
p960
stRp961
ag3
(g4
g5
(dp962
g19
S'Value'
p963
sg17
S'value'
p964
sg21
S'Counter value'
p965
stRp966
atRp967
sg17
S'Counters'
p968
stRp969
ag3
(g4
g5
(dp970
g595
g3
(g8
g9
(lp971
g3
(g4
g5
(dp972
g19
S'Domain'
p973
sg17
S'name'
p974
sg21
S'Depot name'
p975
stRp976
ag3
(g4
g5
(dp977
g19
S'DepotType'
p978
sg17
S'type'
p979
sg21
S'Type of depot'
p980
stRp981
ag3
(g4
g5
(dp982
g19
S'Text'
p983
sg17
S'extra'
p984
sg21
S'For remote depots, the P4PORT address of the remote server.\n\t\t    For spec depots, the field contains a suffix to append to \n\t\t    the filename.'
p985
stRp986
ag3
(g4
g5
(dp987
g19
S'Text'
p988
sg17
S'map'
p989
sg21
S"The depot's map (path translation information).  For local \n\t\t    depots, this will be a path relative to the root directory.\n\t\t    For remote depots, this will be specified in terms of the \n\t\t    remote server's namespace."
p990
stRp991
atRp992
sg17
S'Depot'
p993
stRp994
ag3
(g4
g5
(dp995
g595
g3
(g8
g9
(lp996
g3
(g4
g5
(dp997
g19
S'Change'
p998
sg17
S'descKey'
p999
sg21
S'Original number of the change to which this description\n\t\t    applies. This may differ from the final change number if\n\t\t    the change is renumbered on submission.'
p1000
stRp1001
ag3
(g4
g5
(dp1002
g19
S'Text'
p1003
sg17
S'description'
p1004
sg21
S'The change description itself'
p1005
stRp1006
atRp1007
sg17
S'Desc'
p1008
stRp1009
ag3
(g4
g5
(dp1010
g595
g3
(g8
g9
(lp1011
g3
(g4
g5
(dp1012
g19
S'Domain'
p1013
sg17
S'name'
p1014
sg21
S'Domain name'
p1015
stRp1016
ag3
(g4
g5
(dp1017
g19
S'DomainType'
p1018
sg17
S'type'
p1019
sg21
S'Type of domain'
p1020
stRp1021
ag3
(g4
g5
(dp1022
g19
S'Text'
p1023
sg17
S'extra'
p1024
sg21
S'Formerly "host". Associated host or, for labels, revision \n\t\t    number.'
p1025
stRp1026
ag3
(g4
g5
(dp1027
g19
S'Text'
p1028
sg17
S'mount'
p1029
sg21
S'The client root'
p1030
stRp1031
ag3
(g4
g5
(dp1032
g19
S'Text'
p1033
sg17
S'mount2'
p1034
sg21
S'Alternate client root'
p1035
stRp1036
ag3
(g4
g5
(dp1037
g19
S'Text'
p1038
sg17
S'mount3'
p1039
sg21
S'Alternate client root'
p1040
stRp1041
ag3
(g4
g5
(dp1042
g19
S'User'
p1043
sg17
S'owner'
p1044
sg21
S'Name of user who owns the domain.'
p1045
stRp1046
ag3
(g4
g5
(dp1047
g19
S'Date'
p1048
sg17
S'updateDate'
p1049
sg21
S'Date of last update to domain specification.'
p1050
stRp1051
ag3
(g4
g5
(dp1052
g19
S'Date'
p1053
sg17
S'accessDate'
p1054
sg21
S'Date of last access to domain specification.'
p1055
stRp1056
ag3
(g4
g5
(dp1057
g19
S'DomainOpts'
p1058
sg17
S'options'
p1059
sg21
S'Options for client, label, and branch domains.'
p1060
stRp1061
ag3
(g4
g5
(dp1062
g19
S'Text'
p1063
sg17
S'description'
p1064
sg21
S'Description of domain.'
p1065
stRp1066
ag3
(g4
g5
(dp1067
g19
S'Text'
p1068
sg17
S'stream'
p1069
sg21
S'Associated stream for client records'
p1070
stRp1071
ag3
(g4
g5
(dp1072
g19
S'Text'
p1073
sg17
S'serverid'
p1074
sg21
S'Associated server ID for client records'
p1075
stRp1076
ag3
(g4
g5
(dp1077
g19
S'Int'
p1078
sg17
S'partition'
p1079
sg21
S'Currently unused. Reserved for future use'
p1080
stRp1081
atRp1082
sg17
S'Domain'
p1083
stRp1084
ag3
(g4
g5
(dp1085
g595
g3
(g8
g9
(lp1086
g3
(g4
g5
(dp1087
g19
S'File'
p1088
sg17
S'depotFile'
p1089
sg21
S'The file locked'
p1090
stRp1091
ag3
(g4
g5
(dp1092
g19
S'Domain'
p1093
sg17
S'client'
p1094
sg21
S'The client for which the file is locked'
p1095
stRp1096
ag3
(g4
g5
(dp1097
g19
S'User'
p1098
sg17
S'user'
p1099
sg21
S'The user for which the file is locked'
p1100
stRp1101
atRp1102
sg17
S'ExclusiveLock'
p1103
stRp1104
ag3
(g4
g5
(dp1105
g595
g3
(g8
g9
(lp1106
g3
(g4
g5
(dp1107
g19
S'String'
p1108
sg17
S'job'
p1109
sg21
S'Job name'
p1110
stRp1111
ag3
(g4
g5
(dp1112
g19
S'Change'
p1113
sg17
S'change'
p1114
sg21
S'Changelist number'
p1115
stRp1116
ag3
(g4
g5
(dp1117
g19
S'Date'
p1118
sg17
S'date'
p1119
sg21
S'Date fix was recorded (may differ from date change was\n\t\t    submitted).'
p1120
stRp1121
ag3
(g4
g5
(dp1122
g19
S'FixStatus'
p1123
sg17
S'status'
p1124
sg21
S'Status of the job'
p1125
stRp1126
ag3
(g4
g5
(dp1127
g19
S'Domain'
p1128
sg17
S'client'
p1129
sg21
S'The client where the fix originated'
p1130
stRp1131
ag3
(g4
g5
(dp1132
g19
S'User'
p1133
sg17
S'user'
p1134
sg21
S'The user who fixed the job'
p1135
stRp1136
atRp1137
sg17
S'Fix'
p1138
stRp1139
ag3
(g4
g5
(dp1140
g595
g3
(g8
g9
(lp1141
g3
(g4
g5
(dp1142
g19
S'User'
p1143
sg17
S'user'
p1144
sg21
S'User name'
p1145
stRp1146
ag3
(g4
g5
(dp1147
g19
S'User'
p1148
sg17
S'group'
p1149
sg21
S'Group name'
p1150
stRp1151
ag3
(g4
g5
(dp1152
g19
S'UserType'
p1153
sg17
S'type'
p1154
sg21
S'Type of user in this group.'
p1155
stRp1156
ag3
(g4
g5
(dp1157
g19
S'MaxResults'
p1158
sg17
S'maxResults'
p1159
sg21
S'MaxResults setting for the group.'
p1160
stRp1161
ag3
(g4
g5
(dp1162
g19
S'MaxScanRows'
p1163
sg17
S'maxScanRows'
p1164
sg21
S'MaxScanRows setting for the group.'
p1165
stRp1166
ag3
(g4
g5
(dp1167
g19
S'MaxLockTime'
p1168
sg17
S'maxLockTime'
p1169
sg21
S'MaxLockTime setting for the group.'
p1170
stRp1171
ag3
(g4
g5
(dp1172
g19
S'MaxOpenFiles'
p1173
sg17
S'maxOpenFiles'
p1174
sg21
S'MaxOpenFiles setting for the group.'
p1175
stRp1176
ag3
(g4
g5
(dp1177
g19
S'Int'
p1178
sg17
S'timeout'
p1179
sg21
S'Length of time (in seconds) a login ticket remains valid.'
p1180
stRp1181
ag3
(g4
g5
(dp1182
g19
S'Int'
p1183
sg17
S'passwordTimeout'
p1184
sg21
S'Length of time (in seconds) a password remains valid for users in the group.'
p1185
stRp1186
atRp1187
sg17
S'Group'
p1188
stRp1189
ag3
(g4
g5
(dp1190
g595
g3
(g8
g9
(lp1191
g3
(g4
g5
(dp1192
g19
S'User'
p1193
sg17
S'group'
p1194
sg21
S'Group name'
p1195
stRp1196
ag3
(g4
g5
(dp1197
g19
S'String'
p1198
sg17
S'ldapConf'
p1199
sg21
S"The LDAP configuration to use when populating the group's user list from an LDAP query"
p1200
stRp1201
ag3
(g4
g5
(dp1202
g19
S'String'
p1203
sg17
S'ldapSearchQuery'
p1204
sg21
S'The LDAP query used to identify the members of the group'
p1205
stRp1206
ag3
(g4
g5
(dp1207
g19
S'String'
p1208
sg17
S'ldapUserAttribute'
p1209
sg21
S"The LDAP attribute that represents the user's username"
p1210
stRp1211
atRp1212
sg17
S'GroupX'
p1213
stRp1214
ag3
(g4
g5
(dp1215
g595
g3
(g8
g9
(lp1216
g3
(g4
g5
(dp1217
g19
S'File'
p1218
sg17
S'clientFile'
p1219
sg21
S'The file in its location on the client'
p1220
stRp1221
ag3
(g4
g5
(dp1222
g19
S'File'
p1223
sg17
S'depotFile'
p1224
sg21
S'The file in the depot'
p1225
stRp1226
ag3
(g4
g5
(dp1227
g19
S'Rev'
p1228
sg17
S'haveRev'
p1229
sg21
S'The revision synced to the client'
p1230
stRp1231
ag3
(g4
g5
(dp1232
g19
S'FileType'
p1233
sg17
S'type'
p1234
sg21
S'The filetype of the synced revision'
p1235
stRp1236
ag3
(g4
g5
(dp1237
g19
S'Date'
p1238
sg17
S'time'
p1239
sg21
S'The sync time of the synced revision'
p1240
stRp1241
atRp1242
sg17
S'Have'
p1243
stRp1244
ag3
(g4
g5
(dp1245
g595
g3
(g8
g9
(lp1246
g3
(g4
g5
(dp1247
g19
S'Date'
p1248
sg17
S'date'
p1249
sg21
S'Date value'
p1250
stRp1251
ag3
(g4
g5
(dp1252
g19
S'Int'
p1253
sg17
S'attr'
p1254
sg21
S'The attribute number (from the jobspec) to which this\n\t\t    date belongs'
p1255
stRp1256
ag3
(g4
g5
(dp1257
g19
S'String'
p1258
sg17
S'value'
p1259
sg21
S'A job name'
p1260
stRp1261
atRp1262
sg17
S'IndexDate'
p1263
stRp1264
ag3
(g4
g5
(dp1265
g595
g3
(g8
g9
(lp1266
g3
(g4
g5
(dp1267
g19
S'String'
p1268
sg17
S'word'
p1269
sg21
S'The word being indexed'
p1270
stRp1271
ag3
(g4
g5
(dp1272
g19
S'Int'
p1273
sg17
S'attr'
p1274
sg21
S'The attribute number to which this word belongs. For\n\t\t    job data, the attribute number from the jobspec.'
p1275
stRp1276
ag3
(g4
g5
(dp1277
g19
S'String'
p1278
sg17
S'value'
p1279
sg21
S'For job data, a job name. For generic data, the value\n\t\t    of the index keyed by the word.'
p1280
stRp1281
atRp1282
sg17
S'IndexText'
p1283
stRp1284
ag3
(g4
g5
(dp1285
g595
g3
(g8
g9
(lp1286
g3
(g4
g5
(dp1287
g19
S'String'
p1288
sg17
S'type'
p1289
sg21
S'The type'
p1290
stRp1291
ag3
(g4
g5
(dp1292
g19
S'String'
p1293
sg17
S'word'
p1294
sg21
S'The word being indexed'
p1295
stRp1296
ag3
(g4
g5
(dp1297
g19
S'Int'
p1298
sg17
S'attr'
p1299
sg21
S'The attribute number to which this word belongs.'
p1300
stRp1301
ag3
(g4
g5
(dp1302
g19
S'String'
p1303
sg17
S'value'
p1304
sg21
S'The value of the index keyed by the word.'
p1305
stRp1306
atRp1307
sg17
S'IndexTextHx'
p1308
stRp1309
ag3
(g4
g5
(dp1310
g595
g3
(g8
g9
(lp1311
g3
(g4
g5
(dp1312
g19
S'File'
p1313
sg17
S'toFile'
p1314
sg21
S'File to which integration is being performed (target).'
p1315
stRp1316
ag3
(g4
g5
(dp1317
g19
S'File'
p1318
sg17
S'fromFile'
p1319
sg21
S'File from which integration is being performed (source).'
p1320
stRp1321
ag3
(g4
g5
(dp1322
g19
S'Rev'
p1323
sg17
S'startFromRev'
p1324
sg21
S'Starting revision of fromFile'
p1325
stRp1326
ag3
(g4
g5
(dp1327
g19
S'Rev'
p1328
sg17
S'endFromRev'
p1329
sg21
S'Ending revision of fromFile'
p1330
stRp1331
ag3
(g4
g5
(dp1332
g19
S'Rev'
p1333
sg17
S'toRev'
p1334
sg21
S'Revision of toFile into which integration is being \n\t\t    performed.'
p1335
stRp1336
ag3
(g4
g5
(dp1337
g19
S'IntegHow'
p1338
sg17
S'how'
p1339
sg21
S'Integration method: variations on \n\t\t    merge/branch/copy/ignore/delete.'
p1340
stRp1341
ag3
(g4
g5
(dp1342
g19
S'Int'
p1343
sg17
S'committed'
p1344
sg21
S'Flag: 0 for pending, 1 for committed.'
p1345
stRp1346
ag3
(g4
g5
(dp1347
g19
S'ResolvedStatus'
p1348
sg17
S'resolved'
p1349
sg21
S'Resolution method: unresolved, resolved manually, \n\t\t    or resolved as part of a branch or delete.'
p1350
stRp1351
ag3
(g4
g5
(dp1352
g19
S'Change'
p1353
sg17
S'change'
p1354
sg21
S'Changelist associated with the integration.'
p1355
stRp1356
atRp1357
sg17
S'Integ'
p1358
stRp1359
ag3
(g4
g5
(dp1360
g595
g3
(g8
g9
(lp1361
g3
(g4
g5
(dp1362
g19
S'File'
p1363
sg17
S'toFile'
p1364
sg21
S'File to which integration is being performed (target).'
p1365
stRp1366
ag3
(g4
g5
(dp1367
g19
S'File'
p1368
sg17
S'fromFile'
p1369
sg21
S'File from which integration is being performed (source).'
p1370
stRp1371
ag3
(g4
g5
(dp1372
g19
S'Rev'
p1373
sg17
S'startFromRev'
p1374
sg21
S'Starting revision of fromFile'
p1375
stRp1376
ag3
(g4
g5
(dp1377
g19
S'Rev'
p1378
sg17
S'endFromRev'
p1379
sg21
S'Ending revision of fromFile'
p1380
stRp1381
ag3
(g4
g5
(dp1382
g19
S'Rev'
p1383
sg17
S'startToRev'
p1384
sg21
S'Start revision of toFile into which integration was \n\t\t    performed.'
p1385
stRp1386
ag3
(g4
g5
(dp1387
g19
S'Rev'
p1388
sg17
S'endToRev'
p1389
sg21
S'End revision of toFile into which integration was \n\t\t    performed. Only varies from startToRev for reverse \n\t\t    integration records.'
p1390
stRp1391
ag3
(g4
g5
(dp1392
g19
S'IntegHow'
p1393
sg17
S'how'
p1394
sg21
S'Integration method: variations on \n\t\t    merge/branch/copy/ignore/delete.'
p1395
stRp1396
ag3
(g4
g5
(dp1397
g19
S'Change'
p1398
sg17
S'change'
p1399
sg21
S'Changelist associated with the integration.'
p1400
stRp1401
atRp1402
sg17
S'Integed'
p1403
stRp1404
ag3
(g4
g5
(dp1405
g595
g3
(g8
g9
(lp1406
g3
(g4
g5
(dp1407
g19
S'Domain'
p1408
sg17
S'serverId'
p1409
sg21
S'The serverId of the standby for whom this record applies'
p1410
stRp1411
ag3
(g4
g5
(dp1412
g19
S'Date'
p1413
sg17
S'lastUpdate'
p1414
sg21
S'The date and time of last update'
p1415
stRp1416
ag3
(g4
g5
(dp1417
g19
S'ServerServiceType'
p1418
sg17
S'serverType'
p1419
sg21
S'The server services offered by this standby'
p1420
stRp1421
ag3
(g4
g5
(dp1422
g19
S'Int'
p1423
sg17
S'persistedJnl'
p1424
sg21
S'The last journal number persisted by this standby'
p1425
stRp1426
ag3
(g4
g5
(dp1427
g19
S'Int64'
p1428
sg17
S'persistedPos'
p1429
sg21
S'The last journal position persisted by this standby'
p1430
stRp1431
ag3
(g4
g5
(dp1432
g19
S'Int'
p1433
sg17
S'isAlive'
p1434
sg21
S'1 = alive'
p1435
stRp1436
ag3
(g4
g5
(dp1437
g19
S'Int'
p1438
sg17
S'appliedJnl'
p1439
sg21
S'The last journal number applied to this standby'
p1440
stRp1441
ag3
(g4
g5
(dp1442
g19
S'Int64'
p1443
sg17
S'appliedPos'
p1444
sg21
S'The last journal position applied to this standby'
p1445
stRp1446
atRp1447
sg17
S'JnlAck'
p1448
stRp1449
ag3
(g4
g5
(dp1450
g595
g3
(g8
g9
(lp1451
g3
(g4
g5
(dp1452
g19
S'String'
p1453
sg17
S'job'
p1454
sg21
S'The job name'
p1455
stRp1456
ag3
(g4
g5
(dp1457
g19
S'User'
p1458
sg17
S'xuser'
p1459
sg21
S'User name: defunct'
p1460
stRp1461
ag3
(g4
g5
(dp1462
g19
S'Date'
p1463
sg17
S'xdate'
p1464
sg21
S'The date: defunct'
p1465
stRp1466
ag3
(g4
g5
(dp1467
g19
S'JobStat'
p1468
sg17
S'xstatus'
p1469
sg21
S'Job status: defunct'
p1470
stRp1471
ag3
(g4
g5
(dp1472
g19
S'DescShort'
p1473
sg17
S'description'
p1474
sg21
S'Short description'
p1475
stRp1476
atRp1477
sg17
S'Job'
p1478
stRp1479
ag3
(g4
g5
(dp1480
g595
g3
(g8
g9
(lp1481
g3
(g4
g5
(dp1482
g19
S'String'
p1483
sg17
S'xjob'
p1484
sg21
S'The job name'
p1485
stRp1486
ag3
(g4
g5
(dp1487
g19
S'Text'
p1488
sg17
S'xdescription'
p1489
sg21
S'Jobdescription'
p1490
stRp1491
atRp1492
sg17
S'JobDesc'
p1493
stRp1494
ag3
(g4
g5
(dp1495
g595
g3
(g8
g9
(lp1496
g3
(g4
g5
(dp1497
g19
S'Key'
p1498
sg17
S'name'
p1499
sg21
S'Key name'
p1500
stRp1501
ag3
(g4
g5
(dp1502
g19
S'Value'
p1503
sg17
S'value'
p1504
sg21
S'Key value'
p1505
stRp1506
atRp1507
sg17
S'Keys'
p1508
stRp1509
ag3
(g4
g5
(dp1510
g595
g3
(g8
g9
(lp1511
g3
(g4
g5
(dp1512
g19
S'Domain'
p1513
sg17
S'name'
p1514
sg21
S'Name of the label'
p1515
stRp1516
ag3
(g4
g5
(dp1517
g19
S'File'
p1518
sg17
S'depotFile'
p1519
sg21
S'File name'
p1520
stRp1521
ag3
(g4
g5
(dp1522
g19
S'Rev'
p1523
sg17
S'haveRev'
p1524
sg21
S'The revision of the file in the label'
p1525
stRp1526
atRp1527
sg17
S'Label'
p1528
stRp1529
ag3
(g4
g5
(dp1530
g595
g3
(g8
g9
(lp1531
g3
(g4
g5
(dp1532
g19
S'String'
p1533
sg17
S'name'
p1534
sg21
S'The LDAP configuration name'
p1535
stRp1536
ag3
(g4
g5
(dp1537
g19
S'String'
p1538
sg17
S'host'
p1539
sg21
S'The FQDN of the directory server'
p1540
stRp1541
ag3
(g4
g5
(dp1542
g19
S'String'
p1543
sg17
S'port'
p1544
sg21
S'The port number on which to connect to the directory server'
p1545
stRp1546
ag3
(g4
g5
(dp1547
g19
S'String'
p1548
sg17
S'ssl'
p1549
sg21
S"The encryption method to use when connecting to the The FQDN of the directory server.\n\t\t\tOptions are: 'none', 'ssl' and 'tls'"
p1550
stRp1551
ag3
(g4
g5
(dp1552
g19
S'String'
p1553
sg17
S'type'
p1554
sg21
S"The bind method to use with this directory.  Options are: 'simple', 'search' and 'sasl'."
p1555
stRp1556
ag3
(g4
g5
(dp1557
g19
S'String'
p1558
sg17
S'pattern'
p1559
sg21
S"The DN used to bind against to validate the user's credentials."
p1560
stRp1561
ag3
(g4
g5
(dp1562
g19
S'String'
p1563
sg17
S'basedn'
p1564
sg21
S'The DN from which to start the search for the user object'
p1565
stRp1566
ag3
(g4
g5
(dp1567
g19
S'String'
p1568
sg17
S'filter'
p1569
sg21
S'The LDAP query filter to use to identify the user object which will be used to bind against'
p1570
stRp1571
ag3
(g4
g5
(dp1572
g19
S'String'
p1573
sg17
S'scope'
p1574
sg21
S'The scope to use when searching for the user records. Options are:\n                 0 = baseonly - Just the BaseDN object\n                 1 = children - The BaseDN and its direct children\n                 2 = subtree - The BaseDN and all objects below it'
p1575
stRp1576
ag3
(g4
g5
(dp1577
g19
S'String'
p1578
sg17
S'binddn'
p1579
sg21
S'The DN to bind against in order to search the directory'
p1580
stRp1581
ag3
(g4
g5
(dp1582
g19
S'String'
p1583
sg17
S'bindpass'
p1584
sg21
S'The password for the BindDN record'
p1585
stRp1586
ag3
(g4
g5
(dp1587
g19
S'String'
p1588
sg17
S'realm'
p1589
sg21
S'The optional realm to use when authenticating the user via SASL'
p1590
stRp1591
ag3
(g4
g5
(dp1592
g19
S'String'
p1593
sg17
S'grpbasedn'
p1594
sg21
S'The search base for performing the group search. If unset this will default to the SearchBaseDN'
p1595
stRp1596
ag3
(g4
g5
(dp1597
g19
S'String'
p1598
sg17
S'grpfilter'
p1599
sg21
S'The filter to use for the group search'
p1600
stRp1601
ag3
(g4
g5
(dp1602
g19
S'String'
p1603
sg17
S'grpscope'
p1604
sg21
S'The scope to use when performing the group search.Options are:\n \t\t\t\t0 = baseonly - Just the BaseDN object\n\t\t\t\t1 = children - The BaseDN and its direct children\n\t\t\t\t2 = subtree - The BaseDN and all objects below it'
p1605
stRp1606
ag3
(g4
g5
(dp1607
g19
S'String'
p1608
sg17
S'options'
p1609
sg21
S'LDAP Options: [no]downcase [no]getattrs [no]realminusername'
p1610
stRp1611
ag3
(g4
g5
(dp1612
g19
S'String'
p1613
sg17
S'attruid'
p1614
sg21
S"The name of the attribute in the directory's user records that contain the users' UIDs"
p1615
stRp1616
ag3
(g4
g5
(dp1617
g19
S'String'
p1618
sg17
S'attremail'
p1619
sg21
S"The name of the attribute in the directory's user records that contain the users' email addresses."
p1620
stRp1621
ag3
(g4
g5
(dp1622
g19
S'String'
p1623
sg17
S'attrename'
p1624
sg21
S"The name(s) of the attribute(s) in the directory's user records that contain the users' full names."
p1625
stRp1626
atRp1627
sg17
S'Ldap'
p1628
stRp1629
ag3
(g4
g5
(dp1630
g595
g3
(g8
g9
(lp1631
g3
(g4
g5
(dp1632
g19
S'File'
p1633
sg17
S'depotFile'
p1634
sg21
S'File in depot'
p1635
stRp1636
ag3
(g4
g5
(dp1637
g19
S'Domain'
p1638
sg17
S'client'
p1639
sg21
S'Domain (client) in which file is open'
p1640
stRp1641
ag3
(g4
g5
(dp1642
g19
S'User'
p1643
sg17
S'user'
p1644
sg21
S'User who presently has the file open'
p1645
stRp1646
ag3
(g4
g5
(dp1647
g19
S'Action'
p1648
sg17
S'action'
p1649
sg21
S'Action file is open for: add, edit, delete, branch,\n\t\t    integrate, or import'
p1650
stRp1651
ag3
(g4
g5
(dp1652
g19
S'Int'
p1653
sg17
S'isLocked'
p1654
sg21
S'Flag: 0 for unlocked, 1 for locked'
p1655
stRp1656
ag3
(g4
g5
(dp1657
g19
S'Int'
p1658
sg17
S'change'
p1659
sg21
S'Changelist in which the revision is open: 0 for the\n\t\t    default changelist'
p1660
stRp1661
atRp1662
sg17
S'Locks'
p1663
stRp1664
ag3
(g4
g5
(dp1665
g595
g3
(g8
g9
(lp1666
g3
(g4
g5
(dp1667
g19
S'Int'
p1668
sg17
S'seq'
p1669
sg21
S'Sequence number of event'
p1670
stRp1671
ag3
(g4
g5
(dp1672
g19
S'String'
p1673
sg17
S'key'
p1674
sg21
S"Either the word 'change' or the word 'job'"
p1675
stRp1676
ag3
(g4
g5
(dp1677
g19
S'String'
p1678
sg17
S'attr'
p1679
sg21
S'The number of the change, or name of the job that was \n\t\t    altered.'
p1680
stRp1681
atRp1682
sg17
S'Logger'
p1683
stRp1684
ag3
(g4
g5
(dp1685
g595
g3
(g8
g9
(lp1686
g3
(g4
g5
(dp1687
g19
S'String'
p1688
sg17
S'language'
p1689
sg21
S'The language for which this message applies'
p1690
stRp1691
ag3
(g4
g5
(dp1692
g19
S'Int'
p1693
sg17
S'id'
p1694
sg21
S'The message number'
p1695
stRp1696
ag3
(g4
g5
(dp1697
g19
S'String'
p1698
sg17
S'message'
p1699
sg21
S'The message text'
p1700
stRp1701
atRp1702
sg17
S'Message'
p1703
stRp1704
ag3
(g4
g5
(dp1705
g595
g3
(g8
g9
(lp1706
g3
(g4
g5
(dp1707
g19
S'Int'
p1708
sg17
S'id'
p1709
sg21
S'Thread/process id'
p1710
stRp1711
ag3
(g4
g5
(dp1712
g19
S'User'
p1713
sg17
S'user'
p1714
sg21
S'Username of the user running the command'
p1715
stRp1716
ag3
(g4
g5
(dp1717
g19
S'String'
p1718
sg17
S'function'
p1719
sg21
S'The command being executed.'
p1720
stRp1721
ag3
(g4
g5
(dp1722
g19
S'String'
p1723
sg17
S'args'
p1724
sg21
S'Arguments passed to the command'
p1725
stRp1726
ag3
(g4
g5
(dp1727
g19
S'Date'
p1728
sg17
S'startDate'
p1729
sg21
S'The date and time the command started'
p1730
stRp1731
ag3
(g4
g5
(dp1732
g19
S'Int'
p1733
sg17
S'runstate'
p1734
sg21
S'Flag: 0 for running, 1 for terminated, 2 for paused'
p1735
stRp1736
ag3
(g4
g5
(dp1737
g19
S'Domain'
p1738
sg17
S'client'
p1739
sg21
S'The client workspace'
p1740
stRp1741
ag3
(g4
g5
(dp1742
g19
S'Text'
p1743
sg17
S'host'
p1744
sg21
S'The IP address of the client'
p1745
stRp1746
ag3
(g4
g5
(dp1747
g19
S'Text'
p1748
sg17
S'prog'
p1749
sg21
S'The name (and version) of the client program'
p1750
stRp1751
ag3
(g4
g5
(dp1752
g19
S'Text'
p1753
sg17
S'lockInfo'
p1754
sg21
S'Table locking information for command'
p1755
stRp1756
atRp1757
sg17
S'Monitor'
p1758
stRp1759
ag3
(g4
g5
(dp1760
g595
g3
(g8
g9
(lp1761
g3
(g4
g5
(dp1762
g19
S'String'
p1763
sg17
S'name'
p1764
sg21
S'The property name'
p1765
stRp1766
ag3
(g4
g5
(dp1767
g19
S'String'
p1768
sg17
S'sequence'
p1769
sg21
S'Sequence number of property'
p1770
stRp1771
ag3
(g4
g5
(dp1772
g19
S'Int'
p1773
sg17
S'type'
p1774
sg21
S"1=user, 2=group; set if '-u | -g' option used with 'p4 property'"
p1775
stRp1776
ag3
(g4
g5
(dp1777
g19
S'String'
p1778
sg17
S'scope'
p1779
sg21
S'The user or group the property applies to'
p1780
stRp1781
ag3
(g4
g5
(dp1782
g19
S'String'
p1783
sg17
S'value'
p1784
sg21
S'The property value'
p1785
stRp1786
ag3
(g4
g5
(dp1787
g19
S'String'
p1788
sg17
S'date'
p1789
sg21
S'The date/time the property was last updated'
p1790
stRp1791
ag3
(g4
g5
(dp1792
g19
S'String'
p1793
sg17
S'user'
p1794
sg21
S'The user that last modified the property'
p1795
stRp1796
atRp1797
sg17
S'Property'
p1798
stRp1799
ag3
(g4
g5
(dp1800
g595
g3
(g8
g9
(lp1801
g3
(g4
g5
(dp1802
g19
S'Int'
p1803
sg17
S'seq'
p1804
sg21
S'Sequence number: for ordering the protections table'
p1805
stRp1806
ag3
(g4
g5
(dp1807
g19
S'Int'
p1808
sg17
S'isGroup'
p1809
sg21
S'Flag: 0 for a per-user setting, 1 for a per-group setting.'
p1810
stRp1811
ag3
(g4
g5
(dp1812
g19
S'UserWild'
p1813
sg17
S'user'
p1814
sg21
S'User(s), or Group(s) for whom this record applies.'
p1815
stRp1816
ag3
(g4
g5
(dp1817
g19
S'DomainWild'
p1818
sg17
S'host'
p1819
sg21
S'Domain(s) (IP addresses) for which this record applies.'
p1820
stRp1821
ag3
(g4
g5
(dp1822
g19
S'Perm'
p1823
sg17
S'perm'
p1824
sg21
S'Permissions to be granted/revoked'
p1825
stRp1826
ag3
(g4
g5
(dp1827
g19
S'MapFlag'
p1828
sg17
S'mapFlag'
p1829
sg21
S'Flag: Map the files in or out?'
p1830
stRp1831
ag3
(g4
g5
(dp1832
g19
S'Mapping'
p1833
sg17
S'depotFile'
p1834
sg21
S'Files to be mapped in or out.'
p1835
stRp1836
atRp1837
sg17
S'Protect'
p1838
stRp1839
ag3
(g4
g5
(dp1840
g595
g3
(g8
g9
(lp1841
g3
(g4
g5
(dp1842
g19
S'RemoteID'
p1843
sg17
S'id'
p1844
sg21
S'The remote identifier'
p1845
stRp1846
ag3
(g4
g5
(dp1847
g19
S'User'
p1848
sg17
S'owner'
p1849
sg21
S'The user who creatd this remote'
p1850
stRp1851
ag3
(g4
g5
(dp1852
g19
S'Int'
p1853
sg17
S'options'
p1854
sg21
S'Remote options: 0: unlocked/nocompress, 1: locked/nocompress, 2: unlocked/compress, 4: locked/compress'
p1855
stRp1856
ag3
(g4
g5
(dp1857
g19
S'Text'
p1858
sg17
S'address'
p1859
sg21
S'The P4PORT used by the remote server'
p1860
stRp1861
ag3
(g4
g5
(dp1862
g19
S'Text'
p1863
sg17
S'desc'
p1864
sg21
S'Description of the remote server'
p1865
stRp1866
ag3
(g4
g5
(dp1867
g19
S'Date'
p1868
sg17
S'update'
p1869
sg21
S'The date this specification was last modfied'
p1870
stRp1871
ag3
(g4
g5
(dp1872
g19
S'Date'
p1873
sg17
S'access'
p1874
sg21
S'The date of the last push/fetch on this remote'
p1875
stRp1876
ag3
(g4
g5
(dp1877
g19
S'Change'
p1878
sg17
S'fetch'
p1879
sg21
S'The last changelist that was fetched'
p1880
stRp1881
ag3
(g4
g5
(dp1882
g19
S'Change'
p1883
sg17
S'push'
p1884
sg21
S'The last changelist that was pushed'
p1885
stRp1886
ag3
(g4
g5
(dp1887
g19
S'User'
p1888
sg17
S'rmtuser'
p1889
sg21
S'The user to use when connecting to the remote server'
p1890
stRp1891
atRp1892
sg17
S'Remote'
p1893
stRp1894
ag3
(g4
g5
(dp1895
g595
g3
(g8
g9
(lp1896
g3
(g4
g5
(dp1897
g19
S'File'
p1898
sg17
S'depotFile'
p1899
sg21
S'The file name'
p1900
stRp1901
ag3
(g4
g5
(dp1902
g19
S'String'
p1903
sg17
S'lbrRev'
p1904
sg21
S'The librarian revision'
p1905
stRp1906
ag3
(g4
g5
(dp1907
g19
S'String'
p1908
sg17
S'type'
p1909
sg21
S'The file type of the revision'
p1910
stRp1911
ag3
(g4
g5
(dp1912
g19
S'PullStatus'
p1913
sg17
S'status'
p1914
sg21
S'The status of the archive transfer'
p1915
stRp1916
ag3
(g4
g5
(dp1917
g19
S'Action'
p1918
sg17
S'action'
p1919
sg21
S'The action that created the revision'
p1920
stRp1921
ag3
(g4
g5
(dp1922
g19
S'Digest'
p1923
sg17
S'digest'
p1924
sg21
S'The MD5 digest of the revision'
p1925
stRp1926
ag3
(g4
g5
(dp1927
g19
S'FileSize'
p1928
sg17
S'size'
p1929
sg21
S'The size of the file in bytes'
p1930
stRp1931
ag3
(g4
g5
(dp1932
g19
S'Change'
p1933
sg17
S'change'
p1934
sg21
S'The changelist that created the revision'
p1935
stRp1936
ag3
(g4
g5
(dp1937
g19
S'Date'
p1938
sg17
S'lbrDate'
p1939
sg21
S'Librarian date'
p1940
stRp1941
ag3
(g4
g5
(dp1942
g19
S'Date'
p1943
sg17
S'lbrModTime'
p1944
sg21
S'Librarian modtime'
p1945
stRp1946
ag3
(g4
g5
(dp1947
g19
S'Int'
p1948
sg17
S'pid'
p1949
sg21
S'The process id (PID) of the pull process'
p1950
stRp1951
ag3
(g4
g5
(dp1952
g19
S'Date'
p1953
sg17
S'requestTime'
p1954
sg21
S'Pull request time'
p1955
stRp1956
ag3
(g4
g5
(dp1957
g19
S'Int'
p1958
sg17
S'retries'
p1959
sg21
S'The number of retries that have occurred after transfer error'
p1960
stRp1961
ag3
(g4
g5
(dp1962
g19
S'String'
p1963
sg17
S'transferError'
p1964
sg21
S'The error message for a failed transfer'
p1965
stRp1966
atRp1967
sg17
S'ReplicaArchiveTransfer'
p1968
stRp1969
ag3
(g4
g5
(dp1970
g595
g3
(g8
g9
(lp1971
g3
(g4
g5
(dp1972
g19
S'File'
p1973
sg17
S'toFile'
p1974
sg21
S'File to which integration is being performed (target).'
p1975
stRp1976
ag3
(g4
g5
(dp1977
g19
S'File'
p1978
sg17
S'fromFile'
p1979
sg21
S'File from which integration is being performed (source).'
p1980
stRp1981
ag3
(g4
g5
(dp1982
g19
S'Rev'
p1983
sg17
S'startFromRev'
p1984
sg21
S'Starting revision of fromFile'
p1985
stRp1986
ag3
(g4
g5
(dp1987
g19
S'Rev'
p1988
sg17
S'endFromRev'
p1989
sg21
S'Ending revision of fromFile'
p1990
stRp1991
ag3
(g4
g5
(dp1992
g19
S'Rev'
p1993
sg17
S'startToRev'
p1994
sg21
S'Start revision of toFile into which integration was \n\t\t    performed.'
p1995
stRp1996
ag3
(g4
g5
(dp1997
g19
S'Rev'
p1998
sg17
S'endToRev'
p1999
sg21
S'End revision of toFile into which integration was \n\t\t    performed. Only varies from startToRev for reverse \n\t\t    integration records.'
p2000
stRp2001
ag3
(g4
g5
(dp2002
g19
S'IntegHow'
p2003
sg17
S'how'
p2004
sg21
S'Integration method: variations on \n\t\t    merge/branch/copy/ignore/delete.'
p2005
stRp2006
ag3
(g4
g5
(dp2007
g19
S'ResolveState'
p2008
sg17
S'state'
p2009
sg21
S'How the user performed the resolve.'
p2010
stRp2011
ag3
(g4
g5
(dp2012
g19
S'File'
p2013
sg17
S'baseFile'
p2014
sg21
S'File used as the base for merging.'
p2015
stRp2016
ag3
(g4
g5
(dp2017
g19
S'Rev'
p2018
sg17
S'baseRev'
p2019
sg21
S'Revision of baseFile used as the merge base.'
p2020
stRp2021
atRp2022
sg17
S'Resolve'
p2023
stRp2024
ag3
(g4
g5
(dp2025
g595
g3
(g8
g9
(lp2026
g3
(g4
g5
(dp2027
g19
S'File'
p2028
sg17
S'depotFile'
p2029
sg21
S'The file name'
p2030
stRp2031
ag3
(g4
g5
(dp2032
g19
S'Rev'
p2033
sg17
S'depotRev'
p2034
sg21
S'The revision number'
p2035
stRp2036
ag3
(g4
g5
(dp2037
g19
S'FileType'
p2038
sg17
S'type'
p2039
sg21
S'The file type of the revision'
p2040
stRp2041
ag3
(g4
g5
(dp2042
g19
S'Action'
p2043
sg17
S'action'
p2044
sg21
S'The action that created the revision'
p2045
stRp2046
ag3
(g4
g5
(dp2047
g19
S'Change'
p2048
sg17
S'change'
p2049
sg21
S'The changelist that created the revision'
p2050
stRp2051
ag3
(g4
g5
(dp2052
g19
S'Date'
p2053
sg17
S'date'
p2054
sg21
S'The date/time the changelist that created the revision\n\t\t    was submitted'
p2055
stRp2056
ag3
(g4
g5
(dp2057
g19
S'Date'
p2058
sg17
S'modTime'
p2059
sg21
S"The timestamp on the file in the user's workspace when\n\t\t    the revision was submitted."
p2060
stRp2061
ag3
(g4
g5
(dp2062
g19
S'Digest'
p2063
sg17
S'digest'
p2064
sg21
S'The MD5 digest of the revision.'
p2065
stRp2066
ag3
(g4
g5
(dp2067
g19
S'FileSize'
p2068
sg17
S'size'
p2069
sg21
S'The size of the file in bytes'
p2070
stRp2071
ag3
(g4
g5
(dp2072
g19
S'TraitLot'
p2073
sg17
S'traitLot'
p2074
sg21
S'Group of traits (attributes) associated with the revision.'
p2075
stRp2076
ag3
(g4
g5
(dp2077
g19
S'RevStatus'
p2078
sg17
S'lbrIsLazy'
p2079
sg21
S'Specifies whether or not the revision gets its content from \n\t  \t    another file (lazy copy), data about promotion of revision\n\t \t    content from task streams, and data about revision charset \n            information.'
p2080
stRp2081
ag3
(g4
g5
(dp2082
g19
S'File'
p2083
sg17
S'lbrFile'
p2084
sg21
S"Filename for librarian's purposes.  Specifies location in \n\t\t    the archives where the file containing the revision may\n\t\t    be found. Usually the same as depotFile, but differs in\n\t\t    the case of branched/copied revisions."
p2085
stRp2086
ag3
(g4
g5
(dp2087
g19
S'String'
p2088
sg17
S'lbrRev'
p2089
sg21
S'The revision of lbrFile that contains the revision content.'
p2090
stRp2091
ag3
(g4
g5
(dp2092
g19
S'FileType'
p2093
sg17
S'lbrType'
p2094
sg21
S'The file type of the librarian revision. Usually the same\n\t\t    as type, but differs in the case of branched/copied \n\t\t    revisions.'
p2095
stRp2096
atRp2097
sg17
S'Rev'
p2098
stRp2099
ag3
(g4
g5
(dp2100
g595
g3
(g8
g9
(lp2101
g3
(g4
g5
(dp2102
g19
S'Change'
p2103
sg17
S'change'
p2104
sg21
S'The changelist that created the revision'
p2105
stRp2106
ag3
(g4
g5
(dp2107
g19
S'File'
p2108
sg17
S'depotFile'
p2109
sg21
S'The file name'
p2110
stRp2111
ag3
(g4
g5
(dp2112
g19
S'Rev'
p2113
sg17
S'depotRev'
p2114
sg21
S'The revision number'
p2115
stRp2116
ag3
(g4
g5
(dp2117
g19
S'Action'
p2118
sg17
S'action'
p2119
sg21
S'The action that created the revision'
p2120
stRp2121
atRp2122
sg17
S'RevCx'
p2123
stRp2124
ag3
(g4
g5
(dp2125
g595
g3
(g8
g9
(lp2126
g3
(g4
g5
(dp2127
g19
S'User'
p2128
sg17
S'user'
p2129
sg21
S'A user name'
p2130
stRp2131
ag3
(g4
g5
(dp2132
g19
S'Int'
p2133
sg17
S'seq'
p2134
sg21
S'Sequence number: used for ordering multi-line views'
p2135
stRp2136
ag3
(g4
g5
(dp2137
g19
S'MapFlag'
p2138
sg17
S'mapFlag'
p2139
sg21
S'Type of mapping'
p2140
stRp2141
ag3
(g4
g5
(dp2142
g19
S'Mapping'
p2143
sg17
S'depotFile'
p2144
sg21
S'The files to be reviewed'
p2145
stRp2146
ag3
(g4
g5
(dp2147
g19
S'Reviewer'
p2148
sg17
S'type'
p2149
sg21
S'Type of reviewer'
p2150
stRp2151
atRp2152
sg17
S'Review'
p2153
stRp2154
ag3
(g4
g5
(dp2155
g595
g3
(g8
g9
(lp2156
g3
(g4
g5
(dp2157
g19
S'RemoteID'
p2158
sg17
S'id'
p2159
sg21
S'Remote name'
p2160
stRp2161
ag3
(g4
g5
(dp2162
g19
S'Int'
p2163
sg17
S'seq'
p2164
sg21
S'Sequence number: for ordering multi-line views'
p2165
stRp2166
ag3
(g4
g5
(dp2167
g19
S'MapFlag'
p2168
sg17
S'mapFlag'
p2169
sg21
S'Type of mapping'
p2170
stRp2171
ag3
(g4
g5
(dp2172
g19
S'Mapping'
p2173
sg17
S'localFile'
p2174
sg21
S'Local file'
p2175
stRp2176
ag3
(g4
g5
(dp2177
g19
S'Mapping'
p2178
sg17
S'remoteFile'
p2179
sg21
S'Remote file'
p2180
stRp2181
ag3
(g4
g5
(dp2182
g19
S'Int'
p2183
sg17
S'retain'
p2184
sg21
S'ArchiveLimits'
p2185
stRp2186
atRp2187
sg17
S'RmtView'
p2188
stRp2189
ag3
(g4
g5
(dp2190
g595
g3
(g8
g9
(lp2191
g3
(g4
g5
(dp2192
g19
S'Int'
p2193
sg17
S'taskID'
p2194
sg21
S'The process id (PID) of the sync'
p2195
stRp2196
ag3
(g4
g5
(dp2197
g19
S'Int'
p2198
sg17
S'seq'
p2199
sg21
S'Sequence number'
p2200
stRp2201
ag3
(g4
g5
(dp2202
g19
S'Text'
p2203
sg17
S'handle'
p2204
sg21
S'Handle'
p2205
stRp2206
ag3
(g4
g5
(dp2207
g19
S'File'
p2208
sg17
S'depotFile'
p2209
sg21
S'The file in the depot'
p2210
stRp2211
ag3
(g4
g5
(dp2212
g19
S'File'
p2213
sg17
S'clientFile'
p2214
sg21
S'The file in its location on the client'
p2215
stRp2216
ag3
(g4
g5
(dp2217
g19
S'Rev'
p2218
sg17
S'haveRev'
p2219
sg21
S'Have revision'
p2220
stRp2221
ag3
(g4
g5
(dp2222
g19
S'FileType'
p2223
sg17
S'type'
p2224
sg21
S'File type'
p2225
stRp2226
ag3
(g4
g5
(dp2227
g19
S'Date'
p2228
sg17
S'modtime'
p2229
sg21
S'Modification time'
p2230
stRp2231
ag3
(g4
g5
(dp2232
g19
S'Digest'
p2233
sg17
S'digest'
p2234
sg21
S'The MD5 digest of the revision'
p2235
stRp2236
ag3
(g4
g5
(dp2237
g19
S'FileSize'
p2238
sg17
S'size'
p2239
sg21
S'The size of the file in bytes'
p2240
stRp2241
ag3
(g4
g5
(dp2242
g19
S'File'
p2243
sg17
S'lbrFile'
p2244
sg21
S'Librarian filename'
p2245
stRp2246
ag3
(g4
g5
(dp2247
g19
S'LbrRev'
p2248
sg17
S'lbrRev'
p2249
sg21
S'The revision of lbrFile that contains the revision content'
p2250
stRp2251
ag3
(g4
g5
(dp2252
g19
S'FileType'
p2253
sg17
S'lbrType'
p2254
sg21
S'The file type of the librarian revision'
p2255
stRp2256
ag3
(g4
g5
(dp2257
g19
S'Int'
p2258
sg17
S'flags'
p2259
sg21
S'Flags'
p2260
stRp2261
ag3
(g4
g5
(dp2262
g19
S'FileType'
p2263
sg17
S'clientType'
p2264
sg21
S'The client file type of the revision'
p2265
stRp2266
atRp2267
sg17
S'SendQ'
p2268
stRp2269
ag3
(g4
g5
(dp2270
g595
g3
(g8
g9
(lp2271
g3
(g4
g5
(dp2272
g19
S'Text'
p2273
sg17
S'id'
p2274
sg21
S'The server identifier'
p2275
stRp2276
ag3
(g4
g5
(dp2277
g19
S'ServerType'
p2278
sg17
S'type'
p2279
sg21
S'The server type: server/broker/proxy'
p2280
stRp2281
ag3
(g4
g5
(dp2282
g19
S'Text'
p2283
sg17
S'name'
p2284
sg21
S'The P4NAME used by this server'
p2285
stRp2286
ag3
(g4
g5
(dp2287
g19
S'Text'
p2288
sg17
S'address'
p2289
sg21
S'The P4PORT used by this server'
p2290
stRp2291
ag3
(g4
g5
(dp2292
g19
S'Text'
p2293
sg17
S'externalAddress'
p2294
sg21
S'For an edge server, this optional field contains its external address for connections from the commit server. This field is required for federated parallel submit.'
p2295
stRp2296
ag3
(g4
g5
(dp2297
g19
S'ServerServiceType'
p2298
sg17
S'services'
p2299
sg21
S'Service provided by this server'
p2300
stRp2301
ag3
(g4
g5
(dp2302
g19
S'Text'
p2303
sg17
S'desc'
p2304
sg21
S'Server description'
p2305
stRp2306
ag3
(g4
g5
(dp2307
g19
S'User'
p2308
sg17
S'user'
p2309
sg21
S'The service user used by this server'
p2310
stRp2311
atRp2312
sg17
S'Server'
p2313
stRp2314
ag3
(g4
g5
(dp2315
g595
g3
(g8
g9
(lp2316
g3
(g4
g5
(dp2317
g19
S'Domain'
p2318
sg17
S'client'
p2319
sg21
S'Client the stash refers to'
p2320
stRp2321
ag3
(g4
g5
(dp2322
g19
S'Domain'
p2323
sg17
S'stream'
p2324
sg21
S'Stream the stash refers to'
p2325
stRp2326
ag3
(g4
g5
(dp2327
g19
S'StashType'
p2328
sg17
S'type'
p2329
sg21
S'Stash type'
p2330
stRp2331
ag3
(g4
g5
(dp2332
g19
S'Int'
p2333
sg17
S'seq'
p2334
sg21
S'Sequence number'
p2335
stRp2336
ag3
(g4
g5
(dp2337
g19
S'Change'
p2338
sg17
S'change'
p2339
sg21
S'Stash change number'
p2340
stRp2341
atRp2342
sg17
S'Stash'
p2343
stRp2344
ag3
(g4
g5
(dp2345
g595
g3
(g8
g9
(lp2346
g3
(g4
g5
(dp2347
g19
S'Domain'
p2348
sg17
S'stream'
p2349
sg21
S'Stream name'
p2350
stRp2351
ag3
(g4
g5
(dp2352
g19
S'Domain'
p2353
sg17
S'parent'
p2354
sg21
S'Parent stream name'
p2355
stRp2356
ag3
(g4
g5
(dp2357
g19
S'Text'
p2358
sg17
S'title'
p2359
sg21
S'Stream title (alias for the stream name)'
p2360
stRp2361
ag3
(g4
g5
(dp2362
g19
S'StreamType'
p2363
sg17
S'type'
p2364
sg21
S'The type of stream'
p2365
stRp2366
ag3
(g4
g5
(dp2367
g19
S'Date'
p2368
sg17
S'preview'
p2369
sg21
S'Stream template modification time'
p2370
stRp2371
ag3
(g4
g5
(dp2372
g19
S'Change'
p2373
sg17
S'change'
p2374
sg21
S'Last submit to stream'
p2375
stRp2376
ag3
(g4
g5
(dp2377
g19
S'Change'
p2378
sg17
S'copychg'
p2379
sg21
S'Parent change at last copy'
p2380
stRp2381
ag3
(g4
g5
(dp2382
g19
S'Change'
p2383
sg17
S'mergechg'
p2384
sg21
S'Parent change at last merge'
p2385
stRp2386
ag3
(g4
g5
(dp2387
g19
S'Change'
p2388
sg17
S'highchg'
p2389
sg21
S'Highest change at last merge'
p2390
stRp2391
ag3
(g4
g5
(dp2392
g19
S'Int'
p2393
sg17
S'hash'
p2394
sg21
S'Hash value of dynamic branch'
p2395
stRp2396
ag3
(g4
g5
(dp2397
g19
S'StreamStatus'
p2398
sg17
S'status'
p2399
sg21
S'Flow status'
p2400
stRp2401
atRp2402
sg17
S'Stream'
p2403
stRp2404
ag3
(g4
g5
(dp2405
g595
g3
(g8
g9
(lp2406
g3
(g4
g5
(dp2407
g19
S'Text'
p2408
sg17
S'id'
p2409
sg21
S'Server name'
p2410
stRp2411
ag3
(g4
g5
(dp2412
g19
S'SvrViewType'
p2413
sg17
S'type'
p2414
sg21
S'View type'
p2415
stRp2416
ag3
(g4
g5
(dp2417
g19
S'Int'
p2418
sg17
S'seq'
p2419
sg21
S'Sequence (line) number'
p2420
stRp2421
ag3
(g4
g5
(dp2422
g19
S'MapFlag'
p2423
sg17
S'mapFlag'
p2424
sg21
S'Type of mapping'
p2425
stRp2426
ag3
(g4
g5
(dp2427
g19
S'Mapping'
p2428
sg17
S'viewFile'
p2429
sg21
S'View file'
p2430
stRp2431
atRp2432
sg17
S'SvrView'
p2433
stRp2434
ag3
(g4
g5
(dp2435
g595
g3
(g8
g9
(lp2436
g3
(g4
g5
(dp2437
g19
S'Domain'
p2438
sg17
S'name'
p2439
sg21
S'Stream name'
p2440
stRp2441
ag3
(g4
g5
(dp2442
g19
S'Change'
p2443
sg17
S'change'
p2444
sg21
S'Versioned at change'
p2445
stRp2446
ag3
(g4
g5
(dp2447
g19
S'Int'
p2448
sg17
S'seq'
p2449
sg21
S'Sequence (line) number'
p2450
stRp2451
ag3
(g4
g5
(dp2452
g19
S'Domain'
p2453
sg17
S'parent'
p2454
sg21
S'Parent stream name'
p2455
stRp2456
ag3
(g4
g5
(dp2457
g19
S'StreamType'
p2458
sg17
S'type'
p2459
sg21
S'Type of stream'
p2460
stRp2461
ag3
(g4
g5
(dp2462
g19
S'StreamPathType'
p2463
sg17
S'path'
p2464
sg21
S'Stream path type'
p2465
stRp2466
ag3
(g4
g5
(dp2467
g19
S'Mapping'
p2468
sg17
S'viewFile'
p2469
sg21
S'View file (left hand side of path)'
p2470
stRp2471
ag3
(g4
g5
(dp2472
g19
S'Mapping'
p2473
sg17
S'depotFile'
p2474
sg21
S'Depot file (right hand side of path)'
p2475
stRp2476
ag3
(g4
g5
(dp2477
g19
S'Value'
p2478
sg17
S'changeMap'
p2479
sg21
S"Stream 'import' path changelist specifier. The changelist\n\t\t\tlimits in effect for a given client are displayed in a\n\t    \tread-only client spec field called 'ChangeView'"
p2480
stRp2481
atRp2482
sg17
S'Template'
p2483
stRp2484
ag3
(g4
g5
(dp2485
g595
g3
(g8
g9
(lp2486
g3
(g4
g5
(dp2487
g19
S'Change'
p2488
sg17
S'shelf'
p2489
sg21
S'Shelf changelist number'
p2490
stRp2491
ag3
(g4
g5
(dp2492
g19
S'Domain'
p2493
sg17
S'name'
p2494
sg21
S'Stream name'
p2495
stRp2496
ag3
(g4
g5
(dp2497
g19
S'Int'
p2498
sg17
S'seq'
p2499
sg21
S'Sequence (line) number'
p2500
stRp2501
ag3
(g4
g5
(dp2502
g19
S'Change'
p2503
sg17
S'change'
p2504
sg21
S'Versioned at change'
p2505
stRp2506
ag3
(g4
g5
(dp2507
g19
S'Domain'
p2508
sg17
S'parent'
p2509
sg21
S'Parent stream name'
p2510
stRp2511
ag3
(g4
g5
(dp2512
g19
S'StreamType'
p2513
sg17
S'type'
p2514
sg21
S'Type of stream'
p2515
stRp2516
ag3
(g4
g5
(dp2517
g19
S'StreamPathType'
p2518
sg17
S'path'
p2519
sg21
S'Stream path type'
p2520
stRp2521
ag3
(g4
g5
(dp2522
g19
S'Mapping'
p2523
sg17
S'viewFile'
p2524
sg21
S'View file (left hand side of path)'
p2525
stRp2526
ag3
(g4
g5
(dp2527
g19
S'Mapping'
p2528
sg17
S'depotFile'
p2529
sg21
S'Depot file (right hand side of path)'
p2530
stRp2531
ag3
(g4
g5
(dp2532
g19
S'Value'
p2533
sg17
S'changeMap'
p2534
sg21
S"Stream 'import' path changelist specifier. The changelist\n\t\t\tlimits in effect for a given client are displayed in a\n\t    \tread-only client spec field called 'ChangeView'"
p2535
stRp2536
atRp2537
sg17
S'TemplateSx'
p2538
stRp2539
ag3
(g4
g5
(dp2540
g595
g3
(g8
g9
(lp2541
g3
(g4
g5
(dp2542
g19
S'Domain'
p2543
sg17
S'client'
p2544
sg21
S'Stream client'
p2545
stRp2546
ag3
(g4
g5
(dp2547
g19
S'Domain'
p2548
sg17
S'name'
p2549
sg21
S'Stream name'
p2550
stRp2551
ag3
(g4
g5
(dp2552
g19
S'Int'
p2553
sg17
S'seq'
p2554
sg21
S'Sequence (line) number'
p2555
stRp2556
ag3
(g4
g5
(dp2557
g19
S'Change'
p2558
sg17
S'change'
p2559
sg21
S'Versioned at change'
p2560
stRp2561
ag3
(g4
g5
(dp2562
g19
S'Domain'
p2563
sg17
S'parent'
p2564
sg21
S'Parent stream name'
p2565
stRp2566
ag3
(g4
g5
(dp2567
g19
S'StreamType'
p2568
sg17
S'type'
p2569
sg21
S'Type of stream'
p2570
stRp2571
ag3
(g4
g5
(dp2572
g19
S'StreamPathType'
p2573
sg17
S'path'
p2574
sg21
S'Stream path type'
p2575
stRp2576
ag3
(g4
g5
(dp2577
g19
S'Mapping'
p2578
sg17
S'viewFile'
p2579
sg21
S'View file (left hand side of path)'
p2580
stRp2581
ag3
(g4
g5
(dp2582
g19
S'Mapping'
p2583
sg17
S'depotFile'
p2584
sg21
S'Depot file (right hand side of path)'
p2585
stRp2586
ag3
(g4
g5
(dp2587
g19
S'Value'
p2588
sg17
S'changeMap'
p2589
sg21
S"Stream 'import' path changelist specifier. The changelist\n\t\t\tlimits in effect for a given client are displayed in a\n\t    \tread-only client spec field called 'ChangeView'"
p2590
stRp2591
atRp2592
sg17
S'TemplateWx'
p2593
stRp2594
ag3
(g4
g5
(dp2595
g595
g3
(g8
g9
(lp2596
g3
(g4
g5
(dp2597
g19
S'String'
p2598
sg17
S'fileAndRev'
p2599
sg21
S'The file name and revision'
p2600
stRp2601
ag3
(g4
g5
(dp2602
g19
S'Octet String'
p2603
sg17
S'fileContent'
p2604
sg21
S'The (encoded) file content'
p2605
stRp2606
atRp2607
sg17
S'TinyDb'
p2608
stRp2609
ag3
(g4
g5
(dp2610
g595
g3
(g8
g9
(lp2611
g3
(g4
g5
(dp2612
g19
S'Int'
p2613
sg17
S'traitLot'
p2614
sg21
S'Indicates a specific collection of traits (referred to \n\t\t    externally as "attributes".)'
p2615
stRp2616
ag3
(g4
g5
(dp2617
g19
S'String'
p2618
sg17
S'name'
p2619
sg21
S'Trait (attribute) name'
p2620
stRp2621
ag3
(g4
g5
(dp2622
g19
S'TraitType'
p2623
sg17
S'type'
p2624
sg21
S'Type of trait'
p2625
stRp2626
ag3
(g4
g5
(dp2627
g19
S'Octet String'
p2628
sg17
S'value'
p2629
sg21
S'The value'
p2630
stRp2631
atRp2632
sg17
S'Trait'
p2633
stRp2634
ag3
(g4
g5
(dp2635
g595
g3
(g8
g9
(lp2636
g3
(g4
g5
(dp2637
g19
S'Int'
p2638
sg17
S'seq'
p2639
sg21
S'Sequence number: for ordering the trigger list'
p2640
stRp2641
ag3
(g4
g5
(dp2642
g19
S'String'
p2643
sg17
S'name'
p2644
sg21
S'Name of the trigger'
p2645
stRp2646
ag3
(g4
g5
(dp2647
g19
S'MapFlag'
p2648
sg17
S'mapFlag'
p2649
sg21
S'Type of mapping: specifies whether the trigger applies \n\t\t    to the files or not.'
p2650
stRp2651
ag3
(g4
g5
(dp2652
g19
S'Mapping'
p2653
sg17
S'depotFile'
p2654
sg21
S'The files to apply the trigger to'
p2655
stRp2656
ag3
(g4
g5
(dp2657
g19
S'File'
p2658
sg17
S'triggerDepotFile'
p2659
sg21
S'Depot path to the trigger'
p2660
stRp2661
ag3
(g4
g5
(dp2662
g19
S'Trigger'
p2663
sg17
S'trigger'
p2664
sg21
S'Type of trigger'
p2665
stRp2666
ag3
(g4
g5
(dp2667
g19
S'Text'
p2668
sg17
S'action'
p2669
sg21
S'Command to execute when trigger runs'
p2670
stRp2671
atRp2672
sg17
S'Trigger'
p2673
stRp2674
ag3
(g4
g5
(dp2675
g595
g3
(g8
g9
(lp2676
g3
(g4
g5
(dp2677
g19
S'User'
p2678
sg17
S'user'
p2679
sg21
S'The username'
p2680
stRp2681
ag3
(g4
g5
(dp2682
g19
S'Text'
p2683
sg17
S'email'
p2684
sg21
S"The user's email address"
p2685
stRp2686
ag3
(g4
g5
(dp2687
g19
S'Text'
p2688
sg17
S'jobView'
p2689
sg21
S"The user's job view"
p2690
stRp2691
ag3
(g4
g5
(dp2692
g19
S'Date'
p2693
sg17
S'updateDate'
p2694
sg21
S'The date/time the user record was last updated'
p2695
stRp2696
ag3
(g4
g5
(dp2697
g19
S'Date'
p2698
sg17
S'accessDate'
p2699
sg21
S'The date/time the user record was last used'
p2700
stRp2701
ag3
(g4
g5
(dp2702
g19
S'Text'
p2703
sg17
S'fullName'
p2704
sg21
S"The user's full name"
p2705
stRp2706
ag3
(g4
g5
(dp2707
g19
S'Password'
p2708
sg17
S'password'
p2709
sg21
S'The MD5 hash of the users (encrypted) password'
p2710
stRp2711
ag3
(g4
g5
(dp2712
g19
S'Strength'
p2713
sg17
S'strength'
p2714
sg21
S"Measure of the strength of the user's password"
p2715
stRp2716
ag3
(g4
g5
(dp2717
g19
S'Password'
p2718
sg17
S'ticket'
p2719
sg21
S"'p4 login' ticket for this user"
p2720
stRp2721
ag3
(g4
g5
(dp2722
g19
S'Date'
p2723
sg17
S'endDate'
p2724
sg21
S"Date/time the user's ticket expires"
p2725
stRp2726
ag3
(g4
g5
(dp2727
g19
S'UserLevel'
p2728
sg17
S'type'
p2729
sg21
S'Type of user'
p2730
stRp2731
ag3
(g4
g5
(dp2732
g19
S'Date'
p2733
sg17
S'passDate'
p2734
sg21
S'Date password was last changed'
p2735
stRp2736
ag3
(g4
g5
(dp2737
g19
S'Date'
p2738
sg17
S'passExpire'
p2739
sg21
S'Date of password expiration'
p2740
stRp2741
ag3
(g4
g5
(dp2742
g19
S'Date'
p2743
sg17
S'attempts'
p2744
sg21
S'Failed login attempts'
p2745
stRp2746
ag3
(g4
g5
(dp2747
g19
S'Int'
p2748
sg17
S'auth'
p2749
sg21
S'Authentication method for user; 0=perforce, 1=ldap'
p2750
stRp2751
atRp2752
sg17
S'User'
p2753
stRp2754
ag3
(g4
g5
(dp2755
g595
g3
(g8
g9
(lp2756
g3
(g4
g5
(dp2757
g19
S'Domain'
p2758
sg17
S'name'
p2759
sg21
S'Domain name to which this view applies'
p2760
stRp2761
ag3
(g4
g5
(dp2762
g19
S'Int'
p2763
sg17
S'seq'
p2764
sg21
S'Sequence number: for ordering multi-line views'
p2765
stRp2766
ag3
(g4
g5
(dp2767
g19
S'MapFlag'
p2768
sg17
S'mapFlag'
p2769
sg21
S'Type of mapping'
p2770
stRp2771
ag3
(g4
g5
(dp2772
g19
S'Mapping'
p2773
sg17
S'viewFile'
p2774
sg21
S"The right-hand-side of the view. For clients, this is\n\t\t    the client-side, for labels it's the generated label \n\t\t    view. For branches, it's the target side of the branch\n\t\t    view."
p2775
stRp2776
ag3
(g4
g5
(dp2777
g19
S'Mapping'
p2778
sg17
S'depotFile'
p2779
sg21
S'The left-hand-side of the view - a mapping to file(s)\n\t\t    in the depot.'
p2780
stRp2781
atRp2782
sg17
S'View'
p2783
stRp2784
ag3
(g4
g5
(dp2785
g595
g3
(g8
g9
(lp2786
g3
(g4
g5
(dp2787
g19
S'File'
p2788
sg17
S'clientFile'
p2789
sg21
S'File on the client'
p2790
stRp2791
ag3
(g4
g5
(dp2792
g19
S'File'
p2793
sg17
S'depotFile'
p2794
sg21
S'File in the depot'
p2795
stRp2796
ag3
(g4
g5
(dp2797
g19
S'Domain'
p2798
sg17
S'client'
p2799
sg21
S'The client the file is opened on'
p2800
stRp2801
ag3
(g4
g5
(dp2802
g19
S'User'
p2803
sg17
S'user'
p2804
sg21
S'The user who has the file opened'
p2805
stRp2806
ag3
(g4
g5
(dp2807
g19
S'Rev'
p2808
sg17
S'haveRev'
p2809
sg21
S"Revision presently in user's client workspace"
p2810
stRp2811
ag3
(g4
g5
(dp2812
g19
S'Rev'
p2813
sg17
S'workRev'
p2814
sg21
S'Working revision; normally identical to the haveRev'
p2815
stRp2816
ag3
(g4
g5
(dp2817
g19
S'Int'
p2818
sg17
S'isVirtual'
p2819
sg21
S'Flag: if 1, file was opened with "p4 integ -v".'
p2820
stRp2821
ag3
(g4
g5
(dp2822
g19
S'FileType'
p2823
sg17
S'type'
p2824
sg21
S'File type'
p2825
stRp2826
ag3
(g4
g5
(dp2827
g19
S'Action'
p2828
sg17
S'action'
p2829
sg21
S"What the user's doing with the file"
p2830
stRp2831
ag3
(g4
g5
(dp2832
g19
S'Change'
p2833
sg17
S'change'
p2834
sg21
S'Associated changelist, or zero for the default changelist.'
p2835
stRp2836
ag3
(g4
g5
(dp2837
g19
S'Date'
p2838
sg17
S'modTime'
p2839
sg21
S"Modification timestamp on the file in the user's workspace."
p2840
stRp2841
ag3
(g4
g5
(dp2842
g19
S'Int'
p2843
sg17
S'isLocked'
p2844
sg21
S'Flag: 0 for unlocked, 1 for locked.'
p2845
stRp2846
ag3
(g4
g5
(dp2847
g19
S'Digest'
p2848
sg17
S'digest'
p2849
sg21
S'MD5 digest of working file.'
p2850
stRp2851
ag3
(g4
g5
(dp2852
g19
S'Int64'
p2853
sg17
S'size'
p2854
sg21
S'File size'
p2855
stRp2856
ag3
(g4
g5
(dp2857
g19
S'Int'
p2858
sg17
S'traitLot'
p2859
sg21
S'Group of traits associated with file revision.'
p2860
stRp2861
ag3
(g4
g5
(dp2862
g19
S'TamperCheck'
p2863
sg17
S'tampered'
p2864
sg21
S'Flag indicating the tamper-state of the file in the\n\t\t    workspace.'
p2865
stRp2866
ag3
(g4
g5
(dp2867
g19
S'FileType'
p2868
sg17
S'clntType'
p2869
sg21
S'Type of the file in the client workspace.'
p2870
stRp2871
ag3
(g4
g5
(dp2872
g19
S'File'
p2873
sg17
S'mFile'
p2874
sg21
S'Moved filename'
p2875
stRp2876
ag3
(g4
g5
(dp2877
g19
S'Int'
p2878
sg17
S'status'
p2879
sg21
S'Working status'
p2880
stRp2881
atRp2882
sg17
S'Working'
p2883
stRp2884
atRp2885
stRp2886
sS'upgrades'
p2887
g3
(g4
g5
(dp2888
S'upgrade'
p2889
g3
(g8
g9
(lp2890
g3
(g4
g5
(dp2891
S'release'
p2892
S'2001.1'
p2893
sS'index'
p2894
S'1'
sg21
S'Split db.integ into db.integed and db.resolve'
p2895
stRp2896
ag3
(g4
g5
(dp2897
g2892
S'2001.1'
p2898
sg2894
S'2'
sg21
S'Splt db.have into db.have and db.label'
p2899
stRp2900
ag3
(g4
g5
(dp2901
g2892
S'2002.1'
p2902
sg2894
S'3'
sg21
S'Split db.change into db.change and db.changex'
p2903
stRp2904
ag3
(g4
g5
(dp2905
g2892
S'2002.2'
p2906
sg2894
S'4'
sg21
S'Upgrade tempobj filetype in db.rev'
p2907
stRp2908
ag3
(g4
g5
(dp2909
g2892
S'2002.2'
p2910
sg2894
S'5'
sg21
S'Upgrade tempobj filetype in db.working'
p2911
stRp2912
ag3
(g4
g5
(dp2913
g2892
S'2003.1'
p2914
sg2894
S'6'
sg21
S'JnlInitialize default depot'
p2915
stRp2916
ag3
(g4
g5
(dp2917
g2892
S'2003.2'
p2918
sg2894
S'7'
sg21
S'Upgrade db.user'
p2919
stRp2920
ag3
(g4
g5
(dp2921
g2892
S'2005.1'
p2922
sg2894
S'8'
sg21
S'Build db.revhx (headrev) table'
p2923
stRp2924
ag3
(g4
g5
(dp2925
g2892
S'2005.1'
p2926
sg2894
S'9'
sg21
S'Rebuild db.locks from db.working'
p2927
stRp2928
ag3
(g4
g5
(dp2929
g2892
S'2005.1'
p2930
sg2894
S'10'
p2931
sg273
S'Removed in 2006.2'
p2932
sg21
S'Build lazy-copy index (db.archive)'
p2933
stRp2934
ag3
(g4
g5
(dp2935
g2892
S'2005.2'
p2936
sg2894
S'11'
p2937
sg21
S'Build db.revdx (delrev) table'
p2938
stRp2939
ag3
(g4
g5
(dp2940
g2892
S'2005.2'
p2941
sg2894
S'12'
p2942
sg273
S'Moved to 16 in 2007.3'
p2943
sg21
S'Build haveMap from db.have/db.working'
p2944
stRp2945
ag3
(g4
g5
(dp2946
g2892
S'2005.2'
p2947
sg2894
S'13'
p2948
sg21
S'Move spec depot entries into db.revsx'
p2949
stRp2950
ag3
(g4
g5
(dp2951
g2892
S'2006.2'
p2952
sg2894
S'14'
p2953
sg273
S'Moved to 17 in 2007.3'
p2954
sg21
S'Build db.archmap (lazy-copy map) table'
p2955
stRp2956
ag3
(g4
g5
(dp2957
g2892
S'2006.2'
p2958
sg2894
S'15'
p2959
sg273
S'Moved to 18 in 2007.3'
p2960
sg21
S'Remove (obsolete) db.archive table'
p2961
stRp2962
ag3
(g4
g5
(dp2963
g2892
S'2007.3'
p2964
sg2894
S'16'
p2965
sg273
S'Rewritten in 2007.3'
p2966
sg21
S'Build/Rebuild haveMap from db.have/db.working'
p2967
stRp2968
ag3
(g4
g5
(dp2969
g2892
S'2007.3'
p2970
sg2894
S'17'
p2971
sg273
S'Rewritten in 2007.3'
p2972
sg21
S'Build/Rebuild db.archmap (lazy-copy map) table'
p2973
stRp2974
ag3
(g4
g5
(dp2975
g2892
S'2007.3'
p2976
sg2894
S'18'
p2977
sg273
S'Moved from 15 in 2007.3'
p2978
sg21
S'Remove (obsolete) db.archive table'
p2979
stRp2980
ag3
(g4
g5
(dp2981
g2892
S'2008.1'
p2982
sg2894
S'19'
p2983
sg21
S'Build db.change common path'
p2984
stRp2985
ag3
(g4
g5
(dp2986
g2892
S'2009.2'
p2987
sg2894
S'20'
p2988
sg21
S'Move db.boddate/db.ixdate into db.bodtext/db.ixtext'
p2989
stRp2990
ag3
(g4
g5
(dp2991
g2892
S'2009.2'
p2992
sg2894
S'21'
p2993
sg21
S'Remove db.boddate/db.ixdate'
p2994
stRp2995
ag3
(g4
g5
(dp2996
g2892
S'2010.2'
p2997
sg2894
S'22'
p2998
sg21
S'Move system counters into db.config'
p2999
stRp3000
ag3
(g4
g5
(dp3001
g2892
S'2011.1'
p3002
sg2894
S'23'
p3003
sg21
S'Upgrade tiny.db'
p3004
stRp3005
ag3
(g4
g5
(dp3006
g2892
S'2015.2'
p3007
sg2894
S'24'
p3008
sg21
S'Move LDAP specs into db.ldap'
p3009
stRp3010
ag3
(g4
g5
(dp3011
g2892
S'2016.1'
p3012
sg2894
S'25'
p3013
sg21
S'Create db.templatesx and db.templatewx'
p3014
stRp3015
atRp3016
stRp3017
sS'commit_upgrades'
p3018
g3
(g4
g5
(dp3019
S'commit_upgrade'
p3020
g3
(g8
g9
(lp3021
g3
(g4
g5
(dp3022
g2892
S'2013.2'
p3023
sg2894
S'commit-server'
p3024
sg273
S'Generate exclusive lock records in db.excl based on db.working data.'
p3025
sg21
S'Generate exclusive locks'
p3026
stRp3027
ag3
(g4
g5
(dp3028
g2892
S'2014.1'
p3029
sg2894
S'commit-server'
p3030
sg273
S'Promote existing shelves by updating changeStatus in db.change and db.changex.'
p3031
sg21
S'Promote Shelves'
p3032
stRp3033
atRp3034
stRp3035
sS'datatypes'
p3036
g3
(g4
g5
(dp3037
S'datatype'
p3038
g3
(g8
g9
(lp3039
g3
(g4
g5
(dp3040
g19
S'flag'
p3041
sS'summary'
p3042
S'Type of action'
p3043
sS'values'
p3044
g3
(g8
g9
(lp3045
g3
(g4
g5
(dp3046
S'value'
p3047
S'0'
sg21
S'add; user adds a file'
p3048
stRp3049
ag3
(g4
g5
(dp3050
g3047
S'1'
sg21
S'edit; user edits a file'
p3051
stRp3052
ag3
(g4
g5
(dp3053
g3047
S'2'
sg21
S'delete; user deletes a file'
p3054
stRp3055
ag3
(g4
g5
(dp3056
g3047
S'3'
sg21
S'branch; add via integration'
p3057
stRp3058
ag3
(g4
g5
(dp3059
g3047
S'4'
sg21
S'integ; edit via integration'
p3060
stRp3061
ag3
(g4
g5
(dp3062
g3047
S'5'
sg21
S'import; add via remote depot'
p3063
stRp3064
ag3
(g4
g5
(dp3065
g3047
S'6'
sg21
S'purge; purged revision, no longer available'
p3066
stRp3067
ag3
(g4
g5
(dp3068
g3047
S'7'
sg21
S'movefrom; move from another filename'
p3069
stRp3070
ag3
(g4
g5
(dp3071
g3047
S'8'
sg21
S'moveto; move to another filename'
p3072
stRp3073
ag3
(g4
g5
(dp3074
g3047
S'9'
sg21
S'archive; stored in archive depot'
p3075
stRp3076
atRp3077
sg17
S'Action'
p3078
sg21
S'Revisions are produced by user actions. The Action\n\t\ttype defines the available actions and their internal values.'
p3079
stRp3080
ag3
(g4
g5
(dp3081
g3042
S'A changelist number'
p3082
sg19
S'integer'
p3083
sg17
S'Change'
p3084
sg21
S'The number of a changelist. The number 0 represents the\n\t\tdefault pending changelist.'
p3085
stRp3086
ag3
(g4
g5
(dp3087
g19
S'flag'
p3088
sg3042
S'The status of a change'
p3089
sg3044
g3
(g8
g9
(lp3090
g3
(g4
g5
(dp3091
g3047
S'0'
sg21
S'pending'
p3092
stRp3093
ag3
(g4
g5
(dp3094
g3047
S'1'
sg21
S'submitted'
p3095
stRp3096
ag3
(g4
g5
(dp3097
g3047
S'2'
sg21
S'shelved'
p3098
stRp3099
ag3
(g4
g5
(dp3100
g3047
S'4'
sg21
S'restricted, pending'
p3101
stRp3102
ag3
(g4
g5
(dp3103
g3047
S'5'
sg21
S'restricted, submitted'
p3104
stRp3105
ag3
(g4
g5
(dp3106
g3047
S'6'
sg21
S'restricted, shelved'
p3107
stRp3108
ag3
(g4
g5
(dp3109
g3047
S'18'
p3110
sg21
S'promoted shelf, public'
p3111
stRp3112
ag3
(g4
g5
(dp3113
g3047
S'22'
p3114
sg21
S'promoted shelf, restricted'
p3115
stRp3116
ag3
(g4
g5
(dp3117
g3047
S'34'
p3118
sg21
S'unsubmitted shelf, public'
p3119
stRp3120
ag3
(g4
g5
(dp3121
g3047
S'38'
p3122
sg21
S'unsubmitted shelf, restricted'
p3123
stRp3124
atRp3125
sg17
S'ChangeStatus'
p3126
sg21
S'A integer value representing the status of a change'
p3127
stRp3128
ag3
(g4
g5
(dp3129
g3042
S'A counter name'
p3130
sg19
S'string'
p3131
sg17
S'Counter'
p3132
sg21
S'A string representing the counter name. Counter names must \n\t\tcontain no spaces, contain no slashes, and be identifiers \n\t\t(cannot begin with a dash and cannot be all-numeric)'
p3133
stRp3134
ag3
(g4
g5
(dp3135
g3042
S'A unix-style date and time'
p3136
sg19
S'integer'
p3137
sg17
S'Date'
p3138
sg21
S'A date and time represented as the number of seconds since \n\t\tthe Epoch: 01 January 1970 00:00:00 UTC. This is the same \n\t\tconvention as that used on Unix platforms.'
p3139
stRp3140
ag3
(g4
g5
(dp3141
g19
S'flag'
p3142
sg3042
S'Type of Depot'
p3143
sg3044
g3
(g8
g9
(lp3144
g3
(g4
g5
(dp3145
g3047
S'0'
sg21
S'local depot'
p3146
stRp3147
ag3
(g4
g5
(dp3148
g3047
S'1'
sg21
S'remote depot'
p3149
stRp3150
ag3
(g4
g5
(dp3151
g3047
S'2'
sg21
S'spec depot'
p3152
stRp3153
ag3
(g4
g5
(dp3154
g3047
S'3'
sg21
S'stream depot'
p3155
stRp3156
ag3
(g4
g5
(dp3157
g3047
S'4'
sg21
S'archive depot'
p3158
stRp3159
ag3
(g4
g5
(dp3160
g3047
S'5'
sg21
S'unload depot'
p3161
stRp3162
ag3
(g4
g5
(dp3163
g3047
S'6'
sg21
S'tangent depot'
p3164
stRp3165
atRp3166
sg17
S'DepotType'
p3167
sg21
S'The type of a given depot'
p3168
stRp3169
ag3
(g4
g5
(dp3170
g3042
S'A short string value'
p3171
sg21
S'The first 31 characters of a Text string'
p3172
sg19
S'string'
p3173
sg17
S'DescShort'
p3174
sg189
S'Text'
p3175
stRp3176
ag3
(g4
g5
(dp3177
g3042
S'An MD5 digest'
p3178
sg19
S'string'
p3179
sg17
S'Digest'
p3180
sg21
S'A string containing an MD5 digest.'
p3181
stRp3182
ag3
(g4
g5
(dp3183
g3042
S'A domain name'
p3184
sg19
S'string'
p3185
sg17
S'Domain'
p3186
sg21
S'A string representing the name of a depot, label, client,\n\t\tbranch, typemap, or stream.'
p3187
stRp3188
ag3
(g4
g5
(dp3189
g3042
S'A string with optional wildcards'
p3190
sg19
S'string'
p3191
sg17
S'DomainWild'
p3192
sg21
S'A string that may contain wildcards - usually an IP address\n\t\tin the protections table.'
p3193
stRp3194
ag3
(g4
g5
(dp3195
g3044
g3
(g8
g9
(lp3196
g3
(g4
g5
(dp3197
S'mask'
p3198
S'Domain Flags'
p3199
sg3047
S'0x0001'
p3200
sg21
S'modtime'
p3201
stRp3202
ag3
(g4
g5
(dp3203
g3198
S'Domain Flags'
p3204
sg3047
S'0x0002'
p3205
sg21
S'clobber'
p3206
stRp3207
ag3
(g4
g5
(dp3208
g3198
S'Domain Flags'
p3209
sg3047
S'0x0004'
p3210
sg21
S'allwrite'
p3211
stRp3212
ag3
(g4
g5
(dp3213
g3198
S'Domain Flags'
p3214
sg3047
S'0x0008'
p3215
sg21
S'locked'
p3216
stRp3217
ag3
(g4
g5
(dp3218
g3198
S'Domain Flags'
p3219
sg3047
S'0x0020'
p3220
sg21
S'compress'
p3221
stRp3222
ag3
(g4
g5
(dp3223
g3198
S'Domain Flags'
p3224
sg3047
S'0x0040'
p3225
sg21
S'rmdir'
p3226
stRp3227
ag3
(g4
g5
(dp3228
g3198
S'Domain Flags'
p3229
sg3047
S'0x1000'
p3230
sg21
S'indirect (obsolete since 2004.2)'
p3231
stRp3232
ag3
(g4
g5
(dp3233
g3198
S'Domain Flags'
p3234
sg3047
S'0x8000'
p3235
sg21
S'autoreload'
p3236
stRp3237
ag3
(g4
g5
(dp3238
g3198
S'Domain LineEnd'
p3239
sg3047
S'0x0000'
p3240
sg21
S'local'
p3241
stRp3242
ag3
(g4
g5
(dp3243
g3198
S'Domain LineEnd'
p3244
sg3047
S'0x0010'
p3245
sg21
S'unix (LF)'
p3246
stRp3247
ag3
(g4
g5
(dp3248
g3198
S'Domain LineEnd'
p3249
sg3047
S'0x0200'
p3250
sg21
S'mac (CR)'
p3251
stRp3252
ag3
(g4
g5
(dp3253
g3198
S'Domain LineEnd'
p3254
sg3047
S'0x0300'
p3255
sg21
S'win (CRLF)'
p3256
stRp3257
ag3
(g4
g5
(dp3258
g3198
S'Domain LineEnd'
p3259
sg3047
S'0x0400'
p3260
sg21
S'share (LF/CRLF)'
p3261
stRp3262
ag3
(g4
g5
(dp3263
g3198
S'Domain SubmitMask'
p3264
sg3047
S'0x1000'
p3265
sg21
S'Revert unchanged files'
p3266
stRp3267
ag3
(g4
g5
(dp3268
g3198
S'Domain SubmitMask'
p3269
sg3047
S'0x2000'
p3270
sg21
S'Leave unchanged files'
p3271
stRp3272
ag3
(g4
g5
(dp3273
g3198
S'Domain SubmitMask'
p3274
sg3047
S'0x4000'
p3275
sg21
S'Submit, and re-open unchanged files'
p3276
stRp3277
ag3
(g4
g5
(dp3278
g3198
S'Domain StreamMask'
p3279
sg3047
S'0x0001'
p3280
sg21
S'allsubmit or ownersubmit'
p3281
stRp3282
ag3
(g4
g5
(dp3283
g3198
S'Domain StreamMask'
p3284
sg3047
S'0x0002'
p3285
sg21
S'locked or unlocked'
p3286
stRp3287
ag3
(g4
g5
(dp3288
g3198
S'Domain StreamMask'
p3289
sg3047
S'0x0004'
p3290
sg21
S'change flows to parent'
p3291
stRp3292
ag3
(g4
g5
(dp3293
g3198
S'Domain StreamMask'
p3294
sg3047
S'0x0008'
p3295
sg21
S'change flows from parent'
p3296
stRp3297
ag3
(g4
g5
(dp3298
g3198
S'Domain StreamMask'
p3299
sg3047
S'0x0010'
p3300
sg21
S'mergeany or mergedown'
p3301
stRp3302
atRp3303
sg17
S'DomainOpts'
p3304
sg3198
g3
(g8
g9
(lp3305
g3
(g4
g5
(dp3306
g17
S'Domain Flags'
p3307
sg3047
S'0x10EF'
p3308
sg21
S'Bits used to store client, label, and branch options'
p3309
stRp3310
ag3
(g4
g5
(dp3311
g17
S'Domain LineEnd'
p3312
sg3047
S'0x0710'
p3313
sg21
S'Bits used to store client line termination settings.'
p3314
stRp3315
ag3
(g4
g5
(dp3316
g17
S'Domain SubmitMask'
p3317
sg3047
S'0x7000'
p3318
sg21
S'Bits used to store client submit options'
p3319
stRp3320
ag3
(g4
g5
(dp3321
g17
S'Domain StreamMask'
p3322
sg3047
S'0x000C'
p3323
sg21
S'Bits used to store stream options'
p3324
stRp3325
atRp3326
sg3042
S'Options for domains'
p3327
sg19
S'bitmask'
p3328
sg21
S'A integer value representing the options for a domain'
p3329
stRp3330
ag3
(g4
g5
(dp3331
g19
S'flag'
p3332
sg3042
S'A domain type'
p3333
sg3044
g3
(g8
g9
(lp3334
g3
(g4
g5
(dp3335
g3047
S"67 (ASCII 'C')"
p3336
sg21
S'unloaded client'
p3337
stRp3338
ag3
(g4
g5
(dp3339
g3047
S"76 (ASCII 'L')"
p3340
sg21
S'unloaded label'
p3341
stRp3342
ag3
(g4
g5
(dp3343
g3047
S"83 (ASCII 'S')"
p3344
sg21
S'unloaded task stream'
p3345
stRp3346
ag3
(g4
g5
(dp3347
g3047
S"98 (ASCII 'b')"
p3348
sg21
S'branch'
p3349
stRp3350
ag3
(g4
g5
(dp3351
g3047
S"99 (ASCII 'c')"
p3352
sg21
S'client'
p3353
stRp3354
ag3
(g4
g5
(dp3355
g3047
S"100 (ASCII 'd')"
p3356
sg21
S'depot'
p3357
stRp3358
ag3
(g4
g5
(dp3359
g3047
S"108 (ASCII 'l')"
p3360
sg21
S'label'
p3361
stRp3362
ag3
(g4
g5
(dp3363
g3047
S"115 (ASCII 's')"
p3364
sg21
S'stream'
p3365
stRp3366
ag3
(g4
g5
(dp3367
g3047
S"116 (ASCII 't')"
p3368
sg21
S'typemap'
p3369
stRp3370
atRp3371
sg17
S'DomainType'
p3372
sg21
S'A integer value representing the type of a domain'
p3373
stRp3374
ag3
(g4
g5
(dp3375
g3042
S'A file name'
p3376
sg21
S'A string representing the filename'
p3377
sg19
S'string'
p3378
sg17
S'File'
p3379
sg189
S'FileType'
p3380
stRp3381
ag3
(g4
g5
(dp3382
g3042
S'A file size'
p3383
sg19
S'integer'
p3384
sg17
S'FileSize'
p3385
sg21
S'A 64-bit integer used to store file sizes. The value -1 is\n\t\tused to represent unknown filesizes.'
p3386
stRp3387
ag3
(g4
g5
(dp3388
g3044
g3
(g8
g9
(lp3389
g3
(g4
g5
(dp3390
g3198
S'Storage Type'
p3391
sg3047
S'0x0000'
p3392
sg21
S'RCS'
p3393
stRp3394
ag3
(g4
g5
(dp3395
g3198
S'Storage Type'
p3396
sg3047
S'0x0001'
p3397
sg21
S'Binary'
p3398
stRp3399
ag3
(g4
g5
(dp3400
g3198
S'Storage Type'
p3401
sg3047
S'0x0002'
p3402
sg21
S'Tiny'
p3403
stRp3404
ag3
(g4
g5
(dp3405
g3198
S'Storage Type'
p3406
sg3047
S'0x0003'
p3407
sg21
S'Compressed'
p3408
stRp3409
ag3
(g4
g5
(dp3410
g3198
S'Storage Type'
p3411
sg3047
S'0x0004'
p3412
sg21
S'tempobj (deprecated since 2002.1)'
p3413
stRp3414
ag3
(g4
g5
(dp3415
g3198
S'Storage Type'
p3416
sg3047
S'0x0005'
p3417
sg21
S'Detect type. Used internally when no type is\n\t\t    given by the user.'
p3418
stRp3419
ag3
(g4
g5
(dp3420
g3198
S'Storage Type'
p3421
sg3047
S'0x0006'
p3422
sg21
S'Comressed tempobj (deprecated since 2002.1)'
p3423
stRp3424
ag3
(g4
g5
(dp3425
g3198
S'Storage Type'
p3426
sg3047
S'0x0007'
p3427
sg21
S'Binary access to compressed data. Used internally.'
p3428
stRp3429
ag3
(g4
g5
(dp3430
g3198
S'Storage Type'
p3431
sg3047
S'0x0008'
p3432
sg21
S'Stored externally via librarian trigger'
p3433
stRp3434
ag3
(g4
g5
(dp3435
g3198
S'Storage Mods'
p3436
sg3047
S'0x0010'
p3437
sg21
S'99.2-style keyword expansion/contraction'
p3438
stRp3439
ag3
(g4
g5
(dp3440
g3198
S'Storage Mods'
p3441
sg3047
S'0x0020'
p3442
sg21
S'2000.1-style keyword expansion/contraction'
p3443
stRp3444
ag3
(g4
g5
(dp3445
g3198
S'Storage Mods'
p3446
sg3047
S'0x0030'
p3447
sg21
S'Any type of keyword expansion'
p3448
stRp3449
ag3
(g4
g5
(dp3450
g3198
S'Storage Mods'
p3451
sg3047
S'0x0040'
p3452
sg21
S'Exclusive open'
p3453
stRp3454
ag3
(g4
g5
(dp3455
g3198
S'Storage Mods'
p3456
sg3047
S'0x0080'
p3457
sg21
S'New tempobj (+S modifier)'
p3458
stRp3459
ag3
(g4
g5
(dp3460
g3198
S'Tempobj revisions'
p3461
sg3047
S'0x0000'
p3462
sg21
S'+S1'
p3463
stRp3464
ag3
(g4
g5
(dp3465
g3198
S'Tempobj revisions'
p3466
sg3047
S'0x0100'
p3467
sg21
S'+S2'
p3468
stRp3469
ag3
(g4
g5
(dp3470
g3198
S'Tempobj revisions'
p3471
sg3047
S'0x0200'
p3472
sg21
S'+S3'
p3473
stRp3474
ag3
(g4
g5
(dp3475
g3198
S'Tempobj revisions'
p3476
sg3047
S'0x0300'
p3477
sg21
S'+S4'
p3478
stRp3479
ag3
(g4
g5
(dp3480
g3198
S'Tempobj revisions'
p3481
sg3047
S'0x0400'
p3482
sg21
S'+S5'
p3483
stRp3484
ag3
(g4
g5
(dp3485
g3198
S'Tempobj revisions'
p3486
sg3047
S'0x0500'
p3487
sg21
S'+S6'
p3488
stRp3489
ag3
(g4
g5
(dp3490
g3198
S'Tempobj revisions'
p3491
sg3047
S'0x0600'
p3492
sg21
S'+S7'
p3493
stRp3494
ag3
(g4
g5
(dp3495
g3198
S'Tempobj revisions'
p3496
sg3047
S'0x0700'
p3497
sg21
S'+S8'
p3498
stRp3499
ag3
(g4
g5
(dp3500
g3198
S'Tempobj revisions'
p3501
sg3047
S'0x0800'
p3502
sg21
S'+S9'
p3503
stRp3504
ag3
(g4
g5
(dp3505
g3198
S'Tempobj revisions'
p3506
sg3047
S'0x0900'
p3507
sg21
S'+S10'
p3508
stRp3509
ag3
(g4
g5
(dp3510
g3198
S'Tempobj revisions'
p3511
sg3047
S'0x0A00'
p3512
sg21
S'+S16'
p3513
stRp3514
ag3
(g4
g5
(dp3515
g3198
S'Tempobj revisions'
p3516
sg3047
S'0x0B00'
p3517
sg21
S'+S32'
p3518
stRp3519
ag3
(g4
g5
(dp3520
g3198
S'Tempobj revisions'
p3521
sg3047
S'0x0C00'
p3522
sg21
S'+S64'
p3523
stRp3524
ag3
(g4
g5
(dp3525
g3198
S'Tempobj revisions'
p3526
sg3047
S'0x0D00'
p3527
sg21
S'+S128'
p3528
stRp3529
ag3
(g4
g5
(dp3530
g3198
S'Tempobj revisions'
p3531
sg3047
S'0x0E00'
p3532
sg21
S'+S256'
p3533
stRp3534
ag3
(g4
g5
(dp3535
g3198
S'Tempobj revisions'
p3536
sg3047
S'0x0F00'
p3537
sg21
S'+S512'
p3538
stRp3539
ag3
(g4
g5
(dp3540
g3198
S'Client Type'
p3541
sg3047
S'0x0000000'
p3542
sg21
S'text'
p3543
stRp3544
ag3
(g4
g5
(dp3545
g3198
S'Client Type'
p3546
sg3047
S'0x0010000'
p3547
sg21
S'binary'
p3548
stRp3549
ag3
(g4
g5
(dp3550
g3198
S'Client Type'
p3551
sg3047
S'0x0020000'
p3552
sg21
S'executable bit set'
p3553
stRp3554
ag3
(g4
g5
(dp3555
g3198
S'Client Type'
p3556
sg3047
S'0x0040000'
p3557
sg21
S'symlink'
p3558
stRp3559
ag3
(g4
g5
(dp3560
g3198
S'Client Type'
p3561
sg3047
S'0x0050000'
p3562
sg21
S'resource fork'
p3563
stRp3564
ag3
(g4
g5
(dp3565
g3198
S'Client Type'
p3566
sg3047
S'0x0080000'
p3567
sg21
S'unicode'
p3568
stRp3569
ag3
(g4
g5
(dp3570
g3198
S'Client Type'
p3571
sg3047
S'0x0090000'
p3572
sg21
S'raw text (nocrlf - 99.1)'
p3573
stRp3574
ag3
(g4
g5
(dp3575
g3198
S'Client Type'
p3576
sg3047
S'0x00C0000'
p3577
sg21
S'apple data + resource file (since 2000.2)'
p3578
stRp3579
ag3
(g4
g5
(dp3580
g3198
S'Client Type'
p3581
sg3047
S'0x00D0000'
p3582
sg21
S'apple data + resource file (99.2)'
p3583
stRp3584
ag3
(g4
g5
(dp3585
g3198
S'Client Type'
p3586
sg3047
S'0x1000000'
p3587
sg21
S'Used to support filetype detection'
p3588
stRp3589
ag3
(g4
g5
(dp3590
g3198
S'Client Mods'
p3591
sg3047
S'0x0100000'
p3592
sg21
S'writable'
p3593
stRp3594
ag3
(g4
g5
(dp3595
g3198
S'Client Mods'
p3596
sg3047
S'0x0200000'
p3597
sg21
S'modtime'
p3598
stRp3599
ag3
(g4
g5
(dp3600
g3198
S'Client Mods'
p3601
sg3047
S'0x0400000'
p3602
sg21
S'uncompress on client'
p3603
stRp3604
atRp3605
sg17
S'FileType'
p3606
sg3198
g3
(g8
g9
(lp3607
g3
(g4
g5
(dp3608
g17
S'Storage Type'
p3609
sg3047
S'0x000F'
p3610
sg21
S"Bits used to store the server's storage type"
p3611
stRp3612
ag3
(g4
g5
(dp3613
g17
S'Storage Mods'
p3614
sg3047
S'0x00F0'
p3615
sg21
S"Bits used to store the modifiers to the server's storage \n\t\t    type"
p3616
stRp3617
ag3
(g4
g5
(dp3618
g17
S'Tempobj revisions'
p3619
sg3047
S'0x0F00'
p3620
sg21
S'Bits used to store the number of revisions to be stored\n\t\t    for +Sn files.'
p3621
stRp3622
ag3
(g4
g5
(dp3623
g17
S'Client Type'
p3624
sg3047
S'0x10D0000'
p3625
sg21
S"Bits used to store the file type from the client's point\n\t\t    of view."
p3626
stRp3627
ag3
(g4
g5
(dp3628
g17
S'Client Mods'
p3629
sg3047
S'0x720000'
p3630
sg21
S'Bits used to store the modifiers applied to the file\n\t\t    on the client.'
p3631
stRp3632
atRp3633
sg3042
S'Type of file'
p3634
sg19
S'bitmask'
p3635
sg21
S'The FileType is a bitmask specifying the type and modifiers\n\t\tof a revision from both the client and server points of view.\n\t\tThe first 16 bits are used to store the storage type and \n\t\tmodifiers, the next 16 bits are used to store the client \n\t\taccess method and modifiers.'
p3636
stRp3637
ag3
(g4
g5
(dp3638
g3042
S'Status of a fixed job'
p3639
sg19
S'string'
p3640
sg17
S'FixStatus'
p3641
sg21
S'This type is a wrapper around the \'Text\' type that handles\n\t\tthe pre-2000.1 "closed" default value.'
p3642
stRp3643
ag3
(g4
g5
(dp3644
g3042
S'A 32-bit integer'
p3645
sg19
S'integer'
p3646
sg17
S'Int'
p3647
sg21
S'A 32-bit integer'
p3648
stRp3649
ag3
(g4
g5
(dp3650
g3042
S'An 8-bit integer'
p3651
sg19
S'integer'
p3652
sg17
S'Int8'
p3653
sg21
S'An 8-bit integer: an unsigned char'
p3654
stRp3655
ag3
(g4
g5
(dp3656
g3042
S'A 64-bit integer'
p3657
sg19
S'integer'
p3658
sg17
S'Int64'
p3659
sg21
S'A 64-bit integer.'
p3660
stRp3661
ag3
(g4
g5
(dp3662
g273
S'All integration records should have a corresponding \n\t\treverse record. The \'branch from\' (2) and \'merge from\' (0) \n\t\trecords have corresponding "dirty" reverse records for cases \n\t\twhere the target file took more than one change or was \n\t\t(re)opened for \'edit\' or \'add\'.'
p3663
sg3044
g3
(g8
g9
(lp3664
g3
(g4
g5
(dp3665
g3047
S'0'
sg21
S'merge from: integration with other changes'
p3666
stRp3667
ag3
(g4
g5
(dp3668
g3047
S'1'
sg21
S'merge into: reverse merge'
p3669
stRp3670
ag3
(g4
g5
(dp3671
g3047
S'2'
sg21
S'branch from: integration was branch of file'
p3672
stRp3673
ag3
(g4
g5
(dp3674
g3047
S'3'
sg21
S'branch into: reverse branch'
p3675
stRp3676
ag3
(g4
g5
(dp3677
g3047
S'4'
sg21
S'copy from: integration took source file whole'
p3678
stRp3679
ag3
(g4
g5
(dp3680
g3047
S'5'
sg21
S'copy into: reverse take'
p3681
stRp3682
ag3
(g4
g5
(dp3683
g3047
S'6'
sg21
S'ignored: integration ignored source changes'
p3684
stRp3685
ag3
(g4
g5
(dp3686
g3047
S'7'
sg21
S'ignored by: reverse copy'
p3687
stRp3688
ag3
(g4
g5
(dp3689
g3047
S'8'
sg21
S'delete from: integration of delete'
p3690
stRp3691
ag3
(g4
g5
(dp3692
g3047
S'9'
sg21
S'delete into: reverse delete'
p3693
stRp3694
ag3
(g4
g5
(dp3695
g3047
S'10'
p3696
sg21
S'edit into: reverse of integration downgraded to \n\t\t    edit'
p3697
stRp3698
ag3
(g4
g5
(dp3699
g3047
S'11'
p3700
sg21
S'add into: reverse of branch downgraded to add'
p3701
stRp3702
ag3
(g4
g5
(dp3703
g3047
S'12'
p3704
sg21
S'edit from: merge that the user edited'
p3705
stRp3706
ag3
(g4
g5
(dp3707
g3047
S'13'
p3708
sg21
S'add from: branch downgraded to add'
p3709
stRp3710
ag3
(g4
g5
(dp3711
g3047
S'14'
p3712
sg21
S'moved from: reverse of renamed file'
p3713
stRp3714
ag3
(g4
g5
(dp3715
g3047
S'15'
p3716
sg21
S'moved into: file was renamed'
p3717
stRp3718
ag3
(g4
g5
(dp3719
g3047
S'16'
p3720
sg21
S"'delete' target rev ignoring non-deleted source"
p3721
stRp3722
ag3
(g4
g5
(dp3723
g3047
S'17'
p3724
sg21
S"non-deleted source ignored by 'delete' target rev"
p3725
stRp3726
ag3
(g4
g5
(dp3727
g3047
S'18'
p3728
sg21
S"'integrate' target rev ignoring deleted source"
p3729
stRp3730
ag3
(g4
g5
(dp3731
g3047
S'19'
p3732
sg21
S"deleted source ignored by 'integrate' target rev"
p3733
stRp3734
ag3
(g4
g5
(dp3735
g3047
S'20'
p3736
sg21
S'deleted branch ("branch from")'
p3737
stRp3738
ag3
(g4
g5
(dp3739
g3047
S'21'
p3740
sg21
S'deleted branch ("delete into")'
p3741
stRp3742
atRp3743
sg17
S'IntegHow'
p3744
sg3042
S'Integration methods'
p3745
sg19
S'flag'
p3746
sg21
S"Specifies how an integration was performed. Integrations\n\t\talways come in pairs: the 'forward' and 'reverse' records.\n\t\tAs a general rule, the forward records contain the word \n\t\t'from'; and the reverse records contain the word 'into'."
p3747
stRp3748
ag3
(g4
g5
(dp3749
g19
S'flag'
p3750
sg3042
S'Job status - defunct'
p3751
sg3044
g3
(g8
g9
(lp3752
g3
(g4
g5
(dp3753
g3047
S'0'
sg21
S'open'
p3754
stRp3755
ag3
(g4
g5
(dp3756
g3047
S'1'
sg21
S'closed'
p3757
stRp3758
ag3
(g4
g5
(dp3759
g3047
S'2'
sg21
S'suspended'
p3760
stRp3761
atRp3762
sg17
S'JobStat'
p3763
sg21
S'Old (pre-98.2) job status values.'
p3764
stRp3765
ag3
(g4
g5
(dp3766
g3042
S'A key name'
p3767
sg19
S'string'
p3768
sg17
S'Key'
p3769
sg21
S'A string representing the key name. Key names must \n\t\tcontain no spaces, contain no slashes, and be identifiers \n\t\t(cannot begin with a dash and cannot be all-numeric)'
p3770
stRp3771
ag3
(g4
g5
(dp3772
g19
S'flag'
p3773
sg3042
S'Types of mapping'
p3774
sg3044
g3
(g8
g9
(lp3775
g3
(g4
g5
(dp3776
g3047
S'0'
sg21
S'mapped-in (the default)'
p3777
stRp3778
ag3
(g4
g5
(dp3779
g3047
S'1'
sg21
S"mapped-out (mappings that start with '-')"
p3780
stRp3781
ag3
(g4
g5
(dp3782
g3047
S'2'
sg21
S"overlay (mappings that start with '+')"
p3783
stRp3784
ag3
(g4
g5
(dp3785
g3047
S'3'
sg21
S"haveMap (mappings that start with '$'). Used internally\n\t\t    only"
p3786
stRp3787
ag3
(g4
g5
(dp3788
g3047
S'4'
sg21
S"changeMap (mappings that start with '@')"
p3789
stRp3790
atRp3791
sg17
S'MapFlag'
p3792
sg21
S'Specifies how the files specified by a mapping should be\n\t\ttreated'
p3793
stRp3794
ag3
(g4
g5
(dp3795
g3042
S'A string representing a mapping'
p3796
sg19
S'string'
p3797
sg17
S'Mapping'
p3798
sg21
S'A Mapping is essentially a file name that may contain\n\t\twildcards'
p3799
stRp3800
ag3
(g4
g5
(dp3801
g3042
S'Maximum number of milliseconds to hold locks'
p3802
sg19
S'integer'
p3803
sg17
S'MaxLockTime'
p3804
sg21
S"The number of milliseconds for which a command may hold locks.\n\t\tCommands that take longer than this time period will abort. \n\t\tThe value 0 means 'unlimited'."
p3805
stRp3806
ag3
(g4
g5
(dp3807
g3042
S'Maximum number of results permitted'
p3808
sg19
S'integer'
p3809
sg17
S'MaxResults'
p3810
sg21
S"The number of results that commands run by the restricted\n\t\tuser are permitted to return. The value 0 means 'unlimited'."
p3811
stRp3812
ag3
(g4
g5
(dp3813
g3042
S'Maximum number of records scanned'
p3814
sg19
S'integer'
p3815
sg17
S'MaxScanRows'
p3816
sg21
S"The maximum number of records that the server may read\n\t\ton behalf of the restricted user. The value 0 means \n\t\t'unlimited'."
p3817
stRp3818
ag3
(g4
g5
(dp3819
g3042
S'Encoded hex string'
p3820
sg19
S'string'
p3821
sg17
S'Octet String'
p3822
sg21
S'A variable length encoded hex string. The first octet \n\t\tstores the length of the string.'
p3823
stRp3824
ag3
(g4
g5
(dp3825
g3042
S'The MD5 hash of a password'
p3826
sg19
S'string'
p3827
sg17
S'Password'
p3828
sg21
S'The MD5 hash of an encrypted password.'
p3829
stRp3830
ag3
(g4
g5
(dp3831
g3044
g3
(g8
g9
(lp3832
g3
(g4
g5
(dp3833
g3198
S'PermTypeBits'
p3834
sg17
S'None'
p3835
sg3047
S'0x0000'
p3836
sg21
S'none'
p3837
stRp3838
ag3
(g4
g5
(dp3839
g3198
S'PermTypeBits'
p3840
sg17
S'List'
p3841
sg3047
S'0x0001'
p3842
sg21
S'Grants list access'
p3843
stRp3844
ag3
(g4
g5
(dp3845
g3198
S'PermTypeBits'
p3846
sg17
S'Read'
p3847
sg3047
S'0x0002'
p3848
sg21
S'Grants read access'
p3849
stRp3850
ag3
(g4
g5
(dp3851
g3198
S'PermTypeBits'
p3852
sg17
S'Branch'
p3853
sg3047
S'0x0004'
p3854
sg21
S'Grants ability to branch/integ from'
p3855
stRp3856
ag3
(g4
g5
(dp3857
g3198
S'PermTypeBits'
p3858
sg17
S'Open'
p3859
sg3047
S'0x0008'
p3860
sg21
S'Grants open access'
p3861
stRp3862
ag3
(g4
g5
(dp3863
g3198
S'PermTypeBits'
p3864
sg17
S'Write'
p3865
sg3047
S'0x0010'
p3866
sg21
S'Grants write access'
p3867
stRp3868
ag3
(g4
g5
(dp3869
g3198
S'PermTypeBits'
p3870
sg17
S'Review'
p3871
sg3047
S'0x0020'
p3872
sg21
S'Grants review access'
p3873
stRp3874
ag3
(g4
g5
(dp3875
g3198
S'PermTypeBits'
p3876
sg17
S'Admin'
p3877
sg3047
S'0x0080'
p3878
sg21
S'Grants admin access'
p3879
stRp3880
ag3
(g4
g5
(dp3881
g3198
S'PermTypeBits'
p3882
sg17
S'Super'
p3883
sg3047
S'0x0040'
p3884
sg21
S'Grants super-user access'
p3885
stRp3886
atRp3887
sg17
S'Perm'
p3888
sg3198
g3
(g4
g5
(dp3889
g17
S'PermTypeBits'
p3890
sg3047
S'0x00FF'
p3891
sg21
S'Bits used to store granted permissions'
p3892
stRp3893
sg3042
S'Bitmask of permissions'
p3894
sg19
S'bitmask'
p3895
sg21
S'A bitmask of granted permissions'
p3896
stRp3897
ag3
(g4
g5
(dp3898
g19
S'flag'
p3899
sg3042
S'Archive pull transfer status'
p3900
sg3044
g3
(g8
g9
(lp3901
g3
(g4
g5
(dp3902
g17
S'new'
p3903
sg3047
S'new'
p3904
sg21
S'new transfer'
p3905
stRp3906
ag3
(g4
g5
(dp3907
g17
S'active'
p3908
sg3047
S'active'
p3909
sg21
S'active transfer'
p3910
stRp3911
ag3
(g4
g5
(dp3912
g17
S'done'
p3913
sg3047
S'done'
p3914
sg21
S'completed transfer'
p3915
stRp3916
ag3
(g4
g5
(dp3917
g17
S'error'
p3918
sg3047
S'error'
p3919
sg21
S'errored transfer'
p3920
stRp3921
ag3
(g4
g5
(dp3922
g17
S'restart'
p3923
sg3047
S'restart'
p3924
sg21
S'restarted transfer'
p3925
stRp3926
ag3
(g4
g5
(dp3927
g17
S'cancelled'
p3928
sg3047
S'cancelled'
p3929
sg21
S'cancelled transfer'
p3930
stRp3931
atRp3932
sg17
S'PullStatus'
p3933
sg21
S'The status of an archive pull transfer'
p3934
stRp3935
ag3
(g4
g5
(dp3936
g3042
S'A remote name'
p3937
sg19
S'string'
p3938
sg17
S'RemoteID'
p3939
sg21
S'A string representing the name of a remote spec'
p3940
stRp3941
ag3
(g4
g5
(dp3942
g19
S'flag'
p3943
sg3042
S'Resolve actions'
p3944
sg3044
g3
(g8
g9
(lp3945
g3
(g4
g5
(dp3946
g3047
S'0'
sg21
S'Content resolve'
p3947
stRp3948
ag3
(g4
g5
(dp3949
g3047
S'1'
sg21
S'Filetype resolve'
p3950
stRp3951
ag3
(g4
g5
(dp3952
g3047
S'2'
sg21
S'Branch resolve'
p3953
stRp3954
ag3
(g4
g5
(dp3955
g3047
S'3'
sg21
S'Delete resolve'
p3956
stRp3957
ag3
(g4
g5
(dp3958
g3047
S'4'
sg21
S'Move resolve'
p3959
stRp3960
ag3
(g4
g5
(dp3961
g3047
S'5'
sg21
S'Attribute resolve'
p3962
stRp3963
ag3
(g4
g5
(dp3964
g3047
S'6'
sg21
S'Charset resolve'
p3965
stRp3966
atRp3967
sg17
S'ResolveState'
p3968
sg21
S'Pending or completed resolve actions.'
p3969
stRp3970
ag3
(g4
g5
(dp3971
g19
S'flag'
p3972
sg3042
S'Resolve methods (obsolete in 2011.1, replaced by ResolveState)'
p3973
sg3044
g3
(g8
g9
(lp3974
g3
(g4
g5
(dp3975
g3047
S'0'
sg21
S'Not yet resolved'
p3976
stRp3977
ag3
(g4
g5
(dp3978
g3047
S'1'
sg21
S'Resolved manually'
p3979
stRp3980
ag3
(g4
g5
(dp3981
g3047
S'2'
sg21
S'Resolved automatically as part of a branch'
p3982
stRp3983
ag3
(g4
g5
(dp3984
g3047
S'3'
sg21
S'Resolved automatically as part of a delete'
p3985
stRp3986
ag3
(g4
g5
(dp3987
g3047
S'4'
sg21
S'Resolved automatically as part of a move'
p3988
stRp3989
atRp3990
sg17
S'ResolvedStatus'
p3991
sg21
S'Specifies how the user resolved merge operations.'
p3992
stRp3993
ag3
(g4
g5
(dp3994
g3042
S'A revision number'
p3995
sg19
S'integer'
p3996
sg17
S'Rev'
p3997
sg21
S"The positive integer number of a specific revision of a file. \n\t\tThe number 0 represents '#none'."
p3998
stRp3999
ag3
(g4
g5
(dp4000
g3044
g3
(g8
g9
(lp4001
g3
(g4
g5
(dp4002
g3198
S'RevStatusBits'
p4003
sg3047
S'0x0000'
p4004
sg21
S'single revision with content'
p4005
stRp4006
ag3
(g4
g5
(dp4007
g3198
S'RevStatusBits'
p4008
sg3047
S'0x0001'
p4009
sg21
S'single revision lazy copied'
p4010
stRp4011
ag3
(g4
g5
(dp4012
g3198
S'RevStatusBits'
p4013
sg3047
S'0x0002'
p4014
sg21
S'revision task sparse'
p4015
stRp4016
ag3
(g4
g5
(dp4017
g3198
S'RevStatusBits'
p4018
sg3047
S'0x0004'
p4019
sg21
S'revision task branch'
p4020
stRp4021
ag3
(g4
g5
(dp4022
g3198
S'RevCharsetBits'
p4023
sg3047
S'0'
sg21
S'NONE'
p4024
stRp4025
ag3
(g4
g5
(dp4026
g3198
S'RevCharsetBits'
p4027
sg3047
S'1'
sg21
S'UTF_8'
p4028
stRp4029
ag3
(g4
g5
(dp4030
g3198
S'RevCharsetBits'
p4031
sg3047
S'2'
sg21
S'ISO8859_1'
p4032
stRp4033
ag3
(g4
g5
(dp4034
g3198
S'RevCharsetBits'
p4035
sg3047
S'3'
sg21
S'UTF_16'
p4036
stRp4037
ag3
(g4
g5
(dp4038
g3198
S'RevCharsetBits'
p4039
sg3047
S'4'
sg21
S'SHIFTJIS'
p4040
stRp4041
ag3
(g4
g5
(dp4042
g3198
S'RevCharsetBits'
p4043
sg3047
S'5'
sg21
S'EUCJP'
p4044
stRp4045
ag3
(g4
g5
(dp4046
g3198
S'RevCharsetBits'
p4047
sg3047
S'6'
sg21
S'WIN_US_ANSI'
p4048
stRp4049
ag3
(g4
g5
(dp4050
g3198
S'RevCharsetBits'
p4051
sg3047
S'7'
sg21
S'WIN_US_OEM'
p4052
stRp4053
ag3
(g4
g5
(dp4054
g3198
S'RevCharsetBits'
p4055
sg3047
S'8'
sg21
S'MACOS_ROMAN'
p4056
stRp4057
ag3
(g4
g5
(dp4058
g3198
S'RevCharsetBits'
p4059
sg3047
S'9'
sg21
S'ISO8859_15'
p4060
stRp4061
ag3
(g4
g5
(dp4062
g3198
S'RevCharsetBits'
p4063
sg3047
S'10'
p4064
sg21
S'ISO8859_5'
p4065
stRp4066
ag3
(g4
g5
(dp4067
g3198
S'RevCharsetBits'
p4068
sg3047
S'11'
p4069
sg21
S'KOI8_R'
p4070
stRp4071
ag3
(g4
g5
(dp4072
g3198
S'RevCharsetBits'
p4073
sg3047
S'12'
p4074
sg21
S'WIN_CP_1251'
p4075
stRp4076
ag3
(g4
g5
(dp4077
g3198
S'RevCharsetBits'
p4078
sg3047
S'13'
p4079
sg21
S'UTF_16_LE'
p4080
stRp4081
ag3
(g4
g5
(dp4082
g3198
S'RevCharsetBits'
p4083
sg3047
S'14'
p4084
sg21
S'UTF_16_BE'
p4085
stRp4086
ag3
(g4
g5
(dp4087
g3198
S'RevCharsetBits'
p4088
sg3047
S'15'
p4089
sg21
S'UTF_16_LE_BOM'
p4090
stRp4091
ag3
(g4
g5
(dp4092
g3198
S'RevCharsetBits'
p4093
sg3047
S'16'
p4094
sg21
S'UTF_16_BE_BOM'
p4095
stRp4096
ag3
(g4
g5
(dp4097
g3198
S'RevCharsetBits'
p4098
sg3047
S'17'
p4099
sg21
S'UTF_16_BOM'
p4100
stRp4101
ag3
(g4
g5
(dp4102
g3198
S'RevCharsetBits'
p4103
sg3047
S'18'
p4104
sg21
S'UTF_8_BOM'
p4105
stRp4106
ag3
(g4
g5
(dp4107
g3198
S'RevCharsetBits'
p4108
sg3047
S'19'
p4109
sg21
S'UTF_32'
p4110
stRp4111
ag3
(g4
g5
(dp4112
g3198
S'RevCharsetBits'
p4113
sg3047
S'20'
p4114
sg21
S'UTF_32_LE'
p4115
stRp4116
ag3
(g4
g5
(dp4117
g3198
S'RevCharsetBits'
p4118
sg3047
S'21'
p4119
sg21
S'UTF_32_BE'
p4120
stRp4121
ag3
(g4
g5
(dp4122
g3198
S'RevCharsetBits'
p4123
sg3047
S'22'
p4124
sg21
S'UTF_32_LE_BOM'
p4125
stRp4126
ag3
(g4
g5
(dp4127
g3198
S'RevCharsetBits'
p4128
sg3047
S'23'
p4129
sg21
S'UTF_32_BE_BOM'
p4130
stRp4131
ag3
(g4
g5
(dp4132
g3198
S'RevCharsetBits'
p4133
sg3047
S'24'
p4134
sg21
S'UTF_32_BOM'
p4135
stRp4136
ag3
(g4
g5
(dp4137
g3198
S'RevCharsetBits'
p4138
sg3047
S'25'
p4139
sg21
S'UTF_8_UNCHECKED'
p4140
stRp4141
ag3
(g4
g5
(dp4142
g3198
S'RevCharsetBits'
p4143
sg3047
S'26'
p4144
sg21
S'UTF_8_UNCHECKED_BOM'
p4145
stRp4146
ag3
(g4
g5
(dp4147
g3198
S'RevCharsetBits'
p4148
sg3047
S'27'
p4149
sg21
S'CP949'
p4150
stRp4151
ag3
(g4
g5
(dp4152
g3198
S'RevCharsetBits'
p4153
sg3047
S'28'
p4154
sg21
S'CP936'
p4155
stRp4156
ag3
(g4
g5
(dp4157
g3198
S'RevCharsetBits'
p4158
sg3047
S'29'
p4159
sg21
S'CP950'
p4160
stRp4161
ag3
(g4
g5
(dp4162
g3198
S'RevCharsetBits'
p4163
sg3047
S'30'
p4164
sg21
S'CP850'
p4165
stRp4166
ag3
(g4
g5
(dp4167
g3198
S'RevCharsetBits'
p4168
sg3047
S'31'
p4169
sg21
S'CP858'
p4170
stRp4171
atRp4172
sg17
S'RevStatus'
p4173
sg3198
g3
(g8
g9
(lp4174
g3
(g4
g5
(dp4175
g17
S'RevStatusBits'
p4176
sg3047
S'0x000F'
p4177
sg21
S'Bits used to store revision status'
p4178
stRp4179
ag3
(g4
g5
(dp4180
g17
S'RevCharsetBits'
p4181
sg3047
S'0x007F'
p4182
sg21
S'Bits used to store revision charset (high 8 bits). Value shifted right 24 bits before applying mask'
p4183
stRp4184
atRp4185
sg3042
S'A revision status'
p4186
sg19
S'bitmask'
p4187
sg21
S'Lazy copy, task stream promotion, and charset status'
p4188
stRp4189
ag3
(g4
g5
(dp4190
g3042
S'Type of reviewer'
p4191
sg19
S'integer'
p4192
sg17
S'Reviewer'
p4193
sg21
S'The type of reviewer. Currently there is only one type of\n\t\treviewer and 0 is the only valid value.'
p4194
stRp4195
ag3
(g4
g5
(dp4196
g19
S'flag'
p4197
sg3042
S'The type of server'
p4198
sg3044
g3
(g8
g9
(lp4199
g3
(g4
g5
(dp4200
g3047
S'0'
sg21
S'server'
p4201
stRp4202
ag3
(g4
g5
(dp4203
g3047
S'1'
sg21
S'proxy'
p4204
stRp4205
ag3
(g4
g5
(dp4206
g3047
S'2'
sg21
S'broker'
p4207
stRp4208
ag3
(g4
g5
(dp4209
g3047
S'3'
sg21
S'identifier'
p4210
stRp4211
ag3
(g4
g5
(dp4212
g3047
S'4'
sg21
S'admin'
p4213
stRp4214
atRp4215
sg17
S'ServerType'
p4216
sg21
S'The type of server'
p4217
stRp4218
ag3
(g4
g5
(dp4219
g3044
g3
(g8
g9
(lp4220
g3
(g4
g5
(dp4221
g3198
S'Service Set Value'
p4222
sg3047
S'0x0903'
p4223
sg21
S'standard \t\t( db-read | db-write | rmt-depot | rmt-journal )'
p4224
stRp4225
ag3
(g4
g5
(dp4226
g3198
S'Service Set Value'
p4227
sg3047
S'0x0045'
p4228
sg21
S'replica \t\t( db-read | db-replication | file-replication | rmt-depot | rmt-journal )'
p4229
stRp4230
ag3
(g4
g5
(dp4231
g3198
S'Service Set Value'
p4232
sg3047
S'0x0030'
p4233
sg21
S'broker ( brokering | forwarding )'
p4234
stRp4235
ag3
(g4
g5
(dp4236
g3198
S'Service Set Value'
p4237
sg3047
S'0x00A0'
p4238
sg21
S'proxy ( forwarding | file-cacheing )'
p4239
stRp4240
ag3
(g4
g5
(dp4241
g3198
S'Service Set Value'
p4242
sg3047
S'0x00E5'
p4243
sg21
S'forwarding-replica ( db-read | db-replication | forwarding | file-replication | file-cacheing | rmt-depot | rmt-journal )'
p4244
stRp4245
ag3
(g4
g5
(dp4246
g3198
S'Service Set Value'
p4247
sg3047
S'0x004D'
p4248
sg21
S'build-server ( db-read | db-replicaton | bound-clients | file-replication | rmt-depot | rmt-journal )'
p4249
stRp4250
ag3
(g4
g5
(dp4251
g3198
S'Service Set Value'
p4252
sg3047
S'0x0203'
p4253
sg21
S'P4AUTH ( db-read | db-write | rmt-auth )'
p4254
stRp4255
ag3
(g4
g5
(dp4256
g3198
S'Service Set Value'
p4257
sg3047
S'0x0403'
p4258
sg21
S'P4CHANGE ( db-read | db-write | rmt-change )'
p4259
stRp4260
ag3
(g4
g5
(dp4261
g3198
S'Service Set Value'
p4262
sg3047
S'0x19ED'
p4263
sg21
S'edge-server ( db-read | db-replication | bound-clients | forwarding | file-replication | file-cacheing | rmt-depot | rmt-journal | local-opens )'
p4264
stRp4265
ag3
(g4
g5
(dp4266
g3198
S'Service Set Value'
p4267
sg3047
S'0x2F03'
p4268
sg21
S'commit-server ( db-read | db-write | rmt-depot | rmt-journal | rmt-change | rmt-auth | commit-server )'
p4269
stRp4270
ag3
(g4
g5
(dp4271
g3198
S'Service Set Value'
p4272
sg3047
S'0x6F03'
p4273
sg21
S'depot-master ( db-read | db-write | rmt-depot | rmt-journal | rmt-change | rmt-auth | commit-server | p4zk-managed )'
p4274
stRp4275
ag3
(g4
g5
(dp4276
g3198
S'Service Set Value'
p4277
sg3047
S'0xC945'
p4278
sg21
S'depot-standby ( db-read | db-replication | file-replication | rmt-depot | rmt-journal | journal-copy | p4zk-managed )'
p4279
stRp4280
ag3
(g4
g5
(dp4281
g3198
S'Service Set Value'
p4282
sg3047
S'0x59ED'
p4283
sg21
S'workspace-server ( db-read | db-replication | bound-clients | forwarding | file-replication | file-cacheing | rmt-depot | rmt-journal | local-opens | p4zk-managed )'
p4284
stRp4285
ag3
(g4
g5
(dp4286
g3198
S'Service Set Value'
p4287
sg3047
S'0x8945'
p4288
sg21
S'standby ( db-read | db-replication | file-replication | rmt-depot | rmt-journal | journal-copy )'
p4289
stRp4290
ag3
(g4
g5
(dp4291
g3198
S'Service Set Value'
p4292
sg3047
S'0x89E5'
p4293
sg21
S'forwarding-standby ( db-read | db-replication | forwarding | file-replication | file-cacheing | rmt-depot | rmt-journal | journal-copy )'
p4294
stRp4295
ag3
(g4
g5
(dp4296
g3198
S'Service Set Value'
p4297
sg3047
S'0x4030'
p4298
sg21
S'workspace-router ( brokering | forwarding | p4zk-managed )'
p4299
stRp4300
ag3
(g4
g5
(dp4301
g3198
S'Service Set Value'
p4302
sg3047
S'0x10003'
p4303
sg21
S'local ( db-read | db-write | dvcs-local )'
p4304
stRp4305
ag3
(g4
g5
(dp4306
g3198
S'Service Set Value'
p4307
sg3047
S'0x20000'
p4308
sg21
S'cluster ( cluster-id )'
p4309
stRp4310
ag3
(g4
g5
(dp4311
g3198
S'Service Set Value'
p4312
sg3047
S'0x40000'
p4313
sg21
S'zookeeper-server ( zookeeper-server )'
p4314
stRp4315
ag3
(g4
g5
(dp4316
g3198
S'Service Set Value'
p4317
sg3047
S'0x80000'
p4318
sg21
S'hxca-server ( hxca-server )'
p4319
stRp4320
ag3
(g4
g5
(dp4321
g3198
S'Service Property'
p4322
sg3047
S'0x0001'
p4323
sg21
S'db-read'
p4324
stRp4325
ag3
(g4
g5
(dp4326
g3198
S'Service Property'
p4327
sg3047
S'0x0002'
p4328
sg21
S'db-write'
p4329
stRp4330
ag3
(g4
g5
(dp4331
g3198
S'Service Property'
p4332
sg3047
S'0x0004'
p4333
sg21
S'db-replication'
p4334
stRp4335
ag3
(g4
g5
(dp4336
g3198
S'Service Property'
p4337
sg3047
S'0x0008'
p4338
sg21
S'bound-clients'
p4339
stRp4340
ag3
(g4
g5
(dp4341
g3198
S'Service Property'
p4342
sg3047
S'0x0010'
p4343
sg21
S'brokering'
p4344
stRp4345
ag3
(g4
g5
(dp4346
g3198
S'Service Property'
p4347
sg3047
S'0x0020'
p4348
sg21
S'forwarding'
p4349
stRp4350
ag3
(g4
g5
(dp4351
g3198
S'Service Property'
p4352
sg3047
S'0x0040'
p4353
sg21
S'file-replication'
p4354
stRp4355
ag3
(g4
g5
(dp4356
g3198
S'Service Property'
p4357
sg3047
S'0x0080'
p4358
sg21
S'file-cacheing'
p4359
stRp4360
ag3
(g4
g5
(dp4361
g3198
S'Service Property'
p4362
sg3047
S'0x0100'
p4363
sg21
S'rmt-depot'
p4364
stRp4365
ag3
(g4
g5
(dp4366
g3198
S'Service Property'
p4367
sg3047
S'0x0200'
p4368
sg21
S'rmt-auth'
p4369
stRp4370
ag3
(g4
g5
(dp4371
g3198
S'Service Property'
p4372
sg3047
S'0x0400'
p4373
sg21
S'rmt-change'
p4374
stRp4375
ag3
(g4
g5
(dp4376
g3198
S'Service Property'
p4377
sg3047
S'0x0800'
p4378
sg21
S'rmt-journal'
p4379
stRp4380
ag3
(g4
g5
(dp4381
g3198
S'Service Property'
p4382
sg3047
S'0x1000'
p4383
sg21
S'local-opens'
p4384
stRp4385
ag3
(g4
g5
(dp4386
g3198
S'Service Property'
p4387
sg3047
S'0x2000'
p4388
sg21
S'commit-server'
p4389
stRp4390
ag3
(g4
g5
(dp4391
g3198
S'Service Property'
p4392
sg3047
S'0x4000'
p4393
sg21
S'p4zk-managed'
p4394
stRp4395
ag3
(g4
g5
(dp4396
g3198
S'Service Property'
p4397
sg3047
S'0x8000'
p4398
sg21
S'journal-copy'
p4399
stRp4400
ag3
(g4
g5
(dp4401
g3198
S'Service Property'
p4402
sg3047
S'0x10000'
p4403
sg21
S'dvcs-local'
p4404
stRp4405
ag3
(g4
g5
(dp4406
g3198
S'Service Property'
p4407
sg3047
S'0x20000'
p4408
sg21
S'cluster-id'
p4409
stRp4410
ag3
(g4
g5
(dp4411
g3198
S'Service Property'
p4412
sg3047
S'0x40000'
p4413
sg21
S'zookeeper'
p4414
stRp4415
ag3
(g4
g5
(dp4416
g3198
S'Service Property'
p4417
sg3047
S'0x80000'
p4418
sg21
S'hxca'
p4419
stRp4420
atRp4421
sg17
S'ServerServiceType'
p4422
sg3198
g3
(g8
g9
(lp4423
g3
(g4
g5
(dp4424
g17
S'Service Set Value'
p4425
sg3047
S'None'
p4426
sg21
S"The server service type setting is generated by OR'ing the generic ServerServiceProperties defined below"
p4427
stRp4428
ag3
(g4
g5
(dp4429
g17
S'Service Property'
p4430
sg3047
S'None'
p4431
sg21
S'ServerServiceProperties: Bits used to identify generic server properties'
p4432
stRp4433
atRp4434
sg3042
S'The type of server service'
p4435
sg19
S'bitmask'
p4436
sg21
S'The services offered by a type of service.'
p4437
stRp4438
ag3
(g4
g5
(dp4439
g19
S'flag'
p4440
sg3042
S'A spec type'
p4441
sg3044
g3
(g8
g9
(lp4442
g3
(g4
g5
(dp4443
g3047
S"98 (ASCII 'b')"
p4444
sg21
S'branch'
p4445
stRp4446
ag3
(g4
g5
(dp4447
g3047
S"67 (ASCII 'C')"
p4448
sg21
S'change'
p4449
stRp4450
ag3
(g4
g5
(dp4451
g3047
S"99 (ASCII 'c')"
p4452
sg21
S'client'
p4453
stRp4454
ag3
(g4
g5
(dp4455
g3047
S"100 (ASCII 'd')"
p4456
sg21
S'depot'
p4457
stRp4458
ag3
(g4
g5
(dp4459
g3047
S"101 (ASCII 'e')"
p4460
sg21
S'spec'
p4461
stRp4462
ag3
(g4
g5
(dp4463
g3047
S"103 (ASCII 'g')"
p4464
sg21
S'group'
p4465
stRp4466
ag3
(g4
g5
(dp4467
g3047
S"106 (ASCII 'j')"
p4468
sg21
S'job'
p4469
stRp4470
ag3
(g4
g5
(dp4471
g3047
S"108 (ASCII 'l')"
p4472
sg21
S'label'
p4473
stRp4474
ag3
(g4
g5
(dp4475
g3047
S"68 (ASCII 'D')"
p4476
sg21
S'ldap'
p4477
stRp4478
ag3
(g4
g5
(dp4479
g3047
S"76 (ASCII 'L')"
p4480
sg21
S'license'
p4481
stRp4482
ag3
(g4
g5
(dp4483
g3047
S"112 (ASCII 'p')"
p4484
sg21
S'protect'
p4485
stRp4486
ag3
(g4
g5
(dp4487
g3047
S"114 (ASCII 'r')"
p4488
sg21
S'remote'
p4489
stRp4490
ag3
(g4
g5
(dp4491
g3047
S"83 (ASCII 'S')"
p4492
sg21
S'server'
p4493
stRp4494
ag3
(g4
g5
(dp4495
g3047
S"115 (ASCII 's')"
p4496
sg21
S'stream'
p4497
stRp4498
ag3
(g4
g5
(dp4499
g3047
S"84 (ASCII 'T')"
p4500
sg21
S'trigger'
p4501
stRp4502
ag3
(g4
g5
(dp4503
g3047
S"116 (ASCII 't')"
p4504
sg21
S'typemap'
p4505
stRp4506
ag3
(g4
g5
(dp4507
g3047
S"117 (ASCII 'u')"
p4508
sg21
S'user'
p4509
stRp4510
atRp4511
sg17
S'SpecType'
p4512
sg21
S'A integer value representing the type of a spec'
p4513
stRp4514
ag3
(g4
g5
(dp4515
g19
S'flag'
p4516
sg3042
S'Stash type'
p4517
sg3044
g3
(g8
g9
(lp4518
g3
(g4
g5
(dp4519
g3047
S'0'
sg21
S'switch: A shelf with work-in-progress for a particular stream/branch'
p4520
stRp4521
ag3
(g4
g5
(dp4522
g3047
S'1'
sg21
S"tangent: Work-in-progress relocated by 'p4 fetch -t'. Consumed and removed by 'p4 resubmit'"
p4523
stRp4524
atRp4525
sg17
S'StashType'
p4526
sg21
S'Stash type'
p4527
stRp4528
ag3
(g4
g5
(dp4529
g19
S'flag'
p4530
sg3042
S'Server specification view type'
p4531
sg3044
g3
(g8
g9
(lp4532
g3
(g4
g5
(dp4533
g3047
S'0'
sg21
S'ClientDataFilter'
p4534
stRp4535
ag3
(g4
g5
(dp4536
g3047
S'1'
sg21
S'RevisionDataFilter'
p4537
stRp4538
ag3
(g4
g5
(dp4539
g3047
S'2'
sg21
S'ArchiveDataFilter'
p4540
stRp4541
atRp4542
sg17
S'SvrViewType'
p4543
sg21
S'Server specification view type'
p4544
stRp4545
ag3
(g4
g5
(dp4546
g3044
g3
(g8
g9
(lp4547
g3
(g4
g5
(dp4548
g3198
S'Stream Status'
p4549
sg3047
S'0x0000'
p4550
sg21
S'Clear cache'
p4551
stRp4552
ag3
(g4
g5
(dp4553
g3198
S'Stream Status'
p4554
sg3047
S'0x0001'
p4555
sg21
S'Needs copy'
p4556
stRp4557
ag3
(g4
g5
(dp4558
g3198
S'Stream Status'
p4559
sg3047
S'0x0002'
p4560
sg21
S'Copy up-to-date'
p4561
stRp4562
ag3
(g4
g5
(dp4563
g3198
S'Stream Status'
p4564
sg3047
S'0x0004'
p4565
sg21
S'Needs merge'
p4566
stRp4567
ag3
(g4
g5
(dp4568
g3198
S'Stream Status'
p4569
sg3047
S'0x0008'
p4570
sg21
S'Merge up-to-date'
p4571
stRp4572
atRp4573
sg17
S'StreamStatus'
p4574
sg3198
g3
(g4
g5
(dp4575
g17
S'Stream Status'
p4576
sg3047
S'Copy: 0x0003, Merge: 0x000C'
p4577
sg21
S'Bits used to store the stream integration status'
p4578
stRp4579
sg3042
S'Stream integration status'
p4580
sg19
S'bitmask'
p4581
sg21
S'The stream integration status.'
p4582
stRp4583
ag3
(g4
g5
(dp4584
g19
S'flag'
p4585
sg3042
S'Type of stream path'
p4586
sg3044
g3
(g8
g9
(lp4587
g3
(g4
g5
(dp4588
g3047
S'0'
sg21
S'share'
p4589
stRp4590
ag3
(g4
g5
(dp4591
g3047
S'1'
sg21
S'isolate'
p4592
stRp4593
ag3
(g4
g5
(dp4594
g3047
S'2'
sg21
S'import'
p4595
stRp4596
ag3
(g4
g5
(dp4597
g3047
S'3'
sg21
S'exclude'
p4598
stRp4599
ag3
(g4
g5
(dp4600
g3047
S'4'
sg21
S'remapped'
p4601
stRp4602
ag3
(g4
g5
(dp4603
g3047
S'5'
sg21
S'ignored'
p4604
stRp4605
ag3
(g4
g5
(dp4606
g3047
S'6'
sg21
S'inclusive'
p4607
stRp4608
ag3
(g4
g5
(dp4609
g3047
S'7'
sg21
S'import+'
p4610
stRp4611
atRp4612
sg17
S'StreamPathType'
p4613
sg21
S'The path type for file paths in a stream view.'
p4614
stRp4615
ag3
(g4
g5
(dp4616
g19
S'flag'
p4617
sg3042
S'Type of stream'
p4618
sg3044
g3
(g8
g9
(lp4619
g3
(g4
g5
(dp4620
g3047
S'0'
sg21
S'mainline'
p4621
stRp4622
ag3
(g4
g5
(dp4623
g3047
S'1'
sg21
S'release'
p4624
stRp4625
ag3
(g4
g5
(dp4626
g3047
S'2'
sg21
S'development'
p4627
stRp4628
ag3
(g4
g5
(dp4629
g3047
S'3'
sg21
S'virtual'
p4630
stRp4631
ag3
(g4
g5
(dp4632
g3047
S'4'
sg21
S'task'
p4633
stRp4634
ag3
(g4
g5
(dp4635
g3047
S'5'
sg21
S'task - unloaded'
p4636
stRp4637
atRp4638
sg17
S'StreamType'
p4639
sg21
S'The type of stream.'
p4640
stRp4641
ag3
(g4
g5
(dp4642
g19
S'flag'
p4643
sg3042
S'Strength check of a password'
p4644
sg3044
g3
(g8
g9
(lp4645
g3
(g4
g5
(dp4646
g3047
S'0'
sg21
S'Strength unknown'
p4647
stRp4648
ag3
(g4
g5
(dp4649
g3047
S'1'
sg21
S'Password is strong'
p4650
stRp4651
ag3
(g4
g5
(dp4652
g3047
S'2'
sg21
S'Unset'
p4653
stRp4654
atRp4655
sg17
S'Strength'
p4656
sg21
S"Whether or not a user's password has been tested for strength."
p4657
stRp4658
ag3
(g4
g5
(dp4659
S'restriction'
p4660
g3
(g8
g9
(lp4661
S'Cannot be empty'
p4662
aS'Cannot consist solely of a dash (-)'
p4663
aS'Cannot be all-numeric'
p4664
aS'Cannot contain non-printable characters'
p4665
aS'Spaces are replaced with underscores ( _ )'
p4666
aS'Revision characters (# and @) are prohibited'
p4667
aS'Slashes (/) are prohibited'
p4668
aS'Wildcards (... and *) are prohibited'
p4669
atRp4670
sg3042
S'A string up to 1024 characters long'
p4671
sg19
S'string'
p4672
sg17
S'String'
p4673
sg21
S'A string up to 1024 characters in length.  Depending on the \n\t\tcontext in which the string is used, restrictions \n\t\tmay apply. Strings are often used as key fields in the \n\t\tschema.'
p4674
stRp4675
ag3
(g4
g5
(dp4676
g19
S'flag'
p4677
sg3042
S'Tamper-state of workspace file'
p4678
sg3044
g3
(g8
g9
(lp4679
g3
(g4
g5
(dp4680
g3047
S'0'
sg21
S'Do not check for tampering'
p4681
stRp4682
ag3
(g4
g5
(dp4683
g3047
S'1'
sg21
S'Check for tampering'
p4684
stRp4685
ag3
(g4
g5
(dp4686
g3047
S'2'
sg21
S'Tamper-check failed'
p4687
stRp4688
atRp4689
sg17
S'TamperCheck'
p4690
sg21
S'Indicates the tamper-state of a file in a workspace. This\n\t\tis used to decide whether or not to check the file, and\n\t\tif checked, to hold the result.'
p4691
stRp4692
ag3
(g4
g5
(dp4693
g3042
S'A string value'
p4694
sg19
S'string'
p4695
sg17
S'Text'
p4696
sg21
S'A text string value - used to hold longer blocks of text.'
p4697
stRp4698
ag3
(g4
g5
(dp4699
g3042
S'The id of a group of traits'
p4700
sg19
S'integer'
p4701
sg17
S'TraitLot'
p4702
sg21
S'An integer identifying a group of traits which may be\n\t\tshared by several revisions.'
p4703
stRp4704
ag3
(g4
g5
(dp4705
g19
S'flag'
p4706
sg3042
S'A type of trait'
p4707
sg3044
g3
(g8
g9
(lp4708
g3
(g4
g5
(dp4709
g3047
S'0'
sg21
S'Special trait for reference counting'
p4710
stRp4711
ag3
(g4
g5
(dp4712
g3047
S'1'
sg21
S'Binary trait'
p4713
stRp4714
ag3
(g4
g5
(dp4715
g3047
S'2'
sg21
S'Binary trait that gets propagated'
p4716
stRp4717
atRp4718
sg17
S'TraitType'
p4719
sg21
S'The type of trait.'
p4720
stRp4721
ag3
(g4
g5
(dp4722
g19
S'flag'
p4723
sg3042
S'A type of trigger'
p4724
sg3044
g3
(g8
g9
(lp4725
g3
(g4
g5
(dp4726
g3047
S'0'
sg21
S'change-submit (formerly pre-submit triggers)'
p4727
stRp4728
ag3
(g4
g5
(dp4729
g3047
S'1'
sg21
S'change-content'
p4730
stRp4731
ag3
(g4
g5
(dp4732
g3047
S'2'
sg21
S'change-commit'
p4733
stRp4734
ag3
(g4
g5
(dp4735
g3047
S'3'
sg21
S'form-in'
p4736
stRp4737
ag3
(g4
g5
(dp4738
g3047
S'4'
sg21
S'form-out'
p4739
stRp4740
ag3
(g4
g5
(dp4741
g3047
S'5'
sg21
S'form-save'
p4742
stRp4743
ag3
(g4
g5
(dp4744
g3047
S'6'
sg21
S'form-delete'
p4745
stRp4746
ag3
(g4
g5
(dp4747
g3047
S'7'
sg21
S'form-commit'
p4748
stRp4749
ag3
(g4
g5
(dp4750
g3047
S'8'
sg21
S'auth-check'
p4751
stRp4752
ag3
(g4
g5
(dp4753
g3047
S'9'
sg21
S'auth-check-sso'
p4754
stRp4755
ag3
(g4
g5
(dp4756
g3047
S'10'
p4757
sg21
S'auth-set'
p4758
stRp4759
ag3
(g4
g5
(dp4760
g3047
S'11'
p4761
sg21
S'fix-add'
p4762
stRp4763
ag3
(g4
g5
(dp4764
g3047
S'12'
p4765
sg21
S'fix-delete'
p4766
stRp4767
ag3
(g4
g5
(dp4768
g3047
S'13'
p4769
sg21
S'archive'
p4770
stRp4771
ag3
(g4
g5
(dp4772
g3047
S'14'
p4773
sg21
S'shelve-submit'
p4774
stRp4775
ag3
(g4
g5
(dp4776
g3047
S'15'
p4777
sg21
S'shelve-commit'
p4778
stRp4779
ag3
(g4
g5
(dp4780
g3047
S'16'
p4781
sg21
S'shelve-delete'
p4782
stRp4783
ag3
(g4
g5
(dp4784
g3047
S'17'
p4785
sg21
S'service-check'
p4786
stRp4787
ag3
(g4
g5
(dp4788
g3047
S'18'
p4789
sg21
S'edge-submit'
p4790
stRp4791
ag3
(g4
g5
(dp4792
g3047
S'19'
p4793
sg21
S'edge-content'
p4794
stRp4795
ag3
(g4
g5
(dp4796
g3047
S'20'
p4797
sg21
S'change-failed'
p4798
stRp4799
ag3
(g4
g5
(dp4800
g3047
S'21'
p4801
sg21
S'command'
p4802
stRp4803
ag3
(g4
g5
(dp4804
g3047
S'22'
p4805
sg21
S'push-submit'
p4806
stRp4807
ag3
(g4
g5
(dp4808
g3047
S'23'
p4809
sg21
S'push-content'
p4810
stRp4811
ag3
(g4
g5
(dp4812
g3047
S'24'
p4813
sg21
S'push-commit'
p4814
stRp4815
ag3
(g4
g5
(dp4816
g3047
S'25'
p4817
sg21
S'journal-rotate'
p4818
stRp4819
ag3
(g4
g5
(dp4820
g3047
S'26'
p4821
sg21
S'journal-rotate-lock'
p4822
stRp4823
atRp4824
sg17
S'Trigger'
p4825
sg21
S'The type of a trigger.'
p4826
stRp4827
ag3
(g4
g5
(dp4828
g3042
S'A user or group name'
p4829
sg21
S'The name of a Helix Server user or group.'
p4830
sg19
S'string'
p4831
sg17
S'User'
p4832
sg189
S'String'
p4833
stRp4834
ag3
(g4
g5
(dp4835
g19
S'flag'
p4836
sg3042
S'User functionality level'
p4837
sg3044
g3
(g8
g9
(lp4838
g3
(g4
g5
(dp4839
g3047
S'0'
sg21
S'standard'
p4840
stRp4841
ag3
(g4
g5
(dp4842
g3047
S'1'
sg21
S'service'
p4843
stRp4844
ag3
(g4
g5
(dp4845
g3047
S'2'
sg21
S'operator'
p4846
stRp4847
atRp4848
sg17
S'UserLevel'
p4849
sg21
S'User functionality level'
p4850
stRp4851
ag3
(g4
g5
(dp4852
g3044
g3
(g8
g9
(lp4853
g3
(g4
g5
(dp4854
g3198
S'UserTypeBits'
p4855
sg17
S'User'
p4856
sg3047
S'0x0001'
p4857
sg21
S'User is an ordinary user'
p4858
stRp4859
ag3
(g4
g5
(dp4860
g3198
S'UserTypeBits'
p4861
sg17
S'SubGroup'
p4862
sg3047
S'0x0002'
p4863
sg21
S'Group is a sub-group'
p4864
stRp4865
ag3
(g4
g5
(dp4866
g3198
S'UserTypeBits'
p4867
sg17
S'Owner'
p4868
sg3047
S'0x0004'
p4869
sg21
S'User is the owner of a group'
p4870
stRp4871
atRp4872
sg17
S'UserType'
p4873
sg3198
g3
(g4
g5
(dp4874
g17
S'UserTypeBits'
p4875
sg3047
S'0x0007'
p4876
sg21
S'Bits used to store the role of a user in a group'
p4877
stRp4878
sg3042
S'The role of a user within a group'
p4879
sg19
S'bitmask'
p4880
sg21
S'The role of a user (or group) within a group.'
p4881
stRp4882
ag3
(g4
g5
(dp4883
g3042
S'A user or group name with wildcards'
p4884
sg21
S'A user/group name that may contain wildcards (*)'
p4885
sg19
S'string'
p4886
sg17
S'UserWild'
p4887
sg189
S'User'
p4888
stRp4889
ag3
(g4
g5
(dp4890
g3042
S'A number or a string'
p4891
sg19
S'string'
p4892
sg17
S'Value'
p4893
sg21
S'A number, stored in a string, or a string'
p4894
stRp4895
atRp4896
stRp4897
s.