(dp1
S'tables'
p2
ccopy_reg
_reconstructor
p3
(clib.sqUtils
Storage
p4
c__builtin__
dict
p5
(dp6
S'table'
p7
g3
(clib.sqUtils
Lst
p8
c__builtin__
list
p9
(lp10
g3
(g4
g5
(dp11
S'version'
p12
S'1'
sS'classic_lockseq'
p13
S'1'
sS'keying'
p14
S'serverName, name'
p15
sS'peek_lockseq'
p16
S'1'
sS'name'
p17
S'db.config'
p18
sS'type'
p19
S'Config'
p20
sS'desc'
p21
S'Perforce server configurations table'
p22
stRp23
ag3
(g4
g5
(dp24
g12
S'1'
sg13
S'2'
sg14
S'name'
p25
sg16
S'2'
sg17
S'db.counters'
p26
sg19
S'Counters'
p27
sg21
S'Perforce counters table'
p28
stRp29
ag3
(g4
g5
(dp30
g12
S'1'
sg13
S'3'
sg14
S'name'
p31
sg16
S'3'
sg17
S'db.nameval'
p32
sg19
S'Keys'
p33
sg21
S'A table to store key/value pairs'
p34
stRp35
ag3
(g4
g5
(dp36
g12
S'0'
sg13
S'4'
sg14
S'seq'
p37
sg16
S'4'
sg17
S'db.logger'
p38
sg19
S'Logger'
p39
sg21
S"Support for 'p4 logger' command. Logs any changes to \n\t\tchangelists and jobs"
p40
stRp41
ag3
(g4
g5
(dp42
g12
S'0'
sg13
S'5'
sg14
S'id'
p43
sg16
S'5'
sg17
S'db.server'
p44
sg19
S'Server'
p45
sg21
S'Perforce server specifications'
p46
stRp47
ag3
(g4
g5
(dp48
g12
S'0'
sg13
S'6'
sg14
S'id, type, seq'
p49
sg16
S'6'
sg17
S'db.svrview'
p50
sg19
S'SvrView'
p51
sg21
S'View data for servers specifications'
p52
stRp53
ag3
(g4
g5
(dp54
g12
S'6'
sg13
S'7'
sg14
S'user'
p55
sg16
S'7'
sg17
S'db.user.rp'
p56
sg19
S'User'
p57
sg21
S"Used by replica server's to store login information"
p58
stRp59
ag3
(g4
g5
(dp60
g12
S'6'
sg13
S'8'
sg14
S'user'
p61
sg16
S'8'
sg17
S'db.user'
p62
sg19
S'User'
p63
sg21
S'Perforce users'
p64
stRp65
ag3
(g4
g5
(dp66
g12
S'8'
sg13
S'9'
sg14
S'user, group'
p67
sg16
S'9'
sg17
S'db.group'
p68
sg19
S'Group'
p69
sg21
S'Groups of Perforce users'
p70
stRp71
ag3
(g4
g5
(dp72
g12
S'1'
sg13
S'10'
p73
sg14
S'name'
p74
sg16
S'10'
p75
sg17
S'db.depot'
p76
sg19
S'Depot'
p77
sg21
S'Perforce depots'
p78
stRp79
ag3
(g4
g5
(dp80
g12
S'1'
sg13
S'11'
p81
sg14
S'stream'
p82
sg16
S'11'
p83
sg17
S'db.stream'
p84
sg19
S'Stream'
p85
sg21
S'Perforce streams'
p86
stRp87
ag3
(g4
g5
(dp88
g12
S'6'
sg13
S'12'
p89
sg14
S'name'
p90
sg16
S'12'
p91
sg17
S'db.domain'
p92
sg19
S'Domain'
p93
sg21
S'Domains: depots, clients, labels, branches, streams, and typemap'
p94
stRp95
ag3
(g4
g5
(dp96
g12
S'0'
sg13
S'13'
p97
sg14
S'name, change, sequence'
p98
sg16
S'13'
p99
sg17
S'db.template'
p100
sg19
S'Template'
p101
sg21
S'Streams templates'
p102
stRp103
ag3
(g4
g5
(dp104
g12
S'1'
sg13
S'14'
p105
sg14
S'name seq'
p106
sg16
S'14'
p107
sg17
S'db.view.rp'
p108
sg19
S'View'
p109
sg21
S'Contains views for clients of build-server replicas'
p110
stRp111
ag3
(g4
g5
(dp112
g12
S'1'
sg13
S'15'
p113
sg14
S'name, seq'
p114
sg16
S'15'
p115
sg17
S'db.view'
p116
sg19
S'View'
p117
sg21
S'Contains views for domains'
p118
stRp119
ag3
(g4
g5
(dp120
g12
S'1'
sg13
S'16'
p121
sg14
S'user, seq'
p122
sg16
S'16'
p123
sg17
S'db.review'
p124
sg19
S'Review'
p125
sg21
S"Contains user's review mappings"
p126
stRp127
ag3
(g4
g5
(dp128
g14
S'toFile, fromFile, startFromRev, endFromRev, \n\t\tstartToRev, endToRev'
p129
sg16
S'20'
p130
sg17
S'db.integed'
p131
sg12
S'0'
sg13
S'17'
p132
sS'seeAlso'
p133
S'db.resolve'
p134
sg19
S'Integed'
p135
sg21
S'Permanent integration records'
p136
stRp137
ag3
(g4
g5
(dp138
g14
S'toFile, fromFile, startFromRev, endFromRev, \n\t\tstartToRev, endToRev'
p139
sg16
S'21'
p140
sg17
S'db.integtx'
p141
sg12
S'0'
sg13
S'18'
p142
sg133
S'db.resolve'
p143
sg19
S'Integed'
p144
sg21
S'Temporary integration records'
p145
stRp146
ag3
(g4
g5
(dp147
g14
S'toFile, fromFile, startFromRev'
p148
sg16
S'22'
p149
sg17
S'db.resolve'
p150
sg12
S'1'
sg13
S'19'
p151
sg133
S'db.integed'
p152
sg19
S'Resolve'
p153
sg21
S'Pending integration records'
p154
stRp155
ag3
(g4
g5
(dp156
g14
S'toFile, fromFile, startFromRev'
p157
sg16
S'23'
p158
sg17
S'db.resolvex'
p159
sg12
S'1'
sg13
S'20'
p160
sg133
S'db.integed'
p161
sg19
S'Resolve'
p162
sg21
S'Pending integration records for shelved files'
p163
stRp164
ag3
(g4
g5
(dp165
g12
S'2'
sg13
S'21'
p166
sg14
S'clientFile depotFile haveRev'
p167
sg16
S'18'
p168
sg17
S'db.have.rp'
p169
sg19
S'Have'
p170
sg21
S"Contains the 'have-list' for clients of build-server replicas"
p171
stRp172
ag3
(g4
g5
(dp173
g12
S'2'
sg13
S'22'
p174
sg14
S'clientFile'
p175
sg16
S'19'
p176
sg17
S'db.have'
p177
sg19
S'Have'
p178
sg21
S"Contains the 'have-list' for all clients"
p179
stRp180
ag3
(g4
g5
(dp181
g12
S'0'
sg13
S'23'
p182
sg14
S'name, depotFile'
p183
sg16
S'17'
p184
sg17
S'db.label'
p185
sg19
S'Label'
p186
sg21
S'Lists the revisions of files in labels'
p187
stRp188
ag3
(g4
g5
(dp189
g12
S'2'
sg13
S'24'
p190
sg14
S'depotFile, client'
p191
sg16
S'35'
p192
sg17
S'db.locks'
p193
sg19
S'Locks'
p194
sg21
S'Locked/Unlocked files'
p195
stRp196
ag3
(g4
g5
(dp197
g12
S'1'
sg13
S'25'
p198
sg14
S'depotFile'
p199
sg16
S'38'
p200
sg17
S'db.excl'
p201
sg19
S'ExclusiveLock'
p202
sg21
S'Exclusively locked files -  enables coordinated file locking in a Distributed Perforce environment (commit and edge servers)'
p203
stRp204
ag3
(g4
g5
(dp205
g14
S'lbrFile, depotFile'
p206
sg16
S'24'
p207
sg17
S'db.archmap'
p208
sS'note'
p209
S'Supercedes db.archive'
p210
sg12
S'0'
sg13
S'26'
p211
sg19
S'ArchMap'
p212
sg21
S'Mappings entries for lazy-copies'
p213
stRp214
ag3
(g4
g5
(dp215
g12
S'9'
sg13
S'27'
p216
sg14
S'depotFile, depotRev'
p217
sg16
S'33'
p218
sg17
S'db.rev'
p219
sg19
S'Rev'
p220
sg21
S'Revision records'
p221
stRp222
ag3
(g4
g5
(dp223
g12
S'9'
sg13
S'28'
p224
sg14
S'depotFile, depotRev'
p225
sg16
S'34'
p226
sg17
S'db.revtx'
p227
sg19
S'Rev'
p228
sg21
S'Temporary revision records'
p229
stRp230
ag3
(g4
g5
(dp231
g12
S'0'
sg13
S'29'
p232
sg14
S'change, depotFile'
p233
sg16
S'32'
p234
sg17
S'db.revcx'
p235
sg19
S'RevCx'
p236
sg21
S'Secondary index of db.rev'
p237
stRp238
ag3
(g4
g5
(dp239
g12
S'9'
sg13
S'30'
p240
sg14
S'depotFile'
p241
sg16
S'25'
p242
sg17
S'db.revdx'
p243
sg19
S'Rev'
p244
sg21
S'Revision records for revisions deleted at the head revision'
p245
stRp246
ag3
(g4
g5
(dp247
g12
S'9'
sg13
S'31'
p248
sg14
S'depotFile'
p249
sg16
S'26'
p250
sg17
S'db.revhx'
p251
sg19
S'Rev'
p252
sg21
S'Revision records for revisions NOT deleted at the head revision'
p253
stRp254
ag3
(g4
g5
(dp255
g14
S'depotFile, depotRev'
p256
sg16
S'27'
p257
sg17
S'db.revpx'
p258
sg209
S'Only populated during content trigger execution to allow \n\t\ttriggers access to the revisions being submitted.'
p259
sg12
S'9'
sg13
S'32'
p260
sg19
S'Rev'
p261
sg21
S'Pending revision records'
p262
stRp263
ag3
(g4
g5
(dp264
g12
S'9'
sg13
S'33'
p265
sg14
S'depotFile, depotRev'
p266
sg16
S'28'
p267
sg17
S'db.revsx'
p268
sg19
S'Rev'
p269
sg21
S'Revision records for spec depot files'
p270
stRp271
ag3
(g4
g5
(dp272
g12
S'9'
sg13
S'34'
p273
sg14
S'depotFile, depotRev, type, action, change'
p274
sg16
S'29'
p275
sg17
S'db.revsh'
p276
sg19
S'Rev'
p277
sg21
S'Revision records for shelved files'
p278
stRp279
ag3
(g4
g5
(dp280
g12
S'9'
sg13
S'35'
p281
sg14
S'depotFile, depotRev'
p282
sg16
S'30'
p283
sg17
S'db.revbx'
p284
sg19
S'Rev'
p285
sg21
S'Revision records for archived files'
p286
stRp287
ag3
(g4
g5
(dp288
g12
S'9'
sg13
S'36'
p289
sg14
S'depotFile'
p290
sg16
S'31'
p291
sg17
S'db.revux'
p292
sg19
S'Rev'
p293
sg21
S'Revision records for unload depot files'
p294
stRp295
ag3
(g4
g5
(dp296
g12
S'10'
p297
sg13
S'37'
p298
sg14
S'clientFile'
p299
sg16
S'36'
p300
sg17
S'db.working'
p301
sg19
S'Working'
p302
sg21
S'Records for work in progress'
p303
stRp304
ag3
(g4
g5
(dp305
g12
S'10'
p306
sg13
S'38'
p307
sg14
S'clientFile'
p308
sg16
S'37'
p309
sg17
S'db.workingx'
p310
sg19
S'Working'
p311
sg21
S'Records for shelved open files'
p312
stRp313
ag3
(g4
g5
(dp314
g12
S'0'
sg13
S'39'
p315
sg14
S'traitLot, name'
p316
sg16
S'39'
p317
sg17
S'db.traits'
p318
sg19
S'Trait'
p319
sg21
S'Attributes associated with file revisions'
p320
stRp321
ag3
(g4
g5
(dp322
g12
S'2'
sg13
S'40'
p323
sg14
S'seq'
p324
sg16
S'40'
p325
sg17
S'db.trigger'
p326
sg19
S'Trigger'
p327
sg21
S'Trigger specifications'
p328
stRp329
ag3
(g4
g5
(dp330
g12
S'2'
sg13
S'41'
p331
sg14
S'change'
p332
sg16
S'41'
p333
sg17
S'db.change'
p334
sg19
S'Change'
p335
sg21
S'Changelists'
p336
stRp337
ag3
(g4
g5
(dp338
g14
S'change'
p339
sg16
S'42'
p340
sg17
S'db.changex'
p341
sg209
S'contains records for pending changelists only.'
p342
sg12
S'2'
sg13
S'42'
p343
sg19
S'Change'
p344
sg21
S'Subset of db.change - records for pending changelists only'
p345
stRp346
ag3
(g4
g5
(dp347
g12
S'0'
sg13
S'43'
p348
sg14
S'descKey'
p349
sg16
S'43'
p350
sg17
S'db.desc'
p351
sg19
S'Desc'
p352
sg21
S'Change descriptions'
p353
stRp354
ag3
(g4
g5
(dp355
g14
S'job'
p356
sg16
S'44'
p357
sg17
S'db.job'
p358
sg12
S'0'
sg13
S'44'
p359
sg133
S'db.bodtext'
p360
sg19
S'Job'
p361
sg21
S'Job records'
p362
stRp363
ag3
(g4
g5
(dp364
g14
S'job, change'
p365
sg16
S'45'
p366
sg17
S'db.fix'
p367
sg12
S'1'
sg13
S'45'
p368
sg133
S'db.fixrev'
p369
sg19
S'Fix'
p370
sg21
S'Fix records - indexed by job'
p371
stRp372
ag3
(g4
g5
(dp373
g14
S'change, job'
p374
sg16
S'46'
p375
sg17
S'db.fixrev'
p376
sg12
S'1'
sg13
S'46'
p377
sg133
S'db.fix'
p378
sg19
S'Fix'
p379
sg21
S'Fix records - indexed by change'
p380
stRp381
ag3
(g4
g5
(dp382
g12
S'1'
sg13
S'47'
p383
sg14
S'key, attr'
p384
sg16
S'47'
p385
sg17
S'db.bodtext'
p386
sg19
S'BodyText'
p387
sg21
S'Job data for job attributes'
p388
stRp389
ag3
(g4
g5
(dp390
g12
S'0'
sg13
S'48'
p391
sg14
S'word, attr, value'
p392
sg16
S'48'
p393
sg17
S'db.ixtext'
p394
sg19
S'IndexText'
p395
sg21
S'Indexing data for job attributes'
p396
stRp397
ag3
(g4
g5
(dp398
g12
S'4'
sg13
S'49'
p399
sg14
S'seq'
p400
sg16
S'49'
p401
sg17
S'db.protect'
p402
sg19
S'Protect'
p403
sg21
S'The protections table'
p404
stRp405
ag3
(g4
g5
(dp406
g12
S'0'
sg13
S'50'
p407
sg14
S'name, seq, type, scope'
p408
sg16
S'50'
p409
sg17
S'db.property'
p410
sg19
S'Property'
p411
sg21
S'Properties'
p412
stRp413
ag3
(g4
g5
(dp414
g12
S'0'
sg13
S'51'
p415
sg14
S'language, id'
p416
sg16
S'51'
p417
sg17
S'db.message'
p418
sg19
S'Message'
p419
sg21
S'System messages'
p420
stRp421
ag3
(g4
g5
(dp422
g12
S'1'
sg13
S'52'
p423
sg14
S'id'
p424
sg16
S'52'
p425
sg17
S'db.monitor'
p426
sg19
S'Monitor'
p427
sg21
S'Perforce process information'
p428
stRp429
ag3
(g4
g5
(dp430
g19
S'ReplicaArchiveTransfer'
p431
sg17
S'rdb.lbr'
p432
sg21
S'Replica server pending archive transfer table'
p433
stRp434
ag3
(g4
g5
(dp435
g19
S'TinyDb'
p436
sg14
S'fileAndRev'
p437
sg17
S'tiny.db'
p438
sg21
S'Records revision and content data for files using the +T file type modifier'
p439
stRp440
atRp441
stRp442
sg12
S'2013.3'
p443
sS'numUpgrades'
p444
S'23'
p445
sS'recordtypes'
p446
g3
(g4
g5
(dp447
S'record'
p448
g3
(g8
g9
(lp449
g3
(g4
g5
(dp450
S'column'
p451
g3
(g8
g9
(lp452
g3
(g4
g5
(dp453
g19
S'File'
p454
sg17
S'lbrFile'
p455
sg21
S"Specifies the location in the librarian's archives where\n\t\t    the revision may be found"
p456
stRp457
ag3
(g4
g5
(dp458
g19
S'String'
p459
sg17
S'lbrRev'
p460
sg21
S"Revision in the librarian's archives"
p461
stRp462
ag3
(g4
g5
(dp463
g19
S'File'
p464
sg17
S'depotFile'
p465
sg21
S'Name of the file in the depot'
p466
stRp467
ag3
(g4
g5
(dp468
g19
S'Rev'
p469
sg17
S'depotRev'
p470
sg21
S'Name of the file in the depot'
p471
stRp472
ag3
(g4
g5
(dp473
g19
S'FileType'
p474
sg17
S'lbrType'
p475
sg21
S"File type for librarian's purposes"
p476
stRp477
atRp478
sg17
S'Archive'
p479
stRp480
ag3
(g4
g5
(dp481
g451
g3
(g8
g9
(lp482
g3
(g4
g5
(dp483
g19
S'File'
p484
sg17
S'lbrFile'
p485
sg21
S'Paths in the librarian namespace that recieve lazy\n\t\t    copies.'
p486
stRp487
ag3
(g4
g5
(dp488
g19
S'File'
p489
sg17
S'depotFile'
p490
sg21
S'Paths in the depot namespace that provide lazy copies.'
p491
stRp492
atRp493
sg17
S'ArchMap'
p494
stRp495
ag3
(g4
g5
(dp496
g451
g3
(g8
g9
(lp497
g3
(g4
g5
(dp498
g19
S'String'
p499
sg17
S'key'
p500
sg21
S'The job to which this attribute belongs'
p501
stRp502
ag3
(g4
g5
(dp503
g19
S'Int'
p504
sg17
S'attr'
p505
sg21
S'The attribute number (from the jobspec) of this attribute'
p506
stRp507
ag3
(g4
g5
(dp508
g19
S'Date'
p509
sg17
S'date'
p510
sg21
S'The date value itself'
p511
stRp512
atRp513
sg17
S'BodyDate'
p514
stRp515
ag3
(g4
g5
(dp516
g451
g3
(g8
g9
(lp517
g3
(g4
g5
(dp518
g19
S'String'
p519
sg17
S'key'
p520
sg21
S'The job to which this attribute belongs'
p521
stRp522
ag3
(g4
g5
(dp523
g19
S'Int'
p524
sg17
S'attr'
p525
sg21
S'The attribute number (from the jobspec) of this attribute'
p526
stRp527
ag3
(g4
g5
(dp528
g19
S'Int'
p529
sg17
S'isBulk'
p530
sg21
S'Indicates whether (1), or not (0) the field is a bulk\n\t\t    text field that should not be indexed.'
p531
stRp532
ag3
(g4
g5
(dp533
g19
S'Text'
p534
sg17
S'text'
p535
sg21
S'The attribute value'
p536
stRp537
atRp538
sg17
S'BodyText'
p539
stRp540
ag3
(g4
g5
(dp541
g451
g3
(g8
g9
(lp542
g3
(g4
g5
(dp543
g19
S'Change'
p544
sg17
S'change'
p545
sg21
S'The change number'
p546
stRp547
ag3
(g4
g5
(dp548
g19
S'Change'
p549
sg17
S'descKey'
p550
sg21
S"The description key. Normally the same as 'change', but\n\t\t    may differ if a changelist was renumbered on submission."
p551
stRp552
ag3
(g4
g5
(dp553
g19
S'Domain'
p554
sg17
S'client'
p555
sg21
S'The client from which the change originates'
p556
stRp557
ag3
(g4
g5
(dp558
g19
S'User'
p559
sg17
S'user'
p560
sg21
S'The user who owns the change'
p561
stRp562
ag3
(g4
g5
(dp563
g19
S'Date'
p564
sg17
S'date'
p565
sg21
S'Date and time the changelist was submitted'
p566
stRp567
ag3
(g4
g5
(dp568
g19
S'ChangeStatus'
p569
sg17
S'status'
p570
sg21
S'Status of the change'
p571
stRp572
ag3
(g4
g5
(dp573
g19
S'DescShort'
p574
sg17
S'description'
p575
sg21
S'Short description of the change.'
p576
stRp577
ag3
(g4
g5
(dp578
g19
S'Mapping'
p579
sg17
S'root'
p580
sg21
S'Common path for all files in the changelist'
p581
stRp582
atRp583
sg17
S'Change'
p584
stRp585
ag3
(g4
g5
(dp586
g451
g3
(g8
g9
(lp587
g3
(g4
g5
(dp588
g19
S'String'
p589
sg17
S'sname'
p590
sg21
S'Server name'
p591
stRp592
ag3
(g4
g5
(dp593
g19
S'String'
p594
sg17
S'name'
p595
sg21
S'Configuration variable name'
p596
stRp597
ag3
(g4
g5
(dp598
g19
S'Value'
p599
sg17
S'value'
p600
sg21
S'Configuration variable value'
p601
stRp602
atRp603
sg17
S'Config'
p604
stRp605
ag3
(g4
g5
(dp606
g451
g3
(g8
g9
(lp607
g3
(g4
g5
(dp608
g19
S'Counter'
p609
sg17
S'name'
p610
sg21
S'Counter name'
p611
stRp612
ag3
(g4
g5
(dp613
g19
S'Value'
p614
sg17
S'value'
p615
sg21
S'Counter value'
p616
stRp617
atRp618
sg17
S'Counters'
p619
stRp620
ag3
(g4
g5
(dp621
g451
g3
(g8
g9
(lp622
g3
(g4
g5
(dp623
g19
S'Domain'
p624
sg17
S'name'
p625
sg21
S'Depot name'
p626
stRp627
ag3
(g4
g5
(dp628
g19
S'DepotType'
p629
sg17
S'type'
p630
sg21
S'Type of depot'
p631
stRp632
ag3
(g4
g5
(dp633
g19
S'Text'
p634
sg17
S'extra'
p635
sg21
S'For remote depots, the P4PORT address of the remote server.\n\t\t    For spec depots, the field contains a suffix to append to \n\t\t    the filename.'
p636
stRp637
ag3
(g4
g5
(dp638
g19
S'Text'
p639
sg17
S'map'
p640
sg21
S"The depot's map (path translation information).  For local \n\t\t    depots, this will be a path relative to the root directory.\n\t\t    For remote depots, this will be specified in terms of the \n\t\t    remote server's namespace."
p641
stRp642
atRp643
sg17
S'Depot'
p644
stRp645
ag3
(g4
g5
(dp646
g451
g3
(g8
g9
(lp647
g3
(g4
g5
(dp648
g19
S'Change'
p649
sg17
S'descKey'
p650
sg21
S'Original number of the change to which this description\n\t\t    applies. This may differ from the final change number if\n\t\t    the change is renumbered on submission.'
p651
stRp652
ag3
(g4
g5
(dp653
g19
S'Text'
p654
sg17
S'description'
p655
sg21
S'The change description itself'
p656
stRp657
atRp658
sg17
S'Desc'
p659
stRp660
ag3
(g4
g5
(dp661
g451
g3
(g8
g9
(lp662
g3
(g4
g5
(dp663
g19
S'Domain'
p664
sg17
S'name'
p665
sg21
S'Domain name'
p666
stRp667
ag3
(g4
g5
(dp668
g19
S'DomainType'
p669
sg17
S'type'
p670
sg21
S'Type of domain'
p671
stRp672
ag3
(g4
g5
(dp673
g19
S'Text'
p674
sg17
S'extra'
p675
sg21
S'Formerly "host". Associated host or, for labels, revision \n\t\t    number.'
p676
stRp677
ag3
(g4
g5
(dp678
g19
S'Text'
p679
sg17
S'mount'
p680
sg21
S'The client root'
p681
stRp682
ag3
(g4
g5
(dp683
g19
S'Text'
p684
sg17
S'mount2'
p685
sg21
S'Alternate client root'
p686
stRp687
ag3
(g4
g5
(dp688
g19
S'Text'
p689
sg17
S'mount3'
p690
sg21
S'Alternate client root'
p691
stRp692
ag3
(g4
g5
(dp693
g19
S'User'
p694
sg17
S'owner'
p695
sg21
S'Name of user who owns the domain.'
p696
stRp697
ag3
(g4
g5
(dp698
g19
S'Date'
p699
sg17
S'updateDate'
p700
sg21
S'Date of last update to domain specification.'
p701
stRp702
ag3
(g4
g5
(dp703
g19
S'Date'
p704
sg17
S'accessDate'
p705
sg21
S'Date of last access to domain specification.'
p706
stRp707
ag3
(g4
g5
(dp708
g19
S'DomainOpts'
p709
sg17
S'options'
p710
sg21
S'Options for client, label, and branch domains.'
p711
stRp712
ag3
(g4
g5
(dp713
g19
S'Text'
p714
sg17
S'description'
p715
sg21
S'Description of domain.'
p716
stRp717
ag3
(g4
g5
(dp718
g19
S'Text'
p719
sg17
S'stream'
p720
sg21
S'Associated stream for client records'
p721
stRp722
ag3
(g4
g5
(dp723
g19
S'Text'
p724
sg17
S'serverid'
p725
sg21
S'Associated server ID for client records'
p726
stRp727
ag3
(g4
g5
(dp728
g19
S'Int'
p729
sg17
S'partition'
p730
sg21
S'Currently unused. Reserved for future use'
p731
stRp732
atRp733
sg17
S'Domain'
p734
stRp735
ag3
(g4
g5
(dp736
g451
g3
(g8
g9
(lp737
g3
(g4
g5
(dp738
g19
S'File'
p739
sg17
S'depotFile'
p740
sg21
S'The file locked'
p741
stRp742
ag3
(g4
g5
(dp743
g19
S'Domain'
p744
sg17
S'client'
p745
sg21
S'The client for which the file is locked'
p746
stRp747
ag3
(g4
g5
(dp748
g19
S'User'
p749
sg17
S'user'
p750
sg21
S'The user for which the file is locked'
p751
stRp752
atRp753
sg17
S'ExclusiveLock'
p754
stRp755
ag3
(g4
g5
(dp756
g451
g3
(g8
g9
(lp757
g3
(g4
g5
(dp758
g19
S'String'
p759
sg17
S'job'
p760
sg21
S'Job name'
p761
stRp762
ag3
(g4
g5
(dp763
g19
S'Change'
p764
sg17
S'change'
p765
sg21
S'Changelist number'
p766
stRp767
ag3
(g4
g5
(dp768
g19
S'Date'
p769
sg17
S'date'
p770
sg21
S'Date fix was recorded (may differ from date change was\n\t\t    submitted).'
p771
stRp772
ag3
(g4
g5
(dp773
g19
S'FixStatus'
p774
sg17
S'status'
p775
sg21
S'Status of the job'
p776
stRp777
ag3
(g4
g5
(dp778
g19
S'Domain'
p779
sg17
S'client'
p780
sg21
S'The client where the fix originated'
p781
stRp782
ag3
(g4
g5
(dp783
g19
S'User'
p784
sg17
S'user'
p785
sg21
S'The user who fixed the job'
p786
stRp787
atRp788
sg17
S'Fix'
p789
stRp790
ag3
(g4
g5
(dp791
g451
g3
(g8
g9
(lp792
g3
(g4
g5
(dp793
g19
S'User'
p794
sg17
S'user'
p795
sg21
S'User name'
p796
stRp797
ag3
(g4
g5
(dp798
g19
S'User'
p799
sg17
S'group'
p800
sg21
S'Group name'
p801
stRp802
ag3
(g4
g5
(dp803
g19
S'UserType'
p804
sg17
S'type'
p805
sg21
S'Type of user in this group.'
p806
stRp807
ag3
(g4
g5
(dp808
g19
S'MaxResults'
p809
sg17
S'maxResults'
p810
sg21
S'MaxResults setting for the group.'
p811
stRp812
ag3
(g4
g5
(dp813
g19
S'MaxScanRows'
p814
sg17
S'maxScanRows'
p815
sg21
S'MaxScanRows setting for the group.'
p816
stRp817
ag3
(g4
g5
(dp818
g19
S'MaxLockTime'
p819
sg17
S'maxLockTime'
p820
sg21
S'MaxLockTime setting for the group.'
p821
stRp822
ag3
(g4
g5
(dp823
g19
S'Int'
p824
sg17
S'timeout'
p825
sg21
S'Length of time (in seconds) a login ticket remains valid.'
p826
stRp827
ag3
(g4
g5
(dp828
g19
S'Int'
p829
sg17
S'passwordTimeout'
p830
sg21
S'Length of time (in seconds) a password remains valid for users in the group.'
p831
stRp832
atRp833
sg17
S'Group'
p834
stRp835
ag3
(g4
g5
(dp836
g451
g3
(g8
g9
(lp837
g3
(g4
g5
(dp838
g19
S'File'
p839
sg17
S'clientFile'
p840
sg21
S'The file in its location on the client'
p841
stRp842
ag3
(g4
g5
(dp843
g19
S'File'
p844
sg17
S'depotFile'
p845
sg21
S'The file in the depot'
p846
stRp847
ag3
(g4
g5
(dp848
g19
S'Rev'
p849
sg17
S'haveRev'
p850
sg21
S'The revision synced to the client'
p851
stRp852
ag3
(g4
g5
(dp853
g19
S'FileType'
p854
sg17
S'type'
p855
sg21
S'The filetype of the synced revision'
p856
stRp857
atRp858
sg17
S'Have'
p859
stRp860
ag3
(g4
g5
(dp861
g451
g3
(g8
g9
(lp862
g3
(g4
g5
(dp863
g19
S'Date'
p864
sg17
S'date'
p865
sg21
S'Date value'
p866
stRp867
ag3
(g4
g5
(dp868
g19
S'Int'
p869
sg17
S'attr'
p870
sg21
S'The attribute number (from the jobspec) to which this\n\t\t    date belongs'
p871
stRp872
ag3
(g4
g5
(dp873
g19
S'String'
p874
sg17
S'value'
p875
sg21
S'A job name'
p876
stRp877
atRp878
sg17
S'IndexDate'
p879
stRp880
ag3
(g4
g5
(dp881
g451
g3
(g8
g9
(lp882
g3
(g4
g5
(dp883
g19
S'String'
p884
sg17
S'word'
p885
sg21
S'The word being indexed'
p886
stRp887
ag3
(g4
g5
(dp888
g19
S'Int'
p889
sg17
S'attr'
p890
sg21
S'The attribute number (from the jobspec) to which this\n\t\t    word belongs'
p891
stRp892
ag3
(g4
g5
(dp893
g19
S'String'
p894
sg17
S'value'
p895
sg21
S'A job name'
p896
stRp897
atRp898
sg17
S'IndexText'
p899
stRp900
ag3
(g4
g5
(dp901
g451
g3
(g8
g9
(lp902
g3
(g4
g5
(dp903
g19
S'File'
p904
sg17
S'toFile'
p905
sg21
S'File to which integration is being performed (target).'
p906
stRp907
ag3
(g4
g5
(dp908
g19
S'File'
p909
sg17
S'fromFile'
p910
sg21
S'File from which integration is being performed (source).'
p911
stRp912
ag3
(g4
g5
(dp913
g19
S'Rev'
p914
sg17
S'startFromRev'
p915
sg21
S'Starting revision of fromFile'
p916
stRp917
ag3
(g4
g5
(dp918
g19
S'Rev'
p919
sg17
S'endFromRev'
p920
sg21
S'Ending revision of fromFile. If integrating from a single \n\t\t    revision (not a revision range), the startFromRev and \n\t\t    endFromRev fields will be identical.'
p921
stRp922
ag3
(g4
g5
(dp923
g19
S'Rev'
p924
sg17
S'toRev'
p925
sg21
S'Revision of toFile into which integration is being \n\t\t    performed.'
p926
stRp927
ag3
(g4
g5
(dp928
g19
S'IntegHow'
p929
sg17
S'how'
p930
sg21
S'Integration method: variations on \n\t\t    merge/branch/copy/ignore/delete.'
p931
stRp932
ag3
(g4
g5
(dp933
g19
S'Int'
p934
sg17
S'committed'
p935
sg21
S'Flag: 0 for pending, 1 for committed.'
p936
stRp937
ag3
(g4
g5
(dp938
g19
S'ResolvedStatus'
p939
sg17
S'resolved'
p940
sg21
S'Resolution method: unresolved, resolved manually, \n\t\t    or resolved as part of a branch or delete.'
p941
stRp942
ag3
(g4
g5
(dp943
g19
S'Change'
p944
sg17
S'change'
p945
sg21
S'Changelist associated with the integration.'
p946
stRp947
atRp948
sg17
S'Integ'
p949
stRp950
ag3
(g4
g5
(dp951
g451
g3
(g8
g9
(lp952
g3
(g4
g5
(dp953
g19
S'File'
p954
sg17
S'toFile'
p955
sg21
S'File to which integration is being performed (target).'
p956
stRp957
ag3
(g4
g5
(dp958
g19
S'File'
p959
sg17
S'fromFile'
p960
sg21
S'File from which integration is being performed (source).'
p961
stRp962
ag3
(g4
g5
(dp963
g19
S'Rev'
p964
sg17
S'startFromRev'
p965
sg21
S'Starting revision of fromFile'
p966
stRp967
ag3
(g4
g5
(dp968
g19
S'Rev'
p969
sg17
S'endFromRev'
p970
sg21
S'Ending revision of fromFile. If integrating from a single \n\t\t    revision (not a revision range), the startFromRev and \n\t\t    endFromRev fields will be identical.'
p971
stRp972
ag3
(g4
g5
(dp973
g19
S'Rev'
p974
sg17
S'startToRev'
p975
sg21
S'Start revision of toFile into which integration was \n\t\t    performed.'
p976
stRp977
ag3
(g4
g5
(dp978
g19
S'Rev'
p979
sg17
S'endToRev'
p980
sg21
S'End revision of toFile into which integration was \n\t\t    performed. Only varies from startToRev for reverse \n\t\t    integration records.'
p981
stRp982
ag3
(g4
g5
(dp983
g19
S'IntegHow'
p984
sg17
S'how'
p985
sg21
S'Integration method: variations on \n\t\t    merge/branch/copy/ignore/delete.'
p986
stRp987
ag3
(g4
g5
(dp988
g19
S'Change'
p989
sg17
S'change'
p990
sg21
S'Changelist associated with the integration.'
p991
stRp992
atRp993
sg17
S'Integed'
p994
stRp995
ag3
(g4
g5
(dp996
g451
g3
(g8
g9
(lp997
g3
(g4
g5
(dp998
g19
S'String'
p999
sg17
S'job'
p1000
sg21
S'The job name'
p1001
stRp1002
ag3
(g4
g5
(dp1003
g19
S'User'
p1004
sg17
S'xuser'
p1005
sg21
S'User name: defunct'
p1006
stRp1007
ag3
(g4
g5
(dp1008
g19
S'Date'
p1009
sg17
S'xdate'
p1010
sg21
S'The date: defunct'
p1011
stRp1012
ag3
(g4
g5
(dp1013
g19
S'JobStat'
p1014
sg17
S'xstatus'
p1015
sg21
S'Job status: defunct'
p1016
stRp1017
ag3
(g4
g5
(dp1018
g19
S'DescShort'
p1019
sg17
S'description'
p1020
sg21
S'Short description'
p1021
stRp1022
atRp1023
sg17
S'Job'
p1024
stRp1025
ag3
(g4
g5
(dp1026
g451
g3
(g8
g9
(lp1027
g3
(g4
g5
(dp1028
g19
S'String'
p1029
sg17
S'xjob'
p1030
sg21
S'The job name'
p1031
stRp1032
ag3
(g4
g5
(dp1033
g19
S'Text'
p1034
sg17
S'xdescription'
p1035
sg21
S'Jobdescription'
p1036
stRp1037
atRp1038
sg17
S'JobDesc'
p1039
stRp1040
ag3
(g4
g5
(dp1041
g451
g3
(g8
g9
(lp1042
g3
(g4
g5
(dp1043
g19
S'Key'
p1044
sg17
S'name'
p1045
sg21
S'Key name'
p1046
stRp1047
ag3
(g4
g5
(dp1048
g19
S'Value'
p1049
sg17
S'value'
p1050
sg21
S'Key value'
p1051
stRp1052
atRp1053
sg17
S'Keys'
p1054
stRp1055
ag3
(g4
g5
(dp1056
g451
g3
(g8
g9
(lp1057
g3
(g4
g5
(dp1058
g19
S'Domain'
p1059
sg17
S'name'
p1060
sg21
S'Name of the label'
p1061
stRp1062
ag3
(g4
g5
(dp1063
g19
S'File'
p1064
sg17
S'depotFile'
p1065
sg21
S'File name'
p1066
stRp1067
ag3
(g4
g5
(dp1068
g19
S'Rev'
p1069
sg17
S'haveRev'
p1070
sg21
S'The revision of the file in the label'
p1071
stRp1072
atRp1073
sg17
S'Label'
p1074
stRp1075
ag3
(g4
g5
(dp1076
g451
g3
(g8
g9
(lp1077
g3
(g4
g5
(dp1078
g19
S'File'
p1079
sg17
S'depotFile'
p1080
sg21
S'File in depot'
p1081
stRp1082
ag3
(g4
g5
(dp1083
g19
S'Domain'
p1084
sg17
S'client'
p1085
sg21
S'Domain (client) in which file is open'
p1086
stRp1087
ag3
(g4
g5
(dp1088
g19
S'User'
p1089
sg17
S'user'
p1090
sg21
S'User who presently has the file open'
p1091
stRp1092
ag3
(g4
g5
(dp1093
g19
S'Action'
p1094
sg17
S'action'
p1095
sg21
S'Action file is open for: add, edit, delete, branch,\n\t\t    integrate, or import'
p1096
stRp1097
ag3
(g4
g5
(dp1098
g19
S'Int'
p1099
sg17
S'isLocked'
p1100
sg21
S'Flag: 0 for unlocked, 1 for locked'
p1101
stRp1102
ag3
(g4
g5
(dp1103
g19
S'Int'
p1104
sg17
S'change'
p1105
sg21
S'Changelist in which the revision is open: 0 for the\n\t\t    default changelist'
p1106
stRp1107
atRp1108
sg17
S'Locks'
p1109
stRp1110
ag3
(g4
g5
(dp1111
g451
g3
(g8
g9
(lp1112
g3
(g4
g5
(dp1113
g19
S'Int'
p1114
sg17
S'seq'
p1115
sg21
S'Sequence number of event'
p1116
stRp1117
ag3
(g4
g5
(dp1118
g19
S'String'
p1119
sg17
S'key'
p1120
sg21
S"Either the word 'change' or the word 'job'"
p1121
stRp1122
ag3
(g4
g5
(dp1123
g19
S'String'
p1124
sg17
S'attr'
p1125
sg21
S'The number of the change, or name of the job that was \n\t\t    altered.'
p1126
stRp1127
atRp1128
sg17
S'Logger'
p1129
stRp1130
ag3
(g4
g5
(dp1131
g451
g3
(g8
g9
(lp1132
g3
(g4
g5
(dp1133
g19
S'String'
p1134
sg17
S'language'
p1135
sg21
S'The language for which this message applies'
p1136
stRp1137
ag3
(g4
g5
(dp1138
g19
S'Int'
p1139
sg17
S'id'
p1140
sg21
S'The message number'
p1141
stRp1142
ag3
(g4
g5
(dp1143
g19
S'String'
p1144
sg17
S'message'
p1145
sg21
S'The message text'
p1146
stRp1147
atRp1148
sg17
S'Message'
p1149
stRp1150
ag3
(g4
g5
(dp1151
g451
g3
(g8
g9
(lp1152
g3
(g4
g5
(dp1153
g19
S'Int'
p1154
sg17
S'id'
p1155
sg21
S'Thread/process id'
p1156
stRp1157
ag3
(g4
g5
(dp1158
g19
S'User'
p1159
sg17
S'user'
p1160
sg21
S'Username of the user running the command'
p1161
stRp1162
ag3
(g4
g5
(dp1163
g19
S'String'
p1164
sg17
S'function'
p1165
sg21
S'The command being executed.'
p1166
stRp1167
ag3
(g4
g5
(dp1168
g19
S'String'
p1169
sg17
S'args'
p1170
sg21
S'Arguments passed to the command'
p1171
stRp1172
ag3
(g4
g5
(dp1173
g19
S'Date'
p1174
sg17
S'startDate'
p1175
sg21
S'The date and time the command started'
p1176
stRp1177
ag3
(g4
g5
(dp1178
g19
S'Int'
p1179
sg17
S'runstate'
p1180
sg21
S'Flag: 0 for running, 1 for terminated, 2 for paused'
p1181
stRp1182
ag3
(g4
g5
(dp1183
g19
S'Domain'
p1184
sg17
S'client'
p1185
sg21
S'The client workspace'
p1186
stRp1187
ag3
(g4
g5
(dp1188
g19
S'Text'
p1189
sg17
S'host'
p1190
sg21
S'The IP address of the client'
p1191
stRp1192
ag3
(g4
g5
(dp1193
g19
S'Text'
p1194
sg17
S'prog'
p1195
sg21
S'The name (and version) of the client program'
p1196
stRp1197
atRp1198
sg17
S'Monitor'
p1199
stRp1200
ag3
(g4
g5
(dp1201
g451
g3
(g8
g9
(lp1202
g3
(g4
g5
(dp1203
g19
S'String'
p1204
sg17
S'name'
p1205
sg21
S'Property name'
p1206
stRp1207
ag3
(g4
g5
(dp1208
g19
S'String'
p1209
sg17
S'sequence'
p1210
sg21
S'Sequence number'
p1211
stRp1212
ag3
(g4
g5
(dp1213
g19
S'Integer'
p1214
sg17
S'type'
p1215
sg21
S'Property type'
p1216
stRp1217
ag3
(g4
g5
(dp1218
g19
S'String'
p1219
sg17
S'scope'
p1220
sg21
S'Property scope'
p1221
stRp1222
ag3
(g4
g5
(dp1223
g19
S'String'
p1224
sg17
S'value'
p1225
sg21
S'Property value'
p1226
stRp1227
ag3
(g4
g5
(dp1228
g19
S'String'
p1229
sg17
S'date'
p1230
sg21
S'Property date'
p1231
stRp1232
ag3
(g4
g5
(dp1233
g19
S'String'
p1234
sg17
S'user'
p1235
sg21
S'Property user'
p1236
stRp1237
atRp1238
sg17
S'Property'
p1239
stRp1240
ag3
(g4
g5
(dp1241
g451
g3
(g8
g9
(lp1242
g3
(g4
g5
(dp1243
g19
S'Int'
p1244
sg17
S'seq'
p1245
sg21
S'Sequence number: for ordering the protections table'
p1246
stRp1247
ag3
(g4
g5
(dp1248
g19
S'Int'
p1249
sg17
S'isGroup'
p1250
sg21
S'Flag: 0 for a per-user setting, 1 for a per-group setting.'
p1251
stRp1252
ag3
(g4
g5
(dp1253
g19
S'UserWild'
p1254
sg17
S'user'
p1255
sg21
S'User(s), or Group(s) for whom this record applies.'
p1256
stRp1257
ag3
(g4
g5
(dp1258
g19
S'DomainWild'
p1259
sg17
S'host'
p1260
sg21
S'Domain(s) (IP addresses) for which this record applies.'
p1261
stRp1262
ag3
(g4
g5
(dp1263
g19
S'Perm'
p1264
sg17
S'perm'
p1265
sg21
S'Permissions to be granted/revoked'
p1266
stRp1267
ag3
(g4
g5
(dp1268
g19
S'MapFlag'
p1269
sg17
S'mapFlag'
p1270
sg21
S'Flag: Map the files in or out?'
p1271
stRp1272
ag3
(g4
g5
(dp1273
g19
S'Mapping'
p1274
sg17
S'depotFile'
p1275
sg21
S'Files to be mapped in or out.'
p1276
stRp1277
atRp1278
sg17
S'Protect'
p1279
stRp1280
ag3
(g4
g5
(dp1281
g451
g3
(g8
g9
(lp1282
g3
(g4
g5
(dp1283
g19
S'File'
p1284
sg17
S'depotFile'
p1285
sg21
S'The file name'
p1286
stRp1287
ag3
(g4
g5
(dp1288
g19
S'String'
p1289
sg17
S'lbrRev'
p1290
sg21
S'The librarian revision'
p1291
stRp1292
ag3
(g4
g5
(dp1293
g19
S'String'
p1294
sg17
S'type'
p1295
sg21
S'The file type of the revision'
p1296
stRp1297
ag3
(g4
g5
(dp1298
g19
S'PullStatus'
p1299
sg17
S'status'
p1300
sg21
S'The status of the archive transfer'
p1301
stRp1302
ag3
(g4
g5
(dp1303
g19
S'Action'
p1304
sg17
S'action'
p1305
sg21
S'The action that created the revision'
p1306
stRp1307
ag3
(g4
g5
(dp1308
g19
S'Digest'
p1309
sg17
S'digest'
p1310
sg21
S'The MD5 digest of the revision'
p1311
stRp1312
ag3
(g4
g5
(dp1313
g19
S'FileSize'
p1314
sg17
S'size'
p1315
sg21
S'The size of the file in bytes'
p1316
stRp1317
ag3
(g4
g5
(dp1318
g19
S'Change'
p1319
sg17
S'change'
p1320
sg21
S'The changelist that created the revision'
p1321
stRp1322
ag3
(g4
g5
(dp1323
g19
S'Date'
p1324
sg17
S'lbrDate'
p1325
sg21
S'Librarian date'
p1326
stRp1327
ag3
(g4
g5
(dp1328
g19
S'Date'
p1329
sg17
S'lbrModTime'
p1330
sg21
S'Librarian modtime'
p1331
stRp1332
ag3
(g4
g5
(dp1333
g19
S'Int'
p1334
sg17
S'pid'
p1335
sg21
S'The process id (PID) of the pull process'
p1336
stRp1337
ag3
(g4
g5
(dp1338
g19
S'Date'
p1339
sg17
S'requestTime'
p1340
sg21
S'Pull request time'
p1341
stRp1342
ag3
(g4
g5
(dp1343
g19
S'Int'
p1344
sg17
S'retries'
p1345
sg21
S'The number of retries that have occurred after transfer error'
p1346
stRp1347
ag3
(g4
g5
(dp1348
g19
S'String'
p1349
sg17
S'transferError'
p1350
sg21
S'The error message for a failed transfer'
p1351
stRp1352
atRp1353
sg17
S'ReplicaArchiveTransfer'
p1354
stRp1355
ag3
(g4
g5
(dp1356
g451
g3
(g8
g9
(lp1357
g3
(g4
g5
(dp1358
g19
S'File'
p1359
sg17
S'toFile'
p1360
sg21
S'File to which integration is being performed (target).'
p1361
stRp1362
ag3
(g4
g5
(dp1363
g19
S'File'
p1364
sg17
S'fromFile'
p1365
sg21
S'File from which integration is being performed (source).'
p1366
stRp1367
ag3
(g4
g5
(dp1368
g19
S'Rev'
p1369
sg17
S'startFromRev'
p1370
sg21
S'Starting revision of fromFile'
p1371
stRp1372
ag3
(g4
g5
(dp1373
g19
S'Rev'
p1374
sg17
S'endFromRev'
p1375
sg21
S'Ending revision of fromFile. If integrating from a single \n\t\t    revision (not a revision range), the startFromRev and \n\t\t    endFromRev fields will be identical.'
p1376
stRp1377
ag3
(g4
g5
(dp1378
g19
S'Rev'
p1379
sg17
S'startToRev'
p1380
sg21
S'Start revision of toFile into which integration was \n\t\t    performed.'
p1381
stRp1382
ag3
(g4
g5
(dp1383
g19
S'Rev'
p1384
sg17
S'endToRev'
p1385
sg21
S'End revision of toFile into which integration was \n\t\t    performed. Only varies from startToRev for reverse \n\t\t    integration records.'
p1386
stRp1387
ag3
(g4
g5
(dp1388
g19
S'IntegHow'
p1389
sg17
S'how'
p1390
sg21
S'Integration method: variations on \n\t\t    merge/branch/copy/ignore/delete.'
p1391
stRp1392
ag3
(g4
g5
(dp1393
g19
S'ResolveState'
p1394
sg17
S'state'
p1395
sg21
S'How the user performed the resolve.'
p1396
stRp1397
ag3
(g4
g5
(dp1398
g19
S'File'
p1399
sg17
S'baseFile'
p1400
sg21
S'File used as the base for merging.'
p1401
stRp1402
ag3
(g4
g5
(dp1403
g19
S'Rev'
p1404
sg17
S'baseRev'
p1405
sg21
S'Revision of baseFile used as the merge base.'
p1406
stRp1407
atRp1408
sg17
S'Resolve'
p1409
stRp1410
ag3
(g4
g5
(dp1411
g451
g3
(g8
g9
(lp1412
g3
(g4
g5
(dp1413
g19
S'File'
p1414
sg17
S'depotFile'
p1415
sg21
S'The file name'
p1416
stRp1417
ag3
(g4
g5
(dp1418
g19
S'Rev'
p1419
sg17
S'depotRev'
p1420
sg21
S'The revision number'
p1421
stRp1422
ag3
(g4
g5
(dp1423
g19
S'FileType'
p1424
sg17
S'type'
p1425
sg21
S'The file type of the revision'
p1426
stRp1427
ag3
(g4
g5
(dp1428
g19
S'Action'
p1429
sg17
S'action'
p1430
sg21
S'The action that created the revision'
p1431
stRp1432
ag3
(g4
g5
(dp1433
g19
S'Change'
p1434
sg17
S'change'
p1435
sg21
S'The changelist that created the revision'
p1436
stRp1437
ag3
(g4
g5
(dp1438
g19
S'Date'
p1439
sg17
S'date'
p1440
sg21
S'The date/time the changelist that created the revision\n\t\t    was submitted'
p1441
stRp1442
ag3
(g4
g5
(dp1443
g19
S'Date'
p1444
sg17
S'modTime'
p1445
sg21
S"The timestamp on the file in the user's workspace when\n\t\t    the revision was submitted."
p1446
stRp1447
ag3
(g4
g5
(dp1448
g19
S'Digest'
p1449
sg17
S'digest'
p1450
sg21
S'The MD5 digest of the revision.'
p1451
stRp1452
ag3
(g4
g5
(dp1453
g19
S'FileSize'
p1454
sg17
S'size'
p1455
sg21
S'The size of the file in bytes'
p1456
stRp1457
ag3
(g4
g5
(dp1458
g19
S'TraitLot'
p1459
sg17
S'traitLot'
p1460
sg21
S'Group of traits (attributes) associated with the revision.'
p1461
stRp1462
ag3
(g4
g5
(dp1463
g19
S'RevStatus'
p1464
sg17
S'lbrIsLazy'
p1465
sg21
S'Specifies whether or not the revision gets its content from \n\t  \t    another file (lazy copy), data about promotion of revision\n\t \t    content from task streams, and data about revision charset \n            information.'
p1466
stRp1467
ag3
(g4
g5
(dp1468
g19
S'File'
p1469
sg17
S'lbrFile'
p1470
sg21
S"Filename for librarian's purposes.  Specifies location in \n\t\t    the archives where the file containing the revision may\n\t\t    be found. Usually the same as depotFile, but differs in\n\t\t    the case of branched/copied revisions."
p1471
stRp1472
ag3
(g4
g5
(dp1473
g19
S'String'
p1474
sg17
S'lbrRev'
p1475
sg21
S'The revision of lbrFile that contains the revision content.'
p1476
stRp1477
ag3
(g4
g5
(dp1478
g19
S'FileType'
p1479
sg17
S'lbrType'
p1480
sg21
S'The file type of the librarian revision. Usually the same\n\t\t    as type, but differs in the case of branched/copied \n\t\t    revisions.'
p1481
stRp1482
atRp1483
sg17
S'Rev'
p1484
stRp1485
ag3
(g4
g5
(dp1486
g451
g3
(g8
g9
(lp1487
g3
(g4
g5
(dp1488
g19
S'Change'
p1489
sg17
S'change'
p1490
sg21
S'The changelist that created the revision'
p1491
stRp1492
ag3
(g4
g5
(dp1493
g19
S'File'
p1494
sg17
S'depotFile'
p1495
sg21
S'The file name'
p1496
stRp1497
ag3
(g4
g5
(dp1498
g19
S'Rev'
p1499
sg17
S'depotRev'
p1500
sg21
S'The revision number'
p1501
stRp1502
ag3
(g4
g5
(dp1503
g19
S'Action'
p1504
sg17
S'action'
p1505
sg21
S'The action that created the revision'
p1506
stRp1507
atRp1508
sg17
S'RevCx'
p1509
stRp1510
ag3
(g4
g5
(dp1511
g451
g3
(g8
g9
(lp1512
g3
(g4
g5
(dp1513
g19
S'User'
p1514
sg17
S'user'
p1515
sg21
S'A user name'
p1516
stRp1517
ag3
(g4
g5
(dp1518
g19
S'Int'
p1519
sg17
S'seq'
p1520
sg21
S'Sequence number: used for ordering multi-line views'
p1521
stRp1522
ag3
(g4
g5
(dp1523
g19
S'MapFlag'
p1524
sg17
S'mapFlag'
p1525
sg21
S'Type of mapping'
p1526
stRp1527
ag3
(g4
g5
(dp1528
g19
S'Mapping'
p1529
sg17
S'depotFile'
p1530
sg21
S'The files to be reviewed'
p1531
stRp1532
ag3
(g4
g5
(dp1533
g19
S'Reviewer'
p1534
sg17
S'type'
p1535
sg21
S'Type of reviewer'
p1536
stRp1537
atRp1538
sg17
S'Review'
p1539
stRp1540
ag3
(g4
g5
(dp1541
g451
g3
(g8
g9
(lp1542
g3
(g4
g5
(dp1543
g19
S'text'
p1544
sg17
S'id'
p1545
sg21
S'The server identifier'
p1546
stRp1547
ag3
(g4
g5
(dp1548
g19
S'ServerType'
p1549
sg17
S'type'
p1550
sg21
S'The server type: server/broker/proxy'
p1551
stRp1552
ag3
(g4
g5
(dp1553
g19
S'text'
p1554
sg17
S'name'
p1555
sg21
S'The P4NAME used by this server'
p1556
stRp1557
ag3
(g4
g5
(dp1558
g19
S'text'
p1559
sg17
S'address'
p1560
sg21
S'The P4PORT used by this server'
p1561
stRp1562
ag3
(g4
g5
(dp1563
g19
S'ServerServiceType'
p1564
sg17
S'services'
p1565
sg21
S'Service provided by this server'
p1566
stRp1567
ag3
(g4
g5
(dp1568
g19
S'text'
p1569
sg17
S'desc'
p1570
sg21
S'Server description'
p1571
stRp1572
atRp1573
sg17
S'Server'
p1574
stRp1575
ag3
(g4
g5
(dp1576
g451
g3
(g8
g9
(lp1577
g3
(g4
g5
(dp1578
g19
S'Domain'
p1579
sg17
S'stream'
p1580
sg21
S'Stream name'
p1581
stRp1582
ag3
(g4
g5
(dp1583
g19
S'Domain'
p1584
sg17
S'parent'
p1585
sg21
S'Parent stream name'
p1586
stRp1587
ag3
(g4
g5
(dp1588
g19
S'Text'
p1589
sg17
S'title'
p1590
sg21
S'Stream title (alias for the stream name)'
p1591
stRp1592
ag3
(g4
g5
(dp1593
g19
S'StreamType'
p1594
sg17
S'type'
p1595
sg21
S'The type of stream'
p1596
stRp1597
ag3
(g4
g5
(dp1598
g19
S'Date'
p1599
sg17
S'preview'
p1600
sg21
S'Stream template modification time'
p1601
stRp1602
ag3
(g4
g5
(dp1603
g19
S'Change'
p1604
sg17
S'change'
p1605
sg21
S'Last submit to stream'
p1606
stRp1607
ag3
(g4
g5
(dp1608
g19
S'Change'
p1609
sg17
S'copychg'
p1610
sg21
S'Parent change at last copy'
p1611
stRp1612
ag3
(g4
g5
(dp1613
g19
S'Change'
p1614
sg17
S'mergechg'
p1615
sg21
S'Parent change at last merge'
p1616
stRp1617
ag3
(g4
g5
(dp1618
g19
S'Change'
p1619
sg17
S'highchg'
p1620
sg21
S'Highest change at last merge'
p1621
stRp1622
ag3
(g4
g5
(dp1623
g19
S'Int'
p1624
sg17
S'hash'
p1625
sg21
S'Hash value of dynamic branch'
p1626
stRp1627
ag3
(g4
g5
(dp1628
g19
S'StreamStatus'
p1629
sg17
S'status'
p1630
sg21
S'Flow status'
p1631
stRp1632
atRp1633
sg17
S'Stream'
p1634
stRp1635
ag3
(g4
g5
(dp1636
g451
g3
(g8
g9
(lp1637
g3
(g4
g5
(dp1638
g19
S'Text'
p1639
sg17
S'id'
p1640
sg21
S'Server name'
p1641
stRp1642
ag3
(g4
g5
(dp1643
g19
S'SvrViewType'
p1644
sg17
S'type'
p1645
sg21
S'View type'
p1646
stRp1647
ag3
(g4
g5
(dp1648
g19
S'Int'
p1649
sg17
S'seq'
p1650
sg21
S'Sequence (line) number'
p1651
stRp1652
ag3
(g4
g5
(dp1653
g19
S'MapFlag'
p1654
sg17
S'mapFlag'
p1655
sg21
S'Type of mapping'
p1656
stRp1657
ag3
(g4
g5
(dp1658
g19
S'Mapping'
p1659
sg17
S'viewFile'
p1660
sg21
S'View file'
p1661
stRp1662
atRp1663
sg17
S'SvrView'
p1664
stRp1665
ag3
(g4
g5
(dp1666
g451
g3
(g8
g9
(lp1667
g3
(g4
g5
(dp1668
g19
S'Domain'
p1669
sg17
S'name'
p1670
sg21
S'Stream name'
p1671
stRp1672
ag3
(g4
g5
(dp1673
g19
S'Change'
p1674
sg17
S'change'
p1675
sg21
S'Versioned at change'
p1676
stRp1677
ag3
(g4
g5
(dp1678
g19
S'Int'
p1679
sg17
S'seq'
p1680
sg21
S'Sequence (line) number'
p1681
stRp1682
ag3
(g4
g5
(dp1683
g19
S'Domain'
p1684
sg17
S'parent'
p1685
sg21
S'Parent stream name'
p1686
stRp1687
ag3
(g4
g5
(dp1688
g19
S'StreamType'
p1689
sg17
S'type'
p1690
sg21
S'Type of stream'
p1691
stRp1692
ag3
(g4
g5
(dp1693
g19
S'StreamPathType'
p1694
sg17
S'path'
p1695
sg21
S'Stream path type'
p1696
stRp1697
ag3
(g4
g5
(dp1698
g19
S'Mapping'
p1699
sg17
S'viewFile'
p1700
sg21
S'View file (left hand side of path)'
p1701
stRp1702
ag3
(g4
g5
(dp1703
g19
S'Mapping'
p1704
sg17
S'depotFile'
p1705
sg21
S'Depot file (right hand side of path)'
p1706
stRp1707
atRp1708
sg17
S'Template'
p1709
stRp1710
ag3
(g4
g5
(dp1711
g451
g3
(g8
g9
(lp1712
g3
(g4
g5
(dp1713
g19
S'String'
p1714
sg17
S'fileAndRev'
p1715
sg21
S'The file name and revision'
p1716
stRp1717
ag3
(g4
g5
(dp1718
g19
S'Octet String'
p1719
sg17
S'fileContent'
p1720
sg21
S'The (encoded) file content'
p1721
stRp1722
atRp1723
sg17
S'TinyDb'
p1724
stRp1725
ag3
(g4
g5
(dp1726
g451
g3
(g8
g9
(lp1727
g3
(g4
g5
(dp1728
g19
S'Int'
p1729
sg17
S'traitLot'
p1730
sg21
S'Indicates a specific collection of traits (referred to \n\t\t    externally as "attributes".)'
p1731
stRp1732
ag3
(g4
g5
(dp1733
g19
S'String'
p1734
sg17
S'name'
p1735
sg21
S'Trait (attribute) name'
p1736
stRp1737
ag3
(g4
g5
(dp1738
g19
S'TraitType'
p1739
sg17
S'type'
p1740
sg21
S'Type of trait'
p1741
stRp1742
ag3
(g4
g5
(dp1743
g19
S'Octet String'
p1744
sg17
S'value'
p1745
sg21
S'The value'
p1746
stRp1747
atRp1748
sg17
S'Trait'
p1749
stRp1750
ag3
(g4
g5
(dp1751
g451
g3
(g8
g9
(lp1752
g3
(g4
g5
(dp1753
g19
S'Int'
p1754
sg17
S'seq'
p1755
sg21
S'Sequence number: for ordering the trigger list'
p1756
stRp1757
ag3
(g4
g5
(dp1758
g19
S'String'
p1759
sg17
S'name'
p1760
sg21
S'Name of the trigger'
p1761
stRp1762
ag3
(g4
g5
(dp1763
g19
S'MapFlag'
p1764
sg17
S'mapFlag'
p1765
sg21
S'Type of mapping: specifies whether the trigger applies \n\t\t    to the files or not.'
p1766
stRp1767
ag3
(g4
g5
(dp1768
g19
S'Mapping'
p1769
sg17
S'depotFile'
p1770
sg21
S'The files to apply the trigger to'
p1771
stRp1772
ag3
(g4
g5
(dp1773
g19
S'Trigger'
p1774
sg17
S'trigger'
p1775
sg21
S'Type of trigger'
p1776
stRp1777
ag3
(g4
g5
(dp1778
g19
S'Text'
p1779
sg17
S'action'
p1780
sg21
S'Command to execute when trigger runs'
p1781
stRp1782
atRp1783
sg17
S'Trigger'
p1784
stRp1785
ag3
(g4
g5
(dp1786
g451
g3
(g8
g9
(lp1787
g3
(g4
g5
(dp1788
g19
S'User'
p1789
sg17
S'user'
p1790
sg21
S'The username'
p1791
stRp1792
ag3
(g4
g5
(dp1793
g19
S'Text'
p1794
sg17
S'email'
p1795
sg21
S"The user's email address"
p1796
stRp1797
ag3
(g4
g5
(dp1798
g19
S'Text'
p1799
sg17
S'jobView'
p1800
sg21
S"The user's job view"
p1801
stRp1802
ag3
(g4
g5
(dp1803
g19
S'Date'
p1804
sg17
S'updateDate'
p1805
sg21
S'The date/time the user record was last updated'
p1806
stRp1807
ag3
(g4
g5
(dp1808
g19
S'Date'
p1809
sg17
S'accessDate'
p1810
sg21
S'The date/time the user record was last used'
p1811
stRp1812
ag3
(g4
g5
(dp1813
g19
S'Text'
p1814
sg17
S'fullName'
p1815
sg21
S"The user's full name"
p1816
stRp1817
ag3
(g4
g5
(dp1818
g19
S'Password'
p1819
sg17
S'password'
p1820
sg21
S'The MD5 hash of the users (encrypted) password'
p1821
stRp1822
ag3
(g4
g5
(dp1823
g19
S'Strength'
p1824
sg17
S'strength'
p1825
sg21
S"Measure of the strength of the user's password"
p1826
stRp1827
ag3
(g4
g5
(dp1828
g19
S'Password'
p1829
sg17
S'ticket'
p1830
sg21
S"'p4 login' ticket for this user"
p1831
stRp1832
ag3
(g4
g5
(dp1833
g19
S'Date'
p1834
sg17
S'endDate'
p1835
sg21
S"Date/time the user's ticket expires"
p1836
stRp1837
ag3
(g4
g5
(dp1838
g19
S'UserLevel'
p1839
sg17
S'type'
p1840
sg21
S'Type of user'
p1841
stRp1842
ag3
(g4
g5
(dp1843
g19
S'Date'
p1844
sg17
S'passDate'
p1845
sg21
S'Date password was last changed'
p1846
stRp1847
ag3
(g4
g5
(dp1848
g19
S'Date'
p1849
sg17
S'passExpire'
p1850
sg21
S'Date of password expiration'
p1851
stRp1852
ag3
(g4
g5
(dp1853
g19
S'Date'
p1854
sg17
S'attempts'
p1855
sg21
S'Failed login attempts'
p1856
stRp1857
atRp1858
sg17
S'User'
p1859
stRp1860
ag3
(g4
g5
(dp1861
g451
g3
(g8
g9
(lp1862
g3
(g4
g5
(dp1863
g19
S'Domain'
p1864
sg17
S'name'
p1865
sg21
S'Domain name to which this view applies'
p1866
stRp1867
ag3
(g4
g5
(dp1868
g19
S'Int'
p1869
sg17
S'seq'
p1870
sg21
S'Sequence number: for ordering multi-line views'
p1871
stRp1872
ag3
(g4
g5
(dp1873
g19
S'MapFlag'
p1874
sg17
S'mapFlag'
p1875
sg21
S'Type of mapping'
p1876
stRp1877
ag3
(g4
g5
(dp1878
g19
S'Mapping'
p1879
sg17
S'viewFile'
p1880
sg21
S"The right-hand-side of the view. For clients, this is\n\t\t    the client-side, for labels it's the generated label \n\t\t    view. For branches, it's the target side of the branch\n\t\t    view."
p1881
stRp1882
ag3
(g4
g5
(dp1883
g19
S'Mapping'
p1884
sg17
S'depotFile'
p1885
sg21
S'The left-hand-side of the view - a mapping to file(s)\n\t\t    in the depot.'
p1886
stRp1887
atRp1888
sg17
S'View'
p1889
stRp1890
ag3
(g4
g5
(dp1891
g451
g3
(g8
g9
(lp1892
g3
(g4
g5
(dp1893
g19
S'File'
p1894
sg17
S'clientFile'
p1895
sg21
S'File on the client'
p1896
stRp1897
ag3
(g4
g5
(dp1898
g19
S'File'
p1899
sg17
S'depotFile'
p1900
sg21
S'File in the depot'
p1901
stRp1902
ag3
(g4
g5
(dp1903
g19
S'Domain'
p1904
sg17
S'client'
p1905
sg21
S'The client the file is opened on'
p1906
stRp1907
ag3
(g4
g5
(dp1908
g19
S'User'
p1909
sg17
S'user'
p1910
sg21
S'The user who has the file opened'
p1911
stRp1912
ag3
(g4
g5
(dp1913
g19
S'Rev'
p1914
sg17
S'haveRev'
p1915
sg21
S"Revision presently in user's client workspace.  This is \n\t\t    normally identical to workRev except for the case in which \n\t\t    you've tried to submit a file where you no longer have the \n\t\t    head revision. Perforce schedules the integrate (moves \n\t\t    workRev to headRev, but doesn't change the haveRev, so that \n\t\t    a p4 revert will return the file originally checked-out \n\t\t    instead of the new head revision."
p1916
stRp1917
ag3
(g4
g5
(dp1918
g19
S'Rev'
p1919
sg17
S'workRev'
p1920
sg21
S'Working revision; this is identical to the haveRev except \n\t\t    in the case described above.'
p1921
stRp1922
ag3
(g4
g5
(dp1923
g19
S'Int'
p1924
sg17
S'isVirtual'
p1925
sg21
S'Flag: if 1, file was opened with "p4 integ -v".'
p1926
stRp1927
ag3
(g4
g5
(dp1928
g19
S'FileType'
p1929
sg17
S'type'
p1930
sg21
S'File type'
p1931
stRp1932
ag3
(g4
g5
(dp1933
g19
S'Action'
p1934
sg17
S'action'
p1935
sg21
S"What the user's doing with the file"
p1936
stRp1937
ag3
(g4
g5
(dp1938
g19
S'Change'
p1939
sg17
S'change'
p1940
sg21
S'Associated changelist, or zero for the default changelist.'
p1941
stRp1942
ag3
(g4
g5
(dp1943
g19
S'Date'
p1944
sg17
S'modTime'
p1945
sg21
S"Modification timestamp on the file in the user's workspace."
p1946
stRp1947
ag3
(g4
g5
(dp1948
g19
S'Int'
p1949
sg17
S'isLocked'
p1950
sg21
S'Flag: 0 for unlocked, 1 for locked.'
p1951
stRp1952
ag3
(g4
g5
(dp1953
g19
S'Digest'
p1954
sg17
S'digest'
p1955
sg21
S'MD5 digest of working file.'
p1956
stRp1957
ag3
(g4
g5
(dp1958
g19
S'Int64'
p1959
sg17
S'size'
p1960
sg21
S'File size'
p1961
stRp1962
ag3
(g4
g5
(dp1963
g19
S'Int'
p1964
sg17
S'traitLot'
p1965
sg21
S'Group of traits associated with file revision.'
p1966
stRp1967
ag3
(g4
g5
(dp1968
g19
S'TamperCheck'
p1969
sg17
S'tampered'
p1970
sg21
S'Flag indicating the tamper-state of the file in the\n\t\t    workspace.'
p1971
stRp1972
ag3
(g4
g5
(dp1973
g19
S'FileType'
p1974
sg17
S'clntType'
p1975
sg21
S'Type of the file in the client workspace.'
p1976
stRp1977
ag3
(g4
g5
(dp1978
g19
S'File'
p1979
sg17
S'mFile'
p1980
sg21
S'Moved filename'
p1981
stRp1982
ag3
(g4
g5
(dp1983
g19
S'Int'
p1984
sg17
S'status'
p1985
sg21
S'Working status'
p1986
stRp1987
atRp1988
sg17
S'Working'
p1989
stRp1990
atRp1991
stRp1992
sS'upgrades'
p1993
g3
(g4
g5
(dp1994
S'upgrade'
p1995
g3
(g8
g9
(lp1996
g3
(g4
g5
(dp1997
S'release'
p1998
S'2001.1'
p1999
sS'index'
p2000
S'1'
sg21
S'Split db.integ into db.integed and db.resolve'
p2001
stRp2002
ag3
(g4
g5
(dp2003
g1998
S'2001.1'
p2004
sg2000
S'2'
sg21
S'Splt db.have into db.have and db.label'
p2005
stRp2006
ag3
(g4
g5
(dp2007
g1998
S'2002.1'
p2008
sg2000
S'3'
sg21
S'Split db.change into db.change and db.changex'
p2009
stRp2010
ag3
(g4
g5
(dp2011
g1998
S'2002.2'
p2012
sg2000
S'4'
sg21
S'Upgrade tempobj filetype in db.rev'
p2013
stRp2014
ag3
(g4
g5
(dp2015
g1998
S'2002.2'
p2016
sg2000
S'5'
sg21
S'Upgrade tempobj filetype in db.working'
p2017
stRp2018
ag3
(g4
g5
(dp2019
g1998
S'2003.1'
p2020
sg2000
S'6'
sg21
S'JnlInitialize default depot'
p2021
stRp2022
ag3
(g4
g5
(dp2023
g1998
S'2003.2'
p2024
sg2000
S'7'
sg21
S'Upgrade db.user'
p2025
stRp2026
ag3
(g4
g5
(dp2027
g1998
S'2005.1'
p2028
sg2000
S'8'
sg21
S'Build db.revhx (headrev) table'
p2029
stRp2030
ag3
(g4
g5
(dp2031
g1998
S'2005.1'
p2032
sg2000
S'9'
sg21
S'Rebuild db.locks from db.working'
p2033
stRp2034
ag3
(g4
g5
(dp2035
g1998
S'2005.1'
p2036
sg2000
S'10'
p2037
sg209
S'Removed in 2006.2'
p2038
sg21
S'Build lazy-copy index (db.archive)'
p2039
stRp2040
ag3
(g4
g5
(dp2041
g1998
S'2005.2'
p2042
sg2000
S'11'
p2043
sg21
S'Build db.revdx (delrev) table'
p2044
stRp2045
ag3
(g4
g5
(dp2046
g1998
S'2005.2'
p2047
sg2000
S'12'
p2048
sg209
S'Moved to 16 in 2007.3'
p2049
sg21
S'Build haveMap from db.have/db.working'
p2050
stRp2051
ag3
(g4
g5
(dp2052
g1998
S'2005.2'
p2053
sg2000
S'13'
p2054
sg21
S'Move spec depot entries into db.revsx'
p2055
stRp2056
ag3
(g4
g5
(dp2057
g1998
S'2006.2'
p2058
sg2000
S'14'
p2059
sg209
S'Moved to 17 in 2007.3'
p2060
sg21
S'Build db.archmap (lazy-copy map) table'
p2061
stRp2062
ag3
(g4
g5
(dp2063
g1998
S'2006.2'
p2064
sg2000
S'15'
p2065
sg209
S'Moved to 18 in 2007.3'
p2066
sg21
S'Remove (obsolete) db.archive table'
p2067
stRp2068
ag3
(g4
g5
(dp2069
g1998
S'2007.3'
p2070
sg2000
S'16'
p2071
sg209
S'Rewritten in 2007.3'
p2072
sg21
S'Build/Rebuild haveMap from db.have/db.working'
p2073
stRp2074
ag3
(g4
g5
(dp2075
g1998
S'2007.3'
p2076
sg2000
S'17'
p2077
sg209
S'Rewritten in 2007.3'
p2078
sg21
S'Build/Rebuild db.archmap (lazy-copy map) table'
p2079
stRp2080
ag3
(g4
g5
(dp2081
g1998
S'2007.3'
p2082
sg2000
S'18'
p2083
sg209
S'Moved from 15 in 2007.3'
p2084
sg21
S'Remove (obsolete) db.archive table'
p2085
stRp2086
ag3
(g4
g5
(dp2087
g1998
S'2008.1'
p2088
sg2000
S'19'
p2089
sg21
S'Build db.change common path'
p2090
stRp2091
ag3
(g4
g5
(dp2092
g1998
S'2009.2'
p2093
sg2000
S'20'
p2094
sg21
S'Move db.boddate/db.ixdate into db.bodtext/db.ixtext'
p2095
stRp2096
ag3
(g4
g5
(dp2097
g1998
S'2009.2'
p2098
sg2000
S'21'
p2099
sg21
S'Remove db.boddate/db.ixdate'
p2100
stRp2101
ag3
(g4
g5
(dp2102
g1998
S'2010.2'
p2103
sg2000
S'22'
p2104
sg21
S'Add db.config'
p2105
stRp2106
ag3
(g4
g5
(dp2107
g1998
S'2011.1'
p2108
sg2000
S'23'
p2109
sg21
S'Upgrade tiny.db'
p2110
stRp2111
atRp2112
stRp2113
sS'datatypes'
p2114
g3
(g4
g5
(dp2115
S'datatype'
p2116
g3
(g8
g9
(lp2117
g3
(g4
g5
(dp2118
g19
S'flag'
p2119
sS'summary'
p2120
S'Type of action'
p2121
sS'values'
p2122
g3
(g8
g9
(lp2123
g3
(g4
g5
(dp2124
S'value'
p2125
S'0'
sg21
S'add; user adds a file'
p2126
stRp2127
ag3
(g4
g5
(dp2128
g2125
S'1'
sg21
S'edit; user edits a file'
p2129
stRp2130
ag3
(g4
g5
(dp2131
g2125
S'2'
sg21
S'delete; user deletes a file'
p2132
stRp2133
ag3
(g4
g5
(dp2134
g2125
S'3'
sg21
S'branch; add via integration'
p2135
stRp2136
ag3
(g4
g5
(dp2137
g2125
S'4'
sg21
S'integ; edit via integration'
p2138
stRp2139
ag3
(g4
g5
(dp2140
g2125
S'5'
sg21
S'import; add via remote depot'
p2141
stRp2142
ag3
(g4
g5
(dp2143
g2125
S'6'
sg21
S'purge; purged revision, no longer available'
p2144
stRp2145
ag3
(g4
g5
(dp2146
g2125
S'7'
sg21
S'movefrom; move from another filename'
p2147
stRp2148
ag3
(g4
g5
(dp2149
g2125
S'8'
sg21
S'moveto; move to another filename'
p2150
stRp2151
ag3
(g4
g5
(dp2152
g2125
S'9'
sg21
S'archive; stored in archive depot'
p2153
stRp2154
atRp2155
sg17
S'Action'
p2156
sg21
S'Revisions are produced by user actions. The Action\n\t\ttype defines the available actions and their internal values.'
p2157
stRp2158
ag3
(g4
g5
(dp2159
g2120
S'A changelist number'
p2160
sg19
S'integer'
p2161
sg17
S'Change'
p2162
sg21
S'The number of a changelist. The number 0 represents the\n\t\tdefault pending changelist.'
p2163
stRp2164
ag3
(g4
g5
(dp2165
g19
S'flag'
p2166
sg2120
S'The status of a change'
p2167
sg2122
g3
(g8
g9
(lp2168
g3
(g4
g5
(dp2169
g2125
S'0'
sg21
S'pending'
p2170
stRp2171
ag3
(g4
g5
(dp2172
g2125
S'1'
sg21
S'committed'
p2173
stRp2174
ag3
(g4
g5
(dp2175
g2125
S'2'
sg21
S'shelved'
p2176
stRp2177
ag3
(g4
g5
(dp2178
g2125
S'4'
sg21
S'restricted, pending'
p2179
stRp2180
ag3
(g4
g5
(dp2181
g2125
S'5'
sg21
S'restricted, committed'
p2182
stRp2183
ag3
(g4
g5
(dp2184
g2125
S'6'
sg21
S'restricted, shelved'
p2185
stRp2186
ag3
(g4
g5
(dp2187
g2125
S'8'
sg21
S'hidden'
p2188
stRp2189
ag3
(g4
g5
(dp2190
g2125
S'10'
p2191
sg21
S'shelved + hidden'
p2192
stRp2193
ag3
(g4
g5
(dp2194
g2125
S'14'
p2195
sg21
S'restricted + shelved + hidden'
p2196
stRp2197
atRp2198
sg17
S'ChangeStatus'
p2199
sg21
S'A integer value representing the status of a change'
p2200
stRp2201
ag3
(g4
g5
(dp2202
g2120
S'A counter name'
p2203
sg19
S'string'
p2204
sg17
S'Counter'
p2205
sg21
S'A string representing the counter name. Counter names must \n\t\tcontain no spaces, contain no slashes, and be identifiers \n\t\t(cannot begin with a dash and cannot be all-numeric)'
p2206
stRp2207
ag3
(g4
g5
(dp2208
g2120
S'A unix-style date and time'
p2209
sg19
S'integer'
p2210
sg17
S'Date'
p2211
sg21
S'A date and time represented as the number of seconds since \n\t\tthe Epoch: 01 January 1970 00:00:00 UTC. This is the same \n\t\tconvention as that used on Unix platforms.'
p2212
stRp2213
ag3
(g4
g5
(dp2214
g19
S'flag'
p2215
sg2120
S'Type of Depot'
p2216
sg2122
g3
(g8
g9
(lp2217
g3
(g4
g5
(dp2218
g2125
S'0'
sg21
S'local depot'
p2219
stRp2220
ag3
(g4
g5
(dp2221
g2125
S'1'
sg21
S'remote depot'
p2222
stRp2223
ag3
(g4
g5
(dp2224
g2125
S'2'
sg21
S'spec depot'
p2225
stRp2226
ag3
(g4
g5
(dp2227
g2125
S'3'
sg21
S'stream depot'
p2228
stRp2229
ag3
(g4
g5
(dp2230
g2125
S'4'
sg21
S'archive depot'
p2231
stRp2232
ag3
(g4
g5
(dp2233
g2125
S'5'
sg21
S'unload depot'
p2234
stRp2235
atRp2236
sg17
S'DepotType'
p2237
sg21
S'The type of a given depot'
p2238
stRp2239
ag3
(g4
g5
(dp2240
g2120
S'A short string value'
p2241
sg21
S'The first 31 characters of a Text string'
p2242
sg19
S'string'
p2243
sg17
S'DescShort'
p2244
sg133
S'Text'
p2245
stRp2246
ag3
(g4
g5
(dp2247
g2120
S'An MD5 digest'
p2248
sg19
S'string'
p2249
sg17
S'Digest'
p2250
sg21
S'A string containing an MD5 digest.'
p2251
stRp2252
ag3
(g4
g5
(dp2253
g2120
S'A domain name'
p2254
sg19
S'string'
p2255
sg17
S'Domain'
p2256
sg21
S'A string representing the name of a depot, label, client,\n\t\tbranch, typemap, or stream.'
p2257
stRp2258
ag3
(g4
g5
(dp2259
g2120
S'A string with optional wildcards'
p2260
sg19
S'string'
p2261
sg17
S'DomainWild'
p2262
sg21
S'A string that may contain wildcards - usually an IP address\n\t\tin the protections table.'
p2263
stRp2264
ag3
(g4
g5
(dp2265
g2122
g3
(g8
g9
(lp2266
g3
(g4
g5
(dp2267
S'mask'
p2268
S'Domain Flags'
p2269
sg2125
S'0x0001'
p2270
sg21
S'modtime'
p2271
stRp2272
ag3
(g4
g5
(dp2273
g2268
S'Domain Flags'
p2274
sg2125
S'0x0002'
p2275
sg21
S'clobber'
p2276
stRp2277
ag3
(g4
g5
(dp2278
g2268
S'Domain Flags'
p2279
sg2125
S'0x0004'
p2280
sg21
S'allwrite'
p2281
stRp2282
ag3
(g4
g5
(dp2283
g2268
S'Domain Flags'
p2284
sg2125
S'0x0008'
p2285
sg21
S'locked'
p2286
stRp2287
ag3
(g4
g5
(dp2288
g2268
S'Domain Flags'
p2289
sg2125
S'0x0020'
p2290
sg21
S'compress'
p2291
stRp2292
ag3
(g4
g5
(dp2293
g2268
S'Domain Flags'
p2294
sg2125
S'0x0040'
p2295
sg21
S'rmdir'
p2296
stRp2297
ag3
(g4
g5
(dp2298
g2268
S'Domain Flags'
p2299
sg2125
S'0x1000'
p2300
sg21
S'indirect (obsolete since 2004.2)'
p2301
stRp2302
ag3
(g4
g5
(dp2303
g2268
S'Domain Flags'
p2304
sg2125
S'0x8000'
p2305
sg21
S'autoreload'
p2306
stRp2307
ag3
(g4
g5
(dp2308
g2268
S'Domain LineEnd'
p2309
sg2125
S'0x0000'
p2310
sg21
S'local'
p2311
stRp2312
ag3
(g4
g5
(dp2313
g2268
S'Domain LineEnd'
p2314
sg2125
S'0x0010'
p2315
sg21
S'unix (LF)'
p2316
stRp2317
ag3
(g4
g5
(dp2318
g2268
S'Domain LineEnd'
p2319
sg2125
S'0x0200'
p2320
sg21
S'mac (CR)'
p2321
stRp2322
ag3
(g4
g5
(dp2323
g2268
S'Domain LineEnd'
p2324
sg2125
S'0x0300'
p2325
sg21
S'win (CRLF)'
p2326
stRp2327
ag3
(g4
g5
(dp2328
g2268
S'Domain LineEnd'
p2329
sg2125
S'0x0400'
p2330
sg21
S'share (LF/CRLF)'
p2331
stRp2332
ag3
(g4
g5
(dp2333
g2268
S'Domain SubmitMask'
p2334
sg2125
S'0x1000'
p2335
sg21
S'Revert unchanged files'
p2336
stRp2337
ag3
(g4
g5
(dp2338
g2268
S'Domain SubmitMask'
p2339
sg2125
S'0x2000'
p2340
sg21
S'Leave unchanged files'
p2341
stRp2342
ag3
(g4
g5
(dp2343
g2268
S'Domain SubmitMask'
p2344
sg2125
S'0x4000'
p2345
sg21
S'Submit, and re-open unchanged files'
p2346
stRp2347
ag3
(g4
g5
(dp2348
g2268
S'Domain StreamMask'
p2349
sg2125
S'0x0001'
p2350
sg21
S'ownersubmit'
p2351
stRp2352
ag3
(g4
g5
(dp2353
g2268
S'Domain StreamMask'
p2354
sg2125
S'0x0002'
p2355
sg21
S'locked'
p2356
stRp2357
ag3
(g4
g5
(dp2358
g2268
S'Domain StreamMask'
p2359
sg2125
S'0x0004'
p2360
sg21
S'change flows to parent'
p2361
stRp2362
ag3
(g4
g5
(dp2363
g2268
S'Domain StreamMask'
p2364
sg2125
S'0x0008'
p2365
sg21
S'change flows from parent'
p2366
stRp2367
atRp2368
sg17
S'DomainOpts'
p2369
sg2268
g3
(g8
g9
(lp2370
g3
(g4
g5
(dp2371
g17
S'Domain Flags'
p2372
sg2125
S'0x10EF'
p2373
sg21
S'Bits used to store client, label, and branch options'
p2374
stRp2375
ag3
(g4
g5
(dp2376
g17
S'Domain LineEnd'
p2377
sg2125
S'0x0710'
p2378
sg21
S'Bits used to store client line termination settings.'
p2379
stRp2380
ag3
(g4
g5
(dp2381
g17
S'Domain SubmitMask'
p2382
sg2125
S'0x7000'
p2383
sg21
S'Bits used to store client submit options'
p2384
stRp2385
ag3
(g4
g5
(dp2386
g17
S'Domain StreamMask'
p2387
sg2125
S'0x000F'
p2388
sg21
S'Bits used to store stream options'
p2389
stRp2390
atRp2391
sg2120
S'Options for domains'
p2392
sg19
S'bitmask'
p2393
sg21
S'A integer value representing the options for a domain'
p2394
stRp2395
ag3
(g4
g5
(dp2396
g19
S'flag'
p2397
sg2120
S'A domain type'
p2398
sg2122
g3
(g8
g9
(lp2399
g3
(g4
g5
(dp2400
g2125
S"67 (ASCII 'C')"
p2401
sg21
S'unloaded client'
p2402
stRp2403
ag3
(g4
g5
(dp2404
g2125
S"76 (ASCII 'L')"
p2405
sg21
S'unloaded label'
p2406
stRp2407
ag3
(g4
g5
(dp2408
g2125
S"83 (ASCII 'S')"
p2409
sg21
S'unloaded task stream'
p2410
stRp2411
ag3
(g4
g5
(dp2412
g2125
S"98 (ASCII 'b')"
p2413
sg21
S'branch'
p2414
stRp2415
ag3
(g4
g5
(dp2416
g2125
S"99 (ASCII 'c')"
p2417
sg21
S'client'
p2418
stRp2419
ag3
(g4
g5
(dp2420
g2125
S"100 (ASCII 'd')"
p2421
sg21
S'depot'
p2422
stRp2423
ag3
(g4
g5
(dp2424
g2125
S"108 (ASCII 'l')"
p2425
sg21
S'label'
p2426
stRp2427
ag3
(g4
g5
(dp2428
g2125
S"115 (ASCII 's')"
p2429
sg21
S'stream'
p2430
stRp2431
ag3
(g4
g5
(dp2432
g2125
S"116 (ASCII 't')"
p2433
sg21
S'typemap'
p2434
stRp2435
atRp2436
sg17
S'DomainType'
p2437
sg21
S'A integer value representing the type of a domain'
p2438
stRp2439
ag3
(g4
g5
(dp2440
g2120
S'A file name'
p2441
sg21
S'A string representing the filename'
p2442
sg19
S'string'
p2443
sg17
S'File'
p2444
sg133
S'FileType'
p2445
stRp2446
ag3
(g4
g5
(dp2447
g2120
S'A file size'
p2448
sg19
S'integer'
p2449
sg17
S'FileSize'
p2450
sg21
S'A 64-bit integer used to store file sizes. The value -1 is\n\t\tused to represent unknown filesizes.'
p2451
stRp2452
ag3
(g4
g5
(dp2453
g2122
g3
(g8
g9
(lp2454
g3
(g4
g5
(dp2455
g2268
S'Storage Type'
p2456
sg2125
S'0x0000'
p2457
sg21
S'RCS'
p2458
stRp2459
ag3
(g4
g5
(dp2460
g2268
S'Storage Type'
p2461
sg2125
S'0x0001'
p2462
sg21
S'Binary'
p2463
stRp2464
ag3
(g4
g5
(dp2465
g2268
S'Storage Type'
p2466
sg2125
S'0x0002'
p2467
sg21
S'Tiny'
p2468
stRp2469
ag3
(g4
g5
(dp2470
g2268
S'Storage Type'
p2471
sg2125
S'0x0003'
p2472
sg21
S'Compressed'
p2473
stRp2474
ag3
(g4
g5
(dp2475
g2268
S'Storage Type'
p2476
sg2125
S'0x0004'
p2477
sg21
S'tempobj (deprecated since 2002.1)'
p2478
stRp2479
ag3
(g4
g5
(dp2480
g2268
S'Storage Type'
p2481
sg2125
S'0x0005'
p2482
sg21
S'Detect type. Used internally when no type is\n\t\t    given by the user.'
p2483
stRp2484
ag3
(g4
g5
(dp2485
g2268
S'Storage Type'
p2486
sg2125
S'0x0006'
p2487
sg21
S'Comressed tempobj (deprecated since 2002.1)'
p2488
stRp2489
ag3
(g4
g5
(dp2490
g2268
S'Storage Type'
p2491
sg2125
S'0x0007'
p2492
sg21
S'Binary access to compressed data. Used internally.'
p2493
stRp2494
ag3
(g4
g5
(dp2495
g2268
S'Storage Type'
p2496
sg2125
S'0x0008'
p2497
sg21
S'Stored externally via librarian trigger'
p2498
stRp2499
ag3
(g4
g5
(dp2500
g2268
S'Storage Mods'
p2501
sg2125
S'0x0010'
p2502
sg21
S'99.2-style keyword expansion/contraction'
p2503
stRp2504
ag3
(g4
g5
(dp2505
g2268
S'Storage Mods'
p2506
sg2125
S'0x0020'
p2507
sg21
S'2000.1-style keyword expansion/contraction'
p2508
stRp2509
ag3
(g4
g5
(dp2510
g2268
S'Storage Mods'
p2511
sg2125
S'0x0030'
p2512
sg21
S'Any type of keyword expansion'
p2513
stRp2514
ag3
(g4
g5
(dp2515
g2268
S'Storage Mods'
p2516
sg2125
S'0x0040'
p2517
sg21
S'Exclusive open'
p2518
stRp2519
ag3
(g4
g5
(dp2520
g2268
S'Storage Mods'
p2521
sg2125
S'0x0080'
p2522
sg21
S'New tempobj (+S modifier)'
p2523
stRp2524
ag3
(g4
g5
(dp2525
g2268
S'Tempobj revisions'
p2526
sg2125
S'0x0000'
p2527
sg21
S'+S1'
p2528
stRp2529
ag3
(g4
g5
(dp2530
g2268
S'Tempobj revisions'
p2531
sg2125
S'0x0100'
p2532
sg21
S'+S2'
p2533
stRp2534
ag3
(g4
g5
(dp2535
g2268
S'Tempobj revisions'
p2536
sg2125
S'0x0200'
p2537
sg21
S'+S3'
p2538
stRp2539
ag3
(g4
g5
(dp2540
g2268
S'Tempobj revisions'
p2541
sg2125
S'0x0300'
p2542
sg21
S'+S4'
p2543
stRp2544
ag3
(g4
g5
(dp2545
g2268
S'Tempobj revisions'
p2546
sg2125
S'0x0400'
p2547
sg21
S'+S5'
p2548
stRp2549
ag3
(g4
g5
(dp2550
g2268
S'Tempobj revisions'
p2551
sg2125
S'0x0500'
p2552
sg21
S'+S6'
p2553
stRp2554
ag3
(g4
g5
(dp2555
g2268
S'Tempobj revisions'
p2556
sg2125
S'0x0600'
p2557
sg21
S'+S7'
p2558
stRp2559
ag3
(g4
g5
(dp2560
g2268
S'Tempobj revisions'
p2561
sg2125
S'0x0700'
p2562
sg21
S'+S8'
p2563
stRp2564
ag3
(g4
g5
(dp2565
g2268
S'Tempobj revisions'
p2566
sg2125
S'0x0800'
p2567
sg21
S'+S9'
p2568
stRp2569
ag3
(g4
g5
(dp2570
g2268
S'Tempobj revisions'
p2571
sg2125
S'0x0900'
p2572
sg21
S'+S10'
p2573
stRp2574
ag3
(g4
g5
(dp2575
g2268
S'Tempobj revisions'
p2576
sg2125
S'0x0A00'
p2577
sg21
S'+S16'
p2578
stRp2579
ag3
(g4
g5
(dp2580
g2268
S'Tempobj revisions'
p2581
sg2125
S'0x0B00'
p2582
sg21
S'+S32'
p2583
stRp2584
ag3
(g4
g5
(dp2585
g2268
S'Tempobj revisions'
p2586
sg2125
S'0x0C00'
p2587
sg21
S'+S64'
p2588
stRp2589
ag3
(g4
g5
(dp2590
g2268
S'Tempobj revisions'
p2591
sg2125
S'0x0D00'
p2592
sg21
S'+S128'
p2593
stRp2594
ag3
(g4
g5
(dp2595
g2268
S'Tempobj revisions'
p2596
sg2125
S'0x0E00'
p2597
sg21
S'+S256'
p2598
stRp2599
ag3
(g4
g5
(dp2600
g2268
S'Tempobj revisions'
p2601
sg2125
S'0x0F00'
p2602
sg21
S'+S512'
p2603
stRp2604
ag3
(g4
g5
(dp2605
g2268
S'Client Type'
p2606
sg2125
S'0x0000000'
p2607
sg21
S'text'
p2608
stRp2609
ag3
(g4
g5
(dp2610
g2268
S'Client Type'
p2611
sg2125
S'0x0010000'
p2612
sg21
S'binary'
p2613
stRp2614
ag3
(g4
g5
(dp2615
g2268
S'Client Type'
p2616
sg2125
S'0x0020000'
p2617
sg21
S'executable bit set'
p2618
stRp2619
ag3
(g4
g5
(dp2620
g2268
S'Client Type'
p2621
sg2125
S'0x0040000'
p2622
sg21
S'symlink'
p2623
stRp2624
ag3
(g4
g5
(dp2625
g2268
S'Client Type'
p2626
sg2125
S'0x0050000'
p2627
sg21
S'resource fork'
p2628
stRp2629
ag3
(g4
g5
(dp2630
g2268
S'Client Type'
p2631
sg2125
S'0x0080000'
p2632
sg21
S'unicode'
p2633
stRp2634
ag3
(g4
g5
(dp2635
g2268
S'Client Type'
p2636
sg2125
S'0x0090000'
p2637
sg21
S'raw text (nocrlf - 99.1)'
p2638
stRp2639
ag3
(g4
g5
(dp2640
g2268
S'Client Type'
p2641
sg2125
S'0x00C0000'
p2642
sg21
S'apple data + resource file (since 2000.2)'
p2643
stRp2644
ag3
(g4
g5
(dp2645
g2268
S'Client Type'
p2646
sg2125
S'0x00D0000'
p2647
sg21
S'apple data + resource file (99.2)'
p2648
stRp2649
ag3
(g4
g5
(dp2650
g2268
S'Client Type'
p2651
sg2125
S'0x1000000'
p2652
sg21
S'Used to support filetype detection'
p2653
stRp2654
ag3
(g4
g5
(dp2655
g2268
S'Client Mods'
p2656
sg2125
S'0x0100000'
p2657
sg21
S'writable'
p2658
stRp2659
ag3
(g4
g5
(dp2660
g2268
S'Client Mods'
p2661
sg2125
S'0x0200000'
p2662
sg21
S'modtime'
p2663
stRp2664
ag3
(g4
g5
(dp2665
g2268
S'Client Mods'
p2666
sg2125
S'0x0400000'
p2667
sg21
S'uncompress on client'
p2668
stRp2669
atRp2670
sg17
S'FileType'
p2671
sg2268
g3
(g8
g9
(lp2672
g3
(g4
g5
(dp2673
g17
S'Storage Type'
p2674
sg2125
S'0x000F'
p2675
sg21
S"Bits used to store the server's storage type"
p2676
stRp2677
ag3
(g4
g5
(dp2678
g17
S'Storage Mods'
p2679
sg2125
S'0x00F0'
p2680
sg21
S"Bits used to store the modifiers to the server's storage \n\t\t    type"
p2681
stRp2682
ag3
(g4
g5
(dp2683
g17
S'Tempobj revisions'
p2684
sg2125
S'0x0F00'
p2685
sg21
S'Bits used to store the number of revisions to be stored\n\t\t    for +Sn files.'
p2686
stRp2687
ag3
(g4
g5
(dp2688
g17
S'Client Type'
p2689
sg2125
S'0x10D0000'
p2690
sg21
S"Bits used to store the file type from the client's point\n\t\t    of view."
p2691
stRp2692
ag3
(g4
g5
(dp2693
g17
S'Client Mods'
p2694
sg2125
S'0x720000'
p2695
sg21
S'Bits used to store the modifiers applied to the file\n\t\t    on the client.'
p2696
stRp2697
atRp2698
sg2120
S'Type of file'
p2699
sg19
S'bitmask'
p2700
sg21
S'The FileType is a bitmask specifying the type and modifiers\n\t\tof a revision from both the client and server points of view.\n\t\tThe first 16 bits are used to store the storage type and \n\t\tmodifiers, the next 16 bits are used to store the client \n\t\taccess method and modifiers.'
p2701
stRp2702
ag3
(g4
g5
(dp2703
g2120
S'Status of a fixed job'
p2704
sg19
S'string'
p2705
sg17
S'FixStatus'
p2706
sg21
S'This type is a wrapper around the \'Text\' type that handles\n\t\tthe pre-2000.1 "closed" default value.'
p2707
stRp2708
ag3
(g4
g5
(dp2709
g2120
S'A 32-bit integer'
p2710
sg19
S'integer'
p2711
sg17
S'Int'
p2712
sg21
S'A 32-bit integer'
p2713
stRp2714
ag3
(g4
g5
(dp2715
g2120
S'An 8-bit integer'
p2716
sg19
S'integer'
p2717
sg17
S'Int8'
p2718
sg21
S'An 8-bit integer: an unsigned char'
p2719
stRp2720
ag3
(g4
g5
(dp2721
g2120
S'A 64-bit integer'
p2722
sg19
S'integer'
p2723
sg17
S'Int64'
p2724
sg21
S'A 64-bit integer.'
p2725
stRp2726
ag3
(g4
g5
(dp2727
g209
S'All integration records should have a corresponding \n\t\treverse record. The \'branch from\' (2) and \'merge from\' (0) \n\t\trecords have corresponding "dirty" reverse records for cases \n\t\twhere the target file took more than one change or was \n\t\t(re)opened for \'edit\' or \'add\'.'
p2728
sg2122
g3
(g8
g9
(lp2729
g3
(g4
g5
(dp2730
g2125
S'0'
sg21
S'merge from: integration with other changes'
p2731
stRp2732
ag3
(g4
g5
(dp2733
g2125
S'1'
sg21
S'merge into: reverse merge'
p2734
stRp2735
ag3
(g4
g5
(dp2736
g2125
S'2'
sg21
S'branch from: integration was branch of file'
p2737
stRp2738
ag3
(g4
g5
(dp2739
g2125
S'3'
sg21
S'branch into: reverse branch'
p2740
stRp2741
ag3
(g4
g5
(dp2742
g2125
S'4'
sg21
S'copy from: integration took source file whole'
p2743
stRp2744
ag3
(g4
g5
(dp2745
g2125
S'5'
sg21
S'copy into: reverse take'
p2746
stRp2747
ag3
(g4
g5
(dp2748
g2125
S'6'
sg21
S'ignored: integration ignored source changes'
p2749
stRp2750
ag3
(g4
g5
(dp2751
g2125
S'7'
sg21
S'ignored by: reverse copy'
p2752
stRp2753
ag3
(g4
g5
(dp2754
g2125
S'8'
sg21
S'delete from: integration of delete'
p2755
stRp2756
ag3
(g4
g5
(dp2757
g2125
S'9'
sg21
S'delete into: reverse delete'
p2758
stRp2759
ag3
(g4
g5
(dp2760
g2125
S'10'
p2761
sg21
S'edit into: reverse of integration downgraded to \n\t\t    edit'
p2762
stRp2763
ag3
(g4
g5
(dp2764
g2125
S'11'
p2765
sg21
S'add into: reverse of branch downgraded to add'
p2766
stRp2767
ag3
(g4
g5
(dp2768
g2125
S'12'
p2769
sg21
S'edit from: merge that the user edited'
p2770
stRp2771
ag3
(g4
g5
(dp2772
g2125
S'13'
p2773
sg21
S'add from: branch downgraded to add'
p2774
stRp2775
ag3
(g4
g5
(dp2776
g2125
S'14'
p2777
sg21
S'moved from: reverse of renamed file'
p2778
stRp2779
ag3
(g4
g5
(dp2780
g2125
S'15'
p2781
sg21
S'moved into: file was renamed'
p2782
stRp2783
ag3
(g4
g5
(dp2784
g2125
S'16'
p2785
sg21
S"'delete' target rev ignoring non-deleted source"
p2786
stRp2787
ag3
(g4
g5
(dp2788
g2125
S'17'
p2789
sg21
S"non-deleted source ignored by 'delete' target rev"
p2790
stRp2791
ag3
(g4
g5
(dp2792
g2125
S'18'
p2793
sg21
S"'integrate' target rev ignoring deleted source"
p2794
stRp2795
ag3
(g4
g5
(dp2796
g2125
S'19'
p2797
sg21
S"deleted source ignored by 'integrate' target rev"
p2798
stRp2799
atRp2800
sg17
S'IntegHow'
p2801
sg2120
S'Integration methods'
p2802
sg19
S'flag'
p2803
sg21
S"Specifies how an integration was performed. Integrations\n\t\talways come in pairs: the 'forward' and 'reverse' records.\n\t\tAs a general rule, the forward records contain the word \n\t\t'from'; and the reverse records contain the word 'into'."
p2804
stRp2805
ag3
(g4
g5
(dp2806
g19
S'flag'
p2807
sg2120
S'Job status - defunct'
p2808
sg2122
g3
(g8
g9
(lp2809
g3
(g4
g5
(dp2810
g2125
S'0'
sg21
S'open'
p2811
stRp2812
ag3
(g4
g5
(dp2813
g2125
S'1'
sg21
S'closed'
p2814
stRp2815
ag3
(g4
g5
(dp2816
g2125
S'2'
sg21
S'suspended'
p2817
stRp2818
atRp2819
sg17
S'JobStat'
p2820
sg21
S'Old (pre-98.2) job status values.'
p2821
stRp2822
ag3
(g4
g5
(dp2823
g2120
S'A key name'
p2824
sg19
S'string'
p2825
sg17
S'Key'
p2826
sg21
S'A string representing the key name. Key names must \n\t\tcontain no spaces, contain no slashes, and be identifiers \n\t\t(cannot begin with a dash and cannot be all-numeric)'
p2827
stRp2828
ag3
(g4
g5
(dp2829
g19
S'flag'
p2830
sg2120
S'Types of mapping'
p2831
sg2122
g3
(g8
g9
(lp2832
g3
(g4
g5
(dp2833
g2125
S'0'
sg21
S'mapped-in (the default)'
p2834
stRp2835
ag3
(g4
g5
(dp2836
g2125
S'1'
sg21
S"mapped-out (mappings that start with '-')"
p2837
stRp2838
ag3
(g4
g5
(dp2839
g2125
S'2'
sg21
S"overlay (mappings that start with '+')"
p2840
stRp2841
ag3
(g4
g5
(dp2842
g2125
S'3'
sg21
S"haveMap (mappings that start with '$'). Used internally\n\t\t    only"
p2843
stRp2844
atRp2845
sg17
S'MapFlag'
p2846
sg21
S'Specifies how the files specified by a mapping should be\n\t\ttreated'
p2847
stRp2848
ag3
(g4
g5
(dp2849
g2120
S'A string representing a mapping'
p2850
sg19
S'string'
p2851
sg17
S'Mapping'
p2852
sg21
S'A Mapping is essentially a file name that may contain\n\t\twildcards'
p2853
stRp2854
ag3
(g4
g5
(dp2855
g2120
S'Maximum number of milliseconds to hold locks'
p2856
sg19
S'integer'
p2857
sg17
S'MaxLockTime'
p2858
sg21
S"The number of milliseconds for which a command may hold locks.\n\t\tCommands that take longer than this time period will abort. \n\t\tThe value 0 means 'unlimited'."
p2859
stRp2860
ag3
(g4
g5
(dp2861
g2120
S'Maximum number of results permitted'
p2862
sg19
S'integer'
p2863
sg17
S'MaxResults'
p2864
sg21
S"The number of results that commands run by the restricted\n\t\tuser are permitted to return. The value 0 means 'unlimited'."
p2865
stRp2866
ag3
(g4
g5
(dp2867
g2120
S'Maximum number of records scanned'
p2868
sg19
S'integer'
p2869
sg17
S'MaxScanRows'
p2870
sg21
S"The maximum number of records that the server may read\n\t\ton behalf of the restricted user. The value 0 means \n\t\t'unlimited'."
p2871
stRp2872
ag3
(g4
g5
(dp2873
g2120
S'Encoded hex string'
p2874
sg19
S'string'
p2875
sg17
S'Octet String'
p2876
sg21
S'A variable length encoded hex string. The first octet \n\t\tstores the length of the string.'
p2877
stRp2878
ag3
(g4
g5
(dp2879
g2120
S'The MD5 hash of a password'
p2880
sg19
S'string'
p2881
sg17
S'Password'
p2882
sg21
S'The MD5 hash of an encrypted password.'
p2883
stRp2884
ag3
(g4
g5
(dp2885
g2122
g3
(g8
g9
(lp2886
g3
(g4
g5
(dp2887
g2268
S'PermTypeBits'
p2888
sg17
S'None'
p2889
sg2125
S'0x0000'
p2890
sg21
S'flag value'
p2891
stRp2892
ag3
(g4
g5
(dp2893
g2268
S'PermTypeBits'
p2894
sg17
S'List'
p2895
sg2125
S'0x0001'
p2896
sg21
S'Grants list access'
p2897
stRp2898
ag3
(g4
g5
(dp2899
g2268
S'PermTypeBits'
p2900
sg17
S'Read'
p2901
sg2125
S'0x0002'
p2902
sg21
S'Grants read access'
p2903
stRp2904
ag3
(g4
g5
(dp2905
g2268
S'PermTypeBits'
p2906
sg17
S'Branch'
p2907
sg2125
S'0x0004'
p2908
sg21
S'Grants ability to branch/integ from'
p2909
stRp2910
ag3
(g4
g5
(dp2911
g2268
S'PermTypeBits'
p2912
sg17
S'Open'
p2913
sg2125
S'0x0008'
p2914
sg21
S'Grants open access'
p2915
stRp2916
ag3
(g4
g5
(dp2917
g2268
S'PermTypeBits'
p2918
sg17
S'Write'
p2919
sg2125
S'0x0010'
p2920
sg21
S'Grants write access'
p2921
stRp2922
ag3
(g4
g5
(dp2923
g2268
S'PermTypeBits'
p2924
sg17
S'Review'
p2925
sg2125
S'0x0020'
p2926
sg21
S'Grants review access'
p2927
stRp2928
ag3
(g4
g5
(dp2929
g2268
S'PermTypeBits'
p2930
sg17
S'Admin'
p2931
sg2125
S'0x0080'
p2932
sg21
S'Grants admin access'
p2933
stRp2934
ag3
(g4
g5
(dp2935
g2268
S'PermTypeBits'
p2936
sg17
S'Super'
p2937
sg2125
S'0x0040'
p2938
sg21
S'Grants super-user access'
p2939
stRp2940
atRp2941
sg17
S'Perm'
p2942
sg2268
g3
(g4
g5
(dp2943
g17
S'PermTypeBits'
p2944
sg2125
S'0x00FF'
p2945
sg21
S'Bits used to store granted permissions'
p2946
stRp2947
sg2120
S'Bitmask of permissions'
p2948
sg19
S'bitmask'
p2949
sg21
S'A bitmask of granted permissions'
p2950
stRp2951
ag3
(g4
g5
(dp2952
g19
S'flag'
p2953
sg2120
S'Archive pull transfer status'
p2954
sg2122
g3
(g8
g9
(lp2955
g3
(g4
g5
(dp2956
g17
S'new'
p2957
sg2125
S'new'
p2958
sg21
S'new transfer'
p2959
stRp2960
ag3
(g4
g5
(dp2961
g17
S'active'
p2962
sg2125
S'active'
p2963
sg21
S'active transfer'
p2964
stRp2965
ag3
(g4
g5
(dp2966
g17
S'done'
p2967
sg2125
S'done'
p2968
sg21
S'completed transfer'
p2969
stRp2970
ag3
(g4
g5
(dp2971
g17
S'error'
p2972
sg2125
S'error'
p2973
sg21
S'errored transfer'
p2974
stRp2975
ag3
(g4
g5
(dp2976
g17
S'restart'
p2977
sg2125
S'restart'
p2978
sg21
S'restarted transfer'
p2979
stRp2980
atRp2981
sg17
S'PullStatus'
p2982
sg21
S'The status of an archive pull transfer'
p2983
stRp2984
ag3
(g4
g5
(dp2985
g19
S'flag'
p2986
sg2120
S'Resolve actions'
p2987
sg2122
g3
(g8
g9
(lp2988
g3
(g4
g5
(dp2989
g2125
S'0'
sg21
S'Content resolve'
p2990
stRp2991
ag3
(g4
g5
(dp2992
g2125
S'1'
sg21
S'Filetype resolve'
p2993
stRp2994
ag3
(g4
g5
(dp2995
g2125
S'2'
sg21
S'Branch resolve'
p2996
stRp2997
ag3
(g4
g5
(dp2998
g2125
S'3'
sg21
S'Delete resolve'
p2999
stRp3000
ag3
(g4
g5
(dp3001
g2125
S'4'
sg21
S'Move resolve'
p3002
stRp3003
ag3
(g4
g5
(dp3004
g2125
S'5'
sg21
S'Attribute resolve'
p3005
stRp3006
ag3
(g4
g5
(dp3007
g2125
S'6'
sg21
S'Charset resolve'
p3008
stRp3009
atRp3010
sg17
S'ResolveState'
p3011
sg21
S'Pending or completed resolve actions.'
p3012
stRp3013
ag3
(g4
g5
(dp3014
g19
S'flag'
p3015
sg2120
S'Resolve methods (obsolete in 2011.1, replaced by ResolveState)'
p3016
sg2122
g3
(g8
g9
(lp3017
g3
(g4
g5
(dp3018
g2125
S'0'
sg21
S'Not yet resolved'
p3019
stRp3020
ag3
(g4
g5
(dp3021
g2125
S'1'
sg21
S'Resolved manually'
p3022
stRp3023
ag3
(g4
g5
(dp3024
g2125
S'2'
sg21
S'Resolved automatically as part of a branch'
p3025
stRp3026
ag3
(g4
g5
(dp3027
g2125
S'3'
sg21
S'Resolved automatically as part of a delete'
p3028
stRp3029
ag3
(g4
g5
(dp3030
g2125
S'4'
sg21
S'Resolved automatically as part of a move'
p3031
stRp3032
atRp3033
sg17
S'ResolvedStatus'
p3034
sg21
S'Specifies how the user resolved merge operations.'
p3035
stRp3036
ag3
(g4
g5
(dp3037
g2120
S'A revision number'
p3038
sg19
S'integer'
p3039
sg17
S'Rev'
p3040
sg21
S"The positive integer number of a specific revision of a file. \n\t\tThe number 0 represents '#none'."
p3041
stRp3042
ag3
(g4
g5
(dp3043
g2122
g3
(g8
g9
(lp3044
g3
(g4
g5
(dp3045
g2268
S'RevStatusBits'
p3046
sg2125
S'0x0000'
p3047
sg21
S'single revision with content'
p3048
stRp3049
ag3
(g4
g5
(dp3050
g2268
S'RevStatusBits'
p3051
sg2125
S'0x0001'
p3052
sg21
S'single revision lazy copied'
p3053
stRp3054
ag3
(g4
g5
(dp3055
g2268
S'RevStatusBits'
p3056
sg2125
S'0x0002'
p3057
sg21
S'revision task sparse'
p3058
stRp3059
ag3
(g4
g5
(dp3060
g2268
S'RevStatusBits'
p3061
sg2125
S'0x0004'
p3062
sg21
S'revision task branch'
p3063
stRp3064
ag3
(g4
g5
(dp3065
g2268
S'RevCharsetBits'
p3066
sg2125
S'0'
sg21
S'NONE'
p3067
stRp3068
ag3
(g4
g5
(dp3069
g2268
S'RevCharsetBits'
p3070
sg2125
S'1'
sg21
S'UTF_8'
p3071
stRp3072
ag3
(g4
g5
(dp3073
g2268
S'RevCharsetBits'
p3074
sg2125
S'2'
sg21
S'ISO8859_1'
p3075
stRp3076
ag3
(g4
g5
(dp3077
g2268
S'RevCharsetBits'
p3078
sg2125
S'3'
sg21
S'UTF_16'
p3079
stRp3080
ag3
(g4
g5
(dp3081
g2268
S'RevCharsetBits'
p3082
sg2125
S'4'
sg21
S'SHIFTJIS'
p3083
stRp3084
ag3
(g4
g5
(dp3085
g2268
S'RevCharsetBits'
p3086
sg2125
S'5'
sg21
S'EUCJP'
p3087
stRp3088
ag3
(g4
g5
(dp3089
g2268
S'RevCharsetBits'
p3090
sg2125
S'6'
sg21
S'WIN_US_ANSI'
p3091
stRp3092
ag3
(g4
g5
(dp3093
g2268
S'RevCharsetBits'
p3094
sg2125
S'7'
sg21
S'WIN_US_OEM'
p3095
stRp3096
ag3
(g4
g5
(dp3097
g2268
S'RevCharsetBits'
p3098
sg2125
S'8'
sg21
S'MACOS_ROMAN'
p3099
stRp3100
ag3
(g4
g5
(dp3101
g2268
S'RevCharsetBits'
p3102
sg2125
S'9'
sg21
S'ISO8859_15'
p3103
stRp3104
ag3
(g4
g5
(dp3105
g2268
S'RevCharsetBits'
p3106
sg2125
S'10'
p3107
sg21
S'ISO8859_5'
p3108
stRp3109
ag3
(g4
g5
(dp3110
g2268
S'RevCharsetBits'
p3111
sg2125
S'11'
p3112
sg21
S'KOI8_R'
p3113
stRp3114
ag3
(g4
g5
(dp3115
g2268
S'RevCharsetBits'
p3116
sg2125
S'12'
p3117
sg21
S'WIN_CP_1251'
p3118
stRp3119
ag3
(g4
g5
(dp3120
g2268
S'RevCharsetBits'
p3121
sg2125
S'13'
p3122
sg21
S'UTF_16_LE'
p3123
stRp3124
ag3
(g4
g5
(dp3125
g2268
S'RevCharsetBits'
p3126
sg2125
S'14'
p3127
sg21
S'UTF_16_BE'
p3128
stRp3129
ag3
(g4
g5
(dp3130
g2268
S'RevCharsetBits'
p3131
sg2125
S'15'
p3132
sg21
S'UTF_16_LE_BOM'
p3133
stRp3134
ag3
(g4
g5
(dp3135
g2268
S'RevCharsetBits'
p3136
sg2125
S'16'
p3137
sg21
S'UTF_16_BE_BOM'
p3138
stRp3139
ag3
(g4
g5
(dp3140
g2268
S'RevCharsetBits'
p3141
sg2125
S'17'
p3142
sg21
S'UTF_16_BOM'
p3143
stRp3144
ag3
(g4
g5
(dp3145
g2268
S'RevCharsetBits'
p3146
sg2125
S'18'
p3147
sg21
S'UTF_8_BOM'
p3148
stRp3149
ag3
(g4
g5
(dp3150
g2268
S'RevCharsetBits'
p3151
sg2125
S'19'
p3152
sg21
S'UTF_32'
p3153
stRp3154
ag3
(g4
g5
(dp3155
g2268
S'RevCharsetBits'
p3156
sg2125
S'20'
p3157
sg21
S'UTF_32_LE'
p3158
stRp3159
ag3
(g4
g5
(dp3160
g2268
S'RevCharsetBits'
p3161
sg2125
S'21'
p3162
sg21
S'UTF_32_BE'
p3163
stRp3164
ag3
(g4
g5
(dp3165
g2268
S'RevCharsetBits'
p3166
sg2125
S'22'
p3167
sg21
S'UTF_32_LE_BOM'
p3168
stRp3169
ag3
(g4
g5
(dp3170
g2268
S'RevCharsetBits'
p3171
sg2125
S'23'
p3172
sg21
S'UTF_32_BE_BOM'
p3173
stRp3174
ag3
(g4
g5
(dp3175
g2268
S'RevCharsetBits'
p3176
sg2125
S'24'
p3177
sg21
S'UTF_32_BOM'
p3178
stRp3179
ag3
(g4
g5
(dp3180
g2268
S'RevCharsetBits'
p3181
sg2125
S'25'
p3182
sg21
S'UTF_8_UNCHECKED'
p3183
stRp3184
ag3
(g4
g5
(dp3185
g2268
S'RevCharsetBits'
p3186
sg2125
S'26'
p3187
sg21
S'UTF_8_UNCHECKED_BOM'
p3188
stRp3189
ag3
(g4
g5
(dp3190
g2268
S'RevCharsetBits'
p3191
sg2125
S'27'
p3192
sg21
S'CP949'
p3193
stRp3194
ag3
(g4
g5
(dp3195
g2268
S'RevCharsetBits'
p3196
sg2125
S'28'
p3197
sg21
S'CP936'
p3198
stRp3199
ag3
(g4
g5
(dp3200
g2268
S'RevCharsetBits'
p3201
sg2125
S'29'
p3202
sg21
S'CP950'
p3203
stRp3204
ag3
(g4
g5
(dp3205
g2268
S'RevCharsetBits'
p3206
sg2125
S'30'
p3207
sg21
S'CP850'
p3208
stRp3209
ag3
(g4
g5
(dp3210
g2268
S'RevCharsetBits'
p3211
sg2125
S'31'
p3212
sg21
S'CP858'
p3213
stRp3214
atRp3215
sg17
S'RevStatus'
p3216
sg2268
g3
(g8
g9
(lp3217
g3
(g4
g5
(dp3218
g17
S'RevStatusBits'
p3219
sg2125
S'0x000F'
p3220
sg21
S'Bits used to store revision status'
p3221
stRp3222
ag3
(g4
g5
(dp3223
g17
S'RevCharsetBits'
p3224
sg2125
S'0x007F'
p3225
sg21
S'Bits used to store revision charset (high 8 bits). Value shifted right 24 bits before applying mask'
p3226
stRp3227
atRp3228
sg2120
S'A revision status'
p3229
sg19
S'bitmask'
p3230
sg21
S'Lazy copy, task stream promotion, and charset status'
p3231
stRp3232
ag3
(g4
g5
(dp3233
g2120
S'Type of reviewer'
p3234
sg19
S'integer'
p3235
sg17
S'Reviewer'
p3236
sg21
S'The type of reviewer. Currently there is only one type of\n\t\treviewer and 0 is the only valid value.'
p3237
stRp3238
ag3
(g4
g5
(dp3239
g19
S'flag'
p3240
sg2120
S'The type of server'
p3241
sg2122
g3
(g8
g9
(lp3242
g3
(g4
g5
(dp3243
g2125
S'0'
sg21
S'standard'
p3244
stRp3245
ag3
(g4
g5
(dp3246
g2125
S'1'
sg21
S'proxy'
p3247
stRp3248
ag3
(g4
g5
(dp3249
g2125
S'2'
sg21
S'broker'
p3250
stRp3251
atRp3252
sg17
S'ServerType'
p3253
sg21
S'The type of server'
p3254
stRp3255
ag3
(g4
g5
(dp3256
g2122
g3
(g8
g9
(lp3257
g3
(g4
g5
(dp3258
g2268
S'Service Set Value'
p3259
sg2125
S'0x0903'
p3260
sg21
S'standard \t\t( db-read | db-write | rmt-depot | rmt-journal )'
p3261
stRp3262
ag3
(g4
g5
(dp3263
g2268
S'Service Set Value'
p3264
sg2125
S'0x0045'
p3265
sg21
S'replica \t\t( db-read | db-replication | file-replication | rmt-depot | rmt-journal )'
p3266
stRp3267
ag3
(g4
g5
(dp3268
g2268
S'Service Set Value'
p3269
sg2125
S'0x0030'
p3270
sg21
S'broker ( brokering | forwarding )'
p3271
stRp3272
ag3
(g4
g5
(dp3273
g2268
S'Service Set Value'
p3274
sg2125
S'0x00A0'
p3275
sg21
S'proxy ( forwarding | file-cacheing )'
p3276
stRp3277
ag3
(g4
g5
(dp3278
g2268
S'Service Set Value'
p3279
sg2125
S'0x00E5'
p3280
sg21
S'forwarding-replica ( db-read | db-replication | forwarding | file-replication | file-cacheing | rmt-depot | rmt-journal )'
p3281
stRp3282
ag3
(g4
g5
(dp3283
g2268
S'Service Set Value'
p3284
sg2125
S'0x004D'
p3285
sg21
S'build-server ( db-read | db-replicaton | bound-clients | file-replication | rmt-depot | rmt-journal )'
p3286
stRp3287
ag3
(g4
g5
(dp3288
g2268
S'Service Set Value'
p3289
sg2125
S'0x0203'
p3290
sg21
S'P4AUTH ( db-read | db-write | rmt-auth )'
p3291
stRp3292
ag3
(g4
g5
(dp3293
g2268
S'Service Set Value'
p3294
sg2125
S'0x0403'
p3295
sg21
S'P4CHANGE ( db-read | db-write | rmt-change )'
p3296
stRp3297
ag3
(g4
g5
(dp3298
g2268
S'Service Set Value'
p3299
sg2125
S'0x19ED'
p3300
sg21
S'edge-server ( db-read | db-replication | bound-clients | forwarding | file-replication | file-cacheing | rmt-depot | rmt-journal | local-opens )'
p3301
stRp3302
ag3
(g4
g5
(dp3303
g2268
S'Service Set Value'
p3304
sg2125
S'0x2F03'
p3305
sg21
S'commit-server ( db-read | db-write | rmt-depot | rmt-journal | rmt-change | rmt-auth | commit-server )'
p3306
stRp3307
ag3
(g4
g5
(dp3308
g2268
S'Service Property'
p3309
sg2125
S'0x0001'
p3310
sg21
S'db-read'
p3311
stRp3312
ag3
(g4
g5
(dp3313
g2268
S'Service Property'
p3314
sg2125
S'0x0002'
p3315
sg21
S'db-write'
p3316
stRp3317
ag3
(g4
g5
(dp3318
g2268
S'Service Property'
p3319
sg2125
S'0x0004'
p3320
sg21
S'db-replication'
p3321
stRp3322
ag3
(g4
g5
(dp3323
g2268
S'Service Property'
p3324
sg2125
S'0x0008'
p3325
sg21
S'bound-clients'
p3326
stRp3327
ag3
(g4
g5
(dp3328
g2268
S'Service Property'
p3329
sg2125
S'0x0010'
p3330
sg21
S'brokering'
p3331
stRp3332
ag3
(g4
g5
(dp3333
g2268
S'Service Property'
p3334
sg2125
S'0x0020'
p3335
sg21
S'forwarding'
p3336
stRp3337
ag3
(g4
g5
(dp3338
g2268
S'Service Property'
p3339
sg2125
S'0x0040'
p3340
sg21
S'file-replication'
p3341
stRp3342
ag3
(g4
g5
(dp3343
g2268
S'Service Property'
p3344
sg2125
S'0x0080'
p3345
sg21
S'file-cacheing'
p3346
stRp3347
ag3
(g4
g5
(dp3348
g2268
S'Service Property'
p3349
sg2125
S'0x0100'
p3350
sg21
S'rmt-depot'
p3351
stRp3352
ag3
(g4
g5
(dp3353
g2268
S'Service Property'
p3354
sg2125
S'0x0200'
p3355
sg21
S'rmt-auth'
p3356
stRp3357
ag3
(g4
g5
(dp3358
g2268
S'Service Property'
p3359
sg2125
S'0x0400'
p3360
sg21
S'rmt-change'
p3361
stRp3362
ag3
(g4
g5
(dp3363
g2268
S'Service Property'
p3364
sg2125
S'0x0800'
p3365
sg21
S'rmt-journal'
p3366
stRp3367
ag3
(g4
g5
(dp3368
g2268
S'Service Property'
p3369
sg2125
S'0x1000'
p3370
sg21
S'local-opens'
p3371
stRp3372
ag3
(g4
g5
(dp3373
g2268
S'Service Property'
p3374
sg2125
S'0x2000'
p3375
sg21
S'commit-server'
p3376
stRp3377
atRp3378
sg17
S'ServerServiceType'
p3379
sg2268
g3
(g8
g9
(lp3380
g3
(g4
g5
(dp3381
g17
S'Service Set Value'
p3382
sg2125
S'None'
p3383
sg21
S"The server service type setting is generated by OR'ing the generic ServerServiceProperties defined below"
p3384
stRp3385
ag3
(g4
g5
(dp3386
g17
S'Service Property'
p3387
sg2125
S'None'
p3388
sg21
S'ServerServiceProperties: Bits used to identify generic server properties'
p3389
stRp3390
atRp3391
sg2120
S'The type of server service'
p3392
sg19
S'bitmask'
p3393
sg21
S'One of standard, replica, broker, proxy, forwarding-replica, build-server, P4AUTH, or P4CHANGE.'
p3394
stRp3395
ag3
(g4
g5
(dp3396
g19
S'flag'
p3397
sg2120
S'Server specification view type'
p3398
sg2122
g3
(g8
g9
(lp3399
g3
(g4
g5
(dp3400
g2125
S'0'
sg21
S'ClientDataFilter'
p3401
stRp3402
ag3
(g4
g5
(dp3403
g2125
S'1'
sg21
S'RevisionDataFilter'
p3404
stRp3405
ag3
(g4
g5
(dp3406
g2125
S'2'
sg21
S'ArchiveDataFilter'
p3407
stRp3408
atRp3409
sg17
S'SvrViewType'
p3410
sg21
S'Server specification view type'
p3411
stRp3412
ag3
(g4
g5
(dp3413
g2122
g3
(g8
g9
(lp3414
g3
(g4
g5
(dp3415
g2268
S'Stream Status'
p3416
sg2125
S'0x0000'
p3417
sg21
S'Clear cache'
p3418
stRp3419
ag3
(g4
g5
(dp3420
g2268
S'Stream Status'
p3421
sg2125
S'0x0001'
p3422
sg21
S'Needs copy'
p3423
stRp3424
ag3
(g4
g5
(dp3425
g2268
S'Stream Status'
p3426
sg2125
S'0x0002'
p3427
sg21
S'Copy up-to-date'
p3428
stRp3429
ag3
(g4
g5
(dp3430
g2268
S'Stream Status'
p3431
sg2125
S'0x0004'
p3432
sg21
S'Needs merge'
p3433
stRp3434
ag3
(g4
g5
(dp3435
g2268
S'Stream Status'
p3436
sg2125
S'0x0008'
p3437
sg21
S'Merge up-to-date'
p3438
stRp3439
atRp3440
sg17
S'StreamStatus'
p3441
sg2268
g3
(g4
g5
(dp3442
g17
S'Stream Status'
p3443
sg2125
S'Copy: 0x0003, Merge: 0x000C'
p3444
sg21
S'Bits used to store the stream integration status'
p3445
stRp3446
sg2120
S'Stream integration status'
p3447
sg19
S'bitmask'
p3448
sg21
S'The stream integration status.'
p3449
stRp3450
ag3
(g4
g5
(dp3451
g19
S'flag'
p3452
sg2120
S'Type of stream path'
p3453
sg2122
g3
(g8
g9
(lp3454
g3
(g4
g5
(dp3455
g2125
S'0'
sg21
S'share'
p3456
stRp3457
ag3
(g4
g5
(dp3458
g2125
S'1'
sg21
S'isolate'
p3459
stRp3460
ag3
(g4
g5
(dp3461
g2125
S'2'
sg21
S'import'
p3462
stRp3463
ag3
(g4
g5
(dp3464
g2125
S'3'
sg21
S'exclude'
p3465
stRp3466
ag3
(g4
g5
(dp3467
g2125
S'4'
sg21
S'remapped'
p3468
stRp3469
ag3
(g4
g5
(dp3470
g2125
S'5'
sg21
S'ignored'
p3471
stRp3472
atRp3473
sg17
S'StreamPathType'
p3474
sg21
S'The path type for file paths in a stream view.'
p3475
stRp3476
ag3
(g4
g5
(dp3477
g19
S'flag'
p3478
sg2120
S'Type of stream'
p3479
sg2122
g3
(g8
g9
(lp3480
g3
(g4
g5
(dp3481
g2125
S'0'
sg21
S'mainline'
p3482
stRp3483
ag3
(g4
g5
(dp3484
g2125
S'1'
sg21
S'release'
p3485
stRp3486
ag3
(g4
g5
(dp3487
g2125
S'2'
sg21
S'development'
p3488
stRp3489
ag3
(g4
g5
(dp3490
g2125
S'3'
sg21
S'virtual'
p3491
stRp3492
ag3
(g4
g5
(dp3493
g2125
S'4'
sg21
S'task'
p3494
stRp3495
ag3
(g4
g5
(dp3496
g2125
S'5'
sg21
S'task - unloaded'
p3497
stRp3498
atRp3499
sg17
S'StreamType'
p3500
sg21
S'The type of stream.'
p3501
stRp3502
ag3
(g4
g5
(dp3503
g19
S'flag'
p3504
sg2120
S'Strength check of a password'
p3505
sg2122
g3
(g8
g9
(lp3506
g3
(g4
g5
(dp3507
g2125
S'0'
sg21
S'Strength unknown'
p3508
stRp3509
ag3
(g4
g5
(dp3510
g2125
S'1'
sg21
S'Password is strong'
p3511
stRp3512
ag3
(g4
g5
(dp3513
g2125
S'2'
sg21
S'unset'
p3514
stRp3515
atRp3516
sg17
S'Strength'
p3517
sg21
S"Whether or not a user's password has been tested for strength."
p3518
stRp3519
ag3
(g4
g5
(dp3520
S'restriction'
p3521
g3
(g8
g9
(lp3522
S'Cannot be empty'
p3523
aS'Cannot consist solely of a dash (-)'
p3524
aS'Cannot be all-numeric'
p3525
aS'Cannot contain non-printable characters'
p3526
aS'Spaces are replaced with underscores ( _ )'
p3527
aS'Revision characters (# and @) are prohibited'
p3528
aS'Slashes (/) are prohibited'
p3529
aS'Wildcards (... and *) are prohibited'
p3530
atRp3531
sg2120
S'A string up to 1024 characters long'
p3532
sg19
S'string'
p3533
sg17
S'String'
p3534
sg21
S'A string up to 1024 characters in length.  Depending on the \n\t\tcontext in which the string is used, restrictions \n\t\tmay apply. Strings are often used as key fields in the \n\t\tschema.'
p3535
stRp3536
ag3
(g4
g5
(dp3537
g19
S'flag'
p3538
sg2120
S'Tamper-state of workspace file'
p3539
sg2122
g3
(g8
g9
(lp3540
g3
(g4
g5
(dp3541
g2125
S'0'
sg21
S'Do not check for tampering'
p3542
stRp3543
ag3
(g4
g5
(dp3544
g2125
S'1'
sg21
S'Check for tampering'
p3545
stRp3546
ag3
(g4
g5
(dp3547
g2125
S'2'
sg21
S'Tamper-check failed'
p3548
stRp3549
atRp3550
sg17
S'TamperCheck'
p3551
sg21
S'Indicates the tamper-state of a file in a workspace. This\n\t\tis used to decide whether or not to check the file, and\n\t\tif checked, to hold the result.'
p3552
stRp3553
ag3
(g4
g5
(dp3554
g2120
S'A string value'
p3555
sg19
S'string'
p3556
sg17
S'Text'
p3557
sg21
S'A text string value - used to hold longer blocks of text.'
p3558
stRp3559
ag3
(g4
g5
(dp3560
g2120
S'The id of a group of traits'
p3561
sg19
S'integer'
p3562
sg17
S'TraitLot'
p3563
sg21
S'An integer identifying a group of traits which may be\n\t\tshared by several revisions.'
p3564
stRp3565
ag3
(g4
g5
(dp3566
g19
S'flag'
p3567
sg2120
S'A type of trait'
p3568
sg2122
g3
(g8
g9
(lp3569
g3
(g4
g5
(dp3570
g2125
S'0'
sg21
S'special trait for reference counting'
p3571
stRp3572
ag3
(g4
g5
(dp3573
g2125
S'1'
sg21
S'Binary trait'
p3574
stRp3575
ag3
(g4
g5
(dp3576
g2125
S'2'
sg21
S'Binary trait that gets propagated'
p3577
stRp3578
atRp3579
sg17
S'TraitType'
p3580
sg21
S'The type of trait.'
p3581
stRp3582
ag3
(g4
g5
(dp3583
g19
S'flag'
p3584
sg2120
S'A type of trigger'
p3585
sg2122
g3
(g8
g9
(lp3586
g3
(g4
g5
(dp3587
g2125
S'0'
sg21
S'change-submit (formerly pre-submit triggers)'
p3588
stRp3589
ag3
(g4
g5
(dp3590
g2125
S'1'
sg21
S'change-content'
p3591
stRp3592
ag3
(g4
g5
(dp3593
g2125
S'2'
sg21
S'change-commit'
p3594
stRp3595
ag3
(g4
g5
(dp3596
g2125
S'3'
sg21
S'form-in'
p3597
stRp3598
ag3
(g4
g5
(dp3599
g2125
S'4'
sg21
S'form-out'
p3600
stRp3601
ag3
(g4
g5
(dp3602
g2125
S'5'
sg21
S'form-save'
p3603
stRp3604
ag3
(g4
g5
(dp3605
g2125
S'6'
sg21
S'form-delete'
p3606
stRp3607
ag3
(g4
g5
(dp3608
g2125
S'7'
sg21
S'form-commit'
p3609
stRp3610
ag3
(g4
g5
(dp3611
g2125
S'8'
sg21
S'auth-check'
p3612
stRp3613
ag3
(g4
g5
(dp3614
g2125
S'9'
sg21
S'auth-check-sso'
p3615
stRp3616
ag3
(g4
g5
(dp3617
g2125
S'10'
p3618
sg21
S'auth-set'
p3619
stRp3620
ag3
(g4
g5
(dp3621
g2125
S'11'
p3622
sg21
S'fix-add'
p3623
stRp3624
ag3
(g4
g5
(dp3625
g2125
S'12'
p3626
sg21
S'fix-delete'
p3627
stRp3628
ag3
(g4
g5
(dp3629
g2125
S'13'
p3630
sg21
S'archive'
p3631
stRp3632
ag3
(g4
g5
(dp3633
g2125
S'14'
p3634
sg21
S'shelve-submit'
p3635
stRp3636
ag3
(g4
g5
(dp3637
g2125
S'15'
p3638
sg21
S'shelve-commit'
p3639
stRp3640
ag3
(g4
g5
(dp3641
g2125
S'16'
p3642
sg21
S'shelve-delete'
p3643
stRp3644
ag3
(g4
g5
(dp3645
g2125
S'17'
p3646
sg21
S'service-check'
p3647
stRp3648
ag3
(g4
g5
(dp3649
g2125
S'18'
p3650
sg21
S'edge-submit'
p3651
stRp3652
ag3
(g4
g5
(dp3653
g2125
S'19'
p3654
sg21
S'edge-content'
p3655
stRp3656
atRp3657
sg17
S'Trigger'
p3658
sg21
S'The type of a trigger.'
p3659
stRp3660
ag3
(g4
g5
(dp3661
g2120
S'A user or group name'
p3662
sg21
S'The name of a Perforce user or group.'
p3663
sg19
S'string'
p3664
sg17
S'User'
p3665
sg133
S'String'
p3666
stRp3667
ag3
(g4
g5
(dp3668
g19
S'flag'
p3669
sg2120
S'User functionality level'
p3670
sg2122
g3
(g8
g9
(lp3671
g3
(g4
g5
(dp3672
g2125
S'0'
sg21
S'standard'
p3673
stRp3674
ag3
(g4
g5
(dp3675
g2125
S'1'
sg21
S'service'
p3676
stRp3677
ag3
(g4
g5
(dp3678
g2125
S'2'
sg21
S'operator'
p3679
stRp3680
atRp3681
sg17
S'UserLevel'
p3682
sg21
S'User functionality level'
p3683
stRp3684
ag3
(g4
g5
(dp3685
g2122
g3
(g8
g9
(lp3686
g3
(g4
g5
(dp3687
g2268
S'UserTypeBits'
p3688
sg17
S'User'
p3689
sg2125
S'0x0001'
p3690
sg21
S'User is an ordinary user'
p3691
stRp3692
ag3
(g4
g5
(dp3693
g2268
S'UserTypeBits'
p3694
sg17
S'SubGroup'
p3695
sg2125
S'0x0002'
p3696
sg21
S'Group is a sub-group'
p3697
stRp3698
ag3
(g4
g5
(dp3699
g2268
S'UserTypeBits'
p3700
sg17
S'Owner'
p3701
sg2125
S'0x0004'
p3702
sg21
S'User is the owner of a group'
p3703
stRp3704
atRp3705
sg17
S'UserType'
p3706
sg2268
g3
(g4
g5
(dp3707
g17
S'UserTypeBits'
p3708
sg2125
S'0x0007'
p3709
sg21
S'Bits used to store the role of a user in a group'
p3710
stRp3711
sg2120
S'The role of a user within a group'
p3712
sg19
S'bitmask'
p3713
sg21
S'The role of a user (or group) within a group.'
p3714
stRp3715
ag3
(g4
g5
(dp3716
g2120
S'A user or group name with wildcards'
p3717
sg21
S'A user/group name that may contain wildcards (*)'
p3718
sg19
S'string'
p3719
sg17
S'UserWild'
p3720
sg133
S'User'
p3721
stRp3722
ag3
(g4
g5
(dp3723
g2120
S'A number or a string'
p3724
sg19
S'string'
p3725
sg17
S'Value'
p3726
sg21
S'A number, stored in a string, or a string'
p3727
stRp3728
atRp3729
stRp3730
s.