(dp1
S'tables'
p2
ccopy_reg
_reconstructor
p3
(clib.sqUtils
Storage
p4
c__builtin__
dict
p5
(dp6
S'table'
p7
g3
(clib.sqUtils
Lst
p8
c__builtin__
list
p9
(lp10
g3
(g4
g5
(dp11
S'version'
p12
S'1'
sS'keying'
p13
S'serverName, name'
p14
sS'name'
p15
S'db.config'
p16
sS'type'
p17
S'Config'
p18
sS'lockseq'
p19
S'1'
sS'desc'
p20
S'Perforce server configurations table'
p21
stRp22
ag3
(g4
g5
(dp23
g12
S'1'
sg13
S'name'
p24
sg15
S'db.counters'
p25
sg17
S'Counters'
p26
sg19
S'2'
sg20
S'Perforce counters table'
p27
stRp28
ag3
(g4
g5
(dp29
g12
S'1'
sg13
S'name'
p30
sg15
S'db.nameval'
p31
sg17
S'counters'
p32
sg19
S'3'
sg20
S'A table to store counters for use by Commons'
p33
stRp34
ag3
(g4
g5
(dp35
g12
S'0'
sg13
S'seq'
p36
sg15
S'db.logger'
p37
sg17
S'Logger'
p38
sg19
S'4'
sg20
S"Support for 'p4 logger' command. Logs any changes to \n\t\tchangelists and jobs"
p39
stRp40
ag3
(g4
g5
(dp41
g12
S'0'
sg13
S'id'
p42
sg15
S'db.server'
p43
sg17
S'Server'
p44
sg19
S'5'
sg20
S'Perforce server specifications'
p45
stRp46
ag3
(g4
g5
(dp47
g12
S'5'
sg13
S'user'
p48
sg15
S'db.user.rp'
p49
sg17
S'User'
p50
sg19
S'6'
sg20
S"Used by replica server's to store login information"
p51
stRp52
ag3
(g4
g5
(dp53
g12
S'5'
sg13
S'user'
p54
sg15
S'db.user'
p55
sg17
S'User'
p56
sg19
S'7'
sg20
S'Perforce users'
p57
stRp58
ag3
(g4
g5
(dp59
g12
S'8'
sg13
S'user, group'
p60
sg15
S'db.group'
p61
sg17
S'Group'
p62
sg19
S'8'
sg20
S'Groups of Perforce users'
p63
stRp64
ag3
(g4
g5
(dp65
g12
S'1'
sg13
S'name'
p66
sg15
S'db.depot'
p67
sg17
S'Depot'
p68
sg19
S'9'
sg20
S'Perforce depots'
p69
stRp70
ag3
(g4
g5
(dp71
g12
S'1'
sg13
S'stream'
p72
sg15
S'db.stream'
p73
sg17
S'Stream'
p74
sg19
S'10'
p75
sg20
S'Perforce streams'
p76
stRp77
ag3
(g4
g5
(dp78
g12
S'6'
sg13
S'name'
p79
sg15
S'db.domain'
p80
sg17
S'Domain'
p81
sg19
S'11'
p82
sg20
S'Domains: depots, clients, labels, branches, streams, and typemap'
p83
stRp84
ag3
(g4
g5
(dp85
g12
S'0'
sg13
S'name, change, sequence'
p86
sg15
S'db.template'
p87
sg17
S'Template'
p88
sg19
S'12'
p89
sg20
S'Streams templates'
p90
stRp91
ag3
(g4
g5
(dp92
g12
S'1'
sg13
S'name seq'
p93
sg15
S'db.view.rp'
p94
sg17
S'View'
p95
sg19
S'13'
p96
sg20
S'Contains views for clients of build-server replicas'
p97
stRp98
ag3
(g4
g5
(dp99
g12
S'1'
sg13
S'name, seq'
p100
sg15
S'db.view'
p101
sg17
S'View'
p102
sg19
S'14'
p103
sg20
S'Contains views for domains'
p104
stRp105
ag3
(g4
g5
(dp106
g12
S'1'
sg13
S'user, seq'
p107
sg15
S'db.review'
p108
sg17
S'Review'
p109
sg19
S'15'
p110
sg20
S"Contains user's review mappings"
p111
stRp112
ag3
(g4
g5
(dp113
g13
S'toFile, fromFile, startFromRev'
p114
sg15
S'db.integ'
p115
sS'note'
p116
S'Obsoleted in 2001.1'
p117
sg12
S'0'
sg20
S'Integration records: obsolete since 2001.1'
p118
sg17
S'Integ'
p119
sg19
S'16'
p120
sS'seeAlso'
p121
g3
(g8
g9
(lp122
S'db.integed'
p123
aS'db.resolve'
p124
atRp125
stRp126
ag3
(g4
g5
(dp127
g12
S'0'
sg13
S'toFile, fromFile, startFromRev, endFromRev, \n\t\tstartToRev, endToRev'
p128
sg15
S'db.integed'
p129
sg20
S'Permanent integration records'
p130
sg17
S'Integed'
p131
sg19
S'17'
p132
sg121
S'db.resolve'
p133
stRp134
ag3
(g4
g5
(dp135
g12
S'1'
sg13
S'toFile, fromFile, startFromRev'
p136
sg15
S'db.resolve'
p137
sg20
S'Pending integration records'
p138
sg17
S'Resolve'
p139
sg19
S'18'
p140
sg121
S'db.integed'
p141
stRp142
ag3
(g4
g5
(dp143
g12
S'1'
sg13
S'toFile, fromFile, startFromRev'
p144
sg15
S'db.resolvex'
p145
sg20
S'Pending integration records for shelved files'
p146
sg17
S'Resolve'
p147
sg19
S'19'
p148
sg121
S'db.integed'
p149
stRp150
ag3
(g4
g5
(dp151
g12
S'2'
sg13
S'clientFile depotFile haveRev'
p152
sg15
S'db.have.rp'
p153
sg17
S'Have'
p154
sg19
S'20'
p155
sg20
S"Contains the 'have-list' for clients of build-server replicas"
p156
stRp157
ag3
(g4
g5
(dp158
g12
S'2'
sg13
S'clientFile'
p159
sg15
S'db.have'
p160
sg17
S'Have'
p161
sg19
S'21'
p162
sg20
S"Contains the 'have-list' for all clients"
p163
stRp164
ag3
(g4
g5
(dp165
g12
S'0'
sg13
S'name, depotFile'
p166
sg15
S'db.label'
p167
sg17
S'Label'
p168
sg19
S'22'
p169
sg20
S'Lists the revisions of files in labels'
p170
stRp171
ag3
(g4
g5
(dp172
g12
S'2'
sg13
S'depotFile, client'
p173
sg15
S'db.locks'
p174
sg17
S'Locks'
p175
sg19
S'23'
p176
sg20
S'Locked/Unlocked files'
p177
stRp178
ag3
(g4
g5
(dp179
g116
S'Obsoleted in 2006.2.'
p180
sg12
S'1'
sg13
S'lbrFile, lbrRev, depotFile, depotRev'
p181
sg20
S'Archive information for each revision that is lazy-copied: obsolete since 2006.2'
p182
sg17
S'Archive'
p183
sg19
S'24'
p184
sg15
S'db.archive'
p185
stRp186
ag3
(g4
g5
(dp187
g116
S'Supercedes db.archive'
p188
sg12
S'0'
sg13
S'lbrFile, depotFile'
p189
sg20
S'Mappings entries for lazy-copies'
p190
sg17
S'ArchMap'
p191
sg19
S'25'
p192
sg15
S'db.archmap'
p193
stRp194
ag3
(g4
g5
(dp195
g12
S'9'
sg13
S'depotFile, depotRev'
p196
sg15
S'db.rev'
p197
sg17
S'Rev'
p198
sg19
S'26'
p199
sg20
S'Revision records'
p200
stRp201
ag3
(g4
g5
(dp202
g12
S'0'
sg13
S'change, depotFile'
p203
sg15
S'db.revcx'
p204
sg17
S'RevCx'
p205
sg19
S'27'
p206
sg20
S'Secondary index of db.rev'
p207
stRp208
ag3
(g4
g5
(dp209
g12
S'9'
sg13
S'depotFile'
p210
sg15
S'db.revdx'
p211
sg17
S'Rev'
p212
sg19
S'28'
p213
sg20
S'Revision records for revisions deleted at the head revision'
p214
stRp215
ag3
(g4
g5
(dp216
g12
S'9'
sg13
S'depotFile'
p217
sg15
S'db.revhx'
p218
sg17
S'Rev'
p219
sg19
S'29'
p220
sg20
S'Revision records for revisions NOT deleted at the head revision'
p221
stRp222
ag3
(g4
g5
(dp223
g116
S'Only populated during content trigger execution to allow \n\t\ttriggers access to the revisions being submitted.'
p224
sg12
S'9'
sg13
S'depotFile, depotRev'
p225
sg20
S'Pending revision records'
p226
sg17
S'Rev'
p227
sg19
S'30'
p228
sg15
S'db.revpx'
p229
stRp230
ag3
(g4
g5
(dp231
g12
S'9'
sg13
S'depotFile, depotRev'
p232
sg15
S'db.revsx'
p233
sg17
S'Rev'
p234
sg19
S'31'
p235
sg20
S'Revision records for spec depot files'
p236
stRp237
ag3
(g4
g5
(dp238
g12
S'9'
sg13
S'depotFile, depotRev, type, action, change'
p239
sg15
S'db.revsh'
p240
sg17
S'Rev'
p241
sg19
S'32'
p242
sg20
S'Revision records for shelved files'
p243
stRp244
ag3
(g4
g5
(dp245
g12
S'9'
sg13
S'depotFile, depotRev'
p246
sg15
S'db.revbx'
p247
sg17
S'Rev'
p248
sg19
S'33'
p249
sg20
S'Revision records for archived files'
p250
stRp251
ag3
(g4
g5
(dp252
g12
S'9'
sg13
S'depotFile'
p253
sg15
S'db.revux'
p254
sg17
S'Rev'
p255
sg19
S'34'
p256
sg20
S'Revision records for unload depot files'
p257
stRp258
ag3
(g4
g5
(dp259
g12
S'9'
sg13
S'clientFile'
p260
sg15
S'db.working'
p261
sg17
S'Working'
p262
sg19
S'35'
p263
sg20
S'Records for work in progress'
p264
stRp265
ag3
(g4
g5
(dp266
g12
S'9'
sg13
S'clientFile'
p267
sg15
S'db.workingx'
p268
sg17
S'Working'
p269
sg19
S'36'
p270
sg20
S'Records for shelved open files'
p271
stRp272
ag3
(g4
g5
(dp273
g12
S'0'
sg13
S'traitLot, name'
p274
sg15
S'db.traits'
p275
sg17
S'Trait'
p276
sg19
S'37'
p277
sg20
S'Attributes associated with file revisions'
p278
stRp279
ag3
(g4
g5
(dp280
g12
S'2'
sg13
S'seq'
p281
sg15
S'db.trigger'
p282
sg17
S'Trigger'
p283
sg19
S'38'
p284
sg20
S'Trigger specifications'
p285
stRp286
ag3
(g4
g5
(dp287
g12
S'2'
sg13
S'change'
p288
sg15
S'db.change'
p289
sg17
S'Change'
p290
sg19
S'39'
p291
sg20
S'Changelists'
p292
stRp293
ag3
(g4
g5
(dp294
g116
S'contains records for pending changelists only.'
p295
sg12
S'2'
sg13
S'change'
p296
sg20
S'Subset of db.change - records for pending changelists only'
p297
sg17
S'Change'
p298
sg19
S'40'
p299
sg15
S'db.changex'
p300
stRp301
ag3
(g4
g5
(dp302
g12
S'0'
sg13
S'descKey'
p303
sg15
S'db.desc'
p304
sg17
S'Desc'
p305
sg19
S'41'
p306
sg20
S'Change descriptions'
p307
stRp308
ag3
(g4
g5
(dp309
g12
S'0'
sg13
S'job'
p310
sg15
S'db.job'
p311
sg20
S'Job records'
p312
sg17
S'Job'
p313
sg19
S'42'
p314
sg121
S'db.bodtext'
p315
stRp316
ag3
(g4
g5
(dp317
g12
S'0'
sg13
S'user, job'
p318
sg15
S'db.jobpend'
p319
sg20
S'Obsolete in 98.2'
p320
sg17
S'String'
p321
sg19
S'43'
p322
sg121
S'db.bodtext'
p323
stRp324
ag3
(g4
g5
(dp325
g12
S'0'
sg13
S'job'
p326
sg15
S'db.jobdesc'
p327
sg20
S'Obsolete in 98.2'
p328
sg17
S'JobDesc'
p329
sg19
S'44'
p330
sg121
S'db.bodtext'
p331
stRp332
ag3
(g4
g5
(dp333
g12
S'1'
sg13
S'job, change'
p334
sg15
S'db.fix'
p335
sg20
S'Fix records - indexed by job'
p336
sg17
S'Fix'
p337
sg19
S'45'
p338
sg121
S'db.fixrev'
p339
stRp340
ag3
(g4
g5
(dp341
g12
S'1'
sg13
S'change, job'
p342
sg15
S'db.fixrev'
p343
sg20
S'Fix records - indexed by change'
p344
sg17
S'Fix'
p345
sg19
S'46'
p346
sg121
S'db.fix'
p347
stRp348
ag3
(g4
g5
(dp349
g116
S'Obsoleted in 2009.2'
p350
sg12
S'0'
sg13
S'key, attr'
p351
sg20
S'Job data for date-valued attributes: obsolete since 2009.2'
p352
sg17
S'BodyDate'
p353
sg19
S'47'
p354
sg15
S'db.boddate'
p355
stRp356
ag3
(g4
g5
(dp357
g12
S'1'
sg13
S'key, attr'
p358
sg15
S'db.bodtext'
p359
sg17
S'BodyText'
p360
sg19
S'48'
p361
sg20
S'Job data for job attributes'
p362
stRp363
ag3
(g4
g5
(dp364
g13
S'date, attr, value'
p365
sg15
S'db.ixdate'
p366
sg116
S'Obsoleted in 2009.2'
p367
sg12
S'0'
sg20
S'Indexing data for date-valued job attributes: obsolete since 2009.2'
p368
sg17
S'IndexDate'
p369
sg19
S'49'
p370
sg121
S'db.ixtext'
p371
stRp372
ag3
(g4
g5
(dp373
g12
S'0'
sg13
S'word, attr, value'
p374
sg15
S'db.ixtext'
p375
sg17
S'IndexText'
p376
sg19
S'50'
p377
sg20
S'Indexing data for job attributes'
p378
stRp379
ag3
(g4
g5
(dp380
g12
S'4'
sg13
S'seq'
p381
sg15
S'db.protect'
p382
sg17
S'Protect'
p383
sg19
S'51'
p384
sg20
S'The protections table'
p385
stRp386
ag3
(g4
g5
(dp387
g12
S'0'
sg13
S'language, id'
p388
sg15
S'db.message'
p389
sg17
S'Message'
p390
sg19
S'52'
p391
sg20
S'System messages'
p392
stRp393
ag3
(g4
g5
(dp394
g12
S'1'
sg13
S'id'
p395
sg15
S'db.monitor'
p396
sg17
S'Monitor'
p397
sg19
S'53'
p398
sg20
S'Perforce process information'
p399
stRp400
atRp401
stRp402
sg12
S'2012.2'
p403
sS'numUpgrades'
p404
S'23'
p405
sS'recordtypes'
p406
g3
(g4
g5
(dp407
S'record'
p408
g3
(g8
g9
(lp409
g3
(g4
g5
(dp410
S'column'
p411
g3
(g8
g9
(lp412
g3
(g4
g5
(dp413
g17
S'File'
p414
sg15
S'lbrFile'
p415
sg20
S"Specifies the location in the librarian's archives where\n\t\t    the revision may be found"
p416
stRp417
ag3
(g4
g5
(dp418
g17
S'String'
p419
sg15
S'lbrRev'
p420
sg20
S"Revision in the librarian's archives"
p421
stRp422
ag3
(g4
g5
(dp423
g17
S'File'
p424
sg15
S'depotFile'
p425
sg20
S'Name of the file in the depot'
p426
stRp427
ag3
(g4
g5
(dp428
g17
S'Rev'
p429
sg15
S'depotRev'
p430
sg20
S'Name of the file in the depot'
p431
stRp432
ag3
(g4
g5
(dp433
g17
S'FileType'
p434
sg15
S'lbrType'
p435
sg20
S"File type for librarian's purposes"
p436
stRp437
atRp438
sg15
S'Archive'
p439
stRp440
ag3
(g4
g5
(dp441
g411
g3
(g8
g9
(lp442
g3
(g4
g5
(dp443
g17
S'File'
p444
sg15
S'lbrFile'
p445
sg20
S'Paths in the librarian namespace that recieve lazy\n\t\t    copies.'
p446
stRp447
ag3
(g4
g5
(dp448
g17
S'File'
p449
sg15
S'depotFile'
p450
sg20
S'Paths in the depot namespace that provide lazy copies.'
p451
stRp452
atRp453
sg15
S'ArchMap'
p454
stRp455
ag3
(g4
g5
(dp456
g411
g3
(g8
g9
(lp457
g3
(g4
g5
(dp458
g17
S'String'
p459
sg15
S'key'
p460
sg20
S'The job to which this attribute belongs'
p461
stRp462
ag3
(g4
g5
(dp463
g17
S'Int'
p464
sg15
S'attr'
p465
sg20
S'The attribute number (from the jobspec) of this attribute'
p466
stRp467
ag3
(g4
g5
(dp468
g17
S'Date'
p469
sg15
S'date'
p470
sg20
S'The date value itself'
p471
stRp472
atRp473
sg15
S'BodyDate'
p474
stRp475
ag3
(g4
g5
(dp476
g411
g3
(g8
g9
(lp477
g3
(g4
g5
(dp478
g17
S'String'
p479
sg15
S'key'
p480
sg20
S'The job to which this attribute belongs'
p481
stRp482
ag3
(g4
g5
(dp483
g17
S'Int'
p484
sg15
S'attr'
p485
sg20
S'The attribute number (from the jobspec) of this attribute'
p486
stRp487
ag3
(g4
g5
(dp488
g17
S'Int'
p489
sg15
S'isBulk'
p490
sg20
S'Indicates whether (1), or not (0) the field is a bulk\n\t\t    text field that should not be indexed.'
p491
stRp492
ag3
(g4
g5
(dp493
g17
S'Text'
p494
sg15
S'text'
p495
sg20
S'The attribute value'
p496
stRp497
atRp498
sg15
S'BodyText'
p499
stRp500
ag3
(g4
g5
(dp501
g411
g3
(g8
g9
(lp502
g3
(g4
g5
(dp503
g17
S'Change'
p504
sg15
S'change'
p505
sg20
S'The change number'
p506
stRp507
ag3
(g4
g5
(dp508
g17
S'Change'
p509
sg15
S'descKey'
p510
sg20
S"The description key. Normally the same as 'change', but\n\t\t    may differ if a changelist was renumbered on submission."
p511
stRp512
ag3
(g4
g5
(dp513
g17
S'Domain'
p514
sg15
S'client'
p515
sg20
S'The client from which the change originates'
p516
stRp517
ag3
(g4
g5
(dp518
g17
S'User'
p519
sg15
S'user'
p520
sg20
S'The user who owns the change'
p521
stRp522
ag3
(g4
g5
(dp523
g17
S'Date'
p524
sg15
S'date'
p525
sg20
S'Date and time the changelist was submitted'
p526
stRp527
ag3
(g4
g5
(dp528
g17
S'ChangeStatus'
p529
sg15
S'status'
p530
sg20
S'Status of the change'
p531
stRp532
ag3
(g4
g5
(dp533
g17
S'DescShort'
p534
sg15
S'description'
p535
sg20
S'Short description of the change.'
p536
stRp537
ag3
(g4
g5
(dp538
g17
S'Mapping'
p539
sg15
S'root'
p540
sg20
S'Common path for all files in the changelist'
p541
stRp542
atRp543
sg15
S'Change'
p544
stRp545
ag3
(g4
g5
(dp546
g411
g3
(g8
g9
(lp547
g3
(g4
g5
(dp548
g17
S'String'
p549
sg15
S'sname'
p550
sg20
S'Server name'
p551
stRp552
ag3
(g4
g5
(dp553
g17
S'String'
p554
sg15
S'name'
p555
sg20
S'Configuration variable name'
p556
stRp557
ag3
(g4
g5
(dp558
g17
S'Value'
p559
sg15
S'value'
p560
sg20
S'Configuration variable value'
p561
stRp562
atRp563
sg15
S'Config'
p564
stRp565
ag3
(g4
g5
(dp566
g411
g3
(g8
g9
(lp567
g3
(g4
g5
(dp568
g17
S'Counter'
p569
sg15
S'name'
p570
sg20
S'Counter name'
p571
stRp572
ag3
(g4
g5
(dp573
g17
S'Value'
p574
sg15
S'value'
p575
sg20
S'Counter value'
p576
stRp577
atRp578
sg15
S'Counters'
p579
stRp580
ag3
(g4
g5
(dp581
g411
g3
(g8
g9
(lp582
g3
(g4
g5
(dp583
g17
S'Domain'
p584
sg15
S'name'
p585
sg20
S'Depot name'
p586
stRp587
ag3
(g4
g5
(dp588
g17
S'DepotType'
p589
sg15
S'type'
p590
sg20
S'Type of depot'
p591
stRp592
ag3
(g4
g5
(dp593
g17
S'Text'
p594
sg15
S'extra'
p595
sg20
S'For remote depots, the P4PORT address of the remote server.\n\t\t    For spec depots, the field contains a suffix to append to \n\t\t    the filename.'
p596
stRp597
ag3
(g4
g5
(dp598
g17
S'Text'
p599
sg15
S'map'
p600
sg20
S"The depot's map (path translation information).  For local \n\t\t    depots, this will be a path relative to the root directory.\n\t\t    For remote depots, this will be specified in terms of the \n\t\t    remote server's namespace."
p601
stRp602
atRp603
sg15
S'Depot'
p604
stRp605
ag3
(g4
g5
(dp606
g411
g3
(g8
g9
(lp607
g3
(g4
g5
(dp608
g17
S'Change'
p609
sg15
S'descKey'
p610
sg20
S'Original number of the change to which this description\n\t\t    applies. This may differ from the final change number if\n\t\t    the change is renumbered on submission.'
p611
stRp612
ag3
(g4
g5
(dp613
g17
S'Text'
p614
sg15
S'description'
p615
sg20
S'The change description itself'
p616
stRp617
atRp618
sg15
S'Desc'
p619
stRp620
ag3
(g4
g5
(dp621
g411
g3
(g8
g9
(lp622
g3
(g4
g5
(dp623
g17
S'Domain'
p624
sg15
S'name'
p625
sg20
S'Domain name'
p626
stRp627
ag3
(g4
g5
(dp628
g17
S'DomainType'
p629
sg15
S'type'
p630
sg20
S'Type of domain'
p631
stRp632
ag3
(g4
g5
(dp633
g17
S'Text'
p634
sg15
S'extra'
p635
sg20
S'Formerly "host". Associated host or, for labels, revision \n\t\t    number.'
p636
stRp637
ag3
(g4
g5
(dp638
g17
S'Text'
p639
sg15
S'mount'
p640
sg20
S'The client root'
p641
stRp642
ag3
(g4
g5
(dp643
g17
S'Text'
p644
sg15
S'mount2'
p645
sg20
S'Alternate client root'
p646
stRp647
ag3
(g4
g5
(dp648
g17
S'Text'
p649
sg15
S'mount3'
p650
sg20
S'Alternate client root'
p651
stRp652
ag3
(g4
g5
(dp653
g17
S'User'
p654
sg15
S'owner'
p655
sg20
S'Name of user who owns the domain.'
p656
stRp657
ag3
(g4
g5
(dp658
g17
S'Date'
p659
sg15
S'updateDate'
p660
sg20
S'Date of last update to domain specification.'
p661
stRp662
ag3
(g4
g5
(dp663
g17
S'Date'
p664
sg15
S'accessDate'
p665
sg20
S'Date of last access to domain specification.'
p666
stRp667
ag3
(g4
g5
(dp668
g17
S'DomainOpts'
p669
sg15
S'options'
p670
sg20
S'Options for client, label, and branch domains.'
p671
stRp672
ag3
(g4
g5
(dp673
g17
S'Text'
p674
sg15
S'description'
p675
sg20
S'Description of domain.'
p676
stRp677
ag3
(g4
g5
(dp678
g17
S'Text'
p679
sg15
S'stream'
p680
sg20
S'Associated stream for client records'
p681
stRp682
ag3
(g4
g5
(dp683
g17
S'Text'
p684
sg15
S'serverid'
p685
sg20
S'Associated server ID for client records'
p686
stRp687
ag3
(g4
g5
(dp688
g17
S'int'
p689
sg15
S'partition'
p690
sg20
S'Currently unused. Reserved for future use'
p691
stRp692
atRp693
sg15
S'Domain'
p694
stRp695
ag3
(g4
g5
(dp696
g411
g3
(g8
g9
(lp697
g3
(g4
g5
(dp698
g17
S'String'
p699
sg15
S'job'
p700
sg20
S'Job name'
p701
stRp702
ag3
(g4
g5
(dp703
g17
S'Change'
p704
sg15
S'change'
p705
sg20
S'Changelist number'
p706
stRp707
ag3
(g4
g5
(dp708
g17
S'Date'
p709
sg15
S'date'
p710
sg20
S'Date fix was recorded (may differ from date change was\n\t\t    submitted).'
p711
stRp712
ag3
(g4
g5
(dp713
g17
S'FixStatus'
p714
sg15
S'status'
p715
sg20
S'Status of the job'
p716
stRp717
ag3
(g4
g5
(dp718
g17
S'Domain'
p719
sg15
S'client'
p720
sg20
S'The client where the fix originated'
p721
stRp722
ag3
(g4
g5
(dp723
g17
S'User'
p724
sg15
S'user'
p725
sg20
S'The user who fixed the job'
p726
stRp727
atRp728
sg15
S'Fix'
p729
stRp730
ag3
(g4
g5
(dp731
g411
g3
(g8
g9
(lp732
g3
(g4
g5
(dp733
g17
S'User'
p734
sg15
S'user'
p735
sg20
S'User name'
p736
stRp737
ag3
(g4
g5
(dp738
g17
S'User'
p739
sg15
S'group'
p740
sg20
S'Group name'
p741
stRp742
ag3
(g4
g5
(dp743
g17
S'UserType'
p744
sg15
S'type'
p745
sg20
S'Type of user in this group.'
p746
stRp747
ag3
(g4
g5
(dp748
g17
S'MaxResults'
p749
sg15
S'maxResults'
p750
sg20
S'MaxResults setting for the group.'
p751
stRp752
ag3
(g4
g5
(dp753
g17
S'MaxScanRows'
p754
sg15
S'maxScanRows'
p755
sg20
S'MaxScanRows setting for the group.'
p756
stRp757
ag3
(g4
g5
(dp758
g17
S'MaxLockTime'
p759
sg15
S'maxLockTime'
p760
sg20
S'MaxLockTime setting for the group.'
p761
stRp762
ag3
(g4
g5
(dp763
g17
S'Int'
p764
sg15
S'timeout'
p765
sg20
S'Length of time (in seconds) a login ticket remains valid.'
p766
stRp767
ag3
(g4
g5
(dp768
g17
S'Int'
p769
sg15
S'passwordTimeout'
p770
sg20
S'Length of time (in seconds) a password remains valid for users in the group.'
p771
stRp772
atRp773
sg15
S'Group'
p774
stRp775
ag3
(g4
g5
(dp776
g411
g3
(g8
g9
(lp777
g3
(g4
g5
(dp778
g17
S'File'
p779
sg15
S'clientFile'
p780
sg20
S'The file in its location on the client'
p781
stRp782
ag3
(g4
g5
(dp783
g17
S'File'
p784
sg15
S'depotFile'
p785
sg20
S'The file in the depot'
p786
stRp787
ag3
(g4
g5
(dp788
g17
S'Rev'
p789
sg15
S'haveRev'
p790
sg20
S'The revision synced to the client'
p791
stRp792
ag3
(g4
g5
(dp793
g17
S'FileType'
p794
sg15
S'type'
p795
sg20
S'The filetype of the synced revision'
p796
stRp797
atRp798
sg15
S'Have'
p799
stRp800
ag3
(g4
g5
(dp801
g411
g3
(g8
g9
(lp802
g3
(g4
g5
(dp803
g17
S'Date'
p804
sg15
S'date'
p805
sg20
S'Date value'
p806
stRp807
ag3
(g4
g5
(dp808
g17
S'Int'
p809
sg15
S'attr'
p810
sg20
S'The attribute number (from the jobspec) to which this\n\t\t    date belongs'
p811
stRp812
ag3
(g4
g5
(dp813
g17
S'String'
p814
sg15
S'value'
p815
sg20
S'A job name'
p816
stRp817
atRp818
sg15
S'IndexDate'
p819
stRp820
ag3
(g4
g5
(dp821
g411
g3
(g8
g9
(lp822
g3
(g4
g5
(dp823
g17
S'String'
p824
sg15
S'word'
p825
sg20
S'The word being indexed'
p826
stRp827
ag3
(g4
g5
(dp828
g17
S'Int'
p829
sg15
S'attr'
p830
sg20
S'The attribute number (from the jobspec) to which this\n\t\t    word belongs'
p831
stRp832
ag3
(g4
g5
(dp833
g17
S'String'
p834
sg15
S'value'
p835
sg20
S'A job name'
p836
stRp837
atRp838
sg15
S'IndexText'
p839
stRp840
ag3
(g4
g5
(dp841
g411
g3
(g8
g9
(lp842
g3
(g4
g5
(dp843
g17
S'File'
p844
sg15
S'toFile'
p845
sg20
S'File to which integration is being performed (target).'
p846
stRp847
ag3
(g4
g5
(dp848
g17
S'File'
p849
sg15
S'fromFile'
p850
sg20
S'File from which integration is being performed (source).'
p851
stRp852
ag3
(g4
g5
(dp853
g17
S'Rev'
p854
sg15
S'startFromRev'
p855
sg20
S'Starting revision of fromFile'
p856
stRp857
ag3
(g4
g5
(dp858
g17
S'Rev'
p859
sg15
S'endFromRev'
p860
sg20
S'Ending revision of fromFile. If integrating from a single \n\t\t    revision (not a revision range), the startFromRev and \n\t\t    endFromRev fields will be identical.'
p861
stRp862
ag3
(g4
g5
(dp863
g17
S'Rev'
p864
sg15
S'toRev'
p865
sg20
S'Revision of toFile into which integration is being \n\t\t    performed.'
p866
stRp867
ag3
(g4
g5
(dp868
g17
S'IntegHow'
p869
sg15
S'how'
p870
sg20
S'Integration method: variations on \n\t\t    merge/branch/copy/ignore/delete.'
p871
stRp872
ag3
(g4
g5
(dp873
g17
S'Int'
p874
sg15
S'committed'
p875
sg20
S'Flag: 0 for pending, 1 for committed.'
p876
stRp877
ag3
(g4
g5
(dp878
g17
S'ResolvedStatus'
p879
sg15
S'resolved'
p880
sg20
S'Resolution method: unresolved, resolved manually, \n\t\t    or resolved as part of a branch or delete.'
p881
stRp882
ag3
(g4
g5
(dp883
g17
S'Change'
p884
sg15
S'change'
p885
sg20
S'Changelist associated with the integration.'
p886
stRp887
atRp888
sg15
S'Integ'
p889
stRp890
ag3
(g4
g5
(dp891
g411
g3
(g8
g9
(lp892
g3
(g4
g5
(dp893
g17
S'File'
p894
sg15
S'toFile'
p895
sg20
S'File to which integration is being performed (target).'
p896
stRp897
ag3
(g4
g5
(dp898
g17
S'File'
p899
sg15
S'fromFile'
p900
sg20
S'File from which integration is being performed (source).'
p901
stRp902
ag3
(g4
g5
(dp903
g17
S'Rev'
p904
sg15
S'startFromRev'
p905
sg20
S'Starting revision of fromFile'
p906
stRp907
ag3
(g4
g5
(dp908
g17
S'Rev'
p909
sg15
S'endFromRev'
p910
sg20
S'Ending revision of fromFile. If integrating from a single \n\t\t    revision (not a revision range), the startFromRev and \n\t\t    endFromRev fields will be identical.'
p911
stRp912
ag3
(g4
g5
(dp913
g17
S'Rev'
p914
sg15
S'startToRev'
p915
sg20
S'Start revision of toFile into which integration was \n\t\t    performed.'
p916
stRp917
ag3
(g4
g5
(dp918
g17
S'Rev'
p919
sg15
S'endToRev'
p920
sg20
S'End revision of toFile into which integration was \n\t\t    performed. Only varies from startToRev for reverse \n\t\t    integration records.'
p921
stRp922
ag3
(g4
g5
(dp923
g17
S'IntegHow'
p924
sg15
S'how'
p925
sg20
S'Integration method: variations on \n\t\t    merge/branch/copy/ignore/delete.'
p926
stRp927
ag3
(g4
g5
(dp928
g17
S'Change'
p929
sg15
S'change'
p930
sg20
S'Changelist associated with the integration.'
p931
stRp932
atRp933
sg15
S'Integed'
p934
stRp935
ag3
(g4
g5
(dp936
g411
g3
(g8
g9
(lp937
g3
(g4
g5
(dp938
g17
S'String'
p939
sg15
S'job'
p940
sg20
S'The job name'
p941
stRp942
ag3
(g4
g5
(dp943
g17
S'User'
p944
sg15
S'xuser'
p945
sg20
S'User name: defunct'
p946
stRp947
ag3
(g4
g5
(dp948
g17
S'Date'
p949
sg15
S'xdate'
p950
sg20
S'The date: defunct'
p951
stRp952
ag3
(g4
g5
(dp953
g17
S'JobStat'
p954
sg15
S'xstatus'
p955
sg20
S'Job status: defunct'
p956
stRp957
ag3
(g4
g5
(dp958
g17
S'DescShort'
p959
sg15
S'description'
p960
sg20
S'Short description'
p961
stRp962
atRp963
sg15
S'Job'
p964
stRp965
ag3
(g4
g5
(dp966
g411
g3
(g8
g9
(lp967
g3
(g4
g5
(dp968
g17
S'String'
p969
sg15
S'xjob'
p970
sg20
S'The job name'
p971
stRp972
ag3
(g4
g5
(dp973
g17
S'Text'
p974
sg15
S'xdescription'
p975
sg20
S'Jobdescription'
p976
stRp977
atRp978
sg15
S'JobDesc'
p979
stRp980
ag3
(g4
g5
(dp981
g411
g3
(g8
g9
(lp982
g3
(g4
g5
(dp983
g17
S'Domain'
p984
sg15
S'name'
p985
sg20
S'Name of the label'
p986
stRp987
ag3
(g4
g5
(dp988
g17
S'File'
p989
sg15
S'depotFile'
p990
sg20
S'File name'
p991
stRp992
ag3
(g4
g5
(dp993
g17
S'Rev'
p994
sg15
S'haveRev'
p995
sg20
S'The revision of the file in the label'
p996
stRp997
atRp998
sg15
S'Label'
p999
stRp1000
ag3
(g4
g5
(dp1001
g411
g3
(g8
g9
(lp1002
g3
(g4
g5
(dp1003
g17
S'File'
p1004
sg15
S'depotFile'
p1005
sg20
S'File in depot'
p1006
stRp1007
ag3
(g4
g5
(dp1008
g17
S'Domain'
p1009
sg15
S'client'
p1010
sg20
S'Domain (client) in which file is open'
p1011
stRp1012
ag3
(g4
g5
(dp1013
g17
S'User'
p1014
sg15
S'user'
p1015
sg20
S'User who presently has the file open'
p1016
stRp1017
ag3
(g4
g5
(dp1018
g17
S'Action'
p1019
sg15
S'action'
p1020
sg20
S'Action file is open for: add, edit, delete, branch,\n\t\t    integrate, or import'
p1021
stRp1022
ag3
(g4
g5
(dp1023
g17
S'Int'
p1024
sg15
S'isLocked'
p1025
sg20
S'Flag: 0 for unlocked, 1 for locked'
p1026
stRp1027
ag3
(g4
g5
(dp1028
g17
S'Int'
p1029
sg15
S'change'
p1030
sg20
S'Changelist in which the revision is open: 0 for the\n\t\t    default changelist'
p1031
stRp1032
atRp1033
sg15
S'Locks'
p1034
stRp1035
ag3
(g4
g5
(dp1036
g411
g3
(g8
g9
(lp1037
g3
(g4
g5
(dp1038
g17
S'Int'
p1039
sg15
S'seq'
p1040
sg20
S'Sequence number of event'
p1041
stRp1042
ag3
(g4
g5
(dp1043
g17
S'String'
p1044
sg15
S'key'
p1045
sg20
S"Either the word 'change' or the word 'job'"
p1046
stRp1047
ag3
(g4
g5
(dp1048
g17
S'String'
p1049
sg15
S'attr'
p1050
sg20
S'The number of the change, or name of the job that was \n\t\t    altered.'
p1051
stRp1052
atRp1053
sg15
S'Logger'
p1054
stRp1055
ag3
(g4
g5
(dp1056
g411
g3
(g8
g9
(lp1057
g3
(g4
g5
(dp1058
g17
S'String'
p1059
sg15
S'language'
p1060
sg20
S'The language for which this message applies'
p1061
stRp1062
ag3
(g4
g5
(dp1063
g17
S'Int'
p1064
sg15
S'id'
p1065
sg20
S'The message number'
p1066
stRp1067
ag3
(g4
g5
(dp1068
g17
S'String'
p1069
sg15
S'message'
p1070
sg20
S'The message text'
p1071
stRp1072
atRp1073
sg15
S'Message'
p1074
stRp1075
ag3
(g4
g5
(dp1076
g411
g3
(g8
g9
(lp1077
g3
(g4
g5
(dp1078
g17
S'Int'
p1079
sg15
S'id'
p1080
sg20
S'Thread/process id'
p1081
stRp1082
ag3
(g4
g5
(dp1083
g17
S'User'
p1084
sg15
S'user'
p1085
sg20
S'Username of the user running the command'
p1086
stRp1087
ag3
(g4
g5
(dp1088
g17
S'String'
p1089
sg15
S'function'
p1090
sg20
S'The command being executed.'
p1091
stRp1092
ag3
(g4
g5
(dp1093
g17
S'String'
p1094
sg15
S'args'
p1095
sg20
S'Arguments passed to the command'
p1096
stRp1097
ag3
(g4
g5
(dp1098
g17
S'Date'
p1099
sg15
S'startDate'
p1100
sg20
S'The date and time the command started'
p1101
stRp1102
ag3
(g4
g5
(dp1103
g17
S'Int'
p1104
sg15
S'runstate'
p1105
sg20
S'Flag: 0 for running, 1 for terminated, 2 for paused'
p1106
stRp1107
ag3
(g4
g5
(dp1108
g17
S'Domain'
p1109
sg15
S'client'
p1110
sg20
S'The client workspace'
p1111
stRp1112
ag3
(g4
g5
(dp1113
g17
S'Text'
p1114
sg15
S'host'
p1115
sg20
S'The IP address of the client'
p1116
stRp1117
ag3
(g4
g5
(dp1118
g17
S'Text'
p1119
sg15
S'prog'
p1120
sg20
S'The name (and version) of the client program'
p1121
stRp1122
atRp1123
sg15
S'Monitor'
p1124
stRp1125
ag3
(g4
g5
(dp1126
g411
g3
(g8
g9
(lp1127
g3
(g4
g5
(dp1128
g17
S'Int'
p1129
sg15
S'seq'
p1130
sg20
S'Sequence number: for ordering the protections table'
p1131
stRp1132
ag3
(g4
g5
(dp1133
g17
S'Int'
p1134
sg15
S'isGroup'
p1135
sg20
S'Flag: 0 for a per-user setting, 1 for a per-group setting.'
p1136
stRp1137
ag3
(g4
g5
(dp1138
g17
S'UserWild'
p1139
sg15
S'user'
p1140
sg20
S'User(s), or Group(s) for whom this record applies.'
p1141
stRp1142
ag3
(g4
g5
(dp1143
g17
S'DomainWild'
p1144
sg15
S'host'
p1145
sg20
S'Domain(s) (IP addresses) for which this record applies.'
p1146
stRp1147
ag3
(g4
g5
(dp1148
g17
S'Perm'
p1149
sg15
S'perm'
p1150
sg20
S'Permissions to be granted/revoked'
p1151
stRp1152
ag3
(g4
g5
(dp1153
g17
S'MapFlag'
p1154
sg15
S'mapFlag'
p1155
sg20
S'Flag: Map the files in or out?'
p1156
stRp1157
ag3
(g4
g5
(dp1158
g17
S'Mapping'
p1159
sg15
S'depotFile'
p1160
sg20
S'Files to be mapped in or out.'
p1161
stRp1162
atRp1163
sg15
S'Protect'
p1164
stRp1165
ag3
(g4
g5
(dp1166
g411
g3
(g8
g9
(lp1167
g3
(g4
g5
(dp1168
g17
S'File'
p1169
sg15
S'toFile'
p1170
sg20
S'File to which integration is being performed (target).'
p1171
stRp1172
ag3
(g4
g5
(dp1173
g17
S'File'
p1174
sg15
S'fromFile'
p1175
sg20
S'File from which integration is being performed (source).'
p1176
stRp1177
ag3
(g4
g5
(dp1178
g17
S'Rev'
p1179
sg15
S'startFromRev'
p1180
sg20
S'Starting revision of fromFile'
p1181
stRp1182
ag3
(g4
g5
(dp1183
g17
S'Rev'
p1184
sg15
S'endFromRev'
p1185
sg20
S'Ending revision of fromFile. If integrating from a single \n\t\t    revision (not a revision range), the startFromRev and \n\t\t    endFromRev fields will be identical.'
p1186
stRp1187
ag3
(g4
g5
(dp1188
g17
S'Rev'
p1189
sg15
S'startToRev'
p1190
sg20
S'Start revision of toFile into which integration was \n\t\t    performed.'
p1191
stRp1192
ag3
(g4
g5
(dp1193
g17
S'Rev'
p1194
sg15
S'endToRev'
p1195
sg20
S'End revision of toFile into which integration was \n\t\t    performed. Only varies from startToRev for reverse \n\t\t    integration records.'
p1196
stRp1197
ag3
(g4
g5
(dp1198
g17
S'IntegHow'
p1199
sg15
S'how'
p1200
sg20
S'Integration method: variations on \n\t\t    merge/branch/copy/ignore/delete.'
p1201
stRp1202
ag3
(g4
g5
(dp1203
g17
S'ResolveState'
p1204
sg15
S'state'
p1205
sg20
S'How the user performed the resolve.'
p1206
stRp1207
ag3
(g4
g5
(dp1208
g17
S'File'
p1209
sg15
S'baseFile'
p1210
sg20
S'File used as the base for merging.'
p1211
stRp1212
ag3
(g4
g5
(dp1213
g17
S'Rev'
p1214
sg15
S'baseRev'
p1215
sg20
S'Revision of baseFile used as the merge base.'
p1216
stRp1217
atRp1218
sg15
S'Resolve'
p1219
stRp1220
ag3
(g4
g5
(dp1221
g411
g3
(g8
g9
(lp1222
g3
(g4
g5
(dp1223
g17
S'File'
p1224
sg15
S'depotFile'
p1225
sg20
S'The file name'
p1226
stRp1227
ag3
(g4
g5
(dp1228
g17
S'Rev'
p1229
sg15
S'depotRev'
p1230
sg20
S'The revision number'
p1231
stRp1232
ag3
(g4
g5
(dp1233
g17
S'FileType'
p1234
sg15
S'type'
p1235
sg20
S'The file type of the revision'
p1236
stRp1237
ag3
(g4
g5
(dp1238
g17
S'Action'
p1239
sg15
S'action'
p1240
sg20
S'The action that created the revision'
p1241
stRp1242
ag3
(g4
g5
(dp1243
g17
S'Change'
p1244
sg15
S'change'
p1245
sg20
S'The changelist that created the revision'
p1246
stRp1247
ag3
(g4
g5
(dp1248
g17
S'Date'
p1249
sg15
S'date'
p1250
sg20
S'The date/time the changelist that created the revision\n\t\t    was submitted'
p1251
stRp1252
ag3
(g4
g5
(dp1253
g17
S'Date'
p1254
sg15
S'modTime'
p1255
sg20
S"The timestamp on the file in the user's workspace when\n\t\t    the revision was submitted."
p1256
stRp1257
ag3
(g4
g5
(dp1258
g17
S'Digest'
p1259
sg15
S'digest'
p1260
sg20
S'The MD5 digest of the revision.'
p1261
stRp1262
ag3
(g4
g5
(dp1263
g17
S'FileSize'
p1264
sg15
S'size'
p1265
sg20
S'The size of the file in bytes'
p1266
stRp1267
ag3
(g4
g5
(dp1268
g17
S'TraitLot'
p1269
sg15
S'traitLot'
p1270
sg20
S'Group of traits (attributes) associated with the revision.'
p1271
stRp1272
ag3
(g4
g5
(dp1273
g17
S'Int'
p1274
sg15
S'lbrIsLazy'
p1275
sg20
S'Flag specifying whether or not the revision gets its\n\t\t    content from another file (i.e. whether or not depotFile\n\t\t    and lbrFile differ)'
p1276
stRp1277
ag3
(g4
g5
(dp1278
g17
S'File'
p1279
sg15
S'lbrFile'
p1280
sg20
S"Filename for librarian's purposes.  Specifies location in \n\t\t    the archives where the file containing the revision may\n\t\t    be found. Usually the same as depotFile, but differs in\n\t\t    the case of branched/copied revisions."
p1281
stRp1282
ag3
(g4
g5
(dp1283
g17
S'String'
p1284
sg15
S'lbrRev'
p1285
sg20
S'The revision of lbrFile that contains the revision content.'
p1286
stRp1287
ag3
(g4
g5
(dp1288
g17
S'FileType'
p1289
sg15
S'lbrType'
p1290
sg20
S'The file type of the librarian revision. Usually the same\n\t\t    as type, but differs in the case of branched/copied \n\t\t    revisions.'
p1291
stRp1292
atRp1293
sg15
S'Rev'
p1294
stRp1295
ag3
(g4
g5
(dp1296
g411
g3
(g8
g9
(lp1297
g3
(g4
g5
(dp1298
g17
S'Change'
p1299
sg15
S'change'
p1300
sg20
S'The changelist that created the revision'
p1301
stRp1302
ag3
(g4
g5
(dp1303
g17
S'File'
p1304
sg15
S'depotFile'
p1305
sg20
S'The file name'
p1306
stRp1307
ag3
(g4
g5
(dp1308
g17
S'Rev'
p1309
sg15
S'depotRev'
p1310
sg20
S'The revision number'
p1311
stRp1312
ag3
(g4
g5
(dp1313
g17
S'Action'
p1314
sg15
S'action'
p1315
sg20
S'The action that created the revision'
p1316
stRp1317
atRp1318
sg15
S'RevCx'
p1319
stRp1320
ag3
(g4
g5
(dp1321
g411
g3
(g8
g9
(lp1322
g3
(g4
g5
(dp1323
g17
S'User'
p1324
sg15
S'user'
p1325
sg20
S'A user name'
p1326
stRp1327
ag3
(g4
g5
(dp1328
g17
S'Int'
p1329
sg15
S'seq'
p1330
sg20
S'Sequence number: used for ordering multi-line views'
p1331
stRp1332
ag3
(g4
g5
(dp1333
g17
S'MapFlag'
p1334
sg15
S'mapFlag'
p1335
sg20
S'Type of mapping'
p1336
stRp1337
ag3
(g4
g5
(dp1338
g17
S'Mapping'
p1339
sg15
S'depotFile'
p1340
sg20
S'The files to be reviewed'
p1341
stRp1342
ag3
(g4
g5
(dp1343
g17
S'Reviewer'
p1344
sg15
S'type'
p1345
sg20
S'Type of reviewer'
p1346
stRp1347
atRp1348
sg15
S'Review'
p1349
stRp1350
ag3
(g4
g5
(dp1351
g411
g3
(g8
g9
(lp1352
g3
(g4
g5
(dp1353
g17
S'text'
p1354
sg15
S'id'
p1355
sg20
S'The server identifier'
p1356
stRp1357
ag3
(g4
g5
(dp1358
g17
S'ServerType'
p1359
sg15
S'type'
p1360
sg20
S'The server type: server/broker/proxy'
p1361
stRp1362
ag3
(g4
g5
(dp1363
g17
S'text'
p1364
sg15
S'name'
p1365
sg20
S'The P4NAME used by this server'
p1366
stRp1367
ag3
(g4
g5
(dp1368
g17
S'text'
p1369
sg15
S'address'
p1370
sg20
S'The P4PORT used by this server'
p1371
stRp1372
ag3
(g4
g5
(dp1373
g17
S'ServerServiceType'
p1374
sg15
S'services'
p1375
sg20
S'Service provided by this server'
p1376
stRp1377
ag3
(g4
g5
(dp1378
g17
S'text'
p1379
sg15
S'desc'
p1380
sg20
S'Server description'
p1381
stRp1382
atRp1383
sg15
S'Server'
p1384
stRp1385
ag3
(g4
g5
(dp1386
g411
g3
(g8
g9
(lp1387
g3
(g4
g5
(dp1388
g17
S'Domain'
p1389
sg15
S'stream'
p1390
sg20
S'Stream name'
p1391
stRp1392
ag3
(g4
g5
(dp1393
g17
S'Domain'
p1394
sg15
S'parent'
p1395
sg20
S'Parent stream name'
p1396
stRp1397
ag3
(g4
g5
(dp1398
g17
S'Text'
p1399
sg15
S'title'
p1400
sg20
S'Stream title (alias for the stream name)'
p1401
stRp1402
ag3
(g4
g5
(dp1403
g17
S'StreamType'
p1404
sg15
S'type'
p1405
sg20
S'The type of stream'
p1406
stRp1407
ag3
(g4
g5
(dp1408
g17
S'Date'
p1409
sg15
S'preview'
p1410
sg20
S'Stream template modification time'
p1411
stRp1412
ag3
(g4
g5
(dp1413
g17
S'Change'
p1414
sg15
S'change'
p1415
sg20
S'Last submit to stream'
p1416
stRp1417
ag3
(g4
g5
(dp1418
g17
S'Change'
p1419
sg15
S'copychg'
p1420
sg20
S'Parent change at last copy'
p1421
stRp1422
ag3
(g4
g5
(dp1423
g17
S'Change'
p1424
sg15
S'mergechg'
p1425
sg20
S'Parent change at last merge'
p1426
stRp1427
ag3
(g4
g5
(dp1428
g17
S'Change'
p1429
sg15
S'highchg'
p1430
sg20
S'Highest change at last merge'
p1431
stRp1432
ag3
(g4
g5
(dp1433
g17
S'Int'
p1434
sg15
S'hash'
p1435
sg20
S'Hash value of dynamic branch'
p1436
stRp1437
ag3
(g4
g5
(dp1438
g17
S'StreamStatus'
p1439
sg15
S'status'
p1440
sg20
S'Flow status'
p1441
stRp1442
atRp1443
sg15
S'Stream'
p1444
stRp1445
ag3
(g4
g5
(dp1446
g411
g3
(g8
g9
(lp1447
g3
(g4
g5
(dp1448
g17
S'Domain'
p1449
sg15
S'name'
p1450
sg20
S'Stream name'
p1451
stRp1452
ag3
(g4
g5
(dp1453
g17
S'Change'
p1454
sg15
S'change'
p1455
sg20
S'Versioned at change'
p1456
stRp1457
ag3
(g4
g5
(dp1458
g17
S'Int'
p1459
sg15
S'seq'
p1460
sg20
S'Sequence (line) number'
p1461
stRp1462
ag3
(g4
g5
(dp1463
g17
S'Domain'
p1464
sg15
S'parent'
p1465
sg20
S'Parent stream name'
p1466
stRp1467
ag3
(g4
g5
(dp1468
g17
S'StreamType'
p1469
sg15
S'type'
p1470
sg20
S'Type of stream'
p1471
stRp1472
ag3
(g4
g5
(dp1473
g17
S'StreamPathType'
p1474
sg15
S'path'
p1475
sg20
S'Stream path type'
p1476
stRp1477
ag3
(g4
g5
(dp1478
g17
S'Mapping'
p1479
sg15
S'viewFile'
p1480
sg20
S'View file (left hand side of path)'
p1481
stRp1482
ag3
(g4
g5
(dp1483
g17
S'Mapping'
p1484
sg15
S'depotFile'
p1485
sg20
S'Depot file (right hand side of path)'
p1486
stRp1487
atRp1488
sg15
S'Template'
p1489
stRp1490
ag3
(g4
g5
(dp1491
g411
g3
(g8
g9
(lp1492
g3
(g4
g5
(dp1493
g17
S'Int'
p1494
sg15
S'traitLot'
p1495
sg20
S'Indicates a specific collection of traits (referred to \n\t\t    externally as "attributes".)'
p1496
stRp1497
ag3
(g4
g5
(dp1498
g17
S'String'
p1499
sg15
S'name'
p1500
sg20
S'Trait (attribute) name'
p1501
stRp1502
ag3
(g4
g5
(dp1503
g17
S'TraitType'
p1504
sg15
S'type'
p1505
sg20
S'Type of trait'
p1506
stRp1507
ag3
(g4
g5
(dp1508
g17
S'Octet String'
p1509
sg15
S'value'
p1510
sg20
S'The value'
p1511
stRp1512
atRp1513
sg15
S'Trait'
p1514
stRp1515
ag3
(g4
g5
(dp1516
g411
g3
(g8
g9
(lp1517
g3
(g4
g5
(dp1518
g17
S'Int'
p1519
sg15
S'seq'
p1520
sg20
S'Sequence number: for ordering the trigger list'
p1521
stRp1522
ag3
(g4
g5
(dp1523
g17
S'String'
p1524
sg15
S'name'
p1525
sg20
S'Name of the trigger'
p1526
stRp1527
ag3
(g4
g5
(dp1528
g17
S'MapFlag'
p1529
sg15
S'mapFlag'
p1530
sg20
S'Type of mapping: specifies whether the trigger applies \n\t\t    to the files or not.'
p1531
stRp1532
ag3
(g4
g5
(dp1533
g17
S'Mapping'
p1534
sg15
S'depotFile'
p1535
sg20
S'The files to apply the trigger to'
p1536
stRp1537
ag3
(g4
g5
(dp1538
g17
S'Trigger'
p1539
sg15
S'trigger'
p1540
sg20
S'Type of trigger'
p1541
stRp1542
ag3
(g4
g5
(dp1543
g17
S'Text'
p1544
sg15
S'action'
p1545
sg20
S'Command to execute when trigger runs'
p1546
stRp1547
atRp1548
sg15
S'Trigger'
p1549
stRp1550
ag3
(g4
g5
(dp1551
g411
g3
(g8
g9
(lp1552
g3
(g4
g5
(dp1553
g17
S'User'
p1554
sg15
S'user'
p1555
sg20
S'The username'
p1556
stRp1557
ag3
(g4
g5
(dp1558
g17
S'Text'
p1559
sg15
S'email'
p1560
sg20
S"The user's email address"
p1561
stRp1562
ag3
(g4
g5
(dp1563
g17
S'Text'
p1564
sg15
S'jobView'
p1565
sg20
S"The user's job view"
p1566
stRp1567
ag3
(g4
g5
(dp1568
g17
S'Date'
p1569
sg15
S'updateDate'
p1570
sg20
S'The date/time the user record was last updated'
p1571
stRp1572
ag3
(g4
g5
(dp1573
g17
S'Date'
p1574
sg15
S'accessDate'
p1575
sg20
S'The date/time the user record was last used'
p1576
stRp1577
ag3
(g4
g5
(dp1578
g17
S'Text'
p1579
sg15
S'fullName'
p1580
sg20
S"The user's full name"
p1581
stRp1582
ag3
(g4
g5
(dp1583
g17
S'Password'
p1584
sg15
S'password'
p1585
sg20
S'The MD5 hash of the users (encrypted) password'
p1586
stRp1587
ag3
(g4
g5
(dp1588
g17
S'Strength'
p1589
sg15
S'strength'
p1590
sg20
S"Measure of the strength of the user's password"
p1591
stRp1592
ag3
(g4
g5
(dp1593
g17
S'Password'
p1594
sg15
S'ticket'
p1595
sg20
S"'p4 login' ticket for this user"
p1596
stRp1597
ag3
(g4
g5
(dp1598
g17
S'Date'
p1599
sg15
S'endDate'
p1600
sg20
S"Date/time the user's ticket expires"
p1601
stRp1602
ag3
(g4
g5
(dp1603
g17
S'UserLevel'
p1604
sg15
S'type'
p1605
sg20
S'Type of user'
p1606
stRp1607
ag3
(g4
g5
(dp1608
g17
S'Date'
p1609
sg15
S'passDate'
p1610
sg20
S'Date password was last changed'
p1611
stRp1612
ag3
(g4
g5
(dp1613
g17
S'Date'
p1614
sg15
S'passExpire'
p1615
sg20
S'Date of password expiration'
p1616
stRp1617
atRp1618
sg15
S'User'
p1619
stRp1620
ag3
(g4
g5
(dp1621
g411
g3
(g8
g9
(lp1622
g3
(g4
g5
(dp1623
g17
S'Domain'
p1624
sg15
S'name'
p1625
sg20
S'Domain name to which this view applies'
p1626
stRp1627
ag3
(g4
g5
(dp1628
g17
S'Int'
p1629
sg15
S'seq'
p1630
sg20
S'Sequence number: for ordering multi-line views'
p1631
stRp1632
ag3
(g4
g5
(dp1633
g17
S'MapFlag'
p1634
sg15
S'mapFlag'
p1635
sg20
S'Type of mapping'
p1636
stRp1637
ag3
(g4
g5
(dp1638
g17
S'Mapping'
p1639
sg15
S'viewFile'
p1640
sg20
S"The right-hand-side of the view. For clients, this is\n\t\t    the client-side, for labels it's the generated label \n\t\t    view. For branches, it's the target side of the branch\n\t\t    view."
p1641
stRp1642
ag3
(g4
g5
(dp1643
g17
S'Mapping'
p1644
sg15
S'depotFile'
p1645
sg20
S'The left-hand-side of the view - a mapping to file(s)\n\t\t    in the depot.'
p1646
stRp1647
atRp1648
sg15
S'View'
p1649
stRp1650
ag3
(g4
g5
(dp1651
g411
g3
(g8
g9
(lp1652
g3
(g4
g5
(dp1653
g17
S'File'
p1654
sg15
S'clientFile'
p1655
sg20
S'File on the client'
p1656
stRp1657
ag3
(g4
g5
(dp1658
g17
S'File'
p1659
sg15
S'depotFile'
p1660
sg20
S'File in the depot'
p1661
stRp1662
ag3
(g4
g5
(dp1663
g17
S'Domain'
p1664
sg15
S'client'
p1665
sg20
S'The client the file is opened on'
p1666
stRp1667
ag3
(g4
g5
(dp1668
g17
S'User'
p1669
sg15
S'user'
p1670
sg20
S'The user who has the file opened'
p1671
stRp1672
ag3
(g4
g5
(dp1673
g17
S'Rev'
p1674
sg15
S'haveRev'
p1675
sg20
S"Revision presently in user's client workspace.  This is \n\t\t    normally identical to workRev except for the case in which \n\t\t    you've tried to submit a file where you no longer have the \n\t\t    head revision. Perforce schedules the integrate (moves \n\t\t    workRev to headRev, but doesn't change the haveRev, so that \n\t\t    a p4 revert will return the file originally checked-out \n\t\t    instead of the new head revision."
p1676
stRp1677
ag3
(g4
g5
(dp1678
g17
S'Rev'
p1679
sg15
S'workRev'
p1680
sg20
S'Working revision; this is identical to the haveRev except \n\t\t    in the case described above.'
p1681
stRp1682
ag3
(g4
g5
(dp1683
g17
S'Int'
p1684
sg15
S'isVirtual'
p1685
sg20
S'Flag: if 1, file was opened with "p4 integ -v".'
p1686
stRp1687
ag3
(g4
g5
(dp1688
g17
S'FileType'
p1689
sg15
S'type'
p1690
sg20
S'File type'
p1691
stRp1692
ag3
(g4
g5
(dp1693
g17
S'Action'
p1694
sg15
S'action'
p1695
sg20
S"What the user's doing with the file"
p1696
stRp1697
ag3
(g4
g5
(dp1698
g17
S'Change'
p1699
sg15
S'change'
p1700
sg20
S'Associated changelist, or zero for the default changelist.'
p1701
stRp1702
ag3
(g4
g5
(dp1703
g17
S'Date'
p1704
sg15
S'modTime'
p1705
sg20
S"Modification timestamp on the file in the user's workspace."
p1706
stRp1707
ag3
(g4
g5
(dp1708
g17
S'Int'
p1709
sg15
S'isLocked'
p1710
sg20
S'Flag: 0 for unlocked, 1 for locked.'
p1711
stRp1712
ag3
(g4
g5
(dp1713
g17
S'Digest'
p1714
sg15
S'digest'
p1715
sg20
S'MD5 digest of working file.'
p1716
stRp1717
ag3
(g4
g5
(dp1718
g17
S'Int64'
p1719
sg15
S'size'
p1720
sg20
S'File size'
p1721
stRp1722
ag3
(g4
g5
(dp1723
g17
S'int'
p1724
sg15
S'traitLot'
p1725
sg20
S'Group of traits associated with file revision.'
p1726
stRp1727
ag3
(g4
g5
(dp1728
g17
S'TamperCheck'
p1729
sg15
S'tampered'
p1730
sg20
S'Flag indicating the tamper-state of the file in the\n\t\t    workspace.'
p1731
stRp1732
ag3
(g4
g5
(dp1733
g17
S'FileType'
p1734
sg15
S'clntType'
p1735
sg20
S'Type of the file in the client workspace.'
p1736
stRp1737
ag3
(g4
g5
(dp1738
g17
S'File'
p1739
sg15
S'mFile'
p1740
sg20
S'Moved filename'
p1741
stRp1742
atRp1743
sg15
S'Working'
p1744
stRp1745
atRp1746
stRp1747
sS'upgrades'
p1748
g3
(g4
g5
(dp1749
S'upgrade'
p1750
g3
(g8
g9
(lp1751
g3
(g4
g5
(dp1752
S'release'
p1753
S'2001.1'
p1754
sS'index'
p1755
S'1'
sg20
S'Split db.integ into db.integed and db.resolve'
p1756
stRp1757
ag3
(g4
g5
(dp1758
g1753
S'2001.1'
p1759
sg1755
S'2'
sg20
S'Splt db.have into db.have and db.label'
p1760
stRp1761
ag3
(g4
g5
(dp1762
g1753
S'2002.1'
p1763
sg1755
S'3'
sg20
S'Split db.change into db.change and db.changex'
p1764
stRp1765
ag3
(g4
g5
(dp1766
g1753
S'2002.2'
p1767
sg1755
S'4'
sg20
S'Upgrade tempobj filetype in db.rev'
p1768
stRp1769
ag3
(g4
g5
(dp1770
g1753
S'2002.2'
p1771
sg1755
S'5'
sg20
S'Upgrade tempobj filetype in db.working'
p1772
stRp1773
ag3
(g4
g5
(dp1774
g1753
S'2003.1'
p1775
sg1755
S'6'
sg20
S'JnlInitialize default depot'
p1776
stRp1777
ag3
(g4
g5
(dp1778
g1753
S'2003.2'
p1779
sg1755
S'7'
sg20
S'Upgrade db.user'
p1780
stRp1781
ag3
(g4
g5
(dp1782
g1753
S'2005.1'
p1783
sg1755
S'8'
sg20
S'Build db.revhx (headrev) table'
p1784
stRp1785
ag3
(g4
g5
(dp1786
g1753
S'2005.1'
p1787
sg1755
S'9'
sg20
S'Rebuild db.locks from db.working'
p1788
stRp1789
ag3
(g4
g5
(dp1790
g1753
S'2005.1'
p1791
sg1755
S'10'
p1792
sg116
S'Removed in 2006.2'
p1793
sg20
S'Build lazy-copy index (db.archive)'
p1794
stRp1795
ag3
(g4
g5
(dp1796
g1753
S'2005.2'
p1797
sg1755
S'11'
p1798
sg20
S'Build db.revdx (delrev) table'
p1799
stRp1800
ag3
(g4
g5
(dp1801
g1753
S'2005.2'
p1802
sg1755
S'12'
p1803
sg116
S'Moved to 16 in 2007.3'
p1804
sg20
S'Build haveMap from db.have/db.working'
p1805
stRp1806
ag3
(g4
g5
(dp1807
g1753
S'2005.2'
p1808
sg1755
S'13'
p1809
sg20
S'Move spec depot entries into db.revsx'
p1810
stRp1811
ag3
(g4
g5
(dp1812
g1753
S'2006.2'
p1813
sg1755
S'14'
p1814
sg116
S'Moved to 17 in 2007.3'
p1815
sg20
S'Build db.archmap (lazy-copy map) table'
p1816
stRp1817
ag3
(g4
g5
(dp1818
g1753
S'2006.2'
p1819
sg1755
S'15'
p1820
sg116
S'Moved to 18 in 2007.3'
p1821
sg20
S'Remove (obsolete) db.archive table'
p1822
stRp1823
ag3
(g4
g5
(dp1824
g1753
S'2007.3'
p1825
sg1755
S'16'
p1826
sg116
S'Rewritten in 2007.3'
p1827
sg20
S'Build/Rebuild haveMap from db.have/db.working'
p1828
stRp1829
ag3
(g4
g5
(dp1830
g1753
S'2007.3'
p1831
sg1755
S'17'
p1832
sg116
S'Rewritten in 2007.3'
p1833
sg20
S'Build/Rebuild db.archmap (lazy-copy map) table'
p1834
stRp1835
ag3
(g4
g5
(dp1836
g1753
S'2007.3'
p1837
sg1755
S'18'
p1838
sg116
S'Moved from 15 in 2007.3'
p1839
sg20
S'Remove (obsolete) db.archive table'
p1840
stRp1841
ag3
(g4
g5
(dp1842
g1753
S'2008.1'
p1843
sg1755
S'19'
p1844
sg20
S'Build db.change common path'
p1845
stRp1846
ag3
(g4
g5
(dp1847
g1753
S'2009.2'
p1848
sg1755
S'20'
p1849
sg20
S'Move db.boddate/db.ixdate into db.bodtext/db.ixtext'
p1850
stRp1851
ag3
(g4
g5
(dp1852
g1753
S'2009.2'
p1853
sg1755
S'21'
p1854
sg20
S'Remove db.boddate/db.ixdate'
p1855
stRp1856
ag3
(g4
g5
(dp1857
g1753
S'2010.2'
p1858
sg1755
S'22'
p1859
sg20
S'Add db.config'
p1860
stRp1861
ag3
(g4
g5
(dp1862
g1753
S'2011.1'
p1863
sg1755
S'23'
p1864
sg20
S'Upgrade tiny.db'
p1865
stRp1866
atRp1867
stRp1868
sS'datatypes'
p1869
g3
(g4
g5
(dp1870
S'datatype'
p1871
g3
(g8
g9
(lp1872
g3
(g4
g5
(dp1873
g17
S'flag'
p1874
sS'summary'
p1875
S'Type of action'
p1876
sS'values'
p1877
g3
(g8
g9
(lp1878
g3
(g4
g5
(dp1879
S'value'
p1880
S'0'
sg20
S'add; user adds a file'
p1881
stRp1882
ag3
(g4
g5
(dp1883
g1880
S'1'
sg20
S'edit; user edits a file'
p1884
stRp1885
ag3
(g4
g5
(dp1886
g1880
S'2'
sg20
S'delete; user deletes a file'
p1887
stRp1888
ag3
(g4
g5
(dp1889
g1880
S'3'
sg20
S'branch; add via integration'
p1890
stRp1891
ag3
(g4
g5
(dp1892
g1880
S'4'
sg20
S'integ; edit via integration'
p1893
stRp1894
ag3
(g4
g5
(dp1895
g1880
S'5'
sg20
S'import; add via remote depot'
p1896
stRp1897
ag3
(g4
g5
(dp1898
g1880
S'6'
sg20
S'purge; purged revision, no longer available'
p1899
stRp1900
ag3
(g4
g5
(dp1901
g1880
S'7'
sg20
S'movefrom; move from another filename'
p1902
stRp1903
ag3
(g4
g5
(dp1904
g1880
S'8'
sg20
S'moveto; move to another filename'
p1905
stRp1906
ag3
(g4
g5
(dp1907
g1880
S'9'
sg20
S'archive; stored in archive depot'
p1908
stRp1909
atRp1910
sg15
S'Action'
p1911
sg20
S'Revisions are produced by user actions. The Action\n\t\ttype defines the available actions and their internal values.'
p1912
stRp1913
ag3
(g4
g5
(dp1914
g1875
S'A changelist number'
p1915
sg17
S'integer'
p1916
sg15
S'Change'
p1917
sg20
S'The number of a changelist. The number 0 represents the\n\t\tdefault pending changelist.'
p1918
stRp1919
ag3
(g4
g5
(dp1920
g17
S'flag'
p1921
sg1875
S'The status of a change'
p1922
sg1877
g3
(g8
g9
(lp1923
g3
(g4
g5
(dp1924
g1880
S'0'
sg20
S'pending'
p1925
stRp1926
ag3
(g4
g5
(dp1927
g1880
S'1'
sg20
S'committed'
p1928
stRp1929
ag3
(g4
g5
(dp1930
g1880
S'2'
sg20
S'shelved'
p1931
stRp1932
ag3
(g4
g5
(dp1933
g1880
S'4'
sg20
S'restricted, pending'
p1934
stRp1935
ag3
(g4
g5
(dp1936
g1880
S'5'
sg20
S'restricted, committed'
p1937
stRp1938
ag3
(g4
g5
(dp1939
g1880
S'6'
sg20
S'restricted, shelved'
p1940
stRp1941
atRp1942
sg15
S'ChangeStatus'
p1943
sg20
S'A integer value representing the status of a change'
p1944
stRp1945
ag3
(g4
g5
(dp1946
g1875
S'A counter name'
p1947
sg17
S'string'
p1948
sg15
S'Counter'
p1949
sg20
S'A string representing the counter name. Counter names must \n\t\tcontain no spaces, contain no slashes, and be identifiers \n\t\t(cannot begin with a dash and cannot be all-numeric)'
p1950
stRp1951
ag3
(g4
g5
(dp1952
g1875
S'A unix-style date and time'
p1953
sg17
S'integer'
p1954
sg15
S'Date'
p1955
sg20
S'A date and time represented as the number of seconds since \n\t\tthe Epoch: 01 January 1970 00:00:00 UTC. This is the same \n\t\tconvention as that used on Unix platforms.'
p1956
stRp1957
ag3
(g4
g5
(dp1958
g17
S'flag'
p1959
sg1875
S'Type of Depot'
p1960
sg1877
g3
(g8
g9
(lp1961
g3
(g4
g5
(dp1962
g1880
S'0'
sg20
S'local depot'
p1963
stRp1964
ag3
(g4
g5
(dp1965
g1880
S'1'
sg20
S'remote depot'
p1966
stRp1967
ag3
(g4
g5
(dp1968
g1880
S'2'
sg20
S'spec depot'
p1969
stRp1970
ag3
(g4
g5
(dp1971
g1880
S'3'
sg20
S'stream depot'
p1972
stRp1973
ag3
(g4
g5
(dp1974
g1880
S'4'
sg20
S'archive depot'
p1975
stRp1976
ag3
(g4
g5
(dp1977
g1880
S'5'
sg20
S'unload depot'
p1978
stRp1979
atRp1980
sg15
S'DepotType'
p1981
sg20
S'The type of a given depot'
p1982
stRp1983
ag3
(g4
g5
(dp1984
g1875
S'A short string value'
p1985
sg20
S'The first 31 characters of a Text string'
p1986
sg17
S'string'
p1987
sg15
S'DescShort'
p1988
sg121
S'Text'
p1989
stRp1990
ag3
(g4
g5
(dp1991
g1875
S'An MD5 digest'
p1992
sg17
S'string'
p1993
sg15
S'Digest'
p1994
sg20
S'A string containing an MD5 digest.'
p1995
stRp1996
ag3
(g4
g5
(dp1997
g1875
S'A domain name'
p1998
sg17
S'string'
p1999
sg15
S'Domain'
p2000
sg20
S'A string representing the name of a depot, label, client,\n\t\tbranch, typemap, or stream.'
p2001
stRp2002
ag3
(g4
g5
(dp2003
g1875
S'A string with optional wildcards'
p2004
sg17
S'string'
p2005
sg15
S'DomainWild'
p2006
sg20
S'A string that may contain wildcards - usually an IP address\n\t\tin the protections table.'
p2007
stRp2008
ag3
(g4
g5
(dp2009
g1877
g3
(g8
g9
(lp2010
g3
(g4
g5
(dp2011
S'mask'
p2012
S'Domain Flags'
p2013
sg1880
S'0x0001'
p2014
sg20
S'modtime'
p2015
stRp2016
ag3
(g4
g5
(dp2017
g2012
S'Domain Flags'
p2018
sg1880
S'0x0002'
p2019
sg20
S'clobber'
p2020
stRp2021
ag3
(g4
g5
(dp2022
g2012
S'Domain Flags'
p2023
sg1880
S'0x0004'
p2024
sg20
S'allwrite'
p2025
stRp2026
ag3
(g4
g5
(dp2027
g2012
S'Domain Flags'
p2028
sg1880
S'0x0008'
p2029
sg20
S'locked'
p2030
stRp2031
ag3
(g4
g5
(dp2032
g2012
S'Domain Flags'
p2033
sg1880
S'0x0020'
p2034
sg20
S'compress'
p2035
stRp2036
ag3
(g4
g5
(dp2037
g2012
S'Domain Flags'
p2038
sg1880
S'0x0040'
p2039
sg20
S'rmdir'
p2040
stRp2041
ag3
(g4
g5
(dp2042
g2012
S'Domain Flags'
p2043
sg1880
S'0x1000'
p2044
sg20
S'indirect (obsolete since 2004.2)'
p2045
stRp2046
ag3
(g4
g5
(dp2047
g2012
S'Domain Flags'
p2048
sg1880
S'0x8000'
p2049
sg20
S'autoreload'
p2050
stRp2051
ag3
(g4
g5
(dp2052
g2012
S'Domain LineEnd'
p2053
sg1880
S'0x0000'
p2054
sg20
S'local'
p2055
stRp2056
ag3
(g4
g5
(dp2057
g2012
S'Domain LineEnd'
p2058
sg1880
S'0x0010'
p2059
sg20
S'unix (LF)'
p2060
stRp2061
ag3
(g4
g5
(dp2062
g2012
S'Domain LineEnd'
p2063
sg1880
S'0x0200'
p2064
sg20
S'mac (CR)'
p2065
stRp2066
ag3
(g4
g5
(dp2067
g2012
S'Domain LineEnd'
p2068
sg1880
S'0x0300'
p2069
sg20
S'win (CRLF)'
p2070
stRp2071
ag3
(g4
g5
(dp2072
g2012
S'Domain LineEnd'
p2073
sg1880
S'0x0400'
p2074
sg20
S'share (LF/CRLF)'
p2075
stRp2076
ag3
(g4
g5
(dp2077
g2012
S'Domain SubmitMask'
p2078
sg1880
S'0x1000'
p2079
sg20
S'Revert unchanged files'
p2080
stRp2081
ag3
(g4
g5
(dp2082
g2012
S'Domain SubmitMask'
p2083
sg1880
S'0x2000'
p2084
sg20
S'Leave unchanged files'
p2085
stRp2086
ag3
(g4
g5
(dp2087
g2012
S'Domain SubmitMask'
p2088
sg1880
S'0x4000'
p2089
sg20
S'Submit, and re-open unchanged files'
p2090
stRp2091
ag3
(g4
g5
(dp2092
g2012
S'Domain StreamMask'
p2093
sg1880
S'0x0001'
p2094
sg20
S'ownersubmit'
p2095
stRp2096
ag3
(g4
g5
(dp2097
g2012
S'Domain StreamMask'
p2098
sg1880
S'0x0002'
p2099
sg20
S'locked'
p2100
stRp2101
ag3
(g4
g5
(dp2102
g2012
S'Domain StreamMask'
p2103
sg1880
S'0x0004'
p2104
sg20
S'change flows to parent'
p2105
stRp2106
ag3
(g4
g5
(dp2107
g2012
S'Domain StreamMask'
p2108
sg1880
S'0x0008'
p2109
sg20
S'change flows from parent'
p2110
stRp2111
atRp2112
sg15
S'DomainOpts'
p2113
sg2012
g3
(g8
g9
(lp2114
g3
(g4
g5
(dp2115
g15
S'Domain Flags'
p2116
sg1880
S'0x10EF'
p2117
sg20
S'Bits used to store client, label, and branch options'
p2118
stRp2119
ag3
(g4
g5
(dp2120
g15
S'Domain LineEnd'
p2121
sg1880
S'0x0710'
p2122
sg20
S'Bits used to store client line termination settings.'
p2123
stRp2124
ag3
(g4
g5
(dp2125
g15
S'Domain SubmitMask'
p2126
sg1880
S'0x7000'
p2127
sg20
S'Bits used to store client submit options'
p2128
stRp2129
ag3
(g4
g5
(dp2130
g15
S'Domain StreamMask'
p2131
sg1880
S'0x000F'
p2132
sg20
S'Bits used to store stream options'
p2133
stRp2134
atRp2135
sg1875
S'Options for domains'
p2136
sg17
S'bitmask'
p2137
sg20
S'A integer value representing the options for a domain'
p2138
stRp2139
ag3
(g4
g5
(dp2140
g17
S'flag'
p2141
sg1875
S'A domain type'
p2142
sg1877
g3
(g8
g9
(lp2143
g3
(g4
g5
(dp2144
g1880
S"67 (ASCII 'C')"
p2145
sg20
S'unloaded client'
p2146
stRp2147
ag3
(g4
g5
(dp2148
g1880
S"76 (ASCII 'L')"
p2149
sg20
S'unloaded label'
p2150
stRp2151
ag3
(g4
g5
(dp2152
g1880
S"98 (ASCII 'b')"
p2153
sg20
S'branch'
p2154
stRp2155
ag3
(g4
g5
(dp2156
g1880
S"99 (ASCII 'c')"
p2157
sg20
S'client'
p2158
stRp2159
ag3
(g4
g5
(dp2160
g1880
S"100 (ASCII 'd')"
p2161
sg20
S'depot'
p2162
stRp2163
ag3
(g4
g5
(dp2164
g1880
S"108 (ASCII 'l')"
p2165
sg20
S'label'
p2166
stRp2167
ag3
(g4
g5
(dp2168
g1880
S"115 (ASCII 's')"
p2169
sg20
S'stream'
p2170
stRp2171
ag3
(g4
g5
(dp2172
g1880
S"116 (ASCII 't')"
p2173
sg20
S'typemap'
p2174
stRp2175
atRp2176
sg15
S'DomainType'
p2177
sg20
S'A integer value representing the type of a domain'
p2178
stRp2179
ag3
(g4
g5
(dp2180
g1875
S'A file name'
p2181
sg20
S'A string representing the filename'
p2182
sg17
S'string'
p2183
sg15
S'File'
p2184
sg121
S'FileType'
p2185
stRp2186
ag3
(g4
g5
(dp2187
g1875
S'A file size'
p2188
sg17
S'integer'
p2189
sg15
S'FileSize'
p2190
sg20
S'A 64-bit integer used to store file sizes. The value -1 is\n\t\tused to represent unknown filesizes.'
p2191
stRp2192
ag3
(g4
g5
(dp2193
g1877
g3
(g8
g9
(lp2194
g3
(g4
g5
(dp2195
g2012
S'Storage Type'
p2196
sg1880
S'0x0000'
p2197
sg20
S'RCS'
p2198
stRp2199
ag3
(g4
g5
(dp2200
g2012
S'Storage Type'
p2201
sg1880
S'0x0001'
p2202
sg20
S'Binary'
p2203
stRp2204
ag3
(g4
g5
(dp2205
g2012
S'Storage Type'
p2206
sg1880
S'0x0002'
p2207
sg20
S'Tiny'
p2208
stRp2209
ag3
(g4
g5
(dp2210
g2012
S'Storage Type'
p2211
sg1880
S'0x0003'
p2212
sg20
S'Compressed'
p2213
stRp2214
ag3
(g4
g5
(dp2215
g2012
S'Storage Type'
p2216
sg1880
S'0x0004'
p2217
sg20
S'tempobj (deprecated since 2002.1)'
p2218
stRp2219
ag3
(g4
g5
(dp2220
g2012
S'Storage Type'
p2221
sg1880
S'0x0005'
p2222
sg20
S'Detect type. Used internally when no type is\n\t\t    given by the user.'
p2223
stRp2224
ag3
(g4
g5
(dp2225
g2012
S'Storage Type'
p2226
sg1880
S'0x0006'
p2227
sg20
S'Comressed tempobj (deprecated since 2002.1)'
p2228
stRp2229
ag3
(g4
g5
(dp2230
g2012
S'Storage Type'
p2231
sg1880
S'0x0007'
p2232
sg20
S'Binary access to compressed data. Used internally.'
p2233
stRp2234
ag3
(g4
g5
(dp2235
g2012
S'Storage Type'
p2236
sg1880
S'0x0008'
p2237
sg20
S'Stored externally via librarian trigger'
p2238
stRp2239
ag3
(g4
g5
(dp2240
g2012
S'Storage Mods'
p2241
sg1880
S'0x0010'
p2242
sg20
S'99.2-style keyword expansion/contraction'
p2243
stRp2244
ag3
(g4
g5
(dp2245
g2012
S'Storage Mods'
p2246
sg1880
S'0x0020'
p2247
sg20
S'2000.1-style keyword expansion/contraction'
p2248
stRp2249
ag3
(g4
g5
(dp2250
g2012
S'Storage Mods'
p2251
sg1880
S'0x0030'
p2252
sg20
S'Any type of keyword expansion'
p2253
stRp2254
ag3
(g4
g5
(dp2255
g2012
S'Storage Mods'
p2256
sg1880
S'0x0040'
p2257
sg20
S'Exclusive open'
p2258
stRp2259
ag3
(g4
g5
(dp2260
g2012
S'Storage Mods'
p2261
sg1880
S'0x0080'
p2262
sg20
S'New tempobj (+S modifier)'
p2263
stRp2264
ag3
(g4
g5
(dp2265
g2012
S'Tempobj revisions'
p2266
sg1880
S'0x0000'
p2267
sg20
S'+S1'
p2268
stRp2269
ag3
(g4
g5
(dp2270
g2012
S'Tempobj revisions'
p2271
sg1880
S'0x0100'
p2272
sg20
S'+S2'
p2273
stRp2274
ag3
(g4
g5
(dp2275
g2012
S'Tempobj revisions'
p2276
sg1880
S'0x0200'
p2277
sg20
S'+S3'
p2278
stRp2279
ag3
(g4
g5
(dp2280
g2012
S'Tempobj revisions'
p2281
sg1880
S'0x0300'
p2282
sg20
S'+S4'
p2283
stRp2284
ag3
(g4
g5
(dp2285
g2012
S'Tempobj revisions'
p2286
sg1880
S'0x0400'
p2287
sg20
S'+S5'
p2288
stRp2289
ag3
(g4
g5
(dp2290
g2012
S'Tempobj revisions'
p2291
sg1880
S'0x0500'
p2292
sg20
S'+S6'
p2293
stRp2294
ag3
(g4
g5
(dp2295
g2012
S'Tempobj revisions'
p2296
sg1880
S'0x0600'
p2297
sg20
S'+S7'
p2298
stRp2299
ag3
(g4
g5
(dp2300
g2012
S'Tempobj revisions'
p2301
sg1880
S'0x0700'
p2302
sg20
S'+S8'
p2303
stRp2304
ag3
(g4
g5
(dp2305
g2012
S'Tempobj revisions'
p2306
sg1880
S'0x0800'
p2307
sg20
S'+S9'
p2308
stRp2309
ag3
(g4
g5
(dp2310
g2012
S'Tempobj revisions'
p2311
sg1880
S'0x0900'
p2312
sg20
S'+S10'
p2313
stRp2314
ag3
(g4
g5
(dp2315
g2012
S'Tempobj revisions'
p2316
sg1880
S'0x0A00'
p2317
sg20
S'+S16'
p2318
stRp2319
ag3
(g4
g5
(dp2320
g2012
S'Tempobj revisions'
p2321
sg1880
S'0x0B00'
p2322
sg20
S'+S32'
p2323
stRp2324
ag3
(g4
g5
(dp2325
g2012
S'Tempobj revisions'
p2326
sg1880
S'0x0C00'
p2327
sg20
S'+S64'
p2328
stRp2329
ag3
(g4
g5
(dp2330
g2012
S'Tempobj revisions'
p2331
sg1880
S'0x0D00'
p2332
sg20
S'+S128'
p2333
stRp2334
ag3
(g4
g5
(dp2335
g2012
S'Tempobj revisions'
p2336
sg1880
S'0x0E00'
p2337
sg20
S'+S256'
p2338
stRp2339
ag3
(g4
g5
(dp2340
g2012
S'Tempobj revisions'
p2341
sg1880
S'0x0F00'
p2342
sg20
S'+S512'
p2343
stRp2344
ag3
(g4
g5
(dp2345
g2012
S'Client Type'
p2346
sg1880
S'0x0000000'
p2347
sg20
S'text'
p2348
stRp2349
ag3
(g4
g5
(dp2350
g2012
S'Client Type'
p2351
sg1880
S'0x0010000'
p2352
sg20
S'binary'
p2353
stRp2354
ag3
(g4
g5
(dp2355
g2012
S'Client Type'
p2356
sg1880
S'0x0020000'
p2357
sg20
S'executable bit set'
p2358
stRp2359
ag3
(g4
g5
(dp2360
g2012
S'Client Type'
p2361
sg1880
S'0x0040000'
p2362
sg20
S'symlink'
p2363
stRp2364
ag3
(g4
g5
(dp2365
g2012
S'Client Type'
p2366
sg1880
S'0x0050000'
p2367
sg20
S'resource fork'
p2368
stRp2369
ag3
(g4
g5
(dp2370
g2012
S'Client Type'
p2371
sg1880
S'0x0080000'
p2372
sg20
S'unicode'
p2373
stRp2374
ag3
(g4
g5
(dp2375
g2012
S'Client Type'
p2376
sg1880
S'0x0090000'
p2377
sg20
S'raw text (nocrlf - 99.1)'
p2378
stRp2379
ag3
(g4
g5
(dp2380
g2012
S'Client Type'
p2381
sg1880
S'0x00C0000'
p2382
sg20
S'apple data + resource file (since 2000.2)'
p2383
stRp2384
ag3
(g4
g5
(dp2385
g2012
S'Client Type'
p2386
sg1880
S'0x00D0000'
p2387
sg20
S'apple data + resource file (99.2)'
p2388
stRp2389
ag3
(g4
g5
(dp2390
g2012
S'Client Type'
p2391
sg1880
S'0x1000000'
p2392
sg20
S'Used to support filetype detection'
p2393
stRp2394
ag3
(g4
g5
(dp2395
g2012
S'Client Mods'
p2396
sg1880
S'0x0100000'
p2397
sg20
S'writable'
p2398
stRp2399
ag3
(g4
g5
(dp2400
g2012
S'Client Mods'
p2401
sg1880
S'0x0200000'
p2402
sg20
S'modtime'
p2403
stRp2404
ag3
(g4
g5
(dp2405
g2012
S'Client Mods'
p2406
sg1880
S'0x0400000'
p2407
sg20
S'uncompress on client'
p2408
stRp2409
atRp2410
sg15
S'FileType'
p2411
sg2012
g3
(g8
g9
(lp2412
g3
(g4
g5
(dp2413
g15
S'Storage Type'
p2414
sg1880
S'0x000F'
p2415
sg20
S"Bits used to store the server's storage type"
p2416
stRp2417
ag3
(g4
g5
(dp2418
g15
S'Storage Mods'
p2419
sg1880
S'0x00F0'
p2420
sg20
S"Bits used to store the modifiers to the server's storage \n\t\t    type"
p2421
stRp2422
ag3
(g4
g5
(dp2423
g15
S'Tempobj revisions'
p2424
sg1880
S'0x0F00'
p2425
sg20
S'Bits used to store the number of revisions to be stored\n\t\t    for +Sn files.'
p2426
stRp2427
ag3
(g4
g5
(dp2428
g15
S'Client Type'
p2429
sg1880
S'0x10D0000'
p2430
sg20
S"Bits used to store the file type from the client's point\n\t\t    of view."
p2431
stRp2432
ag3
(g4
g5
(dp2433
g15
S'Client Mods'
p2434
sg1880
S'0x720000'
p2435
sg20
S'Bits used to store the modifiers applied to the file\n\t\t    on the client.'
p2436
stRp2437
atRp2438
sg1875
S'Type of file'
p2439
sg17
S'bitmask'
p2440
sg20
S'The FileType is a bitmask specifying the type and modifiers\n\t\tof a revision from both the client and server points of view.\n\t\tThe first 16 bits are used to store the storage type and \n\t\tmodifiers, the next 16 bits are used to store the client \n\t\taccess method and modifiers.'
p2441
stRp2442
ag3
(g4
g5
(dp2443
g1875
S'Status of a fixed job'
p2444
sg17
S'string'
p2445
sg15
S'FixStatus'
p2446
sg20
S'This type is a wrapper around the \'Text\' type that handles\n\t\tthe pre-2000.1 "closed" default value.'
p2447
stRp2448
ag3
(g4
g5
(dp2449
g1875
S'A 32-bit integer'
p2450
sg17
S'integer'
p2451
sg15
S'Int'
p2452
sg20
S'A 32-bit integer'
p2453
stRp2454
ag3
(g4
g5
(dp2455
g1875
S'An 8-bit integer'
p2456
sg17
S'integer'
p2457
sg15
S'Int8'
p2458
sg20
S'An 8-bit integer: an unsigned char'
p2459
stRp2460
ag3
(g4
g5
(dp2461
g1875
S'A 64-bit integer'
p2462
sg17
S'integer'
p2463
sg15
S'Int64'
p2464
sg20
S'A 64-bit integer.'
p2465
stRp2466
ag3
(g4
g5
(dp2467
g116
S'All integration records should have a corresponding \n\t\treverse record. The \'branch from\' (2) and \'merge from\' (0) \n\t\trecords have corresponding "dirty" reverse records for cases \n\t\twhere the target file took more than one change or was \n\t\t(re)opened for \'edit\' or \'add\'.'
p2468
sg1877
g3
(g8
g9
(lp2469
g3
(g4
g5
(dp2470
g1880
S'0'
sg20
S'merge from: integration with other changes'
p2471
stRp2472
ag3
(g4
g5
(dp2473
g1880
S'1'
sg20
S'merge into: reverse merge'
p2474
stRp2475
ag3
(g4
g5
(dp2476
g1880
S'2'
sg20
S'branch from: integration was branch of file'
p2477
stRp2478
ag3
(g4
g5
(dp2479
g1880
S'3'
sg20
S'branch into: reverse branch'
p2480
stRp2481
ag3
(g4
g5
(dp2482
g1880
S'4'
sg20
S'copy from: integration took source file whole'
p2483
stRp2484
ag3
(g4
g5
(dp2485
g1880
S'5'
sg20
S'copy into: reverse take'
p2486
stRp2487
ag3
(g4
g5
(dp2488
g1880
S'6'
sg20
S'ignored: integration ignored source changes'
p2489
stRp2490
ag3
(g4
g5
(dp2491
g1880
S'7'
sg20
S'ignored by: reverse copy'
p2492
stRp2493
ag3
(g4
g5
(dp2494
g1880
S'8'
sg20
S'delete from: integration of delete'
p2495
stRp2496
ag3
(g4
g5
(dp2497
g1880
S'9'
sg20
S'delete into: reverse delete'
p2498
stRp2499
ag3
(g4
g5
(dp2500
g1880
S'10'
p2501
sg20
S'edit into: reverse of integration downgraded to \n\t\t    edit'
p2502
stRp2503
ag3
(g4
g5
(dp2504
g1880
S'11'
p2505
sg20
S'add into: reverse of branch downgraded to add'
p2506
stRp2507
ag3
(g4
g5
(dp2508
g1880
S'12'
p2509
sg20
S'edit from: merge that the user edited'
p2510
stRp2511
ag3
(g4
g5
(dp2512
g1880
S'13'
p2513
sg20
S'add from: branch downgraded to add'
p2514
stRp2515
ag3
(g4
g5
(dp2516
g1880
S'14'
p2517
sg20
S'moved from: reverse of renamed file'
p2518
stRp2519
ag3
(g4
g5
(dp2520
g1880
S'15'
p2521
sg20
S'moved into: file was renamed'
p2522
stRp2523
ag3
(g4
g5
(dp2524
g1880
S'16'
p2525
sg20
S"'delete' target rev ignoring non-deleted source"
p2526
stRp2527
ag3
(g4
g5
(dp2528
g1880
S'17'
p2529
sg20
S"non-deleted source ignored by 'delete' target rev"
p2530
stRp2531
ag3
(g4
g5
(dp2532
g1880
S'18'
p2533
sg20
S"'integrate' target rev ignoring deleted source"
p2534
stRp2535
ag3
(g4
g5
(dp2536
g1880
S'19'
p2537
sg20
S"deleted source ignored by 'integrate' target rev"
p2538
stRp2539
atRp2540
sg15
S'IntegHow'
p2541
sg1875
S'Integration methods'
p2542
sg17
S'flag'
p2543
sg20
S"Specifies how an integration was performed. Integrations\n\t\talways come in pairs: the 'forward' and 'reverse' records.\n\t\tAs a general rule, the forward records contain the word \n\t\t'from'; and the reverse records contain the word 'into'."
p2544
stRp2545
ag3
(g4
g5
(dp2546
g17
S'flag'
p2547
sg1875
S'Job status - defunct'
p2548
sg1877
g3
(g8
g9
(lp2549
g3
(g4
g5
(dp2550
g1880
S'0'
sg20
S'open'
p2551
stRp2552
ag3
(g4
g5
(dp2553
g1880
S'1'
sg20
S'closed'
p2554
stRp2555
ag3
(g4
g5
(dp2556
g1880
S'2'
sg20
S'suspended'
p2557
stRp2558
atRp2559
sg15
S'JobStat'
p2560
sg20
S'Old (pre-98.2) job status values.'
p2561
stRp2562
ag3
(g4
g5
(dp2563
g17
S'flag'
p2564
sg1875
S'Types of mapping'
p2565
sg1877
g3
(g8
g9
(lp2566
g3
(g4
g5
(dp2567
g1880
S'0'
sg20
S'mapped-in (the default)'
p2568
stRp2569
ag3
(g4
g5
(dp2570
g1880
S'1'
sg20
S"mapped-out (mappings that start with '-')"
p2571
stRp2572
ag3
(g4
g5
(dp2573
g1880
S'2'
sg20
S"overlay (mappings that start with '+')"
p2574
stRp2575
ag3
(g4
g5
(dp2576
g1880
S'3'
sg20
S"haveMap (mappings that start with '$'). Used internally\n\t\t    only"
p2577
stRp2578
atRp2579
sg15
S'MapFlag'
p2580
sg20
S'Specifies how the files specified by a mapping should be\n\t\ttreated'
p2581
stRp2582
ag3
(g4
g5
(dp2583
g1875
S'A string representing a mapping'
p2584
sg17
S'string'
p2585
sg15
S'Mapping'
p2586
sg20
S'A Mapping is essentially a file name that may contain\n\t\twildcards'
p2587
stRp2588
ag3
(g4
g5
(dp2589
g1875
S'Maximum number of milliseconds to hold locks'
p2590
sg17
S'integer'
p2591
sg15
S'MaxLockTime'
p2592
sg20
S"The number of milliseconds for which a command may hold locks.\n\t\tCommands that take longer than this time period will abort. \n\t\tThe value 0 means 'unlimited'."
p2593
stRp2594
ag3
(g4
g5
(dp2595
g1875
S'Maximum number of results permitted'
p2596
sg17
S'integer'
p2597
sg15
S'MaxResults'
p2598
sg20
S"The number of results that commands run by the restricted\n\t\tuser are permitted to return. The value 0 means 'unlimited'."
p2599
stRp2600
ag3
(g4
g5
(dp2601
g1875
S'Maximum number of records scanned'
p2602
sg17
S'integer'
p2603
sg15
S'MaxScanRows'
p2604
sg20
S"The maximum number of records that the server may read\n\t\ton behalf of the restricted user. The value 0 means \n\t\t'unlimited'."
p2605
stRp2606
ag3
(g4
g5
(dp2607
g1875
S'Encoded hex string'
p2608
sg17
S'string'
p2609
sg15
S'Octet String'
p2610
sg20
S'A variable length encoded hex string. The first octet \n\t\tstores the length of the string.'
p2611
stRp2612
ag3
(g4
g5
(dp2613
g1875
S'The MD5 hash of a password'
p2614
sg17
S'string'
p2615
sg15
S'Password'
p2616
sg20
S'The MD5 hash of an encrypted password.'
p2617
stRp2618
ag3
(g4
g5
(dp2619
g1877
g3
(g8
g9
(lp2620
g3
(g4
g5
(dp2621
g2012
S'PermTypeBits'
p2622
sg15
S'List'
p2623
sg1880
S'0x0001'
p2624
sg20
S'Grants list access'
p2625
stRp2626
ag3
(g4
g5
(dp2627
g2012
S'PermTypeBits'
p2628
sg15
S'Read'
p2629
sg1880
S'0x0002'
p2630
sg20
S'Grants read access'
p2631
stRp2632
ag3
(g4
g5
(dp2633
g2012
S'PermTypeBits'
p2634
sg15
S'Branch'
p2635
sg1880
S'0x0004'
p2636
sg20
S'Grants ability to branch/integ from'
p2637
stRp2638
ag3
(g4
g5
(dp2639
g2012
S'PermTypeBits'
p2640
sg15
S'Open'
p2641
sg1880
S'0x0008'
p2642
sg20
S'Grants open access'
p2643
stRp2644
ag3
(g4
g5
(dp2645
g2012
S'PermTypeBits'
p2646
sg15
S'Write'
p2647
sg1880
S'0x0010'
p2648
sg20
S'Grants write access'
p2649
stRp2650
ag3
(g4
g5
(dp2651
g2012
S'PermTypeBits'
p2652
sg15
S'Review'
p2653
sg1880
S'0x0020'
p2654
sg20
S'Grants review access'
p2655
stRp2656
ag3
(g4
g5
(dp2657
g2012
S'PermTypeBits'
p2658
sg15
S'Admin'
p2659
sg1880
S'0x0080'
p2660
sg20
S'Grants admin access'
p2661
stRp2662
ag3
(g4
g5
(dp2663
g2012
S'PermTypeBits'
p2664
sg15
S'Super'
p2665
sg1880
S'0x0040'
p2666
sg20
S'Grants super-user access'
p2667
stRp2668
atRp2669
sg15
S'Perm'
p2670
sg2012
g3
(g4
g5
(dp2671
g15
S'PermTypeBits'
p2672
sg1880
S'0x00FF'
p2673
sg20
S'Bits used to store granted permissions'
p2674
stRp2675
sg1875
S'Bitmask of permissions'
p2676
sg17
S'bitmask'
p2677
sg20
S'A bitmask of granted permissions'
p2678
stRp2679
ag3
(g4
g5
(dp2680
g17
S'flag'
p2681
sg1875
S'Resolve actions'
p2682
sg1877
g3
(g8
g9
(lp2683
g3
(g4
g5
(dp2684
g1880
S'0'
sg20
S'Content resolve'
p2685
stRp2686
ag3
(g4
g5
(dp2687
g1880
S'1'
sg20
S'Filetype resolve'
p2688
stRp2689
ag3
(g4
g5
(dp2690
g1880
S'2'
sg20
S'Branch resolve'
p2691
stRp2692
ag3
(g4
g5
(dp2693
g1880
S'3'
sg20
S'Delete resolve'
p2694
stRp2695
ag3
(g4
g5
(dp2696
g1880
S'4'
sg20
S'Move resolve'
p2697
stRp2698
atRp2699
sg15
S'ResolveState'
p2700
sg20
S'Pending or completed resolve actions.'
p2701
stRp2702
ag3
(g4
g5
(dp2703
g17
S'flag'
p2704
sg1875
S'Resolve methods (obsolete in 2011.1, replaced by ResolveState)'
p2705
sg1877
g3
(g8
g9
(lp2706
g3
(g4
g5
(dp2707
g1880
S'0'
sg20
S'Not yet resolved'
p2708
stRp2709
ag3
(g4
g5
(dp2710
g1880
S'1'
sg20
S'Resolved manually'
p2711
stRp2712
ag3
(g4
g5
(dp2713
g1880
S'2'
sg20
S'Resolved automatically as part of a branch'
p2714
stRp2715
ag3
(g4
g5
(dp2716
g1880
S'3'
sg20
S'Resolved automatically as part of a delete'
p2717
stRp2718
ag3
(g4
g5
(dp2719
g1880
S'4'
sg20
S'Resolved automatically as part of a move'
p2720
stRp2721
atRp2722
sg15
S'ResolvedStatus'
p2723
sg20
S'Specifies how the user resolved merge operations.'
p2724
stRp2725
ag3
(g4
g5
(dp2726
g1875
S'A revision number'
p2727
sg17
S'integer'
p2728
sg15
S'Rev'
p2729
sg20
S"The positive integer number of a specific revision of a file. \n\t\tThe number 0 represents '#none'."
p2730
stRp2731
ag3
(g4
g5
(dp2732
g1875
S'Type of reviewer'
p2733
sg17
S'integer'
p2734
sg15
S'Reviewer'
p2735
sg20
S'The type of reviewer. Currently there is only one type of\n\t\treviewer and 0 is the only valid value.'
p2736
stRp2737
ag3
(g4
g5
(dp2738
g17
S'flag'
p2739
sg1875
S'The type of server'
p2740
sg1877
g3
(g8
g9
(lp2741
g3
(g4
g5
(dp2742
g1880
S'0'
sg20
S'standard'
p2743
stRp2744
ag3
(g4
g5
(dp2745
g1880
S'1'
sg20
S'proxy'
p2746
stRp2747
ag3
(g4
g5
(dp2748
g1880
S'2'
sg20
S'broker'
p2749
stRp2750
atRp2751
sg15
S'ServerType'
p2752
sg20
S'The type of server'
p2753
stRp2754
ag3
(g4
g5
(dp2755
g1877
g3
(g8
g9
(lp2756
g3
(g4
g5
(dp2757
g2012
S'Service Set Value'
p2758
sg1880
S'0x0903'
p2759
sg20
S'standard \t\t( db-read | db-write | rmt-depot | rmt-journal )'
p2760
stRp2761
ag3
(g4
g5
(dp2762
g2012
S'Service Set Value'
p2763
sg1880
S'0x0045'
p2764
sg20
S'replica \t\t( db-read | db-replication | file-replication )'
p2765
stRp2766
ag3
(g4
g5
(dp2767
g2012
S'Service Set Value'
p2768
sg1880
S'0x0030'
p2769
sg20
S'broker ( brokering | forwarding )'
p2770
stRp2771
ag3
(g4
g5
(dp2772
g2012
S'Service Set Value'
p2773
sg1880
S'0x00A0'
p2774
sg20
S'proxy ( forwarding | file-cacheing )'
p2775
stRp2776
ag3
(g4
g5
(dp2777
g2012
S'Service Set Value'
p2778
sg1880
S'0x00E5'
p2779
sg20
S'forwarding-replica ( db-read | db-replication | forwarding | file-replication | file-cacheing )'
p2780
stRp2781
ag3
(g4
g5
(dp2782
g2012
S'Service Set Value'
p2783
sg1880
S'0x004D'
p2784
sg20
S'build-server ( db-read | db-replicaton | bound-clients | file-replication )'
p2785
stRp2786
ag3
(g4
g5
(dp2787
g2012
S'Service Set Value'
p2788
sg1880
S'0x0203'
p2789
sg20
S'P4AUTH ( db-read | db-write | rmt-auth )'
p2790
stRp2791
ag3
(g4
g5
(dp2792
g2012
S'Service Set Value'
p2793
sg1880
S'0x0403'
p2794
sg20
S'P4CHANGE ( db-read | db-write | rmt-change )'
p2795
stRp2796
ag3
(g4
g5
(dp2797
g2012
S'Service Property'
p2798
sg1880
S'0x0001'
p2799
sg20
S'db-read'
p2800
stRp2801
ag3
(g4
g5
(dp2802
g2012
S'Service Property'
p2803
sg1880
S'0x0002'
p2804
sg20
S'db-write'
p2805
stRp2806
ag3
(g4
g5
(dp2807
g2012
S'Service Property'
p2808
sg1880
S'0x0004'
p2809
sg20
S'db-replication'
p2810
stRp2811
ag3
(g4
g5
(dp2812
g2012
S'Service Property'
p2813
sg1880
S'0x0008'
p2814
sg20
S'bound-clients'
p2815
stRp2816
ag3
(g4
g5
(dp2817
g2012
S'Service Property'
p2818
sg1880
S'0x0010'
p2819
sg20
S'brokering'
p2820
stRp2821
ag3
(g4
g5
(dp2822
g2012
S'Service Property'
p2823
sg1880
S'0x0020'
p2824
sg20
S'forwarding'
p2825
stRp2826
ag3
(g4
g5
(dp2827
g2012
S'Service Property'
p2828
sg1880
S'0x0040'
p2829
sg20
S'file-replication'
p2830
stRp2831
ag3
(g4
g5
(dp2832
g2012
S'Service Property'
p2833
sg1880
S'0x0080'
p2834
sg20
S'file-cacheing'
p2835
stRp2836
ag3
(g4
g5
(dp2837
g2012
S'Service Property'
p2838
sg1880
S'0x0100'
p2839
sg20
S'rmt-depot'
p2840
stRp2841
ag3
(g4
g5
(dp2842
g2012
S'Service Property'
p2843
sg1880
S'0x0200'
p2844
sg20
S'rmt-auth'
p2845
stRp2846
ag3
(g4
g5
(dp2847
g2012
S'Service Property'
p2848
sg1880
S'0x0400'
p2849
sg20
S'rmt-change'
p2850
stRp2851
ag3
(g4
g5
(dp2852
g2012
S'Service Property'
p2853
sg1880
S'0x0800'
p2854
sg20
S'rmt-journal'
p2855
stRp2856
atRp2857
sg15
S'ServerServiceType'
p2858
sg2012
g3
(g8
g9
(lp2859
g3
(g4
g5
(dp2860
g15
S'Service Set Value'
p2861
sg1880
S'None'
p2862
sg20
S"The server service type setting is generated by OR'ing the generic ServerServiceProperties defined below"
p2863
stRp2864
ag3
(g4
g5
(dp2865
g15
S'Service Property'
p2866
sg1880
S'None'
p2867
sg20
S'ServerServiceProperties: Bits used to identify generic server properties'
p2868
stRp2869
atRp2870
sg1875
S'The type of server service'
p2871
sg17
S'bitmask'
p2872
sg20
S'One of standard, replica, broker, proxy, forwarding-replica, build-server, P4AUTH, or P4CHANGE.'
p2873
stRp2874
ag3
(g4
g5
(dp2875
g1877
g3
(g8
g9
(lp2876
g3
(g4
g5
(dp2877
g2012
S'Stream Status'
p2878
sg1880
S'0x0000'
p2879
sg20
S'Clear cache'
p2880
stRp2881
ag3
(g4
g5
(dp2882
g2012
S'Stream Status'
p2883
sg1880
S'0x0001'
p2884
sg20
S'Needs copy'
p2885
stRp2886
ag3
(g4
g5
(dp2887
g2012
S'Stream Status'
p2888
sg1880
S'0x0002'
p2889
sg20
S'Copy up-to-date'
p2890
stRp2891
ag3
(g4
g5
(dp2892
g2012
S'Stream Status'
p2893
sg1880
S'0x0004'
p2894
sg20
S'Needs merge'
p2895
stRp2896
ag3
(g4
g5
(dp2897
g2012
S'Stream Status'
p2898
sg1880
S'0x0008'
p2899
sg20
S'Merge up-to-date'
p2900
stRp2901
atRp2902
sg15
S'StreamStatus'
p2903
sg2012
g3
(g4
g5
(dp2904
g15
S'Stream Status'
p2905
sg1880
S'Copy: 0x0003, Merge: 0x000C'
p2906
sg20
S'Bits used to store the stream integration status'
p2907
stRp2908
sg1875
S'Stream integration status'
p2909
sg17
S'bitmask'
p2910
sg20
S'The stream integration status.'
p2911
stRp2912
ag3
(g4
g5
(dp2913
g17
S'flag'
p2914
sg1875
S'Type of stream path'
p2915
sg1877
g3
(g8
g9
(lp2916
g3
(g4
g5
(dp2917
g1880
S'0'
sg20
S'share'
p2918
stRp2919
ag3
(g4
g5
(dp2920
g1880
S'1'
sg20
S'isolate'
p2921
stRp2922
ag3
(g4
g5
(dp2923
g1880
S'2'
sg20
S'import'
p2924
stRp2925
ag3
(g4
g5
(dp2926
g1880
S'3'
sg20
S'exclude'
p2927
stRp2928
ag3
(g4
g5
(dp2929
g1880
S'4'
sg20
S'remapped'
p2930
stRp2931
ag3
(g4
g5
(dp2932
g1880
S'5'
sg20
S'ignored'
p2933
stRp2934
atRp2935
sg15
S'StreamPathType'
p2936
sg20
S'The path type for file paths in a stream view.'
p2937
stRp2938
ag3
(g4
g5
(dp2939
g17
S'flag'
p2940
sg1875
S'Type of stream'
p2941
sg1877
g3
(g8
g9
(lp2942
g3
(g4
g5
(dp2943
g1880
S'0'
sg20
S'mainline'
p2944
stRp2945
ag3
(g4
g5
(dp2946
g1880
S'1'
sg20
S'release'
p2947
stRp2948
ag3
(g4
g5
(dp2949
g1880
S'2'
sg20
S'development'
p2950
stRp2951
atRp2952
sg15
S'StreamType'
p2953
sg20
S'The type of stream.'
p2954
stRp2955
ag3
(g4
g5
(dp2956
g17
S'flag'
p2957
sg1875
S'Strength check of a password'
p2958
sg1877
g3
(g8
g9
(lp2959
g3
(g4
g5
(dp2960
g1880
S'0'
sg20
S'Strength unknown'
p2961
stRp2962
ag3
(g4
g5
(dp2963
g1880
S'1'
sg20
S'Password is strong'
p2964
stRp2965
ag3
(g4
g5
(dp2966
g1880
S'2'
sg20
S'Password is not strong'
p2967
stRp2968
atRp2969
sg15
S'Strength'
p2970
sg20
S"Whether or not a user's password has been tested for strength."
p2971
stRp2972
ag3
(g4
g5
(dp2973
S'restriction'
p2974
g3
(g8
g9
(lp2975
S'Cannot be empty'
p2976
aS'Cannot consist solely of a dash (-)'
p2977
aS'Cannot be all-numeric'
p2978
aS'Cannot contain non-printable characters'
p2979
aS'Spaces are replaced with underscores ( _ )'
p2980
aS'Revision characters (# and @) are prohibited'
p2981
aS'Slashes (/) are prohibited'
p2982
aS'Wildcards (... and *) are prohibited'
p2983
atRp2984
sg1875
S'A string up to 1024 characters long'
p2985
sg17
S'string'
p2986
sg15
S'String'
p2987
sg20
S'A string up to 1024 characters in length.  Depending on the \n\t\tcontext in which the string is used, restrictions \n\t\tmay apply. Strings are often used as key fields in the \n\t\tschema.'
p2988
stRp2989
ag3
(g4
g5
(dp2990
g17
S'flag'
p2991
sg1875
S'Tamper-state of workspace file'
p2992
sg1877
g3
(g8
g9
(lp2993
g3
(g4
g5
(dp2994
g1880
S'0'
sg20
S'Do not check for tampering'
p2995
stRp2996
ag3
(g4
g5
(dp2997
g1880
S'1'
sg20
S'Check for tampering'
p2998
stRp2999
ag3
(g4
g5
(dp3000
g1880
S'2'
sg20
S'Tamper-check failed'
p3001
stRp3002
atRp3003
sg15
S'TamperCheck'
p3004
sg20
S'Indicates the tamper-state of a file in a workspace. This\n\t\tis used to decide whether or not to check the file, and\n\t\tif checked, to hold the result.'
p3005
stRp3006
ag3
(g4
g5
(dp3007
g1875
S'A string value'
p3008
sg17
S'string'
p3009
sg15
S'Text'
p3010
sg20
S'A text string value - used to hold longer blocks of text.'
p3011
stRp3012
ag3
(g4
g5
(dp3013
g1875
S'The id of a group of traits'
p3014
sg17
S'integer'
p3015
sg15
S'TraitLot'
p3016
sg20
S'An integer identifying a group of traits which may be\n\t\tshared by several revisions.'
p3017
stRp3018
ag3
(g4
g5
(dp3019
g17
S'flag'
p3020
sg1875
S'A type of trait'
p3021
sg1877
g3
(g8
g9
(lp3022
g3
(g4
g5
(dp3023
g1880
S'0'
sg20
S'special trait for reference counting'
p3024
stRp3025
ag3
(g4
g5
(dp3026
g1880
S'1'
sg20
S'Binary trait'
p3027
stRp3028
ag3
(g4
g5
(dp3029
g1880
S'2'
sg20
S'Binary trait that gets propagated'
p3030
stRp3031
atRp3032
sg15
S'TraitType'
p3033
sg20
S'The type of trait.'
p3034
stRp3035
ag3
(g4
g5
(dp3036
g17
S'flag'
p3037
sg1875
S'A type of trigger'
p3038
sg1877
g3
(g8
g9
(lp3039
g3
(g4
g5
(dp3040
g1880
S'0'
sg20
S'change-submit (formerly pre-submit triggers)'
p3041
stRp3042
ag3
(g4
g5
(dp3043
g1880
S'1'
sg20
S'change-content'
p3044
stRp3045
ag3
(g4
g5
(dp3046
g1880
S'2'
sg20
S'change-commit'
p3047
stRp3048
ag3
(g4
g5
(dp3049
g1880
S'3'
sg20
S'form-in'
p3050
stRp3051
ag3
(g4
g5
(dp3052
g1880
S'4'
sg20
S'form-out'
p3053
stRp3054
ag3
(g4
g5
(dp3055
g1880
S'5'
sg20
S'form-save'
p3056
stRp3057
ag3
(g4
g5
(dp3058
g1880
S'6'
sg20
S'form-delete'
p3059
stRp3060
ag3
(g4
g5
(dp3061
g1880
S'7'
sg20
S'form-commit'
p3062
stRp3063
ag3
(g4
g5
(dp3064
g1880
S'8'
sg20
S'auth-check'
p3065
stRp3066
ag3
(g4
g5
(dp3067
g1880
S'9'
sg20
S'auth-check-sso'
p3068
stRp3069
ag3
(g4
g5
(dp3070
g1880
S'10'
p3071
sg20
S'auth-set'
p3072
stRp3073
ag3
(g4
g5
(dp3074
g1880
S'11'
p3075
sg20
S'fix-add'
p3076
stRp3077
ag3
(g4
g5
(dp3078
g1880
S'12'
p3079
sg20
S'fix-delete'
p3080
stRp3081
ag3
(g4
g5
(dp3082
g1880
S'13'
p3083
sg20
S'archive'
p3084
stRp3085
ag3
(g4
g5
(dp3086
g1880
S'14'
p3087
sg20
S'shelve-submit'
p3088
stRp3089
ag3
(g4
g5
(dp3090
g1880
S'15'
p3091
sg20
S'shelve-commit'
p3092
stRp3093
ag3
(g4
g5
(dp3094
g1880
S'16'
p3095
sg20
S'shelve-delete'
p3096
stRp3097
ag3
(g4
g5
(dp3098
g1880
S'17'
p3099
sg20
S'service-check'
p3100
stRp3101
atRp3102
sg15
S'Trigger'
p3103
sg20
S'The type of a trigger.'
p3104
stRp3105
ag3
(g4
g5
(dp3106
g1875
S'A user or group name'
p3107
sg20
S'The name of a Perforce user or group.'
p3108
sg17
S'string'
p3109
sg15
S'User'
p3110
sg121
S'String'
p3111
stRp3112
ag3
(g4
g5
(dp3113
g17
S'flag'
p3114
sg1875
S'User functionality level'
p3115
sg1877
g3
(g8
g9
(lp3116
g3
(g4
g5
(dp3117
g1880
S'0'
sg20
S'standard'
p3118
stRp3119
ag3
(g4
g5
(dp3120
g1880
S'1'
sg20
S'service'
p3121
stRp3122
ag3
(g4
g5
(dp3123
g1880
S'2'
sg20
S'operator'
p3124
stRp3125
atRp3126
sg15
S'UserLevel'
p3127
sg20
S'User functionality level'
p3128
stRp3129
ag3
(g4
g5
(dp3130
g1877
g3
(g8
g9
(lp3131
g3
(g4
g5
(dp3132
g2012
S'UserTypeBits'
p3133
sg15
S'User'
p3134
sg1880
S'0x0001'
p3135
sg20
S'User is an ordinary user'
p3136
stRp3137
ag3
(g4
g5
(dp3138
g2012
S'UserTypeBits'
p3139
sg15
S'SubGroup'
p3140
sg1880
S'0x0002'
p3141
sg20
S'Group is a sub-group'
p3142
stRp3143
ag3
(g4
g5
(dp3144
g2012
S'UserTypeBits'
p3145
sg15
S'Owner'
p3146
sg1880
S'0x0004'
p3147
sg20
S'User is the owner of a group'
p3148
stRp3149
atRp3150
sg15
S'UserType'
p3151
sg2012
g3
(g4
g5
(dp3152
g15
S'UserTypeBits'
p3153
sg1880
S'0x0007'
p3154
sg20
S'Bits used to store the role of a user in a group'
p3155
stRp3156
sg1875
S'The role of a user within a group'
p3157
sg17
S'bitmask'
p3158
sg20
S'The role of a user (or group) within a group.'
p3159
stRp3160
ag3
(g4
g5
(dp3161
g1875
S'A user or group name with wildcards'
p3162
sg20
S'A user/group name that may contain wildcards (*)'
p3163
sg17
S'string'
p3164
sg15
S'UserWild'
p3165
sg121
S'User'
p3166
stRp3167
ag3
(g4
g5
(dp3168
g1875
S'A number or a string'
p3169
sg17
S'string'
p3170
sg15
S'Value'
p3171
sg20
S'A number, stored in a string, or a string'
p3172
stRp3173
atRp3174
stRp3175
s.