(dp1
S'tables'
p2
ccopy_reg
_reconstructor
p3
(clib.sqUtils
Storage
p4
c__builtin__
dict
p5
(dp6
S'table'
p7
g3
(clib.sqUtils
Lst
p8
c__builtin__
list
p9
(lp10
g3
(g4
g5
(dp11
S'version'
p12
S'1'
sS'keying'
p13
S'name'
p14
sS'name'
p15
S'db.counters'
p16
sS'type'
p17
S'Counters'
p18
sS'lockseq'
p19
S'1'
sS'desc'
p20
S'Perforce counters table'
p21
stRp22
ag3
(g4
g5
(dp23
g12
S'1'
sg13
S'seq'
p24
sg15
S'db.logger'
p25
sg17
S'Logger'
p26
sg19
S'2'
sg20
S"Support for 'p4 logger' command. Logs any changes to \n\t\tchangelists and jobs"
p27
stRp28
ag3
(g4
g5
(dp29
g12
S'3'
sg13
S'user'
p30
sg15
S'db.user'
p31
sg17
S'User'
p32
sg19
S'3'
sg20
S'Lists users known to Perforce'
p33
stRp34
ag3
(g4
g5
(dp35
g12
S'7'
sg13
S'user, group'
p36
sg15
S'db.group'
p37
sg17
S'Group'
p38
sg19
S'4'
sg20
S'Lists groups known to Perforce'
p39
stRp40
ag3
(g4
g5
(dp41
g12
S'1'
sg13
S'name'
p42
sg15
S'db.depot'
p43
sg17
S'Depot'
p44
sg19
S'5'
sg20
S'Lists depots known to Perforce'
p45
stRp46
ag3
(g4
g5
(dp47
g12
S'5'
sg13
S'name'
p48
sg15
S'db.domain'
p49
sg17
S'Domain'
p50
sg19
S'6'
sg20
S'Domains: depots, clients, labels, branches and typemap'
p51
stRp52
ag3
(g4
g5
(dp53
g12
S'1'
sg13
S'name, seq'
p54
sg15
S'db.view'
p55
sg17
S'View'
p56
sg19
S'7'
sg20
S'Contains views for domains'
p57
stRp58
ag3
(g4
g5
(dp59
g12
S'1'
sg13
S'user, seq'
p60
sg15
S'db.review'
p61
sg17
S'Review'
p62
sg19
S'8'
sg20
S"Contains user's review mappings"
p63
stRp64
ag3
(g4
g5
(dp65
g12
S'0'
sg13
S'toFile, fromFile, startFromRev'
p66
sg15
S'db.integ'
p67
sg20
S'Integration records: obsolete since 2001.1'
p68
sg17
S'Integ'
p69
sg19
S'9'
sS'seeAlso'
p70
g3
(g8
g9
(lp71
S'db.integed'
p72
aS'db.resolve'
p73
atRp74
stRp75
ag3
(g4
g5
(dp76
g12
S'0'
sg13
S'toFile, fromFile, startFromRev, endFromRev, \n\t\tstartToRev, endToRev'
p77
sg15
S'db.integed'
p78
sg20
S'Permanent integration records'
p79
sg17
S'Integed'
p80
sg19
S'10'
p81
sg70
S'db.resolve'
p82
stRp83
ag3
(g4
g5
(dp84
g12
S'0'
sg13
S'toFile, fromFile, startFromRev'
p85
sg15
S'db.resolve'
p86
sg20
S'Pending integration records'
p87
sg17
S'Resolve'
p88
sg19
S'11'
p89
sg70
S'db.integed'
p90
stRp91
ag3
(g4
g5
(dp92
g12
S'0'
sg13
S'toFile, fromFile, startFromRev'
p93
sg15
S'db.resolvex'
p94
sg20
S'Pending integration records'
p95
sg17
S'Resolve'
p96
sg19
S'12'
p97
sg70
S'db.integed'
p98
stRp99
ag3
(g4
g5
(dp100
g12
S'2'
sg13
S'clientFile'
p101
sg15
S'db.have'
p102
sg17
S'Have'
p103
sg19
S'13'
p104
sg20
S"Contains the 'have-list' for all clients"
p105
stRp106
ag3
(g4
g5
(dp107
g12
S'0'
sg13
S'name, depotFile'
p108
sg15
S'db.label'
p109
sg17
S'Label'
p110
sg19
S'14'
p111
sg20
S'Lists the revisions of files in labels.'
p112
stRp113
ag3
(g4
g5
(dp114
g12
S'2'
sg13
S'depotFile, client'
p115
sg15
S'db.locks'
p116
sg17
S'Locks'
p117
sg19
S'15'
p118
sg20
S'Locked/Unlocked files'
p119
stRp120
ag3
(g4
g5
(dp121
S'note'
p122
S'Obsoleted in 2006.2.'
p123
sg12
S'1'
sg13
S'lbrFile, lbrRev, depotFile, depotRev'
p124
sg20
S'Archive information for each revision that is \n\t\tlazy-copied.'
p125
sg17
S'Archive'
p126
sg19
S'16'
p127
sg15
S'db.archive'
p128
stRp129
ag3
(g4
g5
(dp130
g122
S'Supercedes db.archive'
p131
sg12
S'0'
sg13
S'lbrFile, depotFile'
p132
sg20
S'Mappings entries for lazy-copies.'
p133
sg17
S'ArchMap'
p134
sg19
S'17'
p135
sg15
S'db.archmap'
p136
stRp137
ag3
(g4
g5
(dp138
g12
S'8'
sg13
S'depotFile, depotRev'
p139
sg15
S'db.rev'
p140
sg17
S'Rev'
p141
sg19
S'18'
p142
sg20
S'Revision records'
p143
stRp144
ag3
(g4
g5
(dp145
g12
S'0'
sg13
S'change, depotFile'
p146
sg15
S'db.revcx'
p147
sg17
S'RevCx'
p148
sg19
S'19'
p149
sg20
S'Secondary index of db.rev'
p150
stRp151
ag3
(g4
g5
(dp152
g12
S'7'
sg13
S'depotFile'
p153
sg15
S'db.revdx'
p154
sg17
S'Rev'
p155
sg19
S'20'
p156
sg20
S'Revision records for revisions deleted at the head revision.'
p157
stRp158
ag3
(g4
g5
(dp159
g12
S'7'
sg13
S'depotFile'
p160
sg15
S'db.revhx'
p161
sg17
S'Rev'
p162
sg19
S'21'
p163
sg20
S'Revision records for revisions NOT deleted at the head revision.'
p164
stRp165
ag3
(g4
g5
(dp166
g122
S'Only populated during content trigger execution to allow \n\t\ttriggers access to the revisions being submitted.'
p167
sg12
S'7'
sg13
S'depotFile, depotRev'
p168
sg20
S'Pending revision records.'
p169
sg17
S'Rev'
p170
sg19
S'22'
p171
sg15
S'db.revpx'
p172
stRp173
ag3
(g4
g5
(dp174
g12
S'7'
sg13
S'depotFile, depotRev'
p175
sg15
S'db.revsx'
p176
sg17
S'Rev'
p177
sg19
S'23'
p178
sg20
S'Revision records for spec depot files.'
p179
stRp180
ag3
(g4
g5
(dp181
g12
S'7'
sg13
S'depotFile,depotRev,type,action,change'
p182
sg15
S'db.revsh'
p183
sg17
S'Rev'
p184
sg19
S'24'
p185
sg20
S'Revision records for shelved files.'
p186
stRp187
ag3
(g4
g5
(dp188
g12
S'9'
sg13
S'clientFile'
p189
sg15
S'db.working'
p190
sg17
S'Working'
p191
sg19
S'25'
p192
sg20
S'Records for work in progress'
p193
stRp194
ag3
(g4
g5
(dp195
g12
S'9'
sg13
S'clientFile'
p196
sg15
S'db.workingx'
p197
sg17
S'Working'
p198
sg19
S'26'
p199
sg20
S'Records for shelved open files'
p200
stRp201
ag3
(g4
g5
(dp202
g12
S'0'
sg13
S'traitLot, name'
p203
sg15
S'db.traits'
p204
sg17
S'Trait'
p205
sg19
S'27'
p206
sg20
S'Attributes associated with file revisions'
p207
stRp208
ag3
(g4
g5
(dp209
g12
S'2'
sg13
S'seq'
p210
sg15
S'db.trigger'
p211
sg17
S'Trigger'
p212
sg19
S'28'
p213
sg20
S'Trigger specifications'
p214
stRp215
ag3
(g4
g5
(dp216
g12
S'1'
sg13
S'change'
p217
sg15
S'db.change'
p218
sg17
S'Change'
p219
sg19
S'29'
p220
sg20
S'Changelists'
p221
stRp222
ag3
(g4
g5
(dp223
g122
S'contains records for pending changelists only.'
p224
sg12
S'1'
sg13
S'change'
p225
sg20
S'Subset of db.change'
p226
sg17
S'Change'
p227
sg19
S'30'
p228
sg15
S'db.changex'
p229
stRp230
ag3
(g4
g5
(dp231
g12
S'0'
sg13
S'descKey'
p232
sg15
S'db.desc'
p233
sg17
S'Desc'
p234
sg19
S'31'
p235
sg20
S'Change descriptions'
p236
stRp237
ag3
(g4
g5
(dp238
g12
S'0'
sg13
S'job'
p239
sg15
S'db.job'
p240
sg20
S'Job records'
p241
sg17
S'Job'
p242
sg19
S'33'
p243
sg70
S'db.bodtext'
p244
stRp245
ag3
(g4
g5
(dp246
g12
S'0'
sg13
S'user, job'
p247
sg15
S'db.jobpend'
p248
sg20
S'Obsolete in 98.2'
p249
sg17
S'String'
p250
sg19
S'34'
p251
sg70
S'db.bodtext'
p252
stRp253
ag3
(g4
g5
(dp254
g12
S'0'
sg13
S'job'
p255
sg15
S'db.jobdesc'
p256
sg20
S'Obsolete in 98.2'
p257
sg17
S'JobDesc'
p258
sg19
S'35'
p259
sg70
S'db.bodtext'
p260
stRp261
ag3
(g4
g5
(dp262
g12
S'1'
sg13
S'job, change'
p263
sg15
S'db.fix'
p264
sg20
S'Fix records - indexed by job'
p265
sg17
S'Fix'
p266
sg19
S'36'
p267
sg70
S'db.fixrev'
p268
stRp269
ag3
(g4
g5
(dp270
g12
S'1'
sg13
S'change, job'
p271
sg15
S'db.fixrev'
p272
sg20
S'Fix records - indexed by change'
p273
sg17
S'Fix'
p274
sg19
S'37'
p275
sg70
S'db.fix'
p276
stRp277
ag3
(g4
g5
(dp278
g122
S'Obsoleted in 2009.2'
p279
sg12
S'0'
sg13
S'key, attr'
p280
sg20
S'Job data for date-valued attributes'
p281
sg17
S'BodyDate'
p282
sg19
S'38'
p283
sg15
S'db.boddate'
p284
stRp285
ag3
(g4
g5
(dp286
g12
S'1'
sg13
S'key, attr'
p287
sg15
S'db.bodtext'
p288
sg17
S'BodyText'
p289
sg19
S'39'
p290
sg20
S'Job data for job attributes.'
p291
stRp292
ag3
(g4
g5
(dp293
g13
S'date, attr, value'
p294
sg15
S'db.ixdate'
p295
sg122
S'Obsoleted in 2009.2'
p296
sg12
S'0'
sg20
S'Indexing data for date-valued job attributes.'
p297
sg17
S'IndexDate'
p298
sg19
S'40'
p299
sg70
S'db.ixtext'
p300
stRp301
ag3
(g4
g5
(dp302
g12
S'0'
sg13
S'word, attr, value'
p303
sg15
S'db.ixtext'
p304
sg17
S'IndexText'
p305
sg19
S'41'
p306
sg20
S'Indexing data for job attributes.'
p307
stRp308
ag3
(g4
g5
(dp309
g12
S'4'
sg13
S'seq'
p310
sg15
S'db.protect'
p311
sg17
S'Protect'
p312
sg19
S'42'
p313
sg20
S'The protections table'
p314
stRp315
ag3
(g4
g5
(dp316
g12
S'0'
sg13
S'language, id'
p317
sg15
S'db.message'
p318
sg17
S'Message'
p319
sg19
S'43'
p320
sg20
S'System messages'
p321
stRp322
ag3
(g4
g5
(dp323
g12
S'1'
sg13
S'id'
p324
sg15
S'db.monitor'
p325
sg17
S'Monitor'
p326
sg19
S'44'
p327
sg20
S'System messages'
p328
stRp329
atRp330
stRp331
sg12
S'2009.2'
p332
sS'numUpgrades'
p333
S'21'
p334
sS'recordtypes'
p335
g3
(g4
g5
(dp336
S'record'
p337
g3
(g8
g9
(lp338
g3
(g4
g5
(dp339
S'column'
p340
g3
(g8
g9
(lp341
g3
(g4
g5
(dp342
g17
S'File'
p343
sg15
S'lbrFile'
p344
sg20
S"Specifies the location in the librarian's archives where\n\t\t    the revision may be found"
p345
stRp346
ag3
(g4
g5
(dp347
g17
S'String'
p348
sg15
S'lbrRev'
p349
sg20
S"Revision in the librarian's archives"
p350
stRp351
ag3
(g4
g5
(dp352
g17
S'File'
p353
sg15
S'depotFile'
p354
sg20
S'Name of the file in the depot'
p355
stRp356
ag3
(g4
g5
(dp357
g17
S'Rev'
p358
sg15
S'depotRev'
p359
sg20
S'Name of the file in the depot'
p360
stRp361
ag3
(g4
g5
(dp362
g17
S'FileType'
p363
sg15
S'lbrType'
p364
sg20
S"File type for librarian's purposes"
p365
stRp366
atRp367
sg15
S'Archive'
p368
stRp369
ag3
(g4
g5
(dp370
g340
g3
(g8
g9
(lp371
g3
(g4
g5
(dp372
g17
S'File'
p373
sg15
S'lbrFile'
p374
sg20
S'Paths in the librarian namespace that recieve lazy\n\t\t    copies.'
p375
stRp376
ag3
(g4
g5
(dp377
g17
S'File'
p378
sg15
S'depotFile'
p379
sg20
S'Paths in the depot namespace that provide lazy copies.'
p380
stRp381
atRp382
sg15
S'ArchMap'
p383
stRp384
ag3
(g4
g5
(dp385
g340
g3
(g8
g9
(lp386
g3
(g4
g5
(dp387
g17
S'String'
p388
sg15
S'key'
p389
sg20
S'The job to which this attribute belongs'
p390
stRp391
ag3
(g4
g5
(dp392
g17
S'Int'
p393
sg15
S'attr'
p394
sg20
S'The attribute number (from the jobspec) of this attribute'
p395
stRp396
ag3
(g4
g5
(dp397
g17
S'Date'
p398
sg15
S'date'
p399
sg20
S'The date value itself'
p400
stRp401
atRp402
sg15
S'BodyDate'
p403
stRp404
ag3
(g4
g5
(dp405
g340
g3
(g8
g9
(lp406
g3
(g4
g5
(dp407
g17
S'String'
p408
sg15
S'key'
p409
sg20
S'The job to which this attribute belongs'
p410
stRp411
ag3
(g4
g5
(dp412
g17
S'Int'
p413
sg15
S'attr'
p414
sg20
S'The attribute number (from the jobspec) of this attribute'
p415
stRp416
ag3
(g4
g5
(dp417
g17
S'Int'
p418
sg15
S'isBulk'
p419
sg20
S'Indicates whether (1), or not (0) the field is a bulk\n\t\t    text field that should not be indexed.'
p420
stRp421
ag3
(g4
g5
(dp422
g17
S'Text'
p423
sg15
S'text'
p424
sg20
S'The attribute value'
p425
stRp426
atRp427
sg15
S'BodyText'
p428
stRp429
ag3
(g4
g5
(dp430
g340
g3
(g8
g9
(lp431
g3
(g4
g5
(dp432
g17
S'Change'
p433
sg15
S'change'
p434
sg20
S'The change number'
p435
stRp436
ag3
(g4
g5
(dp437
g17
S'Change'
p438
sg15
S'descKey'
p439
sg20
S"The description key. Normally the same as 'change', but\n\t\t    may differ if a changelist was renumbered on submission."
p440
stRp441
ag3
(g4
g5
(dp442
g17
S'Domain'
p443
sg15
S'client'
p444
sg20
S'The client from which the change originates'
p445
stRp446
ag3
(g4
g5
(dp447
g17
S'User'
p448
sg15
S'user'
p449
sg20
S'The user who owns the change'
p450
stRp451
ag3
(g4
g5
(dp452
g17
S'Date'
p453
sg15
S'date'
p454
sg20
S'Date and time the changelist was submitted'
p455
stRp456
ag3
(g4
g5
(dp457
g17
S'ChangeStatus'
p458
sg15
S'status'
p459
sg20
S'Status of the change'
p460
stRp461
ag3
(g4
g5
(dp462
g17
S'DescShort'
p463
sg15
S'description'
p464
sg20
S'Short description of the change.'
p465
stRp466
ag3
(g4
g5
(dp467
g17
S'Mapping'
p468
sg15
S'root'
p469
sg20
S'Common path for all files in the changelist'
p470
stRp471
atRp472
sg15
S'Change'
p473
stRp474
ag3
(g4
g5
(dp475
g340
g3
(g8
g9
(lp476
g3
(g4
g5
(dp477
g17
S'Counter'
p478
sg15
S'name'
p479
sg20
S'Counter name'
p480
stRp481
ag3
(g4
g5
(dp482
g17
S'Value'
p483
sg15
S'value'
p484
sg20
S'Counter value'
p485
stRp486
atRp487
sg15
S'Counters'
p488
stRp489
ag3
(g4
g5
(dp490
g340
g3
(g8
g9
(lp491
g3
(g4
g5
(dp492
g17
S'Domain'
p493
sg15
S'name'
p494
sg20
S'Depot name'
p495
stRp496
ag3
(g4
g5
(dp497
g17
S'DepotType'
p498
sg15
S'type'
p499
sg20
S'Type of depot'
p500
stRp501
ag3
(g4
g5
(dp502
g17
S'Text'
p503
sg15
S'extra'
p504
sg20
S'For remote depots, the P4PORT address of the remote server.\n\t\t    For spec depots, the field contains a suffix to append to \n\t\t    the filename.'
p505
stRp506
ag3
(g4
g5
(dp507
g17
S'Text'
p508
sg15
S'map'
p509
sg20
S"The depot's map (path translation information).  For local \n\t\t    depots, this will be a path relative to the root directory.\n\t\t    For remote depots, this will be specified in terms of the \n\t\t    remote server's namespace."
p510
stRp511
atRp512
sg15
S'Depot'
p513
stRp514
ag3
(g4
g5
(dp515
g340
g3
(g8
g9
(lp516
g3
(g4
g5
(dp517
g17
S'Change'
p518
sg15
S'descKey'
p519
sg20
S'Original number of the change to which this description\n\t\t    applies. This may differ from the final change number if\n\t\t    the change is renumbered on submission.'
p520
stRp521
ag3
(g4
g5
(dp522
g17
S'Text'
p523
sg15
S'description'
p524
sg20
S'The change description itself'
p525
stRp526
atRp527
sg15
S'Desc'
p528
stRp529
ag3
(g4
g5
(dp530
g340
g3
(g8
g9
(lp531
g3
(g4
g5
(dp532
g17
S'Domain'
p533
sg15
S'name'
p534
sg20
S'Domain name'
p535
stRp536
ag3
(g4
g5
(dp537
g17
S'DomainType'
p538
sg15
S'type'
p539
sg20
S'Type of domain'
p540
stRp541
ag3
(g4
g5
(dp542
g17
S'Text'
p543
sg15
S'extra'
p544
sg20
S'Formerly "host". Associated host or, for labels, revision \n\t\t    number.'
p545
stRp546
ag3
(g4
g5
(dp547
g17
S'Text'
p548
sg15
S'mount'
p549
sg20
S'The client root'
p550
stRp551
ag3
(g4
g5
(dp552
g17
S'Text'
p553
sg15
S'mount2'
p554
sg20
S'Alternate client root'
p555
stRp556
ag3
(g4
g5
(dp557
g17
S'Text'
p558
sg15
S'mount3'
p559
sg20
S'Alternate client root'
p560
stRp561
ag3
(g4
g5
(dp562
g17
S'User'
p563
sg15
S'owner'
p564
sg20
S'Name of user who owns the domain.'
p565
stRp566
ag3
(g4
g5
(dp567
g17
S'Date'
p568
sg15
S'updateDate'
p569
sg20
S'Date of last update to domain specification.'
p570
stRp571
ag3
(g4
g5
(dp572
g17
S'Date'
p573
sg15
S'accessDate'
p574
sg20
S'Date of last access to domain specification.'
p575
stRp576
ag3
(g4
g5
(dp577
g17
S'DomainOpts'
p578
sg15
S'options'
p579
sg20
S'Options for client, label, and branch domains.'
p580
stRp581
ag3
(g4
g5
(dp582
g17
S'Text'
p583
sg15
S'description'
p584
sg20
S'Description of domain.'
p585
stRp586
atRp587
sg15
S'Domain'
p588
stRp589
ag3
(g4
g5
(dp590
g340
g3
(g8
g9
(lp591
g3
(g4
g5
(dp592
g17
S'String'
p593
sg15
S'job'
p594
sg20
S'Job name'
p595
stRp596
ag3
(g4
g5
(dp597
g17
S'Change'
p598
sg15
S'change'
p599
sg20
S'Changelist number'
p600
stRp601
ag3
(g4
g5
(dp602
g17
S'Date'
p603
sg15
S'date'
p604
sg20
S'Date fix was recorded (may differ from date change was\n\t\t    submitted).'
p605
stRp606
ag3
(g4
g5
(dp607
g17
S'FixStatus'
p608
sg15
S'status'
p609
sg20
S'Status of the job'
p610
stRp611
ag3
(g4
g5
(dp612
g17
S'Domain'
p613
sg15
S'client'
p614
sg20
S'The client where the fix originated'
p615
stRp616
ag3
(g4
g5
(dp617
g17
S'User'
p618
sg15
S'user'
p619
sg20
S'The user who fixed the job'
p620
stRp621
atRp622
sg15
S'Fix'
p623
stRp624
ag3
(g4
g5
(dp625
g340
g3
(g8
g9
(lp626
g3
(g4
g5
(dp627
g17
S'User'
p628
sg15
S'user'
p629
sg20
S'User name'
p630
stRp631
ag3
(g4
g5
(dp632
g17
S'User'
p633
sg15
S'group'
p634
sg20
S'Group name'
p635
stRp636
ag3
(g4
g5
(dp637
g17
S'UserType'
p638
sg15
S'type'
p639
sg20
S'Type of user in this group.'
p640
stRp641
ag3
(g4
g5
(dp642
g17
S'MaxResults'
p643
sg15
S'maxResults'
p644
sg20
S'MaxResults setting for the group.'
p645
stRp646
ag3
(g4
g5
(dp647
g17
S'MaxScanRows'
p648
sg15
S'maxScanRows'
p649
sg20
S'MaxScanRows setting for the group.'
p650
stRp651
ag3
(g4
g5
(dp652
g17
S'MaxLockTime'
p653
sg15
S'maxLockTime'
p654
sg20
S'MaxLockTime setting for the group.'
p655
stRp656
ag3
(g4
g5
(dp657
g17
S'Int'
p658
sg15
S'timeout'
p659
sg20
S'Length of time (in seconds) a login ticket remains valid.'
p660
stRp661
atRp662
sg15
S'Group'
p663
stRp664
ag3
(g4
g5
(dp665
g340
g3
(g8
g9
(lp666
g3
(g4
g5
(dp667
g17
S'File'
p668
sg15
S'clientFile'
p669
sg20
S'The file in its location on the client'
p670
stRp671
ag3
(g4
g5
(dp672
g17
S'File'
p673
sg15
S'depotFile'
p674
sg20
S'The file in the depot'
p675
stRp676
ag3
(g4
g5
(dp677
g17
S'Rev'
p678
sg15
S'haveRev'
p679
sg20
S'The revision synced to the client'
p680
stRp681
ag3
(g4
g5
(dp682
g17
S'FileType'
p683
sg15
S'type'
p684
sg20
S'The filetype of the synced revision'
p685
stRp686
atRp687
sg15
S'Have'
p688
stRp689
ag3
(g4
g5
(dp690
g340
g3
(g8
g9
(lp691
g3
(g4
g5
(dp692
g17
S'Date'
p693
sg15
S'date'
p694
sg20
S'Date value'
p695
stRp696
ag3
(g4
g5
(dp697
g17
S'Int'
p698
sg15
S'attr'
p699
sg20
S'The attribute number (from the jobspec) to which this\n\t\t    date belongs'
p700
stRp701
ag3
(g4
g5
(dp702
g17
S'String'
p703
sg15
S'value'
p704
sg20
S'A job name'
p705
stRp706
atRp707
sg15
S'IndexDate'
p708
stRp709
ag3
(g4
g5
(dp710
g340
g3
(g8
g9
(lp711
g3
(g4
g5
(dp712
g17
S'String'
p713
sg15
S'word'
p714
sg20
S'The word being indexed'
p715
stRp716
ag3
(g4
g5
(dp717
g17
S'Int'
p718
sg15
S'attr'
p719
sg20
S'The attribute number (from the jobspec) to which this\n\t\t    word belongs'
p720
stRp721
ag3
(g4
g5
(dp722
g17
S'String'
p723
sg15
S'value'
p724
sg20
S'A job name'
p725
stRp726
atRp727
sg15
S'IndexText'
p728
stRp729
ag3
(g4
g5
(dp730
g340
g3
(g8
g9
(lp731
g3
(g4
g5
(dp732
g17
S'File'
p733
sg15
S'toFile'
p734
sg20
S'File to which integration is being performed (target).'
p735
stRp736
ag3
(g4
g5
(dp737
g17
S'File'
p738
sg15
S'fromFile'
p739
sg20
S'File from which integration is being performed (source).'
p740
stRp741
ag3
(g4
g5
(dp742
g17
S'Rev'
p743
sg15
S'startFromRev'
p744
sg20
S'Starting revision of fromFile'
p745
stRp746
ag3
(g4
g5
(dp747
g17
S'Rev'
p748
sg15
S'endFromRev'
p749
sg20
S'Ending revision of fromFile. If integrating from a single \n\t\t    revision (not a revision range), the startFromRev and \n\t\t    endFromRev fields will be identical.'
p750
stRp751
ag3
(g4
g5
(dp752
g17
S'Rev'
p753
sg15
S'toRev'
p754
sg20
S'Revision of toFile into which integration is being \n\t\t    performed.'
p755
stRp756
ag3
(g4
g5
(dp757
g17
S'IntegHow'
p758
sg15
S'how'
p759
sg20
S'Integration method: variations on \n\t\t    merge/branch/copy/ignore/delete.'
p760
stRp761
ag3
(g4
g5
(dp762
g17
S'Int'
p763
sg15
S'committed'
p764
sg20
S'Flag: 0 for pending, 1 for committed.'
p765
stRp766
ag3
(g4
g5
(dp767
g17
S'ResolvedStatus'
p768
sg15
S'resolved'
p769
sg20
S'Resolution method: unresolved, resolved manually, \n\t\t    or resolved as part of a branch or delete.'
p770
stRp771
ag3
(g4
g5
(dp772
g17
S'Change'
p773
sg15
S'change'
p774
sg20
S'Changelist associated with the integration.'
p775
stRp776
atRp777
sg15
S'Integ'
p778
stRp779
ag3
(g4
g5
(dp780
g340
g3
(g8
g9
(lp781
g3
(g4
g5
(dp782
g17
S'File'
p783
sg15
S'toFile'
p784
sg20
S'File to which integration is being performed (target).'
p785
stRp786
ag3
(g4
g5
(dp787
g17
S'File'
p788
sg15
S'fromFile'
p789
sg20
S'File from which integration is being performed (source).'
p790
stRp791
ag3
(g4
g5
(dp792
g17
S'Rev'
p793
sg15
S'startFromRev'
p794
sg20
S'Starting revision of fromFile'
p795
stRp796
ag3
(g4
g5
(dp797
g17
S'Rev'
p798
sg15
S'endFromRev'
p799
sg20
S'Ending revision of fromFile. If integrating from a single \n\t\t    revision (not a revision range), the startFromRev and \n\t\t    endFromRev fields will be identical.'
p800
stRp801
ag3
(g4
g5
(dp802
g17
S'Rev'
p803
sg15
S'startToRev'
p804
sg20
S'Start revision of toFile into which integration was \n\t\t    performed.'
p805
stRp806
ag3
(g4
g5
(dp807
g17
S'Rev'
p808
sg15
S'endToRev'
p809
sg20
S'End revision of toFile into which integration was \n\t\t    performed. Only varies from startToRev for reverse \n\t\t    integration records.'
p810
stRp811
ag3
(g4
g5
(dp812
g17
S'IntegHow'
p813
sg15
S'how'
p814
sg20
S'Integration method: variations on \n\t\t    merge/branch/copy/ignore/delete.'
p815
stRp816
ag3
(g4
g5
(dp817
g17
S'Change'
p818
sg15
S'change'
p819
sg20
S'Changelist associated with the integration.'
p820
stRp821
atRp822
sg15
S'Integed'
p823
stRp824
ag3
(g4
g5
(dp825
g340
g3
(g8
g9
(lp826
g3
(g4
g5
(dp827
g17
S'String'
p828
sg15
S'job'
p829
sg20
S'The job name'
p830
stRp831
ag3
(g4
g5
(dp832
g17
S'User'
p833
sg15
S'xuser'
p834
sg20
S'User name: defunct'
p835
stRp836
ag3
(g4
g5
(dp837
g17
S'Date'
p838
sg15
S'xdate'
p839
sg20
S'The date: defunct'
p840
stRp841
ag3
(g4
g5
(dp842
g17
S'JobStat'
p843
sg15
S'xstatus'
p844
sg20
S'Job status: defunct'
p845
stRp846
ag3
(g4
g5
(dp847
g17
S'DescShort'
p848
sg15
S'description'
p849
sg20
S'Short description'
p850
stRp851
atRp852
sg15
S'Job'
p853
stRp854
ag3
(g4
g5
(dp855
g340
g3
(g8
g9
(lp856
g3
(g4
g5
(dp857
g17
S'String'
p858
sg15
S'xjob'
p859
sg20
S'The job name'
p860
stRp861
ag3
(g4
g5
(dp862
g17
S'Text'
p863
sg15
S'xdescription'
p864
sg20
S'Jobdescription'
p865
stRp866
atRp867
sg15
S'JobDesc'
p868
stRp869
ag3
(g4
g5
(dp870
g340
g3
(g8
g9
(lp871
g3
(g4
g5
(dp872
g17
S'Domain'
p873
sg15
S'name'
p874
sg20
S'Name of the label'
p875
stRp876
ag3
(g4
g5
(dp877
g17
S'File'
p878
sg15
S'depotFile'
p879
sg20
S'File name'
p880
stRp881
ag3
(g4
g5
(dp882
g17
S'Rev'
p883
sg15
S'haveRev'
p884
sg20
S'The revision of the file in the label'
p885
stRp886
atRp887
sg15
S'Label'
p888
stRp889
ag3
(g4
g5
(dp890
g340
g3
(g8
g9
(lp891
g3
(g4
g5
(dp892
g17
S'File'
p893
sg15
S'depotFile'
p894
sg20
S'File in depot'
p895
stRp896
ag3
(g4
g5
(dp897
g17
S'Domain'
p898
sg15
S'client'
p899
sg20
S'Domain (client) in which file is open'
p900
stRp901
ag3
(g4
g5
(dp902
g17
S'User'
p903
sg15
S'user'
p904
sg20
S'User who presently has the file open'
p905
stRp906
ag3
(g4
g5
(dp907
g17
S'Action'
p908
sg15
S'action'
p909
sg20
S'Action file is open for: add, edit, delete, branch,\n\t\t    integrate, or import'
p910
stRp911
ag3
(g4
g5
(dp912
g17
S'Int'
p913
sg15
S'isLocked'
p914
sg20
S'Flag: 0 for unlocked, 1 for locked'
p915
stRp916
ag3
(g4
g5
(dp917
g17
S'Int'
p918
sg15
S'change'
p919
sg20
S'Changelist in which the revision is open: 0 for the\n\t\t    default changelist'
p920
stRp921
atRp922
sg15
S'Locks'
p923
stRp924
ag3
(g4
g5
(dp925
g340
g3
(g8
g9
(lp926
g3
(g4
g5
(dp927
g17
S'Int'
p928
sg15
S'seq'
p929
sg20
S'Sequence number of event'
p930
stRp931
ag3
(g4
g5
(dp932
g17
S'String'
p933
sg15
S'key'
p934
sg20
S"Either the word 'change' or the word 'job'"
p935
stRp936
ag3
(g4
g5
(dp937
g17
S'String'
p938
sg15
S'attr'
p939
sg20
S'The number of the change, or name of the job that was \n\t\t    altered.'
p940
stRp941
atRp942
sg15
S'Logger'
p943
stRp944
ag3
(g4
g5
(dp945
g340
g3
(g8
g9
(lp946
g3
(g4
g5
(dp947
g17
S'String'
p948
sg15
S'language'
p949
sg20
S'The language for which this message applies'
p950
stRp951
ag3
(g4
g5
(dp952
g17
S'Int'
p953
sg15
S'id'
p954
sg20
S'The message number'
p955
stRp956
ag3
(g4
g5
(dp957
g17
S'String'
p958
sg15
S'message'
p959
sg20
S'The message text'
p960
stRp961
atRp962
sg15
S'Message'
p963
stRp964
ag3
(g4
g5
(dp965
g340
g3
(g8
g9
(lp966
g3
(g4
g5
(dp967
g17
S'Int'
p968
sg15
S'id'
p969
sg20
S'Thread/process id'
p970
stRp971
ag3
(g4
g5
(dp972
g17
S'User'
p973
sg15
S'user'
p974
sg20
S'Username of the user running the command'
p975
stRp976
ag3
(g4
g5
(dp977
g17
S'String'
p978
sg15
S'function'
p979
sg20
S'The command being executed.'
p980
stRp981
ag3
(g4
g5
(dp982
g17
S'String'
p983
sg15
S'args'
p984
sg20
S'Arguments passed to the command'
p985
stRp986
ag3
(g4
g5
(dp987
g17
S'Date'
p988
sg15
S'startDate'
p989
sg20
S'The date and time the command started'
p990
stRp991
ag3
(g4
g5
(dp992
g17
S'Int'
p993
sg15
S'runstate'
p994
sg20
S'Flag: 0 for running, 1 for terminated'
p995
stRp996
ag3
(g4
g5
(dp997
g17
S'Domain'
p998
sg15
S'client'
p999
sg20
S'The client workspace'
p1000
stRp1001
ag3
(g4
g5
(dp1002
g17
S'Text'
p1003
sg15
S'host'
p1004
sg20
S'The IP address of the client'
p1005
stRp1006
ag3
(g4
g5
(dp1007
g17
S'Text'
p1008
sg15
S'prog'
p1009
sg20
S'The name (and version) of the client program'
p1010
stRp1011
atRp1012
sg15
S'Monitor'
p1013
stRp1014
ag3
(g4
g5
(dp1015
g340
g3
(g8
g9
(lp1016
g3
(g4
g5
(dp1017
g17
S'Int'
p1018
sg15
S'seq'
p1019
sg20
S'Sequence number: for ordering the protections table'
p1020
stRp1021
ag3
(g4
g5
(dp1022
g17
S'Int'
p1023
sg15
S'isGroup'
p1024
sg20
S'Flag: 0 for a per-user setting, 1 for a per-group setting.'
p1025
stRp1026
ag3
(g4
g5
(dp1027
g17
S'UserWild'
p1028
sg15
S'user'
p1029
sg20
S'User(s), or Group(s) for whom this record applies.'
p1030
stRp1031
ag3
(g4
g5
(dp1032
g17
S'DomainWild'
p1033
sg15
S'host'
p1034
sg20
S'Domain(s) (IP addresses) for which this record applies.'
p1035
stRp1036
ag3
(g4
g5
(dp1037
g17
S'Perm'
p1038
sg15
S'perm'
p1039
sg20
S'Permissions to be granted/revoked'
p1040
stRp1041
ag3
(g4
g5
(dp1042
g17
S'MapFlag'
p1043
sg15
S'mapFlag'
p1044
sg20
S'Flag: Map the files in or out?'
p1045
stRp1046
ag3
(g4
g5
(dp1047
g17
S'Mapping'
p1048
sg15
S'depotFile'
p1049
sg20
S'Files to be mapped in or out.'
p1050
stRp1051
atRp1052
sg15
S'Protect'
p1053
stRp1054
ag3
(g4
g5
(dp1055
g340
g3
(g8
g9
(lp1056
g3
(g4
g5
(dp1057
g17
S'File'
p1058
sg15
S'toFile'
p1059
sg20
S'File to which integration is being performed (target).'
p1060
stRp1061
ag3
(g4
g5
(dp1062
g17
S'File'
p1063
sg15
S'fromFile'
p1064
sg20
S'File from which integration is being performed (source).'
p1065
stRp1066
ag3
(g4
g5
(dp1067
g17
S'Rev'
p1068
sg15
S'startFromRev'
p1069
sg20
S'Starting revision of fromFile'
p1070
stRp1071
ag3
(g4
g5
(dp1072
g17
S'Rev'
p1073
sg15
S'endFromRev'
p1074
sg20
S'Ending revision of fromFile. If integrating from a single \n\t\t    revision (not a revision range), the startFromRev and \n\t\t    endFromRev fields will be identical.'
p1075
stRp1076
ag3
(g4
g5
(dp1077
g17
S'Rev'
p1078
sg15
S'startToRev'
p1079
sg20
S'Start revision of toFile into which integration was \n\t\t    performed.'
p1080
stRp1081
ag3
(g4
g5
(dp1082
g17
S'Rev'
p1083
sg15
S'endToRev'
p1084
sg20
S'End revision of toFile into which integration was \n\t\t    performed. Only varies from startToRev for reverse \n\t\t    integration records.'
p1085
stRp1086
ag3
(g4
g5
(dp1087
g17
S'IntegHow'
p1088
sg15
S'how'
p1089
sg20
S'Integration method: variations on \n\t\t    merge/branch/copy/ignore/delete.'
p1090
stRp1091
ag3
(g4
g5
(dp1092
g17
S'ResolvedStatus'
p1093
sg15
S'resolved'
p1094
sg20
S'How the user performed the resolve.'
p1095
stRp1096
ag3
(g4
g5
(dp1097
g17
S'File'
p1098
sg15
S'baseFile'
p1099
sg20
S'File used as the base for merging.'
p1100
stRp1101
ag3
(g4
g5
(dp1102
g17
S'Rev'
p1103
sg15
S'baseRev'
p1104
sg20
S'Revision of baseFile used as the merge base.'
p1105
stRp1106
atRp1107
sg15
S'Resolve'
p1108
stRp1109
ag3
(g4
g5
(dp1110
g340
g3
(g8
g9
(lp1111
g3
(g4
g5
(dp1112
g17
S'File'
p1113
sg15
S'depotFile'
p1114
sg20
S'The file name'
p1115
stRp1116
ag3
(g4
g5
(dp1117
g17
S'Rev'
p1118
sg15
S'depotRev'
p1119
sg20
S'The revision number'
p1120
stRp1121
ag3
(g4
g5
(dp1122
g17
S'FileType'
p1123
sg15
S'type'
p1124
sg20
S'The file type of the revision'
p1125
stRp1126
ag3
(g4
g5
(dp1127
g17
S'Action'
p1128
sg15
S'action'
p1129
sg20
S'The action that created the revision'
p1130
stRp1131
ag3
(g4
g5
(dp1132
g17
S'Change'
p1133
sg15
S'change'
p1134
sg20
S'The changelist that created the revision'
p1135
stRp1136
ag3
(g4
g5
(dp1137
g17
S'Date'
p1138
sg15
S'date'
p1139
sg20
S'The date/time the changelist that created the revision\n\t\t    was submitted'
p1140
stRp1141
ag3
(g4
g5
(dp1142
g17
S'Date'
p1143
sg15
S'modTime'
p1144
sg20
S"The timestamp on the file in the user's workspace when\n\t\t    the revision was submitted."
p1145
stRp1146
ag3
(g4
g5
(dp1147
g17
S'Digest'
p1148
sg15
S'digest'
p1149
sg20
S'The MD5 digest of the revision.'
p1150
stRp1151
ag3
(g4
g5
(dp1152
g17
S'FileSize'
p1153
sg15
S'size'
p1154
sg20
S'The size of the file in bytes'
p1155
stRp1156
ag3
(g4
g5
(dp1157
g17
S'TraitLot'
p1158
sg15
S'traitLot'
p1159
sg20
S'Group of traits (attributes) associated with the revision.'
p1160
stRp1161
ag3
(g4
g5
(dp1162
g17
S'Int'
p1163
sg15
S'lbrIsLazy'
p1164
sg20
S'Flag specifying whether or not the revision gets its\n\t\t    content from another file (i.e. whether or not depotFile\n\t\t    and lbrFile differ)'
p1165
stRp1166
ag3
(g4
g5
(dp1167
g17
S'File'
p1168
sg15
S'lbrFile'
p1169
sg20
S"Filename for librarian's purposes.  Specifies location in \n\t\t    the archives where the file containing the revision may\n\t\t    be found. Usually the same as depotFile, but differs in\n\t\t    the case of branched/copied revisions."
p1170
stRp1171
ag3
(g4
g5
(dp1172
g17
S'String'
p1173
sg15
S'lbrRev'
p1174
sg20
S'The revision of lbrFile that contains the revision content.'
p1175
stRp1176
ag3
(g4
g5
(dp1177
g17
S'FileType'
p1178
sg15
S'lbrType'
p1179
sg20
S'The file type of the librarian revision. Usually the same\n\t\t    as type, but differs in the case of branched/copied \n\t\t    revisions.'
p1180
stRp1181
atRp1182
sg15
S'Rev'
p1183
stRp1184
ag3
(g4
g5
(dp1185
g340
g3
(g8
g9
(lp1186
g3
(g4
g5
(dp1187
g17
S'Change'
p1188
sg15
S'change'
p1189
sg20
S'The changelist that created the revision'
p1190
stRp1191
ag3
(g4
g5
(dp1192
g17
S'File'
p1193
sg15
S'depotFile'
p1194
sg20
S'The file name'
p1195
stRp1196
ag3
(g4
g5
(dp1197
g17
S'Rev'
p1198
sg15
S'depotRev'
p1199
sg20
S'The revision number'
p1200
stRp1201
ag3
(g4
g5
(dp1202
g17
S'Action'
p1203
sg15
S'action'
p1204
sg20
S'The action that created the revision'
p1205
stRp1206
atRp1207
sg15
S'RevCx'
p1208
stRp1209
ag3
(g4
g5
(dp1210
g340
g3
(g8
g9
(lp1211
g3
(g4
g5
(dp1212
g17
S'User'
p1213
sg15
S'user'
p1214
sg20
S'A user name'
p1215
stRp1216
ag3
(g4
g5
(dp1217
g17
S'Int'
p1218
sg15
S'seq'
p1219
sg20
S'Sequence number: used for ordering multi-line views'
p1220
stRp1221
ag3
(g4
g5
(dp1222
g17
S'MapFlag'
p1223
sg15
S'mapFlag'
p1224
sg20
S'Type of mapping'
p1225
stRp1226
ag3
(g4
g5
(dp1227
g17
S'Mapping'
p1228
sg15
S'depotFile'
p1229
sg20
S'The files to be reviewed'
p1230
stRp1231
ag3
(g4
g5
(dp1232
g17
S'Reviewer'
p1233
sg15
S'type'
p1234
sg20
S'Type of reviewer'
p1235
stRp1236
atRp1237
sg15
S'Review'
p1238
stRp1239
ag3
(g4
g5
(dp1240
g340
g3
(g8
g9
(lp1241
g3
(g4
g5
(dp1242
g17
S'Int'
p1243
sg15
S'traitLot'
p1244
sg20
S'Indicates a specific collection of traits (referred to \n\t\t    externally as "attributes".)'
p1245
stRp1246
ag3
(g4
g5
(dp1247
g17
S'String'
p1248
sg15
S'name'
p1249
sg20
S'Trait (attribute) name'
p1250
stRp1251
ag3
(g4
g5
(dp1252
g17
S'TraitType'
p1253
sg15
S'type'
p1254
sg20
S'Type of trait'
p1255
stRp1256
ag3
(g4
g5
(dp1257
g17
S'Octet String'
p1258
sg15
S'value'
p1259
sg20
S'The value'
p1260
stRp1261
atRp1262
sg15
S'Trait'
p1263
stRp1264
ag3
(g4
g5
(dp1265
g340
g3
(g8
g9
(lp1266
g3
(g4
g5
(dp1267
g17
S'Int'
p1268
sg15
S'seq'
p1269
sg20
S'Sequence number: for ordering the trigger list'
p1270
stRp1271
ag3
(g4
g5
(dp1272
g17
S'String'
p1273
sg15
S'name'
p1274
sg20
S'Name of the trigger'
p1275
stRp1276
ag3
(g4
g5
(dp1277
g17
S'MapFlag'
p1278
sg15
S'mapFlag'
p1279
sg20
S'Type of mapping: specifies whether the trigger applies \n\t\t    to the files or not.'
p1280
stRp1281
ag3
(g4
g5
(dp1282
g17
S'Mapping'
p1283
sg15
S'depotFile'
p1284
sg20
S'The files to apply the trigger to'
p1285
stRp1286
ag3
(g4
g5
(dp1287
g17
S'Trigger'
p1288
sg15
S'trigger'
p1289
sg20
S'Type of trigger'
p1290
stRp1291
ag3
(g4
g5
(dp1292
g17
S'Text'
p1293
sg15
S'action'
p1294
sg20
S'Command to execute when trigger runs'
p1295
stRp1296
atRp1297
sg15
S'Trigger'
p1298
stRp1299
ag3
(g4
g5
(dp1300
g340
g3
(g8
g9
(lp1301
g3
(g4
g5
(dp1302
g17
S'User'
p1303
sg15
S'user'
p1304
sg20
S'The username'
p1305
stRp1306
ag3
(g4
g5
(dp1307
g17
S'Text'
p1308
sg15
S'email'
p1309
sg20
S"The user's email address"
p1310
stRp1311
ag3
(g4
g5
(dp1312
g17
S'Text'
p1313
sg15
S'jobView'
p1314
sg20
S"The user's job view"
p1315
stRp1316
ag3
(g4
g5
(dp1317
g17
S'Date'
p1318
sg15
S'updateDate'
p1319
sg20
S'The date/time the user record was last updated'
p1320
stRp1321
ag3
(g4
g5
(dp1322
g17
S'Date'
p1323
sg15
S'accessDate'
p1324
sg20
S'The date/time the user record was last used'
p1325
stRp1326
ag3
(g4
g5
(dp1327
g17
S'Text'
p1328
sg15
S'fullName'
p1329
sg20
S"The user's full name"
p1330
stRp1331
ag3
(g4
g5
(dp1332
g17
S'Password'
p1333
sg15
S'password'
p1334
sg20
S'The MD5 hash of the users (encrypted) password'
p1335
stRp1336
ag3
(g4
g5
(dp1337
g17
S'Strength'
p1338
sg15
S'strength'
p1339
sg20
S"Measure of the strength of the user's password"
p1340
stRp1341
ag3
(g4
g5
(dp1342
g17
S'Password'
p1343
sg15
S'ticket'
p1344
sg20
S"'p4 login' ticket for this user"
p1345
stRp1346
ag3
(g4
g5
(dp1347
g17
S'Date'
p1348
sg15
S'endDate'
p1349
sg20
S"Date/time the user's ticket expires"
p1350
stRp1351
atRp1352
sg15
S'User'
p1353
stRp1354
ag3
(g4
g5
(dp1355
g340
g3
(g8
g9
(lp1356
g3
(g4
g5
(dp1357
g17
S'Domain'
p1358
sg15
S'name'
p1359
sg20
S'Domain name to which this view applies'
p1360
stRp1361
ag3
(g4
g5
(dp1362
g17
S'Int'
p1363
sg15
S'seq'
p1364
sg20
S'Sequence number: for ordering multi-line views'
p1365
stRp1366
ag3
(g4
g5
(dp1367
g17
S'MapFlag'
p1368
sg15
S'mapFlag'
p1369
sg20
S'Type of mapping'
p1370
stRp1371
ag3
(g4
g5
(dp1372
g17
S'Mapping'
p1373
sg15
S'viewFile'
p1374
sg20
S"The right-hand-side of the view. For clients, this is\n\t\t    the client-side, for labels it's the generated label \n\t\t    view. For branches, it's the target side of the branch\n\t\t    view."
p1375
stRp1376
ag3
(g4
g5
(dp1377
g17
S'Mapping'
p1378
sg15
S'depotFile'
p1379
sg20
S'The left-hand-side of the view - a mapping to file(s)\n\t\t    in the depot.'
p1380
stRp1381
atRp1382
sg15
S'View'
p1383
stRp1384
ag3
(g4
g5
(dp1385
g340
g3
(g8
g9
(lp1386
g3
(g4
g5
(dp1387
g17
S'File'
p1388
sg15
S'clientFile'
p1389
sg20
S'File on the client'
p1390
stRp1391
ag3
(g4
g5
(dp1392
g17
S'File'
p1393
sg15
S'depotFile'
p1394
sg20
S'File in the depot'
p1395
stRp1396
ag3
(g4
g5
(dp1397
g17
S'Domain'
p1398
sg15
S'client'
p1399
sg20
S'The client the file is opened on'
p1400
stRp1401
ag3
(g4
g5
(dp1402
g17
S'User'
p1403
sg15
S'user'
p1404
sg20
S'The user who has the file opened'
p1405
stRp1406
ag3
(g4
g5
(dp1407
g17
S'Rev'
p1408
sg15
S'haveRev'
p1409
sg20
S"Revision presently in user's client workspace.  This is \n\t\t    normally identical to workRev except for the case in which \n\t\t    you've tried to submit a file where you no longer have the \n\t\t    head revision. Perforce schedules the integrate (moves \n\t\t    workRev to headRev, but doesn't change the haveRev, so that \n\t\t    a p4 revert will return the file originally checked-out \n\t\t    instead of the new head revision."
p1410
stRp1411
ag3
(g4
g5
(dp1412
g17
S'Rev'
p1413
sg15
S'workRev'
p1414
sg20
S'Working revision; this is identical to the haveRev except \n\t\t    in the case described above.'
p1415
stRp1416
ag3
(g4
g5
(dp1417
g17
S'Int'
p1418
sg15
S'isVirtual'
p1419
sg20
S'Flag: if 1, file was opened with "p4 integ -v".'
p1420
stRp1421
ag3
(g4
g5
(dp1422
g17
S'FileType'
p1423
sg15
S'type'
p1424
sg20
S'File type'
p1425
stRp1426
ag3
(g4
g5
(dp1427
g17
S'Action'
p1428
sg15
S'action'
p1429
sg20
S"What the user's doing with the file"
p1430
stRp1431
ag3
(g4
g5
(dp1432
g17
S'Change'
p1433
sg15
S'change'
p1434
sg20
S'Associated changelist, or zero for the default changelist.'
p1435
stRp1436
ag3
(g4
g5
(dp1437
g17
S'Date'
p1438
sg15
S'modTime'
p1439
sg20
S'Date when file was opened and added to the pending \n\t\t    changelist.'
p1440
stRp1441
ag3
(g4
g5
(dp1442
g17
S'Int'
p1443
sg15
S'isLocked'
p1444
sg20
S'Flag: 0 for unlocked, 1 for locked.'
p1445
stRp1446
ag3
(g4
g5
(dp1447
g17
S'Digest'
p1448
sg15
S'digest'
p1449
sg20
S'MD5 digest of working file.'
p1450
stRp1451
ag3
(g4
g5
(dp1452
g17
S'Int64'
p1453
sg15
S'size'
p1454
sg20
S'File size'
p1455
stRp1456
ag3
(g4
g5
(dp1457
g17
S'int'
p1458
sg15
S'traitLot'
p1459
sg20
S'Group of traits associated with file revision.'
p1460
stRp1461
ag3
(g4
g5
(dp1462
g17
S'TamperCheck'
p1463
sg15
S'tampered'
p1464
sg20
S'Flag indicating the tamper-state of the file in the\n\t\t    workspace.'
p1465
stRp1466
ag3
(g4
g5
(dp1467
g17
S'FileType'
p1468
sg15
S'clntType'
p1469
sg20
S'Type of the file in the client workspace.'
p1470
stRp1471
ag3
(g4
g5
(dp1472
g17
S'File'
p1473
sg15
S'mFile'
p1474
sg20
S'Moved filename'
p1475
stRp1476
atRp1477
sg15
S'Working'
p1478
stRp1479
atRp1480
stRp1481
sS'upgrades'
p1482
g3
(g4
g5
(dp1483
S'upgrade'
p1484
g3
(g8
g9
(lp1485
g3
(g4
g5
(dp1486
S'release'
p1487
S'2001.1'
p1488
sS'index'
p1489
S'1'
sg20
S'Split db.integ into db.integed and db.resolve'
p1490
stRp1491
ag3
(g4
g5
(dp1492
g1487
S'2001.1'
p1493
sg1489
S'2'
sg20
S'Splt db.have into db.have and db.label'
p1494
stRp1495
ag3
(g4
g5
(dp1496
g1487
S'2002.1'
p1497
sg1489
S'3'
sg20
S'Split db.change into db.change and db.changex'
p1498
stRp1499
ag3
(g4
g5
(dp1500
g1487
S'2002.2'
p1501
sg1489
S'4'
sg20
S'Upgrade tempobj filetype in db.rev'
p1502
stRp1503
ag3
(g4
g5
(dp1504
g1487
S'2002.2'
p1505
sg1489
S'5'
sg20
S'Upgrade tempobj filetype in db.working'
p1506
stRp1507
ag3
(g4
g5
(dp1508
g1487
S'2003.1'
p1509
sg1489
S'6'
sg20
S'JnlInitialize default depot'
p1510
stRp1511
ag3
(g4
g5
(dp1512
g1487
S'2003.2'
p1513
sg1489
S'7'
sg20
S'Upgrade db.user'
p1514
stRp1515
ag3
(g4
g5
(dp1516
g1487
S'2005.1'
p1517
sg1489
S'8'
sg20
S'Build db.revhx (headrev) table'
p1518
stRp1519
ag3
(g4
g5
(dp1520
g1487
S'2005.1'
p1521
sg1489
S'9'
sg20
S'Rebuild db.locks from db.working'
p1522
stRp1523
ag3
(g4
g5
(dp1524
g1487
S'2005.1'
p1525
sg1489
S'10'
p1526
sg122
S'Removed in 2006.2'
p1527
sg20
S'Build lazy-copy index (db.archive)'
p1528
stRp1529
ag3
(g4
g5
(dp1530
g1487
S'2005.2'
p1531
sg1489
S'11'
p1532
sg20
S'Build db.revdx (delrev) table'
p1533
stRp1534
ag3
(g4
g5
(dp1535
g1487
S'2005.2'
p1536
sg1489
S'12'
p1537
sg122
S'Moved to 16 in 2007.3'
p1538
sg20
S'Build haveMap from db.have/db.working'
p1539
stRp1540
ag3
(g4
g5
(dp1541
g1487
S'2005.2'
p1542
sg1489
S'13'
p1543
sg20
S'Move spec depot entries into db.revsx'
p1544
stRp1545
ag3
(g4
g5
(dp1546
g1487
S'2006.2'
p1547
sg1489
S'14'
p1548
sg122
S'Moved to 17 in 2007.3'
p1549
sg20
S'Build db.archmap (lazy-copy map) table'
p1550
stRp1551
ag3
(g4
g5
(dp1552
g1487
S'2006.2'
p1553
sg1489
S'15'
p1554
sg122
S'Moved to 18 in 2007.3'
p1555
sg20
S'Remove (obsolete) db.archive table'
p1556
stRp1557
ag3
(g4
g5
(dp1558
g1487
S'2007.3'
p1559
sg1489
S'16'
p1560
sg122
S'Rewritten in 2007.3'
p1561
sg20
S'Build/Rebuild haveMap from db.have/db.working'
p1562
stRp1563
ag3
(g4
g5
(dp1564
g1487
S'2007.3'
p1565
sg1489
S'17'
p1566
sg122
S'Rewritten in 2007.3'
p1567
sg20
S'Build/Rebuild db.archmap (lazy-copy map) table'
p1568
stRp1569
ag3
(g4
g5
(dp1570
g1487
S'2007.3'
p1571
sg1489
S'18'
p1572
sg122
S'Moved from 15 in 2007.3'
p1573
sg20
S'Remove (obsolete) db.archive table'
p1574
stRp1575
ag3
(g4
g5
(dp1576
g1487
S'2008.1'
p1577
sg1489
S'19'
p1578
sg20
S'Build db.change common path'
p1579
stRp1580
ag3
(g4
g5
(dp1581
g1487
S'2009.2'
p1582
sg1489
S'20'
p1583
sg20
S'Move db.boddate/db.ixdate into db.bodtext/db.ixtext'
p1584
stRp1585
ag3
(g4
g5
(dp1586
g1487
S'2009.2'
p1587
sg1489
S'21'
p1588
sg20
S'Remove db.boddate/db.ixdate'
p1589
stRp1590
atRp1591
stRp1592
sS'datatypes'
p1593
g3
(g4
g5
(dp1594
S'datatype'
p1595
g3
(g8
g9
(lp1596
g3
(g4
g5
(dp1597
g17
S'flag'
p1598
sS'summary'
p1599
S'Type of action'
p1600
sS'values'
p1601
g3
(g8
g9
(lp1602
g3
(g4
g5
(dp1603
S'value'
p1604
S'0'
sg20
S'add; user adds a file'
p1605
stRp1606
ag3
(g4
g5
(dp1607
g1604
S'1'
sg20
S'edit; user edits a file'
p1608
stRp1609
ag3
(g4
g5
(dp1610
g1604
S'2'
sg20
S'delete; user deletes a file'
p1611
stRp1612
ag3
(g4
g5
(dp1613
g1604
S'3'
sg20
S'branch; add via integration'
p1614
stRp1615
ag3
(g4
g5
(dp1616
g1604
S'4'
sg20
S'integ; edit via integration'
p1617
stRp1618
ag3
(g4
g5
(dp1619
g1604
S'5'
sg20
S'import; add via remote depot'
p1620
stRp1621
ag3
(g4
g5
(dp1622
g1604
S'6'
sg20
S'purge; purged revision, no longer available'
p1623
stRp1624
ag3
(g4
g5
(dp1625
g1604
S'7'
sg20
S'movefrom; move from another filename'
p1626
stRp1627
ag3
(g4
g5
(dp1628
g1604
S'8'
sg20
S'moveto; move to another filename'
p1629
stRp1630
atRp1631
sg15
S'Action'
p1632
sg20
S'Revisions are produced by user actions. The Action\n\t\ttype defines the available actions and their internal values.'
p1633
stRp1634
ag3
(g4
g5
(dp1635
g1599
S'A changelist number'
p1636
sg17
S'integer'
p1637
sg15
S'Change'
p1638
sg20
S'The number of a changelist. The number 0 represents the\n\t\tdefault pending changelist.'
p1639
stRp1640
ag3
(g4
g5
(dp1641
g17
S'flag'
p1642
sg1599
S'The status of a change'
p1643
sg1601
g3
(g8
g9
(lp1644
g3
(g4
g5
(dp1645
g1604
S'0'
sg20
S'pending'
p1646
stRp1647
ag3
(g4
g5
(dp1648
g1604
S'1'
sg20
S'committed'
p1649
stRp1650
ag3
(g4
g5
(dp1651
g1604
S'2'
sg20
S'shelved'
p1652
stRp1653
atRp1654
sg15
S'ChangeStatus'
p1655
sg20
S'A integer value representing the status of a change'
p1656
stRp1657
ag3
(g4
g5
(dp1658
g1599
S'A counter name'
p1659
sg17
S'string'
p1660
sg15
S'Counter'
p1661
sg20
S'A string representing the counter name. Counter names must \n\t\tcontain no spaces, contain no slashes, and be identifiers \n\t\t(cannot begin with a dash and cannot be all-numeric)'
p1662
stRp1663
ag3
(g4
g5
(dp1664
g1599
S'A unix-style date and time'
p1665
sg17
S'integer'
p1666
sg15
S'Date'
p1667
sg20
S'A date and time represented as the number of seconds since \n\t\tthe Epoch: 01 January 1970 00:00:00 UTC. This is the same \n\t\tconvention as that used on Unix platforms.'
p1668
stRp1669
ag3
(g4
g5
(dp1670
g17
S'flag'
p1671
sg1599
S'Type of Depot'
p1672
sg1601
g3
(g8
g9
(lp1673
g3
(g4
g5
(dp1674
g1604
S'0'
sg20
S'A local depot'
p1675
stRp1676
ag3
(g4
g5
(dp1677
g1604
S'1'
sg20
S'A remote depot'
p1678
stRp1679
ag3
(g4
g5
(dp1680
g1604
S'2'
sg20
S'A spec depot'
p1681
stRp1682
atRp1683
sg15
S'DepotType'
p1684
sg20
S'The type of a given depot'
p1685
stRp1686
ag3
(g4
g5
(dp1687
g1599
S'A short string value'
p1688
sg20
S'The first 31 characters of a Text string'
p1689
sg17
S'string'
p1690
sg15
S'DescShort'
p1691
sg70
S'Text'
p1692
stRp1693
ag3
(g4
g5
(dp1694
g1599
S'An MD5 digest'
p1695
sg17
S'string'
p1696
sg15
S'Digest'
p1697
sg20
S'A string containing an MD5 digest.'
p1698
stRp1699
ag3
(g4
g5
(dp1700
g1599
S'A domain name'
p1701
sg17
S'string'
p1702
sg15
S'Domain'
p1703
sg20
S'A string representing the name of a depot, label, client,\n\t\tbranch or typemap.'
p1704
stRp1705
ag3
(g4
g5
(dp1706
g1599
S'A string with optional wildcards'
p1707
sg17
S'string'
p1708
sg15
S'DomainWild'
p1709
sg20
S'A string that may contain wildcards - usually an IP address\n\t\tin the protections table.'
p1710
stRp1711
ag3
(g4
g5
(dp1712
g1601
g3
(g8
g9
(lp1713
g3
(g4
g5
(dp1714
S'mask'
p1715
S'Domain Flags'
p1716
sg1604
S'0x0001'
p1717
sg20
S'modtime'
p1718
stRp1719
ag3
(g4
g5
(dp1720
g1715
S'Domain Flags'
p1721
sg1604
S'0x0002'
p1722
sg20
S'clobber'
p1723
stRp1724
ag3
(g4
g5
(dp1725
g1715
S'Domain Flags'
p1726
sg1604
S'0x0004'
p1727
sg20
S'allwrite'
p1728
stRp1729
ag3
(g4
g5
(dp1730
g1715
S'Domain Flags'
p1731
sg1604
S'0x0008'
p1732
sg20
S'locked'
p1733
stRp1734
ag3
(g4
g5
(dp1735
g1715
S'Domain Flags'
p1736
sg1604
S'0x0020'
p1737
sg20
S'compress'
p1738
stRp1739
ag3
(g4
g5
(dp1740
g1715
S'Domain Flags'
p1741
sg1604
S'0x0040'
p1742
sg20
S'rmdir'
p1743
stRp1744
ag3
(g4
g5
(dp1745
g1715
S'Domain Flags'
p1746
sg1604
S'0x1000'
p1747
sg20
S'indirect (obsolete since 2004.2)'
p1748
stRp1749
ag3
(g4
g5
(dp1750
g1715
S'Domain LineEnd'
p1751
sg1604
S'0x0000'
p1752
sg20
S'local'
p1753
stRp1754
ag3
(g4
g5
(dp1755
g1715
S'Domain LineEnd'
p1756
sg1604
S'0x0010'
p1757
sg20
S'unix (LF)'
p1758
stRp1759
ag3
(g4
g5
(dp1760
g1715
S'Domain LineEnd'
p1761
sg1604
S'0x0200'
p1762
sg20
S'mac (CR)'
p1763
stRp1764
ag3
(g4
g5
(dp1765
g1715
S'Domain LineEnd'
p1766
sg1604
S'0x0300'
p1767
sg20
S'win (CRLF)'
p1768
stRp1769
ag3
(g4
g5
(dp1770
g1715
S'Domain LineEnd'
p1771
sg1604
S'0x0400'
p1772
sg20
S'share (LF/CRLF)'
p1773
stRp1774
ag3
(g4
g5
(dp1775
g1715
S'Domain SubmitMask'
p1776
sg1604
S'0x1000'
p1777
sg20
S'Revert unchanged files'
p1778
stRp1779
ag3
(g4
g5
(dp1780
g1715
S'Domain SubmitMask'
p1781
sg1604
S'0x2000'
p1782
sg20
S'Leave unchanged files'
p1783
stRp1784
ag3
(g4
g5
(dp1785
g1715
S'Domain SubmitMask'
p1786
sg1604
S'0x4000'
p1787
sg20
S'Submit, and re-open unchanged files'
p1788
stRp1789
atRp1790
sg15
S'DomainOpts'
p1791
sg1715
g3
(g8
g9
(lp1792
g3
(g4
g5
(dp1793
g15
S'Domain Flags'
p1794
sg1604
S'0x10EF'
p1795
sg20
S'Bits used to store the domain options'
p1796
stRp1797
ag3
(g4
g5
(dp1798
g15
S'Domain LineEnd'
p1799
sg1604
S'0x0710'
p1800
sg20
S'Bits used to store the line termination settings.'
p1801
stRp1802
ag3
(g4
g5
(dp1803
g15
S'Domain SubmitMask'
p1804
sg1604
S'0x7000'
p1805
sg20
S'Bits used to store the submit options'
p1806
stRp1807
atRp1808
sg1599
S'Options for domains'
p1809
sg17
S'bitmask'
p1810
sg20
S'A integer value representing the options for a domain'
p1811
stRp1812
ag3
(g4
g5
(dp1813
g17
S'flag'
p1814
sg1599
S'A domain type'
p1815
sg1601
g3
(g8
g9
(lp1816
g3
(g4
g5
(dp1817
g1604
S"98 (ASCII 'b')"
p1818
sg20
S'branch'
p1819
stRp1820
ag3
(g4
g5
(dp1821
g1604
S"99 (ASCII 'c')"
p1822
sg20
S'client'
p1823
stRp1824
ag3
(g4
g5
(dp1825
g1604
S"100 (ASCII 'd')"
p1826
sg20
S'depot'
p1827
stRp1828
ag3
(g4
g5
(dp1829
g1604
S"108 (ASCII 'l')"
p1830
sg20
S'label'
p1831
stRp1832
ag3
(g4
g5
(dp1833
g1604
S"116 (ASCII 't')"
p1834
sg20
S'typemap'
p1835
stRp1836
atRp1837
sg15
S'DomainType'
p1838
sg20
S'A integer value representing the type of a domain'
p1839
stRp1840
ag3
(g4
g5
(dp1841
g1599
S'A file name'
p1842
sg20
S'A string representing the filename'
p1843
sg17
S'string'
p1844
sg15
S'File'
p1845
sg70
S'FileType'
p1846
stRp1847
ag3
(g4
g5
(dp1848
g1599
S'A file size'
p1849
sg17
S'integer'
p1850
sg15
S'FileSize'
p1851
sg20
S'A 64-bit integer used to store file sizes. The value -1 is\n\t\tused to represent unknown filesizes.'
p1852
stRp1853
ag3
(g4
g5
(dp1854
g1601
g3
(g8
g9
(lp1855
g3
(g4
g5
(dp1856
g1715
S'Storage Type'
p1857
sg1604
S'0x0000'
p1858
sg20
S'RCS'
p1859
stRp1860
ag3
(g4
g5
(dp1861
g1715
S'Storage Type'
p1862
sg1604
S'0x0001'
p1863
sg20
S'Binary'
p1864
stRp1865
ag3
(g4
g5
(dp1866
g1715
S'Storage Type'
p1867
sg1604
S'0x0002'
p1868
sg20
S'Tiny'
p1869
stRp1870
ag3
(g4
g5
(dp1871
g1715
S'Storage Type'
p1872
sg1604
S'0x0003'
p1873
sg20
S'Compressed'
p1874
stRp1875
ag3
(g4
g5
(dp1876
g1715
S'Storage Type'
p1877
sg1604
S'0x0004'
p1878
sg20
S'tempobj (deprecated since 2002.1)'
p1879
stRp1880
ag3
(g4
g5
(dp1881
g1715
S'Storage Type'
p1882
sg1604
S'0x0005'
p1883
sg20
S'Detect type. Used internally when no type is\n\t\t    given by the user.'
p1884
stRp1885
ag3
(g4
g5
(dp1886
g1715
S'Storage Type'
p1887
sg1604
S'0x0006'
p1888
sg20
S'Comressed tempobj (deprecated since 2002.1)'
p1889
stRp1890
ag3
(g4
g5
(dp1891
g1715
S'Storage Type'
p1892
sg1604
S'0x0007'
p1893
sg20
S'Binary access to compressed data. Used internally.'
p1894
stRp1895
ag3
(g4
g5
(dp1896
g1715
S'Storage Type'
p1897
sg1604
S'0x0008'
p1898
sg20
S'Stored externally via librarian trigger'
p1899
stRp1900
ag3
(g4
g5
(dp1901
g1715
S'Storage Mods'
p1902
sg1604
S'0x0010'
p1903
sg20
S'99.2-style keyword expansion/contraction'
p1904
stRp1905
ag3
(g4
g5
(dp1906
g1715
S'Storage Mods'
p1907
sg1604
S'0x0020'
p1908
sg20
S'2000.1-style keyword expansion/contraction'
p1909
stRp1910
ag3
(g4
g5
(dp1911
g1715
S'Storage Mods'
p1912
sg1604
S'0x0030'
p1913
sg20
S'Any type of keyword expansion'
p1914
stRp1915
ag3
(g4
g5
(dp1916
g1715
S'Storage Mods'
p1917
sg1604
S'0x0040'
p1918
sg20
S'Exclusive open'
p1919
stRp1920
ag3
(g4
g5
(dp1921
g1715
S'Storage Mods'
p1922
sg1604
S'0x0080'
p1923
sg20
S'New tempobj (+S modifier)'
p1924
stRp1925
ag3
(g4
g5
(dp1926
g1715
S'Tempobj revisions'
p1927
sg1604
S'0x0000'
p1928
sg20
S'+S1'
p1929
stRp1930
ag3
(g4
g5
(dp1931
g1715
S'Tempobj revisions'
p1932
sg1604
S'0x0100'
p1933
sg20
S'+S2'
p1934
stRp1935
ag3
(g4
g5
(dp1936
g1715
S'Tempobj revisions'
p1937
sg1604
S'0x0200'
p1938
sg20
S'+S3'
p1939
stRp1940
ag3
(g4
g5
(dp1941
g1715
S'Tempobj revisions'
p1942
sg1604
S'0x0300'
p1943
sg20
S'+S4'
p1944
stRp1945
ag3
(g4
g5
(dp1946
g1715
S'Tempobj revisions'
p1947
sg1604
S'0x0400'
p1948
sg20
S'+S5'
p1949
stRp1950
ag3
(g4
g5
(dp1951
g1715
S'Tempobj revisions'
p1952
sg1604
S'0x0500'
p1953
sg20
S'+S6'
p1954
stRp1955
ag3
(g4
g5
(dp1956
g1715
S'Tempobj revisions'
p1957
sg1604
S'0x0600'
p1958
sg20
S'+S7'
p1959
stRp1960
ag3
(g4
g5
(dp1961
g1715
S'Tempobj revisions'
p1962
sg1604
S'0x0700'
p1963
sg20
S'+S8'
p1964
stRp1965
ag3
(g4
g5
(dp1966
g1715
S'Tempobj revisions'
p1967
sg1604
S'0x0800'
p1968
sg20
S'+S9'
p1969
stRp1970
ag3
(g4
g5
(dp1971
g1715
S'Tempobj revisions'
p1972
sg1604
S'0x0900'
p1973
sg20
S'+S10'
p1974
stRp1975
ag3
(g4
g5
(dp1976
g1715
S'Tempobj revisions'
p1977
sg1604
S'0x0A00'
p1978
sg20
S'+S16'
p1979
stRp1980
ag3
(g4
g5
(dp1981
g1715
S'Tempobj revisions'
p1982
sg1604
S'0x0B00'
p1983
sg20
S'+S32'
p1984
stRp1985
ag3
(g4
g5
(dp1986
g1715
S'Tempobj revisions'
p1987
sg1604
S'0x0C00'
p1988
sg20
S'+S64'
p1989
stRp1990
ag3
(g4
g5
(dp1991
g1715
S'Tempobj revisions'
p1992
sg1604
S'0x0D00'
p1993
sg20
S'+S128'
p1994
stRp1995
ag3
(g4
g5
(dp1996
g1715
S'Tempobj revisions'
p1997
sg1604
S'0x0E00'
p1998
sg20
S'+S256'
p1999
stRp2000
ag3
(g4
g5
(dp2001
g1715
S'Tempobj revisions'
p2002
sg1604
S'0x0F00'
p2003
sg20
S'+S512'
p2004
stRp2005
ag3
(g4
g5
(dp2006
g1715
S'Client Type'
p2007
sg1604
S'0x0000000'
p2008
sg20
S'text'
p2009
stRp2010
ag3
(g4
g5
(dp2011
g1715
S'Client Type'
p2012
sg1604
S'0x0010000'
p2013
sg20
S'binary'
p2014
stRp2015
ag3
(g4
g5
(dp2016
g1715
S'Client Type'
p2017
sg1604
S'0x0020000'
p2018
sg20
S'executable bit set'
p2019
stRp2020
ag3
(g4
g5
(dp2021
g1715
S'Client Type'
p2022
sg1604
S'0x0040000'
p2023
sg20
S'symlink'
p2024
stRp2025
ag3
(g4
g5
(dp2026
g1715
S'Client Type'
p2027
sg1604
S'0x0050000'
p2028
sg20
S'resource fork'
p2029
stRp2030
ag3
(g4
g5
(dp2031
g1715
S'Client Type'
p2032
sg1604
S'0x0080000'
p2033
sg20
S'unicode'
p2034
stRp2035
ag3
(g4
g5
(dp2036
g1715
S'Client Type'
p2037
sg1604
S'0x0090000'
p2038
sg20
S'raw text (nocrlf - 99.1)'
p2039
stRp2040
ag3
(g4
g5
(dp2041
g1715
S'Client Type'
p2042
sg1604
S'0x00C0000'
p2043
sg20
S'apple data + resource file (since 2000.2)'
p2044
stRp2045
ag3
(g4
g5
(dp2046
g1715
S'Client Type'
p2047
sg1604
S'0x00D0000'
p2048
sg20
S'apple data + resource file (99.2)'
p2049
stRp2050
ag3
(g4
g5
(dp2051
g1715
S'Client Type'
p2052
sg1604
S'0x1000000'
p2053
sg20
S'Used to support filetype detection'
p2054
stRp2055
ag3
(g4
g5
(dp2056
g1715
S'Client Mods'
p2057
sg1604
S'0x0100000'
p2058
sg20
S'writable'
p2059
stRp2060
ag3
(g4
g5
(dp2061
g1715
S'Client Mods'
p2062
sg1604
S'0x0200000'
p2063
sg20
S'modtime'
p2064
stRp2065
ag3
(g4
g5
(dp2066
g1715
S'Client Mods'
p2067
sg1604
S'0x0400000'
p2068
sg20
S'uncompress on client'
p2069
stRp2070
atRp2071
sg15
S'FileType'
p2072
sg1715
g3
(g8
g9
(lp2073
g3
(g4
g5
(dp2074
g15
S'Storage Type'
p2075
sg1604
S'0x000F'
p2076
sg20
S"Bits used to store the server's storage type"
p2077
stRp2078
ag3
(g4
g5
(dp2079
g15
S'Storage Mods'
p2080
sg1604
S'0x00F0'
p2081
sg20
S"Bits used to store the modifiers to the server's storage \n\t\t    type"
p2082
stRp2083
ag3
(g4
g5
(dp2084
g15
S'Tempobj revisions'
p2085
sg1604
S'0x0F00'
p2086
sg20
S'Bits used to store the number of revisions to be stored\n\t\t    for +Sn files.'
p2087
stRp2088
ag3
(g4
g5
(dp2089
g15
S'Client Type'
p2090
sg1604
S'0x10D0000'
p2091
sg20
S"Bits used to store the file type from the client's point\n\t\t    of view."
p2092
stRp2093
ag3
(g4
g5
(dp2094
g15
S'Client Mods'
p2095
sg1604
S'0x720000'
p2096
sg20
S'Bits used to store the modifiers applied to the file\n\t\t    on the client.'
p2097
stRp2098
atRp2099
sg1599
S'Type of file'
p2100
sg17
S'bitmask'
p2101
sg20
S'The FileType is a bitmask specifying the type and modifiers\n\t\tof a revision from both the client and server points of view.\n\t\tThe first 16 bits are used to store the storage type and \n\t\tmodifiers, the next 16 bits are used to store the client \n\t\taccess method and modifiers.'
p2102
stRp2103
ag3
(g4
g5
(dp2104
g1599
S'Status of a fixed job'
p2105
sg17
S'string'
p2106
sg15
S'FixStatus'
p2107
sg20
S'This type is a wrapper around the \'Text\' type that handles\n\t\tthe pre-2000.1 "closed" default value.'
p2108
stRp2109
ag3
(g4
g5
(dp2110
g1599
S'A 32-bit integer'
p2111
sg17
S'integer'
p2112
sg15
S'Int'
p2113
sg20
S'A 32-bit integer'
p2114
stRp2115
ag3
(g4
g5
(dp2116
g1599
S'An 8-bit integer'
p2117
sg17
S'integer'
p2118
sg15
S'Int8'
p2119
sg20
S'An 8-bit integer: an unsigned char'
p2120
stRp2121
ag3
(g4
g5
(dp2122
g1599
S'A 64-bit integer'
p2123
sg17
S'integer'
p2124
sg15
S'Int64'
p2125
sg20
S'A 64-bit integer.'
p2126
stRp2127
ag3
(g4
g5
(dp2128
g122
S'All integration records should have a corresponding \n\t\treverse record. The \'branch from\' (2) and \'merge from\' (0) \n\t\trecords have corresponding "dirty" reverse records for cases \n\t\twhere the target file took more than one change or was \n\t\t(re)opened for \'edit\' or \'add\'.'
p2129
sg1601
g3
(g8
g9
(lp2130
g3
(g4
g5
(dp2131
g1604
S'0'
sg20
S'merge from: integration with other changes'
p2132
stRp2133
ag3
(g4
g5
(dp2134
g1604
S'1'
sg20
S'merge into: reverse merge'
p2135
stRp2136
ag3
(g4
g5
(dp2137
g1604
S'2'
sg20
S'branch from: integration was branch of file'
p2138
stRp2139
ag3
(g4
g5
(dp2140
g1604
S'3'
sg20
S'branch into: reverse branch'
p2141
stRp2142
ag3
(g4
g5
(dp2143
g1604
S'4'
sg20
S'copy from: integration took source file whole'
p2144
stRp2145
ag3
(g4
g5
(dp2146
g1604
S'5'
sg20
S'copy into: reverse take'
p2147
stRp2148
ag3
(g4
g5
(dp2149
g1604
S'6'
sg20
S'ignored: integration ignored source changes'
p2150
stRp2151
ag3
(g4
g5
(dp2152
g1604
S'7'
sg20
S'ignored by: reverse copy'
p2153
stRp2154
ag3
(g4
g5
(dp2155
g1604
S'8'
sg20
S'delete from: integration of delete'
p2156
stRp2157
ag3
(g4
g5
(dp2158
g1604
S'9'
sg20
S'delete into: reverse delete'
p2159
stRp2160
ag3
(g4
g5
(dp2161
g1604
S'10'
p2162
sg20
S'edit into: reverse of integration downgraded to \n\t\t    edit'
p2163
stRp2164
ag3
(g4
g5
(dp2165
g1604
S'11'
p2166
sg20
S'add into: reverse of branch downgraded to add'
p2167
stRp2168
ag3
(g4
g5
(dp2169
g1604
S'12'
p2170
sg20
S'edit from; merge that the user edited'
p2171
stRp2172
ag3
(g4
g5
(dp2173
g1604
S'13'
p2174
sg20
S'add from; branch downgraded to add'
p2175
stRp2176
ag3
(g4
g5
(dp2177
g1604
S'14'
p2178
sg20
S'moved into; file was renamed'
p2179
stRp2180
ag3
(g4
g5
(dp2181
g1604
S'15'
p2182
sg20
S'moved from: reverse of renamed file'
p2183
stRp2184
atRp2185
sg15
S'IntegHow'
p2186
sg1599
S'Integration methods'
p2187
sg17
S'flag'
p2188
sg20
S"Specifies how an integration was performed. Integrations\n\t\talways come in pairs: the 'forward' and 'reverse' records.\n\t\tAs a general rule, the forward records contain the word \n\t\t'from'; and the reverse records contain the word 'into'."
p2189
stRp2190
ag3
(g4
g5
(dp2191
g17
S'flag'
p2192
sg1599
S'Job status - defunct'
p2193
sg1601
g3
(g8
g9
(lp2194
g3
(g4
g5
(dp2195
g1604
S'0'
sg20
S'open'
p2196
stRp2197
ag3
(g4
g5
(dp2198
g1604
S'1'
sg20
S'closed'
p2199
stRp2200
ag3
(g4
g5
(dp2201
g1604
S'2'
sg20
S'suspended'
p2202
stRp2203
atRp2204
sg15
S'JobStat'
p2205
sg20
S'Old (pre-98.2) job status values.'
p2206
stRp2207
ag3
(g4
g5
(dp2208
g17
S'flag'
p2209
sg1599
S'Types of mapping'
p2210
sg1601
g3
(g8
g9
(lp2211
g3
(g4
g5
(dp2212
g1604
S'0'
sg20
S'mapped-in (the default)'
p2213
stRp2214
ag3
(g4
g5
(dp2215
g1604
S'1'
sg20
S"mapped-out (mappings that start with '-')"
p2216
stRp2217
ag3
(g4
g5
(dp2218
g1604
S'2'
sg20
S"overlay (mappings that start with '+')"
p2219
stRp2220
ag3
(g4
g5
(dp2221
g1604
S'3'
sg20
S"haveMap (mappings that start with '$'). Used internally\n\t\t    only"
p2222
stRp2223
atRp2224
sg15
S'MapFlag'
p2225
sg20
S'Specifies how the files specified by a mapping should be\n\t\ttreated'
p2226
stRp2227
ag3
(g4
g5
(dp2228
g1599
S'A string representing a mapping'
p2229
sg17
S'string'
p2230
sg15
S'Mapping'
p2231
sg20
S'A Mapping is essentially a file name that may contain\n\t\twildcards'
p2232
stRp2233
ag3
(g4
g5
(dp2234
g1599
S'Maximum number of milliseconds to hold locks'
p2235
sg17
S'integer'
p2236
sg15
S'MaxLockTime'
p2237
sg20
S"The number of milliseconds for which a command may hold locks.\n\t\tCommands that take longer than this time period will abort. \n\t\tThe value 0 means 'unlimited'."
p2238
stRp2239
ag3
(g4
g5
(dp2240
g1599
S'Maximum number of results permitted'
p2241
sg17
S'integer'
p2242
sg15
S'MaxResults'
p2243
sg20
S"The number of results that commands run by the restricted\n\t\tuser are permitted to return. The value 0 means 'unlimited'."
p2244
stRp2245
ag3
(g4
g5
(dp2246
g1599
S'Maximum number of records scanned'
p2247
sg17
S'integer'
p2248
sg15
S'MaxScanRows'
p2249
sg20
S"The maximum number of records that the server may read\n\t\ton behalf of the restricted user. The value 0 means \n\t\t'unlimited'."
p2250
stRp2251
ag3
(g4
g5
(dp2252
g1599
S'Encoded hex string'
p2253
sg17
S'string'
p2254
sg15
S'Octet String'
p2255
sg20
S'A variable length encoded hex string. The first octet \n\t\tstores the length of the string.'
p2256
stRp2257
ag3
(g4
g5
(dp2258
g1599
S'The MD5 hash of a password'
p2259
sg17
S'string'
p2260
sg15
S'Password'
p2261
sg20
S'The MD5 hash of an encrypted password.'
p2262
stRp2263
ag3
(g4
g5
(dp2264
g1601
g3
(g8
g9
(lp2265
g3
(g4
g5
(dp2266
g1715
S'PermTypeBits'
p2267
sg15
S'List'
p2268
sg1604
S'0x0001'
p2269
sg20
S'Grants list access'
p2270
stRp2271
ag3
(g4
g5
(dp2272
g1715
S'PermTypeBits'
p2273
sg15
S'Read'
p2274
sg1604
S'0x0002'
p2275
sg20
S'Grants read access'
p2276
stRp2277
ag3
(g4
g5
(dp2278
g1715
S'PermTypeBits'
p2279
sg15
S'Branch'
p2280
sg1604
S'0x0004'
p2281
sg20
S'Grants ability to branch/integ from'
p2282
stRp2283
ag3
(g4
g5
(dp2284
g1715
S'PermTypeBits'
p2285
sg15
S'Open'
p2286
sg1604
S'0x0008'
p2287
sg20
S'Grants open access'
p2288
stRp2289
ag3
(g4
g5
(dp2290
g1715
S'PermTypeBits'
p2291
sg15
S'Write'
p2292
sg1604
S'0x0010'
p2293
sg20
S'Grants write access'
p2294
stRp2295
ag3
(g4
g5
(dp2296
g1715
S'PermTypeBits'
p2297
sg15
S'Review'
p2298
sg1604
S'0x0020'
p2299
sg20
S'Grants review access'
p2300
stRp2301
ag3
(g4
g5
(dp2302
g1715
S'PermTypeBits'
p2303
sg15
S'Admin'
p2304
sg1604
S'0x0080'
p2305
sg20
S'Grants admin access'
p2306
stRp2307
ag3
(g4
g5
(dp2308
g1715
S'PermTypeBits'
p2309
sg15
S'Super'
p2310
sg1604
S'0x0040'
p2311
sg20
S'Grants super-user access'
p2312
stRp2313
atRp2314
sg15
S'Perm'
p2315
sg1715
g3
(g4
g5
(dp2316
g15
S'PermTypeBits'
p2317
sg1604
S'0x00FF'
p2318
sg20
S'Bits used to store granted permissions'
p2319
stRp2320
sg1599
S'Bitmask of permissions'
p2321
sg17
S'bitmask'
p2322
sg20
S'A bitmask of granted permissions'
p2323
stRp2324
ag3
(g4
g5
(dp2325
g17
S'flag'
p2326
sg1599
S'Resolve methods'
p2327
sg1601
g3
(g8
g9
(lp2328
g3
(g4
g5
(dp2329
g1604
S'0'
sg20
S'Not yet resolved'
p2330
stRp2331
ag3
(g4
g5
(dp2332
g1604
S'1'
sg20
S'Resolved manually'
p2333
stRp2334
ag3
(g4
g5
(dp2335
g1604
S'2'
sg20
S'Resolved automatically as part of a branch'
p2336
stRp2337
ag3
(g4
g5
(dp2338
g1604
S'3'
sg20
S'Resolved automatically as part of a delete'
p2339
stRp2340
ag3
(g4
g5
(dp2341
g1604
S'4'
sg20
S'Resolved automatically as part of a move'
p2342
stRp2343
atRp2344
sg15
S'ResolvedStatus'
p2345
sg20
S'Specifies how the user resolved merge operations.'
p2346
stRp2347
ag3
(g4
g5
(dp2348
g1599
S'A revision number'
p2349
sg17
S'integer'
p2350
sg15
S'Rev'
p2351
sg20
S"The positive integer number of a specific revision of a file. \n\t\tThe number 0 represents '#none'."
p2352
stRp2353
ag3
(g4
g5
(dp2354
g1599
S'Type of reviewer'
p2355
sg17
S'integer'
p2356
sg15
S'Reviewer'
p2357
sg20
S'The type of reviewer. Currently there is only one type of\n\t\treviewer and 0 is the only valid value.'
p2358
stRp2359
ag3
(g4
g5
(dp2360
g17
S'flag'
p2361
sg1599
S'Strength check of a password'
p2362
sg1601
g3
(g8
g9
(lp2363
g3
(g4
g5
(dp2364
g1604
S'0'
sg20
S'Strength unknown'
p2365
stRp2366
ag3
(g4
g5
(dp2367
g1604
S'1'
sg20
S'Password is strong'
p2368
stRp2369
ag3
(g4
g5
(dp2370
g1604
S'2'
sg20
S'Password is not strong'
p2371
stRp2372
atRp2373
sg15
S'Strength'
p2374
sg20
S"Whether or not a user's password has been tested for strength."
p2375
stRp2376
ag3
(g4
g5
(dp2377
S'restriction'
p2378
g3
(g8
g9
(lp2379
S'Cannot be empty'
p2380
aS'Cannot consist solely of a dash (-)'
p2381
aS'Cannot be all-numeric'
p2382
aS'Cannot contain non-printable characters'
p2383
aS'Spaces are replaced with underscores ( _ )'
p2384
aS'Revision characters (# and @) are prohibited'
p2385
aS'Slashes (/) are prohibited'
p2386
aS'Wildcards (... and *) are prohibited'
p2387
atRp2388
sg1599
S'A string up to 1024 characters long'
p2389
sg17
S'string'
p2390
sg15
S'String'
p2391
sg20
S'A string up to 1024 characters in length.  Depending on the \n\t\tcontext in which the string is used, restrictions \n\t\tmay apply. Strings are often used as key fields in the \n\t\tschema.'
p2392
stRp2393
ag3
(g4
g5
(dp2394
g17
S'flag'
p2395
sg1599
S'Tamper-state of workspace file'
p2396
sg1601
g3
(g8
g9
(lp2397
g3
(g4
g5
(dp2398
g1604
S'0'
sg20
S'Do not check for tampering'
p2399
stRp2400
ag3
(g4
g5
(dp2401
g1604
S'1'
sg20
S'Check for tampering'
p2402
stRp2403
ag3
(g4
g5
(dp2404
g1604
S'2'
sg20
S'Tamper-check failed'
p2405
stRp2406
atRp2407
sg15
S'TamperCheck'
p2408
sg20
S'Indicates the tamper-state of a file in a workspace. This\n\t\tis used to decide whether or not to check the file, and\n\t\tif checked, to hold the result.'
p2409
stRp2410
ag3
(g4
g5
(dp2411
g1599
S'A string value'
p2412
sg17
S'string'
p2413
sg15
S'Text'
p2414
sg20
S'A text string value - used to hold longer blocks of text.'
p2415
stRp2416
ag3
(g4
g5
(dp2417
g1599
S'The id of a group of traits'
p2418
sg17
S'integer'
p2419
sg15
S'TraitLot'
p2420
sg20
S'An integer identifying a group of traits which may be\n\t\tshared by several revisions.'
p2421
stRp2422
ag3
(g4
g5
(dp2423
g17
S'flag'
p2424
sg1599
S'A type of trait'
p2425
sg1601
g3
(g8
g9
(lp2426
g3
(g4
g5
(dp2427
g1604
S'0'
sg20
S'special trait for reference counting'
p2428
stRp2429
ag3
(g4
g5
(dp2430
g1604
S'1'
sg20
S'Binary trait'
p2431
stRp2432
ag3
(g4
g5
(dp2433
g1604
S'2'
sg20
S'Binary trait that gets propagated'
p2434
stRp2435
atRp2436
sg15
S'TraitType'
p2437
sg20
S'The type of trait.'
p2438
stRp2439
ag3
(g4
g5
(dp2440
g17
S'flag'
p2441
sg1599
S'A type of trigger'
p2442
sg1601
g3
(g8
g9
(lp2443
g3
(g4
g5
(dp2444
g1604
S'0'
sg20
S'change-submit (formerly pre-submit triggers)'
p2445
stRp2446
ag3
(g4
g5
(dp2447
g1604
S'1'
sg20
S'change-content'
p2448
stRp2449
ag3
(g4
g5
(dp2450
g1604
S'2'
sg20
S'change-commit'
p2451
stRp2452
ag3
(g4
g5
(dp2453
g1604
S'3'
sg20
S'form-in'
p2454
stRp2455
ag3
(g4
g5
(dp2456
g1604
S'4'
sg20
S'form-out'
p2457
stRp2458
ag3
(g4
g5
(dp2459
g1604
S'5'
sg20
S'form-save'
p2460
stRp2461
ag3
(g4
g5
(dp2462
g1604
S'6'
sg20
S'form-delete'
p2463
stRp2464
ag3
(g4
g5
(dp2465
g1604
S'7'
sg20
S'form-commit'
p2466
stRp2467
ag3
(g4
g5
(dp2468
g1604
S'8'
sg20
S'auth-check'
p2469
stRp2470
ag3
(g4
g5
(dp2471
g1604
S'9'
sg20
S'auth-set'
p2472
stRp2473
ag3
(g4
g5
(dp2474
g1604
S'10'
p2475
sg20
S'fix-add'
p2476
stRp2477
ag3
(g4
g5
(dp2478
g1604
S'11'
p2479
sg20
S'fix-delete'
p2480
stRp2481
ag3
(g4
g5
(dp2482
g1604
S'12'
p2483
sg20
S'archive'
p2484
stRp2485
atRp2486
sg15
S'Trigger'
p2487
sg20
S'The type of a trigger.'
p2488
stRp2489
ag3
(g4
g5
(dp2490
g1599
S'A user or group name'
p2491
sg20
S'The name of a Perforce user or group.'
p2492
sg17
S'string'
p2493
sg15
S'User'
p2494
sg70
S'String'
p2495
stRp2496
ag3
(g4
g5
(dp2497
g1601
g3
(g8
g9
(lp2498
g3
(g4
g5
(dp2499
g1715
S'UserTypeBits'
p2500
sg15
S'User'
p2501
sg1604
S'0x0001'
p2502
sg20
S'User is an ordinary user'
p2503
stRp2504
ag3
(g4
g5
(dp2505
g1715
S'UserTypeBits'
p2506
sg15
S'SubGroup'
p2507
sg1604
S'0x0002'
p2508
sg20
S'Group is a sub-group'
p2509
stRp2510
ag3
(g4
g5
(dp2511
g1715
S'UserTypeBits'
p2512
sg15
S'Owner'
p2513
sg1604
S'0x0004'
p2514
sg20
S'User is the owner of a group'
p2515
stRp2516
atRp2517
sg15
S'UserType'
p2518
sg1715
g3
(g4
g5
(dp2519
g15
S'UserTypeBits'
p2520
sg1604
S'0x0007'
p2521
sg20
S'Bits used to store the role of a user in a group'
p2522
stRp2523
sg1599
S'The role of a user within a group'
p2524
sg17
S'bitmask'
p2525
sg20
S'The role of a user (or group) within a group.'
p2526
stRp2527
ag3
(g4
g5
(dp2528
g1599
S'A user or group name with wildcards'
p2529
sg20
S'A user/group name that may contain wildcards (*)'
p2530
sg17
S'string'
p2531
sg15
S'UserWild'
p2532
sg70
S'User'
p2533
stRp2534
ag3
(g4
g5
(dp2535
g1599
S'A number or a string'
p2536
sg17
S'string'
p2537
sg15
S'Value'
p2538
sg20
S'A number, stored in a string, or a string'
p2539
stRp2540
atRp2541
stRp2542
s.